ARM GAS  /tmp/ccaBiRo7.s 			page 1


   1              		.cpu cortex-m4
   2              		.eabi_attribute 27, 1
   3              		.eabi_attribute 28, 1
   4              		.eabi_attribute 20, 1
   5              		.eabi_attribute 21, 1
   6              		.eabi_attribute 23, 3
   7              		.eabi_attribute 24, 1
   8              		.eabi_attribute 25, 1
   9              		.eabi_attribute 26, 1
  10              		.eabi_attribute 30, 4
  11              		.eabi_attribute 34, 1
  12              		.eabi_attribute 18, 4
  13              		.file	"board.c"
  14              		.text
  15              	.Ltext0:
  16              		.cfi_sections	.debug_frame
  17              		.section	.text.gpio_init,"ax",%progbits
  18              		.align	1
  19              		.syntax unified
  20              		.thumb
  21              		.thumb_func
  22              		.fpu fpv4-sp-d16
  23              		.type	gpio_init, %function
  24              	gpio_init:
  25              	.LFB323:
  26              		.file 1 "../../libraries/AP_HAL_ChibiOS/hwdef/common/board.c"
  27              		.loc 1 158 0
  28              		.cfi_startproc
  29              		@ args = 0, pretend = 0, frame = 0
  30              		@ frame_needed = 0, uses_anonymous_args = 0
  31              		@ link register save eliminated.
  32              	.LVL0:
  33              		.loc 1 160 0
  34 0000 4B68     		ldr	r3, [r1, #4]
  35 0002 4360     		str	r3, [r0, #4]
  36              		.loc 1 161 0
  37 0004 8B68     		ldr	r3, [r1, #8]
  38 0006 8360     		str	r3, [r0, #8]
  39              		.loc 1 162 0
  40 0008 CB68     		ldr	r3, [r1, #12]
  41 000a C360     		str	r3, [r0, #12]
  42              		.loc 1 163 0
  43 000c 0B69     		ldr	r3, [r1, #16]
  44 000e 4361     		str	r3, [r0, #20]
  45              		.loc 1 164 0
  46 0010 4B69     		ldr	r3, [r1, #20]
  47 0012 0362     		str	r3, [r0, #32]
  48              		.loc 1 165 0
  49 0014 8B69     		ldr	r3, [r1, #24]
  50 0016 4362     		str	r3, [r0, #36]
  51              		.loc 1 166 0
  52 0018 0B68     		ldr	r3, [r1]
  53 001a 0360     		str	r3, [r0]
  54 001c 7047     		bx	lr
  55              		.cfi_endproc
  56              	.LFE323:
  57              		.size	gpio_init, .-gpio_init
ARM GAS  /tmp/ccaBiRo7.s 			page 2


  58              		.section	.text.__early_init,"ax",%progbits
  59              		.align	1
  60              		.global	__early_init
  61              		.syntax unified
  62              		.thumb
  63              		.thumb_func
  64              		.fpu fpv4-sp-d16
  65              		.type	__early_init, %function
  66              	__early_init:
  67              	.LFB325:
  68              		.loc 1 227 0
  69              		.cfi_startproc
  70              		@ args = 0, pretend = 0, frame = 0
  71              		@ frame_needed = 0, uses_anonymous_args = 0
  72 0000 08B5     		push	{r3, lr}
  73              		.cfi_def_cfa_offset 8
  74              		.cfi_offset 3, -8
  75              		.cfi_offset 14, -4
  76              	.LBB4:
  77              	.LBB5:
  78              		.loc 1 180 0
  79 0002 224B     		ldr	r3, .L3
  80              		.loc 1 186 0
  81 0004 2248     		ldr	r0, .L3+4
  82              		.loc 1 180 0
  83 0006 1A69     		ldr	r2, [r3, #16]
  84 0008 40F2FF11 		movw	r1, #511
  85 000c 0A43     		orrs	r2, r2, r1
  86 000e 1A61     		str	r2, [r3, #16]
  87 0010 1A69     		ldr	r2, [r3, #16]
  88 0012 22F4FF72 		bic	r2, r2, #510
  89 0016 22F00102 		bic	r2, r2, #1
  90 001a 1A61     		str	r2, [r3, #16]
  91 001c 1A69     		ldr	r2, [r3, #16]
  92              		.loc 1 181 0
  93 001e 1A6B     		ldr	r2, [r3, #48]
  94 0020 0A43     		orrs	r2, r2, r1
  95 0022 1A63     		str	r2, [r3, #48]
  96 0024 1A6D     		ldr	r2, [r3, #80]
  97 0026 0A43     		orrs	r2, r2, r1
  98 0028 1A65     		str	r2, [r3, #80]
  99              		.loc 1 186 0
 100 002a 1A4A     		ldr	r2, .L3+8
 101              		.loc 1 181 0
 102 002c 1B6D     		ldr	r3, [r3, #80]
 103              		.loc 1 186 0
 104 002e 1146     		mov	r1, r2
 105 0030 FFF7FEFF 		bl	gpio_init
 106              	.LVL1:
 107              		.loc 1 189 0
 108 0034 1848     		ldr	r0, .L3+12
 109 0036 02F11C01 		add	r1, r2, #28
 110 003a FFF7FEFF 		bl	gpio_init
 111              	.LVL2:
 112              		.loc 1 192 0
 113 003e 1748     		ldr	r0, .L3+16
 114 0040 02F13801 		add	r1, r2, #56
ARM GAS  /tmp/ccaBiRo7.s 			page 3


 115 0044 FFF7FEFF 		bl	gpio_init
 116              	.LVL3:
 117              		.loc 1 195 0
 118 0048 1548     		ldr	r0, .L3+20
 119 004a 02F15401 		add	r1, r2, #84
 120 004e FFF7FEFF 		bl	gpio_init
 121              	.LVL4:
 122              		.loc 1 198 0
 123 0052 1448     		ldr	r0, .L3+24
 124 0054 02F17001 		add	r1, r2, #112
 125 0058 FFF7FEFF 		bl	gpio_init
 126              	.LVL5:
 127              		.loc 1 201 0
 128 005c 1248     		ldr	r0, .L3+28
 129 005e 02F18C01 		add	r1, r2, #140
 130 0062 FFF7FEFF 		bl	gpio_init
 131              	.LVL6:
 132              		.loc 1 204 0
 133 0066 1148     		ldr	r0, .L3+32
 134 0068 02F1A801 		add	r1, r2, #168
 135 006c FFF7FEFF 		bl	gpio_init
 136              	.LVL7:
 137              		.loc 1 207 0
 138 0070 0F48     		ldr	r0, .L3+36
 139 0072 02F1C401 		add	r1, r2, #196
 140 0076 FFF7FEFF 		bl	gpio_init
 141              	.LVL8:
 142              		.loc 1 210 0
 143 007a 0E48     		ldr	r0, .L3+40
 144 007c 02F1E001 		add	r1, r2, #224
 145 0080 FFF7FEFF 		bl	gpio_init
 146              	.LVL9:
 147              	.LBE5:
 148              	.LBE4:
 149              		.loc 1 235 0
 150 0084 BDE80840 		pop	{r3, lr}
 151              		.cfi_restore 14
 152              		.cfi_restore 3
 153              		.cfi_def_cfa_offset 0
 154              		.loc 1 231 0
 155 0088 FFF7FEBF 		b	stm32_clock_init
 156              	.LVL10:
 157              	.L4:
 158              		.align	2
 159              	.L3:
 160 008c 00380240 		.word	1073887232
 161 0090 00000240 		.word	1073872896
 162 0094 00000000 		.word	.LANCHOR0
 163 0098 00040240 		.word	1073873920
 164 009c 00080240 		.word	1073874944
 165 00a0 000C0240 		.word	1073875968
 166 00a4 00100240 		.word	1073876992
 167 00a8 00140240 		.word	1073878016
 168 00ac 00180240 		.word	1073879040
 169 00b0 001C0240 		.word	1073880064
 170 00b4 00200240 		.word	1073881088
 171              		.cfi_endproc
ARM GAS  /tmp/ccaBiRo7.s 			page 4


 172              	.LFE325:
 173              		.size	__early_init, .-__early_init
 174              		.section	.text.__late_init,"ax",%progbits
 175              		.align	1
 176              		.global	__late_init
 177              		.syntax unified
 178              		.thumb
 179              		.thumb_func
 180              		.fpu fpv4-sp-d16
 181              		.type	__late_init, %function
 182              	__late_init:
 183              	.LFB326:
 184              		.loc 1 237 0
 185              		.cfi_startproc
 186              		@ args = 0, pretend = 0, frame = 0
 187              		@ frame_needed = 0, uses_anonymous_args = 0
 188 0000 08B5     		push	{r3, lr}
 189              		.cfi_def_cfa_offset 8
 190              		.cfi_offset 3, -8
 191              		.cfi_offset 14, -4
 192              		.loc 1 238 0
 193 0002 FFF7FEFF 		bl	halInit
 194              	.LVL11:
 195              		.loc 1 239 0
 196 0006 FFF7FEFF 		bl	chSysInit
 197              	.LVL12:
 198              		.loc 1 240 0
 199 000a FFF7FEFF 		bl	stm32_watchdog_save_reason
 200              	.LVL13:
 201              		.loc 1 242 0
 202 000e FFF7FEFF 		bl	stm32_watchdog_clear_reason
 203              	.LVL14:
 204              		.loc 1 245 0
 205 0012 FFF7FEFF 		bl	malloc_init
 206              	.LVL15:
 207              		.loc 1 250 0
 208 0016 BDE80840 		pop	{r3, lr}
 209              		.cfi_restore 14
 210              		.cfi_restore 3
 211              		.cfi_def_cfa_offset 0
 212              		.loc 1 248 0
 213 001a FFF7FEBF 		b	setup_usb_strings
 214              	.LVL16:
 215              		.cfi_endproc
 216              	.LFE326:
 217              		.size	__late_init, .-__late_init
 218              		.section	.text.mmc_lld_is_card_inserted,"ax",%progbits
 219              		.align	1
 220              		.global	mmc_lld_is_card_inserted
 221              		.syntax unified
 222              		.thumb
 223              		.thumb_func
 224              		.fpu fpv4-sp-d16
 225              		.type	mmc_lld_is_card_inserted, %function
 226              	mmc_lld_is_card_inserted:
 227              	.LFB327:
 228              		.loc 1 275 0
ARM GAS  /tmp/ccaBiRo7.s 			page 5


 229              		.cfi_startproc
 230              		@ args = 0, pretend = 0, frame = 0
 231              		@ frame_needed = 0, uses_anonymous_args = 0
 232              		@ link register save eliminated.
 233              	.LVL17:
 234              		.loc 1 279 0
 235 0000 0120     		movs	r0, #1
 236              	.LVL18:
 237 0002 7047     		bx	lr
 238              		.cfi_endproc
 239              	.LFE327:
 240              		.size	mmc_lld_is_card_inserted, .-mmc_lld_is_card_inserted
 241              		.section	.text.mmc_lld_is_write_protected,"ax",%progbits
 242              		.align	1
 243              		.global	mmc_lld_is_write_protected
 244              		.syntax unified
 245              		.thumb
 246              		.thumb_func
 247              		.fpu fpv4-sp-d16
 248              		.type	mmc_lld_is_write_protected, %function
 249              	mmc_lld_is_write_protected:
 250              	.LFB328:
 251              		.loc 1 284 0
 252              		.cfi_startproc
 253              		@ args = 0, pretend = 0, frame = 0
 254              		@ frame_needed = 0, uses_anonymous_args = 0
 255              		@ link register save eliminated.
 256              	.LVL19:
 257              		.loc 1 288 0
 258 0000 0020     		movs	r0, #0
 259              	.LVL20:
 260 0002 7047     		bx	lr
 261              		.cfi_endproc
 262              	.LFE328:
 263              		.size	mmc_lld_is_write_protected, .-mmc_lld_is_write_protected
 264              		.section	.text.boardInit,"ax",%progbits
 265              		.align	1
 266              		.global	boardInit
 267              		.syntax unified
 268              		.thumb
 269              		.thumb_func
 270              		.fpu fpv4-sp-d16
 271              		.type	boardInit, %function
 272              	boardInit:
 273              	.LFB329:
 274              		.loc 1 295 0
 275              		.cfi_startproc
 276              		@ args = 0, pretend = 0, frame = 0
 277              		@ frame_needed = 0, uses_anonymous_args = 0
 278              		@ link register save eliminated.
 279 0000 7047     		bx	lr
 280              		.cfi_endproc
 281              	.LFE329:
 282              		.size	boardInit, .-boardInit
 283              		.section	.rodata.gpio_default_config,"a",%progbits
 284              		.align	2
 285              		.set	.LANCHOR0,. + 0
ARM GAS  /tmp/ccaBiRo7.s 			page 6


 286              		.type	gpio_default_config, %object
 287              		.size	gpio_default_config, 252
 288              	gpio_default_config:
 289 0000 AAA9802A 		.word	713075114
 290 0004 00020000 		.word	512
 291 0008 AAAAAAAA 		.word	-1431655766
 292 000c 00010000 		.word	256
 293 0010 FFFF0000 		.word	65535
 294 0014 11115055 		.word	1431310609
 295 0018 00A00A00 		.word	696320
 296 001c 00A0AAA9 		.word	-1448435712
 297 0020 000F0000 		.word	3840
 298 0024 AAAAAAA8 		.word	-1465210198
 299 0028 05500001 		.word	16797701
 300 002c FFFF0000 		.word	65535
 301 0030 00000077 		.word	1996488704
 302 0034 44445055 		.word	1431323716
 303 0038 FF8FA002 		.word	44077055
 304 003c 00000000 		.word	0
 305 0040 AAAAAAAA 		.word	-1431655766
 306 0044 00405001 		.word	22036480
 307 0048 7FFF0000 		.word	65407
 308 004c 00000030 		.word	805306368
 309 0050 00880800 		.word	559104
 310 0054 20280AAA 		.word	-1442174944
 311 0058 00000000 		.word	0
 312 005c AAAAAAAA 		.word	-1431655766
 313 0060 10140500 		.word	332816
 314 0064 FFFF0000 		.word	65535
 315 0068 00087007 		.word	124782592
 316 006c 77002222 		.word	572653687
 317 0070 55088868 		.word	1753745493
 318 0074 00000000 		.word	0
 319 0078 AAAAAAAA 		.word	-1431655766
 320 007c 00000040 		.word	1073741824
 321 0080 FFFF0000 		.word	65535
 322 0084 00003000 		.word	3145728
 323 0088 10101001 		.word	17829904
 324 008c 00000000 		.word	0
 325 0090 00000000 		.word	0
 326 0094 AAAAAAAA 		.word	-1431655766
 327 0098 00000000 		.word	0
 328 009c FFFF0000 		.word	65535
 329 00a0 00000000 		.word	0
 330 00a4 00000000 		.word	0
 331 00a8 00000000 		.word	0
 332 00ac 00000000 		.word	0
 333 00b0 AAAAAAAA 		.word	-1431655766
 334 00b4 00000000 		.word	0
 335 00b8 FFFF0000 		.word	65535
 336 00bc 00000000 		.word	0
 337 00c0 00000000 		.word	0
 338 00c4 00000000 		.word	0
 339 00c8 00000000 		.word	0
 340 00cc 0A000000 		.word	10
 341 00d0 00000000 		.word	0
 342 00d4 03000000 		.word	3
ARM GAS  /tmp/ccaBiRo7.s 			page 7


 343 00d8 00000000 		.word	0
 344 00dc 00000000 		.word	0
 345 00e0 00000000 		.word	0
 346 00e4 00000000 		.word	0
 347 00e8 00000000 		.word	0
 348 00ec 00000000 		.word	0
 349 00f0 00000000 		.word	0
 350 00f4 00000000 		.word	0
 351 00f8 00000000 		.word	0
 352              		.text
 353              	.Letext0:
 354              		.file 2 "/opt/gcc-arm-none-eabi-6-2017-q2-update/lib/gcc/arm-none-eabi/6.3.1/include/stddef.h"
 355              		.file 3 "/opt/gcc-arm-none-eabi-6-2017-q2-update/arm-none-eabi/include/machine/_default_types.h"
 356              		.file 4 "/opt/gcc-arm-none-eabi-6-2017-q2-update/arm-none-eabi/include/sys/_stdint.h"
 357              		.file 5 "/opt/gcc-arm-none-eabi-6-2017-q2-update/arm-none-eabi/include/stdint.h"
 358              		.file 6 "../../modules/ChibiOS/os/common/ports/ARMCMx/compilers/GCC/chtypes.h"
 359              		.file 7 "../../modules/ChibiOS/os/rt/include/chsystypes.h"
 360              		.file 8 "../../modules/ChibiOS/os/rt/include/chschd.h"
 361              		.file 9 "../../modules/ChibiOS/os/rt/include/chtime.h"
 362              		.file 10 "../../modules/ChibiOS/os/common/ext/ARM/CMSIS/Core/Include/core_cm4.h"
 363              		.file 11 "../../modules/ChibiOS/os/common/ext/ST/STM32F4xx/system_stm32f4xx.h"
 364              		.file 12 "../../modules/ChibiOS/os/common/ext/ST/STM32F4xx/stm32f407xx.h"
 365              		.file 13 "../../modules/ChibiOS/os/common/ports/ARMCMx/chcore.h"
 366              		.file 14 "../../modules/ChibiOS/os/common/ports/ARMCMx/chcore_v7m.h"
 367              		.file 15 "../../modules/ChibiOS/os/hal/ports/STM32/LLD/TIMv1/stm32_tim.h"
 368              		.file 16 "../../modules/ChibiOS/os/rt/include/chtm.h"
 369              		.file 17 "../../modules/ChibiOS/os/rt/include/chsem.h"
 370              		.file 18 "../../modules/ChibiOS/os/rt/include/chmtx.h"
 371              		.file 19 "../../modules/ChibiOS/os/rt/include/chsys.h"
 372              		.file 20 "../../modules/ChibiOS/os/rt/include/chregistry.h"
 373              		.file 21 "../../modules/ChibiOS/os/rt/include/chevents.h"
 374              		.file 22 "../../modules/ChibiOS/os/oslib/include/chmemcore.h"
 375              		.file 23 "../../modules/ChibiOS/os/oslib/include/chmempools.h"
 376              		.file 24 "../../modules/ChibiOS/os/oslib/include/chfactory.h"
 377              		.file 25 "../../modules/ChibiOS/os/hal/ports/STM32/LLD/DMAv2/stm32_dma.h"
 378              		.file 26 "../../modules/ChibiOS/os/hal/include/hal_ioblock.h"
 379              		.file 27 "../../modules/ChibiOS/os/hal/include/hal_buffers.h"
 380              		.file 28 "../../modules/ChibiOS/os/hal/include/hal_queues.h"
 381              		.file 29 "../../modules/ChibiOS/os/hal/include/hal_pal.h"
 382              		.file 30 "../../modules/ChibiOS/os/hal/ports/STM32/LLD/GPIOv2/stm32_gpio.h"
 383              		.file 31 "../../modules/ChibiOS/os/hal/ports/STM32/LLD/GPIOv2/hal_pal_lld.h"
 384              		.file 32 "../../modules/ChibiOS/os/hal/include/hal_adc.h"
 385              		.file 33 "../../modules/ChibiOS/os/hal/ports/STM32/LLD/ADCv2/hal_adc_lld.h"
 386              		.file 34 "../../modules/ChibiOS/os/hal/include/hal_i2c.h"
 387              		.file 35 "../../modules/ChibiOS/os/hal/ports/STM32/LLD/I2Cv1/hal_i2c_lld.h"
 388              		.file 36 "../../modules/ChibiOS/os/hal/include/hal_icu.h"
 389              		.file 37 "../../modules/ChibiOS/os/hal/ports/STM32/LLD/TIMv1/hal_icu_lld.h"
 390              		.file 38 "../../modules/ChibiOS/os/hal/include/hal_pwm.h"
 391              		.file 39 "../../modules/ChibiOS/os/hal/ports/STM32/LLD/TIMv1/hal_pwm_lld.h"
 392              		.file 40 "../../modules/ChibiOS/os/hal/include/hal_serial.h"
 393              		.file 41 "../../modules/ChibiOS/os/hal/ports/STM32/LLD/USARTv1/hal_serial_lld.h"
 394              		.file 42 "../../modules/ChibiOS/os/hal/include/hal_spi.h"
 395              		.file 43 "../../modules/ChibiOS/os/hal/ports/STM32/LLD/SPIv1/hal_spi_lld.h"
 396              		.file 44 "../../modules/ChibiOS/os/hal/include/hal_usb.h"
 397              		.file 45 "../../modules/ChibiOS/os/hal/ports/STM32/LLD/OTGv1/hal_usb_lld.h"
 398              		.file 46 "../../modules/ChibiOS/os/hal/ports/STM32/LLD/OTGv1/stm32_otg.h"
 399              		.file 47 "../../modules/ChibiOS/os/hal/include/hal_mmc_spi.h"
ARM GAS  /tmp/ccaBiRo7.s 			page 8


 400              		.file 48 "../../modules/ChibiOS/os/hal/include/hal_serial_usb.h"
 401              		.file 49 "../../libraries/AP_HAL_ChibiOS/hwdef/common/usbcfg.h"
 402              		.file 50 "../../libraries/AP_HAL_ChibiOS/hwdef/common/stm32_util.h"
 403              		.file 51 "../../modules/ChibiOS/os/hal/include/hal.h"
 404              		.file 52 "../../libraries/AP_HAL_ChibiOS/hwdef/common/watchdog.h"
 405              		.file 53 "../../modules/ChibiOS/os/hal/ports/STM32/STM32F4xx/hal_lld_type1.h"