ARM GAS  /tmp/cccEivAy.s 			page 1


   1              		.cpu cortex-m4
   2              		.eabi_attribute 27, 1
   3              		.eabi_attribute 28, 1
   4              		.eabi_attribute 20, 1
   5              		.eabi_attribute 21, 1
   6              		.eabi_attribute 23, 3
   7              		.eabi_attribute 24, 1
   8              		.eabi_attribute 25, 1
   9              		.eabi_attribute 26, 1
  10              		.eabi_attribute 30, 6
  11              		.eabi_attribute 34, 1
  12              		.eabi_attribute 18, 4
  13              		.file	"ch.cpp"
  14              		.text
  15              	.Ltext0:
  16              		.cfi_sections	.debug_frame
  17              		.section	.text._ZL19chSysGetIdleThreadXv,"ax",%progbits
  18              		.align	1
  19              		.p2align 4,,15
  20              		.syntax unified
  21              		.thumb
  22              		.thumb_func
  23              		.fpu fpv4-sp-d16
  24              		.type	_ZL19chSysGetIdleThreadXv, %function
  25              	_ZL19chSysGetIdleThreadXv:
  26              		.fnstart
  27              	.LFB190:
  28              		.file 1 "../../modules/ChibiOS/os/rt/include/chsys.h"
  29              		.loc 1 461 0
  30              		.cfi_startproc
  31              		@ args = 0, pretend = 0, frame = 0
  32              		@ frame_needed = 0, uses_anonymous_args = 0
  33              		@ link register save eliminated.
  34              		.loc 1 463 0
  35 0000 014B     		ldr	r3, .L3
  36 0002 5B68     		ldr	r3, [r3, #4]
  37              		.loc 1 464 0
  38 0004 1846     		mov	r0, r3
  39 0006 7047     		bx	lr
  40              	.L4:
  41              		.align	2
  42              	.L3:
  43 0008 00000000 		.word	ch
  44              		.cfi_endproc
  45              	.LFE190:
  46              		.cantunwind
  47              		.fnend
  48              		.size	_ZL19chSysGetIdleThreadXv, .-_ZL19chSysGetIdleThreadXv
  49              		.section	.text._ZN10chibios_rt15ThreadReferenceC2EP9ch_thread,"axG",%progbits,_ZN10chibios_rt15Thr
  50              		.align	1
  51              		.p2align 4,,15
  52              		.weak	_ZN10chibios_rt15ThreadReferenceC2EP9ch_thread
  53              		.syntax unified
  54              		.thumb
  55              		.thumb_func
  56              		.fpu fpv4-sp-d16
  57              		.type	_ZN10chibios_rt15ThreadReferenceC2EP9ch_thread, %function
ARM GAS  /tmp/cccEivAy.s 			page 2


  58              	_ZN10chibios_rt15ThreadReferenceC2EP9ch_thread:
  59              		.fnstart
  60              	.LFB253:
  61              		.file 2 "../../modules/ChibiOS/os/various/cpp_wrappers/ch.hpp"
  62              		.loc 2 622 0
  63              		.cfi_startproc
  64              		@ args = 0, pretend = 0, frame = 8
  65              		@ frame_needed = 0, uses_anonymous_args = 0
  66              		@ link register save eliminated.
  67 0000 82B0     		sub	sp, sp, #8
  68              		.cfi_def_cfa_offset 8
  69 0002 0190     		str	r0, [sp, #4]
  70 0004 0091     		str	r1, [sp]
  71              	.LBB2:
  72              		.loc 2 622 0
  73 0006 019B     		ldr	r3, [sp, #4]
  74 0008 009A     		ldr	r2, [sp]
  75 000a 1A60     		str	r2, [r3]
  76              	.LBE2:
  77              		.loc 2 624 0
  78 000c 019B     		ldr	r3, [sp, #4]
  79 000e 1846     		mov	r0, r3
  80 0010 02B0     		add	sp, sp, #8
  81              		.cfi_def_cfa_offset 0
  82              		@ sp needed
  83 0012 7047     		bx	lr
  84              		.cfi_endproc
  85              	.LFE253:
  86              		.cantunwind
  87              		.fnend
  88              		.size	_ZN10chibios_rt15ThreadReferenceC2EP9ch_thread, .-_ZN10chibios_rt15ThreadReferenceC2EP9ch_th
  89              		.weak	_ZN10chibios_rt15ThreadReferenceC1EP9ch_thread
  90              		.thumb_set _ZN10chibios_rt15ThreadReferenceC1EP9ch_thread,_ZN10chibios_rt15ThreadReferenceC2EP9ch_
  91              		.section	.text._ZN10chibios_rt6System14getIdleThreadXEv,"ax",%progbits
  92              		.align	1
  93              		.p2align 4,,15
  94              		.global	_ZN10chibios_rt6System14getIdleThreadXEv
  95              		.syntax unified
  96              		.thumb
  97              		.thumb_func
  98              		.fpu fpv4-sp-d16
  99              		.type	_ZN10chibios_rt6System14getIdleThreadXEv, %function
 100              	_ZN10chibios_rt6System14getIdleThreadXEv:
 101              		.fnstart
 102              	.LFB289:
 103              		.file 3 "../../modules/ChibiOS/os/various/cpp_wrappers/ch.cpp"
 104              		.loc 3 29 0
 105              		.cfi_startproc
 106              		@ args = 0, pretend = 0, frame = 8
 107              		@ frame_needed = 0, uses_anonymous_args = 0
 108 0000 00B5     		push	{lr}
 109              		.cfi_def_cfa_offset 4
 110              		.cfi_offset 14, -4
 111 0002 83B0     		sub	sp, sp, #12
 112              		.cfi_def_cfa_offset 16
 113              		.loc 3 31 0
 114 0004 FFF7FEFF 		bl	_ZL19chSysGetIdleThreadXv
ARM GAS  /tmp/cccEivAy.s 			page 3


 115 0008 0246     		mov	r2, r0
 116 000a 01AB     		add	r3, sp, #4
 117 000c 1146     		mov	r1, r2
 118 000e 1846     		mov	r0, r3
 119 0010 FFF7FEFF 		bl	_ZN10chibios_rt15ThreadReferenceC1EP9ch_thread
 120 0014 019B     		ldr	r3, [sp, #4]
 121              		.loc 3 32 0
 122 0016 1846     		mov	r0, r3
 123 0018 03B0     		add	sp, sp, #12
 124              		.cfi_def_cfa_offset 4
 125              		@ sp needed
 126 001a 5DF804FB 		ldr	pc, [sp], #4
 127              		.cfi_endproc
 128              	.LFE289:
 129              		.cantunwind
 130              		.fnend
 131              		.size	_ZN10chibios_rt6System14getIdleThreadXEv, .-_ZN10chibios_rt6System14getIdleThreadXEv
 132 001e 00BF     		.section	.text._ZN10chibios_rt10_thd_startEPv,"ax",%progbits
 133              		.align	1
 134              		.p2align 4,,15
 135              		.global	_ZN10chibios_rt10_thd_startEPv
 136              		.syntax unified
 137              		.thumb
 138              		.thumb_func
 139              		.fpu fpv4-sp-d16
 140              		.type	_ZN10chibios_rt10_thd_startEPv, %function
 141              	_ZN10chibios_rt10_thd_startEPv:
 142              		.fnstart
 143              	.LFB290:
 144              		.loc 3 39 0
 145              		.cfi_startproc
 146              		@ args = 0, pretend = 0, frame = 8
 147              		@ frame_needed = 0, uses_anonymous_args = 0
 148 0000 00B5     		push	{lr}
 149              		.save {lr}
 150              		.cfi_def_cfa_offset 4
 151              		.cfi_offset 14, -4
 152              		.pad #12
 153 0002 83B0     		sub	sp, sp, #12
 154              		.cfi_def_cfa_offset 16
 155 0004 0190     		str	r0, [sp, #4]
 156              		.loc 3 41 0
 157 0006 019B     		ldr	r3, [sp, #4]
 158 0008 1B68     		ldr	r3, [r3]
 159 000a 1B68     		ldr	r3, [r3]
 160 000c 0198     		ldr	r0, [sp, #4]
 161 000e 9847     		blx	r3
 162              	.LVL0:
 163              		.loc 3 42 0
 164 0010 00BF     		nop
 165 0012 03B0     		add	sp, sp, #12
 166              		.cfi_def_cfa_offset 4
 167              		@ sp needed
 168 0014 5DF804FB 		ldr	pc, [sp], #4
 169              		.cfi_endproc
 170              	.LFE290:
 171              		.fnend
ARM GAS  /tmp/cccEivAy.s 			page 4


 172              		.size	_ZN10chibios_rt10_thd_startEPv, .-_ZN10chibios_rt10_thd_startEPv
 173              		.text
 174              	.Letext0:
 175              		.file 4 "/opt/gcc-arm-none-eabi-6-2017-q2-update/arm-none-eabi/include/machine/_default_types.h"
 176              		.file 5 "/opt/gcc-arm-none-eabi-6-2017-q2-update/arm-none-eabi/include/sys/_stdint.h"
 177              		.file 6 "../../modules/ChibiOS/os/common/ports/ARMCMx/compilers/GCC/chtypes.h"
 178              		.file 7 "../../modules/ChibiOS/os/rt/include/chsystypes.h"
 179              		.file 8 "../../modules/ChibiOS/os/rt/include/chschd.h"
 180              		.file 9 "../../modules/ChibiOS/os/rt/include/chtime.h"
 181              		.file 10 "../../modules/ChibiOS/os/common/ext/ARM/CMSIS/Core/Include/core_cm4.h"
 182              		.file 11 "../../modules/ChibiOS/os/common/ext/ST/STM32F4xx/system_stm32f4xx.h"
 183              		.file 12 "../../modules/ChibiOS/os/common/ports/ARMCMx/chcore.h"
 184              		.file 13 "../../modules/ChibiOS/os/common/ports/ARMCMx/chcore_v7m.h"