ARM GAS  /tmp/cccEivAy.s 			page 1


   1              		.cpu cortex-m4
   2              		.eabi_attribute 27, 1
   3              		.eabi_attribute 28, 1
   4              		.eabi_attribute 20, 1
   5              		.eabi_attribute 21, 1
   6              		.eabi_attribute 23, 3
   7              		.eabi_attribute 24, 1
   8              		.eabi_attribute 25, 1
   9              		.eabi_attribute 26, 1
  10              		.eabi_attribute 30, 6
  11              		.eabi_attribute 34, 1
  12              		.eabi_attribute 18, 4
  13              		.file	"ch.cpp"
  14              		.text
  15              	.Ltext0:
  16              		.cfi_sections	.debug_frame
  17              		.section	.text._ZL19chSysGetIdleThreadXv,"ax",%progbits
  18              		.align	1
  19              		.p2align 4,,15
  20              		.syntax unified
  21              		.thumb
  22              		.thumb_func
  23              		.fpu fpv4-sp-d16
  24              		.type	_ZL19chSysGetIdleThreadXv, %function
  25              	_ZL19chSysGetIdleThreadXv:
  26              		.fnstart
  27              	.LFB190:
  28              		.file 1 "../../modules/ChibiOS/os/rt/include/chsys.h"
  29              		.loc 1 461 0
  30              		.cfi_startproc
  31              		@ args = 0, pretend = 0, frame = 0
  32              		@ frame_needed = 0, uses_anonymous_args = 0
  33              		@ link register save eliminated.
  34              		.loc 1 463 0
  35 0000 014B     		ldr	r3, .L3
  36 0002 5B68     		ldr	r3, [r3, #4]
  37              		.loc 1 464 0
  38 0004 1846     		mov	r0, r3
  39 0006 7047     		bx	lr
  40              	.L4:
  41              		.align	2
  42              	.L3:
  43 0008 00000000 		.word	ch
  44              		.cfi_endproc
  45              	.LFE190:
  46              		.cantunwind
  47              		.fnend
  48              		.size	_ZL19chSysGetIdleThreadXv, .-_ZL19chSysGetIdleThreadXv
  49              		.section	.text._ZN10chibios_rt15ThreadReferenceC2EP9ch_thread,"axG",%progbits,_ZN10chibios_rt15Thr
  50              		.align	1
  51              		.p2align 4,,15
  52              		.weak	_ZN10chibios_rt15ThreadReferenceC2EP9ch_thread
  53              		.syntax unified
  54              		.thumb
  55              		.thumb_func
  56              		.fpu fpv4-sp-d16
  57              		.type	_ZN10chibios_rt15ThreadReferenceC2EP9ch_thread, %function
ARM GAS  /tmp/cccEivAy.s 			page 2


  58              	_ZN10chibios_rt15ThreadReferenceC2EP9ch_thread:
  59              		.fnstart
  60              	.LFB253:
  61              		.file 2 "../../modules/ChibiOS/os/various/cpp_wrappers/ch.hpp"
  62              		.loc 2 622 0
  63              		.cfi_startproc
  64              		@ args = 0, pretend = 0, frame = 8
  65              		@ frame_needed = 0, uses_anonymous_args = 0
  66              		@ link register save eliminated.
  67 0000 82B0     		sub	sp, sp, #8
  68              		.cfi_def_cfa_offset 8
  69 0002 0190     		str	r0, [sp, #4]
  70 0004 0091     		str	r1, [sp]
  71              	.LBB2:
  72              		.loc 2 622 0
  73 0006 019B     		ldr	r3, [sp, #4]
  74 0008 009A     		ldr	r2, [sp]
  75 000a 1A60     		str	r2, [r3]
  76              	.LBE2:
  77              		.loc 2 624 0
  78 000c 019B     		ldr	r3, [sp, #4]
  79 000e 1846     		mov	r0, r3
  80 0010 02B0     		add	sp, sp, #8
  81              		.cfi_def_cfa_offset 0
  82              		@ sp needed
  83 0012 7047     		bx	lr
  84              		.cfi_endproc
  85              	.LFE253:
  86              		.cantunwind
  87              		.fnend
  88              		.size	_ZN10chibios_rt15ThreadReferenceC2EP9ch_thread, .-_ZN10chibios_rt15ThreadReferenceC2EP9ch_th
  89              		.weak	_ZN10chibios_rt15ThreadReferenceC1EP9ch_thread
  90              		.thumb_set _ZN10chibios_rt15ThreadReferenceC1EP9ch_thread,_ZN10chibios_rt15ThreadReferenceC2EP9ch_
  91              		.section	.text._ZN10chibios_rt6System14getIdleThreadXEv,"ax",%progbits
  92              		.align	1
  93              		.p2align 4,,15
  94              		.global	_ZN10chibios_rt6System14getIdleThreadXEv
  95              		.syntax unified
  96              		.thumb
  97              		.thumb_func
  98              		.fpu fpv4-sp-d16
  99              		.type	_ZN10chibios_rt6System14getIdleThreadXEv, %function
 100              	_ZN10chibios_rt6System14getIdleThreadXEv:
 101              		.fnstart
 102              	.LFB289:
 103              		.file 3 "../../modules/ChibiOS/os/various/cpp_wrappers/ch.cpp"
 104              		.loc 3 29 0
 105              		.cfi_startproc
 106              		@ args = 0, pretend = 0, frame = 8
 107              		@ frame_needed = 0, uses_anonymous_args = 0
 108 0000 00B5     		push	{lr}
 109              		.cfi_def_cfa_offset 4
 110              		.cfi_offset 14, -4
 111 0002 83B0     		sub	sp, sp, #12
 112              		.cfi_def_cfa_offset 16
 113              		.loc 3 31 0
 114 0004 FFF7FEFF 		bl	_ZL19chSysGetIdleThreadXv
ARM GAS  /tmp/cccEivAy.s 			page 3


 115 0008 0246     		mov	r2, r0
 116 000a 01AB     		add	r3, sp, #4
 117 000c 1146     		mov	r1, r2
 118 000e 1846     		mov	r0, r3
 119 0010 FFF7FEFF 		bl	_ZN10chibios_rt15ThreadReferenceC1EP9ch_thread
 120 0014 019B     		ldr	r3, [sp, #4]
 121              		.loc 3 32 0
 122 0016 1846     		mov	r0, r3
 123 0018 03B0     		add	sp, sp, #12
 124              		.cfi_def_cfa_offset 4
 125              		@ sp needed
 126 001a 5DF804FB 		ldr	pc, [sp], #4
 127              		.cfi_endproc
 128              	.LFE289:
 129              		.cantunwind
 130              		.fnend
 131              		.size	_ZN10chibios_rt6System14getIdleThreadXEv, .-_ZN10chibios_rt6System14getIdleThreadXEv
 132 001e 00BF     		.section	.text._ZN10chibios_rt10_thd_startEPv,"ax",%progbits
 133              		.align	1
 134              		.p2align 4,,15
 135              		.global	_ZN10chibios_rt10_thd_startEPv
 136              		.syntax unified
 137              		.thumb
 138              		.thumb_func
 139              		.fpu fpv4-sp-d16
 140              		.type	_ZN10chibios_rt10_thd_startEPv, %function
 141              	_ZN10chibios_rt10_thd_startEPv:
 142              		.fnstart
 143              	.LFB290:
 144              		.loc 3 39 0
 145              		.cfi_startproc
 146              		@ args = 0, pretend = 0, frame = 8
 147              		@ frame_needed = 0, uses_anonymous_args = 0
 148 0000 00B5     		push	{lr}
 149              		.save {lr}
 150              		.cfi_def_cfa_offset 4
 151              		.cfi_offset 14, -4
 152              		.pad #12
 153 0002 83B0     		sub	sp, sp, #12
 154              		.cfi_def_cfa_offset 16
 155 0004 0190     		str	r0, [sp, #4]
 156              		.loc 3 41 0
 157 0006 019B     		ldr	r3, [sp, #4]
 158 0008 1B68     		ldr	r3, [r3]
 159 000a 1B68     		ldr	r3, [r3]
 160 000c 0198     		ldr	r0, [sp, #4]
 161 000e 9847     		blx	r3
 162              	.LVL0:
 163              		.loc 3 42 0
 164 0010 00BF     		nop
 165 0012 03B0     		add	sp, sp, #12
 166              		.cfi_def_cfa_offset 4
 167              		@ sp needed
 168 0014 5DF804FB 		ldr	pc, [sp], #4
 169              		.cfi_endproc
 170              	.LFE290:
 171              		.fnend
ARM GAS  /tmp/cccEivAy.s 			page 4


 172              		.size	_ZN10chibios_rt10_thd_startEPv, .-_ZN10chibios_rt10_thd_startEPv
 173              		.text
 174              	.Letext0:
 175              		.file 4 "/opt/gcc-arm-none-eabi-6-2017-q2-update/arm-none-eabi/include/machine/_default_types.h"
 176              		.file 5 "/opt/gcc-arm-none-eabi-6-2017-q2-update/arm-none-eabi/include/sys/_stdint.h"
 177              		.file 6 "../../modules/ChibiOS/os/common/ports/ARMCMx/compilers/GCC/chtypes.h"
 178              		.file 7 "../../modules/ChibiOS/os/rt/include/chsystypes.h"
 179              		.file 8 "../../modules/ChibiOS/os/rt/include/chschd.h"
 180              		.file 9 "../../modules/ChibiOS/os/rt/include/chtime.h"
 181              		.file 10 "../../modules/ChibiOS/os/common/ext/ARM/CMSIS/Core/Include/core_cm4.h"
 182              		.file 11 "../../modules/ChibiOS/os/common/ext/ST/STM32F4xx/system_stm32f4xx.h"
 183              		.file 12 "../../modules/ChibiOS/os/common/ports/ARMCMx/chcore.h"
 184              		.file 13 "../../modules/ChibiOS/os/common/ports/ARMCMx/chcore_v7m.h"
 185              		.section	.debug_info,"",%progbits
 186              	.Ldebug_info0:
 187 0000 4A0A0000 		.4byte	0xa4a
 188 0004 0400     		.2byte	0x4
 189 0006 00000000 		.4byte	.Ldebug_abbrev0
 190 000a 04       		.byte	0x4
 191 000b 01       		.uleb128 0x1
 192 000c B8010000 		.4byte	.LASF146
 193 0010 04       		.byte	0x4
 194 0011 97050000 		.4byte	.LASF147
 195 0015 21060000 		.4byte	.LASF148
 196 0019 00000000 		.4byte	.Ldebug_ranges0+0
 197 001d 00000000 		.4byte	0
 198 0021 00000000 		.4byte	.Ldebug_line0
 199 0025 02       		.uleb128 0x2
 200 0026 04       		.byte	0x4
 201 0027 05       		.byte	0x5
 202 0028 696E7400 		.ascii	"int\000"
 203 002c 03       		.uleb128 0x3
 204 002d 04       		.byte	0x4
 205 002e 07       		.byte	0x7
 206 002f EE050000 		.4byte	.LASF0
 207 0033 03       		.uleb128 0x3
 208 0034 08       		.byte	0x8
 209 0035 05       		.byte	0x5
 210 0036 89050000 		.4byte	.LASF1
 211 003a 03       		.uleb128 0x3
 212 003b 08       		.byte	0x8
 213 003c 04       		.byte	0x4
 214 003d D9070000 		.4byte	.LASF2
 215 0041 04       		.uleb128 0x4
 216 0042 1B070000 		.4byte	.LASF149
 217 0046 03       		.uleb128 0x3
 218 0047 01       		.byte	0x1
 219 0048 06       		.byte	0x6
 220 0049 3A030000 		.4byte	.LASF3
 221 004d 05       		.uleb128 0x5
 222 004e CA000000 		.4byte	.LASF7
 223 0052 04       		.byte	0x4
 224 0053 2B       		.byte	0x2b
 225 0054 58000000 		.4byte	0x58
 226 0058 03       		.uleb128 0x3
 227 0059 01       		.byte	0x1
 228 005a 08       		.byte	0x8
ARM GAS  /tmp/cccEivAy.s 			page 5


 229 005b 7C090000 		.4byte	.LASF4
 230 005f 03       		.uleb128 0x3
 231 0060 02       		.byte	0x2
 232 0061 05       		.byte	0x5
 233 0062 AA090000 		.4byte	.LASF5
 234 0066 03       		.uleb128 0x3
 235 0067 02       		.byte	0x2
 236 0068 07       		.byte	0x7
 237 0069 73060000 		.4byte	.LASF6
 238 006d 05       		.uleb128 0x5
 239 006e 04070000 		.4byte	.LASF8
 240 0072 04       		.byte	0x4
 241 0073 4D       		.byte	0x4d
 242 0074 78000000 		.4byte	0x78
 243 0078 03       		.uleb128 0x3
 244 0079 04       		.byte	0x4
 245 007a 05       		.byte	0x5
 246 007b 3A040000 		.4byte	.LASF9
 247 007f 05       		.uleb128 0x5
 248 0080 19050000 		.4byte	.LASF10
 249 0084 04       		.byte	0x4
 250 0085 4F       		.byte	0x4f
 251 0086 8A000000 		.4byte	0x8a
 252 008a 03       		.uleb128 0x3
 253 008b 04       		.byte	0x4
 254 008c 07       		.byte	0x7
 255 008d A2030000 		.4byte	.LASF11
 256 0091 05       		.uleb128 0x5
 257 0092 EE080000 		.4byte	.LASF12
 258 0096 04       		.byte	0x4
 259 0097 69       		.byte	0x69
 260 0098 9C000000 		.4byte	0x9c
 261 009c 03       		.uleb128 0x3
 262 009d 08       		.byte	0x8
 263 009e 07       		.byte	0x7
 264 009f 38010000 		.4byte	.LASF13
 265 00a3 05       		.uleb128 0x5
 266 00a4 8F0C0000 		.4byte	.LASF14
 267 00a8 05       		.byte	0x5
 268 00a9 18       		.byte	0x18
 269 00aa 4D000000 		.4byte	0x4d
 270 00ae 06       		.uleb128 0x6
 271 00af A3000000 		.4byte	0xa3
 272 00b3 05       		.uleb128 0x5
 273 00b4 74090000 		.4byte	.LASF15
 274 00b8 05       		.byte	0x5
 275 00b9 2C       		.byte	0x2c
 276 00ba 6D000000 		.4byte	0x6d
 277 00be 07       		.uleb128 0x7
 278 00bf B3000000 		.4byte	0xb3
 279 00c3 05       		.uleb128 0x5
 280 00c4 4D0A0000 		.4byte	.LASF16
 281 00c8 05       		.byte	0x5
 282 00c9 30       		.byte	0x30
 283 00ca 7F000000 		.4byte	0x7f
 284 00ce 05       		.uleb128 0x5
 285 00cf 71000000 		.4byte	.LASF17
ARM GAS  /tmp/cccEivAy.s 			page 6


 286 00d3 05       		.byte	0x5
 287 00d4 3C       		.byte	0x3c
 288 00d5 91000000 		.4byte	0x91
 289 00d9 05       		.uleb128 0x5
 290 00da 960B0000 		.4byte	.LASF18
 291 00de 06       		.byte	0x6
 292 00df 27       		.byte	0x27
 293 00e0 C3000000 		.4byte	0xc3
 294 00e4 05       		.uleb128 0x5
 295 00e5 9E0B0000 		.4byte	.LASF19
 296 00e9 06       		.byte	0x6
 297 00ea 29       		.byte	0x29
 298 00eb C3000000 		.4byte	0xc3
 299 00ef 05       		.uleb128 0x5
 300 00f0 D0060000 		.4byte	.LASF20
 301 00f4 06       		.byte	0x6
 302 00f5 2A       		.byte	0x2a
 303 00f6 A3000000 		.4byte	0xa3
 304 00fa 05       		.uleb128 0x5
 305 00fb 79040000 		.4byte	.LASF21
 306 00ff 06       		.byte	0x6
 307 0100 2B       		.byte	0x2b
 308 0101 A3000000 		.4byte	0xa3
 309 0105 05       		.uleb128 0x5
 310 0106 50090000 		.4byte	.LASF22
 311 010a 06       		.byte	0x6
 312 010b 2E       		.byte	0x2e
 313 010c C3000000 		.4byte	0xc3
 314 0110 05       		.uleb128 0x5
 315 0111 BE060000 		.4byte	.LASF23
 316 0115 06       		.byte	0x6
 317 0116 2F       		.byte	0x2f
 318 0117 B3000000 		.4byte	0xb3
 319 011b 05       		.uleb128 0x5
 320 011c C90A0000 		.4byte	.LASF24
 321 0120 07       		.byte	0x7
 322 0121 34       		.byte	0x34
 323 0122 26010000 		.4byte	0x126
 324 0126 08       		.uleb128 0x8
 325 0127 8C060000 		.4byte	.LASF35
 326 012b 18       		.byte	0x18
 327 012c 08       		.byte	0x8
 328 012d 8E       		.byte	0x8e
 329 012e AF010000 		.4byte	0x1af
 330 0132 09       		.uleb128 0x9
 331 0133 04       		.byte	0x4
 332 0134 08       		.byte	0x8
 333 0135 C6       		.byte	0xc6
 334 0136 67010000 		.4byte	0x167
 335 013a 0A       		.uleb128 0xa
 336 013b 6A000000 		.4byte	.LASF25
 337 013f 08       		.byte	0x8
 338 0140 CD       		.byte	0xcd
 339 0141 10010000 		.4byte	0x110
 340 0145 0A       		.uleb128 0xa
 341 0146 4F010000 		.4byte	.LASF26
 342 014a 08       		.byte	0x8
ARM GAS  /tmp/cccEivAy.s 			page 7


 343 014b D4       		.byte	0xd4
 344 014c 10010000 		.4byte	0x110
 345 0150 0A       		.uleb128 0xa
 346 0151 9D0C0000 		.4byte	.LASF27
 347 0155 08       		.byte	0x8
 348 0156 DB       		.byte	0xdb
 349 0157 59020000 		.4byte	0x259
 350 015b 0A       		.uleb128 0xa
 351 015c 1B060000 		.4byte	.LASF28
 352 0160 08       		.byte	0x8
 353 0161 E2       		.byte	0xe2
 354 0162 69050000 		.4byte	0x569
 355 0166 00       		.byte	0
 356 0167 0B       		.uleb128 0xb
 357 0168 5C060000 		.4byte	.LASF29
 358 016c 08       		.byte	0x8
 359 016d 8F       		.byte	0x8f
 360 016e C0010000 		.4byte	0x1c0
 361 0172 00       		.byte	0
 362 0173 0B       		.uleb128 0xb
 363 0174 E1080000 		.4byte	.LASF30
 364 0178 08       		.byte	0x8
 365 0179 90       		.byte	0x90
 366 017a 05010000 		.4byte	0x105
 367 017e 08       		.byte	0x8
 368 017f 0C       		.uleb128 0xc
 369 0180 63747800 		.ascii	"ctx\000"
 370 0184 08       		.byte	0x8
 371 0185 91       		.byte	0x91
 372 0186 FF030000 		.4byte	0x3ff
 373 018a 0C       		.byte	0xc
 374 018b 0B       		.uleb128 0xb
 375 018c 34040000 		.4byte	.LASF31
 376 0190 08       		.byte	0x8
 377 0191 A9       		.byte	0xa9
 378 0192 FA000000 		.4byte	0xfa
 379 0196 10       		.byte	0x10
 380 0197 0B       		.uleb128 0xb
 381 0198 970C0000 		.4byte	.LASF32
 382 019c 08       		.byte	0x8
 383 019d AD       		.byte	0xad
 384 019e EF000000 		.4byte	0xef
 385 01a2 11       		.byte	0x11
 386 01a3 0D       		.uleb128 0xd
 387 01a4 7500     		.ascii	"u\000"
 388 01a6 08       		.byte	0x8
 389 01a7 0301     		.2byte	0x103
 390 01a9 32010000 		.4byte	0x132
 391 01ad 14       		.byte	0x14
 392 01ae 00       		.byte	0
 393 01af 05       		.uleb128 0x5
 394 01b0 AF070000 		.4byte	.LASF33
 395 01b4 07       		.byte	0x7
 396 01b5 39       		.byte	0x39
 397 01b6 BA010000 		.4byte	0x1ba
 398 01ba 0E       		.uleb128 0xe
 399 01bb 04       		.byte	0x4
ARM GAS  /tmp/cccEivAy.s 			page 8


 400 01bc 1B010000 		.4byte	0x11b
 401 01c0 05       		.uleb128 0x5
 402 01c1 FF0B0000 		.4byte	.LASF34
 403 01c5 07       		.byte	0x7
 404 01c6 45       		.byte	0x45
 405 01c7 CB010000 		.4byte	0x1cb
 406 01cb 08       		.uleb128 0x8
 407 01cc 99010000 		.4byte	.LASF36
 408 01d0 08       		.byte	0x8
 409 01d1 08       		.byte	0x8
 410 01d2 83       		.byte	0x83
 411 01d3 F0010000 		.4byte	0x1f0
 412 01d7 0B       		.uleb128 0xb
 413 01d8 94010000 		.4byte	.LASF37
 414 01dc 08       		.byte	0x8
 415 01dd 84       		.byte	0x84
 416 01de BA010000 		.4byte	0x1ba
 417 01e2 00       		.byte	0
 418 01e3 0B       		.uleb128 0xb
 419 01e4 07000000 		.4byte	.LASF38
 420 01e8 08       		.byte	0x8
 421 01e9 85       		.byte	0x85
 422 01ea BA010000 		.4byte	0x1ba
 423 01ee 04       		.byte	0x4
 424 01ef 00       		.byte	0
 425 01f0 05       		.uleb128 0x5
 426 01f1 1D000000 		.4byte	.LASF39
 427 01f5 07       		.byte	0x7
 428 01f6 4C       		.byte	0x4c
 429 01f7 FB010000 		.4byte	0x1fb
 430 01fb 0F       		.uleb128 0xf
 431 01fc DD060000 		.4byte	.LASF40
 432 0200 14       		.byte	0x14
 433 0201 08       		.byte	0x8
 434 0202 5E01     		.2byte	0x15e
 435 0204 3D020000 		.4byte	0x23d
 436 0208 10       		.uleb128 0x10
 437 0209 5C060000 		.4byte	.LASF29
 438 020d 08       		.byte	0x8
 439 020e 5F01     		.2byte	0x15f
 440 0210 C0010000 		.4byte	0x1c0
 441 0214 00       		.byte	0
 442 0215 10       		.uleb128 0x10
 443 0216 E1080000 		.4byte	.LASF30
 444 021a 08       		.byte	0x8
 445 021b 6001     		.2byte	0x160
 446 021d 05010000 		.4byte	0x105
 447 0221 08       		.byte	0x8
 448 0222 0D       		.uleb128 0xd
 449 0223 63747800 		.ascii	"ctx\000"
 450 0227 08       		.byte	0x8
 451 0228 6201     		.2byte	0x162
 452 022a FF030000 		.4byte	0x3ff
 453 022e 0C       		.byte	0xc
 454 022f 10       		.uleb128 0x10
 455 0230 E6080000 		.4byte	.LASF41
 456 0234 08       		.byte	0x8
ARM GAS  /tmp/cccEivAy.s 			page 9


 457 0235 6901     		.2byte	0x169
 458 0237 BA010000 		.4byte	0x1ba
 459 023b 10       		.byte	0x10
 460 023c 00       		.byte	0
 461 023d 05       		.uleb128 0x5
 462 023e 120B0000 		.4byte	.LASF42
 463 0242 07       		.byte	0x7
 464 0243 51       		.byte	0x51
 465 0244 48020000 		.4byte	0x248
 466 0248 0E       		.uleb128 0xe
 467 0249 04       		.byte	0x4
 468 024a 4E020000 		.4byte	0x24e
 469 024e 11       		.uleb128 0x11
 470 024f 59020000 		.4byte	0x259
 471 0253 12       		.uleb128 0x12
 472 0254 59020000 		.4byte	0x259
 473 0258 00       		.byte	0
 474 0259 13       		.uleb128 0x13
 475 025a 04       		.byte	0x4
 476 025b 05       		.uleb128 0x5
 477 025c 40090000 		.4byte	.LASF43
 478 0260 07       		.byte	0x7
 479 0261 56       		.byte	0x56
 480 0262 66020000 		.4byte	0x266
 481 0266 0F       		.uleb128 0xf
 482 0267 2A0A0000 		.4byte	.LASF44
 483 026b 14       		.byte	0x14
 484 026c 08       		.byte	0x8
 485 026d 3901     		.2byte	0x139
 486 026f B5020000 		.4byte	0x2b5
 487 0273 10       		.uleb128 0x10
 488 0274 94010000 		.4byte	.LASF37
 489 0278 08       		.byte	0x8
 490 0279 3A01     		.2byte	0x13a
 491 027b 6F050000 		.4byte	0x56f
 492 027f 00       		.byte	0
 493 0280 10       		.uleb128 0x10
 494 0281 07000000 		.4byte	.LASF38
 495 0285 08       		.byte	0x8
 496 0286 3B01     		.2byte	0x13b
 497 0288 6F050000 		.4byte	0x56f
 498 028c 04       		.byte	0x4
 499 028d 10       		.uleb128 0x10
 500 028e 64000000 		.4byte	.LASF45
 501 0292 08       		.byte	0x8
 502 0293 3C01     		.2byte	0x13c
 503 0295 80030000 		.4byte	0x380
 504 0299 08       		.byte	0x8
 505 029a 10       		.uleb128 0x10
 506 029b 910A0000 		.4byte	.LASF46
 507 029f 08       		.byte	0x8
 508 02a0 3D01     		.2byte	0x13d
 509 02a2 3D020000 		.4byte	0x23d
 510 02a6 0C       		.byte	0xc
 511 02a7 0D       		.uleb128 0xd
 512 02a8 70617200 		.ascii	"par\000"
 513 02ac 08       		.byte	0x8
ARM GAS  /tmp/cccEivAy.s 			page 10


 514 02ad 3F01     		.2byte	0x13f
 515 02af 59020000 		.4byte	0x259
 516 02b3 10       		.byte	0x10
 517 02b4 00       		.byte	0
 518 02b5 05       		.uleb128 0x5
 519 02b6 63010000 		.4byte	.LASF47
 520 02ba 07       		.byte	0x7
 521 02bb 5B       		.byte	0x5b
 522 02bc C0020000 		.4byte	0x2c0
 523 02c0 0F       		.uleb128 0xf
 524 02c1 C2070000 		.4byte	.LASF48
 525 02c5 10       		.byte	0x10
 526 02c6 08       		.byte	0x8
 527 02c7 4901     		.2byte	0x149
 528 02c9 02030000 		.4byte	0x302
 529 02cd 10       		.uleb128 0x10
 530 02ce 94010000 		.4byte	.LASF37
 531 02d2 08       		.byte	0x8
 532 02d3 4A01     		.2byte	0x14a
 533 02d5 6F050000 		.4byte	0x56f
 534 02d9 00       		.byte	0
 535 02da 10       		.uleb128 0x10
 536 02db 07000000 		.4byte	.LASF38
 537 02df 08       		.byte	0x8
 538 02e0 4C01     		.2byte	0x14c
 539 02e2 6F050000 		.4byte	0x56f
 540 02e6 04       		.byte	0x4
 541 02e7 10       		.uleb128 0x10
 542 02e8 64000000 		.4byte	.LASF45
 543 02ec 08       		.byte	0x8
 544 02ed 4E01     		.2byte	0x14e
 545 02ef 80030000 		.4byte	0x380
 546 02f3 08       		.byte	0x8
 547 02f4 10       		.uleb128 0x10
 548 02f5 B4090000 		.4byte	.LASF49
 549 02f9 08       		.byte	0x8
 550 02fa 5601     		.2byte	0x156
 551 02fc 75030000 		.4byte	0x375
 552 0300 0C       		.byte	0xc
 553 0301 00       		.byte	0
 554 0302 05       		.uleb128 0x5
 555 0303 09010000 		.4byte	.LASF50
 556 0307 07       		.byte	0x7
 557 0308 60       		.byte	0x60
 558 0309 0D030000 		.4byte	0x30d
 559 030d 0F       		.uleb128 0xf
 560 030e 64090000 		.4byte	.LASF51
 561 0312 04       		.byte	0x4
 562 0313 08       		.byte	0x8
 563 0314 7001     		.2byte	0x170
 564 0316 28030000 		.4byte	0x328
 565 031a 10       		.uleb128 0x10
 566 031b 270B0000 		.4byte	.LASF52
 567 031f 08       		.byte	0x8
 568 0320 7801     		.2byte	0x178
 569 0322 7B050000 		.4byte	0x57b
 570 0326 00       		.byte	0
ARM GAS  /tmp/cccEivAy.s 			page 11


 571 0327 00       		.byte	0
 572 0328 05       		.uleb128 0x5
 573 0329 C4060000 		.4byte	.LASF53
 574 032d 07       		.byte	0x7
 575 032e 65       		.byte	0x65
 576 032f 33030000 		.4byte	0x333
 577 0333 0F       		.uleb128 0xf
 578 0334 FA090000 		.4byte	.LASF54
 579 0338 40       		.byte	0x40
 580 0339 08       		.byte	0x8
 581 033a 9001     		.2byte	0x190
 582 033c 75030000 		.4byte	0x375
 583 0340 10       		.uleb128 0x10
 584 0341 83050000 		.4byte	.LASF55
 585 0345 08       		.byte	0x8
 586 0346 9401     		.2byte	0x194
 587 0348 F0010000 		.4byte	0x1f0
 588 034c 00       		.byte	0
 589 034d 10       		.uleb128 0x10
 590 034e F6030000 		.4byte	.LASF56
 591 0352 08       		.byte	0x8
 592 0353 9801     		.2byte	0x198
 593 0355 B5020000 		.4byte	0x2b5
 594 0359 14       		.byte	0x14
 595 035a 0D       		.uleb128 0xd
 596 035b 64626700 		.ascii	"dbg\000"
 597 035f 08       		.byte	0x8
 598 0360 9C01     		.2byte	0x19c
 599 0362 02030000 		.4byte	0x302
 600 0366 24       		.byte	0x24
 601 0367 10       		.uleb128 0x10
 602 0368 58010000 		.4byte	.LASF57
 603 036c 08       		.byte	0x8
 604 036d A001     		.2byte	0x1a0
 605 036f 1B010000 		.4byte	0x11b
 606 0373 28       		.byte	0x28
 607 0374 00       		.byte	0
 608 0375 05       		.uleb128 0x5
 609 0376 080B0000 		.4byte	.LASF58
 610 037a 09       		.byte	0x9
 611 037b 6D       		.byte	0x6d
 612 037c C3000000 		.4byte	0xc3
 613 0380 05       		.uleb128 0x5
 614 0381 86010000 		.4byte	.LASF59
 615 0385 09       		.byte	0x9
 616 0386 79       		.byte	0x79
 617 0387 C3000000 		.4byte	0xc3
 618 038b 03       		.uleb128 0x3
 619 038c 04       		.byte	0x4
 620 038d 07       		.byte	0x7
 621 038e A6070000 		.4byte	.LASF60
 622 0392 14       		.uleb128 0x14
 623 0393 79010000 		.4byte	.LASF61
 624 0397 0A       		.byte	0xa
 625 0398 0408     		.2byte	0x804
 626 039a BE000000 		.4byte	0xbe
 627 039e 15       		.uleb128 0x15
ARM GAS  /tmp/cccEivAy.s 			page 12


 628 039f FB050000 		.4byte	.LASF62
 629 03a3 0B       		.byte	0xb
 630 03a4 4C       		.byte	0x4c
 631 03a5 C3000000 		.4byte	0xc3
 632 03a9 16       		.uleb128 0x16
 633 03aa AE000000 		.4byte	0xae
 634 03ae B9030000 		.4byte	0x3b9
 635 03b2 17       		.uleb128 0x17
 636 03b3 8B030000 		.4byte	0x38b
 637 03b7 0F       		.byte	0xf
 638 03b8 00       		.byte	0
 639 03b9 06       		.uleb128 0x6
 640 03ba A9030000 		.4byte	0x3a9
 641 03be 15       		.uleb128 0x15
 642 03bf EB060000 		.4byte	.LASF63
 643 03c3 0B       		.byte	0xb
 644 03c4 4E       		.byte	0x4e
 645 03c5 B9030000 		.4byte	0x3b9
 646 03c9 16       		.uleb128 0x16
 647 03ca AE000000 		.4byte	0xae
 648 03ce D9030000 		.4byte	0x3d9
 649 03d2 17       		.uleb128 0x17
 650 03d3 8B030000 		.4byte	0x38b
 651 03d7 07       		.byte	0x7
 652 03d8 00       		.byte	0
 653 03d9 06       		.uleb128 0x6
 654 03da C9030000 		.4byte	0x3c9
 655 03de 15       		.uleb128 0x15
 656 03df 18010000 		.4byte	.LASF64
 657 03e3 0B       		.byte	0xb
 658 03e4 4F       		.byte	0x4f
 659 03e5 D9030000 		.4byte	0x3d9
 660 03e9 05       		.uleb128 0x5
 661 03ea 47050000 		.4byte	.LASF65
 662 03ee 0C       		.byte	0xc
 663 03ef 65       		.byte	0x65
 664 03f0 59020000 		.4byte	0x259
 665 03f4 05       		.uleb128 0x5
 666 03f5 54070000 		.4byte	.LASF66
 667 03f9 0C       		.byte	0xc
 668 03fa 6D       		.byte	0x6d
 669 03fb CE000000 		.4byte	0xce
 670 03ff 08       		.uleb128 0x8
 671 0400 2B010000 		.4byte	.LASF67
 672 0404 04       		.byte	0x4
 673 0405 0C       		.byte	0xc
 674 0406 89       		.byte	0x89
 675 0407 17040000 		.4byte	0x417
 676 040b 0C       		.uleb128 0xc
 677 040c 737000   		.ascii	"sp\000"
 678 040f 0C       		.byte	0xc
 679 0410 8A       		.byte	0x8a
 680 0411 63050000 		.4byte	0x563
 681 0415 00       		.byte	0
 682 0416 00       		.byte	0
 683 0417 0F       		.uleb128 0xf
 684 0418 FD000000 		.4byte	.LASF68
ARM GAS  /tmp/cccEivAy.s 			page 13


 685 041c 64       		.byte	0x64
 686 041d 0D       		.byte	0xd
 687 041e 5901     		.2byte	0x159
 688 0420 63050000 		.4byte	0x563
 689 0424 0D       		.uleb128 0xd
 690 0425 73313600 		.ascii	"s16\000"
 691 0429 0D       		.byte	0xd
 692 042a 5B01     		.2byte	0x15b
 693 042c E9030000 		.4byte	0x3e9
 694 0430 00       		.byte	0
 695 0431 0D       		.uleb128 0xd
 696 0432 73313700 		.ascii	"s17\000"
 697 0436 0D       		.byte	0xd
 698 0437 5C01     		.2byte	0x15c
 699 0439 E9030000 		.4byte	0x3e9
 700 043d 04       		.byte	0x4
 701 043e 0D       		.uleb128 0xd
 702 043f 73313800 		.ascii	"s18\000"
 703 0443 0D       		.byte	0xd
 704 0444 5D01     		.2byte	0x15d
 705 0446 E9030000 		.4byte	0x3e9
 706 044a 08       		.byte	0x8
 707 044b 0D       		.uleb128 0xd
 708 044c 73313900 		.ascii	"s19\000"
 709 0450 0D       		.byte	0xd
 710 0451 5E01     		.2byte	0x15e
 711 0453 E9030000 		.4byte	0x3e9
 712 0457 0C       		.byte	0xc
 713 0458 0D       		.uleb128 0xd
 714 0459 73323000 		.ascii	"s20\000"
 715 045d 0D       		.byte	0xd
 716 045e 5F01     		.2byte	0x15f
 717 0460 E9030000 		.4byte	0x3e9
 718 0464 10       		.byte	0x10
 719 0465 0D       		.uleb128 0xd
 720 0466 73323100 		.ascii	"s21\000"
 721 046a 0D       		.byte	0xd
 722 046b 6001     		.2byte	0x160
 723 046d E9030000 		.4byte	0x3e9
 724 0471 14       		.byte	0x14
 725 0472 0D       		.uleb128 0xd
 726 0473 73323200 		.ascii	"s22\000"
 727 0477 0D       		.byte	0xd
 728 0478 6101     		.2byte	0x161
 729 047a E9030000 		.4byte	0x3e9
 730 047e 18       		.byte	0x18
 731 047f 0D       		.uleb128 0xd
 732 0480 73323300 		.ascii	"s23\000"
 733 0484 0D       		.byte	0xd
 734 0485 6201     		.2byte	0x162
 735 0487 E9030000 		.4byte	0x3e9
 736 048b 1C       		.byte	0x1c
 737 048c 0D       		.uleb128 0xd
 738 048d 73323400 		.ascii	"s24\000"
 739 0491 0D       		.byte	0xd
 740 0492 6301     		.2byte	0x163
 741 0494 E9030000 		.4byte	0x3e9
ARM GAS  /tmp/cccEivAy.s 			page 14


 742 0498 20       		.byte	0x20
 743 0499 0D       		.uleb128 0xd
 744 049a 73323500 		.ascii	"s25\000"
 745 049e 0D       		.byte	0xd
 746 049f 6401     		.2byte	0x164
 747 04a1 E9030000 		.4byte	0x3e9
 748 04a5 24       		.byte	0x24
 749 04a6 0D       		.uleb128 0xd
 750 04a7 73323600 		.ascii	"s26\000"
 751 04ab 0D       		.byte	0xd
 752 04ac 6501     		.2byte	0x165
 753 04ae E9030000 		.4byte	0x3e9
 754 04b2 28       		.byte	0x28
 755 04b3 0D       		.uleb128 0xd
 756 04b4 73323700 		.ascii	"s27\000"
 757 04b8 0D       		.byte	0xd
 758 04b9 6601     		.2byte	0x166
 759 04bb E9030000 		.4byte	0x3e9
 760 04bf 2C       		.byte	0x2c
 761 04c0 0D       		.uleb128 0xd
 762 04c1 73323800 		.ascii	"s28\000"
 763 04c5 0D       		.byte	0xd
 764 04c6 6701     		.2byte	0x167
 765 04c8 E9030000 		.4byte	0x3e9
 766 04cc 30       		.byte	0x30
 767 04cd 0D       		.uleb128 0xd
 768 04ce 73323900 		.ascii	"s29\000"
 769 04d2 0D       		.byte	0xd
 770 04d3 6801     		.2byte	0x168
 771 04d5 E9030000 		.4byte	0x3e9
 772 04d9 34       		.byte	0x34
 773 04da 0D       		.uleb128 0xd
 774 04db 73333000 		.ascii	"s30\000"
 775 04df 0D       		.byte	0xd
 776 04e0 6901     		.2byte	0x169
 777 04e2 E9030000 		.4byte	0x3e9
 778 04e6 38       		.byte	0x38
 779 04e7 0D       		.uleb128 0xd
 780 04e8 73333100 		.ascii	"s31\000"
 781 04ec 0D       		.byte	0xd
 782 04ed 6A01     		.2byte	0x16a
 783 04ef E9030000 		.4byte	0x3e9
 784 04f3 3C       		.byte	0x3c
 785 04f4 0D       		.uleb128 0xd
 786 04f5 723400   		.ascii	"r4\000"
 787 04f8 0D       		.byte	0xd
 788 04f9 6C01     		.2byte	0x16c
 789 04fb E9030000 		.4byte	0x3e9
 790 04ff 40       		.byte	0x40
 791 0500 0D       		.uleb128 0xd
 792 0501 723500   		.ascii	"r5\000"
 793 0504 0D       		.byte	0xd
 794 0505 6D01     		.2byte	0x16d
 795 0507 E9030000 		.4byte	0x3e9
 796 050b 44       		.byte	0x44
 797 050c 0D       		.uleb128 0xd
 798 050d 723600   		.ascii	"r6\000"
ARM GAS  /tmp/cccEivAy.s 			page 15


 799 0510 0D       		.byte	0xd
 800 0511 6E01     		.2byte	0x16e
 801 0513 E9030000 		.4byte	0x3e9
 802 0517 48       		.byte	0x48
 803 0518 0D       		.uleb128 0xd
 804 0519 723700   		.ascii	"r7\000"
 805 051c 0D       		.byte	0xd
 806 051d 6F01     		.2byte	0x16f
 807 051f E9030000 		.4byte	0x3e9
 808 0523 4C       		.byte	0x4c
 809 0524 0D       		.uleb128 0xd
 810 0525 723800   		.ascii	"r8\000"
 811 0528 0D       		.byte	0xd
 812 0529 7001     		.2byte	0x170
 813 052b E9030000 		.4byte	0x3e9
 814 052f 50       		.byte	0x50
 815 0530 0D       		.uleb128 0xd
 816 0531 723900   		.ascii	"r9\000"
 817 0534 0D       		.byte	0xd
 818 0535 7101     		.2byte	0x171
 819 0537 E9030000 		.4byte	0x3e9
 820 053b 54       		.byte	0x54
 821 053c 0D       		.uleb128 0xd
 822 053d 72313000 		.ascii	"r10\000"
 823 0541 0D       		.byte	0xd
 824 0542 7201     		.2byte	0x172
 825 0544 E9030000 		.4byte	0x3e9
 826 0548 58       		.byte	0x58
 827 0549 0D       		.uleb128 0xd
 828 054a 72313100 		.ascii	"r11\000"
 829 054e 0D       		.byte	0xd
 830 054f 7301     		.2byte	0x173
 831 0551 E9030000 		.4byte	0x3e9
 832 0555 5C       		.byte	0x5c
 833 0556 0D       		.uleb128 0xd
 834 0557 6C7200   		.ascii	"lr\000"
 835 055a 0D       		.byte	0xd
 836 055b 7401     		.2byte	0x174
 837 055d E9030000 		.4byte	0x3e9
 838 0561 60       		.byte	0x60
 839 0562 00       		.byte	0
 840 0563 0E       		.uleb128 0xe
 841 0564 04       		.byte	0x4
 842 0565 17040000 		.4byte	0x417
 843 0569 0E       		.uleb128 0xe
 844 056a 04       		.byte	0x4
 845 056b AF010000 		.4byte	0x1af
 846 056f 0E       		.uleb128 0xe
 847 0570 04       		.byte	0x4
 848 0571 5B020000 		.4byte	0x25b
 849 0575 0E       		.uleb128 0xe
 850 0576 04       		.byte	0x4
 851 0577 87050000 		.4byte	0x587
 852 057b 07       		.uleb128 0x7
 853 057c 75050000 		.4byte	0x575
 854 0580 03       		.uleb128 0x3
 855 0581 01       		.byte	0x1
ARM GAS  /tmp/cccEivAy.s 			page 16


 856 0582 08       		.byte	0x8
 857 0583 8C0A0000 		.4byte	.LASF69
 858 0587 06       		.uleb128 0x6
 859 0588 80050000 		.4byte	0x580
 860 058c 18       		.uleb128 0x18
 861 058d 636800   		.ascii	"ch\000"
 862 0590 08       		.byte	0x8
 863 0591 C701     		.2byte	0x1c7
 864 0593 28030000 		.4byte	0x328
 865 0597 16       		.uleb128 0x16
 866 0598 F4030000 		.4byte	0x3f4
 867 059c A2050000 		.4byte	0x5a2
 868 05a0 19       		.uleb128 0x19
 869 05a1 00       		.byte	0
 870 05a2 14       		.uleb128 0x14
 871 05a3 3B0A0000 		.4byte	.LASF70
 872 05a7 01       		.byte	0x1
 873 05a8 1701     		.2byte	0x117
 874 05aa 97050000 		.4byte	0x597
 875 05ae 1A       		.uleb128 0x1a
 876 05af 59000000 		.4byte	.LASF150
 877 05b3 02       		.byte	0x2
 878 05b4 21       		.byte	0x21
 879 05b5 78090000 		.4byte	0x978
 880 05b9 1B       		.uleb128 0x1b
 881 05ba 00000000 		.4byte	.LASF110
 882 05be 01       		.byte	0x1
 883 05bf 02       		.byte	0x2
 884 05c0 2C       		.byte	0x2c
 885 05c1 35070000 		.4byte	0x735
 886 05c5 1C       		.uleb128 0x1c
 887 05c6 26010000 		.4byte	.LASF71
 888 05ca 02       		.byte	0x2
 889 05cb 3A       		.byte	0x3a
 890 05cc D30C0000 		.4byte	.LASF73
 891 05d0 01       		.byte	0x1
 892 05d1 1D       		.uleb128 0x1d
 893 05d2 E4040000 		.4byte	.LASF91
 894 05d6 02       		.byte	0x2
 895 05d7 4B       		.byte	0x4b
 896 05d8 A4080000 		.4byte	.LASF151
 897 05dc 01       		.byte	0x1
 898 05dd E7050000 		.4byte	0x5e7
 899 05e1 12       		.uleb128 0x12
 900 05e2 75050000 		.4byte	0x575
 901 05e6 00       		.byte	0
 902 05e7 1E       		.uleb128 0x1e
 903 05e8 82040000 		.4byte	.LASF95
 904 05ec 02       		.byte	0x2
 905 05ed 69       		.byte	0x69
 906 05ee D0090000 		.4byte	.LASF152
 907 05f2 78090000 		.4byte	0x978
 908 05f6 01       		.byte	0x1
 909 05f7 01060000 		.4byte	0x601
 910 05fb 12       		.uleb128 0x12
 911 05fc 2C000000 		.4byte	0x2c
 912 0600 00       		.byte	0
ARM GAS  /tmp/cccEivAy.s 			page 17


 913 0601 1C       		.uleb128 0x1c
 914 0602 50050000 		.4byte	.LASF72
 915 0606 02       		.byte	0x2
 916 0607 76       		.byte	0x76
 917 0608 F9080000 		.4byte	.LASF74
 918 060c 01       		.byte	0x1
 919 060d 1C       		.uleb128 0x1c
 920 060e AD0C0000 		.4byte	.LASF75
 921 0612 02       		.byte	0x2
 922 0613 86       		.byte	0x86
 923 0614 040A0000 		.4byte	.LASF76
 924 0618 01       		.byte	0x1
 925 0619 1C       		.uleb128 0x1c
 926 061a 14080000 		.4byte	.LASF77
 927 061e 02       		.byte	0x2
 928 061f 94       		.byte	0x94
 929 0620 8A090000 		.4byte	.LASF78
 930 0624 01       		.byte	0x1
 931 0625 1C       		.uleb128 0x1c
 932 0626 7E0A0000 		.4byte	.LASF79
 933 062a 02       		.byte	0x2
 934 062b 9E       		.byte	0x9e
 935 062c 72080000 		.4byte	.LASF80
 936 0630 01       		.byte	0x1
 937 0631 1C       		.uleb128 0x1c
 938 0632 CC0C0000 		.4byte	.LASF81
 939 0636 02       		.byte	0x2
 940 0637 A8       		.byte	0xa8
 941 0638 5E0A0000 		.4byte	.LASF82
 942 063c 01       		.byte	0x1
 943 063d 1C       		.uleb128 0x1c
 944 063e 58090000 		.4byte	.LASF83
 945 0642 02       		.byte	0x2
 946 0643 B9       		.byte	0xb9
 947 0644 1A090000 		.4byte	.LASF84
 948 0648 01       		.byte	0x1
 949 0649 1C       		.uleb128 0x1c
 950 064a AA010000 		.4byte	.LASF85
 951 064e 02       		.byte	0x2
 952 064f CB       		.byte	0xcb
 953 0650 96060000 		.4byte	.LASF86
 954 0654 01       		.byte	0x1
 955 0655 1C       		.uleb128 0x1c
 956 0656 C4080000 		.4byte	.LASF87
 957 065a 02       		.byte	0x2
 958 065b D7       		.byte	0xd7
 959 065c 3C0B0000 		.4byte	.LASF88
 960 0660 01       		.byte	0x1
 961 0661 1C       		.uleb128 0x1c
 962 0662 5E080000 		.4byte	.LASF89
 963 0666 02       		.byte	0x2
 964 0667 E3       		.byte	0xe3
 965 0668 74030000 		.4byte	.LASF90
 966 066c 01       		.byte	0x1
 967 066d 1F       		.uleb128 0x1f
 968 066e DC050000 		.4byte	.LASF93
 969 0672 02       		.byte	0x2
ARM GAS  /tmp/cccEivAy.s 			page 18


 970 0673 F5       		.byte	0xf5
 971 0674 370C0000 		.4byte	.LASF153
 972 0678 E4000000 		.4byte	0xe4
 973 067c 01       		.byte	0x1
 974 067d 20       		.uleb128 0x20
 975 067e 97070000 		.4byte	.LASF92
 976 0682 02       		.byte	0x2
 977 0683 0301     		.2byte	0x103
 978 0685 BA030000 		.4byte	.LASF98
 979 0689 01       		.byte	0x1
 980 068a 94060000 		.4byte	0x694
 981 068e 12       		.uleb128 0x12
 982 068f E4000000 		.4byte	0xe4
 983 0693 00       		.byte	0
 984 0694 21       		.uleb128 0x21
 985 0695 90080000 		.4byte	.LASF94
 986 0699 02       		.byte	0x2
 987 069a 1301     		.2byte	0x113
 988 069c 0C030000 		.4byte	.LASF101
 989 06a0 D9000000 		.4byte	0xd9
 990 06a4 01       		.byte	0x1
 991 06a5 22       		.uleb128 0x22
 992 06a6 62060000 		.4byte	.LASF96
 993 06aa 02       		.byte	0x2
 994 06ab 2A01     		.2byte	0x12a
 995 06ad B2040000 		.4byte	.LASF106
 996 06b1 78090000 		.4byte	0x978
 997 06b5 01       		.byte	0x1
 998 06b6 CA060000 		.4byte	0x6ca
 999 06ba 12       		.uleb128 0x12
 1000 06bb D9000000 		.4byte	0xd9
 1001 06bf 12       		.uleb128 0x12
 1002 06c0 D9000000 		.4byte	0xd9
 1003 06c4 12       		.uleb128 0x12
 1004 06c5 D9000000 		.4byte	0xd9
 1005 06c9 00       		.byte	0
 1006 06ca 20       		.uleb128 0x20
 1007 06cb 27040000 		.4byte	.LASF97
 1008 06cf 02       		.byte	0x2
 1009 06d0 3C01     		.2byte	0x13c
 1010 06d2 680B0000 		.4byte	.LASF99
 1011 06d6 01       		.byte	0x1
 1012 06d7 E1060000 		.4byte	0x6e1
 1013 06db 12       		.uleb128 0x12
 1014 06dc D9000000 		.4byte	0xd9
 1015 06e0 00       		.byte	0
 1016 06e1 21       		.uleb128 0x21
 1017 06e2 CC0B0000 		.4byte	.LASF100
 1018 06e6 02       		.byte	0x2
 1019 06e7 4A01     		.2byte	0x14a
 1020 06e9 E9040000 		.4byte	.LASF102
 1021 06ed 75030000 		.4byte	0x375
 1022 06f1 01       		.byte	0x1
 1023 06f2 21       		.uleb128 0x21
 1024 06f3 A40C0000 		.4byte	.LASF103
 1025 06f7 02       		.byte	0x2
 1026 06f8 5701     		.2byte	0x157
ARM GAS  /tmp/cccEivAy.s 			page 19


 1027 06fa E60A0000 		.4byte	.LASF104
 1028 06fe 75030000 		.4byte	0x375
 1029 0702 01       		.byte	0x1
 1030 0703 22       		.uleb128 0x22
 1031 0704 E3030000 		.4byte	.LASF105
 1032 0708 02       		.byte	0x2
 1033 0709 6901     		.2byte	0x169
 1034 070b 46030000 		.4byte	.LASF107
 1035 070f 78090000 		.4byte	0x978
 1036 0713 01       		.byte	0x1
 1037 0714 23070000 		.4byte	0x723
 1038 0718 12       		.uleb128 0x12
 1039 0719 75030000 		.4byte	0x375
 1040 071d 12       		.uleb128 0x12
 1041 071e 75030000 		.4byte	0x375
 1042 0722 00       		.byte	0
 1043 0723 21       		.uleb128 0x21
 1044 0724 0A050000 		.4byte	.LASF108
 1045 0728 02       		.byte	0x2
 1046 0729 7B01     		.2byte	0x17b
 1047 072b E3020000 		.4byte	.LASF109
 1048 072f 35070000 		.4byte	0x735
 1049 0733 01       		.byte	0x1
 1050 0734 00       		.byte	0
 1051 0735 23       		.uleb128 0x23
 1052 0736 F10C0000 		.4byte	.LASF111
 1053 073a 04       		.byte	0x4
 1054 073b 02       		.byte	0x2
 1055 073c 5002     		.2byte	0x250
 1056 073e E8070000 		.4byte	0x7e8
 1057 0742 10       		.uleb128 0x10
 1058 0743 F9060000 		.4byte	.LASF112
 1059 0747 02       		.byte	0x2
 1060 0748 5402     		.2byte	0x254
 1061 074a BA010000 		.4byte	0x1ba
 1062 074e 00       		.byte	0
 1063 074f 24       		.uleb128 0x24
 1064 0750 F10C0000 		.4byte	.LASF111
 1065 0754 02       		.byte	0x2
 1066 0755 6302     		.2byte	0x263
 1067 0757 A70B0000 		.4byte	.LASF113
 1068 075b 7F090000 		.4byte	0x97f
 1069 075f 01       		.byte	0x1
 1070 0760 68070000 		.4byte	0x768
 1071 0764 6E070000 		.4byte	0x76e
 1072 0768 25       		.uleb128 0x25
 1073 0769 7F090000 		.4byte	0x97f
 1074 076d 00       		.byte	0
 1075 076e 24       		.uleb128 0x24
 1076 076f F10C0000 		.4byte	.LASF111
 1077 0773 02       		.byte	0x2
 1078 0774 6E02     		.2byte	0x26e
 1079 0776 E5070000 		.4byte	.LASF114
 1080 077a 7F090000 		.4byte	0x97f
 1081 077e 01       		.byte	0x1
 1082 077f 87070000 		.4byte	0x787
 1083 0783 92070000 		.4byte	0x792
ARM GAS  /tmp/cccEivAy.s 			page 20


 1084 0787 25       		.uleb128 0x25
 1085 0788 7F090000 		.4byte	0x97f
 1086 078c 12       		.uleb128 0x12
 1087 078d BA010000 		.4byte	0x1ba
 1088 0791 00       		.byte	0
 1089 0792 24       		.uleb128 0x24
 1090 0793 8F0B0000 		.4byte	.LASF115
 1091 0797 02       		.byte	0x2
 1092 0798 7902     		.2byte	0x279
 1093 079a 58050000 		.4byte	.LASF116
 1094 079e 78090000 		.4byte	0x978
 1095 07a2 01       		.byte	0x1
 1096 07a3 AB070000 		.4byte	0x7ab
 1097 07a7 B1070000 		.4byte	0x7b1
 1098 07ab 25       		.uleb128 0x25
 1099 07ac 8A090000 		.4byte	0x98a
 1100 07b0 00       		.byte	0
 1101 07b1 24       		.uleb128 0x24
 1102 07b2 830A0000 		.4byte	.LASF117
 1103 07b6 02       		.byte	0x2
 1104 07b7 8102     		.2byte	0x281
 1105 07b9 630C0000 		.4byte	.LASF118
 1106 07bd BA010000 		.4byte	0x1ba
 1107 07c1 01       		.byte	0x1
 1108 07c2 CA070000 		.4byte	0x7ca
 1109 07c6 D0070000 		.4byte	0x7d0
 1110 07ca 25       		.uleb128 0x25
 1111 07cb 7F090000 		.4byte	0x97f
 1112 07cf 00       		.byte	0
 1113 07d0 26       		.uleb128 0x26
 1114 07d1 0C000000 		.4byte	.LASF119
 1115 07d5 02       		.byte	0x2
 1116 07d6 9002     		.2byte	0x290
 1117 07d8 43040000 		.4byte	.LASF120
 1118 07dc 01       		.byte	0x1
 1119 07dd E1070000 		.4byte	0x7e1
 1120 07e1 25       		.uleb128 0x25
 1121 07e2 8A090000 		.4byte	0x98a
 1122 07e6 00       		.byte	0
 1123 07e7 00       		.byte	0
 1124 07e8 06       		.uleb128 0x6
 1125 07e9 35070000 		.4byte	0x735
 1126 07ed 27       		.uleb128 0x27
 1127 07ee D6080000 		.4byte	.LASF122
 1128 07f2 04       		.byte	0x4
 1129 07f3 02       		.byte	0x2
 1130 07f4 8803     		.2byte	0x388
 1131 07f6 ED070000 		.4byte	0x7ed
 1132 07fa 66090000 		.4byte	0x966
 1133 07fe 28       		.uleb128 0x28
 1134 07ff B50C0000 		.4byte	.LASF121
 1135 0803 9B090000 		.4byte	0x99b
 1136 0807 00       		.byte	0
 1137 0808 01       		.byte	0x1
 1138 0809 24       		.uleb128 0x24
 1139 080a D6080000 		.4byte	.LASF122
 1140 080e 02       		.byte	0x2
ARM GAS  /tmp/cccEivAy.s 			page 21


 1141 080f 8F03     		.2byte	0x38f
 1142 0811 92040000 		.4byte	.LASF123
 1143 0815 AB090000 		.4byte	0x9ab
 1144 0819 01       		.byte	0x1
 1145 081a 22080000 		.4byte	0x822
 1146 081e 28080000 		.4byte	0x828
 1147 0822 25       		.uleb128 0x25
 1148 0823 AB090000 		.4byte	0x9ab
 1149 0827 00       		.byte	0
 1150 0828 29       		.uleb128 0x29
 1151 0829 010D0000 		.4byte	.LASF154
 1152 082d 02       		.byte	0x2
 1153 082e 9A03     		.2byte	0x39a
 1154 0830 24050000 		.4byte	.LASF155
 1155 0834 01       		.byte	0x1
 1156 0835 02       		.uleb128 0x2
 1157 0836 10       		.byte	0x10
 1158 0837 00       		.uleb128 0
 1159 0838 ED070000 		.4byte	0x7ed
 1160 083c 01       		.byte	0x1
 1161 083d 45080000 		.4byte	0x845
 1162 0841 4B080000 		.4byte	0x84b
 1163 0845 25       		.uleb128 0x25
 1164 0846 AB090000 		.4byte	0x9ab
 1165 084a 00       		.byte	0
 1166 084b 2A       		.uleb128 0x2a
 1167 084c C60C0000 		.4byte	.LASF156
 1168 0850 02       		.byte	0x2
 1169 0851 A503     		.2byte	0x3a5
 1170 0853 2A0D0000 		.4byte	.LASF157
 1171 0857 35070000 		.4byte	0x735
 1172 085b 01       		.byte	0x1
 1173 085c 02       		.uleb128 0x2
 1174 085d 10       		.byte	0x10
 1175 085e 01       		.uleb128 0x1
 1176 085f ED070000 		.4byte	0x7ed
 1177 0863 01       		.byte	0x1
 1178 0864 6C080000 		.4byte	0x86c
 1179 0868 77080000 		.4byte	0x877
 1180 086c 25       		.uleb128 0x25
 1181 086d AB090000 		.4byte	0x9ab
 1182 0871 12       		.uleb128 0x12
 1183 0872 05010000 		.4byte	0x105
 1184 0876 00       		.byte	0
 1185 0877 21       		.uleb128 0x21
 1186 0878 8E070000 		.4byte	.LASF124
 1187 087c 02       		.byte	0x2
 1188 087d AE03     		.2byte	0x3ae
 1189 087f 2D070000 		.4byte	.LASF125
 1190 0883 35070000 		.4byte	0x735
 1191 0887 01       		.byte	0x1
 1192 0888 20       		.uleb128 0x20
 1193 0889 560A0000 		.4byte	.LASF126
 1194 088d 02       		.byte	0x2
 1195 088e BC03     		.2byte	0x3bc
 1196 0890 0F0C0000 		.4byte	.LASF127
 1197 0894 01       		.byte	0x1
ARM GAS  /tmp/cccEivAy.s 			page 22


 1198 0895 9F080000 		.4byte	0x89f
 1199 0899 12       		.uleb128 0x12
 1200 089a 75050000 		.4byte	0x575
 1201 089e 00       		.byte	0
 1202 089f 22       		.uleb128 0x22
 1203 08a0 1B0B0000 		.4byte	.LASF128
 1204 08a4 02       		.byte	0x2
 1205 08a5 CD03     		.2byte	0x3cd
 1206 08a7 D40B0000 		.4byte	.LASF129
 1207 08ab 05010000 		.4byte	0x105
 1208 08af 01       		.byte	0x1
 1209 08b0 BA080000 		.4byte	0x8ba
 1210 08b4 12       		.uleb128 0x12
 1211 08b5 05010000 		.4byte	0x105
 1212 08b9 00       		.byte	0
 1213 08ba 21       		.uleb128 0x21
 1214 08bb 0E070000 		.4byte	.LASF130
 1215 08bf 02       		.byte	0x2
 1216 08c0 DA03     		.2byte	0x3da
 1217 08c2 7A000000 		.4byte	.LASF131
 1218 08c6 05010000 		.4byte	0x105
 1219 08ca 01       		.byte	0x1
 1220 08cb 20       		.uleb128 0x20
 1221 08cc 250A0000 		.4byte	.LASF132
 1222 08d0 02       		.byte	0x2
 1223 08d1 ED03     		.2byte	0x3ed
 1224 08d3 DA000000 		.4byte	.LASF133
 1225 08d7 01       		.byte	0x1
 1226 08d8 E2080000 		.4byte	0x8e2
 1227 08dc 12       		.uleb128 0x12
 1228 08dd 10010000 		.4byte	0x110
 1229 08e1 00       		.byte	0
 1230 08e2 20       		.uleb128 0x20
 1231 08e3 B4030000 		.4byte	.LASF134
 1232 08e7 02       		.byte	0x2
 1233 08e8 0004     		.2byte	0x400
 1234 08ea A6000000 		.4byte	.LASF135
 1235 08ee 01       		.byte	0x1
 1236 08ef F9080000 		.4byte	0x8f9
 1237 08f3 12       		.uleb128 0x12
 1238 08f4 10010000 		.4byte	0x110
 1239 08f8 00       		.byte	0
 1240 08f9 21       		.uleb128 0x21
 1241 08fa 0B060000 		.4byte	.LASF136
 1242 08fe 02       		.byte	0x2
 1243 08ff 0F04     		.2byte	0x40f
 1244 0901 5F070000 		.4byte	.LASF137
 1245 0905 78090000 		.4byte	0x978
 1246 0909 01       		.byte	0x1
 1247 090a 20       		.uleb128 0x20
 1248 090b D4000000 		.4byte	.LASF138
 1249 090f 02       		.byte	0x2
 1250 0910 2004     		.2byte	0x420
 1251 0912 1B080000 		.4byte	.LASF139
 1252 0916 01       		.byte	0x1
 1253 0917 21090000 		.4byte	0x921
 1254 091b 12       		.uleb128 0x12
ARM GAS  /tmp/cccEivAy.s 			page 23


 1255 091c 80030000 		.4byte	0x380
 1256 0920 00       		.byte	0
 1257 0921 20       		.uleb128 0x20
 1258 0922 310B0000 		.4byte	.LASF140
 1259 0926 02       		.byte	0x2
 1260 0927 2D04     		.2byte	0x42d
 1261 0929 FD030000 		.4byte	.LASF141
 1262 092d 01       		.byte	0x1
 1263 092e 38090000 		.4byte	0x938
 1264 0932 12       		.uleb128 0x12
 1265 0933 75030000 		.4byte	0x375
 1266 0937 00       		.byte	0
 1267 0938 22       		.uleb128 0x22
 1268 0939 BD090000 		.4byte	.LASF142
 1269 093d 02       		.byte	0x2
 1270 093e 4004     		.2byte	0x440
 1271 0940 960A0000 		.4byte	.LASF143
 1272 0944 75030000 		.4byte	0x375
 1273 0948 01       		.byte	0x1
 1274 0949 58090000 		.4byte	0x958
 1275 094d 12       		.uleb128 0x12
 1276 094e 75030000 		.4byte	0x375
 1277 0952 12       		.uleb128 0x12
 1278 0953 75030000 		.4byte	0x375
 1279 0957 00       		.byte	0
 1280 0958 2B       		.uleb128 0x2b
 1281 0959 86060000 		.4byte	.LASF144
 1282 095d 02       		.byte	0x2
 1283 095e 4C04     		.2byte	0x44c
 1284 0960 060D0000 		.4byte	.LASF158
 1285 0964 01       		.byte	0x1
 1286 0965 00       		.byte	0
 1287 0966 2C       		.uleb128 0x2c
 1288 0967 51060000 		.4byte	.LASF159
 1289 096b 03       		.byte	0x3
 1290 096c 27       		.byte	0x27
 1291 096d 3F080000 		.4byte	.LASF160
 1292 0971 12       		.uleb128 0x12
 1293 0972 59020000 		.4byte	0x259
 1294 0976 00       		.byte	0
 1295 0977 00       		.byte	0
 1296 0978 03       		.uleb128 0x3
 1297 0979 01       		.byte	0x1
 1298 097a 02       		.byte	0x2
 1299 097b D8060000 		.4byte	.LASF145
 1300 097f 0E       		.uleb128 0xe
 1301 0980 04       		.byte	0x4
 1302 0981 35070000 		.4byte	0x735
 1303 0985 06       		.uleb128 0x6
 1304 0986 7F090000 		.4byte	0x97f
 1305 098a 0E       		.uleb128 0xe
 1306 098b 04       		.byte	0x4
 1307 098c E8070000 		.4byte	0x7e8
 1308 0990 2D       		.uleb128 0x2d
 1309 0991 25000000 		.4byte	0x25
 1310 0995 9B090000 		.4byte	0x99b
 1311 0999 2E       		.uleb128 0x2e
ARM GAS  /tmp/cccEivAy.s 			page 24


 1312 099a 00       		.byte	0
 1313 099b 0E       		.uleb128 0xe
 1314 099c 04       		.byte	0x4
 1315 099d A1090000 		.4byte	0x9a1
 1316 09a1 2F       		.uleb128 0x2f
 1317 09a2 04       		.byte	0x4
 1318 09a3 CC050000 		.4byte	.LASF161
 1319 09a7 90090000 		.4byte	0x990
 1320 09ab 0E       		.uleb128 0xe
 1321 09ac 04       		.byte	0x4
 1322 09ad ED070000 		.4byte	0x7ed
 1323 09b1 30       		.uleb128 0x30
 1324 09b2 66090000 		.4byte	0x966
 1325 09b6 00000000 		.4byte	.LFB290
 1326 09ba 18000000 		.4byte	.LFE290-.LFB290
 1327 09be 01       		.uleb128 0x1
 1328 09bf 9C       		.byte	0x9c
 1329 09c0 D3090000 		.4byte	0x9d3
 1330 09c4 31       		.uleb128 0x31
 1331 09c5 61726700 		.ascii	"arg\000"
 1332 09c9 03       		.byte	0x3
 1333 09ca 27       		.byte	0x27
 1334 09cb 59020000 		.4byte	0x259
 1335 09cf 02       		.uleb128 0x2
 1336 09d0 91       		.byte	0x91
 1337 09d1 74       		.sleb128 -12
 1338 09d2 00       		.byte	0
 1339 09d3 32       		.uleb128 0x32
 1340 09d4 23070000 		.4byte	0x723
 1341 09d8 03       		.byte	0x3
 1342 09d9 1D       		.byte	0x1d
 1343 09da 00000000 		.4byte	.LFB289
 1344 09de 1E000000 		.4byte	.LFE289-.LFB289
 1345 09e2 01       		.uleb128 0x1
 1346 09e3 9C       		.byte	0x9c
 1347 09e4 33       		.uleb128 0x33
 1348 09e5 6E070000 		.4byte	0x76e
 1349 09e9 02       		.byte	0x2
 1350 09ea F2090000 		.4byte	0x9f2
 1351 09ee 070A0000 		.4byte	0xa07
 1352 09f2 34       		.uleb128 0x34
 1353 09f3 DF040000 		.4byte	.LASF162
 1354 09f7 85090000 		.4byte	0x985
 1355 09fb 35       		.uleb128 0x35
 1356 09fc 747000   		.ascii	"tp\000"
 1357 09ff 02       		.byte	0x2
 1358 0a00 6E02     		.2byte	0x26e
 1359 0a02 BA010000 		.4byte	0x1ba
 1360 0a06 00       		.byte	0
 1361 0a07 36       		.uleb128 0x36
 1362 0a08 E4090000 		.4byte	0x9e4
 1363 0a0c 2A000000 		.4byte	.LASF163
 1364 0a10 260A0000 		.4byte	0xa26
 1365 0a14 00000000 		.4byte	.LFB253
 1366 0a18 14000000 		.4byte	.LFE253-.LFB253
 1367 0a1c 01       		.uleb128 0x1
 1368 0a1d 9C       		.byte	0x9c
ARM GAS  /tmp/cccEivAy.s 			page 25


 1369 0a1e 260A0000 		.4byte	0xa26
 1370 0a22 370A0000 		.4byte	0xa37
 1371 0a26 37       		.uleb128 0x37
 1372 0a27 F2090000 		.4byte	0x9f2
 1373 0a2b 02       		.uleb128 0x2
 1374 0a2c 91       		.byte	0x91
 1375 0a2d 7C       		.sleb128 -4
 1376 0a2e 37       		.uleb128 0x37
 1377 0a2f FB090000 		.4byte	0x9fb
 1378 0a33 02       		.uleb128 0x2
 1379 0a34 91       		.byte	0x91
 1380 0a35 78       		.sleb128 -8
 1381 0a36 00       		.byte	0
 1382 0a37 38       		.uleb128 0x38
 1383 0a38 D20A0000 		.4byte	.LASF164
 1384 0a3c 01       		.byte	0x1
 1385 0a3d CD01     		.2byte	0x1cd
 1386 0a3f BA010000 		.4byte	0x1ba
 1387 0a43 00000000 		.4byte	.LFB190
 1388 0a47 0C000000 		.4byte	.LFE190-.LFB190
 1389 0a4b 01       		.uleb128 0x1
 1390 0a4c 9C       		.byte	0x9c
 1391 0a4d 00       		.byte	0
 1392              		.section	.debug_abbrev,"",%progbits
 1393              	.Ldebug_abbrev0:
 1394 0000 01       		.uleb128 0x1
 1395 0001 11       		.uleb128 0x11
 1396 0002 01       		.byte	0x1
 1397 0003 25       		.uleb128 0x25
 1398 0004 0E       		.uleb128 0xe
 1399 0005 13       		.uleb128 0x13
 1400 0006 0B       		.uleb128 0xb
 1401 0007 03       		.uleb128 0x3
 1402 0008 0E       		.uleb128 0xe
 1403 0009 1B       		.uleb128 0x1b
 1404 000a 0E       		.uleb128 0xe
 1405 000b 55       		.uleb128 0x55
 1406 000c 17       		.uleb128 0x17
 1407 000d 11       		.uleb128 0x11
 1408 000e 01       		.uleb128 0x1
 1409 000f 10       		.uleb128 0x10
 1410 0010 17       		.uleb128 0x17
 1411 0011 00       		.byte	0
 1412 0012 00       		.byte	0
 1413 0013 02       		.uleb128 0x2
 1414 0014 24       		.uleb128 0x24
 1415 0015 00       		.byte	0
 1416 0016 0B       		.uleb128 0xb
 1417 0017 0B       		.uleb128 0xb
 1418 0018 3E       		.uleb128 0x3e
 1419 0019 0B       		.uleb128 0xb
 1420 001a 03       		.uleb128 0x3
 1421 001b 08       		.uleb128 0x8
 1422 001c 00       		.byte	0
 1423 001d 00       		.byte	0
 1424 001e 03       		.uleb128 0x3
 1425 001f 24       		.uleb128 0x24
ARM GAS  /tmp/cccEivAy.s 			page 26


 1426 0020 00       		.byte	0
 1427 0021 0B       		.uleb128 0xb
 1428 0022 0B       		.uleb128 0xb
 1429 0023 3E       		.uleb128 0x3e
 1430 0024 0B       		.uleb128 0xb
 1431 0025 03       		.uleb128 0x3
 1432 0026 0E       		.uleb128 0xe
 1433 0027 00       		.byte	0
 1434 0028 00       		.byte	0
 1435 0029 04       		.uleb128 0x4
 1436 002a 3B       		.uleb128 0x3b
 1437 002b 00       		.byte	0
 1438 002c 03       		.uleb128 0x3
 1439 002d 0E       		.uleb128 0xe
 1440 002e 00       		.byte	0
 1441 002f 00       		.byte	0
 1442 0030 05       		.uleb128 0x5
 1443 0031 16       		.uleb128 0x16
 1444 0032 00       		.byte	0
 1445 0033 03       		.uleb128 0x3
 1446 0034 0E       		.uleb128 0xe
 1447 0035 3A       		.uleb128 0x3a
 1448 0036 0B       		.uleb128 0xb
 1449 0037 3B       		.uleb128 0x3b
 1450 0038 0B       		.uleb128 0xb
 1451 0039 49       		.uleb128 0x49
 1452 003a 13       		.uleb128 0x13
 1453 003b 00       		.byte	0
 1454 003c 00       		.byte	0
 1455 003d 06       		.uleb128 0x6
 1456 003e 26       		.uleb128 0x26
 1457 003f 00       		.byte	0
 1458 0040 49       		.uleb128 0x49
 1459 0041 13       		.uleb128 0x13
 1460 0042 00       		.byte	0
 1461 0043 00       		.byte	0
 1462 0044 07       		.uleb128 0x7
 1463 0045 35       		.uleb128 0x35
 1464 0046 00       		.byte	0
 1465 0047 49       		.uleb128 0x49
 1466 0048 13       		.uleb128 0x13
 1467 0049 00       		.byte	0
 1468 004a 00       		.byte	0
 1469 004b 08       		.uleb128 0x8
 1470 004c 13       		.uleb128 0x13
 1471 004d 01       		.byte	0x1
 1472 004e 03       		.uleb128 0x3
 1473 004f 0E       		.uleb128 0xe
 1474 0050 0B       		.uleb128 0xb
 1475 0051 0B       		.uleb128 0xb
 1476 0052 3A       		.uleb128 0x3a
 1477 0053 0B       		.uleb128 0xb
 1478 0054 3B       		.uleb128 0x3b
 1479 0055 0B       		.uleb128 0xb
 1480 0056 01       		.uleb128 0x1
 1481 0057 13       		.uleb128 0x13
 1482 0058 00       		.byte	0
ARM GAS  /tmp/cccEivAy.s 			page 27


 1483 0059 00       		.byte	0
 1484 005a 09       		.uleb128 0x9
 1485 005b 17       		.uleb128 0x17
 1486 005c 01       		.byte	0x1
 1487 005d 0B       		.uleb128 0xb
 1488 005e 0B       		.uleb128 0xb
 1489 005f 3A       		.uleb128 0x3a
 1490 0060 0B       		.uleb128 0xb
 1491 0061 3B       		.uleb128 0x3b
 1492 0062 0B       		.uleb128 0xb
 1493 0063 01       		.uleb128 0x1
 1494 0064 13       		.uleb128 0x13
 1495 0065 00       		.byte	0
 1496 0066 00       		.byte	0
 1497 0067 0A       		.uleb128 0xa
 1498 0068 0D       		.uleb128 0xd
 1499 0069 00       		.byte	0
 1500 006a 03       		.uleb128 0x3
 1501 006b 0E       		.uleb128 0xe
 1502 006c 3A       		.uleb128 0x3a
 1503 006d 0B       		.uleb128 0xb
 1504 006e 3B       		.uleb128 0x3b
 1505 006f 0B       		.uleb128 0xb
 1506 0070 49       		.uleb128 0x49
 1507 0071 13       		.uleb128 0x13
 1508 0072 00       		.byte	0
 1509 0073 00       		.byte	0
 1510 0074 0B       		.uleb128 0xb
 1511 0075 0D       		.uleb128 0xd
 1512 0076 00       		.byte	0
 1513 0077 03       		.uleb128 0x3
 1514 0078 0E       		.uleb128 0xe
 1515 0079 3A       		.uleb128 0x3a
 1516 007a 0B       		.uleb128 0xb
 1517 007b 3B       		.uleb128 0x3b
 1518 007c 0B       		.uleb128 0xb
 1519 007d 49       		.uleb128 0x49
 1520 007e 13       		.uleb128 0x13
 1521 007f 38       		.uleb128 0x38
 1522 0080 0B       		.uleb128 0xb
 1523 0081 00       		.byte	0
 1524 0082 00       		.byte	0
 1525 0083 0C       		.uleb128 0xc
 1526 0084 0D       		.uleb128 0xd
 1527 0085 00       		.byte	0
 1528 0086 03       		.uleb128 0x3
 1529 0087 08       		.uleb128 0x8
 1530 0088 3A       		.uleb128 0x3a
 1531 0089 0B       		.uleb128 0xb
 1532 008a 3B       		.uleb128 0x3b
 1533 008b 0B       		.uleb128 0xb
 1534 008c 49       		.uleb128 0x49
 1535 008d 13       		.uleb128 0x13
 1536 008e 38       		.uleb128 0x38
 1537 008f 0B       		.uleb128 0xb
 1538 0090 00       		.byte	0
 1539 0091 00       		.byte	0
ARM GAS  /tmp/cccEivAy.s 			page 28


 1540 0092 0D       		.uleb128 0xd
 1541 0093 0D       		.uleb128 0xd
 1542 0094 00       		.byte	0
 1543 0095 03       		.uleb128 0x3
 1544 0096 08       		.uleb128 0x8
 1545 0097 3A       		.uleb128 0x3a
 1546 0098 0B       		.uleb128 0xb
 1547 0099 3B       		.uleb128 0x3b
 1548 009a 05       		.uleb128 0x5
 1549 009b 49       		.uleb128 0x49
 1550 009c 13       		.uleb128 0x13
 1551 009d 38       		.uleb128 0x38
 1552 009e 0B       		.uleb128 0xb
 1553 009f 00       		.byte	0
 1554 00a0 00       		.byte	0
 1555 00a1 0E       		.uleb128 0xe
 1556 00a2 0F       		.uleb128 0xf
 1557 00a3 00       		.byte	0
 1558 00a4 0B       		.uleb128 0xb
 1559 00a5 0B       		.uleb128 0xb
 1560 00a6 49       		.uleb128 0x49
 1561 00a7 13       		.uleb128 0x13
 1562 00a8 00       		.byte	0
 1563 00a9 00       		.byte	0
 1564 00aa 0F       		.uleb128 0xf
 1565 00ab 13       		.uleb128 0x13
 1566 00ac 01       		.byte	0x1
 1567 00ad 03       		.uleb128 0x3
 1568 00ae 0E       		.uleb128 0xe
 1569 00af 0B       		.uleb128 0xb
 1570 00b0 0B       		.uleb128 0xb
 1571 00b1 3A       		.uleb128 0x3a
 1572 00b2 0B       		.uleb128 0xb
 1573 00b3 3B       		.uleb128 0x3b
 1574 00b4 05       		.uleb128 0x5
 1575 00b5 01       		.uleb128 0x1
 1576 00b6 13       		.uleb128 0x13
 1577 00b7 00       		.byte	0
 1578 00b8 00       		.byte	0
 1579 00b9 10       		.uleb128 0x10
 1580 00ba 0D       		.uleb128 0xd
 1581 00bb 00       		.byte	0
 1582 00bc 03       		.uleb128 0x3
 1583 00bd 0E       		.uleb128 0xe
 1584 00be 3A       		.uleb128 0x3a
 1585 00bf 0B       		.uleb128 0xb
 1586 00c0 3B       		.uleb128 0x3b
 1587 00c1 05       		.uleb128 0x5
 1588 00c2 49       		.uleb128 0x49
 1589 00c3 13       		.uleb128 0x13
 1590 00c4 38       		.uleb128 0x38
 1591 00c5 0B       		.uleb128 0xb
 1592 00c6 00       		.byte	0
 1593 00c7 00       		.byte	0
 1594 00c8 11       		.uleb128 0x11
 1595 00c9 15       		.uleb128 0x15
 1596 00ca 01       		.byte	0x1
ARM GAS  /tmp/cccEivAy.s 			page 29


 1597 00cb 01       		.uleb128 0x1
 1598 00cc 13       		.uleb128 0x13
 1599 00cd 00       		.byte	0
 1600 00ce 00       		.byte	0
 1601 00cf 12       		.uleb128 0x12
 1602 00d0 05       		.uleb128 0x5
 1603 00d1 00       		.byte	0
 1604 00d2 49       		.uleb128 0x49
 1605 00d3 13       		.uleb128 0x13
 1606 00d4 00       		.byte	0
 1607 00d5 00       		.byte	0
 1608 00d6 13       		.uleb128 0x13
 1609 00d7 0F       		.uleb128 0xf
 1610 00d8 00       		.byte	0
 1611 00d9 0B       		.uleb128 0xb
 1612 00da 0B       		.uleb128 0xb
 1613 00db 00       		.byte	0
 1614 00dc 00       		.byte	0
 1615 00dd 14       		.uleb128 0x14
 1616 00de 34       		.uleb128 0x34
 1617 00df 00       		.byte	0
 1618 00e0 03       		.uleb128 0x3
 1619 00e1 0E       		.uleb128 0xe
 1620 00e2 3A       		.uleb128 0x3a
 1621 00e3 0B       		.uleb128 0xb
 1622 00e4 3B       		.uleb128 0x3b
 1623 00e5 05       		.uleb128 0x5
 1624 00e6 49       		.uleb128 0x49
 1625 00e7 13       		.uleb128 0x13
 1626 00e8 3F       		.uleb128 0x3f
 1627 00e9 19       		.uleb128 0x19
 1628 00ea 3C       		.uleb128 0x3c
 1629 00eb 19       		.uleb128 0x19
 1630 00ec 00       		.byte	0
 1631 00ed 00       		.byte	0
 1632 00ee 15       		.uleb128 0x15
 1633 00ef 34       		.uleb128 0x34
 1634 00f0 00       		.byte	0
 1635 00f1 03       		.uleb128 0x3
 1636 00f2 0E       		.uleb128 0xe
 1637 00f3 3A       		.uleb128 0x3a
 1638 00f4 0B       		.uleb128 0xb
 1639 00f5 3B       		.uleb128 0x3b
 1640 00f6 0B       		.uleb128 0xb
 1641 00f7 49       		.uleb128 0x49
 1642 00f8 13       		.uleb128 0x13
 1643 00f9 3F       		.uleb128 0x3f
 1644 00fa 19       		.uleb128 0x19
 1645 00fb 3C       		.uleb128 0x3c
 1646 00fc 19       		.uleb128 0x19
 1647 00fd 00       		.byte	0
 1648 00fe 00       		.byte	0
 1649 00ff 16       		.uleb128 0x16
 1650 0100 01       		.uleb128 0x1
 1651 0101 01       		.byte	0x1
 1652 0102 49       		.uleb128 0x49
 1653 0103 13       		.uleb128 0x13
ARM GAS  /tmp/cccEivAy.s 			page 30


 1654 0104 01       		.uleb128 0x1
 1655 0105 13       		.uleb128 0x13
 1656 0106 00       		.byte	0
 1657 0107 00       		.byte	0
 1658 0108 17       		.uleb128 0x17
 1659 0109 21       		.uleb128 0x21
 1660 010a 00       		.byte	0
 1661 010b 49       		.uleb128 0x49
 1662 010c 13       		.uleb128 0x13
 1663 010d 2F       		.uleb128 0x2f
 1664 010e 0B       		.uleb128 0xb
 1665 010f 00       		.byte	0
 1666 0110 00       		.byte	0
 1667 0111 18       		.uleb128 0x18
 1668 0112 34       		.uleb128 0x34
 1669 0113 00       		.byte	0
 1670 0114 03       		.uleb128 0x3
 1671 0115 08       		.uleb128 0x8
 1672 0116 3A       		.uleb128 0x3a
 1673 0117 0B       		.uleb128 0xb
 1674 0118 3B       		.uleb128 0x3b
 1675 0119 05       		.uleb128 0x5
 1676 011a 49       		.uleb128 0x49
 1677 011b 13       		.uleb128 0x13
 1678 011c 3F       		.uleb128 0x3f
 1679 011d 19       		.uleb128 0x19
 1680 011e 3C       		.uleb128 0x3c
 1681 011f 19       		.uleb128 0x19
 1682 0120 00       		.byte	0
 1683 0121 00       		.byte	0
 1684 0122 19       		.uleb128 0x19
 1685 0123 21       		.uleb128 0x21
 1686 0124 00       		.byte	0
 1687 0125 00       		.byte	0
 1688 0126 00       		.byte	0
 1689 0127 1A       		.uleb128 0x1a
 1690 0128 39       		.uleb128 0x39
 1691 0129 01       		.byte	0x1
 1692 012a 03       		.uleb128 0x3
 1693 012b 0E       		.uleb128 0xe
 1694 012c 3A       		.uleb128 0x3a
 1695 012d 0B       		.uleb128 0xb
 1696 012e 3B       		.uleb128 0x3b
 1697 012f 0B       		.uleb128 0xb
 1698 0130 01       		.uleb128 0x1
 1699 0131 13       		.uleb128 0x13
 1700 0132 00       		.byte	0
 1701 0133 00       		.byte	0
 1702 0134 1B       		.uleb128 0x1b
 1703 0135 02       		.uleb128 0x2
 1704 0136 01       		.byte	0x1
 1705 0137 03       		.uleb128 0x3
 1706 0138 0E       		.uleb128 0xe
 1707 0139 0B       		.uleb128 0xb
 1708 013a 0B       		.uleb128 0xb
 1709 013b 3A       		.uleb128 0x3a
 1710 013c 0B       		.uleb128 0xb
ARM GAS  /tmp/cccEivAy.s 			page 31


 1711 013d 3B       		.uleb128 0x3b
 1712 013e 0B       		.uleb128 0xb
 1713 013f 01       		.uleb128 0x1
 1714 0140 13       		.uleb128 0x13
 1715 0141 00       		.byte	0
 1716 0142 00       		.byte	0
 1717 0143 1C       		.uleb128 0x1c
 1718 0144 2E       		.uleb128 0x2e
 1719 0145 00       		.byte	0
 1720 0146 3F       		.uleb128 0x3f
 1721 0147 19       		.uleb128 0x19
 1722 0148 03       		.uleb128 0x3
 1723 0149 0E       		.uleb128 0xe
 1724 014a 3A       		.uleb128 0x3a
 1725 014b 0B       		.uleb128 0xb
 1726 014c 3B       		.uleb128 0x3b
 1727 014d 0B       		.uleb128 0xb
 1728 014e 6E       		.uleb128 0x6e
 1729 014f 0E       		.uleb128 0xe
 1730 0150 32       		.uleb128 0x32
 1731 0151 0B       		.uleb128 0xb
 1732 0152 3C       		.uleb128 0x3c
 1733 0153 19       		.uleb128 0x19
 1734 0154 00       		.byte	0
 1735 0155 00       		.byte	0
 1736 0156 1D       		.uleb128 0x1d
 1737 0157 2E       		.uleb128 0x2e
 1738 0158 01       		.byte	0x1
 1739 0159 3F       		.uleb128 0x3f
 1740 015a 19       		.uleb128 0x19
 1741 015b 03       		.uleb128 0x3
 1742 015c 0E       		.uleb128 0xe
 1743 015d 3A       		.uleb128 0x3a
 1744 015e 0B       		.uleb128 0xb
 1745 015f 3B       		.uleb128 0x3b
 1746 0160 0B       		.uleb128 0xb
 1747 0161 6E       		.uleb128 0x6e
 1748 0162 0E       		.uleb128 0xe
 1749 0163 32       		.uleb128 0x32
 1750 0164 0B       		.uleb128 0xb
 1751 0165 3C       		.uleb128 0x3c
 1752 0166 19       		.uleb128 0x19
 1753 0167 01       		.uleb128 0x1
 1754 0168 13       		.uleb128 0x13
 1755 0169 00       		.byte	0
 1756 016a 00       		.byte	0
 1757 016b 1E       		.uleb128 0x1e
 1758 016c 2E       		.uleb128 0x2e
 1759 016d 01       		.byte	0x1
 1760 016e 3F       		.uleb128 0x3f
 1761 016f 19       		.uleb128 0x19
 1762 0170 03       		.uleb128 0x3
 1763 0171 0E       		.uleb128 0xe
 1764 0172 3A       		.uleb128 0x3a
 1765 0173 0B       		.uleb128 0xb
 1766 0174 3B       		.uleb128 0x3b
 1767 0175 0B       		.uleb128 0xb
ARM GAS  /tmp/cccEivAy.s 			page 32


 1768 0176 6E       		.uleb128 0x6e
 1769 0177 0E       		.uleb128 0xe
 1770 0178 49       		.uleb128 0x49
 1771 0179 13       		.uleb128 0x13
 1772 017a 32       		.uleb128 0x32
 1773 017b 0B       		.uleb128 0xb
 1774 017c 3C       		.uleb128 0x3c
 1775 017d 19       		.uleb128 0x19
 1776 017e 01       		.uleb128 0x1
 1777 017f 13       		.uleb128 0x13
 1778 0180 00       		.byte	0
 1779 0181 00       		.byte	0
 1780 0182 1F       		.uleb128 0x1f
 1781 0183 2E       		.uleb128 0x2e
 1782 0184 00       		.byte	0
 1783 0185 3F       		.uleb128 0x3f
 1784 0186 19       		.uleb128 0x19
 1785 0187 03       		.uleb128 0x3
 1786 0188 0E       		.uleb128 0xe
 1787 0189 3A       		.uleb128 0x3a
 1788 018a 0B       		.uleb128 0xb
 1789 018b 3B       		.uleb128 0x3b
 1790 018c 0B       		.uleb128 0xb
 1791 018d 6E       		.uleb128 0x6e
 1792 018e 0E       		.uleb128 0xe
 1793 018f 49       		.uleb128 0x49
 1794 0190 13       		.uleb128 0x13
 1795 0191 32       		.uleb128 0x32
 1796 0192 0B       		.uleb128 0xb
 1797 0193 3C       		.uleb128 0x3c
 1798 0194 19       		.uleb128 0x19
 1799 0195 00       		.byte	0
 1800 0196 00       		.byte	0
 1801 0197 20       		.uleb128 0x20
 1802 0198 2E       		.uleb128 0x2e
 1803 0199 01       		.byte	0x1
 1804 019a 3F       		.uleb128 0x3f
 1805 019b 19       		.uleb128 0x19
 1806 019c 03       		.uleb128 0x3
 1807 019d 0E       		.uleb128 0xe
 1808 019e 3A       		.uleb128 0x3a
 1809 019f 0B       		.uleb128 0xb
 1810 01a0 3B       		.uleb128 0x3b
 1811 01a1 05       		.uleb128 0x5
 1812 01a2 6E       		.uleb128 0x6e
 1813 01a3 0E       		.uleb128 0xe
 1814 01a4 32       		.uleb128 0x32
 1815 01a5 0B       		.uleb128 0xb
 1816 01a6 3C       		.uleb128 0x3c
 1817 01a7 19       		.uleb128 0x19
 1818 01a8 01       		.uleb128 0x1
 1819 01a9 13       		.uleb128 0x13
 1820 01aa 00       		.byte	0
 1821 01ab 00       		.byte	0
 1822 01ac 21       		.uleb128 0x21
 1823 01ad 2E       		.uleb128 0x2e
 1824 01ae 00       		.byte	0
ARM GAS  /tmp/cccEivAy.s 			page 33


 1825 01af 3F       		.uleb128 0x3f
 1826 01b0 19       		.uleb128 0x19
 1827 01b1 03       		.uleb128 0x3
 1828 01b2 0E       		.uleb128 0xe
 1829 01b3 3A       		.uleb128 0x3a
 1830 01b4 0B       		.uleb128 0xb
 1831 01b5 3B       		.uleb128 0x3b
 1832 01b6 05       		.uleb128 0x5
 1833 01b7 6E       		.uleb128 0x6e
 1834 01b8 0E       		.uleb128 0xe
 1835 01b9 49       		.uleb128 0x49
 1836 01ba 13       		.uleb128 0x13
 1837 01bb 32       		.uleb128 0x32
 1838 01bc 0B       		.uleb128 0xb
 1839 01bd 3C       		.uleb128 0x3c
 1840 01be 19       		.uleb128 0x19
 1841 01bf 00       		.byte	0
 1842 01c0 00       		.byte	0
 1843 01c1 22       		.uleb128 0x22
 1844 01c2 2E       		.uleb128 0x2e
 1845 01c3 01       		.byte	0x1
 1846 01c4 3F       		.uleb128 0x3f
 1847 01c5 19       		.uleb128 0x19
 1848 01c6 03       		.uleb128 0x3
 1849 01c7 0E       		.uleb128 0xe
 1850 01c8 3A       		.uleb128 0x3a
 1851 01c9 0B       		.uleb128 0xb
 1852 01ca 3B       		.uleb128 0x3b
 1853 01cb 05       		.uleb128 0x5
 1854 01cc 6E       		.uleb128 0x6e
 1855 01cd 0E       		.uleb128 0xe
 1856 01ce 49       		.uleb128 0x49
 1857 01cf 13       		.uleb128 0x13
 1858 01d0 32       		.uleb128 0x32
 1859 01d1 0B       		.uleb128 0xb
 1860 01d2 3C       		.uleb128 0x3c
 1861 01d3 19       		.uleb128 0x19
 1862 01d4 01       		.uleb128 0x1
 1863 01d5 13       		.uleb128 0x13
 1864 01d6 00       		.byte	0
 1865 01d7 00       		.byte	0
 1866 01d8 23       		.uleb128 0x23
 1867 01d9 02       		.uleb128 0x2
 1868 01da 01       		.byte	0x1
 1869 01db 03       		.uleb128 0x3
 1870 01dc 0E       		.uleb128 0xe
 1871 01dd 0B       		.uleb128 0xb
 1872 01de 0B       		.uleb128 0xb
 1873 01df 3A       		.uleb128 0x3a
 1874 01e0 0B       		.uleb128 0xb
 1875 01e1 3B       		.uleb128 0x3b
 1876 01e2 05       		.uleb128 0x5
 1877 01e3 01       		.uleb128 0x1
 1878 01e4 13       		.uleb128 0x13
 1879 01e5 00       		.byte	0
 1880 01e6 00       		.byte	0
 1881 01e7 24       		.uleb128 0x24
ARM GAS  /tmp/cccEivAy.s 			page 34


 1882 01e8 2E       		.uleb128 0x2e
 1883 01e9 01       		.byte	0x1
 1884 01ea 3F       		.uleb128 0x3f
 1885 01eb 19       		.uleb128 0x19
 1886 01ec 03       		.uleb128 0x3
 1887 01ed 0E       		.uleb128 0xe
 1888 01ee 3A       		.uleb128 0x3a
 1889 01ef 0B       		.uleb128 0xb
 1890 01f0 3B       		.uleb128 0x3b
 1891 01f1 05       		.uleb128 0x5
 1892 01f2 6E       		.uleb128 0x6e
 1893 01f3 0E       		.uleb128 0xe
 1894 01f4 49       		.uleb128 0x49
 1895 01f5 13       		.uleb128 0x13
 1896 01f6 32       		.uleb128 0x32
 1897 01f7 0B       		.uleb128 0xb
 1898 01f8 3C       		.uleb128 0x3c
 1899 01f9 19       		.uleb128 0x19
 1900 01fa 64       		.uleb128 0x64
 1901 01fb 13       		.uleb128 0x13
 1902 01fc 01       		.uleb128 0x1
 1903 01fd 13       		.uleb128 0x13
 1904 01fe 00       		.byte	0
 1905 01ff 00       		.byte	0
 1906 0200 25       		.uleb128 0x25
 1907 0201 05       		.uleb128 0x5
 1908 0202 00       		.byte	0
 1909 0203 49       		.uleb128 0x49
 1910 0204 13       		.uleb128 0x13
 1911 0205 34       		.uleb128 0x34
 1912 0206 19       		.uleb128 0x19
 1913 0207 00       		.byte	0
 1914 0208 00       		.byte	0
 1915 0209 26       		.uleb128 0x26
 1916 020a 2E       		.uleb128 0x2e
 1917 020b 01       		.byte	0x1
 1918 020c 3F       		.uleb128 0x3f
 1919 020d 19       		.uleb128 0x19
 1920 020e 03       		.uleb128 0x3
 1921 020f 0E       		.uleb128 0xe
 1922 0210 3A       		.uleb128 0x3a
 1923 0211 0B       		.uleb128 0xb
 1924 0212 3B       		.uleb128 0x3b
 1925 0213 05       		.uleb128 0x5
 1926 0214 6E       		.uleb128 0x6e
 1927 0215 0E       		.uleb128 0xe
 1928 0216 32       		.uleb128 0x32
 1929 0217 0B       		.uleb128 0xb
 1930 0218 3C       		.uleb128 0x3c
 1931 0219 19       		.uleb128 0x19
 1932 021a 64       		.uleb128 0x64
 1933 021b 13       		.uleb128 0x13
 1934 021c 00       		.byte	0
 1935 021d 00       		.byte	0
 1936 021e 27       		.uleb128 0x27
 1937 021f 02       		.uleb128 0x2
 1938 0220 01       		.byte	0x1
ARM GAS  /tmp/cccEivAy.s 			page 35


 1939 0221 03       		.uleb128 0x3
 1940 0222 0E       		.uleb128 0xe
 1941 0223 0B       		.uleb128 0xb
 1942 0224 0B       		.uleb128 0xb
 1943 0225 3A       		.uleb128 0x3a
 1944 0226 0B       		.uleb128 0xb
 1945 0227 3B       		.uleb128 0x3b
 1946 0228 05       		.uleb128 0x5
 1947 0229 1D       		.uleb128 0x1d
 1948 022a 13       		.uleb128 0x13
 1949 022b 01       		.uleb128 0x1
 1950 022c 13       		.uleb128 0x13
 1951 022d 00       		.byte	0
 1952 022e 00       		.byte	0
 1953 022f 28       		.uleb128 0x28
 1954 0230 0D       		.uleb128 0xd
 1955 0231 00       		.byte	0
 1956 0232 03       		.uleb128 0x3
 1957 0233 0E       		.uleb128 0xe
 1958 0234 49       		.uleb128 0x49
 1959 0235 13       		.uleb128 0x13
 1960 0236 38       		.uleb128 0x38
 1961 0237 0B       		.uleb128 0xb
 1962 0238 34       		.uleb128 0x34
 1963 0239 19       		.uleb128 0x19
 1964 023a 32       		.uleb128 0x32
 1965 023b 0B       		.uleb128 0xb
 1966 023c 00       		.byte	0
 1967 023d 00       		.byte	0
 1968 023e 29       		.uleb128 0x29
 1969 023f 2E       		.uleb128 0x2e
 1970 0240 01       		.byte	0x1
 1971 0241 3F       		.uleb128 0x3f
 1972 0242 19       		.uleb128 0x19
 1973 0243 03       		.uleb128 0x3
 1974 0244 0E       		.uleb128 0xe
 1975 0245 3A       		.uleb128 0x3a
 1976 0246 0B       		.uleb128 0xb
 1977 0247 3B       		.uleb128 0x3b
 1978 0248 05       		.uleb128 0x5
 1979 0249 6E       		.uleb128 0x6e
 1980 024a 0E       		.uleb128 0xe
 1981 024b 4C       		.uleb128 0x4c
 1982 024c 0B       		.uleb128 0xb
 1983 024d 4D       		.uleb128 0x4d
 1984 024e 18       		.uleb128 0x18
 1985 024f 1D       		.uleb128 0x1d
 1986 0250 13       		.uleb128 0x13
 1987 0251 32       		.uleb128 0x32
 1988 0252 0B       		.uleb128 0xb
 1989 0253 3C       		.uleb128 0x3c
 1990 0254 19       		.uleb128 0x19
 1991 0255 64       		.uleb128 0x64
 1992 0256 13       		.uleb128 0x13
 1993 0257 01       		.uleb128 0x1
 1994 0258 13       		.uleb128 0x13
 1995 0259 00       		.byte	0
ARM GAS  /tmp/cccEivAy.s 			page 36


 1996 025a 00       		.byte	0
 1997 025b 2A       		.uleb128 0x2a
 1998 025c 2E       		.uleb128 0x2e
 1999 025d 01       		.byte	0x1
 2000 025e 3F       		.uleb128 0x3f
 2001 025f 19       		.uleb128 0x19
 2002 0260 03       		.uleb128 0x3
 2003 0261 0E       		.uleb128 0xe
 2004 0262 3A       		.uleb128 0x3a
 2005 0263 0B       		.uleb128 0xb
 2006 0264 3B       		.uleb128 0x3b
 2007 0265 05       		.uleb128 0x5
 2008 0266 6E       		.uleb128 0x6e
 2009 0267 0E       		.uleb128 0xe
 2010 0268 49       		.uleb128 0x49
 2011 0269 13       		.uleb128 0x13
 2012 026a 4C       		.uleb128 0x4c
 2013 026b 0B       		.uleb128 0xb
 2014 026c 4D       		.uleb128 0x4d
 2015 026d 18       		.uleb128 0x18
 2016 026e 1D       		.uleb128 0x1d
 2017 026f 13       		.uleb128 0x13
 2018 0270 32       		.uleb128 0x32
 2019 0271 0B       		.uleb128 0xb
 2020 0272 3C       		.uleb128 0x3c
 2021 0273 19       		.uleb128 0x19
 2022 0274 64       		.uleb128 0x64
 2023 0275 13       		.uleb128 0x13
 2024 0276 01       		.uleb128 0x1
 2025 0277 13       		.uleb128 0x13
 2026 0278 00       		.byte	0
 2027 0279 00       		.byte	0
 2028 027a 2B       		.uleb128 0x2b
 2029 027b 2E       		.uleb128 0x2e
 2030 027c 00       		.byte	0
 2031 027d 3F       		.uleb128 0x3f
 2032 027e 19       		.uleb128 0x19
 2033 027f 03       		.uleb128 0x3
 2034 0280 0E       		.uleb128 0xe
 2035 0281 3A       		.uleb128 0x3a
 2036 0282 0B       		.uleb128 0xb
 2037 0283 3B       		.uleb128 0x3b
 2038 0284 05       		.uleb128 0x5
 2039 0285 6E       		.uleb128 0x6e
 2040 0286 0E       		.uleb128 0xe
 2041 0287 32       		.uleb128 0x32
 2042 0288 0B       		.uleb128 0xb
 2043 0289 3C       		.uleb128 0x3c
 2044 028a 19       		.uleb128 0x19
 2045 028b 00       		.byte	0
 2046 028c 00       		.byte	0
 2047 028d 2C       		.uleb128 0x2c
 2048 028e 2E       		.uleb128 0x2e
 2049 028f 01       		.byte	0x1
 2050 0290 3F       		.uleb128 0x3f
 2051 0291 19       		.uleb128 0x19
 2052 0292 03       		.uleb128 0x3
ARM GAS  /tmp/cccEivAy.s 			page 37


 2053 0293 0E       		.uleb128 0xe
 2054 0294 3A       		.uleb128 0x3a
 2055 0295 0B       		.uleb128 0xb
 2056 0296 3B       		.uleb128 0x3b
 2057 0297 0B       		.uleb128 0xb
 2058 0298 6E       		.uleb128 0x6e
 2059 0299 0E       		.uleb128 0xe
 2060 029a 3C       		.uleb128 0x3c
 2061 029b 19       		.uleb128 0x19
 2062 029c 00       		.byte	0
 2063 029d 00       		.byte	0
 2064 029e 2D       		.uleb128 0x2d
 2065 029f 15       		.uleb128 0x15
 2066 02a0 01       		.byte	0x1
 2067 02a1 49       		.uleb128 0x49
 2068 02a2 13       		.uleb128 0x13
 2069 02a3 01       		.uleb128 0x1
 2070 02a4 13       		.uleb128 0x13
 2071 02a5 00       		.byte	0
 2072 02a6 00       		.byte	0
 2073 02a7 2E       		.uleb128 0x2e
 2074 02a8 18       		.uleb128 0x18
 2075 02a9 00       		.byte	0
 2076 02aa 00       		.byte	0
 2077 02ab 00       		.byte	0
 2078 02ac 2F       		.uleb128 0x2f
 2079 02ad 0F       		.uleb128 0xf
 2080 02ae 00       		.byte	0
 2081 02af 0B       		.uleb128 0xb
 2082 02b0 0B       		.uleb128 0xb
 2083 02b1 03       		.uleb128 0x3
 2084 02b2 0E       		.uleb128 0xe
 2085 02b3 49       		.uleb128 0x49
 2086 02b4 13       		.uleb128 0x13
 2087 02b5 00       		.byte	0
 2088 02b6 00       		.byte	0
 2089 02b7 30       		.uleb128 0x30
 2090 02b8 2E       		.uleb128 0x2e
 2091 02b9 01       		.byte	0x1
 2092 02ba 47       		.uleb128 0x47
 2093 02bb 13       		.uleb128 0x13
 2094 02bc 11       		.uleb128 0x11
 2095 02bd 01       		.uleb128 0x1
 2096 02be 12       		.uleb128 0x12
 2097 02bf 06       		.uleb128 0x6
 2098 02c0 40       		.uleb128 0x40
 2099 02c1 18       		.uleb128 0x18
 2100 02c2 9642     		.uleb128 0x2116
 2101 02c4 19       		.uleb128 0x19
 2102 02c5 01       		.uleb128 0x1
 2103 02c6 13       		.uleb128 0x13
 2104 02c7 00       		.byte	0
 2105 02c8 00       		.byte	0
 2106 02c9 31       		.uleb128 0x31
 2107 02ca 05       		.uleb128 0x5
 2108 02cb 00       		.byte	0
 2109 02cc 03       		.uleb128 0x3
ARM GAS  /tmp/cccEivAy.s 			page 38


 2110 02cd 08       		.uleb128 0x8
 2111 02ce 3A       		.uleb128 0x3a
 2112 02cf 0B       		.uleb128 0xb
 2113 02d0 3B       		.uleb128 0x3b
 2114 02d1 0B       		.uleb128 0xb
 2115 02d2 49       		.uleb128 0x49
 2116 02d3 13       		.uleb128 0x13
 2117 02d4 02       		.uleb128 0x2
 2118 02d5 18       		.uleb128 0x18
 2119 02d6 00       		.byte	0
 2120 02d7 00       		.byte	0
 2121 02d8 32       		.uleb128 0x32
 2122 02d9 2E       		.uleb128 0x2e
 2123 02da 00       		.byte	0
 2124 02db 47       		.uleb128 0x47
 2125 02dc 13       		.uleb128 0x13
 2126 02dd 3A       		.uleb128 0x3a
 2127 02de 0B       		.uleb128 0xb
 2128 02df 3B       		.uleb128 0x3b
 2129 02e0 0B       		.uleb128 0xb
 2130 02e1 11       		.uleb128 0x11
 2131 02e2 01       		.uleb128 0x1
 2132 02e3 12       		.uleb128 0x12
 2133 02e4 06       		.uleb128 0x6
 2134 02e5 40       		.uleb128 0x40
 2135 02e6 18       		.uleb128 0x18
 2136 02e7 9642     		.uleb128 0x2116
 2137 02e9 19       		.uleb128 0x19
 2138 02ea 00       		.byte	0
 2139 02eb 00       		.byte	0
 2140 02ec 33       		.uleb128 0x33
 2141 02ed 2E       		.uleb128 0x2e
 2142 02ee 01       		.byte	0x1
 2143 02ef 47       		.uleb128 0x47
 2144 02f0 13       		.uleb128 0x13
 2145 02f1 20       		.uleb128 0x20
 2146 02f2 0B       		.uleb128 0xb
 2147 02f3 64       		.uleb128 0x64
 2148 02f4 13       		.uleb128 0x13
 2149 02f5 01       		.uleb128 0x1
 2150 02f6 13       		.uleb128 0x13
 2151 02f7 00       		.byte	0
 2152 02f8 00       		.byte	0
 2153 02f9 34       		.uleb128 0x34
 2154 02fa 05       		.uleb128 0x5
 2155 02fb 00       		.byte	0
 2156 02fc 03       		.uleb128 0x3
 2157 02fd 0E       		.uleb128 0xe
 2158 02fe 49       		.uleb128 0x49
 2159 02ff 13       		.uleb128 0x13
 2160 0300 34       		.uleb128 0x34
 2161 0301 19       		.uleb128 0x19
 2162 0302 00       		.byte	0
 2163 0303 00       		.byte	0
 2164 0304 35       		.uleb128 0x35
 2165 0305 05       		.uleb128 0x5
 2166 0306 00       		.byte	0
ARM GAS  /tmp/cccEivAy.s 			page 39


 2167 0307 03       		.uleb128 0x3
 2168 0308 08       		.uleb128 0x8
 2169 0309 3A       		.uleb128 0x3a
 2170 030a 0B       		.uleb128 0xb
 2171 030b 3B       		.uleb128 0x3b
 2172 030c 05       		.uleb128 0x5
 2173 030d 49       		.uleb128 0x49
 2174 030e 13       		.uleb128 0x13
 2175 030f 00       		.byte	0
 2176 0310 00       		.byte	0
 2177 0311 36       		.uleb128 0x36
 2178 0312 2E       		.uleb128 0x2e
 2179 0313 01       		.byte	0x1
 2180 0314 31       		.uleb128 0x31
 2181 0315 13       		.uleb128 0x13
 2182 0316 6E       		.uleb128 0x6e
 2183 0317 0E       		.uleb128 0xe
 2184 0318 64       		.uleb128 0x64
 2185 0319 13       		.uleb128 0x13
 2186 031a 11       		.uleb128 0x11
 2187 031b 01       		.uleb128 0x1
 2188 031c 12       		.uleb128 0x12
 2189 031d 06       		.uleb128 0x6
 2190 031e 40       		.uleb128 0x40
 2191 031f 18       		.uleb128 0x18
 2192 0320 64       		.uleb128 0x64
 2193 0321 13       		.uleb128 0x13
 2194 0322 9742     		.uleb128 0x2117
 2195 0324 19       		.uleb128 0x19
 2196 0325 01       		.uleb128 0x1
 2197 0326 13       		.uleb128 0x13
 2198 0327 00       		.byte	0
 2199 0328 00       		.byte	0
 2200 0329 37       		.uleb128 0x37
 2201 032a 05       		.uleb128 0x5
 2202 032b 00       		.byte	0
 2203 032c 31       		.uleb128 0x31
 2204 032d 13       		.uleb128 0x13
 2205 032e 02       		.uleb128 0x2
 2206 032f 18       		.uleb128 0x18
 2207 0330 00       		.byte	0
 2208 0331 00       		.byte	0
 2209 0332 38       		.uleb128 0x38
 2210 0333 2E       		.uleb128 0x2e
 2211 0334 00       		.byte	0
 2212 0335 03       		.uleb128 0x3
 2213 0336 0E       		.uleb128 0xe
 2214 0337 3A       		.uleb128 0x3a
 2215 0338 0B       		.uleb128 0xb
 2216 0339 3B       		.uleb128 0x3b
 2217 033a 05       		.uleb128 0x5
 2218 033b 49       		.uleb128 0x49
 2219 033c 13       		.uleb128 0x13
 2220 033d 11       		.uleb128 0x11
 2221 033e 01       		.uleb128 0x1
 2222 033f 12       		.uleb128 0x12
 2223 0340 06       		.uleb128 0x6
ARM GAS  /tmp/cccEivAy.s 			page 40


 2224 0341 40       		.uleb128 0x40
 2225 0342 18       		.uleb128 0x18
 2226 0343 9742     		.uleb128 0x2117
 2227 0345 19       		.uleb128 0x19
 2228 0346 00       		.byte	0
 2229 0347 00       		.byte	0
 2230 0348 00       		.byte	0
 2231              		.section	.debug_aranges,"",%progbits
 2232 0000 34000000 		.4byte	0x34
 2233 0004 0200     		.2byte	0x2
 2234 0006 00000000 		.4byte	.Ldebug_info0
 2235 000a 04       		.byte	0x4
 2236 000b 00       		.byte	0
 2237 000c 0000     		.2byte	0
 2238 000e 0000     		.2byte	0
 2239 0010 00000000 		.4byte	.LFB190
 2240 0014 0C000000 		.4byte	.LFE190-.LFB190
 2241 0018 00000000 		.4byte	.LFB253
 2242 001c 14000000 		.4byte	.LFE253-.LFB253
 2243 0020 00000000 		.4byte	.LFB289
 2244 0024 1E000000 		.4byte	.LFE289-.LFB289
 2245 0028 00000000 		.4byte	.LFB290
 2246 002c 18000000 		.4byte	.LFE290-.LFB290
 2247 0030 00000000 		.4byte	0
 2248 0034 00000000 		.4byte	0
 2249              		.section	.debug_ranges,"",%progbits
 2250              	.Ldebug_ranges0:
 2251 0000 00000000 		.4byte	.LFB190
 2252 0004 0C000000 		.4byte	.LFE190
 2253 0008 00000000 		.4byte	.LFB253
 2254 000c 14000000 		.4byte	.LFE253
 2255 0010 00000000 		.4byte	.LFB289
 2256 0014 1E000000 		.4byte	.LFE289
 2257 0018 00000000 		.4byte	.LFB290
 2258 001c 18000000 		.4byte	.LFE290
 2259 0020 00000000 		.4byte	0
 2260 0024 00000000 		.4byte	0
 2261              		.section	.debug_line,"",%progbits
 2262              	.Ldebug_line0:
 2263 0000 C8020000 		.section	.debug_str,"MS",%progbits,1
 2263      02007602 
 2263      00000201 
 2263      FB0E0D00 
 2263      01010101 
 2264              	.LASF110:
 2265 0000 53797374 		.ascii	"System\000"
 2265      656D00
 2266              	.LASF38:
 2267 0007 70726576 		.ascii	"prev\000"
 2267      00
 2268              	.LASF119:
 2269 000c 72657175 		.ascii	"requestTerminate\000"
 2269      65737454 
 2269      65726D69 
 2269      6E617465 
 2269      00
 2270              	.LASF39:
ARM GAS  /tmp/cccEivAy.s 			page 41


 2271 001d 72656164 		.ascii	"ready_list_t\000"
 2271      795F6C69 
 2271      73745F74 
 2271      00
 2272              	.LASF163:
 2273 002a 5F5A4E31 		.ascii	"_ZN10chibios_rt15ThreadReferenceC2EP9ch_thread\000"
 2273      30636869 
 2273      62696F73 
 2273      5F727431 
 2273      35546872 
 2274              	.LASF150:
 2275 0059 63686962 		.ascii	"chibios_rt\000"
 2275      696F735F 
 2275      727400
 2276              	.LASF45:
 2277 0064 64656C74 		.ascii	"delta\000"
 2277      6100
 2278              	.LASF25:
 2279 006a 7264796D 		.ascii	"rdymsg\000"
 2279      736700
 2280              	.LASF17:
 2281 0071 75696E74 		.ascii	"uint64_t\000"
 2281      36345F74 
 2281      00
 2282              	.LASF131:
 2283 007a 5F5A4E31 		.ascii	"_ZN10chibios_rt10BaseThread12getPriorityXEv\000"
 2283      30636869 
 2283      62696F73 
 2283      5F727431 
 2283      30426173 
 2284              	.LASF135:
 2285 00a6 5F5A4E31 		.ascii	"_ZN10chibios_rt10BaseThread5exitSEl\000"
 2285      30636869 
 2285      62696F73 
 2285      5F727431 
 2285      30426173 
 2286              	.LASF7:
 2287 00ca 5F5F7569 		.ascii	"__uint8_t\000"
 2287      6E74385F 
 2287      7400
 2288              	.LASF138:
 2289 00d4 736C6565 		.ascii	"sleep\000"
 2289      7000
 2290              	.LASF133:
 2291 00da 5F5A4E31 		.ascii	"_ZN10chibios_rt10BaseThread4exitEl\000"
 2291      30636869 
 2291      62696F73 
 2291      5F727431 
 2291      30426173 
 2292              	.LASF68:
 2293 00fd 706F7274 		.ascii	"port_intctx\000"
 2293      5F696E74 
 2293      63747800 
 2294              	.LASF50:
 2295 0109 73797374 		.ascii	"system_debug_t\000"
 2295      656D5F64 
 2295      65627567 
ARM GAS  /tmp/cccEivAy.s 			page 42


 2295      5F7400
 2296              	.LASF64:
 2297 0118 41504250 		.ascii	"APBPrescTable\000"
 2297      72657363 
 2297      5461626C 
 2297      6500
 2298              	.LASF71:
 2299 0126 696E6974 		.ascii	"init\000"
 2299      00
 2300              	.LASF67:
 2301 012b 706F7274 		.ascii	"port_context\000"
 2301      5F636F6E 
 2301      74657874 
 2301      00
 2302              	.LASF13:
 2303 0138 6C6F6E67 		.ascii	"long long unsigned int\000"
 2303      206C6F6E 
 2303      6720756E 
 2303      7369676E 
 2303      65642069 
 2304              	.LASF26:
 2305 014f 65786974 		.ascii	"exitcode\000"
 2305      636F6465 
 2305      00
 2306              	.LASF57:
 2307 0158 6D61696E 		.ascii	"mainthread\000"
 2307      74687265 
 2307      616400
 2308              	.LASF47:
 2309 0163 76697274 		.ascii	"virtual_timers_list_t\000"
 2309      75616C5F 
 2309      74696D65 
 2309      72735F6C 
 2309      6973745F 
 2310              	.LASF61:
 2311 0179 49544D5F 		.ascii	"ITM_RxBuffer\000"
 2311      52784275 
 2311      66666572 
 2311      00
 2312              	.LASF59:
 2313 0186 73797369 		.ascii	"sysinterval_t\000"
 2313      6E746572 
 2313      76616C5F 
 2313      7400
 2314              	.LASF37:
 2315 0194 6E657874 		.ascii	"next\000"
 2315      00
 2316              	.LASF36:
 2317 0199 63685F74 		.ascii	"ch_threads_queue\000"
 2317      68726561 
 2317      64735F71 
 2317      75657565 
 2317      00
 2318              	.LASF85:
 2319 01aa 756E6C6F 		.ascii	"unlockFromIsr\000"
 2319      636B4672 
 2319      6F6D4973 
ARM GAS  /tmp/cccEivAy.s 			page 43


 2319      7200
 2320              	.LASF146:
 2321 01b8 474E5520 		.ascii	"GNU C++11 6.3.1 20170620 (release) [ARM/embedded-6-"
 2321      432B2B31 
 2321      3120362E 
 2321      332E3120 
 2321      32303137 
 2322 01eb 6272616E 		.ascii	"branch revision 249437] -mcpu=cortex-m4 -mfloat-abi"
 2322      63682072 
 2322      65766973 
 2322      696F6E20 
 2322      32343934 
 2323 021e 3D686172 		.ascii	"=hard -mfpu=fpv4-sp-d16 -mno-thumb-interwork -mthum"
 2323      64202D6D 
 2323      6670753D 
 2323      66707634 
 2323      2D73702D 
 2324 0251 62202D67 		.ascii	"b -g -std=gnu++11 -fomit-frame-pointer -falign-func"
 2324      202D7374 
 2324      643D676E 
 2324      752B2B31 
 2324      31202D66 
 2325 0284 74696F6E 		.ascii	"tions=16 -ffunction-sections -fdata-sections -fno-c"
 2325      733D3136 
 2325      202D6666 
 2325      756E6374 
 2325      696F6E2D 
 2326 02b7 6F6D6D6F 		.ascii	"ommon -fsingle-precision-constant -fno-rtti\000"
 2326      6E202D66 
 2326      73696E67 
 2326      6C652D70 
 2326      72656369 
 2327              	.LASF109:
 2328 02e3 5F5A4E31 		.ascii	"_ZN10chibios_rt6System14getIdleThreadXEv\000"
 2328      30636869 
 2328      62696F73 
 2328      5F727436 
 2328      53797374 
 2329              	.LASF101:
 2330 030c 5F5A4E31 		.ascii	"_ZN10chibios_rt6System19getRealtimeCounterXEv\000"
 2330      30636869 
 2330      62696F73 
 2330      5F727436 
 2330      53797374 
 2331              	.LASF3:
 2332 033a 7369676E 		.ascii	"signed char\000"
 2332      65642063 
 2332      68617200 
 2333              	.LASF107:
 2334 0346 5F5A4E31 		.ascii	"_ZN10chibios_rt6System18isSystemTimeWithinEmm\000"
 2334      30636869 
 2334      62696F73 
 2334      5F727436 
 2334      53797374 
 2335              	.LASF90:
 2336 0374 5F5A4E31 		.ascii	"_ZN10chibios_rt6System19unconditionalUnlockEv\000"
 2336      30636869 
ARM GAS  /tmp/cccEivAy.s 			page 44


 2336      62696F73 
 2336      5F727436 
 2336      53797374 
 2337              	.LASF11:
 2338 03a2 6C6F6E67 		.ascii	"long unsigned int\000"
 2338      20756E73 
 2338      69676E65 
 2338      6420696E 
 2338      7400
 2339              	.LASF134:
 2340 03b4 65786974 		.ascii	"exitS\000"
 2340      5300
 2341              	.LASF98:
 2342 03ba 5F5A4E31 		.ascii	"_ZN10chibios_rt6System14restoreStatusXEm\000"
 2342      30636869 
 2342      62696F73 
 2342      5F727436 
 2342      53797374 
 2343              	.LASF105:
 2344 03e3 69735379 		.ascii	"isSystemTimeWithin\000"
 2344      7374656D 
 2344      54696D65 
 2344      57697468 
 2344      696E00
 2345              	.LASF56:
 2346 03f6 76746C69 		.ascii	"vtlist\000"
 2346      737400
 2347              	.LASF141:
 2348 03fd 5F5A4E31 		.ascii	"_ZN10chibios_rt10BaseThread10sleepUntilEm\000"
 2348      30636869 
 2348      62696F73 
 2348      5F727431 
 2348      30426173 
 2349              	.LASF97:
 2350 0427 706F6C6C 		.ascii	"polledDelayX\000"
 2350      65644465 
 2350      6C617958 
 2350      00
 2351              	.LASF31:
 2352 0434 73746174 		.ascii	"state\000"
 2352      6500
 2353              	.LASF9:
 2354 043a 6C6F6E67 		.ascii	"long int\000"
 2354      20696E74 
 2354      00
 2355              	.LASF120:
 2356 0443 5F5A4E4B 		.ascii	"_ZNK10chibios_rt15ThreadReference16requestTerminate"
 2356      31306368 
 2356      6962696F 
 2356      735F7274 
 2356      31355468 
 2357 0476 457600   		.ascii	"Ev\000"
 2358              	.LASF21:
 2359 0479 74737461 		.ascii	"tstate_t\000"
 2359      74655F74 
 2359      00
 2360              	.LASF95:
ARM GAS  /tmp/cccEivAy.s 			page 45


 2361 0482 696E7465 		.ascii	"integrityCheckI\000"
 2361      67726974 
 2361      79436865 
 2361      636B4900 
 2362              	.LASF123:
 2363 0492 5F5A4E31 		.ascii	"_ZN10chibios_rt10BaseThreadC4Ev\000"
 2363      30636869 
 2363      62696F73 
 2363      5F727431 
 2363      30426173 
 2364              	.LASF106:
 2365 04b2 5F5A4E31 		.ascii	"_ZN10chibios_rt6System16isCounterWithinXEmmm\000"
 2365      30636869 
 2365      62696F73 
 2365      5F727436 
 2365      53797374 
 2366              	.LASF162:
 2367 04df 74686973 		.ascii	"this\000"
 2367      00
 2368              	.LASF91:
 2369 04e4 68616C74 		.ascii	"halt\000"
 2369      00
 2370              	.LASF102:
 2371 04e9 5F5A4E31 		.ascii	"_ZN10chibios_rt6System7getTimeEv\000"
 2371      30636869 
 2371      62696F73 
 2371      5F727436 
 2371      53797374 
 2372              	.LASF108:
 2373 050a 67657449 		.ascii	"getIdleThreadX\000"
 2373      646C6554 
 2373      68726561 
 2373      645800
 2374              	.LASF10:
 2375 0519 5F5F7569 		.ascii	"__uint32_t\000"
 2375      6E743332 
 2375      5F7400
 2376              	.LASF155:
 2377 0524 5F5A4E31 		.ascii	"_ZN10chibios_rt10BaseThread4mainEv\000"
 2377      30636869 
 2377      62696F73 
 2377      5F727431 
 2377      30426173 
 2378              	.LASF65:
 2379 0547 72656761 		.ascii	"regarm_t\000"
 2379      726D5F74 
 2379      00
 2380              	.LASF72:
 2381 0550 64697361 		.ascii	"disable\000"
 2381      626C6500 
 2382              	.LASF116:
 2383 0558 5F5A4E4B 		.ascii	"_ZNK10chibios_rt15ThreadReference6isNullEv\000"
 2383      31306368 
 2383      6962696F 
 2383      735F7274 
 2383      31355468 
 2384              	.LASF55:
ARM GAS  /tmp/cccEivAy.s 			page 46


 2385 0583 726C6973 		.ascii	"rlist\000"
 2385      7400
 2386              	.LASF1:
 2387 0589 6C6F6E67 		.ascii	"long long int\000"
 2387      206C6F6E 
 2387      6720696E 
 2387      7400
 2388              	.LASF147:
 2389 0597 2E2E2F2E 		.ascii	"../../modules/ChibiOS/os/various/cpp_wrappers/ch.cp"
 2389      2E2F6D6F 
 2389      64756C65 
 2389      732F4368 
 2389      6962694F 
 2390 05ca 7000     		.ascii	"p\000"
 2391              	.LASF161:
 2392 05cc 5F5F7674 		.ascii	"__vtbl_ptr_type\000"
 2392      626C5F70 
 2392      74725F74 
 2392      79706500 
 2393              	.LASF93:
 2394 05dc 67657453 		.ascii	"getStatusAndLockX\000"
 2394      74617475 
 2394      73416E64 
 2394      4C6F636B 
 2394      5800
 2395              	.LASF0:
 2396 05ee 756E7369 		.ascii	"unsigned int\000"
 2396      676E6564 
 2396      20696E74 
 2396      00
 2397              	.LASF62:
 2398 05fb 53797374 		.ascii	"SystemCoreClock\000"
 2398      656D436F 
 2398      7265436C 
 2398      6F636B00 
 2399              	.LASF136:
 2400 060b 73686F75 		.ascii	"shouldTerminate\000"
 2400      6C645465 
 2400      726D696E 
 2400      61746500 
 2401              	.LASF28:
 2402 061b 77747472 		.ascii	"wttrp\000"
 2402      7000
 2403              	.LASF148:
 2404 0621 2F686F6D 		.ascii	"/home/alex/ArduPilot/ardupilot/build/STM32Disco\000"
 2404      652F616C 
 2404      65782F41 
 2404      72647550 
 2404      696C6F74 
 2405              	.LASF159:
 2406 0651 5F746864 		.ascii	"_thd_start\000"
 2406      5F737461 
 2406      727400
 2407              	.LASF29:
 2408 065c 71756575 		.ascii	"queue\000"
 2408      6500
 2409              	.LASF96:
ARM GAS  /tmp/cccEivAy.s 			page 47


 2410 0662 6973436F 		.ascii	"isCounterWithinX\000"
 2410      756E7465 
 2410      72576974 
 2410      68696E58 
 2410      00
 2411              	.LASF6:
 2412 0673 73686F72 		.ascii	"short unsigned int\000"
 2412      7420756E 
 2412      7369676E 
 2412      65642069 
 2412      6E7400
 2413              	.LASF144:
 2414 0686 7969656C 		.ascii	"yield\000"
 2414      6400
 2415              	.LASF35:
 2416 068c 63685F74 		.ascii	"ch_thread\000"
 2416      68726561 
 2416      6400
 2417              	.LASF86:
 2418 0696 5F5A4E31 		.ascii	"_ZN10chibios_rt6System13unlockFromIsrEv\000"
 2418      30636869 
 2418      62696F73 
 2418      5F727436 
 2418      53797374 
 2419              	.LASF23:
 2420 06be 6D73675F 		.ascii	"msg_t\000"
 2420      7400
 2421              	.LASF53:
 2422 06c4 63685F73 		.ascii	"ch_system_t\000"
 2422      79737465 
 2422      6D5F7400 
 2423              	.LASF20:
 2424 06d0 746D6F64 		.ascii	"tmode_t\000"
 2424      655F7400 
 2425              	.LASF145:
 2426 06d8 626F6F6C 		.ascii	"bool\000"
 2426      00
 2427              	.LASF40:
 2428 06dd 63685F72 		.ascii	"ch_ready_list\000"
 2428      65616479 
 2428      5F6C6973 
 2428      7400
 2429              	.LASF63:
 2430 06eb 41484250 		.ascii	"AHBPrescTable\000"
 2430      72657363 
 2430      5461626C 
 2430      6500
 2431              	.LASF112:
 2432 06f9 74687265 		.ascii	"thread_ref\000"
 2432      61645F72 
 2432      656600
 2433              	.LASF8:
 2434 0704 5F5F696E 		.ascii	"__int32_t\000"
 2434      7433325F 
 2434      7400
 2435              	.LASF130:
 2436 070e 67657450 		.ascii	"getPriorityX\000"
ARM GAS  /tmp/cccEivAy.s 			page 48


 2436      72696F72 
 2436      69747958 
 2436      00
 2437              	.LASF149:
 2438 071b 6465636C 		.ascii	"decltype(nullptr)\000"
 2438      74797065 
 2438      286E756C 
 2438      6C707472 
 2438      2900
 2439              	.LASF125:
 2440 072d 5F5A4E31 		.ascii	"_ZN10chibios_rt10BaseThread8getSelfXEv\000"
 2440      30636869 
 2440      62696F73 
 2440      5F727431 
 2440      30426173 
 2441              	.LASF66:
 2442 0754 73746B61 		.ascii	"stkalign_t\000"
 2442      6C69676E 
 2442      5F7400
 2443              	.LASF137:
 2444 075f 5F5A4E31 		.ascii	"_ZN10chibios_rt10BaseThread15shouldTerminateEv\000"
 2444      30636869 
 2444      62696F73 
 2444      5F727431 
 2444      30426173 
 2445              	.LASF124:
 2446 078e 67657453 		.ascii	"getSelfX\000"
 2446      656C6658 
 2446      00
 2447              	.LASF92:
 2448 0797 72657374 		.ascii	"restoreStatusX\000"
 2448      6F726553 
 2448      74617475 
 2448      735800
 2449              	.LASF60:
 2450 07a6 73697A65 		.ascii	"sizetype\000"
 2450      74797065 
 2450      00
 2451              	.LASF33:
 2452 07af 74687265 		.ascii	"thread_reference_t\000"
 2452      61645F72 
 2452      65666572 
 2452      656E6365 
 2452      5F7400
 2453              	.LASF48:
 2454 07c2 63685F76 		.ascii	"ch_virtual_timers_list\000"
 2454      69727475 
 2454      616C5F74 
 2454      696D6572 
 2454      735F6C69 
 2455              	.LASF2:
 2456 07d9 6C6F6E67 		.ascii	"long double\000"
 2456      20646F75 
 2456      626C6500 
 2457              	.LASF114:
 2458 07e5 5F5A4E31 		.ascii	"_ZN10chibios_rt15ThreadReferenceC4EP9ch_thread\000"
 2458      30636869 
ARM GAS  /tmp/cccEivAy.s 			page 49


 2458      62696F73 
 2458      5F727431 
 2458      35546872 
 2459              	.LASF77:
 2460 0814 656E6162 		.ascii	"enable\000"
 2460      6C6500
 2461              	.LASF139:
 2462 081b 5F5A4E31 		.ascii	"_ZN10chibios_rt10BaseThread5sleepEm\000"
 2462      30636869 
 2462      62696F73 
 2462      5F727431 
 2462      30426173 
 2463              	.LASF160:
 2464 083f 5F5A4E31 		.ascii	"_ZN10chibios_rt10_thd_startEPv\000"
 2464      30636869 
 2464      62696F73 
 2464      5F727431 
 2464      305F7468 
 2465              	.LASF89:
 2466 085e 756E636F 		.ascii	"unconditionalUnlock\000"
 2466      6E646974 
 2466      696F6E61 
 2466      6C556E6C 
 2466      6F636B00 
 2467              	.LASF80:
 2468 0872 5F5A4E31 		.ascii	"_ZN10chibios_rt6System4lockEv\000"
 2468      30636869 
 2468      62696F73 
 2468      5F727436 
 2468      53797374 
 2469              	.LASF94:
 2470 0890 67657452 		.ascii	"getRealtimeCounterX\000"
 2470      65616C74 
 2470      696D6543 
 2470      6F756E74 
 2470      65725800 
 2471              	.LASF151:
 2472 08a4 5F5A4E31 		.ascii	"_ZN10chibios_rt6System4haltEPKc\000"
 2472      30636869 
 2472      62696F73 
 2472      5F727436 
 2472      53797374 
 2473              	.LASF87:
 2474 08c4 756E636F 		.ascii	"unconditionalLock\000"
 2474      6E646974 
 2474      696F6E61 
 2474      6C4C6F63 
 2474      6B00
 2475              	.LASF122:
 2476 08d6 42617365 		.ascii	"BaseThread\000"
 2476      54687265 
 2476      616400
 2477              	.LASF30:
 2478 08e1 7072696F 		.ascii	"prio\000"
 2478      00
 2479              	.LASF41:
 2480 08e6 63757272 		.ascii	"current\000"
ARM GAS  /tmp/cccEivAy.s 			page 50


 2480      656E7400 
 2481              	.LASF12:
 2482 08ee 5F5F7569 		.ascii	"__uint64_t\000"
 2482      6E743634 
 2482      5F7400
 2483              	.LASF74:
 2484 08f9 5F5A4E31 		.ascii	"_ZN10chibios_rt6System7disableEv\000"
 2484      30636869 
 2484      62696F73 
 2484      5F727436 
 2484      53797374 
 2485              	.LASF84:
 2486 091a 5F5A4E31 		.ascii	"_ZN10chibios_rt6System11lockFromIsrEv\000"
 2486      30636869 
 2486      62696F73 
 2486      5F727436 
 2486      53797374 
 2487              	.LASF43:
 2488 0940 76697274 		.ascii	"virtual_timer_t\000"
 2488      75616C5F 
 2488      74696D65 
 2488      725F7400 
 2489              	.LASF22:
 2490 0950 74707269 		.ascii	"tprio_t\000"
 2490      6F5F7400 
 2491              	.LASF83:
 2492 0958 6C6F636B 		.ascii	"lockFromIsr\000"
 2492      46726F6D 
 2492      49737200 
 2493              	.LASF51:
 2494 0964 63685F73 		.ascii	"ch_system_debug\000"
 2494      79737465 
 2494      6D5F6465 
 2494      62756700 
 2495              	.LASF15:
 2496 0974 696E7433 		.ascii	"int32_t\000"
 2496      325F7400 
 2497              	.LASF4:
 2498 097c 756E7369 		.ascii	"unsigned char\000"
 2498      676E6564 
 2498      20636861 
 2498      7200
 2499              	.LASF78:
 2500 098a 5F5A4E31 		.ascii	"_ZN10chibios_rt6System6enableEv\000"
 2500      30636869 
 2500      62696F73 
 2500      5F727436 
 2500      53797374 
 2501              	.LASF5:
 2502 09aa 73686F72 		.ascii	"short int\000"
 2502      7420696E 
 2502      7400
 2503              	.LASF49:
 2504 09b4 6C617374 		.ascii	"lasttime\000"
 2504      74696D65 
 2504      00
 2505              	.LASF142:
ARM GAS  /tmp/cccEivAy.s 			page 51


 2506 09bd 736C6565 		.ascii	"sleepUntilWindowed\000"
 2506      70556E74 
 2506      696C5769 
 2506      6E646F77 
 2506      656400
 2507              	.LASF152:
 2508 09d0 5F5A4E31 		.ascii	"_ZN10chibios_rt6System15integrityCheckIEj\000"
 2508      30636869 
 2508      62696F73 
 2508      5F727436 
 2508      53797374 
 2509              	.LASF54:
 2510 09fa 63685F73 		.ascii	"ch_system\000"
 2510      79737465 
 2510      6D00
 2511              	.LASF76:
 2512 0a04 5F5A4E31 		.ascii	"_ZN10chibios_rt6System7suspendEv\000"
 2512      30636869 
 2512      62696F73 
 2512      5F727436 
 2512      53797374 
 2513              	.LASF132:
 2514 0a25 65786974 		.ascii	"exit\000"
 2514      00
 2515              	.LASF44:
 2516 0a2a 63685F76 		.ascii	"ch_virtual_timer\000"
 2516      69727475 
 2516      616C5F74 
 2516      696D6572 
 2516      00
 2517              	.LASF70:
 2518 0a3b 63685F69 		.ascii	"ch_idle_thread_wa\000"
 2518      646C655F 
 2518      74687265 
 2518      61645F77 
 2518      6100
 2519              	.LASF16:
 2520 0a4d 75696E74 		.ascii	"uint32_t\000"
 2520      33325F74 
 2520      00
 2521              	.LASF126:
 2522 0a56 7365744E 		.ascii	"setName\000"
 2522      616D6500 
 2523              	.LASF82:
 2524 0a5e 5F5A4E31 		.ascii	"_ZN10chibios_rt6System6unlockEv\000"
 2524      30636869 
 2524      62696F73 
 2524      5F727436 
 2524      53797374 
 2525              	.LASF79:
 2526 0a7e 6C6F636B 		.ascii	"lock\000"
 2526      00
 2527              	.LASF117:
 2528 0a83 67657449 		.ascii	"getInner\000"
 2528      6E6E6572 
 2528      00
 2529              	.LASF69:
ARM GAS  /tmp/cccEivAy.s 			page 52


 2530 0a8c 63686172 		.ascii	"char\000"
 2530      00
 2531              	.LASF46:
 2532 0a91 66756E63 		.ascii	"func\000"
 2532      00
 2533              	.LASF143:
 2534 0a96 5F5A4E31 		.ascii	"_ZN10chibios_rt10BaseThread18sleepUntilWindowedEmm\000"
 2534      30636869 
 2534      62696F73 
 2534      5F727431 
 2534      30426173 
 2535              	.LASF24:
 2536 0ac9 74687265 		.ascii	"thread_t\000"
 2536      61645F74 
 2536      00
 2537              	.LASF164:
 2538 0ad2 63685379 		.ascii	"chSysGetIdleThreadX\000"
 2538      73476574 
 2538      49646C65 
 2538      54687265 
 2538      61645800 
 2539              	.LASF104:
 2540 0ae6 5F5A4E31 		.ascii	"_ZN10chibios_rt6System8getTimeXEv\000"
 2540      30636869 
 2540      62696F73 
 2540      5F727436 
 2540      53797374 
 2541              	.LASF58:
 2542 0b08 73797374 		.ascii	"systime_t\000"
 2542      696D655F 
 2542      7400
 2543              	.LASF42:
 2544 0b12 76746675 		.ascii	"vtfunc_t\000"
 2544      6E635F74 
 2544      00
 2545              	.LASF128:
 2546 0b1b 73657450 		.ascii	"setPriority\000"
 2546      72696F72 
 2546      69747900 
 2547              	.LASF52:
 2548 0b27 70616E69 		.ascii	"panic_msg\000"
 2548      635F6D73 
 2548      6700
 2549              	.LASF140:
 2550 0b31 736C6565 		.ascii	"sleepUntil\000"
 2550      70556E74 
 2550      696C00
 2551              	.LASF88:
 2552 0b3c 5F5A4E31 		.ascii	"_ZN10chibios_rt6System17unconditionalLockEv\000"
 2552      30636869 
 2552      62696F73 
 2552      5F727436 
 2552      53797374 
 2553              	.LASF99:
 2554 0b68 5F5A4E31 		.ascii	"_ZN10chibios_rt6System12polledDelayXEm\000"
 2554      30636869 
 2554      62696F73 
ARM GAS  /tmp/cccEivAy.s 			page 53


 2554      5F727436 
 2554      53797374 
 2555              	.LASF115:
 2556 0b8f 69734E75 		.ascii	"isNull\000"
 2556      6C6C00
 2557              	.LASF18:
 2558 0b96 7274636E 		.ascii	"rtcnt_t\000"
 2558      745F7400 
 2559              	.LASF19:
 2560 0b9e 73797373 		.ascii	"syssts_t\000"
 2560      74735F74 
 2560      00
 2561              	.LASF113:
 2562 0ba7 5F5A4E31 		.ascii	"_ZN10chibios_rt15ThreadReferenceC4Ev\000"
 2562      30636869 
 2562      62696F73 
 2562      5F727431 
 2562      35546872 
 2563              	.LASF100:
 2564 0bcc 67657454 		.ascii	"getTime\000"
 2564      696D6500 
 2565              	.LASF129:
 2566 0bd4 5F5A4E31 		.ascii	"_ZN10chibios_rt10BaseThread11setPriorityEm\000"
 2566      30636869 
 2566      62696F73 
 2566      5F727431 
 2566      30426173 
 2567              	.LASF34:
 2568 0bff 74687265 		.ascii	"threads_queue_t\000"
 2568      6164735F 
 2568      71756575 
 2568      655F7400 
 2569              	.LASF127:
 2570 0c0f 5F5A4E31 		.ascii	"_ZN10chibios_rt10BaseThread7setNameEPKc\000"
 2570      30636869 
 2570      62696F73 
 2570      5F727431 
 2570      30426173 
 2571              	.LASF153:
 2572 0c37 5F5A4E31 		.ascii	"_ZN10chibios_rt6System17getStatusAndLockXEv\000"
 2572      30636869 
 2572      62696F73 
 2572      5F727436 
 2572      53797374 
 2573              	.LASF118:
 2574 0c63 5F5A4E31 		.ascii	"_ZN10chibios_rt15ThreadReference8getInnerEv\000"
 2574      30636869 
 2574      62696F73 
 2574      5F727431 
 2574      35546872 
 2575              	.LASF14:
 2576 0c8f 75696E74 		.ascii	"uint8_t\000"
 2576      385F7400 
 2577              	.LASF32:
 2578 0c97 666C6167 		.ascii	"flags\000"
 2578      7300
 2579              	.LASF27:
ARM GAS  /tmp/cccEivAy.s 			page 54


 2580 0c9d 77746F62 		.ascii	"wtobjp\000"
 2580      6A7000
 2581              	.LASF103:
 2582 0ca4 67657454 		.ascii	"getTimeX\000"
 2582      696D6558 
 2582      00
 2583              	.LASF75:
 2584 0cad 73757370 		.ascii	"suspend\000"
 2584      656E6400 
 2585              	.LASF121:
 2586 0cb5 5F767074 		.ascii	"_vptr.BaseThread\000"
 2586      722E4261 
 2586      73655468 
 2586      72656164 
 2586      00
 2587              	.LASF156:
 2588 0cc6 73746172 		.ascii	"start\000"
 2588      7400
 2589              	.LASF81:
 2590 0ccc 756E6C6F 		.ascii	"unlock\000"
 2590      636B00
 2591              	.LASF73:
 2592 0cd3 5F5A4E31 		.ascii	"_ZN10chibios_rt6System4initEv\000"
 2592      30636869 
 2592      62696F73 
 2592      5F727436 
 2592      53797374 
 2593              	.LASF111:
 2594 0cf1 54687265 		.ascii	"ThreadReference\000"
 2594      61645265 
 2594      66657265 
 2594      6E636500 
 2595              	.LASF154:
 2596 0d01 6D61696E 		.ascii	"main\000"
 2596      00
 2597              	.LASF158:
 2598 0d06 5F5A4E31 		.ascii	"_ZN10chibios_rt10BaseThread5yieldEv\000"
 2598      30636869 
 2598      62696F73 
 2598      5F727431 
 2598      30426173 
 2599              	.LASF157:
 2600 0d2a 5F5A4E31 		.ascii	"_ZN10chibios_rt10BaseThread5startEm\000"
 2600      30636869 
 2600      62696F73 
 2600      5F727431 
 2600      30426173 
 2601              		.ident	"GCC: (GNU Tools for ARM Embedded Processors 6-2017-q2-update) 6.3.1 20170620 (release) [AR
ARM GAS  /tmp/cccEivAy.s 			page 55


DEFINED SYMBOLS
                            *ABS*:0000000000000000 ch.cpp
     /tmp/cccEivAy.s:18     .text._ZL19chSysGetIdleThreadXv:0000000000000000 $t
     /tmp/cccEivAy.s:25     .text._ZL19chSysGetIdleThreadXv:0000000000000000 _ZL19chSysGetIdleThreadXv
     /tmp/cccEivAy.s:43     .text._ZL19chSysGetIdleThreadXv:0000000000000008 $d
.ARM.exidx.text._ZL19chSysGetIdleThreadXv:0000000000000000 $d
     /tmp/cccEivAy.s:50     .text._ZN10chibios_rt15ThreadReferenceC2EP9ch_thread:0000000000000000 $t
     /tmp/cccEivAy.s:58     .text._ZN10chibios_rt15ThreadReferenceC2EP9ch_thread:0000000000000000 _ZN10chibios_rt15ThreadReferenceC2EP9ch_thread
.ARM.exidx.text._ZN10chibios_rt15ThreadReferenceC2EP9ch_thread:0000000000000000 $d
     /tmp/cccEivAy.s:58     .text._ZN10chibios_rt15ThreadReferenceC2EP9ch_thread:0000000000000000 _ZN10chibios_rt15ThreadReferenceC1EP9ch_thread
     /tmp/cccEivAy.s:92     .text._ZN10chibios_rt6System14getIdleThreadXEv:0000000000000000 $t
     /tmp/cccEivAy.s:100    .text._ZN10chibios_rt6System14getIdleThreadXEv:0000000000000000 _ZN10chibios_rt6System14getIdleThreadXEv
.ARM.exidx.text._ZN10chibios_rt6System14getIdleThreadXEv:0000000000000000 $d
     /tmp/cccEivAy.s:133    .text._ZN10chibios_rt10_thd_startEPv:0000000000000000 $t
     /tmp/cccEivAy.s:141    .text._ZN10chibios_rt10_thd_startEPv:0000000000000000 _ZN10chibios_rt10_thd_startEPv
.ARM.exidx.text._ZN10chibios_rt10_thd_startEPv:0000000000000000 $d
                     .debug_frame:0000000000000010 $d
                           .group:0000000000000000 _ZN10chibios_rt15ThreadReferenceC5EP9ch_thread

UNDEFINED SYMBOLS
ch
__aeabi_unwind_cpp_pr0
