ARM GAS  /tmp/cc1CSJEq.s 			page 1


   1              		.cpu cortex-m4
   2              		.eabi_attribute 27, 1
   3              		.eabi_attribute 28, 1
   4              		.eabi_attribute 20, 1
   5              		.eabi_attribute 21, 1
   6              		.eabi_attribute 23, 3
   7              		.eabi_attribute 24, 1
   8              		.eabi_attribute 25, 1
   9              		.eabi_attribute 26, 1
  10              		.eabi_attribute 30, 4
  11              		.eabi_attribute 34, 1
  12              		.eabi_attribute 18, 4
  13              		.file	"chcore_v7m.c"
  14              		.text
  15              	.Ltext0:
  16              		.cfi_sections	.debug_frame
  17              		.section	.text.SVC_Handler,"ax",%progbits
  18              		.align	1
  19              		.global	SVC_Handler
  20              		.syntax unified
  21              		.thumb
  22              		.thumb_func
  23              		.fpu fpv4-sp-d16
  24              		.type	SVC_Handler, %function
  25              	SVC_Handler:
  26              	.LFB290:
  27              		.file 1 "../../modules/ChibiOS/os/common/ports/ARMCMx/chcore_v7m.c"
  28              		.loc 1 62 0
  29              		.cfi_startproc
  30              		@ args = 0, pretend = 0, frame = 0
  31              		@ frame_needed = 0, uses_anonymous_args = 0
  32              		@ link register save eliminated.
  33              		.loc 1 68 0
  34 0000 064A     		ldr	r2, .L2
  35 0002 5368     		ldr	r3, [r2, #4]
  36 0004 23F00103 		bic	r3, r3, #1
  37 0008 5360     		str	r3, [r2, #4]
  38              	.LBB51:
  39              	.LBB52:
  40              		.file 2 "../../modules/ChibiOS/os/common/ext/ARM/CMSIS/Core/Include/cmsis_gcc.h"
  41              		.loc 2 251 0
  42              		.syntax unified
  43              	@ 251 "../../modules/ChibiOS/os/common/ext/ARM/CMSIS/Core/Include/cmsis_gcc.h" 1
  44 000a EFF30983 		MRS r3, psp
  45              	@ 0 "" 2
  46              	.LVL0:
  47              		.thumb
  48              		.syntax unified
  49              	.LBE52:
  50              	.LBE51:
  51              		.loc 1 76 0
  52 000e 6833     		adds	r3, r3, #104
  53              	.LVL1:
  54              	.LBB53:
  55              	.LBB54:
  56              		.loc 2 279 0
  57              		.syntax unified
ARM GAS  /tmp/cc1CSJEq.s 			page 2


  58              	@ 279 "../../modules/ChibiOS/os/common/ext/ARM/CMSIS/Core/Include/cmsis_gcc.h" 1
  59 0010 83F30988 		MSR psp, r3
  60              	@ 0 "" 2
  61              	.LVL2:
  62              		.thumb
  63              		.syntax unified
  64              	.LBE54:
  65              	.LBE53:
  66              	.LBB55:
  67              	.LBB56:
  68              	.LBB57:
  69              	.LBB58:
  70              		.loc 2 493 0
  71 0014 0023     		movs	r3, #0
  72              	.LVL3:
  73              		.syntax unified
  74              	@ 493 "../../modules/ChibiOS/os/common/ext/ARM/CMSIS/Core/Include/cmsis_gcc.h" 1
  75 0016 83F31188 		MSR basepri, r3
  76              	@ 0 "" 2
  77              	.LVL4:
  78              		.thumb
  79              		.syntax unified
  80 001a 7047     		bx	lr
  81              	.L3:
  82              		.align	2
  83              	.L2:
  84 001c 30EF00E0 		.word	-536809680
  85              	.LBE58:
  86              	.LBE57:
  87              	.LBE56:
  88              	.LBE55:
  89              		.cfi_endproc
  90              	.LFE290:
  91              		.size	SVC_Handler, .-SVC_Handler
  92              		.section	.text._port_irq_epilogue,"ax",%progbits
  93              		.align	1
  94              		.global	_port_irq_epilogue
  95              		.syntax unified
  96              		.thumb
  97              		.thumb_func
  98              		.fpu fpv4-sp-d16
  99              		.type	_port_irq_epilogue, %function
 100              	_port_irq_epilogue:
 101              	.LFB291:
 102              		.loc 1 122 0
 103              		.cfi_startproc
 104              		@ args = 0, pretend = 0, frame = 0
 105              		@ frame_needed = 0, uses_anonymous_args = 0
 106              	.LVL5:
 107 0000 10B5     		push	{r4, lr}
 108              		.cfi_def_cfa_offset 8
 109              		.cfi_offset 4, -8
 110              		.cfi_offset 14, -4
 111              	.LBB59:
 112              	.LBB60:
 113              	.LBB61:
 114              	.LBB62:
ARM GAS  /tmp/cc1CSJEq.s 			page 3


 115              		.loc 2 493 0
 116 0002 2023     		movs	r3, #32
 117              		.syntax unified
 118              	@ 493 "../../modules/ChibiOS/os/common/ext/ARM/CMSIS/Core/Include/cmsis_gcc.h" 1
 119 0004 83F31188 		MSR basepri, r3
 120              	@ 0 "" 2
 121              	.LVL6:
 122              		.thumb
 123              		.syntax unified
 124              	.LBE62:
 125              	.LBE61:
 126              	.LBE60:
 127              	.LBE59:
 128              		.loc 1 125 0
 129 0008 104B     		ldr	r3, .L9
 130 000a 5B68     		ldr	r3, [r3, #4]
 131 000c 13F40063 		ands	r3, r3, #2048
 132 0010 18D0     		beq	.L5
 133              	.LBB63:
 134              	.LBB64:
 135              	.LBB65:
 136              		.loc 2 778 0
 137              		.syntax unified
 138              	@ 778 "../../modules/ChibiOS/os/common/ext/ARM/CMSIS/Core/Include/cmsis_gcc.h" 1
 139 0012 F1EE103A 		VMRS r3, fpscr
 140              	@ 0 "" 2
 141              		.thumb
 142              		.syntax unified
 143              	.LBE65:
 144              	.LBE64:
 145              	.LBB66:
 146              	.LBB67:
 147              		.loc 2 251 0
 148              		.syntax unified
 149              	@ 251 "../../modules/ChibiOS/os/common/ext/ARM/CMSIS/Core/Include/cmsis_gcc.h" 1
 150 0016 EFF30984 		MRS r4, psp
 151              	@ 0 "" 2
 152              	.LVL7:
 153              		.thumb
 154              		.syntax unified
 155              	.LBE67:
 156              	.LBE66:
 157              		.loc 1 141 0
 158 001a 4FF08073 		mov	r3, #16777216
 159 001e 44F84C3C 		str	r3, [r4, #-76]
 160              		.loc 1 143 0
 161 0022 0B4B     		ldr	r3, .L9+4
 162 0024 DB68     		ldr	r3, [r3, #12]
 163 0026 44F8083C 		str	r3, [r4, #-8]
 164              	.LVL8:
 165              		.loc 1 138 0
 166 002a A4F16803 		sub	r3, r4, #104
 167              	.LVL9:
 168              	.LBB68:
 169              	.LBB69:
 170              		.loc 2 279 0
 171              		.syntax unified
ARM GAS  /tmp/cc1CSJEq.s 			page 4


 172              	@ 279 "../../modules/ChibiOS/os/common/ext/ARM/CMSIS/Core/Include/cmsis_gcc.h" 1
 173 002e 83F30988 		MSR psp, r3
 174              	@ 0 "" 2
 175              	.LVL10:
 176              		.thumb
 177              		.syntax unified
 178              	.LBE69:
 179              	.LBE68:
 180              		.loc 1 151 0
 181 0032 FFF7FEFF 		bl	chSchIsPreemptionRequired
 182              	.LVL11:
 183 0036 18B1     		cbz	r0, .L6
 184              		.loc 1 153 0
 185 0038 064B     		ldr	r3, .L9+8
 186              	.L8:
 187              		.loc 1 158 0
 188 003a 44F8503C 		str	r3, [r4, #-80]
 189 003e 10BD     		pop	{r4, pc}
 190              	.LVL12:
 191              	.L6:
 192 0040 054B     		ldr	r3, .L9+12
 193 0042 FAE7     		b	.L8
 194              	.LVL13:
 195              	.L5:
 196              	.LBE63:
 197              	.LBB70:
 198              	.LBB71:
 199              	.LBB72:
 200              	.LBB73:
 201              		.loc 2 493 0
 202              		.syntax unified
 203              	@ 493 "../../modules/ChibiOS/os/common/ext/ARM/CMSIS/Core/Include/cmsis_gcc.h" 1
 204 0044 83F31188 		MSR basepri, r3
 205              	@ 0 "" 2
 206              	.LVL14:
 207              		.thumb
 208              		.syntax unified
 209 0048 10BD     		pop	{r4, pc}
 210              	.L10:
 211 004a 00BF     		.align	2
 212              	.L9:
 213 004c 00ED00E0 		.word	-536810240
 214 0050 30EF00E0 		.word	-536809680
 215 0054 00000000 		.word	_port_switch_from_isr
 216 0058 00000000 		.word	_port_exit_from_isr
 217              	.LBE73:
 218              	.LBE72:
 219              	.LBE71:
 220              	.LBE70:
 221              		.cfi_endproc
 222              	.LFE291:
 223              		.size	_port_irq_epilogue, .-_port_irq_epilogue
 224              		.text
 225              	.Letext0:
 226              		.file 3 "/opt/gcc-arm-none-eabi-6-2017-q2-update/lib/gcc/arm-none-eabi/6.3.1/include/stddef.h"
 227              		.file 4 "/opt/gcc-arm-none-eabi-6-2017-q2-update/arm-none-eabi/include/machine/_default_types.h"
 228              		.file 5 "/opt/gcc-arm-none-eabi-6-2017-q2-update/arm-none-eabi/include/sys/_stdint.h"
ARM GAS  /tmp/cc1CSJEq.s 			page 5


 229              		.file 6 "../../modules/ChibiOS/os/common/ports/ARMCMx/compilers/GCC/chtypes.h"
 230              		.file 7 "../../modules/ChibiOS/os/rt/include/chsystypes.h"
 231              		.file 8 "../../modules/ChibiOS/os/rt/include/chschd.h"
 232              		.file 9 "../../modules/ChibiOS/os/rt/include/chtime.h"
 233              		.file 10 "../../modules/ChibiOS/os/common/ext/ARM/CMSIS/Core/Include/core_cm4.h"
 234              		.file 11 "../../modules/ChibiOS/os/common/ext/ST/STM32F4xx/system_stm32f4xx.h"
 235              		.file 12 "../../modules/ChibiOS/os/common/ports/ARMCMx/chcore.h"
 236              		.file 13 "../../modules/ChibiOS/os/common/ports/ARMCMx/chcore_v7m.h"
 237              		.file 14 "../../modules/ChibiOS/os/rt/include/chtm.h"
 238              		.file 15 "../../modules/ChibiOS/os/rt/include/chsem.h"
 239              		.file 16 "../../modules/ChibiOS/os/rt/include/chmtx.h"
 240              		.file 17 "../../modules/ChibiOS/os/rt/include/chsys.h"
 241              		.file 18 "../../modules/ChibiOS/os/rt/include/chregistry.h"
 242              		.file 19 "../../modules/ChibiOS/os/oslib/include/chmemcore.h"
 243              		.file 20 "../../modules/ChibiOS/os/oslib/include/chmempools.h"
 244              		.file 21 "../../modules/ChibiOS/os/oslib/include/chfactory.h"
 245              		.section	.debug_info,"",%progbits
 246              	.Ldebug_info0:
 247 0000 3B100000 		.4byte	0x103b
 248 0004 0400     		.2byte	0x4
 249 0006 00000000 		.4byte	.Ldebug_abbrev0
 250 000a 04       		.byte	0x4
 251 000b 01       		.uleb128 0x1
 252 000c FA000000 		.4byte	.LASF186
 253 0010 0C       		.byte	0xc
 254 0011 0F080000 		.4byte	.LASF187
 255 0015 42030000 		.4byte	.LASF188
 256 0019 00000000 		.4byte	.Ldebug_ranges0+0
 257 001d 00000000 		.4byte	0
 258 0021 00000000 		.4byte	.Ldebug_line0
 259 0025 02       		.uleb128 0x2
 260 0026 04       		.byte	0x4
 261 0027 05       		.byte	0x5
 262 0028 696E7400 		.ascii	"int\000"
 263 002c 03       		.uleb128 0x3
 264 002d 0D000000 		.4byte	.LASF4
 265 0031 03       		.byte	0x3
 266 0032 D8       		.byte	0xd8
 267 0033 37000000 		.4byte	0x37
 268 0037 04       		.uleb128 0x4
 269 0038 04       		.byte	0x4
 270 0039 07       		.byte	0x7
 271 003a 05030000 		.4byte	.LASF0
 272 003e 04       		.uleb128 0x4
 273 003f 08       		.byte	0x8
 274 0040 05       		.byte	0x5
 275 0041 D4020000 		.4byte	.LASF1
 276 0045 04       		.uleb128 0x4
 277 0046 08       		.byte	0x8
 278 0047 04       		.byte	0x4
 279 0048 B2040000 		.4byte	.LASF2
 280 004c 04       		.uleb128 0x4
 281 004d 01       		.byte	0x1
 282 004e 06       		.byte	0x6
 283 004f 31000000 		.4byte	.LASF3
 284 0053 03       		.uleb128 0x3
 285 0054 3D000000 		.4byte	.LASF5
ARM GAS  /tmp/cc1CSJEq.s 			page 6


 286 0058 04       		.byte	0x4
 287 0059 2B       		.byte	0x2b
 288 005a 5E000000 		.4byte	0x5e
 289 005e 04       		.uleb128 0x4
 290 005f 01       		.byte	0x1
 291 0060 08       		.byte	0x8
 292 0061 B1050000 		.4byte	.LASF6
 293 0065 04       		.uleb128 0x4
 294 0066 02       		.byte	0x2
 295 0067 05       		.byte	0x5
 296 0068 ED050000 		.4byte	.LASF7
 297 006c 03       		.uleb128 0x3
 298 006d E7060000 		.4byte	.LASF8
 299 0071 04       		.byte	0x4
 300 0072 39       		.byte	0x39
 301 0073 77000000 		.4byte	0x77
 302 0077 04       		.uleb128 0x4
 303 0078 02       		.byte	0x2
 304 0079 07       		.byte	0x7
 305 007a 6F070000 		.4byte	.LASF9
 306 007e 03       		.uleb128 0x3
 307 007f 43040000 		.4byte	.LASF10
 308 0083 04       		.byte	0x4
 309 0084 4D       		.byte	0x4d
 310 0085 89000000 		.4byte	0x89
 311 0089 04       		.uleb128 0x4
 312 008a 04       		.byte	0x4
 313 008b 05       		.byte	0x5
 314 008c 3F020000 		.4byte	.LASF11
 315 0090 03       		.uleb128 0x3
 316 0091 94020000 		.4byte	.LASF12
 317 0095 04       		.byte	0x4
 318 0096 4F       		.byte	0x4f
 319 0097 9B000000 		.4byte	0x9b
 320 009b 04       		.uleb128 0x4
 321 009c 04       		.byte	0x4
 322 009d 07       		.byte	0x7
 323 009e BA060000 		.4byte	.LASF13
 324 00a2 03       		.uleb128 0x3
 325 00a3 2D050000 		.4byte	.LASF14
 326 00a7 04       		.byte	0x4
 327 00a8 69       		.byte	0x69
 328 00a9 AD000000 		.4byte	0xad
 329 00ad 04       		.uleb128 0x4
 330 00ae 08       		.byte	0x8
 331 00af 07       		.byte	0x7
 332 00b0 E3000000 		.4byte	.LASF15
 333 00b4 03       		.uleb128 0x3
 334 00b5 49080000 		.4byte	.LASF16
 335 00b9 05       		.byte	0x5
 336 00ba 18       		.byte	0x18
 337 00bb 53000000 		.4byte	0x53
 338 00bf 05       		.uleb128 0x5
 339 00c0 B4000000 		.4byte	0xb4
 340 00c4 06       		.uleb128 0x6
 341 00c5 B4000000 		.4byte	0xb4
 342 00c9 03       		.uleb128 0x3
ARM GAS  /tmp/cc1CSJEq.s 			page 7


 343 00ca 1C030000 		.4byte	.LASF17
 344 00ce 05       		.byte	0x5
 345 00cf 24       		.byte	0x24
 346 00d0 6C000000 		.4byte	0x6c
 347 00d4 03       		.uleb128 0x3
 348 00d5 A9050000 		.4byte	.LASF18
 349 00d9 05       		.byte	0x5
 350 00da 2C       		.byte	0x2c
 351 00db 7E000000 		.4byte	0x7e
 352 00df 05       		.uleb128 0x5
 353 00e0 D4000000 		.4byte	0xd4
 354 00e4 03       		.uleb128 0x3
 355 00e5 94060000 		.4byte	.LASF19
 356 00e9 05       		.byte	0x5
 357 00ea 30       		.byte	0x30
 358 00eb 90000000 		.4byte	0x90
 359 00ef 05       		.uleb128 0x5
 360 00f0 E4000000 		.4byte	0xe4
 361 00f4 06       		.uleb128 0x6
 362 00f5 EF000000 		.4byte	0xef
 363 00f9 03       		.uleb128 0x3
 364 00fa 28000000 		.4byte	.LASF20
 365 00fe 05       		.byte	0x5
 366 00ff 3C       		.byte	0x3c
 367 0100 A2000000 		.4byte	0xa2
 368 0104 03       		.uleb128 0x3
 369 0105 99070000 		.4byte	.LASF21
 370 0109 06       		.byte	0x6
 371 010a 27       		.byte	0x27
 372 010b E4000000 		.4byte	0xe4
 373 010f 03       		.uleb128 0x3
 374 0110 0C040000 		.4byte	.LASF22
 375 0114 06       		.byte	0x6
 376 0115 2A       		.byte	0x2a
 377 0116 B4000000 		.4byte	0xb4
 378 011a 03       		.uleb128 0x3
 379 011b 48020000 		.4byte	.LASF23
 380 011f 06       		.byte	0x6
 381 0120 2B       		.byte	0x2b
 382 0121 B4000000 		.4byte	0xb4
 383 0125 03       		.uleb128 0x3
 384 0126 4E050000 		.4byte	.LASF24
 385 012a 06       		.byte	0x6
 386 012b 2C       		.byte	0x2c
 387 012c B4000000 		.4byte	0xb4
 388 0130 03       		.uleb128 0x3
 389 0131 84050000 		.4byte	.LASF25
 390 0135 06       		.byte	0x6
 391 0136 2E       		.byte	0x2e
 392 0137 E4000000 		.4byte	0xe4
 393 013b 03       		.uleb128 0x3
 394 013c BF030000 		.4byte	.LASF26
 395 0140 06       		.byte	0x6
 396 0141 2F       		.byte	0x2f
 397 0142 D4000000 		.4byte	0xd4
 398 0146 03       		.uleb128 0x3
 399 0147 22040000 		.4byte	.LASF27
ARM GAS  /tmp/cc1CSJEq.s 			page 8


 400 014b 06       		.byte	0x6
 401 014c 31       		.byte	0x31
 402 014d E4000000 		.4byte	0xe4
 403 0151 03       		.uleb128 0x3
 404 0152 F6020000 		.4byte	.LASF28
 405 0156 06       		.byte	0x6
 406 0157 33       		.byte	0x33
 407 0158 D4000000 		.4byte	0xd4
 408 015c 03       		.uleb128 0x3
 409 015d D0030000 		.4byte	.LASF29
 410 0161 06       		.byte	0x6
 411 0162 34       		.byte	0x34
 412 0163 E4000000 		.4byte	0xe4
 413 0167 03       		.uleb128 0x3
 414 0168 07070000 		.4byte	.LASF30
 415 016c 07       		.byte	0x7
 416 016d 34       		.byte	0x34
 417 016e 72010000 		.4byte	0x172
 418 0172 07       		.uleb128 0x7
 419 0173 AB030000 		.4byte	.LASF48
 420 0177 44       		.byte	0x44
 421 0178 08       		.byte	0x8
 422 0179 8E       		.byte	0x8e
 423 017a 50020000 		.4byte	0x250
 424 017e 08       		.uleb128 0x8
 425 017f BE040000 		.4byte	.LASF31
 426 0183 08       		.byte	0x8
 427 0184 8F       		.byte	0x8f
 428 0185 85020000 		.4byte	0x285
 429 0189 00       		.byte	0
 430 018a 08       		.uleb128 0x8
 431 018b 17050000 		.4byte	.LASF32
 432 018f 08       		.byte	0x8
 433 0190 90       		.byte	0x90
 434 0191 30010000 		.4byte	0x130
 435 0195 08       		.byte	0x8
 436 0196 09       		.uleb128 0x9
 437 0197 63747800 		.ascii	"ctx\000"
 438 019b 08       		.byte	0x8
 439 019c 91       		.byte	0x91
 440 019d F8060000 		.4byte	0x6f8
 441 01a1 0C       		.byte	0xc
 442 01a2 08       		.uleb128 0x8
 443 01a3 58040000 		.4byte	.LASF33
 444 01a7 08       		.byte	0x8
 445 01a8 93       		.byte	0x93
 446 01a9 5B020000 		.4byte	0x25b
 447 01ad 10       		.byte	0x10
 448 01ae 08       		.uleb128 0x8
 449 01af D8060000 		.4byte	.LASF34
 450 01b3 08       		.byte	0x8
 451 01b4 94       		.byte	0x94
 452 01b5 5B020000 		.4byte	0x25b
 453 01b9 14       		.byte	0x14
 454 01ba 08       		.uleb128 0x8
 455 01bb 89030000 		.4byte	.LASF35
 456 01bf 08       		.byte	0x8
ARM GAS  /tmp/cc1CSJEq.s 			page 9


 457 01c0 9B       		.byte	0x9b
 458 01c1 A90A0000 		.4byte	0xaa9
 459 01c5 18       		.byte	0x18
 460 01c6 08       		.uleb128 0x8
 461 01c7 CC060000 		.4byte	.LASF36
 462 01cb 08       		.byte	0x8
 463 01cc A4       		.byte	0xa4
 464 01cd C00A0000 		.4byte	0xac0
 465 01d1 1C       		.byte	0x1c
 466 01d2 08       		.uleb128 0x8
 467 01d3 39020000 		.4byte	.LASF37
 468 01d7 08       		.byte	0x8
 469 01d8 A9       		.byte	0xa9
 470 01d9 1A010000 		.4byte	0x11a
 471 01dd 20       		.byte	0x20
 472 01de 08       		.uleb128 0x8
 473 01df 51080000 		.4byte	.LASF38
 474 01e3 08       		.byte	0x8
 475 01e4 AD       		.byte	0xad
 476 01e5 0F010000 		.4byte	0x10f
 477 01e9 21       		.byte	0x21
 478 01ea 08       		.uleb128 0x8
 479 01eb E8050000 		.4byte	.LASF39
 480 01ef 08       		.byte	0x8
 481 01f0 B2       		.byte	0xb2
 482 01f1 25010000 		.4byte	0x125
 483 01f5 22       		.byte	0x22
 484 01f6 0A       		.uleb128 0xa
 485 01f7 7500     		.ascii	"u\000"
 486 01f9 08       		.byte	0x8
 487 01fa 0301     		.2byte	0x103
 488 01fc D3090000 		.4byte	0x9d3
 489 0200 24       		.byte	0x24
 490 0201 0B       		.uleb128 0xb
 491 0202 C1020000 		.4byte	.LASF40
 492 0206 08       		.byte	0x8
 493 0207 0801     		.2byte	0x108
 494 0209 61020000 		.4byte	0x261
 495 020d 28       		.byte	0x28
 496 020e 0B       		.uleb128 0xb
 497 020f 30020000 		.4byte	.LASF41
 498 0213 08       		.byte	0x8
 499 0214 0E01     		.2byte	0x10e
 500 0216 85020000 		.4byte	0x285
 501 021a 2C       		.byte	0x2c
 502 021b 0B       		.uleb128 0xb
 503 021c D7030000 		.4byte	.LASF42
 504 0220 08       		.byte	0x8
 505 0221 1401     		.2byte	0x114
 506 0223 46010000 		.4byte	0x146
 507 0227 34       		.byte	0x34
 508 0228 0B       		.uleb128 0xb
 509 0229 AC080000 		.4byte	.LASF43
 510 022d 08       		.byte	0x8
 511 022e 1B01     		.2byte	0x11b
 512 0230 A30A0000 		.4byte	0xaa3
 513 0234 38       		.byte	0x38
ARM GAS  /tmp/cc1CSJEq.s 			page 10


 514 0235 0B       		.uleb128 0xb
 515 0236 6D040000 		.4byte	.LASF44
 516 023a 08       		.byte	0x8
 517 023b 1F01     		.2byte	0x11f
 518 023d 30010000 		.4byte	0x130
 519 0241 3C       		.byte	0x3c
 520 0242 0B       		.uleb128 0xb
 521 0243 93030000 		.4byte	.LASF45
 522 0247 08       		.byte	0x8
 523 0248 2601     		.2byte	0x126
 524 024a 38030000 		.4byte	0x338
 525 024e 40       		.byte	0x40
 526 024f 00       		.byte	0
 527 0250 03       		.uleb128 0x3
 528 0251 6B080000 		.4byte	.LASF46
 529 0255 07       		.byte	0x7
 530 0256 39       		.byte	0x39
 531 0257 5B020000 		.4byte	0x25b
 532 025b 0C       		.uleb128 0xc
 533 025c 04       		.byte	0x4
 534 025d 67010000 		.4byte	0x167
 535 0261 03       		.uleb128 0x3
 536 0262 5E040000 		.4byte	.LASF47
 537 0266 07       		.byte	0x7
 538 0267 3E       		.byte	0x3e
 539 0268 6C020000 		.4byte	0x26c
 540 026c 07       		.uleb128 0x7
 541 026d A4060000 		.4byte	.LASF49
 542 0271 04       		.byte	0x4
 543 0272 08       		.byte	0x8
 544 0273 7C       		.byte	0x7c
 545 0274 85020000 		.4byte	0x285
 546 0278 08       		.uleb128 0x8
 547 0279 C8000000 		.4byte	.LASF50
 548 027d 08       		.byte	0x8
 549 027e 7D       		.byte	0x7d
 550 027f 5B020000 		.4byte	0x25b
 551 0283 00       		.byte	0
 552 0284 00       		.byte	0
 553 0285 03       		.uleb128 0x3
 554 0286 E5070000 		.4byte	.LASF51
 555 028a 07       		.byte	0x7
 556 028b 45       		.byte	0x45
 557 028c 90020000 		.4byte	0x290
 558 0290 07       		.uleb128 0x7
 559 0291 CD000000 		.4byte	.LASF52
 560 0295 08       		.byte	0x8
 561 0296 08       		.byte	0x8
 562 0297 83       		.byte	0x83
 563 0298 B5020000 		.4byte	0x2b5
 564 029c 08       		.uleb128 0x8
 565 029d C8000000 		.4byte	.LASF50
 566 02a1 08       		.byte	0x8
 567 02a2 84       		.byte	0x84
 568 02a3 5B020000 		.4byte	0x25b
 569 02a7 00       		.byte	0
 570 02a8 08       		.uleb128 0x8
ARM GAS  /tmp/cc1CSJEq.s 			page 11


 571 02a9 47000000 		.4byte	.LASF53
 572 02ad 08       		.byte	0x8
 573 02ae 85       		.byte	0x85
 574 02af 5B020000 		.4byte	0x25b
 575 02b3 04       		.byte	0x4
 576 02b4 00       		.byte	0
 577 02b5 03       		.uleb128 0x3
 578 02b6 00000000 		.4byte	.LASF54
 579 02ba 07       		.byte	0x7
 580 02bb 4C       		.byte	0x4c
 581 02bc C0020000 		.4byte	0x2c0
 582 02c0 0D       		.uleb128 0xd
 583 02c1 14040000 		.4byte	.LASF55
 584 02c5 1C       		.byte	0x1c
 585 02c6 08       		.byte	0x8
 586 02c7 5E01     		.2byte	0x15e
 587 02c9 1C030000 		.4byte	0x31c
 588 02cd 0B       		.uleb128 0xb
 589 02ce BE040000 		.4byte	.LASF31
 590 02d2 08       		.byte	0x8
 591 02d3 5F01     		.2byte	0x15f
 592 02d5 85020000 		.4byte	0x285
 593 02d9 00       		.byte	0
 594 02da 0B       		.uleb128 0xb
 595 02db 17050000 		.4byte	.LASF32
 596 02df 08       		.byte	0x8
 597 02e0 6001     		.2byte	0x160
 598 02e2 30010000 		.4byte	0x130
 599 02e6 08       		.byte	0x8
 600 02e7 0A       		.uleb128 0xa
 601 02e8 63747800 		.ascii	"ctx\000"
 602 02ec 08       		.byte	0x8
 603 02ed 6201     		.2byte	0x162
 604 02ef F8060000 		.4byte	0x6f8
 605 02f3 0C       		.byte	0xc
 606 02f4 0B       		.uleb128 0xb
 607 02f5 58040000 		.4byte	.LASF33
 608 02f9 08       		.byte	0x8
 609 02fa 6501     		.2byte	0x165
 610 02fc 5B020000 		.4byte	0x25b
 611 0300 10       		.byte	0x10
 612 0301 0B       		.uleb128 0xb
 613 0302 D8060000 		.4byte	.LASF34
 614 0306 08       		.byte	0x8
 615 0307 6601     		.2byte	0x166
 616 0309 5B020000 		.4byte	0x25b
 617 030d 14       		.byte	0x14
 618 030e 0B       		.uleb128 0xb
 619 030f 25050000 		.4byte	.LASF56
 620 0313 08       		.byte	0x8
 621 0314 6901     		.2byte	0x169
 622 0316 5B020000 		.4byte	0x25b
 623 031a 18       		.byte	0x18
 624 031b 00       		.byte	0
 625 031c 03       		.uleb128 0x3
 626 031d 25070000 		.4byte	.LASF57
 627 0321 07       		.byte	0x7
ARM GAS  /tmp/cc1CSJEq.s 			page 12


 628 0322 51       		.byte	0x51
 629 0323 27030000 		.4byte	0x327
 630 0327 0C       		.uleb128 0xc
 631 0328 04       		.byte	0x4
 632 0329 2D030000 		.4byte	0x32d
 633 032d 0E       		.uleb128 0xe
 634 032e 38030000 		.4byte	0x338
 635 0332 0F       		.uleb128 0xf
 636 0333 38030000 		.4byte	0x338
 637 0337 00       		.byte	0
 638 0338 10       		.uleb128 0x10
 639 0339 04       		.byte	0x4
 640 033a 03       		.uleb128 0x3
 641 033b 65050000 		.4byte	.LASF58
 642 033f 07       		.byte	0x7
 643 0340 56       		.byte	0x56
 644 0341 45030000 		.4byte	0x345
 645 0345 0D       		.uleb128 0xd
 646 0346 52060000 		.4byte	.LASF59
 647 034a 14       		.byte	0x14
 648 034b 08       		.byte	0x8
 649 034c 3901     		.2byte	0x139
 650 034e 94030000 		.4byte	0x394
 651 0352 0B       		.uleb128 0xb
 652 0353 C8000000 		.4byte	.LASF50
 653 0357 08       		.byte	0x8
 654 0358 3A01     		.2byte	0x13a
 655 035a C60A0000 		.4byte	0xac6
 656 035e 00       		.byte	0
 657 035f 0B       		.uleb128 0xb
 658 0360 47000000 		.4byte	.LASF53
 659 0364 08       		.byte	0x8
 660 0365 3B01     		.2byte	0x13b
 661 0367 C60A0000 		.4byte	0xac6
 662 036b 04       		.byte	0x4
 663 036c 0B       		.uleb128 0xb
 664 036d 14000000 		.4byte	.LASF60
 665 0371 08       		.byte	0x8
 666 0372 3C01     		.2byte	0x13c
 667 0374 6B040000 		.4byte	0x46b
 668 0378 08       		.byte	0x8
 669 0379 0B       		.uleb128 0xb
 670 037a 51020000 		.4byte	.LASF61
 671 037e 08       		.byte	0x8
 672 037f 3D01     		.2byte	0x13d
 673 0381 1C030000 		.4byte	0x31c
 674 0385 0C       		.byte	0xc
 675 0386 0A       		.uleb128 0xa
 676 0387 70617200 		.ascii	"par\000"
 677 038b 08       		.byte	0x8
 678 038c 3F01     		.2byte	0x13f
 679 038e 38030000 		.4byte	0x338
 680 0392 10       		.byte	0x10
 681 0393 00       		.byte	0
 682 0394 03       		.uleb128 0x3
 683 0395 AC000000 		.4byte	.LASF62
 684 0399 07       		.byte	0x7
ARM GAS  /tmp/cc1CSJEq.s 			page 13


 685 039a 5B       		.byte	0x5b
 686 039b 9F030000 		.4byte	0x39f
 687 039f 0D       		.uleb128 0xd
 688 03a0 9B040000 		.4byte	.LASF63
 689 03a4 10       		.byte	0x10
 690 03a5 08       		.byte	0x8
 691 03a6 4901     		.2byte	0x149
 692 03a8 E1030000 		.4byte	0x3e1
 693 03ac 0B       		.uleb128 0xb
 694 03ad C8000000 		.4byte	.LASF50
 695 03b1 08       		.byte	0x8
 696 03b2 4A01     		.2byte	0x14a
 697 03b4 C60A0000 		.4byte	0xac6
 698 03b8 00       		.byte	0
 699 03b9 0B       		.uleb128 0xb
 700 03ba 47000000 		.4byte	.LASF53
 701 03be 08       		.byte	0x8
 702 03bf 4C01     		.2byte	0x14c
 703 03c1 C60A0000 		.4byte	0xac6
 704 03c5 04       		.byte	0x4
 705 03c6 0B       		.uleb128 0xb
 706 03c7 14000000 		.4byte	.LASF60
 707 03cb 08       		.byte	0x8
 708 03cc 4E01     		.2byte	0x14e
 709 03ce 6B040000 		.4byte	0x46b
 710 03d2 08       		.byte	0x8
 711 03d3 0B       		.uleb128 0xb
 712 03d4 F7050000 		.4byte	.LASF64
 713 03d8 08       		.byte	0x8
 714 03d9 5601     		.2byte	0x156
 715 03db 60040000 		.4byte	0x460
 716 03df 0C       		.byte	0xc
 717 03e0 00       		.byte	0
 718 03e1 03       		.uleb128 0x3
 719 03e2 58000000 		.4byte	.LASF65
 720 03e6 07       		.byte	0x7
 721 03e7 60       		.byte	0x60
 722 03e8 EC030000 		.4byte	0x3ec
 723 03ec 0D       		.uleb128 0xd
 724 03ed B1020000 		.4byte	.LASF66
 725 03f1 04       		.byte	0x4
 726 03f2 08       		.byte	0x8
 727 03f3 7001     		.2byte	0x170
 728 03f5 07040000 		.4byte	0x407
 729 03f9 0B       		.uleb128 0xb
 730 03fa 3C070000 		.4byte	.LASF67
 731 03fe 08       		.byte	0x8
 732 03ff 7801     		.2byte	0x178
 733 0401 AF0A0000 		.4byte	0xaaf
 734 0405 00       		.byte	0
 735 0406 00       		.byte	0
 736 0407 03       		.uleb128 0x3
 737 0408 82070000 		.4byte	.LASF68
 738 040c 07       		.byte	0x7
 739 040d 65       		.byte	0x65
 740 040e 12040000 		.4byte	0x412
 741 0412 0D       		.uleb128 0xd
ARM GAS  /tmp/cc1CSJEq.s 			page 14


 742 0413 0C060000 		.4byte	.LASF69
 743 0417 78       		.byte	0x78
 744 0418 08       		.byte	0x8
 745 0419 9001     		.2byte	0x190
 746 041b 60040000 		.4byte	0x460
 747 041f 0B       		.uleb128 0xb
 748 0420 C9020000 		.4byte	.LASF70
 749 0424 08       		.byte	0x8
 750 0425 9401     		.2byte	0x194
 751 0427 B5020000 		.4byte	0x2b5
 752 042b 00       		.byte	0
 753 042c 0B       		.uleb128 0xb
 754 042d 1D020000 		.4byte	.LASF71
 755 0431 08       		.byte	0x8
 756 0432 9801     		.2byte	0x198
 757 0434 94030000 		.4byte	0x394
 758 0438 1C       		.byte	0x1c
 759 0439 0A       		.uleb128 0xa
 760 043a 64626700 		.ascii	"dbg\000"
 761 043e 08       		.byte	0x8
 762 043f 9C01     		.2byte	0x19c
 763 0441 E1030000 		.4byte	0x3e1
 764 0445 2C       		.byte	0x2c
 765 0446 0B       		.uleb128 0xb
 766 0447 99000000 		.4byte	.LASF72
 767 044b 08       		.byte	0x8
 768 044c A001     		.2byte	0x1a0
 769 044e 67010000 		.4byte	0x167
 770 0452 30       		.byte	0x30
 771 0453 0A       		.uleb128 0xa
 772 0454 746D00   		.ascii	"tm\000"
 773 0457 08       		.byte	0x8
 774 0458 A501     		.2byte	0x1a5
 775 045a C8090000 		.4byte	0x9c8
 776 045e 74       		.byte	0x74
 777 045f 00       		.byte	0
 778 0460 03       		.uleb128 0x3
 779 0461 1B070000 		.4byte	.LASF73
 780 0465 09       		.byte	0x9
 781 0466 6D       		.byte	0x6d
 782 0467 E4000000 		.4byte	0xe4
 783 046b 03       		.uleb128 0x3
 784 046c E8020000 		.4byte	.LASF74
 785 0470 09       		.byte	0x9
 786 0471 79       		.byte	0x79
 787 0472 E4000000 		.4byte	0xe4
 788 0476 04       		.uleb128 0x4
 789 0477 04       		.byte	0x4
 790 0478 07       		.byte	0x7
 791 0479 84040000 		.4byte	.LASF75
 792 047d 11       		.uleb128 0x11
 793 047e 8C       		.byte	0x8c
 794 047f 0A       		.byte	0xa
 795 0480 B801     		.2byte	0x1b8
 796 0482 98050000 		.4byte	0x598
 797 0486 0B       		.uleb128 0xb
 798 0487 C2000000 		.4byte	.LASF76
ARM GAS  /tmp/cc1CSJEq.s 			page 15


 799 048b 0A       		.byte	0xa
 800 048c BA01     		.2byte	0x1ba
 801 048e F4000000 		.4byte	0xf4
 802 0492 00       		.byte	0
 803 0493 0B       		.uleb128 0xb
 804 0494 BA030000 		.4byte	.LASF77
 805 0498 0A       		.byte	0xa
 806 0499 BB01     		.2byte	0x1bb
 807 049b EF000000 		.4byte	0xef
 808 049f 04       		.byte	0x4
 809 04a0 0B       		.uleb128 0xb
 810 04a1 8E030000 		.4byte	.LASF78
 811 04a5 0A       		.byte	0xa
 812 04a6 BC01     		.2byte	0x1bc
 813 04a8 EF000000 		.4byte	0xef
 814 04ac 08       		.byte	0x8
 815 04ad 0B       		.uleb128 0xb
 816 04ae C5030000 		.4byte	.LASF79
 817 04b2 0A       		.byte	0xa
 818 04b3 BD01     		.2byte	0x1bd
 819 04b5 EF000000 		.4byte	0xef
 820 04b9 0C       		.byte	0xc
 821 04ba 0A       		.uleb128 0xa
 822 04bb 53435200 		.ascii	"SCR\000"
 823 04bf 0A       		.byte	0xa
 824 04c0 BE01     		.2byte	0x1be
 825 04c2 EF000000 		.4byte	0xef
 826 04c6 10       		.byte	0x10
 827 04c7 0A       		.uleb128 0xa
 828 04c8 43435200 		.ascii	"CCR\000"
 829 04cc 0A       		.byte	0xa
 830 04cd BF01     		.2byte	0x1bf
 831 04cf EF000000 		.4byte	0xef
 832 04d3 14       		.byte	0x14
 833 04d4 0A       		.uleb128 0xa
 834 04d5 53485000 		.ascii	"SHP\000"
 835 04d9 0A       		.byte	0xa
 836 04da C001     		.2byte	0x1c0
 837 04dc A8050000 		.4byte	0x5a8
 838 04e0 18       		.byte	0x18
 839 04e1 0B       		.uleb128 0xb
 840 04e2 D5050000 		.4byte	.LASF80
 841 04e6 0A       		.byte	0xa
 842 04e7 C101     		.2byte	0x1c1
 843 04e9 EF000000 		.4byte	0xef
 844 04ed 24       		.byte	0x24
 845 04ee 0B       		.uleb128 0xb
 846 04ef D0040000 		.4byte	.LASF81
 847 04f3 0A       		.byte	0xa
 848 04f4 C201     		.2byte	0x1c2
 849 04f6 EF000000 		.4byte	0xef
 850 04fa 28       		.byte	0x28
 851 04fb 0B       		.uleb128 0xb
 852 04fc A7080000 		.4byte	.LASF82
 853 0500 0A       		.byte	0xa
 854 0501 C301     		.2byte	0x1c3
 855 0503 EF000000 		.4byte	0xef
ARM GAS  /tmp/cc1CSJEq.s 			page 16


 856 0507 2C       		.byte	0x2c
 857 0508 0B       		.uleb128 0xb
 858 0509 CB030000 		.4byte	.LASF83
 859 050d 0A       		.byte	0xa
 860 050e C401     		.2byte	0x1c4
 861 0510 EF000000 		.4byte	0xef
 862 0514 30       		.byte	0x30
 863 0515 0B       		.uleb128 0xb
 864 0516 EB030000 		.4byte	.LASF84
 865 051a 0A       		.byte	0xa
 866 051b C501     		.2byte	0x1c5
 867 051d EF000000 		.4byte	0xef
 868 0521 34       		.byte	0x34
 869 0522 0B       		.uleb128 0xb
 870 0523 B5030000 		.4byte	.LASF85
 871 0527 0A       		.byte	0xa
 872 0528 C601     		.2byte	0x1c6
 873 052a EF000000 		.4byte	0xef
 874 052e 38       		.byte	0x38
 875 052f 0B       		.uleb128 0xb
 876 0530 8F020000 		.4byte	.LASF86
 877 0534 0A       		.byte	0xa
 878 0535 C701     		.2byte	0x1c7
 879 0537 EF000000 		.4byte	0xef
 880 053b 3C       		.byte	0x3c
 881 053c 0A       		.uleb128 0xa
 882 053d 50465200 		.ascii	"PFR\000"
 883 0541 0A       		.byte	0xa
 884 0542 C801     		.2byte	0x1c8
 885 0544 C2050000 		.4byte	0x5c2
 886 0548 40       		.byte	0x40
 887 0549 0A       		.uleb128 0xa
 888 054a 44465200 		.ascii	"DFR\000"
 889 054e 0A       		.byte	0xa
 890 054f C901     		.2byte	0x1c9
 891 0551 F4000000 		.4byte	0xf4
 892 0555 48       		.byte	0x48
 893 0556 0A       		.uleb128 0xa
 894 0557 41445200 		.ascii	"ADR\000"
 895 055b 0A       		.byte	0xa
 896 055c CA01     		.2byte	0x1ca
 897 055e F4000000 		.4byte	0xf4
 898 0562 4C       		.byte	0x4c
 899 0563 0B       		.uleb128 0xb
 900 0564 01080000 		.4byte	.LASF87
 901 0568 0A       		.byte	0xa
 902 0569 CB01     		.2byte	0x1cb
 903 056b DC050000 		.4byte	0x5dc
 904 056f 50       		.byte	0x50
 905 0570 0B       		.uleb128 0xb
 906 0571 10020000 		.4byte	.LASF88
 907 0575 0A       		.byte	0xa
 908 0576 CC01     		.2byte	0x1cc
 909 0578 F6050000 		.4byte	0x5f6
 910 057c 60       		.byte	0x60
 911 057d 0B       		.uleb128 0xb
 912 057e 56050000 		.4byte	.LASF89
ARM GAS  /tmp/cc1CSJEq.s 			page 17


 913 0582 0A       		.byte	0xa
 914 0583 CD01     		.2byte	0x1cd
 915 0585 FB050000 		.4byte	0x5fb
 916 0589 74       		.byte	0x74
 917 058a 0B       		.uleb128 0xb
 918 058b A1080000 		.4byte	.LASF90
 919 058f 0A       		.byte	0xa
 920 0590 CE01     		.2byte	0x1ce
 921 0592 EF000000 		.4byte	0xef
 922 0596 88       		.byte	0x88
 923 0597 00       		.byte	0
 924 0598 12       		.uleb128 0x12
 925 0599 BF000000 		.4byte	0xbf
 926 059d A8050000 		.4byte	0x5a8
 927 05a1 13       		.uleb128 0x13
 928 05a2 76040000 		.4byte	0x476
 929 05a6 0B       		.byte	0xb
 930 05a7 00       		.byte	0
 931 05a8 05       		.uleb128 0x5
 932 05a9 98050000 		.4byte	0x598
 933 05ad 12       		.uleb128 0x12
 934 05ae F4000000 		.4byte	0xf4
 935 05b2 BD050000 		.4byte	0x5bd
 936 05b6 13       		.uleb128 0x13
 937 05b7 76040000 		.4byte	0x476
 938 05bb 01       		.byte	0x1
 939 05bc 00       		.byte	0
 940 05bd 06       		.uleb128 0x6
 941 05be AD050000 		.4byte	0x5ad
 942 05c2 05       		.uleb128 0x5
 943 05c3 BD050000 		.4byte	0x5bd
 944 05c7 12       		.uleb128 0x12
 945 05c8 F4000000 		.4byte	0xf4
 946 05cc D7050000 		.4byte	0x5d7
 947 05d0 13       		.uleb128 0x13
 948 05d1 76040000 		.4byte	0x476
 949 05d5 03       		.byte	0x3
 950 05d6 00       		.byte	0
 951 05d7 06       		.uleb128 0x6
 952 05d8 C7050000 		.4byte	0x5c7
 953 05dc 05       		.uleb128 0x5
 954 05dd D7050000 		.4byte	0x5d7
 955 05e1 12       		.uleb128 0x12
 956 05e2 F4000000 		.4byte	0xf4
 957 05e6 F1050000 		.4byte	0x5f1
 958 05ea 13       		.uleb128 0x13
 959 05eb 76040000 		.4byte	0x476
 960 05ef 04       		.byte	0x4
 961 05f0 00       		.byte	0
 962 05f1 06       		.uleb128 0x6
 963 05f2 E1050000 		.4byte	0x5e1
 964 05f6 05       		.uleb128 0x5
 965 05f7 F1050000 		.4byte	0x5f1
 966 05fb 12       		.uleb128 0x12
 967 05fc E4000000 		.4byte	0xe4
 968 0600 0B060000 		.4byte	0x60b
 969 0604 13       		.uleb128 0x13
ARM GAS  /tmp/cc1CSJEq.s 			page 18


 970 0605 76040000 		.4byte	0x476
 971 0609 04       		.byte	0x4
 972 060a 00       		.byte	0
 973 060b 14       		.uleb128 0x14
 974 060c A8020000 		.4byte	.LASF91
 975 0610 0A       		.byte	0xa
 976 0611 CF01     		.2byte	0x1cf
 977 0613 7D040000 		.4byte	0x47d
 978 0617 12       		.uleb128 0x12
 979 0618 E4000000 		.4byte	0xe4
 980 061c 27060000 		.4byte	0x627
 981 0620 13       		.uleb128 0x13
 982 0621 76040000 		.4byte	0x476
 983 0625 00       		.byte	0
 984 0626 00       		.byte	0
 985 0627 11       		.uleb128 0x11
 986 0628 18       		.byte	0x18
 987 0629 0A       		.byte	0xa
 988 062a 2705     		.2byte	0x527
 989 062c 7F060000 		.4byte	0x67f
 990 0630 0B       		.uleb128 0xb
 991 0631 56050000 		.4byte	.LASF89
 992 0635 0A       		.byte	0xa
 993 0636 2905     		.2byte	0x529
 994 0638 17060000 		.4byte	0x617
 995 063c 00       		.byte	0
 996 063d 0B       		.uleb128 0xb
 997 063e 7E040000 		.4byte	.LASF92
 998 0642 0A       		.byte	0xa
 999 0643 2A05     		.2byte	0x52a
 1000 0645 EF000000 		.4byte	0xef
 1001 0649 04       		.byte	0x4
 1002 064a 0B       		.uleb128 0xb
 1003 064b 37060000 		.4byte	.LASF93
 1004 064f 0A       		.byte	0xa
 1005 0650 2B05     		.2byte	0x52b
 1006 0652 EF000000 		.4byte	0xef
 1007 0656 08       		.byte	0x8
 1008 0657 0B       		.uleb128 0xb
 1009 0658 21000000 		.4byte	.LASF94
 1010 065c 0A       		.byte	0xa
 1011 065d 2C05     		.2byte	0x52c
 1012 065f EF000000 		.4byte	0xef
 1013 0663 0C       		.byte	0xc
 1014 0664 0B       		.uleb128 0xb
 1015 0665 42050000 		.4byte	.LASF95
 1016 0669 0A       		.byte	0xa
 1017 066a 2D05     		.2byte	0x52d
 1018 066c F4000000 		.4byte	0xf4
 1019 0670 10       		.byte	0x10
 1020 0671 0B       		.uleb128 0xb
 1021 0672 48050000 		.4byte	.LASF96
 1022 0676 0A       		.byte	0xa
 1023 0677 2E05     		.2byte	0x52e
 1024 0679 F4000000 		.4byte	0xf4
 1025 067d 14       		.byte	0x14
 1026 067e 00       		.byte	0
ARM GAS  /tmp/cc1CSJEq.s 			page 19


 1027 067f 14       		.uleb128 0x14
 1028 0680 FC020000 		.4byte	.LASF97
 1029 0684 0A       		.byte	0xa
 1030 0685 2F05     		.2byte	0x52f
 1031 0687 27060000 		.4byte	0x627
 1032 068b 15       		.uleb128 0x15
 1033 068c DB050000 		.4byte	.LASF98
 1034 0690 0A       		.byte	0xa
 1035 0691 0408     		.2byte	0x804
 1036 0693 DF000000 		.4byte	0xdf
 1037 0697 16       		.uleb128 0x16
 1038 0698 25030000 		.4byte	.LASF99
 1039 069c 0B       		.byte	0xb
 1040 069d 4C       		.byte	0x4c
 1041 069e E4000000 		.4byte	0xe4
 1042 06a2 12       		.uleb128 0x12
 1043 06a3 C4000000 		.4byte	0xc4
 1044 06a7 B2060000 		.4byte	0x6b2
 1045 06ab 13       		.uleb128 0x13
 1046 06ac 76040000 		.4byte	0x476
 1047 06b0 0F       		.byte	0xf
 1048 06b1 00       		.byte	0
 1049 06b2 06       		.uleb128 0x6
 1050 06b3 A2060000 		.4byte	0x6a2
 1051 06b7 16       		.uleb128 0x16
 1052 06b8 2E040000 		.4byte	.LASF100
 1053 06bc 0B       		.byte	0xb
 1054 06bd 4E       		.byte	0x4e
 1055 06be B2060000 		.4byte	0x6b2
 1056 06c2 12       		.uleb128 0x12
 1057 06c3 C4000000 		.4byte	0xc4
 1058 06c7 D2060000 		.4byte	0x6d2
 1059 06cb 13       		.uleb128 0x13
 1060 06cc 76040000 		.4byte	0x476
 1061 06d0 07       		.byte	0x7
 1062 06d1 00       		.byte	0
 1063 06d2 06       		.uleb128 0x6
 1064 06d3 C2060000 		.4byte	0x6c2
 1065 06d7 16       		.uleb128 0x16
 1066 06d8 DF040000 		.4byte	.LASF101
 1067 06dc 0B       		.byte	0xb
 1068 06dd 4F       		.byte	0x4f
 1069 06de D2060000 		.4byte	0x6d2
 1070 06e2 03       		.uleb128 0x3
 1071 06e3 9F020000 		.4byte	.LASF102
 1072 06e7 0C       		.byte	0xc
 1073 06e8 65       		.byte	0x65
 1074 06e9 38030000 		.4byte	0x338
 1075 06ed 03       		.uleb128 0x3
 1076 06ee 4D040000 		.4byte	.LASF103
 1077 06f2 0C       		.byte	0xc
 1078 06f3 6D       		.byte	0x6d
 1079 06f4 F9000000 		.4byte	0xf9
 1080 06f8 07       		.uleb128 0x7
 1081 06f9 ED040000 		.4byte	.LASF104
 1082 06fd 04       		.byte	0x4
 1083 06fe 0C       		.byte	0xc
ARM GAS  /tmp/cc1CSJEq.s 			page 20


 1084 06ff 89       		.byte	0x89
 1085 0700 10070000 		.4byte	0x710
 1086 0704 09       		.uleb128 0x9
 1087 0705 737000   		.ascii	"sp\000"
 1088 0708 0C       		.byte	0xc
 1089 0709 8A       		.byte	0x8a
 1090 070a 5C080000 		.4byte	0x85c
 1091 070e 00       		.byte	0
 1092 070f 00       		.byte	0
 1093 0710 0D       		.uleb128 0xd
 1094 0711 4C000000 		.4byte	.LASF105
 1095 0715 64       		.byte	0x64
 1096 0716 0D       		.byte	0xd
 1097 0717 5901     		.2byte	0x159
 1098 0719 5C080000 		.4byte	0x85c
 1099 071d 0A       		.uleb128 0xa
 1100 071e 73313600 		.ascii	"s16\000"
 1101 0722 0D       		.byte	0xd
 1102 0723 5B01     		.2byte	0x15b
 1103 0725 E2060000 		.4byte	0x6e2
 1104 0729 00       		.byte	0
 1105 072a 0A       		.uleb128 0xa
 1106 072b 73313700 		.ascii	"s17\000"
 1107 072f 0D       		.byte	0xd
 1108 0730 5C01     		.2byte	0x15c
 1109 0732 E2060000 		.4byte	0x6e2
 1110 0736 04       		.byte	0x4
 1111 0737 0A       		.uleb128 0xa
 1112 0738 73313800 		.ascii	"s18\000"
 1113 073c 0D       		.byte	0xd
 1114 073d 5D01     		.2byte	0x15d
 1115 073f E2060000 		.4byte	0x6e2
 1116 0743 08       		.byte	0x8
 1117 0744 0A       		.uleb128 0xa
 1118 0745 73313900 		.ascii	"s19\000"
 1119 0749 0D       		.byte	0xd
 1120 074a 5E01     		.2byte	0x15e
 1121 074c E2060000 		.4byte	0x6e2
 1122 0750 0C       		.byte	0xc
 1123 0751 0A       		.uleb128 0xa
 1124 0752 73323000 		.ascii	"s20\000"
 1125 0756 0D       		.byte	0xd
 1126 0757 5F01     		.2byte	0x15f
 1127 0759 E2060000 		.4byte	0x6e2
 1128 075d 10       		.byte	0x10
 1129 075e 0A       		.uleb128 0xa
 1130 075f 73323100 		.ascii	"s21\000"
 1131 0763 0D       		.byte	0xd
 1132 0764 6001     		.2byte	0x160
 1133 0766 E2060000 		.4byte	0x6e2
 1134 076a 14       		.byte	0x14
 1135 076b 0A       		.uleb128 0xa
 1136 076c 73323200 		.ascii	"s22\000"
 1137 0770 0D       		.byte	0xd
 1138 0771 6101     		.2byte	0x161
 1139 0773 E2060000 		.4byte	0x6e2
 1140 0777 18       		.byte	0x18
ARM GAS  /tmp/cc1CSJEq.s 			page 21


 1141 0778 0A       		.uleb128 0xa
 1142 0779 73323300 		.ascii	"s23\000"
 1143 077d 0D       		.byte	0xd
 1144 077e 6201     		.2byte	0x162
 1145 0780 E2060000 		.4byte	0x6e2
 1146 0784 1C       		.byte	0x1c
 1147 0785 0A       		.uleb128 0xa
 1148 0786 73323400 		.ascii	"s24\000"
 1149 078a 0D       		.byte	0xd
 1150 078b 6301     		.2byte	0x163
 1151 078d E2060000 		.4byte	0x6e2
 1152 0791 20       		.byte	0x20
 1153 0792 0A       		.uleb128 0xa
 1154 0793 73323500 		.ascii	"s25\000"
 1155 0797 0D       		.byte	0xd
 1156 0798 6401     		.2byte	0x164
 1157 079a E2060000 		.4byte	0x6e2
 1158 079e 24       		.byte	0x24
 1159 079f 0A       		.uleb128 0xa
 1160 07a0 73323600 		.ascii	"s26\000"
 1161 07a4 0D       		.byte	0xd
 1162 07a5 6501     		.2byte	0x165
 1163 07a7 E2060000 		.4byte	0x6e2
 1164 07ab 28       		.byte	0x28
 1165 07ac 0A       		.uleb128 0xa
 1166 07ad 73323700 		.ascii	"s27\000"
 1167 07b1 0D       		.byte	0xd
 1168 07b2 6601     		.2byte	0x166
 1169 07b4 E2060000 		.4byte	0x6e2
 1170 07b8 2C       		.byte	0x2c
 1171 07b9 0A       		.uleb128 0xa
 1172 07ba 73323800 		.ascii	"s28\000"
 1173 07be 0D       		.byte	0xd
 1174 07bf 6701     		.2byte	0x167
 1175 07c1 E2060000 		.4byte	0x6e2
 1176 07c5 30       		.byte	0x30
 1177 07c6 0A       		.uleb128 0xa
 1178 07c7 73323900 		.ascii	"s29\000"
 1179 07cb 0D       		.byte	0xd
 1180 07cc 6801     		.2byte	0x168
 1181 07ce E2060000 		.4byte	0x6e2
 1182 07d2 34       		.byte	0x34
 1183 07d3 0A       		.uleb128 0xa
 1184 07d4 73333000 		.ascii	"s30\000"
 1185 07d8 0D       		.byte	0xd
 1186 07d9 6901     		.2byte	0x169
 1187 07db E2060000 		.4byte	0x6e2
 1188 07df 38       		.byte	0x38
 1189 07e0 0A       		.uleb128 0xa
 1190 07e1 73333100 		.ascii	"s31\000"
 1191 07e5 0D       		.byte	0xd
 1192 07e6 6A01     		.2byte	0x16a
 1193 07e8 E2060000 		.4byte	0x6e2
 1194 07ec 3C       		.byte	0x3c
 1195 07ed 0A       		.uleb128 0xa
 1196 07ee 723400   		.ascii	"r4\000"
 1197 07f1 0D       		.byte	0xd
ARM GAS  /tmp/cc1CSJEq.s 			page 22


 1198 07f2 6C01     		.2byte	0x16c
 1199 07f4 E2060000 		.4byte	0x6e2
 1200 07f8 40       		.byte	0x40
 1201 07f9 0A       		.uleb128 0xa
 1202 07fa 723500   		.ascii	"r5\000"
 1203 07fd 0D       		.byte	0xd
 1204 07fe 6D01     		.2byte	0x16d
 1205 0800 E2060000 		.4byte	0x6e2
 1206 0804 44       		.byte	0x44
 1207 0805 0A       		.uleb128 0xa
 1208 0806 723600   		.ascii	"r6\000"
 1209 0809 0D       		.byte	0xd
 1210 080a 6E01     		.2byte	0x16e
 1211 080c E2060000 		.4byte	0x6e2
 1212 0810 48       		.byte	0x48
 1213 0811 0A       		.uleb128 0xa
 1214 0812 723700   		.ascii	"r7\000"
 1215 0815 0D       		.byte	0xd
 1216 0816 6F01     		.2byte	0x16f
 1217 0818 E2060000 		.4byte	0x6e2
 1218 081c 4C       		.byte	0x4c
 1219 081d 0A       		.uleb128 0xa
 1220 081e 723800   		.ascii	"r8\000"
 1221 0821 0D       		.byte	0xd
 1222 0822 7001     		.2byte	0x170
 1223 0824 E2060000 		.4byte	0x6e2
 1224 0828 50       		.byte	0x50
 1225 0829 0A       		.uleb128 0xa
 1226 082a 723900   		.ascii	"r9\000"
 1227 082d 0D       		.byte	0xd
 1228 082e 7101     		.2byte	0x171
 1229 0830 E2060000 		.4byte	0x6e2
 1230 0834 54       		.byte	0x54
 1231 0835 0A       		.uleb128 0xa
 1232 0836 72313000 		.ascii	"r10\000"
 1233 083a 0D       		.byte	0xd
 1234 083b 7201     		.2byte	0x172
 1235 083d E2060000 		.4byte	0x6e2
 1236 0841 58       		.byte	0x58
 1237 0842 0A       		.uleb128 0xa
 1238 0843 72313100 		.ascii	"r11\000"
 1239 0847 0D       		.byte	0xd
 1240 0848 7301     		.2byte	0x173
 1241 084a E2060000 		.4byte	0x6e2
 1242 084e 5C       		.byte	0x5c
 1243 084f 0A       		.uleb128 0xa
 1244 0850 6C7200   		.ascii	"lr\000"
 1245 0853 0D       		.byte	0xd
 1246 0854 7401     		.2byte	0x174
 1247 0856 E2060000 		.4byte	0x6e2
 1248 085a 60       		.byte	0x60
 1249 085b 00       		.byte	0
 1250 085c 0C       		.uleb128 0xc
 1251 085d 04       		.byte	0x4
 1252 085e 10070000 		.4byte	0x710
 1253 0862 0D       		.uleb128 0xd
 1254 0863 FA040000 		.4byte	.LASF106
ARM GAS  /tmp/cc1CSJEq.s 			page 23


 1255 0867 68       		.byte	0x68
 1256 0868 0D       		.byte	0xd
 1257 0869 3A01     		.2byte	0x13a
 1258 086b B3090000 		.4byte	0x9b3
 1259 086f 0A       		.uleb128 0xa
 1260 0870 723000   		.ascii	"r0\000"
 1261 0873 0D       		.byte	0xd
 1262 0874 3B01     		.2byte	0x13b
 1263 0876 E2060000 		.4byte	0x6e2
 1264 087a 00       		.byte	0
 1265 087b 0A       		.uleb128 0xa
 1266 087c 723100   		.ascii	"r1\000"
 1267 087f 0D       		.byte	0xd
 1268 0880 3C01     		.2byte	0x13c
 1269 0882 E2060000 		.4byte	0x6e2
 1270 0886 04       		.byte	0x4
 1271 0887 0A       		.uleb128 0xa
 1272 0888 723200   		.ascii	"r2\000"
 1273 088b 0D       		.byte	0xd
 1274 088c 3D01     		.2byte	0x13d
 1275 088e E2060000 		.4byte	0x6e2
 1276 0892 08       		.byte	0x8
 1277 0893 0A       		.uleb128 0xa
 1278 0894 723300   		.ascii	"r3\000"
 1279 0897 0D       		.byte	0xd
 1280 0898 3E01     		.2byte	0x13e
 1281 089a E2060000 		.4byte	0x6e2
 1282 089e 0C       		.byte	0xc
 1283 089f 0A       		.uleb128 0xa
 1284 08a0 72313200 		.ascii	"r12\000"
 1285 08a4 0D       		.byte	0xd
 1286 08a5 3F01     		.2byte	0x13f
 1287 08a7 E2060000 		.4byte	0x6e2
 1288 08ab 10       		.byte	0x10
 1289 08ac 0B       		.uleb128 0xb
 1290 08ad 27060000 		.4byte	.LASF107
 1291 08b1 0D       		.byte	0xd
 1292 08b2 4001     		.2byte	0x140
 1293 08b4 E2060000 		.4byte	0x6e2
 1294 08b8 14       		.byte	0x14
 1295 08b9 0A       		.uleb128 0xa
 1296 08ba 706300   		.ascii	"pc\000"
 1297 08bd 0D       		.byte	0xd
 1298 08be 4101     		.2byte	0x141
 1299 08c0 E2060000 		.4byte	0x6e2
 1300 08c4 18       		.byte	0x18
 1301 08c5 0B       		.uleb128 0xb
 1302 08c6 00060000 		.4byte	.LASF108
 1303 08ca 0D       		.byte	0xd
 1304 08cb 4201     		.2byte	0x142
 1305 08cd E2060000 		.4byte	0x6e2
 1306 08d1 1C       		.byte	0x1c
 1307 08d2 0A       		.uleb128 0xa
 1308 08d3 733000   		.ascii	"s0\000"
 1309 08d6 0D       		.byte	0xd
 1310 08d7 4401     		.2byte	0x144
 1311 08d9 E2060000 		.4byte	0x6e2
ARM GAS  /tmp/cc1CSJEq.s 			page 24


 1312 08dd 20       		.byte	0x20
 1313 08de 0A       		.uleb128 0xa
 1314 08df 733100   		.ascii	"s1\000"
 1315 08e2 0D       		.byte	0xd
 1316 08e3 4501     		.2byte	0x145
 1317 08e5 E2060000 		.4byte	0x6e2
 1318 08e9 24       		.byte	0x24
 1319 08ea 0A       		.uleb128 0xa
 1320 08eb 733200   		.ascii	"s2\000"
 1321 08ee 0D       		.byte	0xd
 1322 08ef 4601     		.2byte	0x146
 1323 08f1 E2060000 		.4byte	0x6e2
 1324 08f5 28       		.byte	0x28
 1325 08f6 0A       		.uleb128 0xa
 1326 08f7 733300   		.ascii	"s3\000"
 1327 08fa 0D       		.byte	0xd
 1328 08fb 4701     		.2byte	0x147
 1329 08fd E2060000 		.4byte	0x6e2
 1330 0901 2C       		.byte	0x2c
 1331 0902 0A       		.uleb128 0xa
 1332 0903 733400   		.ascii	"s4\000"
 1333 0906 0D       		.byte	0xd
 1334 0907 4801     		.2byte	0x148
 1335 0909 E2060000 		.4byte	0x6e2
 1336 090d 30       		.byte	0x30
 1337 090e 0A       		.uleb128 0xa
 1338 090f 733500   		.ascii	"s5\000"
 1339 0912 0D       		.byte	0xd
 1340 0913 4901     		.2byte	0x149
 1341 0915 E2060000 		.4byte	0x6e2
 1342 0919 34       		.byte	0x34
 1343 091a 0A       		.uleb128 0xa
 1344 091b 733600   		.ascii	"s6\000"
 1345 091e 0D       		.byte	0xd
 1346 091f 4A01     		.2byte	0x14a
 1347 0921 E2060000 		.4byte	0x6e2
 1348 0925 38       		.byte	0x38
 1349 0926 0A       		.uleb128 0xa
 1350 0927 733700   		.ascii	"s7\000"
 1351 092a 0D       		.byte	0xd
 1352 092b 4B01     		.2byte	0x14b
 1353 092d E2060000 		.4byte	0x6e2
 1354 0931 3C       		.byte	0x3c
 1355 0932 0A       		.uleb128 0xa
 1356 0933 733800   		.ascii	"s8\000"
 1357 0936 0D       		.byte	0xd
 1358 0937 4C01     		.2byte	0x14c
 1359 0939 E2060000 		.4byte	0x6e2
 1360 093d 40       		.byte	0x40
 1361 093e 0A       		.uleb128 0xa
 1362 093f 733900   		.ascii	"s9\000"
 1363 0942 0D       		.byte	0xd
 1364 0943 4D01     		.2byte	0x14d
 1365 0945 E2060000 		.4byte	0x6e2
 1366 0949 44       		.byte	0x44
 1367 094a 0A       		.uleb128 0xa
 1368 094b 73313000 		.ascii	"s10\000"
ARM GAS  /tmp/cc1CSJEq.s 			page 25


 1369 094f 0D       		.byte	0xd
 1370 0950 4E01     		.2byte	0x14e
 1371 0952 E2060000 		.4byte	0x6e2
 1372 0956 48       		.byte	0x48
 1373 0957 0A       		.uleb128 0xa
 1374 0958 73313100 		.ascii	"s11\000"
 1375 095c 0D       		.byte	0xd
 1376 095d 4F01     		.2byte	0x14f
 1377 095f E2060000 		.4byte	0x6e2
 1378 0963 4C       		.byte	0x4c
 1379 0964 0A       		.uleb128 0xa
 1380 0965 73313200 		.ascii	"s12\000"
 1381 0969 0D       		.byte	0xd
 1382 096a 5001     		.2byte	0x150
 1383 096c E2060000 		.4byte	0x6e2
 1384 0970 50       		.byte	0x50
 1385 0971 0A       		.uleb128 0xa
 1386 0972 73313300 		.ascii	"s13\000"
 1387 0976 0D       		.byte	0xd
 1388 0977 5101     		.2byte	0x151
 1389 0979 E2060000 		.4byte	0x6e2
 1390 097d 54       		.byte	0x54
 1391 097e 0A       		.uleb128 0xa
 1392 097f 73313400 		.ascii	"s14\000"
 1393 0983 0D       		.byte	0xd
 1394 0984 5201     		.2byte	0x152
 1395 0986 E2060000 		.4byte	0x6e2
 1396 098a 58       		.byte	0x58
 1397 098b 0A       		.uleb128 0xa
 1398 098c 73313500 		.ascii	"s15\000"
 1399 0990 0D       		.byte	0xd
 1400 0991 5301     		.2byte	0x153
 1401 0993 E2060000 		.4byte	0x6e2
 1402 0997 5C       		.byte	0x5c
 1403 0998 0B       		.uleb128 0xb
 1404 0999 16060000 		.4byte	.LASF109
 1405 099d 0D       		.byte	0xd
 1406 099e 5401     		.2byte	0x154
 1407 09a0 E2060000 		.4byte	0x6e2
 1408 09a4 60       		.byte	0x60
 1409 09a5 0B       		.uleb128 0xb
 1410 09a6 99030000 		.4byte	.LASF110
 1411 09aa 0D       		.byte	0xd
 1412 09ab 5501     		.2byte	0x155
 1413 09ad E2060000 		.4byte	0x6e2
 1414 09b1 64       		.byte	0x64
 1415 09b2 00       		.byte	0
 1416 09b3 17       		.uleb128 0x17
 1417 09b4 04       		.byte	0x4
 1418 09b5 0E       		.byte	0xe
 1419 09b6 38       		.byte	0x38
 1420 09b7 C8090000 		.4byte	0x9c8
 1421 09bb 08       		.uleb128 0x8
 1422 09bc 55070000 		.4byte	.LASF111
 1423 09c0 0E       		.byte	0xe
 1424 09c1 3C       		.byte	0x3c
 1425 09c2 04010000 		.4byte	0x104
ARM GAS  /tmp/cc1CSJEq.s 			page 26


 1426 09c6 00       		.byte	0
 1427 09c7 00       		.byte	0
 1428 09c8 03       		.uleb128 0x3
 1429 09c9 06050000 		.4byte	.LASF112
 1430 09cd 0E       		.byte	0xe
 1431 09ce 3D       		.byte	0x3d
 1432 09cf B3090000 		.4byte	0x9b3
 1433 09d3 18       		.uleb128 0x18
 1434 09d4 04       		.byte	0x4
 1435 09d5 08       		.byte	0x8
 1436 09d6 C6       		.byte	0xc6
 1437 09d7 350A0000 		.4byte	0xa35
 1438 09db 19       		.uleb128 0x19
 1439 09dc 1A000000 		.4byte	.LASF113
 1440 09e0 08       		.byte	0x8
 1441 09e1 CD       		.byte	0xcd
 1442 09e2 3B010000 		.4byte	0x13b
 1443 09e6 19       		.uleb128 0x19
 1444 09e7 90000000 		.4byte	.LASF114
 1445 09eb 08       		.byte	0x8
 1446 09ec D4       		.byte	0xd4
 1447 09ed 3B010000 		.4byte	0x13b
 1448 09f1 19       		.uleb128 0x19
 1449 09f2 7E080000 		.4byte	.LASF115
 1450 09f6 08       		.byte	0x8
 1451 09f7 DB       		.byte	0xdb
 1452 09f8 38030000 		.4byte	0x338
 1453 09fc 19       		.uleb128 0x19
 1454 09fd 3C030000 		.4byte	.LASF116
 1455 0a01 08       		.byte	0x8
 1456 0a02 E2       		.byte	0xe2
 1457 0a03 350A0000 		.4byte	0xa35
 1458 0a07 19       		.uleb128 0x19
 1459 0a08 A4000000 		.4byte	.LASF117
 1460 0a0c 08       		.byte	0x8
 1461 0a0d E7       		.byte	0xe7
 1462 0a0e 3B010000 		.4byte	0x13b
 1463 0a12 19       		.uleb128 0x19
 1464 0a13 35030000 		.4byte	.LASF118
 1465 0a17 08       		.byte	0x8
 1466 0a18 F0       		.byte	0xf0
 1467 0a19 600A0000 		.4byte	0xa60
 1468 0a1d 19       		.uleb128 0x19
 1469 0a1e 9D060000 		.4byte	.LASF119
 1470 0a22 08       		.byte	0x8
 1471 0a23 F9       		.byte	0xf9
 1472 0a24 A30A0000 		.4byte	0xaa3
 1473 0a28 1A       		.uleb128 0x1a
 1474 0a29 05060000 		.4byte	.LASF120
 1475 0a2d 08       		.byte	0x8
 1476 0a2e 0101     		.2byte	0x101
 1477 0a30 46010000 		.4byte	0x146
 1478 0a34 00       		.byte	0
 1479 0a35 0C       		.uleb128 0xc
 1480 0a36 04       		.byte	0x4
 1481 0a37 50020000 		.4byte	0x250
 1482 0a3b 07       		.uleb128 0x7
ARM GAS  /tmp/cc1CSJEq.s 			page 27


 1483 0a3c 63060000 		.4byte	.LASF121
 1484 0a40 0C       		.byte	0xc
 1485 0a41 0F       		.byte	0xf
 1486 0a42 34       		.byte	0x34
 1487 0a43 600A0000 		.4byte	0xa60
 1488 0a47 08       		.uleb128 0x8
 1489 0a48 BE040000 		.4byte	.LASF31
 1490 0a4c 0F       		.byte	0xf
 1491 0a4d 35       		.byte	0x35
 1492 0a4e 85020000 		.4byte	0x285
 1493 0a52 00       		.byte	0
 1494 0a53 09       		.uleb128 0x9
 1495 0a54 636E7400 		.ascii	"cnt\000"
 1496 0a58 0F       		.byte	0xf
 1497 0a59 37       		.byte	0x37
 1498 0a5a 51010000 		.4byte	0x151
 1499 0a5e 08       		.byte	0x8
 1500 0a5f 00       		.byte	0
 1501 0a60 0C       		.uleb128 0xc
 1502 0a61 04       		.byte	0x4
 1503 0a62 3B0A0000 		.4byte	0xa3b
 1504 0a66 07       		.uleb128 0x7
 1505 0a67 5C070000 		.4byte	.LASF122
 1506 0a6b 14       		.byte	0x14
 1507 0a6c 10       		.byte	0x10
 1508 0a6d 39       		.byte	0x39
 1509 0a6e A30A0000 		.4byte	0xaa3
 1510 0a72 08       		.uleb128 0x8
 1511 0a73 BE040000 		.4byte	.LASF31
 1512 0a77 10       		.byte	0x10
 1513 0a78 3A       		.byte	0x3a
 1514 0a79 85020000 		.4byte	0x285
 1515 0a7d 00       		.byte	0
 1516 0a7e 08       		.uleb128 0x8
 1517 0a7f B4060000 		.4byte	.LASF123
 1518 0a83 10       		.byte	0x10
 1519 0a84 3C       		.byte	0x3c
 1520 0a85 5B020000 		.4byte	0x25b
 1521 0a89 08       		.byte	0x8
 1522 0a8a 08       		.uleb128 0x8
 1523 0a8b C8000000 		.4byte	.LASF50
 1524 0a8f 10       		.byte	0x10
 1525 0a90 3E       		.byte	0x3e
 1526 0a91 050C0000 		.4byte	0xc05
 1527 0a95 0C       		.byte	0xc
 1528 0a96 09       		.uleb128 0x9
 1529 0a97 636E7400 		.ascii	"cnt\000"
 1530 0a9b 10       		.byte	0x10
 1531 0a9c 41       		.byte	0x41
 1532 0a9d 51010000 		.4byte	0x151
 1533 0aa1 10       		.byte	0x10
 1534 0aa2 00       		.byte	0
 1535 0aa3 0C       		.uleb128 0xc
 1536 0aa4 04       		.byte	0x4
 1537 0aa5 660A0000 		.4byte	0xa66
 1538 0aa9 0C       		.uleb128 0xc
 1539 0aaa 04       		.byte	0x4
ARM GAS  /tmp/cc1CSJEq.s 			page 28


 1540 0aab BB0A0000 		.4byte	0xabb
 1541 0aaf 05       		.uleb128 0x5
 1542 0ab0 A90A0000 		.4byte	0xaa9
 1543 0ab4 04       		.uleb128 0x4
 1544 0ab5 01       		.byte	0x1
 1545 0ab6 08       		.byte	0x8
 1546 0ab7 D3060000 		.4byte	.LASF124
 1547 0abb 06       		.uleb128 0x6
 1548 0abc B40A0000 		.4byte	0xab4
 1549 0ac0 0C       		.uleb128 0xc
 1550 0ac1 04       		.byte	0x4
 1551 0ac2 ED060000 		.4byte	0x6ed
 1552 0ac6 0C       		.uleb128 0xc
 1553 0ac7 04       		.byte	0x4
 1554 0ac8 3A030000 		.4byte	0x33a
 1555 0acc 1B       		.uleb128 0x1b
 1556 0acd 636800   		.ascii	"ch\000"
 1557 0ad0 08       		.byte	0x8
 1558 0ad1 C701     		.2byte	0x1c7
 1559 0ad3 07040000 		.4byte	0x407
 1560 0ad7 12       		.uleb128 0x12
 1561 0ad8 ED060000 		.4byte	0x6ed
 1562 0adc E20A0000 		.4byte	0xae2
 1563 0ae0 1C       		.uleb128 0x1c
 1564 0ae1 00       		.byte	0
 1565 0ae2 15       		.uleb128 0x15
 1566 0ae3 79060000 		.4byte	.LASF125
 1567 0ae7 11       		.byte	0x11
 1568 0ae8 1701     		.2byte	0x117
 1569 0aea D70A0000 		.4byte	0xad7
 1570 0aee 17       		.uleb128 0x17
 1571 0aef 16       		.byte	0x16
 1572 0af0 12       		.byte	0x12
 1573 0af1 34       		.byte	0x34
 1574 0af2 CF0B0000 		.4byte	0xbcf
 1575 0af6 08       		.uleb128 0x8
 1576 0af7 8E070000 		.4byte	.LASF126
 1577 0afb 12       		.byte	0x12
 1578 0afc 35       		.byte	0x35
 1579 0afd CF0B0000 		.4byte	0xbcf
 1580 0b01 00       		.byte	0
 1581 0b02 08       		.uleb128 0x8
 1582 0b03 CF020000 		.4byte	.LASF127
 1583 0b07 12       		.byte	0x12
 1584 0b08 36       		.byte	0x36
 1585 0b09 B4000000 		.4byte	0xb4
 1586 0b0d 04       		.byte	0x4
 1587 0b0e 08       		.uleb128 0x8
 1588 0b0f DE000000 		.4byte	.LASF128
 1589 0b13 12       		.byte	0x12
 1590 0b14 37       		.byte	0x37
 1591 0b15 B4000000 		.4byte	0xb4
 1592 0b19 05       		.byte	0x5
 1593 0b1a 08       		.uleb128 0x8
 1594 0b1b 76040000 		.4byte	.LASF129
 1595 0b1f 12       		.byte	0x12
 1596 0b20 38       		.byte	0x38
ARM GAS  /tmp/cc1CSJEq.s 			page 29


 1597 0b21 C9000000 		.4byte	0xc9
 1598 0b25 06       		.byte	0x6
 1599 0b26 08       		.uleb128 0x8
 1600 0b27 CA070000 		.4byte	.LASF130
 1601 0b2b 12       		.byte	0x12
 1602 0b2c 39       		.byte	0x39
 1603 0b2d B4000000 		.4byte	0xb4
 1604 0b31 08       		.byte	0x8
 1605 0b32 08       		.uleb128 0x8
 1606 0b33 8B060000 		.4byte	.LASF131
 1607 0b37 12       		.byte	0x12
 1608 0b38 3A       		.byte	0x3a
 1609 0b39 B4000000 		.4byte	0xb4
 1610 0b3d 09       		.byte	0x9
 1611 0b3e 08       		.uleb128 0x8
 1612 0b3f 98050000 		.4byte	.LASF132
 1613 0b43 12       		.byte	0x12
 1614 0b44 3B       		.byte	0x3b
 1615 0b45 B4000000 		.4byte	0xb4
 1616 0b49 0A       		.byte	0xa
 1617 0b4a 08       		.uleb128 0x8
 1618 0b4b BF050000 		.4byte	.LASF133
 1619 0b4f 12       		.byte	0x12
 1620 0b50 3C       		.byte	0x3c
 1621 0b51 B4000000 		.4byte	0xb4
 1622 0b55 0B       		.byte	0xb
 1623 0b56 08       		.uleb128 0x8
 1624 0b57 04040000 		.4byte	.LASF134
 1625 0b5b 12       		.byte	0x12
 1626 0b5c 3D       		.byte	0x3d
 1627 0b5d B4000000 		.4byte	0xb4
 1628 0b61 0C       		.byte	0xc
 1629 0b62 08       		.uleb128 0x8
 1630 0b63 D5040000 		.4byte	.LASF135
 1631 0b67 12       		.byte	0x12
 1632 0b68 3E       		.byte	0x3e
 1633 0b69 B4000000 		.4byte	0xb4
 1634 0b6d 0D       		.byte	0xd
 1635 0b6e 08       		.uleb128 0x8
 1636 0b6f 65070000 		.4byte	.LASF136
 1637 0b73 12       		.byte	0x12
 1638 0b74 3F       		.byte	0x3f
 1639 0b75 B4000000 		.4byte	0xb4
 1640 0b79 0E       		.byte	0xe
 1641 0b7a 08       		.uleb128 0x8
 1642 0b7b 06080000 		.4byte	.LASF137
 1643 0b7f 12       		.byte	0x12
 1644 0b80 40       		.byte	0x40
 1645 0b81 B4000000 		.4byte	0xb4
 1646 0b85 0F       		.byte	0xf
 1647 0b86 08       		.uleb128 0x8
 1648 0b87 C8050000 		.4byte	.LASF138
 1649 0b8b 12       		.byte	0x12
 1650 0b8c 41       		.byte	0x41
 1651 0b8d B4000000 		.4byte	0xb4
 1652 0b91 10       		.byte	0x10
 1653 0b92 08       		.uleb128 0x8
ARM GAS  /tmp/cc1CSJEq.s 			page 30


 1654 0b93 85080000 		.4byte	.LASF139
 1655 0b97 12       		.byte	0x12
 1656 0b98 42       		.byte	0x42
 1657 0b99 B4000000 		.4byte	0xb4
 1658 0b9d 11       		.byte	0x11
 1659 0b9e 08       		.uleb128 0x8
 1660 0b9f 61080000 		.4byte	.LASF140
 1661 0ba3 12       		.byte	0x12
 1662 0ba4 43       		.byte	0x43
 1663 0ba5 B4000000 		.4byte	0xb4
 1664 0ba9 12       		.byte	0x12
 1665 0baa 08       		.uleb128 0x8
 1666 0bab 86020000 		.4byte	.LASF141
 1667 0baf 12       		.byte	0x12
 1668 0bb0 44       		.byte	0x44
 1669 0bb1 B4000000 		.4byte	0xb4
 1670 0bb5 13       		.byte	0x13
 1671 0bb6 08       		.uleb128 0x8
 1672 0bb7 60020000 		.4byte	.LASF142
 1673 0bbb 12       		.byte	0x12
 1674 0bbc 45       		.byte	0x45
 1675 0bbd B4000000 		.4byte	0xb4
 1676 0bc1 14       		.byte	0x14
 1677 0bc2 08       		.uleb128 0x8
 1678 0bc3 70060000 		.4byte	.LASF143
 1679 0bc7 12       		.byte	0x12
 1680 0bc8 46       		.byte	0x46
 1681 0bc9 B4000000 		.4byte	0xb4
 1682 0bcd 15       		.byte	0x15
 1683 0bce 00       		.byte	0
 1684 0bcf 12       		.uleb128 0x12
 1685 0bd0 B40A0000 		.4byte	0xab4
 1686 0bd4 DF0B0000 		.4byte	0xbdf
 1687 0bd8 13       		.uleb128 0x13
 1688 0bd9 76040000 		.4byte	0x476
 1689 0bdd 03       		.byte	0x3
 1690 0bde 00       		.byte	0
 1691 0bdf 03       		.uleb128 0x3
 1692 0be0 56020000 		.4byte	.LASF144
 1693 0be4 12       		.byte	0x12
 1694 0be5 47       		.byte	0x47
 1695 0be6 EE0A0000 		.4byte	0xaee
 1696 0bea 06       		.uleb128 0x6
 1697 0beb DF0B0000 		.4byte	0xbdf
 1698 0bef 16       		.uleb128 0x16
 1699 0bf0 72030000 		.4byte	.LASF145
 1700 0bf4 12       		.byte	0x12
 1701 0bf5 6C       		.byte	0x6c
 1702 0bf6 EA0B0000 		.4byte	0xbea
 1703 0bfa 03       		.uleb128 0x3
 1704 0bfb B4080000 		.4byte	.LASF146
 1705 0bff 10       		.byte	0x10
 1706 0c00 34       		.byte	0x34
 1707 0c01 660A0000 		.4byte	0xa66
 1708 0c05 0C       		.uleb128 0xc
 1709 0c06 04       		.byte	0x4
 1710 0c07 FA0B0000 		.4byte	0xbfa
ARM GAS  /tmp/cc1CSJEq.s 			page 31


 1711 0c0b 04       		.uleb128 0x4
 1712 0c0c 01       		.byte	0x1
 1713 0c0d 02       		.byte	0x2
 1714 0c0e A3050000 		.4byte	.LASF147
 1715 0c12 03       		.uleb128 0x3
 1716 0c13 83000000 		.4byte	.LASF148
 1717 0c17 13       		.byte	0x13
 1718 0c18 47       		.byte	0x47
 1719 0c19 1D0C0000 		.4byte	0xc1d
 1720 0c1d 0C       		.uleb128 0xc
 1721 0c1e 04       		.byte	0x4
 1722 0c1f 230C0000 		.4byte	0xc23
 1723 0c23 1D       		.uleb128 0x1d
 1724 0c24 38030000 		.4byte	0x338
 1725 0c28 370C0000 		.4byte	0xc37
 1726 0c2c 0F       		.uleb128 0xf
 1727 0c2d 2C000000 		.4byte	0x2c
 1728 0c31 0F       		.uleb128 0xf
 1729 0c32 37000000 		.4byte	0x37
 1730 0c36 00       		.byte	0
 1731 0c37 17       		.uleb128 0x17
 1732 0c38 08       		.byte	0x8
 1733 0c39 13       		.byte	0x13
 1734 0c3a 51       		.byte	0x51
 1735 0c3b 580C0000 		.4byte	0xc58
 1736 0c3f 08       		.uleb128 0x8
 1737 0c40 C3080000 		.4byte	.LASF149
 1738 0c44 13       		.byte	0x13
 1739 0c45 55       		.byte	0x55
 1740 0c46 580C0000 		.4byte	0xc58
 1741 0c4a 00       		.byte	0
 1742 0c4b 08       		.uleb128 0x8
 1743 0c4c 3C040000 		.4byte	.LASF150
 1744 0c50 13       		.byte	0x13
 1745 0c51 59       		.byte	0x59
 1746 0c52 580C0000 		.4byte	0xc58
 1747 0c56 04       		.byte	0x4
 1748 0c57 00       		.byte	0
 1749 0c58 0C       		.uleb128 0xc
 1750 0c59 04       		.byte	0x4
 1751 0c5a B4000000 		.4byte	0xb4
 1752 0c5e 03       		.uleb128 0x3
 1753 0c5f 38050000 		.4byte	.LASF151
 1754 0c63 13       		.byte	0x13
 1755 0c64 5A       		.byte	0x5a
 1756 0c65 370C0000 		.4byte	0xc37
 1757 0c69 16       		.uleb128 0x16
 1758 0c6a 10070000 		.4byte	.LASF152
 1759 0c6e 13       		.byte	0x13
 1760 0c6f 65       		.byte	0x65
 1761 0c70 5E0C0000 		.4byte	0xc5e
 1762 0c74 07       		.uleb128 0x7
 1763 0c75 F5070000 		.4byte	.LASF153
 1764 0c79 04       		.byte	0x4
 1765 0c7a 14       		.byte	0x14
 1766 0c7b 38       		.byte	0x38
 1767 0c7c 8D0C0000 		.4byte	0xc8d
ARM GAS  /tmp/cc1CSJEq.s 			page 32


 1768 0c80 08       		.uleb128 0x8
 1769 0c81 C8000000 		.4byte	.LASF50
 1770 0c85 14       		.byte	0x14
 1771 0c86 39       		.byte	0x39
 1772 0c87 8D0C0000 		.4byte	0xc8d
 1773 0c8b 00       		.byte	0
 1774 0c8c 00       		.byte	0
 1775 0c8d 0C       		.uleb128 0xc
 1776 0c8e 04       		.byte	0x4
 1777 0c8f 740C0000 		.4byte	0xc74
 1778 0c93 17       		.uleb128 0x17
 1779 0c94 10       		.byte	0x10
 1780 0c95 14       		.byte	0x14
 1781 0c96 40       		.byte	0x40
 1782 0c97 CC0C0000 		.4byte	0xccc
 1783 0c9b 08       		.uleb128 0x8
 1784 0c9c C8000000 		.4byte	.LASF50
 1785 0ca0 14       		.byte	0x14
 1786 0ca1 41       		.byte	0x41
 1787 0ca2 8D0C0000 		.4byte	0xc8d
 1788 0ca6 00       		.byte	0
 1789 0ca7 08       		.uleb128 0x8
 1790 0ca8 BE070000 		.4byte	.LASF154
 1791 0cac 14       		.byte	0x14
 1792 0cad 42       		.byte	0x42
 1793 0cae 2C000000 		.4byte	0x2c
 1794 0cb2 04       		.byte	0x4
 1795 0cb3 08       		.uleb128 0x8
 1796 0cb4 E2020000 		.4byte	.LASF155
 1797 0cb8 14       		.byte	0x14
 1798 0cb9 44       		.byte	0x44
 1799 0cba 37000000 		.4byte	0x37
 1800 0cbe 08       		.byte	0x8
 1801 0cbf 08       		.uleb128 0x8
 1802 0cc0 67000000 		.4byte	.LASF156
 1803 0cc4 14       		.byte	0x14
 1804 0cc5 45       		.byte	0x45
 1805 0cc6 120C0000 		.4byte	0xc12
 1806 0cca 0C       		.byte	0xc
 1807 0ccb 00       		.byte	0
 1808 0ccc 03       		.uleb128 0x3
 1809 0ccd 7B030000 		.4byte	.LASF157
 1810 0cd1 14       		.byte	0x14
 1811 0cd2 47       		.byte	0x47
 1812 0cd3 930C0000 		.4byte	0xc93
 1813 0cd7 07       		.uleb128 0x7
 1814 0cd8 75050000 		.4byte	.LASF158
 1815 0cdc 10       		.byte	0x10
 1816 0cdd 15       		.byte	0x15
 1817 0cde A9       		.byte	0xa9
 1818 0cdf 080D0000 		.4byte	0xd08
 1819 0ce3 08       		.uleb128 0x8
 1820 0ce4 C8000000 		.4byte	.LASF50
 1821 0ce8 15       		.byte	0x15
 1822 0ce9 AD       		.byte	0xad
 1823 0cea 080D0000 		.4byte	0xd08
 1824 0cee 00       		.byte	0
ARM GAS  /tmp/cc1CSJEq.s 			page 33


 1825 0cef 08       		.uleb128 0x8
 1826 0cf0 E8050000 		.4byte	.LASF39
 1827 0cf4 15       		.byte	0x15
 1828 0cf5 B1       		.byte	0xb1
 1829 0cf6 5C010000 		.4byte	0x15c
 1830 0cfa 04       		.byte	0x4
 1831 0cfb 08       		.uleb128 0x8
 1832 0cfc 89030000 		.4byte	.LASF35
 1833 0d00 15       		.byte	0x15
 1834 0d01 B3       		.byte	0xb3
 1835 0d02 0E0D0000 		.4byte	0xd0e
 1836 0d06 08       		.byte	0x8
 1837 0d07 00       		.byte	0
 1838 0d08 0C       		.uleb128 0xc
 1839 0d09 04       		.byte	0x4
 1840 0d0a D70C0000 		.4byte	0xcd7
 1841 0d0e 12       		.uleb128 0x12
 1842 0d0f B40A0000 		.4byte	0xab4
 1843 0d13 1E0D0000 		.4byte	0xd1e
 1844 0d17 13       		.uleb128 0x13
 1845 0d18 76040000 		.4byte	0x476
 1846 0d1c 07       		.byte	0x7
 1847 0d1d 00       		.byte	0
 1848 0d1e 03       		.uleb128 0x3
 1849 0d1f 8D040000 		.4byte	.LASF159
 1850 0d23 15       		.byte	0x15
 1851 0d24 B7       		.byte	0xb7
 1852 0d25 D70C0000 		.4byte	0xcd7
 1853 0d29 07       		.uleb128 0x7
 1854 0d2a C4040000 		.4byte	.LASF160
 1855 0d2e 04       		.byte	0x4
 1856 0d2f 15       		.byte	0x15
 1857 0d30 BC       		.byte	0xbc
 1858 0d31 420D0000 		.4byte	0xd42
 1859 0d35 08       		.uleb128 0x8
 1860 0d36 C8000000 		.4byte	.LASF50
 1861 0d3a 15       		.byte	0x15
 1862 0d3b BD       		.byte	0xbd
 1863 0d3c 420D0000 		.4byte	0xd42
 1864 0d40 00       		.byte	0
 1865 0d41 00       		.byte	0
 1866 0d42 0C       		.uleb128 0xc
 1867 0d43 04       		.byte	0x4
 1868 0d44 1E0D0000 		.4byte	0xd1e
 1869 0d48 03       		.uleb128 0x3
 1870 0d49 E0030000 		.4byte	.LASF161
 1871 0d4d 15       		.byte	0x15
 1872 0d4e BE       		.byte	0xbe
 1873 0d4f 290D0000 		.4byte	0xd29
 1874 0d53 0D       		.uleb128 0xd
 1875 0d54 D2070000 		.4byte	.LASF162
 1876 0d58 48       		.byte	0x48
 1877 0d59 15       		.byte	0x15
 1878 0d5a 3E01     		.2byte	0x13e
 1879 0d5c C90D0000 		.4byte	0xdc9
 1880 0d60 0A       		.uleb128 0xa
 1881 0d61 6D747800 		.ascii	"mtx\000"
ARM GAS  /tmp/cc1CSJEq.s 			page 34


 1882 0d65 15       		.byte	0x15
 1883 0d66 4301     		.2byte	0x143
 1884 0d68 FA0B0000 		.4byte	0xbfa
 1885 0d6c 00       		.byte	0
 1886 0d6d 0B       		.uleb128 0xb
 1887 0d6e DE060000 		.4byte	.LASF163
 1888 0d72 15       		.byte	0x15
 1889 0d73 4A01     		.2byte	0x14a
 1890 0d75 480D0000 		.4byte	0xd48
 1891 0d79 14       		.byte	0x14
 1892 0d7a 0B       		.uleb128 0xb
 1893 0d7b 2E060000 		.4byte	.LASF164
 1894 0d7f 15       		.byte	0x15
 1895 0d80 4E01     		.2byte	0x14e
 1896 0d82 CC0C0000 		.4byte	0xccc
 1897 0d86 18       		.byte	0x18
 1898 0d87 0B       		.uleb128 0xb
 1899 0d88 A2030000 		.4byte	.LASF165
 1900 0d8c 15       		.byte	0x15
 1901 0d8d 5301     		.2byte	0x153
 1902 0d8f 480D0000 		.4byte	0xd48
 1903 0d93 28       		.byte	0x28
 1904 0d94 0B       		.uleb128 0xb
 1905 0d95 70000000 		.4byte	.LASF166
 1906 0d99 15       		.byte	0x15
 1907 0d9a 5901     		.2byte	0x159
 1908 0d9c 480D0000 		.4byte	0xd48
 1909 0da0 2C       		.byte	0x2c
 1910 0da1 0B       		.uleb128 0xb
 1911 0da2 1C050000 		.4byte	.LASF167
 1912 0da6 15       		.byte	0x15
 1913 0da7 5D01     		.2byte	0x15d
 1914 0da9 CC0C0000 		.4byte	0xccc
 1915 0dad 30       		.byte	0x30
 1916 0dae 0B       		.uleb128 0xb
 1917 0daf 49060000 		.4byte	.LASF168
 1918 0db3 15       		.byte	0x15
 1919 0db4 6301     		.2byte	0x163
 1920 0db6 480D0000 		.4byte	0xd48
 1921 0dba 40       		.byte	0x40
 1922 0dbb 0B       		.uleb128 0xb
 1923 0dbc 57080000 		.4byte	.LASF169
 1924 0dc0 15       		.byte	0x15
 1925 0dc1 6901     		.2byte	0x169
 1926 0dc3 480D0000 		.4byte	0xd48
 1927 0dc7 44       		.byte	0x44
 1928 0dc8 00       		.byte	0
 1929 0dc9 14       		.uleb128 0x14
 1930 0dca 8F080000 		.4byte	.LASF170
 1931 0dce 15       		.byte	0x15
 1932 0dcf 7101     		.2byte	0x171
 1933 0dd1 530D0000 		.4byte	0xd53
 1934 0dd5 15       		.uleb128 0x15
 1935 0dd6 1C060000 		.4byte	.LASF171
 1936 0dda 15       		.byte	0x15
 1937 0ddb 7C01     		.2byte	0x17c
 1938 0ddd C90D0000 		.4byte	0xdc9
ARM GAS  /tmp/cc1CSJEq.s 			page 35


 1939 0de1 1E       		.uleb128 0x1e
 1940 0de2 F1030000 		.4byte	.LASF172
 1941 0de6 01       		.byte	0x1
 1942 0de7 7A       		.byte	0x7a
 1943 0de8 00000000 		.4byte	.LFB291
 1944 0dec 5C000000 		.4byte	.LFE291-.LFB291
 1945 0df0 01       		.uleb128 0x1
 1946 0df1 9C       		.byte	0x9c
 1947 0df2 FA0E0000 		.4byte	0xefa
 1948 0df6 1F       		.uleb128 0x1f
 1949 0df7 12000000 		.4byte	.LBB63
 1950 0dfb 32000000 		.4byte	.LBE63-.LBB63
 1951 0dff 7F0E0000 		.4byte	0xe7f
 1952 0e03 20       		.uleb128 0x20
 1953 0e04 60050000 		.4byte	.LASF174
 1954 0e08 01       		.byte	0x1
 1955 0e09 7E       		.byte	0x7e
 1956 0e0a FA0E0000 		.4byte	0xefa
 1957 0e0e 00000000 		.4byte	.LLST4
 1958 0e12 21       		.uleb128 0x21
 1959 0e13 C40F0000 		.4byte	0xfc4
 1960 0e17 12000000 		.4byte	.LBB64
 1961 0e1b 04000000 		.4byte	.LBE64-.LBB64
 1962 0e1f 01       		.byte	0x1
 1963 0e20 82       		.byte	0x82
 1964 0e21 350E0000 		.4byte	0xe35
 1965 0e25 22       		.uleb128 0x22
 1966 0e26 12000000 		.4byte	.LBB65
 1967 0e2a 04000000 		.4byte	.LBE65-.LBB65
 1968 0e2e 23       		.uleb128 0x23
 1969 0e2f D50F0000 		.4byte	0xfd5
 1970 0e33 00       		.byte	0
 1971 0e34 00       		.byte	0
 1972 0e35 21       		.uleb128 0x21
 1973 0e36 16100000 		.4byte	0x1016
 1974 0e3a 16000000 		.4byte	.LBB66
 1975 0e3e 04000000 		.4byte	.LBE66-.LBB66
 1976 0e42 01       		.byte	0x1
 1977 0e43 86       		.byte	0x86
 1978 0e44 580E0000 		.4byte	0xe58
 1979 0e48 22       		.uleb128 0x22
 1980 0e49 16000000 		.4byte	.LBB67
 1981 0e4d 04000000 		.4byte	.LBE67-.LBB67
 1982 0e51 23       		.uleb128 0x23
 1983 0e52 26100000 		.4byte	0x1026
 1984 0e56 00       		.byte	0
 1985 0e57 00       		.byte	0
 1986 0e58 21       		.uleb128 0x21
 1987 0e59 FC0F0000 		.4byte	0xffc
 1988 0e5d 2E000000 		.4byte	.LBB68
 1989 0e61 04000000 		.4byte	.LBE68-.LBB68
 1990 0e65 01       		.byte	0x1
 1991 0e66 93       		.byte	0x93
 1992 0e67 750E0000 		.4byte	0xe75
 1993 0e6b 24       		.uleb128 0x24
 1994 0e6c 09100000 		.4byte	0x1009
 1995 0e70 2F000000 		.4byte	.LLST5
ARM GAS  /tmp/cc1CSJEq.s 			page 36


 1996 0e74 00       		.byte	0
 1997 0e75 25       		.uleb128 0x25
 1998 0e76 36000000 		.4byte	.LVL11
 1999 0e7a 32100000 		.4byte	0x1032
 2000 0e7e 00       		.byte	0
 2001 0e7f 21       		.uleb128 0x21
 2002 0e80 A90F0000 		.4byte	0xfa9
 2003 0e84 02000000 		.4byte	.LBB59
 2004 0e88 06000000 		.4byte	.LBE59-.LBB59
 2005 0e8c 01       		.byte	0x1
 2006 0e8d 7C       		.byte	0x7c
 2007 0e8e BE0E0000 		.4byte	0xebe
 2008 0e92 26       		.uleb128 0x26
 2009 0e93 BB0F0000 		.4byte	0xfbb
 2010 0e97 02000000 		.4byte	.LBB60
 2011 0e9b 06000000 		.4byte	.LBE60-.LBB60
 2012 0e9f 0D       		.byte	0xd
 2013 0ea0 8302     		.2byte	0x283
 2014 0ea2 26       		.uleb128 0x26
 2015 0ea3 E20F0000 		.4byte	0xfe2
 2016 0ea7 02000000 		.4byte	.LBB61
 2017 0eab 06000000 		.4byte	.LBE61-.LBB61
 2018 0eaf 0D       		.byte	0xd
 2019 0eb0 6202     		.2byte	0x262
 2020 0eb2 24       		.uleb128 0x24
 2021 0eb3 EF0F0000 		.4byte	0xfef
 2022 0eb7 50000000 		.4byte	.LLST3
 2023 0ebb 00       		.byte	0
 2024 0ebc 00       		.byte	0
 2025 0ebd 00       		.byte	0
 2026 0ebe 27       		.uleb128 0x27
 2027 0ebf A00F0000 		.4byte	0xfa0
 2028 0ec3 44000000 		.4byte	.LBB70
 2029 0ec7 18000000 		.4byte	.LBE70-.LBB70
 2030 0ecb 01       		.byte	0x1
 2031 0ecc A5       		.byte	0xa5
 2032 0ecd 26       		.uleb128 0x26
 2033 0ece B20F0000 		.4byte	0xfb2
 2034 0ed2 44000000 		.4byte	.LBB71
 2035 0ed6 18000000 		.4byte	.LBE71-.LBB71
 2036 0eda 0D       		.byte	0xd
 2037 0edb 8E02     		.2byte	0x28e
 2038 0edd 26       		.uleb128 0x26
 2039 0ede E20F0000 		.4byte	0xfe2
 2040 0ee2 44000000 		.4byte	.LBB72
 2041 0ee6 18000000 		.4byte	.LBE72-.LBB72
 2042 0eea 0D       		.byte	0xd
 2043 0eeb 7502     		.2byte	0x275
 2044 0eed 24       		.uleb128 0x24
 2045 0eee EF0F0000 		.4byte	0xfef
 2046 0ef2 65000000 		.4byte	.LLST6
 2047 0ef6 00       		.byte	0
 2048 0ef7 00       		.byte	0
 2049 0ef8 00       		.byte	0
 2050 0ef9 00       		.byte	0
 2051 0efa 0C       		.uleb128 0xc
 2052 0efb 04       		.byte	0x4
ARM GAS  /tmp/cc1CSJEq.s 			page 37


 2053 0efc 62080000 		.4byte	0x862
 2054 0f00 1E       		.uleb128 0x1e
 2055 0f01 3D060000 		.4byte	.LASF173
 2056 0f05 01       		.byte	0x1
 2057 0f06 3E       		.byte	0x3e
 2058 0f07 00000000 		.4byte	.LFB290
 2059 0f0b 20000000 		.4byte	.LFE290-.LFB290
 2060 0f0f 01       		.uleb128 0x1
 2061 0f10 9C       		.byte	0x9c
 2062 0f11 A00F0000 		.4byte	0xfa0
 2063 0f15 20       		.uleb128 0x20
 2064 0f16 60050000 		.4byte	.LASF174
 2065 0f1a 01       		.byte	0x1
 2066 0f1b 40       		.byte	0x40
 2067 0f1c FA0E0000 		.4byte	0xefa
 2068 0f20 79000000 		.4byte	.LLST0
 2069 0f24 21       		.uleb128 0x21
 2070 0f25 16100000 		.4byte	0x1016
 2071 0f29 0A000000 		.4byte	.LBB51
 2072 0f2d 04000000 		.4byte	.LBE51-.LBB51
 2073 0f31 01       		.byte	0x1
 2074 0f32 48       		.byte	0x48
 2075 0f33 470F0000 		.4byte	0xf47
 2076 0f37 22       		.uleb128 0x22
 2077 0f38 0A000000 		.4byte	.LBB52
 2078 0f3c 04000000 		.4byte	.LBE52-.LBB52
 2079 0f40 23       		.uleb128 0x23
 2080 0f41 26100000 		.4byte	0x1026
 2081 0f45 00       		.byte	0
 2082 0f46 00       		.byte	0
 2083 0f47 21       		.uleb128 0x21
 2084 0f48 FC0F0000 		.4byte	0xffc
 2085 0f4c 10000000 		.4byte	.LBB53
 2086 0f50 04000000 		.4byte	.LBE53-.LBB53
 2087 0f54 01       		.byte	0x1
 2088 0f55 4F       		.byte	0x4f
 2089 0f56 640F0000 		.4byte	0xf64
 2090 0f5a 24       		.uleb128 0x24
 2091 0f5b 09100000 		.4byte	0x1009
 2092 0f5f 9A000000 		.4byte	.LLST1
 2093 0f63 00       		.byte	0
 2094 0f64 27       		.uleb128 0x27
 2095 0f65 A00F0000 		.4byte	0xfa0
 2096 0f69 14000000 		.4byte	.LBB55
 2097 0f6d 0C000000 		.4byte	.LBE55-.LBB55
 2098 0f71 01       		.byte	0x1
 2099 0f72 52       		.byte	0x52
 2100 0f73 26       		.uleb128 0x26
 2101 0f74 B20F0000 		.4byte	0xfb2
 2102 0f78 14000000 		.4byte	.LBB56
 2103 0f7c 0C000000 		.4byte	.LBE56-.LBB56
 2104 0f80 0D       		.byte	0xd
 2105 0f81 8E02     		.2byte	0x28e
 2106 0f83 26       		.uleb128 0x26
 2107 0f84 E20F0000 		.4byte	0xfe2
 2108 0f88 14000000 		.4byte	.LBB57
 2109 0f8c 0C000000 		.4byte	.LBE57-.LBB57
ARM GAS  /tmp/cc1CSJEq.s 			page 38


 2110 0f90 0D       		.byte	0xd
 2111 0f91 7502     		.2byte	0x275
 2112 0f93 24       		.uleb128 0x24
 2113 0f94 EF0F0000 		.4byte	0xfef
 2114 0f98 BB000000 		.4byte	.LLST2
 2115 0f9c 00       		.byte	0
 2116 0f9d 00       		.byte	0
 2117 0f9e 00       		.byte	0
 2118 0f9f 00       		.byte	0
 2119 0fa0 28       		.uleb128 0x28
 2120 0fa1 F2060000 		.4byte	.LASF175
 2121 0fa5 0D       		.byte	0xd
 2122 0fa6 8C02     		.2byte	0x28c
 2123 0fa8 03       		.byte	0x3
 2124 0fa9 28       		.uleb128 0x28
 2125 0faa A1070000 		.4byte	.LASF176
 2126 0fae 0D       		.byte	0xd
 2127 0faf 8102     		.2byte	0x281
 2128 0fb1 03       		.byte	0x3
 2129 0fb2 28       		.uleb128 0x28
 2130 0fb3 24020000 		.4byte	.LASF177
 2131 0fb7 0D       		.byte	0xd
 2132 0fb8 7202     		.2byte	0x272
 2133 0fba 03       		.byte	0x3
 2134 0fbb 28       		.uleb128 0x28
 2135 0fbc 79000000 		.4byte	.LASF178
 2136 0fc0 0D       		.byte	0xd
 2137 0fc1 5A02     		.2byte	0x25a
 2138 0fc3 03       		.byte	0x3
 2139 0fc4 29       		.uleb128 0x29
 2140 0fc5 8C050000 		.4byte	.LASF183
 2141 0fc9 02       		.byte	0x2
 2142 0fca FE02     		.2byte	0x2fe
 2143 0fcc E4000000 		.4byte	0xe4
 2144 0fd0 03       		.byte	0x3
 2145 0fd1 E20F0000 		.4byte	0xfe2
 2146 0fd5 2A       		.uleb128 0x2a
 2147 0fd6 BC080000 		.4byte	.LASF185
 2148 0fda 02       		.byte	0x2
 2149 0fdb 0803     		.2byte	0x308
 2150 0fdd E4000000 		.4byte	0xe4
 2151 0fe1 00       		.byte	0
 2152 0fe2 2B       		.uleb128 0x2b
 2153 0fe3 2E070000 		.4byte	.LASF179
 2154 0fe7 02       		.byte	0x2
 2155 0fe8 EB01     		.2byte	0x1eb
 2156 0fea 03       		.byte	0x3
 2157 0feb FC0F0000 		.4byte	0xffc
 2158 0fef 2C       		.uleb128 0x2c
 2159 0ff0 15020000 		.4byte	.LASF181
 2160 0ff4 02       		.byte	0x2
 2161 0ff5 EB01     		.2byte	0x1eb
 2162 0ff7 E4000000 		.4byte	0xe4
 2163 0ffb 00       		.byte	0
 2164 0ffc 2B       		.uleb128 0x2b
 2165 0ffd 12030000 		.4byte	.LASF180
 2166 1001 02       		.byte	0x2
ARM GAS  /tmp/cc1CSJEq.s 			page 39


 2167 1002 1501     		.2byte	0x115
 2168 1004 03       		.byte	0x3
 2169 1005 16100000 		.4byte	0x1016
 2170 1009 2C       		.uleb128 0x2c
 2171 100a 46070000 		.4byte	.LASF182
 2172 100e 02       		.byte	0x2
 2173 100f 1501     		.2byte	0x115
 2174 1011 E4000000 		.4byte	0xe4
 2175 1015 00       		.byte	0
 2176 1016 2D       		.uleb128 0x2d
 2177 1017 B4070000 		.4byte	.LASF184
 2178 101b 02       		.byte	0x2
 2179 101c F7       		.byte	0xf7
 2180 101d E4000000 		.4byte	0xe4
 2181 1021 03       		.byte	0x3
 2182 1022 32100000 		.4byte	0x1032
 2183 1026 2E       		.uleb128 0x2e
 2184 1027 BC080000 		.4byte	.LASF185
 2185 102b 02       		.byte	0x2
 2186 102c F9       		.byte	0xf9
 2187 102d E4000000 		.4byte	0xe4
 2188 1031 00       		.byte	0
 2189 1032 2F       		.uleb128 0x2f
 2190 1033 6C020000 		.4byte	.LASF189
 2191 1037 6C020000 		.4byte	.LASF189
 2192 103b 08       		.byte	0x8
 2193 103c D701     		.2byte	0x1d7
 2194 103e 00       		.byte	0
 2195              		.section	.debug_abbrev,"",%progbits
 2196              	.Ldebug_abbrev0:
 2197 0000 01       		.uleb128 0x1
 2198 0001 11       		.uleb128 0x11
 2199 0002 01       		.byte	0x1
 2200 0003 25       		.uleb128 0x25
 2201 0004 0E       		.uleb128 0xe
 2202 0005 13       		.uleb128 0x13
 2203 0006 0B       		.uleb128 0xb
 2204 0007 03       		.uleb128 0x3
 2205 0008 0E       		.uleb128 0xe
 2206 0009 1B       		.uleb128 0x1b
 2207 000a 0E       		.uleb128 0xe
 2208 000b 55       		.uleb128 0x55
 2209 000c 17       		.uleb128 0x17
 2210 000d 11       		.uleb128 0x11
 2211 000e 01       		.uleb128 0x1
 2212 000f 10       		.uleb128 0x10
 2213 0010 17       		.uleb128 0x17
 2214 0011 00       		.byte	0
 2215 0012 00       		.byte	0
 2216 0013 02       		.uleb128 0x2
 2217 0014 24       		.uleb128 0x24
 2218 0015 00       		.byte	0
 2219 0016 0B       		.uleb128 0xb
 2220 0017 0B       		.uleb128 0xb
 2221 0018 3E       		.uleb128 0x3e
 2222 0019 0B       		.uleb128 0xb
 2223 001a 03       		.uleb128 0x3
ARM GAS  /tmp/cc1CSJEq.s 			page 40


 2224 001b 08       		.uleb128 0x8
 2225 001c 00       		.byte	0
 2226 001d 00       		.byte	0
 2227 001e 03       		.uleb128 0x3
 2228 001f 16       		.uleb128 0x16
 2229 0020 00       		.byte	0
 2230 0021 03       		.uleb128 0x3
 2231 0022 0E       		.uleb128 0xe
 2232 0023 3A       		.uleb128 0x3a
 2233 0024 0B       		.uleb128 0xb
 2234 0025 3B       		.uleb128 0x3b
 2235 0026 0B       		.uleb128 0xb
 2236 0027 49       		.uleb128 0x49
 2237 0028 13       		.uleb128 0x13
 2238 0029 00       		.byte	0
 2239 002a 00       		.byte	0
 2240 002b 04       		.uleb128 0x4
 2241 002c 24       		.uleb128 0x24
 2242 002d 00       		.byte	0
 2243 002e 0B       		.uleb128 0xb
 2244 002f 0B       		.uleb128 0xb
 2245 0030 3E       		.uleb128 0x3e
 2246 0031 0B       		.uleb128 0xb
 2247 0032 03       		.uleb128 0x3
 2248 0033 0E       		.uleb128 0xe
 2249 0034 00       		.byte	0
 2250 0035 00       		.byte	0
 2251 0036 05       		.uleb128 0x5
 2252 0037 35       		.uleb128 0x35
 2253 0038 00       		.byte	0
 2254 0039 49       		.uleb128 0x49
 2255 003a 13       		.uleb128 0x13
 2256 003b 00       		.byte	0
 2257 003c 00       		.byte	0
 2258 003d 06       		.uleb128 0x6
 2259 003e 26       		.uleb128 0x26
 2260 003f 00       		.byte	0
 2261 0040 49       		.uleb128 0x49
 2262 0041 13       		.uleb128 0x13
 2263 0042 00       		.byte	0
 2264 0043 00       		.byte	0
 2265 0044 07       		.uleb128 0x7
 2266 0045 13       		.uleb128 0x13
 2267 0046 01       		.byte	0x1
 2268 0047 03       		.uleb128 0x3
 2269 0048 0E       		.uleb128 0xe
 2270 0049 0B       		.uleb128 0xb
 2271 004a 0B       		.uleb128 0xb
 2272 004b 3A       		.uleb128 0x3a
 2273 004c 0B       		.uleb128 0xb
 2274 004d 3B       		.uleb128 0x3b
 2275 004e 0B       		.uleb128 0xb
 2276 004f 01       		.uleb128 0x1
 2277 0050 13       		.uleb128 0x13
 2278 0051 00       		.byte	0
 2279 0052 00       		.byte	0
 2280 0053 08       		.uleb128 0x8
ARM GAS  /tmp/cc1CSJEq.s 			page 41


 2281 0054 0D       		.uleb128 0xd
 2282 0055 00       		.byte	0
 2283 0056 03       		.uleb128 0x3
 2284 0057 0E       		.uleb128 0xe
 2285 0058 3A       		.uleb128 0x3a
 2286 0059 0B       		.uleb128 0xb
 2287 005a 3B       		.uleb128 0x3b
 2288 005b 0B       		.uleb128 0xb
 2289 005c 49       		.uleb128 0x49
 2290 005d 13       		.uleb128 0x13
 2291 005e 38       		.uleb128 0x38
 2292 005f 0B       		.uleb128 0xb
 2293 0060 00       		.byte	0
 2294 0061 00       		.byte	0
 2295 0062 09       		.uleb128 0x9
 2296 0063 0D       		.uleb128 0xd
 2297 0064 00       		.byte	0
 2298 0065 03       		.uleb128 0x3
 2299 0066 08       		.uleb128 0x8
 2300 0067 3A       		.uleb128 0x3a
 2301 0068 0B       		.uleb128 0xb
 2302 0069 3B       		.uleb128 0x3b
 2303 006a 0B       		.uleb128 0xb
 2304 006b 49       		.uleb128 0x49
 2305 006c 13       		.uleb128 0x13
 2306 006d 38       		.uleb128 0x38
 2307 006e 0B       		.uleb128 0xb
 2308 006f 00       		.byte	0
 2309 0070 00       		.byte	0
 2310 0071 0A       		.uleb128 0xa
 2311 0072 0D       		.uleb128 0xd
 2312 0073 00       		.byte	0
 2313 0074 03       		.uleb128 0x3
 2314 0075 08       		.uleb128 0x8
 2315 0076 3A       		.uleb128 0x3a
 2316 0077 0B       		.uleb128 0xb
 2317 0078 3B       		.uleb128 0x3b
 2318 0079 05       		.uleb128 0x5
 2319 007a 49       		.uleb128 0x49
 2320 007b 13       		.uleb128 0x13
 2321 007c 38       		.uleb128 0x38
 2322 007d 0B       		.uleb128 0xb
 2323 007e 00       		.byte	0
 2324 007f 00       		.byte	0
 2325 0080 0B       		.uleb128 0xb
 2326 0081 0D       		.uleb128 0xd
 2327 0082 00       		.byte	0
 2328 0083 03       		.uleb128 0x3
 2329 0084 0E       		.uleb128 0xe
 2330 0085 3A       		.uleb128 0x3a
 2331 0086 0B       		.uleb128 0xb
 2332 0087 3B       		.uleb128 0x3b
 2333 0088 05       		.uleb128 0x5
 2334 0089 49       		.uleb128 0x49
 2335 008a 13       		.uleb128 0x13
 2336 008b 38       		.uleb128 0x38
 2337 008c 0B       		.uleb128 0xb
ARM GAS  /tmp/cc1CSJEq.s 			page 42


 2338 008d 00       		.byte	0
 2339 008e 00       		.byte	0
 2340 008f 0C       		.uleb128 0xc
 2341 0090 0F       		.uleb128 0xf
 2342 0091 00       		.byte	0
 2343 0092 0B       		.uleb128 0xb
 2344 0093 0B       		.uleb128 0xb
 2345 0094 49       		.uleb128 0x49
 2346 0095 13       		.uleb128 0x13
 2347 0096 00       		.byte	0
 2348 0097 00       		.byte	0
 2349 0098 0D       		.uleb128 0xd
 2350 0099 13       		.uleb128 0x13
 2351 009a 01       		.byte	0x1
 2352 009b 03       		.uleb128 0x3
 2353 009c 0E       		.uleb128 0xe
 2354 009d 0B       		.uleb128 0xb
 2355 009e 0B       		.uleb128 0xb
 2356 009f 3A       		.uleb128 0x3a
 2357 00a0 0B       		.uleb128 0xb
 2358 00a1 3B       		.uleb128 0x3b
 2359 00a2 05       		.uleb128 0x5
 2360 00a3 01       		.uleb128 0x1
 2361 00a4 13       		.uleb128 0x13
 2362 00a5 00       		.byte	0
 2363 00a6 00       		.byte	0
 2364 00a7 0E       		.uleb128 0xe
 2365 00a8 15       		.uleb128 0x15
 2366 00a9 01       		.byte	0x1
 2367 00aa 27       		.uleb128 0x27
 2368 00ab 19       		.uleb128 0x19
 2369 00ac 01       		.uleb128 0x1
 2370 00ad 13       		.uleb128 0x13
 2371 00ae 00       		.byte	0
 2372 00af 00       		.byte	0
 2373 00b0 0F       		.uleb128 0xf
 2374 00b1 05       		.uleb128 0x5
 2375 00b2 00       		.byte	0
 2376 00b3 49       		.uleb128 0x49
 2377 00b4 13       		.uleb128 0x13
 2378 00b5 00       		.byte	0
 2379 00b6 00       		.byte	0
 2380 00b7 10       		.uleb128 0x10
 2381 00b8 0F       		.uleb128 0xf
 2382 00b9 00       		.byte	0
 2383 00ba 0B       		.uleb128 0xb
 2384 00bb 0B       		.uleb128 0xb
 2385 00bc 00       		.byte	0
 2386 00bd 00       		.byte	0
 2387 00be 11       		.uleb128 0x11
 2388 00bf 13       		.uleb128 0x13
 2389 00c0 01       		.byte	0x1
 2390 00c1 0B       		.uleb128 0xb
 2391 00c2 0B       		.uleb128 0xb
 2392 00c3 3A       		.uleb128 0x3a
 2393 00c4 0B       		.uleb128 0xb
 2394 00c5 3B       		.uleb128 0x3b
ARM GAS  /tmp/cc1CSJEq.s 			page 43


 2395 00c6 05       		.uleb128 0x5
 2396 00c7 01       		.uleb128 0x1
 2397 00c8 13       		.uleb128 0x13
 2398 00c9 00       		.byte	0
 2399 00ca 00       		.byte	0
 2400 00cb 12       		.uleb128 0x12
 2401 00cc 01       		.uleb128 0x1
 2402 00cd 01       		.byte	0x1
 2403 00ce 49       		.uleb128 0x49
 2404 00cf 13       		.uleb128 0x13
 2405 00d0 01       		.uleb128 0x1
 2406 00d1 13       		.uleb128 0x13
 2407 00d2 00       		.byte	0
 2408 00d3 00       		.byte	0
 2409 00d4 13       		.uleb128 0x13
 2410 00d5 21       		.uleb128 0x21
 2411 00d6 00       		.byte	0
 2412 00d7 49       		.uleb128 0x49
 2413 00d8 13       		.uleb128 0x13
 2414 00d9 2F       		.uleb128 0x2f
 2415 00da 0B       		.uleb128 0xb
 2416 00db 00       		.byte	0
 2417 00dc 00       		.byte	0
 2418 00dd 14       		.uleb128 0x14
 2419 00de 16       		.uleb128 0x16
 2420 00df 00       		.byte	0
 2421 00e0 03       		.uleb128 0x3
 2422 00e1 0E       		.uleb128 0xe
 2423 00e2 3A       		.uleb128 0x3a
 2424 00e3 0B       		.uleb128 0xb
 2425 00e4 3B       		.uleb128 0x3b
 2426 00e5 05       		.uleb128 0x5
 2427 00e6 49       		.uleb128 0x49
 2428 00e7 13       		.uleb128 0x13
 2429 00e8 00       		.byte	0
 2430 00e9 00       		.byte	0
 2431 00ea 15       		.uleb128 0x15
 2432 00eb 34       		.uleb128 0x34
 2433 00ec 00       		.byte	0
 2434 00ed 03       		.uleb128 0x3
 2435 00ee 0E       		.uleb128 0xe
 2436 00ef 3A       		.uleb128 0x3a
 2437 00f0 0B       		.uleb128 0xb
 2438 00f1 3B       		.uleb128 0x3b
 2439 00f2 05       		.uleb128 0x5
 2440 00f3 49       		.uleb128 0x49
 2441 00f4 13       		.uleb128 0x13
 2442 00f5 3F       		.uleb128 0x3f
 2443 00f6 19       		.uleb128 0x19
 2444 00f7 3C       		.uleb128 0x3c
 2445 00f8 19       		.uleb128 0x19
 2446 00f9 00       		.byte	0
 2447 00fa 00       		.byte	0
 2448 00fb 16       		.uleb128 0x16
 2449 00fc 34       		.uleb128 0x34
 2450 00fd 00       		.byte	0
 2451 00fe 03       		.uleb128 0x3
ARM GAS  /tmp/cc1CSJEq.s 			page 44


 2452 00ff 0E       		.uleb128 0xe
 2453 0100 3A       		.uleb128 0x3a
 2454 0101 0B       		.uleb128 0xb
 2455 0102 3B       		.uleb128 0x3b
 2456 0103 0B       		.uleb128 0xb
 2457 0104 49       		.uleb128 0x49
 2458 0105 13       		.uleb128 0x13
 2459 0106 3F       		.uleb128 0x3f
 2460 0107 19       		.uleb128 0x19
 2461 0108 3C       		.uleb128 0x3c
 2462 0109 19       		.uleb128 0x19
 2463 010a 00       		.byte	0
 2464 010b 00       		.byte	0
 2465 010c 17       		.uleb128 0x17
 2466 010d 13       		.uleb128 0x13
 2467 010e 01       		.byte	0x1
 2468 010f 0B       		.uleb128 0xb
 2469 0110 0B       		.uleb128 0xb
 2470 0111 3A       		.uleb128 0x3a
 2471 0112 0B       		.uleb128 0xb
 2472 0113 3B       		.uleb128 0x3b
 2473 0114 0B       		.uleb128 0xb
 2474 0115 01       		.uleb128 0x1
 2475 0116 13       		.uleb128 0x13
 2476 0117 00       		.byte	0
 2477 0118 00       		.byte	0
 2478 0119 18       		.uleb128 0x18
 2479 011a 17       		.uleb128 0x17
 2480 011b 01       		.byte	0x1
 2481 011c 0B       		.uleb128 0xb
 2482 011d 0B       		.uleb128 0xb
 2483 011e 3A       		.uleb128 0x3a
 2484 011f 0B       		.uleb128 0xb
 2485 0120 3B       		.uleb128 0x3b
 2486 0121 0B       		.uleb128 0xb
 2487 0122 01       		.uleb128 0x1
 2488 0123 13       		.uleb128 0x13
 2489 0124 00       		.byte	0
 2490 0125 00       		.byte	0
 2491 0126 19       		.uleb128 0x19
 2492 0127 0D       		.uleb128 0xd
 2493 0128 00       		.byte	0
 2494 0129 03       		.uleb128 0x3
 2495 012a 0E       		.uleb128 0xe
 2496 012b 3A       		.uleb128 0x3a
 2497 012c 0B       		.uleb128 0xb
 2498 012d 3B       		.uleb128 0x3b
 2499 012e 0B       		.uleb128 0xb
 2500 012f 49       		.uleb128 0x49
 2501 0130 13       		.uleb128 0x13
 2502 0131 00       		.byte	0
 2503 0132 00       		.byte	0
 2504 0133 1A       		.uleb128 0x1a
 2505 0134 0D       		.uleb128 0xd
 2506 0135 00       		.byte	0
 2507 0136 03       		.uleb128 0x3
 2508 0137 0E       		.uleb128 0xe
ARM GAS  /tmp/cc1CSJEq.s 			page 45


 2509 0138 3A       		.uleb128 0x3a
 2510 0139 0B       		.uleb128 0xb
 2511 013a 3B       		.uleb128 0x3b
 2512 013b 05       		.uleb128 0x5
 2513 013c 49       		.uleb128 0x49
 2514 013d 13       		.uleb128 0x13
 2515 013e 00       		.byte	0
 2516 013f 00       		.byte	0
 2517 0140 1B       		.uleb128 0x1b
 2518 0141 34       		.uleb128 0x34
 2519 0142 00       		.byte	0
 2520 0143 03       		.uleb128 0x3
 2521 0144 08       		.uleb128 0x8
 2522 0145 3A       		.uleb128 0x3a
 2523 0146 0B       		.uleb128 0xb
 2524 0147 3B       		.uleb128 0x3b
 2525 0148 05       		.uleb128 0x5
 2526 0149 49       		.uleb128 0x49
 2527 014a 13       		.uleb128 0x13
 2528 014b 3F       		.uleb128 0x3f
 2529 014c 19       		.uleb128 0x19
 2530 014d 3C       		.uleb128 0x3c
 2531 014e 19       		.uleb128 0x19
 2532 014f 00       		.byte	0
 2533 0150 00       		.byte	0
 2534 0151 1C       		.uleb128 0x1c
 2535 0152 21       		.uleb128 0x21
 2536 0153 00       		.byte	0
 2537 0154 00       		.byte	0
 2538 0155 00       		.byte	0
 2539 0156 1D       		.uleb128 0x1d
 2540 0157 15       		.uleb128 0x15
 2541 0158 01       		.byte	0x1
 2542 0159 27       		.uleb128 0x27
 2543 015a 19       		.uleb128 0x19
 2544 015b 49       		.uleb128 0x49
 2545 015c 13       		.uleb128 0x13
 2546 015d 01       		.uleb128 0x1
 2547 015e 13       		.uleb128 0x13
 2548 015f 00       		.byte	0
 2549 0160 00       		.byte	0
 2550 0161 1E       		.uleb128 0x1e
 2551 0162 2E       		.uleb128 0x2e
 2552 0163 01       		.byte	0x1
 2553 0164 3F       		.uleb128 0x3f
 2554 0165 19       		.uleb128 0x19
 2555 0166 03       		.uleb128 0x3
 2556 0167 0E       		.uleb128 0xe
 2557 0168 3A       		.uleb128 0x3a
 2558 0169 0B       		.uleb128 0xb
 2559 016a 3B       		.uleb128 0x3b
 2560 016b 0B       		.uleb128 0xb
 2561 016c 27       		.uleb128 0x27
 2562 016d 19       		.uleb128 0x19
 2563 016e 11       		.uleb128 0x11
 2564 016f 01       		.uleb128 0x1
 2565 0170 12       		.uleb128 0x12
ARM GAS  /tmp/cc1CSJEq.s 			page 46


 2566 0171 06       		.uleb128 0x6
 2567 0172 40       		.uleb128 0x40
 2568 0173 18       		.uleb128 0x18
 2569 0174 9742     		.uleb128 0x2117
 2570 0176 19       		.uleb128 0x19
 2571 0177 01       		.uleb128 0x1
 2572 0178 13       		.uleb128 0x13
 2573 0179 00       		.byte	0
 2574 017a 00       		.byte	0
 2575 017b 1F       		.uleb128 0x1f
 2576 017c 0B       		.uleb128 0xb
 2577 017d 01       		.byte	0x1
 2578 017e 11       		.uleb128 0x11
 2579 017f 01       		.uleb128 0x1
 2580 0180 12       		.uleb128 0x12
 2581 0181 06       		.uleb128 0x6
 2582 0182 01       		.uleb128 0x1
 2583 0183 13       		.uleb128 0x13
 2584 0184 00       		.byte	0
 2585 0185 00       		.byte	0
 2586 0186 20       		.uleb128 0x20
 2587 0187 34       		.uleb128 0x34
 2588 0188 00       		.byte	0
 2589 0189 03       		.uleb128 0x3
 2590 018a 0E       		.uleb128 0xe
 2591 018b 3A       		.uleb128 0x3a
 2592 018c 0B       		.uleb128 0xb
 2593 018d 3B       		.uleb128 0x3b
 2594 018e 0B       		.uleb128 0xb
 2595 018f 49       		.uleb128 0x49
 2596 0190 13       		.uleb128 0x13
 2597 0191 02       		.uleb128 0x2
 2598 0192 17       		.uleb128 0x17
 2599 0193 00       		.byte	0
 2600 0194 00       		.byte	0
 2601 0195 21       		.uleb128 0x21
 2602 0196 1D       		.uleb128 0x1d
 2603 0197 01       		.byte	0x1
 2604 0198 31       		.uleb128 0x31
 2605 0199 13       		.uleb128 0x13
 2606 019a 11       		.uleb128 0x11
 2607 019b 01       		.uleb128 0x1
 2608 019c 12       		.uleb128 0x12
 2609 019d 06       		.uleb128 0x6
 2610 019e 58       		.uleb128 0x58
 2611 019f 0B       		.uleb128 0xb
 2612 01a0 59       		.uleb128 0x59
 2613 01a1 0B       		.uleb128 0xb
 2614 01a2 01       		.uleb128 0x1
 2615 01a3 13       		.uleb128 0x13
 2616 01a4 00       		.byte	0
 2617 01a5 00       		.byte	0
 2618 01a6 22       		.uleb128 0x22
 2619 01a7 0B       		.uleb128 0xb
 2620 01a8 01       		.byte	0x1
 2621 01a9 11       		.uleb128 0x11
 2622 01aa 01       		.uleb128 0x1
ARM GAS  /tmp/cc1CSJEq.s 			page 47


 2623 01ab 12       		.uleb128 0x12
 2624 01ac 06       		.uleb128 0x6
 2625 01ad 00       		.byte	0
 2626 01ae 00       		.byte	0
 2627 01af 23       		.uleb128 0x23
 2628 01b0 34       		.uleb128 0x34
 2629 01b1 00       		.byte	0
 2630 01b2 31       		.uleb128 0x31
 2631 01b3 13       		.uleb128 0x13
 2632 01b4 00       		.byte	0
 2633 01b5 00       		.byte	0
 2634 01b6 24       		.uleb128 0x24
 2635 01b7 05       		.uleb128 0x5
 2636 01b8 00       		.byte	0
 2637 01b9 31       		.uleb128 0x31
 2638 01ba 13       		.uleb128 0x13
 2639 01bb 02       		.uleb128 0x2
 2640 01bc 17       		.uleb128 0x17
 2641 01bd 00       		.byte	0
 2642 01be 00       		.byte	0
 2643 01bf 25       		.uleb128 0x25
 2644 01c0 898201   		.uleb128 0x4109
 2645 01c3 00       		.byte	0
 2646 01c4 11       		.uleb128 0x11
 2647 01c5 01       		.uleb128 0x1
 2648 01c6 31       		.uleb128 0x31
 2649 01c7 13       		.uleb128 0x13
 2650 01c8 00       		.byte	0
 2651 01c9 00       		.byte	0
 2652 01ca 26       		.uleb128 0x26
 2653 01cb 1D       		.uleb128 0x1d
 2654 01cc 01       		.byte	0x1
 2655 01cd 31       		.uleb128 0x31
 2656 01ce 13       		.uleb128 0x13
 2657 01cf 11       		.uleb128 0x11
 2658 01d0 01       		.uleb128 0x1
 2659 01d1 12       		.uleb128 0x12
 2660 01d2 06       		.uleb128 0x6
 2661 01d3 58       		.uleb128 0x58
 2662 01d4 0B       		.uleb128 0xb
 2663 01d5 59       		.uleb128 0x59
 2664 01d6 05       		.uleb128 0x5
 2665 01d7 00       		.byte	0
 2666 01d8 00       		.byte	0
 2667 01d9 27       		.uleb128 0x27
 2668 01da 1D       		.uleb128 0x1d
 2669 01db 01       		.byte	0x1
 2670 01dc 31       		.uleb128 0x31
 2671 01dd 13       		.uleb128 0x13
 2672 01de 11       		.uleb128 0x11
 2673 01df 01       		.uleb128 0x1
 2674 01e0 12       		.uleb128 0x12
 2675 01e1 06       		.uleb128 0x6
 2676 01e2 58       		.uleb128 0x58
 2677 01e3 0B       		.uleb128 0xb
 2678 01e4 59       		.uleb128 0x59
 2679 01e5 0B       		.uleb128 0xb
ARM GAS  /tmp/cc1CSJEq.s 			page 48


 2680 01e6 00       		.byte	0
 2681 01e7 00       		.byte	0
 2682 01e8 28       		.uleb128 0x28
 2683 01e9 2E       		.uleb128 0x2e
 2684 01ea 00       		.byte	0
 2685 01eb 03       		.uleb128 0x3
 2686 01ec 0E       		.uleb128 0xe
 2687 01ed 3A       		.uleb128 0x3a
 2688 01ee 0B       		.uleb128 0xb
 2689 01ef 3B       		.uleb128 0x3b
 2690 01f0 05       		.uleb128 0x5
 2691 01f1 27       		.uleb128 0x27
 2692 01f2 19       		.uleb128 0x19
 2693 01f3 20       		.uleb128 0x20
 2694 01f4 0B       		.uleb128 0xb
 2695 01f5 00       		.byte	0
 2696 01f6 00       		.byte	0
 2697 01f7 29       		.uleb128 0x29
 2698 01f8 2E       		.uleb128 0x2e
 2699 01f9 01       		.byte	0x1
 2700 01fa 03       		.uleb128 0x3
 2701 01fb 0E       		.uleb128 0xe
 2702 01fc 3A       		.uleb128 0x3a
 2703 01fd 0B       		.uleb128 0xb
 2704 01fe 3B       		.uleb128 0x3b
 2705 01ff 05       		.uleb128 0x5
 2706 0200 27       		.uleb128 0x27
 2707 0201 19       		.uleb128 0x19
 2708 0202 49       		.uleb128 0x49
 2709 0203 13       		.uleb128 0x13
 2710 0204 20       		.uleb128 0x20
 2711 0205 0B       		.uleb128 0xb
 2712 0206 01       		.uleb128 0x1
 2713 0207 13       		.uleb128 0x13
 2714 0208 00       		.byte	0
 2715 0209 00       		.byte	0
 2716 020a 2A       		.uleb128 0x2a
 2717 020b 34       		.uleb128 0x34
 2718 020c 00       		.byte	0
 2719 020d 03       		.uleb128 0x3
 2720 020e 0E       		.uleb128 0xe
 2721 020f 3A       		.uleb128 0x3a
 2722 0210 0B       		.uleb128 0xb
 2723 0211 3B       		.uleb128 0x3b
 2724 0212 05       		.uleb128 0x5
 2725 0213 49       		.uleb128 0x49
 2726 0214 13       		.uleb128 0x13
 2727 0215 00       		.byte	0
 2728 0216 00       		.byte	0
 2729 0217 2B       		.uleb128 0x2b
 2730 0218 2E       		.uleb128 0x2e
 2731 0219 01       		.byte	0x1
 2732 021a 03       		.uleb128 0x3
 2733 021b 0E       		.uleb128 0xe
 2734 021c 3A       		.uleb128 0x3a
 2735 021d 0B       		.uleb128 0xb
 2736 021e 3B       		.uleb128 0x3b
ARM GAS  /tmp/cc1CSJEq.s 			page 49


 2737 021f 05       		.uleb128 0x5
 2738 0220 27       		.uleb128 0x27
 2739 0221 19       		.uleb128 0x19
 2740 0222 20       		.uleb128 0x20
 2741 0223 0B       		.uleb128 0xb
 2742 0224 01       		.uleb128 0x1
 2743 0225 13       		.uleb128 0x13
 2744 0226 00       		.byte	0
 2745 0227 00       		.byte	0
 2746 0228 2C       		.uleb128 0x2c
 2747 0229 05       		.uleb128 0x5
 2748 022a 00       		.byte	0
 2749 022b 03       		.uleb128 0x3
 2750 022c 0E       		.uleb128 0xe
 2751 022d 3A       		.uleb128 0x3a
 2752 022e 0B       		.uleb128 0xb
 2753 022f 3B       		.uleb128 0x3b
 2754 0230 05       		.uleb128 0x5
 2755 0231 49       		.uleb128 0x49
 2756 0232 13       		.uleb128 0x13
 2757 0233 00       		.byte	0
 2758 0234 00       		.byte	0
 2759 0235 2D       		.uleb128 0x2d
 2760 0236 2E       		.uleb128 0x2e
 2761 0237 01       		.byte	0x1
 2762 0238 03       		.uleb128 0x3
 2763 0239 0E       		.uleb128 0xe
 2764 023a 3A       		.uleb128 0x3a
 2765 023b 0B       		.uleb128 0xb
 2766 023c 3B       		.uleb128 0x3b
 2767 023d 0B       		.uleb128 0xb
 2768 023e 27       		.uleb128 0x27
 2769 023f 19       		.uleb128 0x19
 2770 0240 49       		.uleb128 0x49
 2771 0241 13       		.uleb128 0x13
 2772 0242 20       		.uleb128 0x20
 2773 0243 0B       		.uleb128 0xb
 2774 0244 01       		.uleb128 0x1
 2775 0245 13       		.uleb128 0x13
 2776 0246 00       		.byte	0
 2777 0247 00       		.byte	0
 2778 0248 2E       		.uleb128 0x2e
 2779 0249 34       		.uleb128 0x34
 2780 024a 00       		.byte	0
 2781 024b 03       		.uleb128 0x3
 2782 024c 0E       		.uleb128 0xe
 2783 024d 3A       		.uleb128 0x3a
 2784 024e 0B       		.uleb128 0xb
 2785 024f 3B       		.uleb128 0x3b
 2786 0250 0B       		.uleb128 0xb
 2787 0251 49       		.uleb128 0x49
 2788 0252 13       		.uleb128 0x13
 2789 0253 00       		.byte	0
 2790 0254 00       		.byte	0
 2791 0255 2F       		.uleb128 0x2f
 2792 0256 2E       		.uleb128 0x2e
 2793 0257 00       		.byte	0
ARM GAS  /tmp/cc1CSJEq.s 			page 50


 2794 0258 3F       		.uleb128 0x3f
 2795 0259 19       		.uleb128 0x19
 2796 025a 3C       		.uleb128 0x3c
 2797 025b 19       		.uleb128 0x19
 2798 025c 6E       		.uleb128 0x6e
 2799 025d 0E       		.uleb128 0xe
 2800 025e 03       		.uleb128 0x3
 2801 025f 0E       		.uleb128 0xe
 2802 0260 3A       		.uleb128 0x3a
 2803 0261 0B       		.uleb128 0xb
 2804 0262 3B       		.uleb128 0x3b
 2805 0263 05       		.uleb128 0x5
 2806 0264 00       		.byte	0
 2807 0265 00       		.byte	0
 2808 0266 00       		.byte	0
 2809              		.section	.debug_loc,"",%progbits
 2810              	.Ldebug_loc0:
 2811              	.LLST4:
 2812 0000 1A000000 		.4byte	.LVL7
 2813 0004 2E000000 		.4byte	.LVL9
 2814 0008 0400     		.2byte	0x4
 2815 000a 74       		.byte	0x74
 2816 000b 987F     		.sleb128 -104
 2817 000d 9F       		.byte	0x9f
 2818 000e 2E000000 		.4byte	.LVL9
 2819 0012 35000000 		.4byte	.LVL11-1
 2820 0016 0100     		.2byte	0x1
 2821 0018 53       		.byte	0x53
 2822 0019 35000000 		.4byte	.LVL11-1
 2823 001d 44000000 		.4byte	.LVL13
 2824 0021 0400     		.2byte	0x4
 2825 0023 74       		.byte	0x74
 2826 0024 987F     		.sleb128 -104
 2827 0026 9F       		.byte	0x9f
 2828 0027 00000000 		.4byte	0
 2829 002b 00000000 		.4byte	0
 2830              	.LLST5:
 2831 002f 2A000000 		.4byte	.LVL8
 2832 0033 2E000000 		.4byte	.LVL9
 2833 0037 0400     		.2byte	0x4
 2834 0039 74       		.byte	0x74
 2835 003a 987F     		.sleb128 -104
 2836 003c 9F       		.byte	0x9f
 2837 003d 2E000000 		.4byte	.LVL9
 2838 0041 32000000 		.4byte	.LVL10
 2839 0045 0100     		.2byte	0x1
 2840 0047 53       		.byte	0x53
 2841 0048 00000000 		.4byte	0
 2842 004c 00000000 		.4byte	0
 2843              	.LLST3:
 2844 0050 00000000 		.4byte	.LVL5
 2845 0054 08000000 		.4byte	.LVL6
 2846 0058 0300     		.2byte	0x3
 2847 005a 08       		.byte	0x8
 2848 005b 20       		.byte	0x20
 2849 005c 9F       		.byte	0x9f
 2850 005d 00000000 		.4byte	0
ARM GAS  /tmp/cc1CSJEq.s 			page 51


 2851 0061 00000000 		.4byte	0
 2852              	.LLST6:
 2853 0065 44000000 		.4byte	.LVL13
 2854 0069 48000000 		.4byte	.LVL14
 2855 006d 0200     		.2byte	0x2
 2856 006f 30       		.byte	0x30
 2857 0070 9F       		.byte	0x9f
 2858 0071 00000000 		.4byte	0
 2859 0075 00000000 		.4byte	0
 2860              	.LLST0:
 2861 0079 0E000000 		.4byte	.LVL0
 2862 007d 10000000 		.4byte	.LVL1
 2863 0081 0400     		.2byte	0x4
 2864 0083 73       		.byte	0x73
 2865 0084 E800     		.sleb128 104
 2866 0086 9F       		.byte	0x9f
 2867 0087 10000000 		.4byte	.LVL1
 2868 008b 16000000 		.4byte	.LVL3
 2869 008f 0100     		.2byte	0x1
 2870 0091 53       		.byte	0x53
 2871 0092 00000000 		.4byte	0
 2872 0096 00000000 		.4byte	0
 2873              	.LLST1:
 2874 009a 0E000000 		.4byte	.LVL0
 2875 009e 10000000 		.4byte	.LVL1
 2876 00a2 0400     		.2byte	0x4
 2877 00a4 73       		.byte	0x73
 2878 00a5 E800     		.sleb128 104
 2879 00a7 9F       		.byte	0x9f
 2880 00a8 10000000 		.4byte	.LVL1
 2881 00ac 14000000 		.4byte	.LVL2
 2882 00b0 0100     		.2byte	0x1
 2883 00b2 53       		.byte	0x53
 2884 00b3 00000000 		.4byte	0
 2885 00b7 00000000 		.4byte	0
 2886              	.LLST2:
 2887 00bb 14000000 		.4byte	.LVL2
 2888 00bf 1A000000 		.4byte	.LVL4
 2889 00c3 0200     		.2byte	0x2
 2890 00c5 30       		.byte	0x30
 2891 00c6 9F       		.byte	0x9f
 2892 00c7 00000000 		.4byte	0
 2893 00cb 00000000 		.4byte	0
 2894              		.section	.debug_aranges,"",%progbits
 2895 0000 24000000 		.4byte	0x24
 2896 0004 0200     		.2byte	0x2
 2897 0006 00000000 		.4byte	.Ldebug_info0
 2898 000a 04       		.byte	0x4
 2899 000b 00       		.byte	0
 2900 000c 0000     		.2byte	0
 2901 000e 0000     		.2byte	0
 2902 0010 00000000 		.4byte	.LFB290
 2903 0014 20000000 		.4byte	.LFE290-.LFB290
 2904 0018 00000000 		.4byte	.LFB291
 2905 001c 5C000000 		.4byte	.LFE291-.LFB291
 2906 0020 00000000 		.4byte	0
 2907 0024 00000000 		.4byte	0
ARM GAS  /tmp/cc1CSJEq.s 			page 52


 2908              		.section	.debug_ranges,"",%progbits
 2909              	.Ldebug_ranges0:
 2910 0000 00000000 		.4byte	.LFB290
 2911 0004 20000000 		.4byte	.LFE290
 2912 0008 00000000 		.4byte	.LFB291
 2913 000c 5C000000 		.4byte	.LFE291
 2914 0010 00000000 		.4byte	0
 2915 0014 00000000 		.4byte	0
 2916              		.section	.debug_line,"",%progbits
 2917              	.Ldebug_line0:
 2918 0000 9E030000 		.section	.debug_str,"MS",%progbits,1
 2918      02003003 
 2918      00000201 
 2918      FB0E0D00 
 2918      01010101 
 2919              	.LASF54:
 2920 0000 72656164 		.ascii	"ready_list_t\000"
 2920      795F6C69 
 2920      73745F74 
 2920      00
 2921              	.LASF4:
 2922 000d 73697A65 		.ascii	"size_t\000"
 2922      5F7400
 2923              	.LASF60:
 2924 0014 64656C74 		.ascii	"delta\000"
 2924      6100
 2925              	.LASF113:
 2926 001a 7264796D 		.ascii	"rdymsg\000"
 2926      736700
 2927              	.LASF94:
 2928 0021 46504453 		.ascii	"FPDSCR\000"
 2928      435200
 2929              	.LASF20:
 2930 0028 75696E74 		.ascii	"uint64_t\000"
 2930      36345F74 
 2930      00
 2931              	.LASF3:
 2932 0031 7369676E 		.ascii	"signed char\000"
 2932      65642063 
 2932      68617200 
 2933              	.LASF5:
 2934 003d 5F5F7569 		.ascii	"__uint8_t\000"
 2934      6E74385F 
 2934      7400
 2935              	.LASF53:
 2936 0047 70726576 		.ascii	"prev\000"
 2936      00
 2937              	.LASF105:
 2938 004c 706F7274 		.ascii	"port_intctx\000"
 2938      5F696E74 
 2938      63747800 
 2939              	.LASF65:
 2940 0058 73797374 		.ascii	"system_debug_t\000"
 2940      656D5F64 
 2940      65627567 
 2940      5F7400
 2941              	.LASF156:
ARM GAS  /tmp/cc1CSJEq.s 			page 53


 2942 0067 70726F76 		.ascii	"provider\000"
 2942      69646572 
 2942      00
 2943              	.LASF166:
 2944 0070 73656D5F 		.ascii	"sem_list\000"
 2944      6C697374 
 2944      00
 2945              	.LASF178:
 2946 0079 706F7274 		.ascii	"port_lock\000"
 2946      5F6C6F63 
 2946      6B00
 2947              	.LASF148:
 2948 0083 6D656D67 		.ascii	"memgetfunc_t\000"
 2948      65746675 
 2948      6E635F74 
 2948      00
 2949              	.LASF114:
 2950 0090 65786974 		.ascii	"exitcode\000"
 2950      636F6465 
 2950      00
 2951              	.LASF72:
 2952 0099 6D61696E 		.ascii	"mainthread\000"
 2952      74687265 
 2952      616400
 2953              	.LASF117:
 2954 00a4 73656E74 		.ascii	"sentmsg\000"
 2954      6D736700 
 2955              	.LASF62:
 2956 00ac 76697274 		.ascii	"virtual_timers_list_t\000"
 2956      75616C5F 
 2956      74696D65 
 2956      72735F6C 
 2956      6973745F 
 2957              	.LASF76:
 2958 00c2 43505549 		.ascii	"CPUID\000"
 2958      4400
 2959              	.LASF50:
 2960 00c8 6E657874 		.ascii	"next\000"
 2960      00
 2961              	.LASF52:
 2962 00cd 63685F74 		.ascii	"ch_threads_queue\000"
 2962      68726561 
 2962      64735F71 
 2962      75657565 
 2962      00
 2963              	.LASF128:
 2964 00de 73697A65 		.ascii	"size\000"
 2964      00
 2965              	.LASF15:
 2966 00e3 6C6F6E67 		.ascii	"long long unsigned int\000"
 2966      206C6F6E 
 2966      6720756E 
 2966      7369676E 
 2966      65642069 
 2967              	.LASF186:
 2968 00fa 474E5520 		.ascii	"GNU C11 6.3.1 20170620 (release) [ARM/embedded-6-br"
 2968      43313120 
ARM GAS  /tmp/cc1CSJEq.s 			page 54


 2968      362E332E 
 2968      31203230 
 2968      31373036 
 2969 012d 616E6368 		.ascii	"anch revision 249437] -mcpu=cortex-m4 -mfloat-abi=h"
 2969      20726576 
 2969      6973696F 
 2969      6E203234 
 2969      39343337 
 2970 0160 61726420 		.ascii	"ard -mfpu=fpv4-sp-d16 -mno-thumb-interwork -mthumb "
 2970      2D6D6670 
 2970      753D6670 
 2970      76342D73 
 2970      702D6431 
 2971 0193 2D67202D 		.ascii	"-g -Os -fomit-frame-pointer -falign-functions=16 -f"
 2971      4F73202D 
 2971      666F6D69 
 2971      742D6672 
 2971      616D652D 
 2972 01c6 66756E63 		.ascii	"function-sections -fdata-sections -fno-common -fsin"
 2972      74696F6E 
 2972      2D736563 
 2972      74696F6E 
 2972      73202D66 
 2973 01f9 676C652D 		.ascii	"gle-precision-constant\000"
 2973      70726563 
 2973      6973696F 
 2973      6E2D636F 
 2973      6E737461 
 2974              	.LASF88:
 2975 0210 49534152 		.ascii	"ISAR\000"
 2975      00
 2976              	.LASF181:
 2977 0215 62617365 		.ascii	"basePri\000"
 2977      50726900 
 2978              	.LASF71:
 2979 021d 76746C69 		.ascii	"vtlist\000"
 2979      737400
 2980              	.LASF177:
 2981 0224 706F7274 		.ascii	"port_unlock\000"
 2981      5F756E6C 
 2981      6F636B00 
 2982              	.LASF41:
 2983 0230 6D736771 		.ascii	"msgqueue\000"
 2983      75657565 
 2983      00
 2984              	.LASF37:
 2985 0239 73746174 		.ascii	"state\000"
 2985      6500
 2986              	.LASF11:
 2987 023f 6C6F6E67 		.ascii	"long int\000"
 2987      20696E74 
 2987      00
 2988              	.LASF23:
 2989 0248 74737461 		.ascii	"tstate_t\000"
 2989      74655F74 
 2989      00
 2990              	.LASF61:
ARM GAS  /tmp/cc1CSJEq.s 			page 55


 2991 0251 66756E63 		.ascii	"func\000"
 2991      00
 2992              	.LASF144:
 2993 0256 63686465 		.ascii	"chdebug_t\000"
 2993      6275675F 
 2993      7400
 2994              	.LASF142:
 2995 0260 6F66665F 		.ascii	"off_preempt\000"
 2995      70726565 
 2995      6D707400 
 2996              	.LASF189:
 2997 026c 63685363 		.ascii	"chSchIsPreemptionRequired\000"
 2997      68497350 
 2997      7265656D 
 2997      7074696F 
 2997      6E526571 
 2998              	.LASF141:
 2999 0286 6F66665F 		.ascii	"off_refs\000"
 2999      72656673 
 2999      00
 3000              	.LASF86:
 3001 028f 41465352 		.ascii	"AFSR\000"
 3001      00
 3002              	.LASF12:
 3003 0294 5F5F7569 		.ascii	"__uint32_t\000"
 3003      6E743332 
 3003      5F7400
 3004              	.LASF102:
 3005 029f 72656761 		.ascii	"regarm_t\000"
 3005      726D5F74 
 3005      00
 3006              	.LASF91:
 3007 02a8 5343425F 		.ascii	"SCB_Type\000"
 3007      54797065 
 3007      00
 3008              	.LASF66:
 3009 02b1 63685F73 		.ascii	"ch_system_debug\000"
 3009      79737465 
 3009      6D5F6465 
 3009      62756700 
 3010              	.LASF40:
 3011 02c1 77616974 		.ascii	"waiting\000"
 3011      696E6700 
 3012              	.LASF70:
 3013 02c9 726C6973 		.ascii	"rlist\000"
 3013      7400
 3014              	.LASF127:
 3015 02cf 7A65726F 		.ascii	"zero\000"
 3015      00
 3016              	.LASF1:
 3017 02d4 6C6F6E67 		.ascii	"long long int\000"
 3017      206C6F6E 
 3017      6720696E 
 3017      7400
 3018              	.LASF155:
 3019 02e2 616C6967 		.ascii	"align\000"
 3019      6E00
ARM GAS  /tmp/cc1CSJEq.s 			page 56


 3020              	.LASF74:
 3021 02e8 73797369 		.ascii	"sysinterval_t\000"
 3021      6E746572 
 3021      76616C5F 
 3021      7400
 3022              	.LASF28:
 3023 02f6 636E745F 		.ascii	"cnt_t\000"
 3023      7400
 3024              	.LASF97:
 3025 02fc 4650555F 		.ascii	"FPU_Type\000"
 3025      54797065 
 3025      00
 3026              	.LASF0:
 3027 0305 756E7369 		.ascii	"unsigned int\000"
 3027      676E6564 
 3027      20696E74 
 3027      00
 3028              	.LASF180:
 3029 0312 5F5F7365 		.ascii	"__set_PSP\000"
 3029      745F5053 
 3029      5000
 3030              	.LASF17:
 3031 031c 75696E74 		.ascii	"uint16_t\000"
 3031      31365F74 
 3031      00
 3032              	.LASF99:
 3033 0325 53797374 		.ascii	"SystemCoreClock\000"
 3033      656D436F 
 3033      7265436C 
 3033      6F636B00 
 3034              	.LASF118:
 3035 0335 77747365 		.ascii	"wtsemp\000"
 3035      6D7000
 3036              	.LASF116:
 3037 033c 77747472 		.ascii	"wttrp\000"
 3037      7000
 3038              	.LASF188:
 3039 0342 2F686F6D 		.ascii	"/home/alex/ArduPilot/ardupilot/build/STM32Disco\000"
 3039      652F616C 
 3039      65782F41 
 3039      72647550 
 3039      696C6F74 
 3040              	.LASF145:
 3041 0372 63685F64 		.ascii	"ch_debug\000"
 3041      65627567 
 3041      00
 3042              	.LASF157:
 3043 037b 6D656D6F 		.ascii	"memory_pool_t\000"
 3043      72795F70 
 3043      6F6F6C5F 
 3043      7400
 3044              	.LASF35:
 3045 0389 6E616D65 		.ascii	"name\000"
 3045      00
 3046              	.LASF78:
 3047 038e 56544F52 		.ascii	"VTOR\000"
 3047      00
ARM GAS  /tmp/cc1CSJEq.s 			page 57


 3048              	.LASF45:
 3049 0393 6D706F6F 		.ascii	"mpool\000"
 3049      6C00
 3050              	.LASF110:
 3051 0399 72657365 		.ascii	"reserved\000"
 3051      72766564 
 3051      00
 3052              	.LASF165:
 3053 03a2 6275665F 		.ascii	"buf_list\000"
 3053      6C697374 
 3053      00
 3054              	.LASF48:
 3055 03ab 63685F74 		.ascii	"ch_thread\000"
 3055      68726561 
 3055      6400
 3056              	.LASF85:
 3057 03b5 42464152 		.ascii	"BFAR\000"
 3057      00
 3058              	.LASF77:
 3059 03ba 49435352 		.ascii	"ICSR\000"
 3059      00
 3060              	.LASF26:
 3061 03bf 6D73675F 		.ascii	"msg_t\000"
 3061      7400
 3062              	.LASF79:
 3063 03c5 41495243 		.ascii	"AIRCR\000"
 3063      5200
 3064              	.LASF83:
 3065 03cb 44465352 		.ascii	"DFSR\000"
 3065      00
 3066              	.LASF29:
 3067 03d0 75636E74 		.ascii	"ucnt_t\000"
 3067      5F7400
 3068              	.LASF42:
 3069 03d7 6570656E 		.ascii	"epending\000"
 3069      64696E67 
 3069      00
 3070              	.LASF161:
 3071 03e0 64796E5F 		.ascii	"dyn_list_t\000"
 3071      6C697374 
 3071      5F7400
 3072              	.LASF84:
 3073 03eb 4D4D4641 		.ascii	"MMFAR\000"
 3073      5200
 3074              	.LASF172:
 3075 03f1 5F706F72 		.ascii	"_port_irq_epilogue\000"
 3075      745F6972 
 3075      715F6570 
 3075      696C6F67 
 3075      756500
 3076              	.LASF134:
 3077 0404 6F66665F 		.ascii	"off_ctx\000"
 3077      63747800 
 3078              	.LASF22:
 3079 040c 746D6F64 		.ascii	"tmode_t\000"
 3079      655F7400 
 3080              	.LASF55:
ARM GAS  /tmp/cc1CSJEq.s 			page 58


 3081 0414 63685F72 		.ascii	"ch_ready_list\000"
 3081      65616479 
 3081      5F6C6973 
 3081      7400
 3082              	.LASF27:
 3083 0422 6576656E 		.ascii	"eventmask_t\000"
 3083      746D6173 
 3083      6B5F7400 
 3084              	.LASF100:
 3085 042e 41484250 		.ascii	"AHBPrescTable\000"
 3085      72657363 
 3085      5461626C 
 3085      6500
 3086              	.LASF150:
 3087 043c 656E646D 		.ascii	"endmem\000"
 3087      656D00
 3088              	.LASF10:
 3089 0443 5F5F696E 		.ascii	"__int32_t\000"
 3089      7433325F 
 3089      7400
 3090              	.LASF103:
 3091 044d 73746B61 		.ascii	"stkalign_t\000"
 3091      6C69676E 
 3091      5F7400
 3092              	.LASF33:
 3093 0458 6E657765 		.ascii	"newer\000"
 3093      7200
 3094              	.LASF47:
 3095 045e 74687265 		.ascii	"threads_list_t\000"
 3095      6164735F 
 3095      6C697374 
 3095      5F7400
 3096              	.LASF44:
 3097 046d 7265616C 		.ascii	"realprio\000"
 3097      7072696F 
 3097      00
 3098              	.LASF129:
 3099 0476 76657273 		.ascii	"version\000"
 3099      696F6E00 
 3100              	.LASF92:
 3101 047e 46504343 		.ascii	"FPCCR\000"
 3101      5200
 3102              	.LASF75:
 3103 0484 73697A65 		.ascii	"sizetype\000"
 3103      74797065 
 3103      00
 3104              	.LASF159:
 3105 048d 64796E5F 		.ascii	"dyn_element_t\000"
 3105      656C656D 
 3105      656E745F 
 3105      7400
 3106              	.LASF63:
 3107 049b 63685F76 		.ascii	"ch_virtual_timers_list\000"
 3107      69727475 
 3107      616C5F74 
 3107      696D6572 
 3107      735F6C69 
ARM GAS  /tmp/cc1CSJEq.s 			page 59


 3108              	.LASF2:
 3109 04b2 6C6F6E67 		.ascii	"long double\000"
 3109      20646F75 
 3109      626C6500 
 3110              	.LASF31:
 3111 04be 71756575 		.ascii	"queue\000"
 3111      6500
 3112              	.LASF160:
 3113 04c4 63685F64 		.ascii	"ch_dyn_list\000"
 3113      796E5F6C 
 3113      69737400 
 3114              	.LASF81:
 3115 04d0 43465352 		.ascii	"CFSR\000"
 3115      00
 3116              	.LASF135:
 3117 04d5 6F66665F 		.ascii	"off_newer\000"
 3117      6E657765 
 3117      7200
 3118              	.LASF101:
 3119 04df 41504250 		.ascii	"APBPrescTable\000"
 3119      72657363 
 3119      5461626C 
 3119      6500
 3120              	.LASF104:
 3121 04ed 706F7274 		.ascii	"port_context\000"
 3121      5F636F6E 
 3121      74657874 
 3121      00
 3122              	.LASF106:
 3123 04fa 706F7274 		.ascii	"port_extctx\000"
 3123      5F657874 
 3123      63747800 
 3124              	.LASF112:
 3125 0506 746D5F63 		.ascii	"tm_calibration_t\000"
 3125      616C6962 
 3125      72617469 
 3125      6F6E5F74 
 3125      00
 3126              	.LASF32:
 3127 0517 7072696F 		.ascii	"prio\000"
 3127      00
 3128              	.LASF167:
 3129 051c 73656D5F 		.ascii	"sem_pool\000"
 3129      706F6F6C 
 3129      00
 3130              	.LASF56:
 3131 0525 63757272 		.ascii	"current\000"
 3131      656E7400 
 3132              	.LASF14:
 3133 052d 5F5F7569 		.ascii	"__uint64_t\000"
 3133      6E743634 
 3133      5F7400
 3134              	.LASF151:
 3135 0538 6D656D63 		.ascii	"memcore_t\000"
 3135      6F72655F 
 3135      7400
 3136              	.LASF95:
ARM GAS  /tmp/cc1CSJEq.s 			page 60


 3137 0542 4D564652 		.ascii	"MVFR0\000"
 3137      3000
 3138              	.LASF96:
 3139 0548 4D564652 		.ascii	"MVFR1\000"
 3139      3100
 3140              	.LASF24:
 3141 054e 74726566 		.ascii	"trefs_t\000"
 3141      735F7400 
 3142              	.LASF89:
 3143 0556 52455345 		.ascii	"RESERVED0\000"
 3143      52564544 
 3143      3000
 3144              	.LASF174:
 3145 0560 63747870 		.ascii	"ctxp\000"
 3145      00
 3146              	.LASF58:
 3147 0565 76697274 		.ascii	"virtual_timer_t\000"
 3147      75616C5F 
 3147      74696D65 
 3147      725F7400 
 3148              	.LASF158:
 3149 0575 63685F64 		.ascii	"ch_dyn_element\000"
 3149      796E5F65 
 3149      6C656D65 
 3149      6E7400
 3150              	.LASF25:
 3151 0584 74707269 		.ascii	"tprio_t\000"
 3151      6F5F7400 
 3152              	.LASF183:
 3153 058c 5F5F6765 		.ascii	"__get_FPSCR\000"
 3153      745F4650 
 3153      53435200 
 3154              	.LASF132:
 3155 0598 74687265 		.ascii	"threadsize\000"
 3155      61647369 
 3155      7A6500
 3156              	.LASF147:
 3157 05a3 5F426F6F 		.ascii	"_Bool\000"
 3157      6C00
 3158              	.LASF18:
 3159 05a9 696E7433 		.ascii	"int32_t\000"
 3159      325F7400 
 3160              	.LASF6:
 3161 05b1 756E7369 		.ascii	"unsigned char\000"
 3161      676E6564 
 3161      20636861 
 3161      7200
 3162              	.LASF133:
 3163 05bf 6F66665F 		.ascii	"off_prio\000"
 3163      7072696F 
 3163      00
 3164              	.LASF138:
 3165 05c8 6F66665F 		.ascii	"off_stklimit\000"
 3165      73746B6C 
 3165      696D6974 
 3165      00
 3166              	.LASF80:
ARM GAS  /tmp/cc1CSJEq.s 			page 61


 3167 05d5 53484353 		.ascii	"SHCSR\000"
 3167      5200
 3168              	.LASF98:
 3169 05db 49544D5F 		.ascii	"ITM_RxBuffer\000"
 3169      52784275 
 3169      66666572 
 3169      00
 3170              	.LASF39:
 3171 05e8 72656673 		.ascii	"refs\000"
 3171      00
 3172              	.LASF7:
 3173 05ed 73686F72 		.ascii	"short int\000"
 3173      7420696E 
 3173      7400
 3174              	.LASF64:
 3175 05f7 6C617374 		.ascii	"lasttime\000"
 3175      74696D65 
 3175      00
 3176              	.LASF108:
 3177 0600 78707372 		.ascii	"xpsr\000"
 3177      00
 3178              	.LASF120:
 3179 0605 65776D61 		.ascii	"ewmask\000"
 3179      736B00
 3180              	.LASF69:
 3181 060c 63685F73 		.ascii	"ch_system\000"
 3181      79737465 
 3181      6D00
 3182              	.LASF109:
 3183 0616 66707363 		.ascii	"fpscr\000"
 3183      7200
 3184              	.LASF171:
 3185 061c 63685F66 		.ascii	"ch_factory\000"
 3185      6163746F 
 3185      727900
 3186              	.LASF107:
 3187 0627 6C725F74 		.ascii	"lr_thd\000"
 3187      686400
 3188              	.LASF164:
 3189 062e 6F626A5F 		.ascii	"obj_pool\000"
 3189      706F6F6C 
 3189      00
 3190              	.LASF93:
 3191 0637 46504341 		.ascii	"FPCAR\000"
 3191      5200
 3192              	.LASF173:
 3193 063d 5356435F 		.ascii	"SVC_Handler\000"
 3193      48616E64 
 3193      6C657200 
 3194              	.LASF168:
 3195 0649 6D62785F 		.ascii	"mbx_list\000"
 3195      6C697374 
 3195      00
 3196              	.LASF59:
 3197 0652 63685F76 		.ascii	"ch_virtual_timer\000"
 3197      69727475 
 3197      616C5F74 
ARM GAS  /tmp/cc1CSJEq.s 			page 62


 3197      696D6572 
 3197      00
 3198              	.LASF121:
 3199 0663 63685F73 		.ascii	"ch_semaphore\000"
 3199      656D6170 
 3199      686F7265 
 3199      00
 3200              	.LASF143:
 3201 0670 6F66665F 		.ascii	"off_time\000"
 3201      74696D65 
 3201      00
 3202              	.LASF125:
 3203 0679 63685F69 		.ascii	"ch_idle_thread_wa\000"
 3203      646C655F 
 3203      74687265 
 3203      61645F77 
 3203      6100
 3204              	.LASF131:
 3205 068b 74696D65 		.ascii	"timesize\000"
 3205      73697A65 
 3205      00
 3206              	.LASF19:
 3207 0694 75696E74 		.ascii	"uint32_t\000"
 3207      33325F74 
 3207      00
 3208              	.LASF119:
 3209 069d 77746D74 		.ascii	"wtmtxp\000"
 3209      787000
 3210              	.LASF49:
 3211 06a4 63685F74 		.ascii	"ch_threads_list\000"
 3211      68726561 
 3211      64735F6C 
 3211      69737400 
 3212              	.LASF123:
 3213 06b4 6F776E65 		.ascii	"owner\000"
 3213      7200
 3214              	.LASF13:
 3215 06ba 6C6F6E67 		.ascii	"long unsigned int\000"
 3215      20756E73 
 3215      69676E65 
 3215      6420696E 
 3215      7400
 3216              	.LASF36:
 3217 06cc 77616261 		.ascii	"wabase\000"
 3217      736500
 3218              	.LASF124:
 3219 06d3 63686172 		.ascii	"char\000"
 3219      00
 3220              	.LASF34:
 3221 06d8 6F6C6465 		.ascii	"older\000"
 3221      7200
 3222              	.LASF163:
 3223 06de 6F626A5F 		.ascii	"obj_list\000"
 3223      6C697374 
 3223      00
 3224              	.LASF8:
 3225 06e7 5F5F7569 		.ascii	"__uint16_t\000"
ARM GAS  /tmp/cc1CSJEq.s 			page 63


 3225      6E743136 
 3225      5F7400
 3226              	.LASF175:
 3227 06f2 706F7274 		.ascii	"port_unlock_from_isr\000"
 3227      5F756E6C 
 3227      6F636B5F 
 3227      66726F6D 
 3227      5F697372 
 3228              	.LASF30:
 3229 0707 74687265 		.ascii	"thread_t\000"
 3229      61645F74 
 3229      00
 3230              	.LASF152:
 3231 0710 63685F6D 		.ascii	"ch_memcore\000"
 3231      656D636F 
 3231      726500
 3232              	.LASF73:
 3233 071b 73797374 		.ascii	"systime_t\000"
 3233      696D655F 
 3233      7400
 3234              	.LASF57:
 3235 0725 76746675 		.ascii	"vtfunc_t\000"
 3235      6E635F74 
 3235      00
 3236              	.LASF179:
 3237 072e 5F5F7365 		.ascii	"__set_BASEPRI\000"
 3237      745F4241 
 3237      53455052 
 3237      4900
 3238              	.LASF67:
 3239 073c 70616E69 		.ascii	"panic_msg\000"
 3239      635F6D73 
 3239      6700
 3240              	.LASF182:
 3241 0746 746F704F 		.ascii	"topOfProcStack\000"
 3241      6650726F 
 3241      63537461 
 3241      636B00
 3242              	.LASF111:
 3243 0755 6F666673 		.ascii	"offset\000"
 3243      657400
 3244              	.LASF122:
 3245 075c 63685F6D 		.ascii	"ch_mutex\000"
 3245      75746578 
 3245      00
 3246              	.LASF136:
 3247 0765 6F66665F 		.ascii	"off_older\000"
 3247      6F6C6465 
 3247      7200
 3248              	.LASF9:
 3249 076f 73686F72 		.ascii	"short unsigned int\000"
 3249      7420756E 
 3249      7369676E 
 3249      65642069 
 3249      6E7400
 3250              	.LASF68:
 3251 0782 63685F73 		.ascii	"ch_system_t\000"
ARM GAS  /tmp/cc1CSJEq.s 			page 64


 3251      79737465 
 3251      6D5F7400 
 3252              	.LASF126:
 3253 078e 6964656E 		.ascii	"identifier\000"
 3253      74696669 
 3253      657200
 3254              	.LASF21:
 3255 0799 7274636E 		.ascii	"rtcnt_t\000"
 3255      745F7400 
 3256              	.LASF176:
 3257 07a1 706F7274 		.ascii	"port_lock_from_isr\000"
 3257      5F6C6F63 
 3257      6B5F6672 
 3257      6F6D5F69 
 3257      737200
 3258              	.LASF184:
 3259 07b4 5F5F6765 		.ascii	"__get_PSP\000"
 3259      745F5053 
 3259      5000
 3260              	.LASF154:
 3261 07be 6F626A65 		.ascii	"object_size\000"
 3261      63745F73 
 3261      697A6500 
 3262              	.LASF130:
 3263 07ca 70747273 		.ascii	"ptrsize\000"
 3263      697A6500 
 3264              	.LASF162:
 3265 07d2 63685F6F 		.ascii	"ch_objects_factory\000"
 3265      626A6563 
 3265      74735F66 
 3265      6163746F 
 3265      727900
 3266              	.LASF51:
 3267 07e5 74687265 		.ascii	"threads_queue_t\000"
 3267      6164735F 
 3267      71756575 
 3267      655F7400 
 3268              	.LASF153:
 3269 07f5 706F6F6C 		.ascii	"pool_header\000"
 3269      5F686561 
 3269      64657200 
 3270              	.LASF87:
 3271 0801 4D4D4652 		.ascii	"MMFR\000"
 3271      00
 3272              	.LASF137:
 3273 0806 6F66665F 		.ascii	"off_name\000"
 3273      6E616D65 
 3273      00
 3274              	.LASF187:
 3275 080f 2E2E2F2E 		.ascii	"../../modules/ChibiOS/os/common/ports/ARMCMx/chcore"
 3275      2E2F6D6F 
 3275      64756C65 
 3275      732F4368 
 3275      6962694F 
 3276 0842 5F76376D 		.ascii	"_v7m.c\000"
 3276      2E6300
 3277              	.LASF16:
ARM GAS  /tmp/cc1CSJEq.s 			page 65


 3278 0849 75696E74 		.ascii	"uint8_t\000"
 3278      385F7400 
 3279              	.LASF38:
 3280 0851 666C6167 		.ascii	"flags\000"
 3280      7300
 3281              	.LASF169:
 3282 0857 6669666F 		.ascii	"fifo_list\000"
 3282      5F6C6973 
 3282      7400
 3283              	.LASF140:
 3284 0861 6F66665F 		.ascii	"off_flags\000"
 3284      666C6167 
 3284      7300
 3285              	.LASF46:
 3286 086b 74687265 		.ascii	"thread_reference_t\000"
 3286      61645F72 
 3286      65666572 
 3286      656E6365 
 3286      5F7400
 3287              	.LASF115:
 3288 087e 77746F62 		.ascii	"wtobjp\000"
 3288      6A7000
 3289              	.LASF139:
 3290 0885 6F66665F 		.ascii	"off_state\000"
 3290      73746174 
 3290      6500
 3291              	.LASF170:
 3292 088f 6F626A65 		.ascii	"objects_factory_t\000"
 3292      6374735F 
 3292      66616374 
 3292      6F72795F 
 3292      7400
 3293              	.LASF90:
 3294 08a1 43504143 		.ascii	"CPACR\000"
 3294      5200
 3295              	.LASF82:
 3296 08a7 48465352 		.ascii	"HFSR\000"
 3296      00
 3297              	.LASF43:
 3298 08ac 6D74786C 		.ascii	"mtxlist\000"
 3298      69737400 
 3299              	.LASF146:
 3300 08b4 6D757465 		.ascii	"mutex_t\000"
 3300      785F7400 
 3301              	.LASF185:
 3302 08bc 72657375 		.ascii	"result\000"
 3302      6C7400
 3303              	.LASF149:
 3304 08c3 6E657874 		.ascii	"nextmem\000"
 3304      6D656D00 
 3305              		.ident	"GCC: (GNU Tools for ARM Embedded Processors 6-2017-q2-update) 6.3.1 20170620 (release) [AR
ARM GAS  /tmp/cc1CSJEq.s 			page 66


DEFINED SYMBOLS
                            *ABS*:0000000000000000 chcore_v7m.c
     /tmp/cc1CSJEq.s:18     .text.SVC_Handler:0000000000000000 $t
     /tmp/cc1CSJEq.s:25     .text.SVC_Handler:0000000000000000 SVC_Handler
     /tmp/cc1CSJEq.s:84     .text.SVC_Handler:000000000000001c $d
     /tmp/cc1CSJEq.s:93     .text._port_irq_epilogue:0000000000000000 $t
     /tmp/cc1CSJEq.s:100    .text._port_irq_epilogue:0000000000000000 _port_irq_epilogue
     /tmp/cc1CSJEq.s:213    .text._port_irq_epilogue:000000000000004c $d
                     .debug_frame:0000000000000010 $d

UNDEFINED SYMBOLS
chSchIsPreemptionRequired
_port_switch_from_isr
_port_exit_from_isr
