ARM GAS  /tmp/ccEDmUSo.s 			page 1


   1              		.cpu cortex-m4
   2              		.eabi_attribute 27, 1
   3              		.eabi_attribute 28, 1
   4              		.eabi_attribute 20, 1
   5              		.eabi_attribute 21, 1
   6              		.eabi_attribute 23, 3
   7              		.eabi_attribute 24, 1
   8              		.eabi_attribute 25, 1
   9              		.eabi_attribute 26, 1
  10              		.eabi_attribute 30, 4
  11              		.eabi_attribute 34, 1
  12              		.eabi_attribute 18, 4
  13              		.file	"chcore_v7m.c"
  14              		.text
  15              	.Ltext0:
  16              		.cfi_sections	.debug_frame
  17              		.section	.text.SVC_Handler,"ax",%progbits
  18              		.align	1
  19              		.global	SVC_Handler
  20              		.syntax unified
  21              		.thumb
  22              		.thumb_func
  23              		.fpu fpv4-sp-d16
  24              		.type	SVC_Handler, %function
  25              	SVC_Handler:
  26              	.LFB217:
  27              		.file 1 "../../modules/ChibiOS/os/common/ports/ARMCMx/chcore_v7m.c"
  28              		.loc 1 62 0
  29              		.cfi_startproc
  30              		@ args = 0, pretend = 0, frame = 0
  31              		@ frame_needed = 0, uses_anonymous_args = 0
  32              		@ link register save eliminated.
  33              		.loc 1 68 0
  34 0000 064A     		ldr	r2, .L2
  35 0002 5368     		ldr	r3, [r2, #4]
  36 0004 23F00103 		bic	r3, r3, #1
  37 0008 5360     		str	r3, [r2, #4]
  38              	.LBB51:
  39              	.LBB52:
  40              		.file 2 "../../modules/ChibiOS/os/common/ext/ARM/CMSIS/Core/Include/cmsis_gcc.h"
  41              		.loc 2 251 0
  42              		.syntax unified
  43              	@ 251 "../../modules/ChibiOS/os/common/ext/ARM/CMSIS/Core/Include/cmsis_gcc.h" 1
  44 000a EFF30983 		MRS r3, psp
  45              	@ 0 "" 2
  46              	.LVL0:
  47              		.thumb
  48              		.syntax unified
  49              	.LBE52:
  50              	.LBE51:
  51              		.loc 1 76 0
  52 000e 6833     		adds	r3, r3, #104
  53              	.LVL1:
  54              	.LBB53:
  55              	.LBB54:
  56              		.loc 2 279 0
  57              		.syntax unified
ARM GAS  /tmp/ccEDmUSo.s 			page 2


  58              	@ 279 "../../modules/ChibiOS/os/common/ext/ARM/CMSIS/Core/Include/cmsis_gcc.h" 1
  59 0010 83F30988 		MSR psp, r3
  60              	@ 0 "" 2
  61              	.LVL2:
  62              		.thumb
  63              		.syntax unified
  64              	.LBE54:
  65              	.LBE53:
  66              	.LBB55:
  67              	.LBB56:
  68              	.LBB57:
  69              	.LBB58:
  70              		.loc 2 493 0
  71 0014 0023     		movs	r3, #0
  72              	.LVL3:
  73              		.syntax unified
  74              	@ 493 "../../modules/ChibiOS/os/common/ext/ARM/CMSIS/Core/Include/cmsis_gcc.h" 1
  75 0016 83F31188 		MSR basepri, r3
  76              	@ 0 "" 2
  77              	.LVL4:
  78              		.thumb
  79              		.syntax unified
  80 001a 7047     		bx	lr
  81              	.L3:
  82              		.align	2
  83              	.L2:
  84 001c 30EF00E0 		.word	-536809680
  85              	.LBE58:
  86              	.LBE57:
  87              	.LBE56:
  88              	.LBE55:
  89              		.cfi_endproc
  90              	.LFE217:
  91              		.size	SVC_Handler, .-SVC_Handler
  92              		.section	.text._port_irq_epilogue,"ax",%progbits
  93              		.align	1
  94              		.global	_port_irq_epilogue
  95              		.syntax unified
  96              		.thumb
  97              		.thumb_func
  98              		.fpu fpv4-sp-d16
  99              		.type	_port_irq_epilogue, %function
 100              	_port_irq_epilogue:
 101              	.LFB218:
 102              		.loc 1 122 0
 103              		.cfi_startproc
 104              		@ args = 0, pretend = 0, frame = 0
 105              		@ frame_needed = 0, uses_anonymous_args = 0
 106              	.LVL5:
 107 0000 10B5     		push	{r4, lr}
 108              		.cfi_def_cfa_offset 8
 109              		.cfi_offset 4, -8
 110              		.cfi_offset 14, -4
 111              	.LBB59:
 112              	.LBB60:
 113              	.LBB61:
 114              	.LBB62:
ARM GAS  /tmp/ccEDmUSo.s 			page 3


 115              		.loc 2 493 0
 116 0002 2023     		movs	r3, #32
 117              		.syntax unified
 118              	@ 493 "../../modules/ChibiOS/os/common/ext/ARM/CMSIS/Core/Include/cmsis_gcc.h" 1
 119 0004 83F31188 		MSR basepri, r3
 120              	@ 0 "" 2
 121              	.LVL6:
 122              		.thumb
 123              		.syntax unified
 124              	.LBE62:
 125              	.LBE61:
 126              	.LBE60:
 127              	.LBE59:
 128              		.loc 1 125 0
 129 0008 104B     		ldr	r3, .L9
 130 000a 5B68     		ldr	r3, [r3, #4]
 131 000c 13F40063 		ands	r3, r3, #2048
 132 0010 18D0     		beq	.L5
 133              	.LBB63:
 134              	.LBB64:
 135              	.LBB65:
 136              		.loc 2 778 0
 137              		.syntax unified
 138              	@ 778 "../../modules/ChibiOS/os/common/ext/ARM/CMSIS/Core/Include/cmsis_gcc.h" 1
 139 0012 F1EE103A 		VMRS r3, fpscr
 140              	@ 0 "" 2
 141              		.thumb
 142              		.syntax unified
 143              	.LBE65:
 144              	.LBE64:
 145              	.LBB66:
 146              	.LBB67:
 147              		.loc 2 251 0
 148              		.syntax unified
 149              	@ 251 "../../modules/ChibiOS/os/common/ext/ARM/CMSIS/Core/Include/cmsis_gcc.h" 1
 150 0016 EFF30984 		MRS r4, psp
 151              	@ 0 "" 2
 152              	.LVL7:
 153              		.thumb
 154              		.syntax unified
 155              	.LBE67:
 156              	.LBE66:
 157              		.loc 1 141 0
 158 001a 4FF08073 		mov	r3, #16777216
 159 001e 44F84C3C 		str	r3, [r4, #-76]
 160              		.loc 1 143 0
 161 0022 0B4B     		ldr	r3, .L9+4
 162 0024 DB68     		ldr	r3, [r3, #12]
 163 0026 44F8083C 		str	r3, [r4, #-8]
 164              	.LVL8:
 165              		.loc 1 138 0
 166 002a A4F16803 		sub	r3, r4, #104
 167              	.LVL9:
 168              	.LBB68:
 169              	.LBB69:
 170              		.loc 2 279 0
 171              		.syntax unified
ARM GAS  /tmp/ccEDmUSo.s 			page 4


 172              	@ 279 "../../modules/ChibiOS/os/common/ext/ARM/CMSIS/Core/Include/cmsis_gcc.h" 1
 173 002e 83F30988 		MSR psp, r3
 174              	@ 0 "" 2
 175              	.LVL10:
 176              		.thumb
 177              		.syntax unified
 178              	.LBE69:
 179              	.LBE68:
 180              		.loc 1 151 0
 181 0032 FFF7FEFF 		bl	chSchIsPreemptionRequired
 182              	.LVL11:
 183 0036 18B1     		cbz	r0, .L6
 184              		.loc 1 153 0
 185 0038 064B     		ldr	r3, .L9+8
 186              	.L8:
 187              		.loc 1 158 0
 188 003a 44F8503C 		str	r3, [r4, #-80]
 189 003e 10BD     		pop	{r4, pc}
 190              	.LVL12:
 191              	.L6:
 192 0040 054B     		ldr	r3, .L9+12
 193 0042 FAE7     		b	.L8
 194              	.LVL13:
 195              	.L5:
 196              	.LBE63:
 197              	.LBB70:
 198              	.LBB71:
 199              	.LBB72:
 200              	.LBB73:
 201              		.loc 2 493 0
 202              		.syntax unified
 203              	@ 493 "../../modules/ChibiOS/os/common/ext/ARM/CMSIS/Core/Include/cmsis_gcc.h" 1
 204 0044 83F31188 		MSR basepri, r3
 205              	@ 0 "" 2
 206              	.LVL14:
 207              		.thumb
 208              		.syntax unified
 209 0048 10BD     		pop	{r4, pc}
 210              	.L10:
 211 004a 00BF     		.align	2
 212              	.L9:
 213 004c 00ED00E0 		.word	-536810240
 214 0050 30EF00E0 		.word	-536809680
 215 0054 00000000 		.word	_port_switch_from_isr
 216 0058 00000000 		.word	_port_exit_from_isr
 217              	.LBE73:
 218              	.LBE72:
 219              	.LBE71:
 220              	.LBE70:
 221              		.cfi_endproc
 222              	.LFE218:
 223              		.size	_port_irq_epilogue, .-_port_irq_epilogue
 224              		.text
 225              	.Letext0:
 226              		.file 3 "/opt/gcc-arm-none-eabi-6-2017-q2-update/arm-none-eabi/include/machine/_default_types.h"
 227              		.file 4 "/opt/gcc-arm-none-eabi-6-2017-q2-update/arm-none-eabi/include/sys/_stdint.h"
 228              		.file 5 "../../modules/ChibiOS/os/common/ports/ARMCMx/compilers/GCC/chtypes.h"
ARM GAS  /tmp/ccEDmUSo.s 			page 5


 229              		.file 6 "../../modules/ChibiOS/os/rt/include/chsystypes.h"
 230              		.file 7 "../../modules/ChibiOS/os/rt/include/chschd.h"
 231              		.file 8 "../../modules/ChibiOS/os/rt/include/chtime.h"
 232              		.file 9 "../../modules/ChibiOS/os/common/ext/ARM/CMSIS/Core/Include/core_cm4.h"
 233              		.file 10 "../../modules/ChibiOS/os/common/ext/ST/STM32F4xx/system_stm32f4xx.h"
 234              		.file 11 "../../modules/ChibiOS/os/common/ports/ARMCMx/chcore.h"
 235              		.file 12 "../../modules/ChibiOS/os/common/ports/ARMCMx/chcore_v7m.h"
 236              		.file 13 "../../modules/ChibiOS/os/rt/include/chsys.h"
 237              		.section	.debug_info,"",%progbits
 238              	.Ldebug_info0:
 239 0000 5B0B0000 		.4byte	0xb5b
 240 0004 0400     		.2byte	0x4
 241 0006 00000000 		.4byte	.Ldebug_abbrev0
 242 000a 04       		.byte	0x4
 243 000b 01       		.uleb128 0x1
 244 000c DB000000 		.4byte	.LASF110
 245 0010 0C       		.byte	0xc
 246 0011 97050000 		.4byte	.LASF111
 247 0015 AC020000 		.4byte	.LASF112
 248 0019 00000000 		.4byte	.Ldebug_ranges0+0
 249 001d 00000000 		.4byte	0
 250 0021 00000000 		.4byte	.Ldebug_line0
 251 0025 02       		.uleb128 0x2
 252 0026 04       		.byte	0x4
 253 0027 05       		.byte	0x5
 254 0028 696E7400 		.ascii	"int\000"
 255 002c 03       		.uleb128 0x3
 256 002d 04       		.byte	0x4
 257 002e 07       		.byte	0x7
 258 002f 85020000 		.4byte	.LASF0
 259 0033 03       		.uleb128 0x3
 260 0034 08       		.byte	0x8
 261 0035 05       		.byte	0x5
 262 0036 69020000 		.4byte	.LASF1
 263 003a 03       		.uleb128 0x3
 264 003b 08       		.byte	0x8
 265 003c 04       		.byte	0x4
 266 003d A0030000 		.4byte	.LASF2
 267 0041 03       		.uleb128 0x3
 268 0042 01       		.byte	0x1
 269 0043 06       		.byte	0x6
 270 0044 30000000 		.4byte	.LASF3
 271 0048 04       		.uleb128 0x4
 272 0049 3C000000 		.4byte	.LASF7
 273 004d 03       		.byte	0x3
 274 004e 2B       		.byte	0x2b
 275 004f 53000000 		.4byte	0x53
 276 0053 03       		.uleb128 0x3
 277 0054 01       		.byte	0x1
 278 0055 08       		.byte	0x8
 279 0056 44040000 		.4byte	.LASF4
 280 005a 03       		.uleb128 0x3
 281 005b 02       		.byte	0x2
 282 005c 05       		.byte	0x5
 283 005d 65040000 		.4byte	.LASF5
 284 0061 03       		.uleb128 0x3
 285 0062 02       		.byte	0x2
ARM GAS  /tmp/ccEDmUSo.s 			page 6


 286 0063 07       		.byte	0x7
 287 0064 45050000 		.4byte	.LASF6
 288 0068 04       		.uleb128 0x4
 289 0069 52030000 		.4byte	.LASF8
 290 006d 03       		.byte	0x3
 291 006e 4D       		.byte	0x4d
 292 006f 73000000 		.4byte	0x73
 293 0073 03       		.uleb128 0x3
 294 0074 04       		.byte	0x4
 295 0075 05       		.byte	0x5
 296 0076 17020000 		.4byte	.LASF9
 297 007a 04       		.uleb128 0x4
 298 007b 43020000 		.4byte	.LASF10
 299 007f 03       		.byte	0x3
 300 0080 4F       		.byte	0x4f
 301 0081 85000000 		.4byte	0x85
 302 0085 03       		.uleb128 0x3
 303 0086 04       		.byte	0x4
 304 0087 07       		.byte	0x7
 305 0088 E0040000 		.4byte	.LASF11
 306 008c 04       		.uleb128 0x4
 307 008d DD030000 		.4byte	.LASF12
 308 0091 03       		.byte	0x3
 309 0092 69       		.byte	0x69
 310 0093 97000000 		.4byte	0x97
 311 0097 03       		.uleb128 0x3
 312 0098 08       		.byte	0x8
 313 0099 07       		.byte	0x7
 314 009a C4000000 		.4byte	.LASF13
 315 009e 04       		.uleb128 0x4
 316 009f D1050000 		.4byte	.LASF14
 317 00a3 04       		.byte	0x4
 318 00a4 18       		.byte	0x18
 319 00a5 48000000 		.4byte	0x48
 320 00a9 05       		.uleb128 0x5
 321 00aa 9E000000 		.4byte	0x9e
 322 00ae 06       		.uleb128 0x6
 323 00af 9E000000 		.4byte	0x9e
 324 00b3 04       		.uleb128 0x4
 325 00b4 3C040000 		.4byte	.LASF15
 326 00b8 04       		.byte	0x4
 327 00b9 2C       		.byte	0x2c
 328 00ba 68000000 		.4byte	0x68
 329 00be 05       		.uleb128 0x5
 330 00bf B3000000 		.4byte	0xb3
 331 00c3 04       		.uleb128 0x4
 332 00c4 C9040000 		.4byte	.LASF16
 333 00c8 04       		.byte	0x4
 334 00c9 30       		.byte	0x30
 335 00ca 7A000000 		.4byte	0x7a
 336 00ce 05       		.uleb128 0x5
 337 00cf C3000000 		.4byte	0xc3
 338 00d3 06       		.uleb128 0x6
 339 00d4 CE000000 		.4byte	0xce
 340 00d8 04       		.uleb128 0x4
 341 00d9 27000000 		.4byte	.LASF17
 342 00dd 04       		.byte	0x4
ARM GAS  /tmp/ccEDmUSo.s 			page 7


 343 00de 3C       		.byte	0x3c
 344 00df 8C000000 		.4byte	0x8c
 345 00e3 04       		.uleb128 0x4
 346 00e4 1A030000 		.4byte	.LASF18
 347 00e8 05       		.byte	0x5
 348 00e9 2A       		.byte	0x2a
 349 00ea 9E000000 		.4byte	0x9e
 350 00ee 04       		.uleb128 0x4
 351 00ef 20020000 		.4byte	.LASF19
 352 00f3 05       		.byte	0x5
 353 00f4 2B       		.byte	0x2b
 354 00f5 9E000000 		.4byte	0x9e
 355 00f9 04       		.uleb128 0x4
 356 00fa 13040000 		.4byte	.LASF20
 357 00fe 05       		.byte	0x5
 358 00ff 2E       		.byte	0x2e
 359 0100 C3000000 		.4byte	0xc3
 360 0104 04       		.uleb128 0x4
 361 0105 F0020000 		.4byte	.LASF21
 362 0109 05       		.byte	0x5
 363 010a 2F       		.byte	0x2f
 364 010b B3000000 		.4byte	0xb3
 365 010f 04       		.uleb128 0x4
 366 0110 11050000 		.4byte	.LASF22
 367 0114 06       		.byte	0x6
 368 0115 34       		.byte	0x34
 369 0116 1A010000 		.4byte	0x11a
 370 011a 07       		.uleb128 0x7
 371 011b E1020000 		.4byte	.LASF29
 372 011f 18       		.byte	0x18
 373 0120 07       		.byte	0x7
 374 0121 8E       		.byte	0x8e
 375 0122 6E010000 		.4byte	0x16e
 376 0126 08       		.uleb128 0x8
 377 0127 AC030000 		.4byte	.LASF23
 378 012b 07       		.byte	0x7
 379 012c 8F       		.byte	0x8f
 380 012d 7F010000 		.4byte	0x17f
 381 0131 00       		.byte	0
 382 0132 08       		.uleb128 0x8
 383 0133 D0030000 		.4byte	.LASF24
 384 0137 07       		.byte	0x7
 385 0138 90       		.byte	0x90
 386 0139 F9000000 		.4byte	0xf9
 387 013d 08       		.byte	0x8
 388 013e 09       		.uleb128 0x9
 389 013f 63747800 		.ascii	"ctx\000"
 390 0143 07       		.byte	0x7
 391 0144 91       		.byte	0x91
 392 0145 CC050000 		.4byte	0x5cc
 393 0149 0C       		.byte	0xc
 394 014a 08       		.uleb128 0x8
 395 014b 11020000 		.4byte	.LASF25
 396 014f 07       		.byte	0x7
 397 0150 A9       		.byte	0xa9
 398 0151 EE000000 		.4byte	0xee
 399 0155 10       		.byte	0x10
ARM GAS  /tmp/ccEDmUSo.s 			page 8


 400 0156 08       		.uleb128 0x8
 401 0157 D9050000 		.4byte	.LASF26
 402 015b 07       		.byte	0x7
 403 015c AD       		.byte	0xad
 404 015d E3000000 		.4byte	0xe3
 405 0161 11       		.byte	0x11
 406 0162 0A       		.uleb128 0xa
 407 0163 7500     		.ascii	"u\000"
 408 0165 07       		.byte	0x7
 409 0166 0301     		.2byte	0x103
 410 0168 87080000 		.4byte	0x887
 411 016c 14       		.byte	0x14
 412 016d 00       		.byte	0
 413 016e 04       		.uleb128 0x4
 414 016f 76030000 		.4byte	.LASF27
 415 0173 06       		.byte	0x6
 416 0174 39       		.byte	0x39
 417 0175 79010000 		.4byte	0x179
 418 0179 0B       		.uleb128 0xb
 419 017a 04       		.byte	0x4
 420 017b 0F010000 		.4byte	0x10f
 421 017f 04       		.uleb128 0x4
 422 0180 81050000 		.4byte	.LASF28
 423 0184 06       		.byte	0x6
 424 0185 45       		.byte	0x45
 425 0186 8A010000 		.4byte	0x18a
 426 018a 07       		.uleb128 0x7
 427 018b B3000000 		.4byte	.LASF30
 428 018f 08       		.byte	0x8
 429 0190 07       		.byte	0x7
 430 0191 83       		.byte	0x83
 431 0192 AF010000 		.4byte	0x1af
 432 0196 08       		.uleb128 0x8
 433 0197 AE000000 		.4byte	.LASF31
 434 019b 07       		.byte	0x7
 435 019c 84       		.byte	0x84
 436 019d 79010000 		.4byte	0x179
 437 01a1 00       		.byte	0
 438 01a2 08       		.uleb128 0x8
 439 01a3 46000000 		.4byte	.LASF32
 440 01a7 07       		.byte	0x7
 441 01a8 85       		.byte	0x85
 442 01a9 79010000 		.4byte	0x179
 443 01ad 04       		.byte	0x4
 444 01ae 00       		.byte	0
 445 01af 04       		.uleb128 0x4
 446 01b0 00000000 		.4byte	.LASF33
 447 01b4 06       		.byte	0x6
 448 01b5 4C       		.byte	0x4c
 449 01b6 BA010000 		.4byte	0x1ba
 450 01ba 0C       		.uleb128 0xc
 451 01bb 22030000 		.4byte	.LASF34
 452 01bf 14       		.byte	0x14
 453 01c0 07       		.byte	0x7
 454 01c1 5E01     		.2byte	0x15e
 455 01c3 FC010000 		.4byte	0x1fc
 456 01c7 0D       		.uleb128 0xd
ARM GAS  /tmp/ccEDmUSo.s 			page 9


 457 01c8 AC030000 		.4byte	.LASF23
 458 01cc 07       		.byte	0x7
 459 01cd 5F01     		.2byte	0x15f
 460 01cf 7F010000 		.4byte	0x17f
 461 01d3 00       		.byte	0
 462 01d4 0D       		.uleb128 0xd
 463 01d5 D0030000 		.4byte	.LASF24
 464 01d9 07       		.byte	0x7
 465 01da 6001     		.2byte	0x160
 466 01dc F9000000 		.4byte	0xf9
 467 01e0 08       		.byte	0x8
 468 01e1 0A       		.uleb128 0xa
 469 01e2 63747800 		.ascii	"ctx\000"
 470 01e6 07       		.byte	0x7
 471 01e7 6201     		.2byte	0x162
 472 01e9 CC050000 		.4byte	0x5cc
 473 01ed 0C       		.byte	0xc
 474 01ee 0D       		.uleb128 0xd
 475 01ef D5030000 		.4byte	.LASF35
 476 01f3 07       		.byte	0x7
 477 01f4 6901     		.2byte	0x169
 478 01f6 79010000 		.4byte	0x179
 479 01fa 10       		.byte	0x10
 480 01fb 00       		.byte	0
 481 01fc 04       		.uleb128 0x4
 482 01fd 24050000 		.4byte	.LASF36
 483 0201 06       		.byte	0x6
 484 0202 51       		.byte	0x51
 485 0203 07020000 		.4byte	0x207
 486 0207 0B       		.uleb128 0xb
 487 0208 04       		.byte	0x4
 488 0209 0D020000 		.4byte	0x20d
 489 020d 0E       		.uleb128 0xe
 490 020e 18020000 		.4byte	0x218
 491 0212 0F       		.uleb128 0xf
 492 0213 18020000 		.4byte	0x218
 493 0217 00       		.byte	0
 494 0218 10       		.uleb128 0x10
 495 0219 04       		.byte	0x4
 496 021a 04       		.uleb128 0x4
 497 021b 03040000 		.4byte	.LASF37
 498 021f 06       		.byte	0x6
 499 0220 56       		.byte	0x56
 500 0221 25020000 		.4byte	0x225
 501 0225 0C       		.uleb128 0xc
 502 0226 A6040000 		.4byte	.LASF38
 503 022a 14       		.byte	0x14
 504 022b 07       		.byte	0x7
 505 022c 3901     		.2byte	0x139
 506 022e 74020000 		.4byte	0x274
 507 0232 0D       		.uleb128 0xd
 508 0233 AE000000 		.4byte	.LASF31
 509 0237 07       		.byte	0x7
 510 0238 3A01     		.2byte	0x13a
 511 023a C2080000 		.4byte	0x8c2
 512 023e 00       		.byte	0
 513 023f 0D       		.uleb128 0xd
ARM GAS  /tmp/ccEDmUSo.s 			page 10


 514 0240 46000000 		.4byte	.LASF32
 515 0244 07       		.byte	0x7
 516 0245 3B01     		.2byte	0x13b
 517 0247 C2080000 		.4byte	0x8c2
 518 024b 04       		.byte	0x4
 519 024c 0D       		.uleb128 0xd
 520 024d 13000000 		.4byte	.LASF39
 521 0251 07       		.byte	0x7
 522 0252 3C01     		.2byte	0x13c
 523 0254 3F030000 		.4byte	0x33f
 524 0258 08       		.byte	0x8
 525 0259 0D       		.uleb128 0xd
 526 025a F7040000 		.4byte	.LASF40
 527 025e 07       		.byte	0x7
 528 025f 3D01     		.2byte	0x13d
 529 0261 FC010000 		.4byte	0x1fc
 530 0265 0C       		.byte	0xc
 531 0266 0A       		.uleb128 0xa
 532 0267 70617200 		.ascii	"par\000"
 533 026b 07       		.byte	0x7
 534 026c 3F01     		.2byte	0x13f
 535 026e 18020000 		.4byte	0x218
 536 0272 10       		.byte	0x10
 537 0273 00       		.byte	0
 538 0274 04       		.uleb128 0x4
 539 0275 92000000 		.4byte	.LASF41
 540 0279 06       		.byte	0x6
 541 027a 5B       		.byte	0x5b
 542 027b 7F020000 		.4byte	0x27f
 543 027f 0C       		.uleb128 0xc
 544 0280 89030000 		.4byte	.LASF42
 545 0284 10       		.byte	0x10
 546 0285 07       		.byte	0x7
 547 0286 4901     		.2byte	0x149
 548 0288 C1020000 		.4byte	0x2c1
 549 028c 0D       		.uleb128 0xd
 550 028d AE000000 		.4byte	.LASF31
 551 0291 07       		.byte	0x7
 552 0292 4A01     		.2byte	0x14a
 553 0294 C2080000 		.4byte	0x8c2
 554 0298 00       		.byte	0
 555 0299 0D       		.uleb128 0xd
 556 029a 46000000 		.4byte	.LASF32
 557 029e 07       		.byte	0x7
 558 029f 4C01     		.2byte	0x14c
 559 02a1 C2080000 		.4byte	0x8c2
 560 02a5 04       		.byte	0x4
 561 02a6 0D       		.uleb128 0xd
 562 02a7 13000000 		.4byte	.LASF39
 563 02ab 07       		.byte	0x7
 564 02ac 4E01     		.2byte	0x14e
 565 02ae 3F030000 		.4byte	0x33f
 566 02b2 08       		.byte	0x8
 567 02b3 0D       		.uleb128 0xd
 568 02b4 6F040000 		.4byte	.LASF43
 569 02b8 07       		.byte	0x7
 570 02b9 5601     		.2byte	0x156
ARM GAS  /tmp/ccEDmUSo.s 			page 11


 571 02bb 34030000 		.4byte	0x334
 572 02bf 0C       		.byte	0xc
 573 02c0 00       		.byte	0
 574 02c1 04       		.uleb128 0x4
 575 02c2 57000000 		.4byte	.LASF44
 576 02c6 06       		.byte	0x6
 577 02c7 60       		.byte	0x60
 578 02c8 CC020000 		.4byte	0x2cc
 579 02cc 0C       		.uleb128 0xc
 580 02cd 27040000 		.4byte	.LASF45
 581 02d1 04       		.byte	0x4
 582 02d2 07       		.byte	0x7
 583 02d3 7001     		.2byte	0x170
 584 02d5 E7020000 		.4byte	0x2e7
 585 02d9 0D       		.uleb128 0xd
 586 02da 3B050000 		.4byte	.LASF46
 587 02de 07       		.byte	0x7
 588 02df 7801     		.2byte	0x178
 589 02e1 CE080000 		.4byte	0x8ce
 590 02e5 00       		.byte	0
 591 02e6 00       		.byte	0
 592 02e7 04       		.uleb128 0x4
 593 02e8 58050000 		.4byte	.LASF47
 594 02ec 06       		.byte	0x6
 595 02ed 65       		.byte	0x65
 596 02ee F2020000 		.4byte	0x2f2
 597 02f2 0C       		.uleb128 0xc
 598 02f3 7D040000 		.4byte	.LASF48
 599 02f7 40       		.byte	0x40
 600 02f8 07       		.byte	0x7
 601 02f9 9001     		.2byte	0x190
 602 02fb 34030000 		.4byte	0x334
 603 02ff 0D       		.uleb128 0xd
 604 0300 91050000 		.4byte	.LASF49
 605 0304 07       		.byte	0x7
 606 0305 9401     		.2byte	0x194
 607 0307 AF010000 		.4byte	0x1af
 608 030b 00       		.byte	0
 609 030c 0D       		.uleb128 0xd
 610 030d FE010000 		.4byte	.LASF50
 611 0311 07       		.byte	0x7
 612 0312 9801     		.2byte	0x198
 613 0314 74020000 		.4byte	0x274
 614 0318 14       		.byte	0x14
 615 0319 0A       		.uleb128 0xa
 616 031a 64626700 		.ascii	"dbg\000"
 617 031e 07       		.byte	0x7
 618 031f 9C01     		.2byte	0x19c
 619 0321 C1020000 		.4byte	0x2c1
 620 0325 24       		.byte	0x24
 621 0326 0D       		.uleb128 0xd
 622 0327 87000000 		.4byte	.LASF51
 623 032b 07       		.byte	0x7
 624 032c A001     		.2byte	0x1a0
 625 032e 0F010000 		.4byte	0x10f
 626 0332 28       		.byte	0x28
 627 0333 00       		.byte	0
ARM GAS  /tmp/ccEDmUSo.s 			page 12


 628 0334 04       		.uleb128 0x4
 629 0335 1A050000 		.4byte	.LASF52
 630 0339 08       		.byte	0x8
 631 033a 6D       		.byte	0x6d
 632 033b C3000000 		.4byte	0xc3
 633 033f 04       		.uleb128 0x4
 634 0340 77020000 		.4byte	.LASF53
 635 0344 08       		.byte	0x8
 636 0345 79       		.byte	0x79
 637 0346 C3000000 		.4byte	0xc3
 638 034a 03       		.uleb128 0x3
 639 034b 04       		.byte	0x4
 640 034c 07       		.byte	0x7
 641 034d 6D030000 		.4byte	.LASF54
 642 0351 11       		.uleb128 0x11
 643 0352 8C       		.byte	0x8c
 644 0353 09       		.byte	0x9
 645 0354 B801     		.2byte	0x1b8
 646 0356 6C040000 		.4byte	0x46c
 647 035a 0D       		.uleb128 0xd
 648 035b A8000000 		.4byte	.LASF55
 649 035f 09       		.byte	0x9
 650 0360 BA01     		.2byte	0x1ba
 651 0362 D3000000 		.4byte	0xd3
 652 0366 00       		.byte	0
 653 0367 0D       		.uleb128 0xd
 654 0368 EB020000 		.4byte	.LASF56
 655 036c 09       		.byte	0x9
 656 036d BB01     		.2byte	0x1bb
 657 036f CE000000 		.4byte	0xce
 658 0373 04       		.byte	0x4
 659 0374 0D       		.uleb128 0xd
 660 0375 DC020000 		.4byte	.LASF57
 661 0379 09       		.byte	0x9
 662 037a BC01     		.2byte	0x1bc
 663 037c CE000000 		.4byte	0xce
 664 0380 08       		.byte	0x8
 665 0381 0D       		.uleb128 0xd
 666 0382 F6020000 		.4byte	.LASF58
 667 0386 09       		.byte	0x9
 668 0387 BD01     		.2byte	0x1bd
 669 0389 CE000000 		.4byte	0xce
 670 038d 0C       		.byte	0xc
 671 038e 0A       		.uleb128 0xa
 672 038f 53435200 		.ascii	"SCR\000"
 673 0393 09       		.byte	0x9
 674 0394 BE01     		.2byte	0x1be
 675 0396 CE000000 		.4byte	0xce
 676 039a 10       		.byte	0x10
 677 039b 0A       		.uleb128 0xa
 678 039c 43435200 		.ascii	"CCR\000"
 679 03a0 09       		.byte	0x9
 680 03a1 BF01     		.2byte	0x1bf
 681 03a3 CE000000 		.4byte	0xce
 682 03a7 14       		.byte	0x14
 683 03a8 0A       		.uleb128 0xa
 684 03a9 53485000 		.ascii	"SHP\000"
ARM GAS  /tmp/ccEDmUSo.s 			page 13


 685 03ad 09       		.byte	0x9
 686 03ae C001     		.2byte	0x1c0
 687 03b0 7C040000 		.4byte	0x47c
 688 03b4 18       		.byte	0x18
 689 03b5 0D       		.uleb128 0xd
 690 03b6 52040000 		.4byte	.LASF59
 691 03ba 09       		.byte	0x9
 692 03bb C101     		.2byte	0x1c1
 693 03bd CE000000 		.4byte	0xce
 694 03c1 24       		.byte	0x24
 695 03c2 0D       		.uleb128 0xd
 696 03c3 B2030000 		.4byte	.LASF60
 697 03c7 09       		.byte	0x9
 698 03c8 C201     		.2byte	0x1c2
 699 03ca CE000000 		.4byte	0xce
 700 03ce 28       		.byte	0x28
 701 03cf 0D       		.uleb128 0xd
 702 03d0 EC050000 		.4byte	.LASF61
 703 03d4 09       		.byte	0x9
 704 03d5 C301     		.2byte	0x1c3
 705 03d7 CE000000 		.4byte	0xce
 706 03db 2C       		.byte	0x2c
 707 03dc 0D       		.uleb128 0xd
 708 03dd FC020000 		.4byte	.LASF62
 709 03e1 09       		.byte	0x9
 710 03e2 C401     		.2byte	0x1c4
 711 03e4 CE000000 		.4byte	0xce
 712 03e8 30       		.byte	0x30
 713 03e9 0D       		.uleb128 0xd
 714 03ea 01030000 		.4byte	.LASF63
 715 03ee 09       		.byte	0x9
 716 03ef C501     		.2byte	0x1c5
 717 03f1 CE000000 		.4byte	0xce
 718 03f5 34       		.byte	0x34
 719 03f6 0D       		.uleb128 0xd
 720 03f7 37040000 		.4byte	.LASF64
 721 03fb 09       		.byte	0x9
 722 03fc C601     		.2byte	0x1c6
 723 03fe CE000000 		.4byte	0xce
 724 0402 38       		.byte	0x38
 725 0403 0D       		.uleb128 0xd
 726 0404 D2040000 		.4byte	.LASF65
 727 0408 09       		.byte	0x9
 728 0409 C701     		.2byte	0x1c7
 729 040b CE000000 		.4byte	0xce
 730 040f 3C       		.byte	0x3c
 731 0410 0A       		.uleb128 0xa
 732 0411 50465200 		.ascii	"PFR\000"
 733 0415 09       		.byte	0x9
 734 0416 C801     		.2byte	0x1c8
 735 0418 96040000 		.4byte	0x496
 736 041c 40       		.byte	0x40
 737 041d 0A       		.uleb128 0xa
 738 041e 44465200 		.ascii	"DFR\000"
 739 0422 09       		.byte	0x9
 740 0423 C901     		.2byte	0x1c9
 741 0425 D3000000 		.4byte	0xd3
ARM GAS  /tmp/ccEDmUSo.s 			page 14


 742 0429 48       		.byte	0x48
 743 042a 0A       		.uleb128 0xa
 744 042b 41445200 		.ascii	"ADR\000"
 745 042f 09       		.byte	0x9
 746 0430 CA01     		.2byte	0x1ca
 747 0432 D3000000 		.4byte	0xd3
 748 0436 4C       		.byte	0x4c
 749 0437 0D       		.uleb128 0xd
 750 0438 30030000 		.4byte	.LASF66
 751 043c 09       		.byte	0x9
 752 043d CB01     		.2byte	0x1cb
 753 043f B0040000 		.4byte	0x4b0
 754 0443 50       		.byte	0x50
 755 0444 0D       		.uleb128 0xd
 756 0445 F1010000 		.4byte	.LASF67
 757 0449 09       		.byte	0x9
 758 044a CC01     		.2byte	0x1cc
 759 044c CA040000 		.4byte	0x4ca
 760 0450 60       		.byte	0x60
 761 0451 0D       		.uleb128 0xd
 762 0452 F4030000 		.4byte	.LASF68
 763 0456 09       		.byte	0x9
 764 0457 CD01     		.2byte	0x1cd
 765 0459 CF040000 		.4byte	0x4cf
 766 045d 74       		.byte	0x74
 767 045e 0D       		.uleb128 0xd
 768 045f E6050000 		.4byte	.LASF69
 769 0463 09       		.byte	0x9
 770 0464 CE01     		.2byte	0x1ce
 771 0466 CE000000 		.4byte	0xce
 772 046a 88       		.byte	0x88
 773 046b 00       		.byte	0
 774 046c 12       		.uleb128 0x12
 775 046d A9000000 		.4byte	0xa9
 776 0471 7C040000 		.4byte	0x47c
 777 0475 13       		.uleb128 0x13
 778 0476 4A030000 		.4byte	0x34a
 779 047a 0B       		.byte	0xb
 780 047b 00       		.byte	0
 781 047c 05       		.uleb128 0x5
 782 047d 6C040000 		.4byte	0x46c
 783 0481 12       		.uleb128 0x12
 784 0482 D3000000 		.4byte	0xd3
 785 0486 91040000 		.4byte	0x491
 786 048a 13       		.uleb128 0x13
 787 048b 4A030000 		.4byte	0x34a
 788 048f 01       		.byte	0x1
 789 0490 00       		.byte	0
 790 0491 06       		.uleb128 0x6
 791 0492 81040000 		.4byte	0x481
 792 0496 05       		.uleb128 0x5
 793 0497 91040000 		.4byte	0x491
 794 049b 12       		.uleb128 0x12
 795 049c D3000000 		.4byte	0xd3
 796 04a0 AB040000 		.4byte	0x4ab
 797 04a4 13       		.uleb128 0x13
 798 04a5 4A030000 		.4byte	0x34a
ARM GAS  /tmp/ccEDmUSo.s 			page 15


 799 04a9 03       		.byte	0x3
 800 04aa 00       		.byte	0
 801 04ab 06       		.uleb128 0x6
 802 04ac 9B040000 		.4byte	0x49b
 803 04b0 05       		.uleb128 0x5
 804 04b1 AB040000 		.4byte	0x4ab
 805 04b5 12       		.uleb128 0x12
 806 04b6 D3000000 		.4byte	0xd3
 807 04ba C5040000 		.4byte	0x4c5
 808 04be 13       		.uleb128 0x13
 809 04bf 4A030000 		.4byte	0x34a
 810 04c3 04       		.byte	0x4
 811 04c4 00       		.byte	0
 812 04c5 06       		.uleb128 0x6
 813 04c6 B5040000 		.4byte	0x4b5
 814 04ca 05       		.uleb128 0x5
 815 04cb C5040000 		.4byte	0x4c5
 816 04cf 12       		.uleb128 0x12
 817 04d0 C3000000 		.4byte	0xc3
 818 04d4 DF040000 		.4byte	0x4df
 819 04d8 13       		.uleb128 0x13
 820 04d9 4A030000 		.4byte	0x34a
 821 04dd 04       		.byte	0x4
 822 04de 00       		.byte	0
 823 04df 14       		.uleb128 0x14
 824 04e0 57020000 		.4byte	.LASF70
 825 04e4 09       		.byte	0x9
 826 04e5 CF01     		.2byte	0x1cf
 827 04e7 51030000 		.4byte	0x351
 828 04eb 12       		.uleb128 0x12
 829 04ec C3000000 		.4byte	0xc3
 830 04f0 FB040000 		.4byte	0x4fb
 831 04f4 13       		.uleb128 0x13
 832 04f5 4A030000 		.4byte	0x34a
 833 04f9 00       		.byte	0
 834 04fa 00       		.byte	0
 835 04fb 11       		.uleb128 0x11
 836 04fc 18       		.byte	0x18
 837 04fd 09       		.byte	0x9
 838 04fe 2705     		.2byte	0x527
 839 0500 53050000 		.4byte	0x553
 840 0504 0D       		.uleb128 0xd
 841 0505 F4030000 		.4byte	.LASF68
 842 0509 09       		.byte	0x9
 843 050a 2905     		.2byte	0x529
 844 050c EB040000 		.4byte	0x4eb
 845 0510 00       		.byte	0
 846 0511 0D       		.uleb128 0xd
 847 0512 67030000 		.4byte	.LASF71
 848 0516 09       		.byte	0x9
 849 0517 2A05     		.2byte	0x52a
 850 0519 CE000000 		.4byte	0xce
 851 051d 04       		.byte	0x4
 852 051e 0D       		.uleb128 0xd
 853 051f 94040000 		.4byte	.LASF72
 854 0523 09       		.byte	0x9
 855 0524 2B05     		.2byte	0x52b
ARM GAS  /tmp/ccEDmUSo.s 			page 16


 856 0526 CE000000 		.4byte	0xce
 857 052a 08       		.byte	0x8
 858 052b 0D       		.uleb128 0xd
 859 052c 20000000 		.4byte	.LASF73
 860 0530 09       		.byte	0x9
 861 0531 2C05     		.2byte	0x52c
 862 0533 CE000000 		.4byte	0xce
 863 0537 0C       		.byte	0xc
 864 0538 0D       		.uleb128 0xd
 865 0539 E8030000 		.4byte	.LASF74
 866 053d 09       		.byte	0x9
 867 053e 2D05     		.2byte	0x52d
 868 0540 D3000000 		.4byte	0xd3
 869 0544 10       		.byte	0x10
 870 0545 0D       		.uleb128 0xd
 871 0546 EE030000 		.4byte	.LASF75
 872 054a 09       		.byte	0x9
 873 054b 2E05     		.2byte	0x52e
 874 054d D3000000 		.4byte	0xd3
 875 0551 14       		.byte	0x14
 876 0552 00       		.byte	0
 877 0553 14       		.uleb128 0x14
 878 0554 D7040000 		.4byte	.LASF76
 879 0558 09       		.byte	0x9
 880 0559 2F05     		.2byte	0x52f
 881 055b FB040000 		.4byte	0x4fb
 882 055f 15       		.uleb128 0x15
 883 0560 58040000 		.4byte	.LASF77
 884 0564 09       		.byte	0x9
 885 0565 0408     		.2byte	0x804
 886 0567 BE000000 		.4byte	0xbe
 887 056b 16       		.uleb128 0x16
 888 056c 9C020000 		.4byte	.LASF78
 889 0570 0A       		.byte	0xa
 890 0571 4C       		.byte	0x4c
 891 0572 C3000000 		.4byte	0xc3
 892 0576 12       		.uleb128 0x12
 893 0577 AE000000 		.4byte	0xae
 894 057b 86050000 		.4byte	0x586
 895 057f 13       		.uleb128 0x13
 896 0580 4A030000 		.4byte	0x34a
 897 0584 0F       		.byte	0xf
 898 0585 00       		.byte	0
 899 0586 06       		.uleb128 0x6
 900 0587 76050000 		.4byte	0x576
 901 058b 16       		.uleb128 0x16
 902 058c 35030000 		.4byte	.LASF79
 903 0590 0A       		.byte	0xa
 904 0591 4E       		.byte	0x4e
 905 0592 86050000 		.4byte	0x586
 906 0596 12       		.uleb128 0x12
 907 0597 AE000000 		.4byte	0xae
 908 059b A6050000 		.4byte	0x5a6
 909 059f 13       		.uleb128 0x13
 910 05a0 4A030000 		.4byte	0x34a
 911 05a4 07       		.byte	0x7
 912 05a5 00       		.byte	0
ARM GAS  /tmp/ccEDmUSo.s 			page 17


 913 05a6 06       		.uleb128 0x6
 914 05a7 96050000 		.4byte	0x596
 915 05ab 16       		.uleb128 0x16
 916 05ac 66000000 		.4byte	.LASF80
 917 05b0 0A       		.byte	0xa
 918 05b1 4F       		.byte	0x4f
 919 05b2 A6050000 		.4byte	0x5a6
 920 05b6 04       		.uleb128 0x4
 921 05b7 4E020000 		.4byte	.LASF81
 922 05bb 0B       		.byte	0xb
 923 05bc 65       		.byte	0x65
 924 05bd 18020000 		.4byte	0x218
 925 05c1 04       		.uleb128 0x4
 926 05c2 5C030000 		.4byte	.LASF82
 927 05c6 0B       		.byte	0xb
 928 05c7 6D       		.byte	0x6d
 929 05c8 D8000000 		.4byte	0xd8
 930 05cc 07       		.uleb128 0x7
 931 05cd B7030000 		.4byte	.LASF83
 932 05d1 04       		.byte	0x4
 933 05d2 0B       		.byte	0xb
 934 05d3 89       		.byte	0x89
 935 05d4 E4050000 		.4byte	0x5e4
 936 05d8 09       		.uleb128 0x9
 937 05d9 737000   		.ascii	"sp\000"
 938 05dc 0B       		.byte	0xb
 939 05dd 8A       		.byte	0x8a
 940 05de 30070000 		.4byte	0x730
 941 05e2 00       		.byte	0
 942 05e3 00       		.byte	0
 943 05e4 0C       		.uleb128 0xc
 944 05e5 4B000000 		.4byte	.LASF84
 945 05e9 64       		.byte	0x64
 946 05ea 0C       		.byte	0xc
 947 05eb 5901     		.2byte	0x159
 948 05ed 30070000 		.4byte	0x730
 949 05f1 0A       		.uleb128 0xa
 950 05f2 73313600 		.ascii	"s16\000"
 951 05f6 0C       		.byte	0xc
 952 05f7 5B01     		.2byte	0x15b
 953 05f9 B6050000 		.4byte	0x5b6
 954 05fd 00       		.byte	0
 955 05fe 0A       		.uleb128 0xa
 956 05ff 73313700 		.ascii	"s17\000"
 957 0603 0C       		.byte	0xc
 958 0604 5C01     		.2byte	0x15c
 959 0606 B6050000 		.4byte	0x5b6
 960 060a 04       		.byte	0x4
 961 060b 0A       		.uleb128 0xa
 962 060c 73313800 		.ascii	"s18\000"
 963 0610 0C       		.byte	0xc
 964 0611 5D01     		.2byte	0x15d
 965 0613 B6050000 		.4byte	0x5b6
 966 0617 08       		.byte	0x8
 967 0618 0A       		.uleb128 0xa
 968 0619 73313900 		.ascii	"s19\000"
 969 061d 0C       		.byte	0xc
ARM GAS  /tmp/ccEDmUSo.s 			page 18


 970 061e 5E01     		.2byte	0x15e
 971 0620 B6050000 		.4byte	0x5b6
 972 0624 0C       		.byte	0xc
 973 0625 0A       		.uleb128 0xa
 974 0626 73323000 		.ascii	"s20\000"
 975 062a 0C       		.byte	0xc
 976 062b 5F01     		.2byte	0x15f
 977 062d B6050000 		.4byte	0x5b6
 978 0631 10       		.byte	0x10
 979 0632 0A       		.uleb128 0xa
 980 0633 73323100 		.ascii	"s21\000"
 981 0637 0C       		.byte	0xc
 982 0638 6001     		.2byte	0x160
 983 063a B6050000 		.4byte	0x5b6
 984 063e 14       		.byte	0x14
 985 063f 0A       		.uleb128 0xa
 986 0640 73323200 		.ascii	"s22\000"
 987 0644 0C       		.byte	0xc
 988 0645 6101     		.2byte	0x161
 989 0647 B6050000 		.4byte	0x5b6
 990 064b 18       		.byte	0x18
 991 064c 0A       		.uleb128 0xa
 992 064d 73323300 		.ascii	"s23\000"
 993 0651 0C       		.byte	0xc
 994 0652 6201     		.2byte	0x162
 995 0654 B6050000 		.4byte	0x5b6
 996 0658 1C       		.byte	0x1c
 997 0659 0A       		.uleb128 0xa
 998 065a 73323400 		.ascii	"s24\000"
 999 065e 0C       		.byte	0xc
 1000 065f 6301     		.2byte	0x163
 1001 0661 B6050000 		.4byte	0x5b6
 1002 0665 20       		.byte	0x20
 1003 0666 0A       		.uleb128 0xa
 1004 0667 73323500 		.ascii	"s25\000"
 1005 066b 0C       		.byte	0xc
 1006 066c 6401     		.2byte	0x164
 1007 066e B6050000 		.4byte	0x5b6
 1008 0672 24       		.byte	0x24
 1009 0673 0A       		.uleb128 0xa
 1010 0674 73323600 		.ascii	"s26\000"
 1011 0678 0C       		.byte	0xc
 1012 0679 6501     		.2byte	0x165
 1013 067b B6050000 		.4byte	0x5b6
 1014 067f 28       		.byte	0x28
 1015 0680 0A       		.uleb128 0xa
 1016 0681 73323700 		.ascii	"s27\000"
 1017 0685 0C       		.byte	0xc
 1018 0686 6601     		.2byte	0x166
 1019 0688 B6050000 		.4byte	0x5b6
 1020 068c 2C       		.byte	0x2c
 1021 068d 0A       		.uleb128 0xa
 1022 068e 73323800 		.ascii	"s28\000"
 1023 0692 0C       		.byte	0xc
 1024 0693 6701     		.2byte	0x167
 1025 0695 B6050000 		.4byte	0x5b6
 1026 0699 30       		.byte	0x30
ARM GAS  /tmp/ccEDmUSo.s 			page 19


 1027 069a 0A       		.uleb128 0xa
 1028 069b 73323900 		.ascii	"s29\000"
 1029 069f 0C       		.byte	0xc
 1030 06a0 6801     		.2byte	0x168
 1031 06a2 B6050000 		.4byte	0x5b6
 1032 06a6 34       		.byte	0x34
 1033 06a7 0A       		.uleb128 0xa
 1034 06a8 73333000 		.ascii	"s30\000"
 1035 06ac 0C       		.byte	0xc
 1036 06ad 6901     		.2byte	0x169
 1037 06af B6050000 		.4byte	0x5b6
 1038 06b3 38       		.byte	0x38
 1039 06b4 0A       		.uleb128 0xa
 1040 06b5 73333100 		.ascii	"s31\000"
 1041 06b9 0C       		.byte	0xc
 1042 06ba 6A01     		.2byte	0x16a
 1043 06bc B6050000 		.4byte	0x5b6
 1044 06c0 3C       		.byte	0x3c
 1045 06c1 0A       		.uleb128 0xa
 1046 06c2 723400   		.ascii	"r4\000"
 1047 06c5 0C       		.byte	0xc
 1048 06c6 6C01     		.2byte	0x16c
 1049 06c8 B6050000 		.4byte	0x5b6
 1050 06cc 40       		.byte	0x40
 1051 06cd 0A       		.uleb128 0xa
 1052 06ce 723500   		.ascii	"r5\000"
 1053 06d1 0C       		.byte	0xc
 1054 06d2 6D01     		.2byte	0x16d
 1055 06d4 B6050000 		.4byte	0x5b6
 1056 06d8 44       		.byte	0x44
 1057 06d9 0A       		.uleb128 0xa
 1058 06da 723600   		.ascii	"r6\000"
 1059 06dd 0C       		.byte	0xc
 1060 06de 6E01     		.2byte	0x16e
 1061 06e0 B6050000 		.4byte	0x5b6
 1062 06e4 48       		.byte	0x48
 1063 06e5 0A       		.uleb128 0xa
 1064 06e6 723700   		.ascii	"r7\000"
 1065 06e9 0C       		.byte	0xc
 1066 06ea 6F01     		.2byte	0x16f
 1067 06ec B6050000 		.4byte	0x5b6
 1068 06f0 4C       		.byte	0x4c
 1069 06f1 0A       		.uleb128 0xa
 1070 06f2 723800   		.ascii	"r8\000"
 1071 06f5 0C       		.byte	0xc
 1072 06f6 7001     		.2byte	0x170
 1073 06f8 B6050000 		.4byte	0x5b6
 1074 06fc 50       		.byte	0x50
 1075 06fd 0A       		.uleb128 0xa
 1076 06fe 723900   		.ascii	"r9\000"
 1077 0701 0C       		.byte	0xc
 1078 0702 7101     		.2byte	0x171
 1079 0704 B6050000 		.4byte	0x5b6
 1080 0708 54       		.byte	0x54
 1081 0709 0A       		.uleb128 0xa
 1082 070a 72313000 		.ascii	"r10\000"
 1083 070e 0C       		.byte	0xc
ARM GAS  /tmp/ccEDmUSo.s 			page 20


 1084 070f 7201     		.2byte	0x172
 1085 0711 B6050000 		.4byte	0x5b6
 1086 0715 58       		.byte	0x58
 1087 0716 0A       		.uleb128 0xa
 1088 0717 72313100 		.ascii	"r11\000"
 1089 071b 0C       		.byte	0xc
 1090 071c 7301     		.2byte	0x173
 1091 071e B6050000 		.4byte	0x5b6
 1092 0722 5C       		.byte	0x5c
 1093 0723 0A       		.uleb128 0xa
 1094 0724 6C7200   		.ascii	"lr\000"
 1095 0727 0C       		.byte	0xc
 1096 0728 7401     		.2byte	0x174
 1097 072a B6050000 		.4byte	0x5b6
 1098 072e 60       		.byte	0x60
 1099 072f 00       		.byte	0
 1100 0730 0B       		.uleb128 0xb
 1101 0731 04       		.byte	0x4
 1102 0732 E4050000 		.4byte	0x5e4
 1103 0736 0C       		.uleb128 0xc
 1104 0737 C4030000 		.4byte	.LASF85
 1105 073b 68       		.byte	0x68
 1106 073c 0C       		.byte	0xc
 1107 073d 3A01     		.2byte	0x13a
 1108 073f 87080000 		.4byte	0x887
 1109 0743 0A       		.uleb128 0xa
 1110 0744 723000   		.ascii	"r0\000"
 1111 0747 0C       		.byte	0xc
 1112 0748 3B01     		.2byte	0x13b
 1113 074a B6050000 		.4byte	0x5b6
 1114 074e 00       		.byte	0
 1115 074f 0A       		.uleb128 0xa
 1116 0750 723100   		.ascii	"r1\000"
 1117 0753 0C       		.byte	0xc
 1118 0754 3C01     		.2byte	0x13c
 1119 0756 B6050000 		.4byte	0x5b6
 1120 075a 04       		.byte	0x4
 1121 075b 0A       		.uleb128 0xa
 1122 075c 723200   		.ascii	"r2\000"
 1123 075f 0C       		.byte	0xc
 1124 0760 3D01     		.2byte	0x13d
 1125 0762 B6050000 		.4byte	0x5b6
 1126 0766 08       		.byte	0x8
 1127 0767 0A       		.uleb128 0xa
 1128 0768 723300   		.ascii	"r3\000"
 1129 076b 0C       		.byte	0xc
 1130 076c 3E01     		.2byte	0x13e
 1131 076e B6050000 		.4byte	0x5b6
 1132 0772 0C       		.byte	0xc
 1133 0773 0A       		.uleb128 0xa
 1134 0774 72313200 		.ascii	"r12\000"
 1135 0778 0C       		.byte	0xc
 1136 0779 3F01     		.2byte	0x13f
 1137 077b B6050000 		.4byte	0x5b6
 1138 077f 10       		.byte	0x10
 1139 0780 0D       		.uleb128 0xd
 1140 0781 8D040000 		.4byte	.LASF86
ARM GAS  /tmp/ccEDmUSo.s 			page 21


 1141 0785 0C       		.byte	0xc
 1142 0786 4001     		.2byte	0x140
 1143 0788 B6050000 		.4byte	0x5b6
 1144 078c 14       		.byte	0x14
 1145 078d 0A       		.uleb128 0xa
 1146 078e 706300   		.ascii	"pc\000"
 1147 0791 0C       		.byte	0xc
 1148 0792 4101     		.2byte	0x141
 1149 0794 B6050000 		.4byte	0x5b6
 1150 0798 18       		.byte	0x18
 1151 0799 0D       		.uleb128 0xd
 1152 079a 78040000 		.4byte	.LASF87
 1153 079e 0C       		.byte	0xc
 1154 079f 4201     		.2byte	0x142
 1155 07a1 B6050000 		.4byte	0x5b6
 1156 07a5 1C       		.byte	0x1c
 1157 07a6 0A       		.uleb128 0xa
 1158 07a7 733000   		.ascii	"s0\000"
 1159 07aa 0C       		.byte	0xc
 1160 07ab 4401     		.2byte	0x144
 1161 07ad B6050000 		.4byte	0x5b6
 1162 07b1 20       		.byte	0x20
 1163 07b2 0A       		.uleb128 0xa
 1164 07b3 733100   		.ascii	"s1\000"
 1165 07b6 0C       		.byte	0xc
 1166 07b7 4501     		.2byte	0x145
 1167 07b9 B6050000 		.4byte	0x5b6
 1168 07bd 24       		.byte	0x24
 1169 07be 0A       		.uleb128 0xa
 1170 07bf 733200   		.ascii	"s2\000"
 1171 07c2 0C       		.byte	0xc
 1172 07c3 4601     		.2byte	0x146
 1173 07c5 B6050000 		.4byte	0x5b6
 1174 07c9 28       		.byte	0x28
 1175 07ca 0A       		.uleb128 0xa
 1176 07cb 733300   		.ascii	"s3\000"
 1177 07ce 0C       		.byte	0xc
 1178 07cf 4701     		.2byte	0x147
 1179 07d1 B6050000 		.4byte	0x5b6
 1180 07d5 2C       		.byte	0x2c
 1181 07d6 0A       		.uleb128 0xa
 1182 07d7 733400   		.ascii	"s4\000"
 1183 07da 0C       		.byte	0xc
 1184 07db 4801     		.2byte	0x148
 1185 07dd B6050000 		.4byte	0x5b6
 1186 07e1 30       		.byte	0x30
 1187 07e2 0A       		.uleb128 0xa
 1188 07e3 733500   		.ascii	"s5\000"
 1189 07e6 0C       		.byte	0xc
 1190 07e7 4901     		.2byte	0x149
 1191 07e9 B6050000 		.4byte	0x5b6
 1192 07ed 34       		.byte	0x34
 1193 07ee 0A       		.uleb128 0xa
 1194 07ef 733600   		.ascii	"s6\000"
 1195 07f2 0C       		.byte	0xc
 1196 07f3 4A01     		.2byte	0x14a
 1197 07f5 B6050000 		.4byte	0x5b6
ARM GAS  /tmp/ccEDmUSo.s 			page 22


 1198 07f9 38       		.byte	0x38
 1199 07fa 0A       		.uleb128 0xa
 1200 07fb 733700   		.ascii	"s7\000"
 1201 07fe 0C       		.byte	0xc
 1202 07ff 4B01     		.2byte	0x14b
 1203 0801 B6050000 		.4byte	0x5b6
 1204 0805 3C       		.byte	0x3c
 1205 0806 0A       		.uleb128 0xa
 1206 0807 733800   		.ascii	"s8\000"
 1207 080a 0C       		.byte	0xc
 1208 080b 4C01     		.2byte	0x14c
 1209 080d B6050000 		.4byte	0x5b6
 1210 0811 40       		.byte	0x40
 1211 0812 0A       		.uleb128 0xa
 1212 0813 733900   		.ascii	"s9\000"
 1213 0816 0C       		.byte	0xc
 1214 0817 4D01     		.2byte	0x14d
 1215 0819 B6050000 		.4byte	0x5b6
 1216 081d 44       		.byte	0x44
 1217 081e 0A       		.uleb128 0xa
 1218 081f 73313000 		.ascii	"s10\000"
 1219 0823 0C       		.byte	0xc
 1220 0824 4E01     		.2byte	0x14e
 1221 0826 B6050000 		.4byte	0x5b6
 1222 082a 48       		.byte	0x48
 1223 082b 0A       		.uleb128 0xa
 1224 082c 73313100 		.ascii	"s11\000"
 1225 0830 0C       		.byte	0xc
 1226 0831 4F01     		.2byte	0x14f
 1227 0833 B6050000 		.4byte	0x5b6
 1228 0837 4C       		.byte	0x4c
 1229 0838 0A       		.uleb128 0xa
 1230 0839 73313200 		.ascii	"s12\000"
 1231 083d 0C       		.byte	0xc
 1232 083e 5001     		.2byte	0x150
 1233 0840 B6050000 		.4byte	0x5b6
 1234 0844 50       		.byte	0x50
 1235 0845 0A       		.uleb128 0xa
 1236 0846 73313300 		.ascii	"s13\000"
 1237 084a 0C       		.byte	0xc
 1238 084b 5101     		.2byte	0x151
 1239 084d B6050000 		.4byte	0x5b6
 1240 0851 54       		.byte	0x54
 1241 0852 0A       		.uleb128 0xa
 1242 0853 73313400 		.ascii	"s14\000"
 1243 0857 0C       		.byte	0xc
 1244 0858 5201     		.2byte	0x152
 1245 085a B6050000 		.4byte	0x5b6
 1246 085e 58       		.byte	0x58
 1247 085f 0A       		.uleb128 0xa
 1248 0860 73313500 		.ascii	"s15\000"
 1249 0864 0C       		.byte	0xc
 1250 0865 5301     		.2byte	0x153
 1251 0867 B6050000 		.4byte	0x5b6
 1252 086b 5C       		.byte	0x5c
 1253 086c 0D       		.uleb128 0xd
 1254 086d 87040000 		.4byte	.LASF88
ARM GAS  /tmp/ccEDmUSo.s 			page 23


 1255 0871 0C       		.byte	0xc
 1256 0872 5401     		.2byte	0x154
 1257 0874 B6050000 		.4byte	0x5b6
 1258 0878 60       		.byte	0x60
 1259 0879 0D       		.uleb128 0xd
 1260 087a 60020000 		.4byte	.LASF89
 1261 087e 0C       		.byte	0xc
 1262 087f 5501     		.2byte	0x155
 1263 0881 B6050000 		.4byte	0x5b6
 1264 0885 64       		.byte	0x64
 1265 0886 00       		.byte	0
 1266 0887 17       		.uleb128 0x17
 1267 0888 04       		.byte	0x4
 1268 0889 07       		.byte	0x7
 1269 088a C6       		.byte	0xc6
 1270 088b BC080000 		.4byte	0x8bc
 1271 088f 18       		.uleb128 0x18
 1272 0890 19000000 		.4byte	.LASF90
 1273 0894 07       		.byte	0x7
 1274 0895 CD       		.byte	0xcd
 1275 0896 04010000 		.4byte	0x104
 1276 089a 18       		.uleb128 0x18
 1277 089b 7E000000 		.4byte	.LASF91
 1278 089f 07       		.byte	0x7
 1279 08a0 D4       		.byte	0xd4
 1280 08a1 04010000 		.4byte	0x104
 1281 08a5 18       		.uleb128 0x18
 1282 08a6 DF050000 		.4byte	.LASF92
 1283 08aa 07       		.byte	0x7
 1284 08ab DB       		.byte	0xdb
 1285 08ac 18020000 		.4byte	0x218
 1286 08b0 18       		.uleb128 0x18
 1287 08b1 0D000000 		.4byte	.LASF93
 1288 08b5 07       		.byte	0x7
 1289 08b6 E2       		.byte	0xe2
 1290 08b7 BC080000 		.4byte	0x8bc
 1291 08bb 00       		.byte	0
 1292 08bc 0B       		.uleb128 0xb
 1293 08bd 04       		.byte	0x4
 1294 08be 6E010000 		.4byte	0x16e
 1295 08c2 0B       		.uleb128 0xb
 1296 08c3 04       		.byte	0x4
 1297 08c4 1A020000 		.4byte	0x21a
 1298 08c8 0B       		.uleb128 0xb
 1299 08c9 04       		.byte	0x4
 1300 08ca DA080000 		.4byte	0x8da
 1301 08ce 05       		.uleb128 0x5
 1302 08cf C8080000 		.4byte	0x8c8
 1303 08d3 03       		.uleb128 0x3
 1304 08d4 01       		.byte	0x1
 1305 08d5 08       		.byte	0x8
 1306 08d6 F2040000 		.4byte	.LASF94
 1307 08da 06       		.uleb128 0x6
 1308 08db D3080000 		.4byte	0x8d3
 1309 08df 19       		.uleb128 0x19
 1310 08e0 636800   		.ascii	"ch\000"
 1311 08e3 07       		.byte	0x7
ARM GAS  /tmp/ccEDmUSo.s 			page 24


 1312 08e4 C701     		.2byte	0x1c7
 1313 08e6 E7020000 		.4byte	0x2e7
 1314 08ea 12       		.uleb128 0x12
 1315 08eb C1050000 		.4byte	0x5c1
 1316 08ef F5080000 		.4byte	0x8f5
 1317 08f3 1A       		.uleb128 0x1a
 1318 08f4 00       		.byte	0
 1319 08f5 15       		.uleb128 0x15
 1320 08f6 B7040000 		.4byte	.LASF95
 1321 08fa 0D       		.byte	0xd
 1322 08fb 1701     		.2byte	0x117
 1323 08fd EA080000 		.4byte	0x8ea
 1324 0901 1B       		.uleb128 0x1b
 1325 0902 07030000 		.4byte	.LASF96
 1326 0906 01       		.byte	0x1
 1327 0907 7A       		.byte	0x7a
 1328 0908 00000000 		.4byte	.LFB218
 1329 090c 5C000000 		.4byte	.LFE218-.LFB218
 1330 0910 01       		.uleb128 0x1
 1331 0911 9C       		.byte	0x9c
 1332 0912 1A0A0000 		.4byte	0xa1a
 1333 0916 1C       		.uleb128 0x1c
 1334 0917 12000000 		.4byte	.LBB63
 1335 091b 32000000 		.4byte	.LBE63-.LBB63
 1336 091f 9F090000 		.4byte	0x99f
 1337 0923 1D       		.uleb128 0x1d
 1338 0924 FE030000 		.4byte	.LASF98
 1339 0928 01       		.byte	0x1
 1340 0929 7E       		.byte	0x7e
 1341 092a 1A0A0000 		.4byte	0xa1a
 1342 092e 00000000 		.4byte	.LLST4
 1343 0932 1E       		.uleb128 0x1e
 1344 0933 E40A0000 		.4byte	0xae4
 1345 0937 12000000 		.4byte	.LBB64
 1346 093b 04000000 		.4byte	.LBE64-.LBB64
 1347 093f 01       		.byte	0x1
 1348 0940 82       		.byte	0x82
 1349 0941 55090000 		.4byte	0x955
 1350 0945 1F       		.uleb128 0x1f
 1351 0946 12000000 		.4byte	.LBB65
 1352 094a 04000000 		.4byte	.LBE65-.LBB65
 1353 094e 20       		.uleb128 0x20
 1354 094f F50A0000 		.4byte	0xaf5
 1355 0953 00       		.byte	0
 1356 0954 00       		.byte	0
 1357 0955 1E       		.uleb128 0x1e
 1358 0956 360B0000 		.4byte	0xb36
 1359 095a 16000000 		.4byte	.LBB66
 1360 095e 04000000 		.4byte	.LBE66-.LBB66
 1361 0962 01       		.byte	0x1
 1362 0963 86       		.byte	0x86
 1363 0964 78090000 		.4byte	0x978
 1364 0968 1F       		.uleb128 0x1f
 1365 0969 16000000 		.4byte	.LBB67
 1366 096d 04000000 		.4byte	.LBE67-.LBB67
 1367 0971 20       		.uleb128 0x20
 1368 0972 460B0000 		.4byte	0xb46
ARM GAS  /tmp/ccEDmUSo.s 			page 25


 1369 0976 00       		.byte	0
 1370 0977 00       		.byte	0
 1371 0978 1E       		.uleb128 0x1e
 1372 0979 1C0B0000 		.4byte	0xb1c
 1373 097d 2E000000 		.4byte	.LBB68
 1374 0981 04000000 		.4byte	.LBE68-.LBB68
 1375 0985 01       		.byte	0x1
 1376 0986 93       		.byte	0x93
 1377 0987 95090000 		.4byte	0x995
 1378 098b 21       		.uleb128 0x21
 1379 098c 290B0000 		.4byte	0xb29
 1380 0990 2F000000 		.4byte	.LLST5
 1381 0994 00       		.byte	0
 1382 0995 22       		.uleb128 0x22
 1383 0996 36000000 		.4byte	.LVL11
 1384 099a 520B0000 		.4byte	0xb52
 1385 099e 00       		.byte	0
 1386 099f 1E       		.uleb128 0x1e
 1387 09a0 C90A0000 		.4byte	0xac9
 1388 09a4 02000000 		.4byte	.LBB59
 1389 09a8 06000000 		.4byte	.LBE59-.LBB59
 1390 09ac 01       		.byte	0x1
 1391 09ad 7C       		.byte	0x7c
 1392 09ae DE090000 		.4byte	0x9de
 1393 09b2 23       		.uleb128 0x23
 1394 09b3 DB0A0000 		.4byte	0xadb
 1395 09b7 02000000 		.4byte	.LBB60
 1396 09bb 06000000 		.4byte	.LBE60-.LBB60
 1397 09bf 0C       		.byte	0xc
 1398 09c0 8302     		.2byte	0x283
 1399 09c2 23       		.uleb128 0x23
 1400 09c3 020B0000 		.4byte	0xb02
 1401 09c7 02000000 		.4byte	.LBB61
 1402 09cb 06000000 		.4byte	.LBE61-.LBB61
 1403 09cf 0C       		.byte	0xc
 1404 09d0 6202     		.2byte	0x262
 1405 09d2 21       		.uleb128 0x21
 1406 09d3 0F0B0000 		.4byte	0xb0f
 1407 09d7 50000000 		.4byte	.LLST3
 1408 09db 00       		.byte	0
 1409 09dc 00       		.byte	0
 1410 09dd 00       		.byte	0
 1411 09de 24       		.uleb128 0x24
 1412 09df C00A0000 		.4byte	0xac0
 1413 09e3 44000000 		.4byte	.LBB70
 1414 09e7 18000000 		.4byte	.LBE70-.LBB70
 1415 09eb 01       		.byte	0x1
 1416 09ec A5       		.byte	0xa5
 1417 09ed 23       		.uleb128 0x23
 1418 09ee D20A0000 		.4byte	0xad2
 1419 09f2 44000000 		.4byte	.LBB71
 1420 09f6 18000000 		.4byte	.LBE71-.LBB71
 1421 09fa 0C       		.byte	0xc
 1422 09fb 8E02     		.2byte	0x28e
 1423 09fd 23       		.uleb128 0x23
 1424 09fe 020B0000 		.4byte	0xb02
 1425 0a02 44000000 		.4byte	.LBB72
ARM GAS  /tmp/ccEDmUSo.s 			page 26


 1426 0a06 18000000 		.4byte	.LBE72-.LBB72
 1427 0a0a 0C       		.byte	0xc
 1428 0a0b 7502     		.2byte	0x275
 1429 0a0d 21       		.uleb128 0x21
 1430 0a0e 0F0B0000 		.4byte	0xb0f
 1431 0a12 65000000 		.4byte	.LLST6
 1432 0a16 00       		.byte	0
 1433 0a17 00       		.byte	0
 1434 0a18 00       		.byte	0
 1435 0a19 00       		.byte	0
 1436 0a1a 0B       		.uleb128 0xb
 1437 0a1b 04       		.byte	0x4
 1438 0a1c 36070000 		.4byte	0x736
 1439 0a20 1B       		.uleb128 0x1b
 1440 0a21 9A040000 		.4byte	.LASF97
 1441 0a25 01       		.byte	0x1
 1442 0a26 3E       		.byte	0x3e
 1443 0a27 00000000 		.4byte	.LFB217
 1444 0a2b 20000000 		.4byte	.LFE217-.LFB217
 1445 0a2f 01       		.uleb128 0x1
 1446 0a30 9C       		.byte	0x9c
 1447 0a31 C00A0000 		.4byte	0xac0
 1448 0a35 1D       		.uleb128 0x1d
 1449 0a36 FE030000 		.4byte	.LASF98
 1450 0a3a 01       		.byte	0x1
 1451 0a3b 40       		.byte	0x40
 1452 0a3c 1A0A0000 		.4byte	0xa1a
 1453 0a40 79000000 		.4byte	.LLST0
 1454 0a44 1E       		.uleb128 0x1e
 1455 0a45 360B0000 		.4byte	0xb36
 1456 0a49 0A000000 		.4byte	.LBB51
 1457 0a4d 04000000 		.4byte	.LBE51-.LBB51
 1458 0a51 01       		.byte	0x1
 1459 0a52 48       		.byte	0x48
 1460 0a53 670A0000 		.4byte	0xa67
 1461 0a57 1F       		.uleb128 0x1f
 1462 0a58 0A000000 		.4byte	.LBB52
 1463 0a5c 04000000 		.4byte	.LBE52-.LBB52
 1464 0a60 20       		.uleb128 0x20
 1465 0a61 460B0000 		.4byte	0xb46
 1466 0a65 00       		.byte	0
 1467 0a66 00       		.byte	0
 1468 0a67 1E       		.uleb128 0x1e
 1469 0a68 1C0B0000 		.4byte	0xb1c
 1470 0a6c 10000000 		.4byte	.LBB53
 1471 0a70 04000000 		.4byte	.LBE53-.LBB53
 1472 0a74 01       		.byte	0x1
 1473 0a75 4F       		.byte	0x4f
 1474 0a76 840A0000 		.4byte	0xa84
 1475 0a7a 21       		.uleb128 0x21
 1476 0a7b 290B0000 		.4byte	0xb29
 1477 0a7f 9A000000 		.4byte	.LLST1
 1478 0a83 00       		.byte	0
 1479 0a84 24       		.uleb128 0x24
 1480 0a85 C00A0000 		.4byte	0xac0
 1481 0a89 14000000 		.4byte	.LBB55
 1482 0a8d 0C000000 		.4byte	.LBE55-.LBB55
ARM GAS  /tmp/ccEDmUSo.s 			page 27


 1483 0a91 01       		.byte	0x1
 1484 0a92 52       		.byte	0x52
 1485 0a93 23       		.uleb128 0x23
 1486 0a94 D20A0000 		.4byte	0xad2
 1487 0a98 14000000 		.4byte	.LBB56
 1488 0a9c 0C000000 		.4byte	.LBE56-.LBB56
 1489 0aa0 0C       		.byte	0xc
 1490 0aa1 8E02     		.2byte	0x28e
 1491 0aa3 23       		.uleb128 0x23
 1492 0aa4 020B0000 		.4byte	0xb02
 1493 0aa8 14000000 		.4byte	.LBB57
 1494 0aac 0C000000 		.4byte	.LBE57-.LBB57
 1495 0ab0 0C       		.byte	0xc
 1496 0ab1 7502     		.2byte	0x275
 1497 0ab3 21       		.uleb128 0x21
 1498 0ab4 0F0B0000 		.4byte	0xb0f
 1499 0ab8 BB000000 		.4byte	.LLST2
 1500 0abc 00       		.byte	0
 1501 0abd 00       		.byte	0
 1502 0abe 00       		.byte	0
 1503 0abf 00       		.byte	0
 1504 0ac0 25       		.uleb128 0x25
 1505 0ac1 FC040000 		.4byte	.LASF99
 1506 0ac5 0C       		.byte	0xc
 1507 0ac6 8C02     		.2byte	0x28c
 1508 0ac8 03       		.byte	0x3
 1509 0ac9 25       		.uleb128 0x25
 1510 0aca 64050000 		.4byte	.LASF100
 1511 0ace 0C       		.byte	0xc
 1512 0acf 8102     		.2byte	0x281
 1513 0ad1 03       		.byte	0x3
 1514 0ad2 25       		.uleb128 0x25
 1515 0ad3 05020000 		.4byte	.LASF101
 1516 0ad7 0C       		.byte	0xc
 1517 0ad8 7202     		.2byte	0x272
 1518 0ada 03       		.byte	0x3
 1519 0adb 25       		.uleb128 0x25
 1520 0adc 74000000 		.4byte	.LASF102
 1521 0ae0 0C       		.byte	0xc
 1522 0ae1 5A02     		.2byte	0x25a
 1523 0ae3 03       		.byte	0x3
 1524 0ae4 26       		.uleb128 0x26
 1525 0ae5 1B040000 		.4byte	.LASF107
 1526 0ae9 02       		.byte	0x2
 1527 0aea FE02     		.2byte	0x2fe
 1528 0aec C3000000 		.4byte	0xc3
 1529 0af0 03       		.byte	0x3
 1530 0af1 020B0000 		.4byte	0xb02
 1531 0af5 27       		.uleb128 0x27
 1532 0af6 F1050000 		.4byte	.LASF109
 1533 0afa 02       		.byte	0x2
 1534 0afb 0803     		.2byte	0x308
 1535 0afd C3000000 		.4byte	0xc3
 1536 0b01 00       		.byte	0
 1537 0b02 28       		.uleb128 0x28
 1538 0b03 2D050000 		.4byte	.LASF103
 1539 0b07 02       		.byte	0x2
ARM GAS  /tmp/ccEDmUSo.s 			page 28


 1540 0b08 EB01     		.2byte	0x1eb
 1541 0b0a 03       		.byte	0x3
 1542 0b0b 1C0B0000 		.4byte	0xb1c
 1543 0b0f 29       		.uleb128 0x29
 1544 0b10 F6010000 		.4byte	.LASF105
 1545 0b14 02       		.byte	0x2
 1546 0b15 EB01     		.2byte	0x1eb
 1547 0b17 C3000000 		.4byte	0xc3
 1548 0b1b 00       		.byte	0
 1549 0b1c 28       		.uleb128 0x28
 1550 0b1d 92020000 		.4byte	.LASF104
 1551 0b21 02       		.byte	0x2
 1552 0b22 1501     		.2byte	0x115
 1553 0b24 03       		.byte	0x3
 1554 0b25 360B0000 		.4byte	0xb36
 1555 0b29 29       		.uleb128 0x29
 1556 0b2a 43030000 		.4byte	.LASF106
 1557 0b2e 02       		.byte	0x2
 1558 0b2f 1501     		.2byte	0x115
 1559 0b31 C3000000 		.4byte	0xc3
 1560 0b35 00       		.byte	0
 1561 0b36 2A       		.uleb128 0x2a
 1562 0b37 77050000 		.4byte	.LASF108
 1563 0b3b 02       		.byte	0x2
 1564 0b3c F7       		.byte	0xf7
 1565 0b3d C3000000 		.4byte	0xc3
 1566 0b41 03       		.byte	0x3
 1567 0b42 520B0000 		.4byte	0xb52
 1568 0b46 2B       		.uleb128 0x2b
 1569 0b47 F1050000 		.4byte	.LASF109
 1570 0b4b 02       		.byte	0x2
 1571 0b4c F9       		.byte	0xf9
 1572 0b4d C3000000 		.4byte	0xc3
 1573 0b51 00       		.byte	0
 1574 0b52 2C       		.uleb128 0x2c
 1575 0b53 29020000 		.4byte	.LASF113
 1576 0b57 29020000 		.4byte	.LASF113
 1577 0b5b 07       		.byte	0x7
 1578 0b5c D701     		.2byte	0x1d7
 1579 0b5e 00       		.byte	0
 1580              		.section	.debug_abbrev,"",%progbits
 1581              	.Ldebug_abbrev0:
 1582 0000 01       		.uleb128 0x1
 1583 0001 11       		.uleb128 0x11
 1584 0002 01       		.byte	0x1
 1585 0003 25       		.uleb128 0x25
 1586 0004 0E       		.uleb128 0xe
 1587 0005 13       		.uleb128 0x13
 1588 0006 0B       		.uleb128 0xb
 1589 0007 03       		.uleb128 0x3
 1590 0008 0E       		.uleb128 0xe
 1591 0009 1B       		.uleb128 0x1b
 1592 000a 0E       		.uleb128 0xe
 1593 000b 55       		.uleb128 0x55
 1594 000c 17       		.uleb128 0x17
 1595 000d 11       		.uleb128 0x11
 1596 000e 01       		.uleb128 0x1
ARM GAS  /tmp/ccEDmUSo.s 			page 29


 1597 000f 10       		.uleb128 0x10
 1598 0010 17       		.uleb128 0x17
 1599 0011 00       		.byte	0
 1600 0012 00       		.byte	0
 1601 0013 02       		.uleb128 0x2
 1602 0014 24       		.uleb128 0x24
 1603 0015 00       		.byte	0
 1604 0016 0B       		.uleb128 0xb
 1605 0017 0B       		.uleb128 0xb
 1606 0018 3E       		.uleb128 0x3e
 1607 0019 0B       		.uleb128 0xb
 1608 001a 03       		.uleb128 0x3
 1609 001b 08       		.uleb128 0x8
 1610 001c 00       		.byte	0
 1611 001d 00       		.byte	0
 1612 001e 03       		.uleb128 0x3
 1613 001f 24       		.uleb128 0x24
 1614 0020 00       		.byte	0
 1615 0021 0B       		.uleb128 0xb
 1616 0022 0B       		.uleb128 0xb
 1617 0023 3E       		.uleb128 0x3e
 1618 0024 0B       		.uleb128 0xb
 1619 0025 03       		.uleb128 0x3
 1620 0026 0E       		.uleb128 0xe
 1621 0027 00       		.byte	0
 1622 0028 00       		.byte	0
 1623 0029 04       		.uleb128 0x4
 1624 002a 16       		.uleb128 0x16
 1625 002b 00       		.byte	0
 1626 002c 03       		.uleb128 0x3
 1627 002d 0E       		.uleb128 0xe
 1628 002e 3A       		.uleb128 0x3a
 1629 002f 0B       		.uleb128 0xb
 1630 0030 3B       		.uleb128 0x3b
 1631 0031 0B       		.uleb128 0xb
 1632 0032 49       		.uleb128 0x49
 1633 0033 13       		.uleb128 0x13
 1634 0034 00       		.byte	0
 1635 0035 00       		.byte	0
 1636 0036 05       		.uleb128 0x5
 1637 0037 35       		.uleb128 0x35
 1638 0038 00       		.byte	0
 1639 0039 49       		.uleb128 0x49
 1640 003a 13       		.uleb128 0x13
 1641 003b 00       		.byte	0
 1642 003c 00       		.byte	0
 1643 003d 06       		.uleb128 0x6
 1644 003e 26       		.uleb128 0x26
 1645 003f 00       		.byte	0
 1646 0040 49       		.uleb128 0x49
 1647 0041 13       		.uleb128 0x13
 1648 0042 00       		.byte	0
 1649 0043 00       		.byte	0
 1650 0044 07       		.uleb128 0x7
 1651 0045 13       		.uleb128 0x13
 1652 0046 01       		.byte	0x1
 1653 0047 03       		.uleb128 0x3
ARM GAS  /tmp/ccEDmUSo.s 			page 30


 1654 0048 0E       		.uleb128 0xe
 1655 0049 0B       		.uleb128 0xb
 1656 004a 0B       		.uleb128 0xb
 1657 004b 3A       		.uleb128 0x3a
 1658 004c 0B       		.uleb128 0xb
 1659 004d 3B       		.uleb128 0x3b
 1660 004e 0B       		.uleb128 0xb
 1661 004f 01       		.uleb128 0x1
 1662 0050 13       		.uleb128 0x13
 1663 0051 00       		.byte	0
 1664 0052 00       		.byte	0
 1665 0053 08       		.uleb128 0x8
 1666 0054 0D       		.uleb128 0xd
 1667 0055 00       		.byte	0
 1668 0056 03       		.uleb128 0x3
 1669 0057 0E       		.uleb128 0xe
 1670 0058 3A       		.uleb128 0x3a
 1671 0059 0B       		.uleb128 0xb
 1672 005a 3B       		.uleb128 0x3b
 1673 005b 0B       		.uleb128 0xb
 1674 005c 49       		.uleb128 0x49
 1675 005d 13       		.uleb128 0x13
 1676 005e 38       		.uleb128 0x38
 1677 005f 0B       		.uleb128 0xb
 1678 0060 00       		.byte	0
 1679 0061 00       		.byte	0
 1680 0062 09       		.uleb128 0x9
 1681 0063 0D       		.uleb128 0xd
 1682 0064 00       		.byte	0
 1683 0065 03       		.uleb128 0x3
 1684 0066 08       		.uleb128 0x8
 1685 0067 3A       		.uleb128 0x3a
 1686 0068 0B       		.uleb128 0xb
 1687 0069 3B       		.uleb128 0x3b
 1688 006a 0B       		.uleb128 0xb
 1689 006b 49       		.uleb128 0x49
 1690 006c 13       		.uleb128 0x13
 1691 006d 38       		.uleb128 0x38
 1692 006e 0B       		.uleb128 0xb
 1693 006f 00       		.byte	0
 1694 0070 00       		.byte	0
 1695 0071 0A       		.uleb128 0xa
 1696 0072 0D       		.uleb128 0xd
 1697 0073 00       		.byte	0
 1698 0074 03       		.uleb128 0x3
 1699 0075 08       		.uleb128 0x8
 1700 0076 3A       		.uleb128 0x3a
 1701 0077 0B       		.uleb128 0xb
 1702 0078 3B       		.uleb128 0x3b
 1703 0079 05       		.uleb128 0x5
 1704 007a 49       		.uleb128 0x49
 1705 007b 13       		.uleb128 0x13
 1706 007c 38       		.uleb128 0x38
 1707 007d 0B       		.uleb128 0xb
 1708 007e 00       		.byte	0
 1709 007f 00       		.byte	0
 1710 0080 0B       		.uleb128 0xb
ARM GAS  /tmp/ccEDmUSo.s 			page 31


 1711 0081 0F       		.uleb128 0xf
 1712 0082 00       		.byte	0
 1713 0083 0B       		.uleb128 0xb
 1714 0084 0B       		.uleb128 0xb
 1715 0085 49       		.uleb128 0x49
 1716 0086 13       		.uleb128 0x13
 1717 0087 00       		.byte	0
 1718 0088 00       		.byte	0
 1719 0089 0C       		.uleb128 0xc
 1720 008a 13       		.uleb128 0x13
 1721 008b 01       		.byte	0x1
 1722 008c 03       		.uleb128 0x3
 1723 008d 0E       		.uleb128 0xe
 1724 008e 0B       		.uleb128 0xb
 1725 008f 0B       		.uleb128 0xb
 1726 0090 3A       		.uleb128 0x3a
 1727 0091 0B       		.uleb128 0xb
 1728 0092 3B       		.uleb128 0x3b
 1729 0093 05       		.uleb128 0x5
 1730 0094 01       		.uleb128 0x1
 1731 0095 13       		.uleb128 0x13
 1732 0096 00       		.byte	0
 1733 0097 00       		.byte	0
 1734 0098 0D       		.uleb128 0xd
 1735 0099 0D       		.uleb128 0xd
 1736 009a 00       		.byte	0
 1737 009b 03       		.uleb128 0x3
 1738 009c 0E       		.uleb128 0xe
 1739 009d 3A       		.uleb128 0x3a
 1740 009e 0B       		.uleb128 0xb
 1741 009f 3B       		.uleb128 0x3b
 1742 00a0 05       		.uleb128 0x5
 1743 00a1 49       		.uleb128 0x49
 1744 00a2 13       		.uleb128 0x13
 1745 00a3 38       		.uleb128 0x38
 1746 00a4 0B       		.uleb128 0xb
 1747 00a5 00       		.byte	0
 1748 00a6 00       		.byte	0
 1749 00a7 0E       		.uleb128 0xe
 1750 00a8 15       		.uleb128 0x15
 1751 00a9 01       		.byte	0x1
 1752 00aa 27       		.uleb128 0x27
 1753 00ab 19       		.uleb128 0x19
 1754 00ac 01       		.uleb128 0x1
 1755 00ad 13       		.uleb128 0x13
 1756 00ae 00       		.byte	0
 1757 00af 00       		.byte	0
 1758 00b0 0F       		.uleb128 0xf
 1759 00b1 05       		.uleb128 0x5
 1760 00b2 00       		.byte	0
 1761 00b3 49       		.uleb128 0x49
 1762 00b4 13       		.uleb128 0x13
 1763 00b5 00       		.byte	0
 1764 00b6 00       		.byte	0
 1765 00b7 10       		.uleb128 0x10
 1766 00b8 0F       		.uleb128 0xf
 1767 00b9 00       		.byte	0
ARM GAS  /tmp/ccEDmUSo.s 			page 32


 1768 00ba 0B       		.uleb128 0xb
 1769 00bb 0B       		.uleb128 0xb
 1770 00bc 00       		.byte	0
 1771 00bd 00       		.byte	0
 1772 00be 11       		.uleb128 0x11
 1773 00bf 13       		.uleb128 0x13
 1774 00c0 01       		.byte	0x1
 1775 00c1 0B       		.uleb128 0xb
 1776 00c2 0B       		.uleb128 0xb
 1777 00c3 3A       		.uleb128 0x3a
 1778 00c4 0B       		.uleb128 0xb
 1779 00c5 3B       		.uleb128 0x3b
 1780 00c6 05       		.uleb128 0x5
 1781 00c7 01       		.uleb128 0x1
 1782 00c8 13       		.uleb128 0x13
 1783 00c9 00       		.byte	0
 1784 00ca 00       		.byte	0
 1785 00cb 12       		.uleb128 0x12
 1786 00cc 01       		.uleb128 0x1
 1787 00cd 01       		.byte	0x1
 1788 00ce 49       		.uleb128 0x49
 1789 00cf 13       		.uleb128 0x13
 1790 00d0 01       		.uleb128 0x1
 1791 00d1 13       		.uleb128 0x13
 1792 00d2 00       		.byte	0
 1793 00d3 00       		.byte	0
 1794 00d4 13       		.uleb128 0x13
 1795 00d5 21       		.uleb128 0x21
 1796 00d6 00       		.byte	0
 1797 00d7 49       		.uleb128 0x49
 1798 00d8 13       		.uleb128 0x13
 1799 00d9 2F       		.uleb128 0x2f
 1800 00da 0B       		.uleb128 0xb
 1801 00db 00       		.byte	0
 1802 00dc 00       		.byte	0
 1803 00dd 14       		.uleb128 0x14
 1804 00de 16       		.uleb128 0x16
 1805 00df 00       		.byte	0
 1806 00e0 03       		.uleb128 0x3
 1807 00e1 0E       		.uleb128 0xe
 1808 00e2 3A       		.uleb128 0x3a
 1809 00e3 0B       		.uleb128 0xb
 1810 00e4 3B       		.uleb128 0x3b
 1811 00e5 05       		.uleb128 0x5
 1812 00e6 49       		.uleb128 0x49
 1813 00e7 13       		.uleb128 0x13
 1814 00e8 00       		.byte	0
 1815 00e9 00       		.byte	0
 1816 00ea 15       		.uleb128 0x15
 1817 00eb 34       		.uleb128 0x34
 1818 00ec 00       		.byte	0
 1819 00ed 03       		.uleb128 0x3
 1820 00ee 0E       		.uleb128 0xe
 1821 00ef 3A       		.uleb128 0x3a
 1822 00f0 0B       		.uleb128 0xb
 1823 00f1 3B       		.uleb128 0x3b
 1824 00f2 05       		.uleb128 0x5
ARM GAS  /tmp/ccEDmUSo.s 			page 33


 1825 00f3 49       		.uleb128 0x49
 1826 00f4 13       		.uleb128 0x13
 1827 00f5 3F       		.uleb128 0x3f
 1828 00f6 19       		.uleb128 0x19
 1829 00f7 3C       		.uleb128 0x3c
 1830 00f8 19       		.uleb128 0x19
 1831 00f9 00       		.byte	0
 1832 00fa 00       		.byte	0
 1833 00fb 16       		.uleb128 0x16
 1834 00fc 34       		.uleb128 0x34
 1835 00fd 00       		.byte	0
 1836 00fe 03       		.uleb128 0x3
 1837 00ff 0E       		.uleb128 0xe
 1838 0100 3A       		.uleb128 0x3a
 1839 0101 0B       		.uleb128 0xb
 1840 0102 3B       		.uleb128 0x3b
 1841 0103 0B       		.uleb128 0xb
 1842 0104 49       		.uleb128 0x49
 1843 0105 13       		.uleb128 0x13
 1844 0106 3F       		.uleb128 0x3f
 1845 0107 19       		.uleb128 0x19
 1846 0108 3C       		.uleb128 0x3c
 1847 0109 19       		.uleb128 0x19
 1848 010a 00       		.byte	0
 1849 010b 00       		.byte	0
 1850 010c 17       		.uleb128 0x17
 1851 010d 17       		.uleb128 0x17
 1852 010e 01       		.byte	0x1
 1853 010f 0B       		.uleb128 0xb
 1854 0110 0B       		.uleb128 0xb
 1855 0111 3A       		.uleb128 0x3a
 1856 0112 0B       		.uleb128 0xb
 1857 0113 3B       		.uleb128 0x3b
 1858 0114 0B       		.uleb128 0xb
 1859 0115 01       		.uleb128 0x1
 1860 0116 13       		.uleb128 0x13
 1861 0117 00       		.byte	0
 1862 0118 00       		.byte	0
 1863 0119 18       		.uleb128 0x18
 1864 011a 0D       		.uleb128 0xd
 1865 011b 00       		.byte	0
 1866 011c 03       		.uleb128 0x3
 1867 011d 0E       		.uleb128 0xe
 1868 011e 3A       		.uleb128 0x3a
 1869 011f 0B       		.uleb128 0xb
 1870 0120 3B       		.uleb128 0x3b
 1871 0121 0B       		.uleb128 0xb
 1872 0122 49       		.uleb128 0x49
 1873 0123 13       		.uleb128 0x13
 1874 0124 00       		.byte	0
 1875 0125 00       		.byte	0
 1876 0126 19       		.uleb128 0x19
 1877 0127 34       		.uleb128 0x34
 1878 0128 00       		.byte	0
 1879 0129 03       		.uleb128 0x3
 1880 012a 08       		.uleb128 0x8
 1881 012b 3A       		.uleb128 0x3a
ARM GAS  /tmp/ccEDmUSo.s 			page 34


 1882 012c 0B       		.uleb128 0xb
 1883 012d 3B       		.uleb128 0x3b
 1884 012e 05       		.uleb128 0x5
 1885 012f 49       		.uleb128 0x49
 1886 0130 13       		.uleb128 0x13
 1887 0131 3F       		.uleb128 0x3f
 1888 0132 19       		.uleb128 0x19
 1889 0133 3C       		.uleb128 0x3c
 1890 0134 19       		.uleb128 0x19
 1891 0135 00       		.byte	0
 1892 0136 00       		.byte	0
 1893 0137 1A       		.uleb128 0x1a
 1894 0138 21       		.uleb128 0x21
 1895 0139 00       		.byte	0
 1896 013a 00       		.byte	0
 1897 013b 00       		.byte	0
 1898 013c 1B       		.uleb128 0x1b
 1899 013d 2E       		.uleb128 0x2e
 1900 013e 01       		.byte	0x1
 1901 013f 3F       		.uleb128 0x3f
 1902 0140 19       		.uleb128 0x19
 1903 0141 03       		.uleb128 0x3
 1904 0142 0E       		.uleb128 0xe
 1905 0143 3A       		.uleb128 0x3a
 1906 0144 0B       		.uleb128 0xb
 1907 0145 3B       		.uleb128 0x3b
 1908 0146 0B       		.uleb128 0xb
 1909 0147 27       		.uleb128 0x27
 1910 0148 19       		.uleb128 0x19
 1911 0149 11       		.uleb128 0x11
 1912 014a 01       		.uleb128 0x1
 1913 014b 12       		.uleb128 0x12
 1914 014c 06       		.uleb128 0x6
 1915 014d 40       		.uleb128 0x40
 1916 014e 18       		.uleb128 0x18
 1917 014f 9742     		.uleb128 0x2117
 1918 0151 19       		.uleb128 0x19
 1919 0152 01       		.uleb128 0x1
 1920 0153 13       		.uleb128 0x13
 1921 0154 00       		.byte	0
 1922 0155 00       		.byte	0
 1923 0156 1C       		.uleb128 0x1c
 1924 0157 0B       		.uleb128 0xb
 1925 0158 01       		.byte	0x1
 1926 0159 11       		.uleb128 0x11
 1927 015a 01       		.uleb128 0x1
 1928 015b 12       		.uleb128 0x12
 1929 015c 06       		.uleb128 0x6
 1930 015d 01       		.uleb128 0x1
 1931 015e 13       		.uleb128 0x13
 1932 015f 00       		.byte	0
 1933 0160 00       		.byte	0
 1934 0161 1D       		.uleb128 0x1d
 1935 0162 34       		.uleb128 0x34
 1936 0163 00       		.byte	0
 1937 0164 03       		.uleb128 0x3
 1938 0165 0E       		.uleb128 0xe
ARM GAS  /tmp/ccEDmUSo.s 			page 35


 1939 0166 3A       		.uleb128 0x3a
 1940 0167 0B       		.uleb128 0xb
 1941 0168 3B       		.uleb128 0x3b
 1942 0169 0B       		.uleb128 0xb
 1943 016a 49       		.uleb128 0x49
 1944 016b 13       		.uleb128 0x13
 1945 016c 02       		.uleb128 0x2
 1946 016d 17       		.uleb128 0x17
 1947 016e 00       		.byte	0
 1948 016f 00       		.byte	0
 1949 0170 1E       		.uleb128 0x1e
 1950 0171 1D       		.uleb128 0x1d
 1951 0172 01       		.byte	0x1
 1952 0173 31       		.uleb128 0x31
 1953 0174 13       		.uleb128 0x13
 1954 0175 11       		.uleb128 0x11
 1955 0176 01       		.uleb128 0x1
 1956 0177 12       		.uleb128 0x12
 1957 0178 06       		.uleb128 0x6
 1958 0179 58       		.uleb128 0x58
 1959 017a 0B       		.uleb128 0xb
 1960 017b 59       		.uleb128 0x59
 1961 017c 0B       		.uleb128 0xb
 1962 017d 01       		.uleb128 0x1
 1963 017e 13       		.uleb128 0x13
 1964 017f 00       		.byte	0
 1965 0180 00       		.byte	0
 1966 0181 1F       		.uleb128 0x1f
 1967 0182 0B       		.uleb128 0xb
 1968 0183 01       		.byte	0x1
 1969 0184 11       		.uleb128 0x11
 1970 0185 01       		.uleb128 0x1
 1971 0186 12       		.uleb128 0x12
 1972 0187 06       		.uleb128 0x6
 1973 0188 00       		.byte	0
 1974 0189 00       		.byte	0
 1975 018a 20       		.uleb128 0x20
 1976 018b 34       		.uleb128 0x34
 1977 018c 00       		.byte	0
 1978 018d 31       		.uleb128 0x31
 1979 018e 13       		.uleb128 0x13
 1980 018f 00       		.byte	0
 1981 0190 00       		.byte	0
 1982 0191 21       		.uleb128 0x21
 1983 0192 05       		.uleb128 0x5
 1984 0193 00       		.byte	0
 1985 0194 31       		.uleb128 0x31
 1986 0195 13       		.uleb128 0x13
 1987 0196 02       		.uleb128 0x2
 1988 0197 17       		.uleb128 0x17
 1989 0198 00       		.byte	0
 1990 0199 00       		.byte	0
 1991 019a 22       		.uleb128 0x22
 1992 019b 898201   		.uleb128 0x4109
 1993 019e 00       		.byte	0
 1994 019f 11       		.uleb128 0x11
 1995 01a0 01       		.uleb128 0x1
ARM GAS  /tmp/ccEDmUSo.s 			page 36


 1996 01a1 31       		.uleb128 0x31
 1997 01a2 13       		.uleb128 0x13
 1998 01a3 00       		.byte	0
 1999 01a4 00       		.byte	0
 2000 01a5 23       		.uleb128 0x23
 2001 01a6 1D       		.uleb128 0x1d
 2002 01a7 01       		.byte	0x1
 2003 01a8 31       		.uleb128 0x31
 2004 01a9 13       		.uleb128 0x13
 2005 01aa 11       		.uleb128 0x11
 2006 01ab 01       		.uleb128 0x1
 2007 01ac 12       		.uleb128 0x12
 2008 01ad 06       		.uleb128 0x6
 2009 01ae 58       		.uleb128 0x58
 2010 01af 0B       		.uleb128 0xb
 2011 01b0 59       		.uleb128 0x59
 2012 01b1 05       		.uleb128 0x5
 2013 01b2 00       		.byte	0
 2014 01b3 00       		.byte	0
 2015 01b4 24       		.uleb128 0x24
 2016 01b5 1D       		.uleb128 0x1d
 2017 01b6 01       		.byte	0x1
 2018 01b7 31       		.uleb128 0x31
 2019 01b8 13       		.uleb128 0x13
 2020 01b9 11       		.uleb128 0x11
 2021 01ba 01       		.uleb128 0x1
 2022 01bb 12       		.uleb128 0x12
 2023 01bc 06       		.uleb128 0x6
 2024 01bd 58       		.uleb128 0x58
 2025 01be 0B       		.uleb128 0xb
 2026 01bf 59       		.uleb128 0x59
 2027 01c0 0B       		.uleb128 0xb
 2028 01c1 00       		.byte	0
 2029 01c2 00       		.byte	0
 2030 01c3 25       		.uleb128 0x25
 2031 01c4 2E       		.uleb128 0x2e
 2032 01c5 00       		.byte	0
 2033 01c6 03       		.uleb128 0x3
 2034 01c7 0E       		.uleb128 0xe
 2035 01c8 3A       		.uleb128 0x3a
 2036 01c9 0B       		.uleb128 0xb
 2037 01ca 3B       		.uleb128 0x3b
 2038 01cb 05       		.uleb128 0x5
 2039 01cc 27       		.uleb128 0x27
 2040 01cd 19       		.uleb128 0x19
 2041 01ce 20       		.uleb128 0x20
 2042 01cf 0B       		.uleb128 0xb
 2043 01d0 00       		.byte	0
 2044 01d1 00       		.byte	0
 2045 01d2 26       		.uleb128 0x26
 2046 01d3 2E       		.uleb128 0x2e
 2047 01d4 01       		.byte	0x1
 2048 01d5 03       		.uleb128 0x3
 2049 01d6 0E       		.uleb128 0xe
 2050 01d7 3A       		.uleb128 0x3a
 2051 01d8 0B       		.uleb128 0xb
 2052 01d9 3B       		.uleb128 0x3b
ARM GAS  /tmp/ccEDmUSo.s 			page 37


 2053 01da 05       		.uleb128 0x5
 2054 01db 27       		.uleb128 0x27
 2055 01dc 19       		.uleb128 0x19
 2056 01dd 49       		.uleb128 0x49
 2057 01de 13       		.uleb128 0x13
 2058 01df 20       		.uleb128 0x20
 2059 01e0 0B       		.uleb128 0xb
 2060 01e1 01       		.uleb128 0x1
 2061 01e2 13       		.uleb128 0x13
 2062 01e3 00       		.byte	0
 2063 01e4 00       		.byte	0
 2064 01e5 27       		.uleb128 0x27
 2065 01e6 34       		.uleb128 0x34
 2066 01e7 00       		.byte	0
 2067 01e8 03       		.uleb128 0x3
 2068 01e9 0E       		.uleb128 0xe
 2069 01ea 3A       		.uleb128 0x3a
 2070 01eb 0B       		.uleb128 0xb
 2071 01ec 3B       		.uleb128 0x3b
 2072 01ed 05       		.uleb128 0x5
 2073 01ee 49       		.uleb128 0x49
 2074 01ef 13       		.uleb128 0x13
 2075 01f0 00       		.byte	0
 2076 01f1 00       		.byte	0
 2077 01f2 28       		.uleb128 0x28
 2078 01f3 2E       		.uleb128 0x2e
 2079 01f4 01       		.byte	0x1
 2080 01f5 03       		.uleb128 0x3
 2081 01f6 0E       		.uleb128 0xe
 2082 01f7 3A       		.uleb128 0x3a
 2083 01f8 0B       		.uleb128 0xb
 2084 01f9 3B       		.uleb128 0x3b
 2085 01fa 05       		.uleb128 0x5
 2086 01fb 27       		.uleb128 0x27
 2087 01fc 19       		.uleb128 0x19
 2088 01fd 20       		.uleb128 0x20
 2089 01fe 0B       		.uleb128 0xb
 2090 01ff 01       		.uleb128 0x1
 2091 0200 13       		.uleb128 0x13
 2092 0201 00       		.byte	0
 2093 0202 00       		.byte	0
 2094 0203 29       		.uleb128 0x29
 2095 0204 05       		.uleb128 0x5
 2096 0205 00       		.byte	0
 2097 0206 03       		.uleb128 0x3
 2098 0207 0E       		.uleb128 0xe
 2099 0208 3A       		.uleb128 0x3a
 2100 0209 0B       		.uleb128 0xb
 2101 020a 3B       		.uleb128 0x3b
 2102 020b 05       		.uleb128 0x5
 2103 020c 49       		.uleb128 0x49
 2104 020d 13       		.uleb128 0x13
 2105 020e 00       		.byte	0
 2106 020f 00       		.byte	0
 2107 0210 2A       		.uleb128 0x2a
 2108 0211 2E       		.uleb128 0x2e
 2109 0212 01       		.byte	0x1
ARM GAS  /tmp/ccEDmUSo.s 			page 38


 2110 0213 03       		.uleb128 0x3
 2111 0214 0E       		.uleb128 0xe
 2112 0215 3A       		.uleb128 0x3a
 2113 0216 0B       		.uleb128 0xb
 2114 0217 3B       		.uleb128 0x3b
 2115 0218 0B       		.uleb128 0xb
 2116 0219 27       		.uleb128 0x27
 2117 021a 19       		.uleb128 0x19
 2118 021b 49       		.uleb128 0x49
 2119 021c 13       		.uleb128 0x13
 2120 021d 20       		.uleb128 0x20
 2121 021e 0B       		.uleb128 0xb
 2122 021f 01       		.uleb128 0x1
 2123 0220 13       		.uleb128 0x13
 2124 0221 00       		.byte	0
 2125 0222 00       		.byte	0
 2126 0223 2B       		.uleb128 0x2b
 2127 0224 34       		.uleb128 0x34
 2128 0225 00       		.byte	0
 2129 0226 03       		.uleb128 0x3
 2130 0227 0E       		.uleb128 0xe
 2131 0228 3A       		.uleb128 0x3a
 2132 0229 0B       		.uleb128 0xb
 2133 022a 3B       		.uleb128 0x3b
 2134 022b 0B       		.uleb128 0xb
 2135 022c 49       		.uleb128 0x49
 2136 022d 13       		.uleb128 0x13
 2137 022e 00       		.byte	0
 2138 022f 00       		.byte	0
 2139 0230 2C       		.uleb128 0x2c
 2140 0231 2E       		.uleb128 0x2e
 2141 0232 00       		.byte	0
 2142 0233 3F       		.uleb128 0x3f
 2143 0234 19       		.uleb128 0x19
 2144 0235 3C       		.uleb128 0x3c
 2145 0236 19       		.uleb128 0x19
 2146 0237 6E       		.uleb128 0x6e
 2147 0238 0E       		.uleb128 0xe
 2148 0239 03       		.uleb128 0x3
 2149 023a 0E       		.uleb128 0xe
 2150 023b 3A       		.uleb128 0x3a
 2151 023c 0B       		.uleb128 0xb
 2152 023d 3B       		.uleb128 0x3b
 2153 023e 05       		.uleb128 0x5
 2154 023f 00       		.byte	0
 2155 0240 00       		.byte	0
 2156 0241 00       		.byte	0
 2157              		.section	.debug_loc,"",%progbits
 2158              	.Ldebug_loc0:
 2159              	.LLST4:
 2160 0000 1A000000 		.4byte	.LVL7
 2161 0004 2E000000 		.4byte	.LVL9
 2162 0008 0400     		.2byte	0x4
 2163 000a 74       		.byte	0x74
 2164 000b 987F     		.sleb128 -104
 2165 000d 9F       		.byte	0x9f
 2166 000e 2E000000 		.4byte	.LVL9
ARM GAS  /tmp/ccEDmUSo.s 			page 39


 2167 0012 35000000 		.4byte	.LVL11-1
 2168 0016 0100     		.2byte	0x1
 2169 0018 53       		.byte	0x53
 2170 0019 35000000 		.4byte	.LVL11-1
 2171 001d 44000000 		.4byte	.LVL13
 2172 0021 0400     		.2byte	0x4
 2173 0023 74       		.byte	0x74
 2174 0024 987F     		.sleb128 -104
 2175 0026 9F       		.byte	0x9f
 2176 0027 00000000 		.4byte	0
 2177 002b 00000000 		.4byte	0
 2178              	.LLST5:
 2179 002f 2A000000 		.4byte	.LVL8
 2180 0033 2E000000 		.4byte	.LVL9
 2181 0037 0400     		.2byte	0x4
 2182 0039 74       		.byte	0x74
 2183 003a 987F     		.sleb128 -104
 2184 003c 9F       		.byte	0x9f
 2185 003d 2E000000 		.4byte	.LVL9
 2186 0041 32000000 		.4byte	.LVL10
 2187 0045 0100     		.2byte	0x1
 2188 0047 53       		.byte	0x53
 2189 0048 00000000 		.4byte	0
 2190 004c 00000000 		.4byte	0
 2191              	.LLST3:
 2192 0050 00000000 		.4byte	.LVL5
 2193 0054 08000000 		.4byte	.LVL6
 2194 0058 0300     		.2byte	0x3
 2195 005a 08       		.byte	0x8
 2196 005b 20       		.byte	0x20
 2197 005c 9F       		.byte	0x9f
 2198 005d 00000000 		.4byte	0
 2199 0061 00000000 		.4byte	0
 2200              	.LLST6:
 2201 0065 44000000 		.4byte	.LVL13
 2202 0069 48000000 		.4byte	.LVL14
 2203 006d 0200     		.2byte	0x2
 2204 006f 30       		.byte	0x30
 2205 0070 9F       		.byte	0x9f
 2206 0071 00000000 		.4byte	0
 2207 0075 00000000 		.4byte	0
 2208              	.LLST0:
 2209 0079 0E000000 		.4byte	.LVL0
 2210 007d 10000000 		.4byte	.LVL1
 2211 0081 0400     		.2byte	0x4
 2212 0083 73       		.byte	0x73
 2213 0084 E800     		.sleb128 104
 2214 0086 9F       		.byte	0x9f
 2215 0087 10000000 		.4byte	.LVL1
 2216 008b 16000000 		.4byte	.LVL3
 2217 008f 0100     		.2byte	0x1
 2218 0091 53       		.byte	0x53
 2219 0092 00000000 		.4byte	0
 2220 0096 00000000 		.4byte	0
 2221              	.LLST1:
 2222 009a 0E000000 		.4byte	.LVL0
 2223 009e 10000000 		.4byte	.LVL1
ARM GAS  /tmp/ccEDmUSo.s 			page 40


 2224 00a2 0400     		.2byte	0x4
 2225 00a4 73       		.byte	0x73
 2226 00a5 E800     		.sleb128 104
 2227 00a7 9F       		.byte	0x9f
 2228 00a8 10000000 		.4byte	.LVL1
 2229 00ac 14000000 		.4byte	.LVL2
 2230 00b0 0100     		.2byte	0x1
 2231 00b2 53       		.byte	0x53
 2232 00b3 00000000 		.4byte	0
 2233 00b7 00000000 		.4byte	0
 2234              	.LLST2:
 2235 00bb 14000000 		.4byte	.LVL2
 2236 00bf 1A000000 		.4byte	.LVL4
 2237 00c3 0200     		.2byte	0x2
 2238 00c5 30       		.byte	0x30
 2239 00c6 9F       		.byte	0x9f
 2240 00c7 00000000 		.4byte	0
 2241 00cb 00000000 		.4byte	0
 2242              		.section	.debug_aranges,"",%progbits
 2243 0000 24000000 		.4byte	0x24
 2244 0004 0200     		.2byte	0x2
 2245 0006 00000000 		.4byte	.Ldebug_info0
 2246 000a 04       		.byte	0x4
 2247 000b 00       		.byte	0
 2248 000c 0000     		.2byte	0
 2249 000e 0000     		.2byte	0
 2250 0010 00000000 		.4byte	.LFB217
 2251 0014 20000000 		.4byte	.LFE217-.LFB217
 2252 0018 00000000 		.4byte	.LFB218
 2253 001c 5C000000 		.4byte	.LFE218-.LFB218
 2254 0020 00000000 		.4byte	0
 2255 0024 00000000 		.4byte	0
 2256              		.section	.debug_ranges,"",%progbits
 2257              	.Ldebug_ranges0:
 2258 0000 00000000 		.4byte	.LFB217
 2259 0004 20000000 		.4byte	.LFE217
 2260 0008 00000000 		.4byte	.LFB218
 2261 000c 5C000000 		.4byte	.LFE218
 2262 0010 00000000 		.4byte	0
 2263 0014 00000000 		.4byte	0
 2264              		.section	.debug_line,"",%progbits
 2265              	.Ldebug_line0:
 2266 0000 C1020000 		.section	.debug_str,"MS",%progbits,1
 2266      02005302 
 2266      00000201 
 2266      FB0E0D00 
 2266      01010101 
 2267              	.LASF33:
 2268 0000 72656164 		.ascii	"ready_list_t\000"
 2268      795F6C69 
 2268      73745F74 
 2268      00
 2269              	.LASF93:
 2270 000d 77747472 		.ascii	"wttrp\000"
 2270      7000
 2271              	.LASF39:
 2272 0013 64656C74 		.ascii	"delta\000"
ARM GAS  /tmp/ccEDmUSo.s 			page 41


 2272      6100
 2273              	.LASF90:
 2274 0019 7264796D 		.ascii	"rdymsg\000"
 2274      736700
 2275              	.LASF73:
 2276 0020 46504453 		.ascii	"FPDSCR\000"
 2276      435200
 2277              	.LASF17:
 2278 0027 75696E74 		.ascii	"uint64_t\000"
 2278      36345F74 
 2278      00
 2279              	.LASF3:
 2280 0030 7369676E 		.ascii	"signed char\000"
 2280      65642063 
 2280      68617200 
 2281              	.LASF7:
 2282 003c 5F5F7569 		.ascii	"__uint8_t\000"
 2282      6E74385F 
 2282      7400
 2283              	.LASF32:
 2284 0046 70726576 		.ascii	"prev\000"
 2284      00
 2285              	.LASF84:
 2286 004b 706F7274 		.ascii	"port_intctx\000"
 2286      5F696E74 
 2286      63747800 
 2287              	.LASF44:
 2288 0057 73797374 		.ascii	"system_debug_t\000"
 2288      656D5F64 
 2288      65627567 
 2288      5F7400
 2289              	.LASF80:
 2290 0066 41504250 		.ascii	"APBPrescTable\000"
 2290      72657363 
 2290      5461626C 
 2290      6500
 2291              	.LASF102:
 2292 0074 706F7274 		.ascii	"port_lock\000"
 2292      5F6C6F63 
 2292      6B00
 2293              	.LASF91:
 2294 007e 65786974 		.ascii	"exitcode\000"
 2294      636F6465 
 2294      00
 2295              	.LASF51:
 2296 0087 6D61696E 		.ascii	"mainthread\000"
 2296      74687265 
 2296      616400
 2297              	.LASF41:
 2298 0092 76697274 		.ascii	"virtual_timers_list_t\000"
 2298      75616C5F 
 2298      74696D65 
 2298      72735F6C 
 2298      6973745F 
 2299              	.LASF55:
 2300 00a8 43505549 		.ascii	"CPUID\000"
 2300      4400
ARM GAS  /tmp/ccEDmUSo.s 			page 42


 2301              	.LASF31:
 2302 00ae 6E657874 		.ascii	"next\000"
 2302      00
 2303              	.LASF30:
 2304 00b3 63685F74 		.ascii	"ch_threads_queue\000"
 2304      68726561 
 2304      64735F71 
 2304      75657565 
 2304      00
 2305              	.LASF13:
 2306 00c4 6C6F6E67 		.ascii	"long long unsigned int\000"
 2306      206C6F6E 
 2306      6720756E 
 2306      7369676E 
 2306      65642069 
 2307              	.LASF110:
 2308 00db 474E5520 		.ascii	"GNU C11 6.3.1 20170620 (release) [ARM/embedded-6-br"
 2308      43313120 
 2308      362E332E 
 2308      31203230 
 2308      31373036 
 2309 010e 616E6368 		.ascii	"anch revision 249437] -mcpu=cortex-m4 -mfloat-abi=h"
 2309      20726576 
 2309      6973696F 
 2309      6E203234 
 2309      39343337 
 2310 0141 61726420 		.ascii	"ard -mfpu=fpv4-sp-d16 -mno-thumb-interwork -mthumb "
 2310      2D6D6670 
 2310      753D6670 
 2310      76342D73 
 2310      702D6431 
 2311 0174 2D67202D 		.ascii	"-g -Os -fomit-frame-pointer -falign-functions=16 -f"
 2311      4F73202D 
 2311      666F6D69 
 2311      742D6672 
 2311      616D652D 
 2312 01a7 66756E63 		.ascii	"function-sections -fdata-sections -fno-common -fsin"
 2312      74696F6E 
 2312      2D736563 
 2312      74696F6E 
 2312      73202D66 
 2313 01da 676C652D 		.ascii	"gle-precision-constant\000"
 2313      70726563 
 2313      6973696F 
 2313      6E2D636F 
 2313      6E737461 
 2314              	.LASF67:
 2315 01f1 49534152 		.ascii	"ISAR\000"
 2315      00
 2316              	.LASF105:
 2317 01f6 62617365 		.ascii	"basePri\000"
 2317      50726900 
 2318              	.LASF50:
 2319 01fe 76746C69 		.ascii	"vtlist\000"
 2319      737400
 2320              	.LASF101:
 2321 0205 706F7274 		.ascii	"port_unlock\000"
ARM GAS  /tmp/ccEDmUSo.s 			page 43


 2321      5F756E6C 
 2321      6F636B00 
 2322              	.LASF25:
 2323 0211 73746174 		.ascii	"state\000"
 2323      6500
 2324              	.LASF9:
 2325 0217 6C6F6E67 		.ascii	"long int\000"
 2325      20696E74 
 2325      00
 2326              	.LASF19:
 2327 0220 74737461 		.ascii	"tstate_t\000"
 2327      74655F74 
 2327      00
 2328              	.LASF113:
 2329 0229 63685363 		.ascii	"chSchIsPreemptionRequired\000"
 2329      68497350 
 2329      7265656D 
 2329      7074696F 
 2329      6E526571 
 2330              	.LASF10:
 2331 0243 5F5F7569 		.ascii	"__uint32_t\000"
 2331      6E743332 
 2331      5F7400
 2332              	.LASF81:
 2333 024e 72656761 		.ascii	"regarm_t\000"
 2333      726D5F74 
 2333      00
 2334              	.LASF70:
 2335 0257 5343425F 		.ascii	"SCB_Type\000"
 2335      54797065 
 2335      00
 2336              	.LASF89:
 2337 0260 72657365 		.ascii	"reserved\000"
 2337      72766564 
 2337      00
 2338              	.LASF1:
 2339 0269 6C6F6E67 		.ascii	"long long int\000"
 2339      206C6F6E 
 2339      6720696E 
 2339      7400
 2340              	.LASF53:
 2341 0277 73797369 		.ascii	"sysinterval_t\000"
 2341      6E746572 
 2341      76616C5F 
 2341      7400
 2342              	.LASF0:
 2343 0285 756E7369 		.ascii	"unsigned int\000"
 2343      676E6564 
 2343      20696E74 
 2343      00
 2344              	.LASF104:
 2345 0292 5F5F7365 		.ascii	"__set_PSP\000"
 2345      745F5053 
 2345      5000
 2346              	.LASF78:
 2347 029c 53797374 		.ascii	"SystemCoreClock\000"
 2347      656D436F 
ARM GAS  /tmp/ccEDmUSo.s 			page 44


 2347      7265436C 
 2347      6F636B00 
 2348              	.LASF112:
 2349 02ac 2F686F6D 		.ascii	"/home/alex/ArduPilot/ardupilot/build/STM32Disco\000"
 2349      652F616C 
 2349      65782F41 
 2349      72647550 
 2349      696C6F74 
 2350              	.LASF57:
 2351 02dc 56544F52 		.ascii	"VTOR\000"
 2351      00
 2352              	.LASF29:
 2353 02e1 63685F74 		.ascii	"ch_thread\000"
 2353      68726561 
 2353      6400
 2354              	.LASF56:
 2355 02eb 49435352 		.ascii	"ICSR\000"
 2355      00
 2356              	.LASF21:
 2357 02f0 6D73675F 		.ascii	"msg_t\000"
 2357      7400
 2358              	.LASF58:
 2359 02f6 41495243 		.ascii	"AIRCR\000"
 2359      5200
 2360              	.LASF62:
 2361 02fc 44465352 		.ascii	"DFSR\000"
 2361      00
 2362              	.LASF63:
 2363 0301 4D4D4641 		.ascii	"MMFAR\000"
 2363      5200
 2364              	.LASF96:
 2365 0307 5F706F72 		.ascii	"_port_irq_epilogue\000"
 2365      745F6972 
 2365      715F6570 
 2365      696C6F67 
 2365      756500
 2366              	.LASF18:
 2367 031a 746D6F64 		.ascii	"tmode_t\000"
 2367      655F7400 
 2368              	.LASF34:
 2369 0322 63685F72 		.ascii	"ch_ready_list\000"
 2369      65616479 
 2369      5F6C6973 
 2369      7400
 2370              	.LASF66:
 2371 0330 4D4D4652 		.ascii	"MMFR\000"
 2371      00
 2372              	.LASF79:
 2373 0335 41484250 		.ascii	"AHBPrescTable\000"
 2373      72657363 
 2373      5461626C 
 2373      6500
 2374              	.LASF106:
 2375 0343 746F704F 		.ascii	"topOfProcStack\000"
 2375      6650726F 
 2375      63537461 
 2375      636B00
ARM GAS  /tmp/ccEDmUSo.s 			page 45


 2376              	.LASF8:
 2377 0352 5F5F696E 		.ascii	"__int32_t\000"
 2377      7433325F 
 2377      7400
 2378              	.LASF82:
 2379 035c 73746B61 		.ascii	"stkalign_t\000"
 2379      6C69676E 
 2379      5F7400
 2380              	.LASF71:
 2381 0367 46504343 		.ascii	"FPCCR\000"
 2381      5200
 2382              	.LASF54:
 2383 036d 73697A65 		.ascii	"sizetype\000"
 2383      74797065 
 2383      00
 2384              	.LASF27:
 2385 0376 74687265 		.ascii	"thread_reference_t\000"
 2385      61645F72 
 2385      65666572 
 2385      656E6365 
 2385      5F7400
 2386              	.LASF42:
 2387 0389 63685F76 		.ascii	"ch_virtual_timers_list\000"
 2387      69727475 
 2387      616C5F74 
 2387      696D6572 
 2387      735F6C69 
 2388              	.LASF2:
 2389 03a0 6C6F6E67 		.ascii	"long double\000"
 2389      20646F75 
 2389      626C6500 
 2390              	.LASF23:
 2391 03ac 71756575 		.ascii	"queue\000"
 2391      6500
 2392              	.LASF60:
 2393 03b2 43465352 		.ascii	"CFSR\000"
 2393      00
 2394              	.LASF83:
 2395 03b7 706F7274 		.ascii	"port_context\000"
 2395      5F636F6E 
 2395      74657874 
 2395      00
 2396              	.LASF85:
 2397 03c4 706F7274 		.ascii	"port_extctx\000"
 2397      5F657874 
 2397      63747800 
 2398              	.LASF24:
 2399 03d0 7072696F 		.ascii	"prio\000"
 2399      00
 2400              	.LASF35:
 2401 03d5 63757272 		.ascii	"current\000"
 2401      656E7400 
 2402              	.LASF12:
 2403 03dd 5F5F7569 		.ascii	"__uint64_t\000"
 2403      6E743634 
 2403      5F7400
 2404              	.LASF74:
ARM GAS  /tmp/ccEDmUSo.s 			page 46


 2405 03e8 4D564652 		.ascii	"MVFR0\000"
 2405      3000
 2406              	.LASF75:
 2407 03ee 4D564652 		.ascii	"MVFR1\000"
 2407      3100
 2408              	.LASF68:
 2409 03f4 52455345 		.ascii	"RESERVED0\000"
 2409      52564544 
 2409      3000
 2410              	.LASF98:
 2411 03fe 63747870 		.ascii	"ctxp\000"
 2411      00
 2412              	.LASF37:
 2413 0403 76697274 		.ascii	"virtual_timer_t\000"
 2413      75616C5F 
 2413      74696D65 
 2413      725F7400 
 2414              	.LASF20:
 2415 0413 74707269 		.ascii	"tprio_t\000"
 2415      6F5F7400 
 2416              	.LASF107:
 2417 041b 5F5F6765 		.ascii	"__get_FPSCR\000"
 2417      745F4650 
 2417      53435200 
 2418              	.LASF45:
 2419 0427 63685F73 		.ascii	"ch_system_debug\000"
 2419      79737465 
 2419      6D5F6465 
 2419      62756700 
 2420              	.LASF64:
 2421 0437 42464152 		.ascii	"BFAR\000"
 2421      00
 2422              	.LASF15:
 2423 043c 696E7433 		.ascii	"int32_t\000"
 2423      325F7400 
 2424              	.LASF4:
 2425 0444 756E7369 		.ascii	"unsigned char\000"
 2425      676E6564 
 2425      20636861 
 2425      7200
 2426              	.LASF59:
 2427 0452 53484353 		.ascii	"SHCSR\000"
 2427      5200
 2428              	.LASF77:
 2429 0458 49544D5F 		.ascii	"ITM_RxBuffer\000"
 2429      52784275 
 2429      66666572 
 2429      00
 2430              	.LASF5:
 2431 0465 73686F72 		.ascii	"short int\000"
 2431      7420696E 
 2431      7400
 2432              	.LASF43:
 2433 046f 6C617374 		.ascii	"lasttime\000"
 2433      74696D65 
 2433      00
 2434              	.LASF87:
ARM GAS  /tmp/ccEDmUSo.s 			page 47


 2435 0478 78707372 		.ascii	"xpsr\000"
 2435      00
 2436              	.LASF48:
 2437 047d 63685F73 		.ascii	"ch_system\000"
 2437      79737465 
 2437      6D00
 2438              	.LASF88:
 2439 0487 66707363 		.ascii	"fpscr\000"
 2439      7200
 2440              	.LASF86:
 2441 048d 6C725F74 		.ascii	"lr_thd\000"
 2441      686400
 2442              	.LASF72:
 2443 0494 46504341 		.ascii	"FPCAR\000"
 2443      5200
 2444              	.LASF97:
 2445 049a 5356435F 		.ascii	"SVC_Handler\000"
 2445      48616E64 
 2445      6C657200 
 2446              	.LASF38:
 2447 04a6 63685F76 		.ascii	"ch_virtual_timer\000"
 2447      69727475 
 2447      616C5F74 
 2447      696D6572 
 2447      00
 2448              	.LASF95:
 2449 04b7 63685F69 		.ascii	"ch_idle_thread_wa\000"
 2449      646C655F 
 2449      74687265 
 2449      61645F77 
 2449      6100
 2450              	.LASF16:
 2451 04c9 75696E74 		.ascii	"uint32_t\000"
 2451      33325F74 
 2451      00
 2452              	.LASF65:
 2453 04d2 41465352 		.ascii	"AFSR\000"
 2453      00
 2454              	.LASF76:
 2455 04d7 4650555F 		.ascii	"FPU_Type\000"
 2455      54797065 
 2455      00
 2456              	.LASF11:
 2457 04e0 6C6F6E67 		.ascii	"long unsigned int\000"
 2457      20756E73 
 2457      69676E65 
 2457      6420696E 
 2457      7400
 2458              	.LASF94:
 2459 04f2 63686172 		.ascii	"char\000"
 2459      00
 2460              	.LASF40:
 2461 04f7 66756E63 		.ascii	"func\000"
 2461      00
 2462              	.LASF99:
 2463 04fc 706F7274 		.ascii	"port_unlock_from_isr\000"
 2463      5F756E6C 
ARM GAS  /tmp/ccEDmUSo.s 			page 48


 2463      6F636B5F 
 2463      66726F6D 
 2463      5F697372 
 2464              	.LASF22:
 2465 0511 74687265 		.ascii	"thread_t\000"
 2465      61645F74 
 2465      00
 2466              	.LASF52:
 2467 051a 73797374 		.ascii	"systime_t\000"
 2467      696D655F 
 2467      7400
 2468              	.LASF36:
 2469 0524 76746675 		.ascii	"vtfunc_t\000"
 2469      6E635F74 
 2469      00
 2470              	.LASF103:
 2471 052d 5F5F7365 		.ascii	"__set_BASEPRI\000"
 2471      745F4241 
 2471      53455052 
 2471      4900
 2472              	.LASF46:
 2473 053b 70616E69 		.ascii	"panic_msg\000"
 2473      635F6D73 
 2473      6700
 2474              	.LASF6:
 2475 0545 73686F72 		.ascii	"short unsigned int\000"
 2475      7420756E 
 2475      7369676E 
 2475      65642069 
 2475      6E7400
 2476              	.LASF47:
 2477 0558 63685F73 		.ascii	"ch_system_t\000"
 2477      79737465 
 2477      6D5F7400 
 2478              	.LASF100:
 2479 0564 706F7274 		.ascii	"port_lock_from_isr\000"
 2479      5F6C6F63 
 2479      6B5F6672 
 2479      6F6D5F69 
 2479      737200
 2480              	.LASF108:
 2481 0577 5F5F6765 		.ascii	"__get_PSP\000"
 2481      745F5053 
 2481      5000
 2482              	.LASF28:
 2483 0581 74687265 		.ascii	"threads_queue_t\000"
 2483      6164735F 
 2483      71756575 
 2483      655F7400 
 2484              	.LASF49:
 2485 0591 726C6973 		.ascii	"rlist\000"
 2485      7400
 2486              	.LASF111:
 2487 0597 2E2E2F2E 		.ascii	"../../modules/ChibiOS/os/common/ports/ARMCMx/chcore"
 2487      2E2F6D6F 
 2487      64756C65 
 2487      732F4368 
ARM GAS  /tmp/ccEDmUSo.s 			page 49


 2487      6962694F 
 2488 05ca 5F76376D 		.ascii	"_v7m.c\000"
 2488      2E6300
 2489              	.LASF14:
 2490 05d1 75696E74 		.ascii	"uint8_t\000"
 2490      385F7400 
 2491              	.LASF26:
 2492 05d9 666C6167 		.ascii	"flags\000"
 2492      7300
 2493              	.LASF92:
 2494 05df 77746F62 		.ascii	"wtobjp\000"
 2494      6A7000
 2495              	.LASF69:
 2496 05e6 43504143 		.ascii	"CPACR\000"
 2496      5200
 2497              	.LASF61:
 2498 05ec 48465352 		.ascii	"HFSR\000"
 2498      00
 2499              	.LASF109:
 2500 05f1 72657375 		.ascii	"result\000"
 2500      6C7400
 2501              		.ident	"GCC: (GNU Tools for ARM Embedded Processors 6-2017-q2-update) 6.3.1 20170620 (release) [AR
ARM GAS  /tmp/ccEDmUSo.s 			page 50


DEFINED SYMBOLS
                            *ABS*:0000000000000000 chcore_v7m.c
     /tmp/ccEDmUSo.s:18     .text.SVC_Handler:0000000000000000 $t
     /tmp/ccEDmUSo.s:25     .text.SVC_Handler:0000000000000000 SVC_Handler
     /tmp/ccEDmUSo.s:84     .text.SVC_Handler:000000000000001c $d
     /tmp/ccEDmUSo.s:93     .text._port_irq_epilogue:0000000000000000 $t
     /tmp/ccEDmUSo.s:100    .text._port_irq_epilogue:0000000000000000 _port_irq_epilogue
     /tmp/ccEDmUSo.s:213    .text._port_irq_epilogue:000000000000004c $d
                     .debug_frame:0000000000000010 $d

UNDEFINED SYMBOLS
chSchIsPreemptionRequired
_port_switch_from_isr
_port_exit_from_isr
