ARM GAS  /tmp/ccxxfSAv.s 			page 1


   1              		.cpu cortex-m4
   2              		.eabi_attribute 27, 1
   3              		.eabi_attribute 28, 1
   4              		.eabi_attribute 20, 1
   5              		.eabi_attribute 21, 1
   6              		.eabi_attribute 23, 3
   7              		.eabi_attribute 24, 1
   8              		.eabi_attribute 25, 1
   9              		.eabi_attribute 26, 1
  10              		.eabi_attribute 30, 4
  11              		.eabi_attribute 34, 1
  12              		.eabi_attribute 18, 4
  13              		.file	"chschd.c"
  14              		.text
  15              	.Ltext0:
  16              		.cfi_sections	.debug_frame
  17              		.section	.text._scheduler_init,"ax",%progbits
  18              		.align	1
  19              		.global	_scheduler_init
  20              		.syntax unified
  21              		.thumb
  22              		.thumb_func
  23              		.fpu fpv4-sp-d16
  24              		.type	_scheduler_init, %function
  25              	_scheduler_init:
  26              	.LFB217:
  27              		.file 1 "../../modules/ChibiOS/os/rt/src/chschd.c"
  28              		.loc 1 65 0
  29              		.cfi_startproc
  30              		@ args = 0, pretend = 0, frame = 0
  31              		@ frame_needed = 0, uses_anonymous_args = 0
  32              		@ link register save eliminated.
  33              	.LVL0:
  34              	.LBB55:
  35              	.LBB56:
  36              		.file 2 "../../modules/ChibiOS/os/rt/include/chschd.h"
  37              		.loc 2 539 0
  38 0000 024B     		ldr	r3, .L2
  39              	.LBE56:
  40              	.LBE55:
  41              		.loc 1 68 0
  42 0002 0022     		movs	r2, #0
  43              	.LBB58:
  44              	.LBB57:
  45              		.loc 2 539 0
  46 0004 1B60     		str	r3, [r3]
  47              		.loc 2 540 0
  48 0006 5B60     		str	r3, [r3, #4]
  49              	.LVL1:
  50              	.LBE57:
  51              	.LBE58:
  52              		.loc 1 68 0
  53 0008 9A60     		str	r2, [r3, #8]
  54 000a 7047     		bx	lr
  55              	.L3:
  56              		.align	2
  57              	.L2:
ARM GAS  /tmp/ccxxfSAv.s 			page 2


  58 000c 00000000 		.word	.LANCHOR0
  59              		.cfi_endproc
  60              	.LFE217:
  61              		.size	_scheduler_init, .-_scheduler_init
  62              		.section	.text.chSchReadyI,"ax",%progbits
  63              		.align	1
  64              		.global	chSchReadyI
  65              		.syntax unified
  66              		.thumb
  67              		.thumb_func
  68              		.fpu fpv4-sp-d16
  69              		.type	chSchReadyI, %function
  70              	chSchReadyI:
  71              	.LFB218:
  72              		.loc 1 218 0
  73              		.cfi_startproc
  74              		@ args = 0, pretend = 0, frame = 0
  75              		@ frame_needed = 0, uses_anonymous_args = 0
  76              		@ link register save eliminated.
  77              	.LVL2:
  78              		.loc 1 227 0
  79 0000 0023     		movs	r3, #0
  80 0002 0374     		strb	r3, [r0, #16]
  81              	.LVL3:
  82              		.loc 1 231 0
  83 0004 8268     		ldr	r2, [r0, #8]
  84              		.loc 1 228 0
  85 0006 054B     		ldr	r3, .L7
  86              	.LVL4:
  87              	.L5:
  88              		.loc 1 230 0 discriminator 1
  89 0008 1B68     		ldr	r3, [r3]
  90              	.LVL5:
  91              		.loc 1 231 0 discriminator 1
  92 000a 9968     		ldr	r1, [r3, #8]
  93 000c 9142     		cmp	r1, r2
  94 000e FBD2     		bcs	.L5
  95              		.loc 1 234 0
  96 0010 5A68     		ldr	r2, [r3, #4]
  97              		.loc 1 233 0
  98 0012 0360     		str	r3, [r0]
  99              		.loc 1 234 0
 100 0014 4260     		str	r2, [r0, #4]
 101              		.loc 1 235 0
 102 0016 1060     		str	r0, [r2]
 103              		.loc 1 236 0
 104 0018 5860     		str	r0, [r3, #4]
 105              		.loc 1 239 0
 106 001a 7047     		bx	lr
 107              	.L8:
 108              		.align	2
 109              	.L7:
 110 001c 00000000 		.word	.LANCHOR0
 111              		.cfi_endproc
 112              	.LFE218:
 113              		.size	chSchReadyI, .-chSchReadyI
 114              		.section	.text.wakeup,"ax",%progbits
ARM GAS  /tmp/ccxxfSAv.s 			page 3


 115              		.align	1
 116              		.syntax unified
 117              		.thumb
 118              		.thumb_func
 119              		.fpu fpv4-sp-d16
 120              		.type	wakeup, %function
 121              	wakeup:
 122              	.LFB221:
 123              		.loc 1 319 0
 124              		.cfi_startproc
 125              		@ args = 0, pretend = 0, frame = 0
 126              		@ frame_needed = 0, uses_anonymous_args = 0
 127              	.LVL6:
 128 0000 08B5     		push	{r3, lr}
 129              		.cfi_def_cfa_offset 8
 130              		.cfi_offset 3, -8
 131              		.cfi_offset 14, -4
 132              	.LBB76:
 133              	.LBB77:
 134              	.LBB78:
 135              	.LBB79:
 136              	.LBB80:
 137              		.file 3 "../../modules/ChibiOS/os/common/ext/ARM/CMSIS/Core/Include/cmsis_gcc.h"
 138              		.loc 3 493 0
 139 0002 2023     		movs	r3, #32
 140              		.syntax unified
 141              	@ 493 "../../modules/ChibiOS/os/common/ext/ARM/CMSIS/Core/Include/cmsis_gcc.h" 1
 142 0004 83F31188 		MSR basepri, r3
 143              	@ 0 "" 2
 144              	.LVL7:
 145              		.thumb
 146              		.syntax unified
 147              	.LBE80:
 148              	.LBE79:
 149              	.LBE78:
 150              	.LBE77:
 151              	.LBE76:
 152              		.loc 1 323 0
 153 0008 037C     		ldrb	r3, [r0, #16]	@ zero_extendqisi2
 154 000a 032B     		cmp	r3, #3
 155 000c 05D0     		beq	.L11
 156 000e 042B     		cmp	r3, #4
 157 0010 0DD0     		beq	.L12
 158 0012 2BB9     		cbnz	r3, .L10
 159              	.LVL8:
 160              	.L15:
 161              	.LBB81:
 162              	.LBB82:
 163              	.LBB83:
 164              	.LBB84:
 165              	.LBB85:
 166              		.loc 3 493 0
 167              		.syntax unified
 168              	@ 493 "../../modules/ChibiOS/os/common/ext/ARM/CMSIS/Core/Include/cmsis_gcc.h" 1
 169 0014 83F31188 		MSR basepri, r3
 170              	@ 0 "" 2
 171              		.thumb
ARM GAS  /tmp/ccxxfSAv.s 			page 4


 172              		.syntax unified
 173 0018 08BD     		pop	{r3, pc}
 174              	.LVL9:
 175              	.L11:
 176              	.LBE85:
 177              	.LBE84:
 178              	.LBE83:
 179              	.LBE82:
 180              	.LBE81:
 181              		.loc 1 330 0
 182 001a 4369     		ldr	r3, [r0, #20]
 183 001c 0022     		movs	r2, #0
 184 001e 1A60     		str	r2, [r3]
 185              	.L10:
 186              		.loc 1 349 0
 187 0020 4FF0FF33 		mov	r3, #-1
 188 0024 4361     		str	r3, [r0, #20]
 189              		.loc 1 350 0
 190 0026 FFF7FEFF 		bl	chSchReadyI
 191              	.LVL10:
 192              	.LBB90:
 193              	.LBB89:
 194              	.LBB88:
 195              	.LBB87:
 196              	.LBB86:
 197              		.loc 3 493 0
 198 002a 0023     		movs	r3, #0
 199 002c F2E7     		b	.L15
 200              	.LVL11:
 201              	.L12:
 202              	.LBE86:
 203              	.LBE87:
 204              	.LBE88:
 205              	.LBE89:
 206              	.LBE90:
 207              	.LBB91:
 208              	.LBB92:
 209              		.loc 2 626 0
 210 002e 90E80C00 		ldm	r0, {r2, r3}
 211 0032 1A60     		str	r2, [r3]
 212              		.loc 2 627 0
 213 0034 0268     		ldr	r2, [r0]
 214 0036 5360     		str	r3, [r2, #4]
 215 0038 F2E7     		b	.L10
 216              	.LBE92:
 217              	.LBE91:
 218              		.cfi_endproc
 219              	.LFE221:
 220              		.size	wakeup, .-wakeup
 221              		.section	.text.chSchReadyAheadI,"ax",%progbits
 222              		.align	1
 223              		.global	chSchReadyAheadI
 224              		.syntax unified
 225              		.thumb
 226              		.thumb_func
 227              		.fpu fpv4-sp-d16
 228              		.type	chSchReadyAheadI, %function
ARM GAS  /tmp/ccxxfSAv.s 			page 5


 229              	chSchReadyAheadI:
 230              	.LFB219:
 231              		.loc 1 257 0
 232              		.cfi_startproc
 233              		@ args = 0, pretend = 0, frame = 0
 234              		@ frame_needed = 0, uses_anonymous_args = 0
 235              		@ link register save eliminated.
 236              	.LVL12:
 237              		.loc 1 266 0
 238 0000 0023     		movs	r3, #0
 239 0002 0374     		strb	r3, [r0, #16]
 240              	.LVL13:
 241              		.loc 1 270 0
 242 0004 8268     		ldr	r2, [r0, #8]
 243              		.loc 1 267 0
 244 0006 054B     		ldr	r3, .L19
 245              	.LVL14:
 246              	.L17:
 247              		.loc 1 269 0 discriminator 1
 248 0008 1B68     		ldr	r3, [r3]
 249              	.LVL15:
 250              		.loc 1 270 0 discriminator 1
 251 000a 9968     		ldr	r1, [r3, #8]
 252 000c 9142     		cmp	r1, r2
 253 000e FBD8     		bhi	.L17
 254              		.loc 1 273 0
 255 0010 5A68     		ldr	r2, [r3, #4]
 256              		.loc 1 272 0
 257 0012 0360     		str	r3, [r0]
 258              		.loc 1 273 0
 259 0014 4260     		str	r2, [r0, #4]
 260              		.loc 1 274 0
 261 0016 1060     		str	r0, [r2]
 262              		.loc 1 275 0
 263 0018 5860     		str	r0, [r3, #4]
 264              		.loc 1 278 0
 265 001a 7047     		bx	lr
 266              	.L20:
 267              		.align	2
 268              	.L19:
 269 001c 00000000 		.word	.LANCHOR0
 270              		.cfi_endproc
 271              	.LFE219:
 272              		.size	chSchReadyAheadI, .-chSchReadyAheadI
 273              		.section	.text.chSchGoSleepS,"ax",%progbits
 274              		.align	1
 275              		.global	chSchGoSleepS
 276              		.syntax unified
 277              		.thumb
 278              		.thumb_func
 279              		.fpu fpv4-sp-d16
 280              		.type	chSchGoSleepS, %function
 281              	chSchGoSleepS:
 282              	.LFB220:
 283              		.loc 1 289 0
 284              		.cfi_startproc
 285              		@ args = 0, pretend = 0, frame = 0
ARM GAS  /tmp/ccxxfSAv.s 			page 6


 286              		@ frame_needed = 0, uses_anonymous_args = 0
 287              		@ link register save eliminated.
 288              	.LVL16:
 289              		.loc 1 290 0
 290 0000 054B     		ldr	r3, .L22
 291 0002 1969     		ldr	r1, [r3, #16]
 292              	.LVL17:
 293              		.loc 1 295 0
 294 0004 0874     		strb	r0, [r1, #16]
 295              	.LVL18:
 296              	.LBB93:
 297              	.LBB94:
 298              		.loc 2 607 0
 299 0006 1868     		ldr	r0, [r3]
 300              	.LVL19:
 301              		.loc 2 609 0
 302 0008 0268     		ldr	r2, [r0]
 303 000a 1A60     		str	r2, [r3]
 304              		.loc 2 610 0
 305 000c 5360     		str	r3, [r2, #4]
 306              	.LVL20:
 307              	.LBE94:
 308              	.LBE93:
 309              		.loc 1 304 0
 310 000e 1861     		str	r0, [r3, #16]
 311              		.loc 1 305 0
 312 0010 0123     		movs	r3, #1
 313 0012 0374     		strb	r3, [r0, #16]
 314              		.loc 1 313 0
 315 0014 FFF7FEBF 		b	_port_switch
 316              	.LVL21:
 317              	.L23:
 318              		.align	2
 319              	.L22:
 320 0018 00000000 		.word	.LANCHOR0
 321              		.cfi_endproc
 322              	.LFE220:
 323              		.size	chSchGoSleepS, .-chSchGoSleepS
 324              		.section	.text.chSchGoSleepTimeoutS,"ax",%progbits
 325              		.align	1
 326              		.global	chSchGoSleepTimeoutS
 327              		.syntax unified
 328              		.thumb
 329              		.thumb_func
 330              		.fpu fpv4-sp-d16
 331              		.type	chSchGoSleepTimeoutS, %function
 332              	chSchGoSleepTimeoutS:
 333              	.LFB222:
 334              		.loc 1 375 0
 335              		.cfi_startproc
 336              		@ args = 0, pretend = 0, frame = 24
 337              		@ frame_needed = 0, uses_anonymous_args = 0
 338              	.LVL22:
 339 0000 30B5     		push	{r4, r5, lr}
 340              		.cfi_def_cfa_offset 12
 341              		.cfi_offset 4, -12
 342              		.cfi_offset 5, -8
ARM GAS  /tmp/ccxxfSAv.s 			page 7


 343              		.cfi_offset 14, -4
 344              		.loc 1 379 0
 345 0002 4B1C     		adds	r3, r1, #1
 346              		.loc 1 375 0
 347 0004 87B0     		sub	sp, sp, #28
 348              		.cfi_def_cfa_offset 40
 349              		.loc 1 375 0
 350 0006 0546     		mov	r5, r0
 351 0008 0A4C     		ldr	r4, .L31
 352              		.loc 1 379 0
 353 000a 10D0     		beq	.L25
 354              	.LBB95:
 355              		.loc 1 382 0
 356 000c 2369     		ldr	r3, [r4, #16]
 357 000e 0A4A     		ldr	r2, .L31+4
 358 0010 01A8     		add	r0, sp, #4
 359              	.LVL23:
 360 0012 FFF7FEFF 		bl	chVTDoSetI
 361              	.LVL24:
 362              		.loc 1 383 0
 363 0016 2846     		mov	r0, r5
 364 0018 FFF7FEFF 		bl	chSchGoSleepS
 365              	.LVL25:
 366              		.loc 1 384 0
 367 001c 049B     		ldr	r3, [sp, #16]
 368 001e 13B1     		cbz	r3, .L27
 369              		.loc 1 385 0
 370 0020 01A8     		add	r0, sp, #4
 371              	.LVL26:
 372 0022 FFF7FEFF 		bl	chVTDoResetI
 373              	.LVL27:
 374              	.L27:
 375              	.LBE95:
 376              		.loc 1 392 0
 377 0026 2369     		ldr	r3, [r4, #16]
 378              		.loc 1 393 0
 379 0028 5869     		ldr	r0, [r3, #20]
 380 002a 07B0     		add	sp, sp, #28
 381              		.cfi_remember_state
 382              		.cfi_def_cfa_offset 12
 383              		@ sp needed
 384 002c 30BD     		pop	{r4, r5, pc}
 385              	.LVL28:
 386              	.L25:
 387              		.cfi_restore_state
 388              		.loc 1 389 0
 389 002e FFF7FEFF 		bl	chSchGoSleepS
 390              	.LVL29:
 391 0032 F8E7     		b	.L27
 392              	.L32:
 393              		.align	2
 394              	.L31:
 395 0034 00000000 		.word	.LANCHOR0
 396 0038 00000000 		.word	wakeup
 397              		.cfi_endproc
 398              	.LFE222:
 399              		.size	chSchGoSleepTimeoutS, .-chSchGoSleepTimeoutS
ARM GAS  /tmp/ccxxfSAv.s 			page 8


 400              		.section	.text.chSchWakeupS,"ax",%progbits
 401              		.align	1
 402              		.global	chSchWakeupS
 403              		.syntax unified
 404              		.thumb
 405              		.thumb_func
 406              		.fpu fpv4-sp-d16
 407              		.type	chSchWakeupS, %function
 408              	chSchWakeupS:
 409              	.LFB223:
 410              		.loc 1 412 0
 411              		.cfi_startproc
 412              		@ args = 0, pretend = 0, frame = 0
 413              		@ frame_needed = 0, uses_anonymous_args = 0
 414              	.LVL30:
 415 0000 38B5     		push	{r3, r4, r5, lr}
 416              		.cfi_def_cfa_offset 16
 417              		.cfi_offset 3, -16
 418              		.cfi_offset 4, -12
 419              		.cfi_offset 5, -8
 420              		.cfi_offset 14, -4
 421              		.loc 1 413 0
 422 0002 0C4D     		ldr	r5, .L35
 423              		.loc 1 423 0
 424 0004 4161     		str	r1, [r0, #20]
 425              		.loc 1 413 0
 426 0006 2B69     		ldr	r3, [r5, #16]
 427              	.LVL31:
 428              		.loc 1 429 0
 429 0008 8168     		ldr	r1, [r0, #8]
 430              	.LVL32:
 431 000a 9A68     		ldr	r2, [r3, #8]
 432 000c 9142     		cmp	r1, r2
 433              		.loc 1 412 0
 434 000e 0446     		mov	r4, r0
 435              		.loc 1 429 0
 436 0010 03D8     		bhi	.L34
 437              		.loc 1 447 0
 438 0012 BDE83840 		pop	{r3, r4, r5, lr}
 439              		.cfi_remember_state
 440              		.cfi_restore 14
 441              		.cfi_restore 5
 442              		.cfi_restore 4
 443              		.cfi_restore 3
 444              		.cfi_def_cfa_offset 0
 445              	.LVL33:
 446              		.loc 1 430 0
 447 0016 FFF7FEBF 		b	chSchReadyI
 448              	.LVL34:
 449              	.L34:
 450              		.cfi_restore_state
 451              		.loc 1 433 0
 452 001a 1846     		mov	r0, r3
 453              	.LVL35:
 454 001c FFF7FEFF 		bl	chSchReadyI
 455              	.LVL36:
 456              		.loc 1 442 0
ARM GAS  /tmp/ccxxfSAv.s 			page 9


 457 0020 0123     		movs	r3, #1
 458              		.loc 1 441 0
 459 0022 2C61     		str	r4, [r5, #16]
 460              		.loc 1 445 0
 461 0024 0146     		mov	r1, r0
 462              		.loc 1 442 0
 463 0026 2374     		strb	r3, [r4, #16]
 464              		.loc 1 445 0
 465 0028 2046     		mov	r0, r4
 466              	.LVL37:
 467              		.loc 1 447 0
 468 002a BDE83840 		pop	{r3, r4, r5, lr}
 469              		.cfi_restore 14
 470              		.cfi_restore 5
 471              		.cfi_restore 4
 472              		.cfi_restore 3
 473              		.cfi_def_cfa_offset 0
 474              	.LVL38:
 475              		.loc 1 445 0
 476 002e FFF7FEBF 		b	_port_switch
 477              	.LVL39:
 478              	.L36:
 479 0032 00BF     		.align	2
 480              	.L35:
 481 0034 00000000 		.word	.LANCHOR0
 482              		.cfi_endproc
 483              	.LFE223:
 484              		.size	chSchWakeupS, .-chSchWakeupS
 485              		.section	.text.chSchIsPreemptionRequired,"ax",%progbits
 486              		.align	1
 487              		.global	chSchIsPreemptionRequired
 488              		.syntax unified
 489              		.thumb
 490              		.thumb_func
 491              		.fpu fpv4-sp-d16
 492              		.type	chSchIsPreemptionRequired, %function
 493              	chSchIsPreemptionRequired:
 494              	.LFB225:
 495              		.loc 1 479 0
 496              		.cfi_startproc
 497              		@ args = 0, pretend = 0, frame = 0
 498              		@ frame_needed = 0, uses_anonymous_args = 0
 499              		@ link register save eliminated.
 500              	.LVL40:
 501              		.loc 1 480 0
 502 0000 044B     		ldr	r3, .L38
 503 0002 1A68     		ldr	r2, [r3]
 504              		.loc 1 481 0
 505 0004 1B69     		ldr	r3, [r3, #16]
 506              		.loc 1 492 0
 507 0006 9068     		ldr	r0, [r2, #8]
 508 0008 9B68     		ldr	r3, [r3, #8]
 509              		.loc 1 494 0
 510 000a 9842     		cmp	r0, r3
 511 000c 94BF     		ite	ls
 512 000e 0020     		movls	r0, #0
 513 0010 0120     		movhi	r0, #1
ARM GAS  /tmp/ccxxfSAv.s 			page 10


 514 0012 7047     		bx	lr
 515              	.L39:
 516              		.align	2
 517              	.L38:
 518 0014 00000000 		.word	.LANCHOR0
 519              		.cfi_endproc
 520              	.LFE225:
 521              		.size	chSchIsPreemptionRequired, .-chSchIsPreemptionRequired
 522              		.thumb_set chSchIsRescRequiredI,chSchIsPreemptionRequired
 523              		.section	.text.chSchDoRescheduleBehind,"ax",%progbits
 524              		.align	1
 525              		.global	chSchDoRescheduleBehind
 526              		.syntax unified
 527              		.thumb
 528              		.thumb_func
 529              		.fpu fpv4-sp-d16
 530              		.type	chSchDoRescheduleBehind, %function
 531              	chSchDoRescheduleBehind:
 532              	.LFB226:
 533              		.loc 1 507 0
 534              		.cfi_startproc
 535              		@ args = 0, pretend = 0, frame = 0
 536              		@ frame_needed = 0, uses_anonymous_args = 0
 537 0000 10B5     		push	{r4, lr}
 538              		.cfi_def_cfa_offset 8
 539              		.cfi_offset 4, -8
 540              		.cfi_offset 14, -4
 541              		.loc 1 508 0
 542 0002 084C     		ldr	r4, .L41
 543              	.LBB96:
 544              	.LBB97:
 545              		.loc 2 607 0
 546 0004 2368     		ldr	r3, [r4]
 547              	.LBE97:
 548              	.LBE96:
 549              		.loc 1 508 0
 550 0006 2069     		ldr	r0, [r4, #16]
 551              	.LVL41:
 552              	.LBB99:
 553              	.LBB98:
 554              		.loc 2 609 0
 555 0008 1A68     		ldr	r2, [r3]
 556 000a 2260     		str	r2, [r4]
 557              		.loc 2 610 0
 558 000c 5460     		str	r4, [r2, #4]
 559              	.LVL42:
 560              	.LBE98:
 561              	.LBE99:
 562              		.loc 1 512 0
 563 000e 0122     		movs	r2, #1
 564              		.loc 1 511 0
 565 0010 2361     		str	r3, [r4, #16]
 566              		.loc 1 512 0
 567 0012 1A74     		strb	r2, [r3, #16]
 568              		.loc 1 525 0
 569 0014 FFF7FEFF 		bl	chSchReadyI
 570              	.LVL43:
ARM GAS  /tmp/ccxxfSAv.s 			page 11


 571              		.loc 1 528 0
 572 0018 0146     		mov	r1, r0
 573 001a 2069     		ldr	r0, [r4, #16]
 574              	.LVL44:
 575              		.loc 1 529 0
 576 001c BDE81040 		pop	{r4, lr}
 577              		.cfi_restore 14
 578              		.cfi_restore 4
 579              		.cfi_def_cfa_offset 0
 580              		.loc 1 528 0
 581 0020 FFF7FEBF 		b	_port_switch
 582              	.LVL45:
 583              	.L42:
 584              		.align	2
 585              	.L41:
 586 0024 00000000 		.word	.LANCHOR0
 587              		.cfi_endproc
 588              	.LFE226:
 589              		.size	chSchDoRescheduleBehind, .-chSchDoRescheduleBehind
 590              		.section	.text.chSchDoReschedule,"ax",%progbits
 591              		.align	1
 592              		.global	chSchDoReschedule
 593              		.syntax unified
 594              		.thumb
 595              		.thumb_func
 596              		.fpu fpv4-sp-d16
 597              		.type	chSchDoReschedule, %function
 598              	chSchDoReschedule:
 599              	.LFB228:
 600              		.loc 1 570 0
 601              		.cfi_startproc
 602              		@ args = 0, pretend = 0, frame = 0
 603              		@ frame_needed = 0, uses_anonymous_args = 0
 604 0000 10B5     		push	{r4, lr}
 605              		.cfi_def_cfa_offset 8
 606              		.cfi_offset 4, -8
 607              		.cfi_offset 14, -4
 608              		.loc 1 571 0
 609 0002 084C     		ldr	r4, .L44
 610              	.LBB100:
 611              	.LBB101:
 612              		.loc 2 607 0
 613 0004 2368     		ldr	r3, [r4]
 614              	.LBE101:
 615              	.LBE100:
 616              		.loc 1 571 0
 617 0006 2069     		ldr	r0, [r4, #16]
 618              	.LVL46:
 619              	.LBB103:
 620              	.LBB102:
 621              		.loc 2 609 0
 622 0008 1A68     		ldr	r2, [r3]
 623 000a 2260     		str	r2, [r4]
 624              		.loc 2 610 0
 625 000c 5460     		str	r4, [r2, #4]
 626              	.LVL47:
 627              	.LBE102:
ARM GAS  /tmp/ccxxfSAv.s 			page 12


 628              	.LBE103:
 629              		.loc 1 575 0
 630 000e 0122     		movs	r2, #1
 631              		.loc 1 574 0
 632 0010 2361     		str	r3, [r4, #16]
 633              		.loc 1 575 0
 634 0012 1A74     		strb	r2, [r3, #16]
 635              		.loc 1 602 0
 636 0014 FFF7FEFF 		bl	chSchReadyAheadI
 637              	.LVL48:
 638              		.loc 1 606 0
 639 0018 0146     		mov	r1, r0
 640 001a 2069     		ldr	r0, [r4, #16]
 641              	.LVL49:
 642              		.loc 1 607 0
 643 001c BDE81040 		pop	{r4, lr}
 644              		.cfi_restore 14
 645              		.cfi_restore 4
 646              		.cfi_def_cfa_offset 0
 647              		.loc 1 606 0
 648 0020 FFF7FEBF 		b	_port_switch
 649              	.LVL50:
 650              	.L45:
 651              		.align	2
 652              	.L44:
 653 0024 00000000 		.word	.LANCHOR0
 654              		.cfi_endproc
 655              	.LFE228:
 656              		.size	chSchDoReschedule, .-chSchDoReschedule
 657              		.section	.text.chSchRescheduleS,"ax",%progbits
 658              		.align	1
 659              		.global	chSchRescheduleS
 660              		.syntax unified
 661              		.thumb
 662              		.thumb_func
 663              		.fpu fpv4-sp-d16
 664              		.type	chSchRescheduleS, %function
 665              	chSchRescheduleS:
 666              	.LFB224:
 667              		.loc 1 456 0
 668              		.cfi_startproc
 669              		@ args = 0, pretend = 0, frame = 0
 670              		@ frame_needed = 0, uses_anonymous_args = 0
 671 0000 08B5     		push	{r3, lr}
 672              		.cfi_def_cfa_offset 8
 673              		.cfi_offset 3, -8
 674              		.cfi_offset 14, -4
 675              		.loc 1 460 0
 676 0002 FFF7FEFF 		bl	chSchIsRescRequiredI
 677              	.LVL51:
 678 0006 18B1     		cbz	r0, .L46
 679              		.loc 1 463 0
 680 0008 BDE80840 		pop	{r3, lr}
 681              		.cfi_remember_state
 682              		.cfi_restore 14
 683              		.cfi_restore 3
 684              		.cfi_def_cfa_offset 0
ARM GAS  /tmp/ccxxfSAv.s 			page 13


 685              		.loc 1 461 0
 686 000c FFF7FEBF 		b	chSchDoReschedule
 687              	.LVL52:
 688              	.L46:
 689              		.cfi_restore_state
 690 0010 08BD     		pop	{r3, pc}
 691              		.cfi_endproc
 692              	.LFE224:
 693              		.size	chSchRescheduleS, .-chSchRescheduleS
 694              		.section	.text.chSchDoRescheduleAhead,"ax",%progbits
 695              		.align	1
 696              		.global	chSchDoRescheduleAhead
 697              		.syntax unified
 698              		.thumb
 699              		.thumb_func
 700              		.fpu fpv4-sp-d16
 701              		.type	chSchDoRescheduleAhead, %function
 702              	chSchDoRescheduleAhead:
 703              	.LFB231:
 704              		.cfi_startproc
 705              		@ args = 0, pretend = 0, frame = 0
 706              		@ frame_needed = 0, uses_anonymous_args = 0
 707              		@ link register save eliminated.
 708 0000 FFF7FEBF 		b	chSchDoReschedule
 709              		.cfi_endproc
 710              	.LFE231:
 711              		.size	chSchDoRescheduleAhead, .-chSchDoRescheduleAhead
 712              		.global	ch
 713              		.section	.bss.ch,"aw",%nobits
 714              		.align	2
 715              		.set	.LANCHOR0,. + 0
 716              		.type	ch, %object
 717              		.size	ch, 64
 718              	ch:
 719 0000 00000000 		.space	64
 719      00000000 
 719      00000000 
 719      00000000 
 719      00000000 
 720              		.text
 721              	.Letext0:
 722              		.file 4 "/opt/gcc-arm-none-eabi-6-2017-q2-update/arm-none-eabi/include/machine/_default_types.h"
 723              		.file 5 "/opt/gcc-arm-none-eabi-6-2017-q2-update/arm-none-eabi/include/sys/_stdint.h"
 724              		.file 6 "../../modules/ChibiOS/os/common/ports/ARMCMx/compilers/GCC/chtypes.h"
 725              		.file 7 "../../modules/ChibiOS/os/rt/include/chsystypes.h"
 726              		.file 8 "../../modules/ChibiOS/os/rt/include/chtime.h"
 727              		.file 9 "../../modules/ChibiOS/os/common/ext/ARM/CMSIS/Core/Include/core_cm4.h"
 728              		.file 10 "../../modules/ChibiOS/os/common/ext/ST/STM32F4xx/system_stm32f4xx.h"
 729              		.file 11 "../../modules/ChibiOS/os/common/ports/ARMCMx/chcore.h"
 730              		.file 12 "../../modules/ChibiOS/os/common/ports/ARMCMx/chcore_v7m.h"
 731              		.file 13 "../../modules/ChibiOS/os/rt/include/chsys.h"
 732              		.file 14 "../../modules/ChibiOS/os/rt/include/chvt.h"