ARM GAS  /tmp/ccxxfSAv.s 			page 1


   1              		.cpu cortex-m4
   2              		.eabi_attribute 27, 1
   3              		.eabi_attribute 28, 1
   4              		.eabi_attribute 20, 1
   5              		.eabi_attribute 21, 1
   6              		.eabi_attribute 23, 3
   7              		.eabi_attribute 24, 1
   8              		.eabi_attribute 25, 1
   9              		.eabi_attribute 26, 1
  10              		.eabi_attribute 30, 4
  11              		.eabi_attribute 34, 1
  12              		.eabi_attribute 18, 4
  13              		.file	"chschd.c"
  14              		.text
  15              	.Ltext0:
  16              		.cfi_sections	.debug_frame
  17              		.section	.text._scheduler_init,"ax",%progbits
  18              		.align	1
  19              		.global	_scheduler_init
  20              		.syntax unified
  21              		.thumb
  22              		.thumb_func
  23              		.fpu fpv4-sp-d16
  24              		.type	_scheduler_init, %function
  25              	_scheduler_init:
  26              	.LFB217:
  27              		.file 1 "../../modules/ChibiOS/os/rt/src/chschd.c"
  28              		.loc 1 65 0
  29              		.cfi_startproc
  30              		@ args = 0, pretend = 0, frame = 0
  31              		@ frame_needed = 0, uses_anonymous_args = 0
  32              		@ link register save eliminated.
  33              	.LVL0:
  34              	.LBB55:
  35              	.LBB56:
  36              		.file 2 "../../modules/ChibiOS/os/rt/include/chschd.h"
  37              		.loc 2 539 0
  38 0000 024B     		ldr	r3, .L2
  39              	.LBE56:
  40              	.LBE55:
  41              		.loc 1 68 0
  42 0002 0022     		movs	r2, #0
  43              	.LBB58:
  44              	.LBB57:
  45              		.loc 2 539 0
  46 0004 1B60     		str	r3, [r3]
  47              		.loc 2 540 0
  48 0006 5B60     		str	r3, [r3, #4]
  49              	.LVL1:
  50              	.LBE57:
  51              	.LBE58:
  52              		.loc 1 68 0
  53 0008 9A60     		str	r2, [r3, #8]
  54 000a 7047     		bx	lr
  55              	.L3:
  56              		.align	2
  57              	.L2:
ARM GAS  /tmp/ccxxfSAv.s 			page 2


  58 000c 00000000 		.word	.LANCHOR0
  59              		.cfi_endproc
  60              	.LFE217:
  61              		.size	_scheduler_init, .-_scheduler_init
  62              		.section	.text.chSchReadyI,"ax",%progbits
  63              		.align	1
  64              		.global	chSchReadyI
  65              		.syntax unified
  66              		.thumb
  67              		.thumb_func
  68              		.fpu fpv4-sp-d16
  69              		.type	chSchReadyI, %function
  70              	chSchReadyI:
  71              	.LFB218:
  72              		.loc 1 218 0
  73              		.cfi_startproc
  74              		@ args = 0, pretend = 0, frame = 0
  75              		@ frame_needed = 0, uses_anonymous_args = 0
  76              		@ link register save eliminated.
  77              	.LVL2:
  78              		.loc 1 227 0
  79 0000 0023     		movs	r3, #0
  80 0002 0374     		strb	r3, [r0, #16]
  81              	.LVL3:
  82              		.loc 1 231 0
  83 0004 8268     		ldr	r2, [r0, #8]
  84              		.loc 1 228 0
  85 0006 054B     		ldr	r3, .L7
  86              	.LVL4:
  87              	.L5:
  88              		.loc 1 230 0 discriminator 1
  89 0008 1B68     		ldr	r3, [r3]
  90              	.LVL5:
  91              		.loc 1 231 0 discriminator 1
  92 000a 9968     		ldr	r1, [r3, #8]
  93 000c 9142     		cmp	r1, r2
  94 000e FBD2     		bcs	.L5
  95              		.loc 1 234 0
  96 0010 5A68     		ldr	r2, [r3, #4]
  97              		.loc 1 233 0
  98 0012 0360     		str	r3, [r0]
  99              		.loc 1 234 0
 100 0014 4260     		str	r2, [r0, #4]
 101              		.loc 1 235 0
 102 0016 1060     		str	r0, [r2]
 103              		.loc 1 236 0
 104 0018 5860     		str	r0, [r3, #4]
 105              		.loc 1 239 0
 106 001a 7047     		bx	lr
 107              	.L8:
 108              		.align	2
 109              	.L7:
 110 001c 00000000 		.word	.LANCHOR0
 111              		.cfi_endproc
 112              	.LFE218:
 113              		.size	chSchReadyI, .-chSchReadyI
 114              		.section	.text.wakeup,"ax",%progbits
ARM GAS  /tmp/ccxxfSAv.s 			page 3


 115              		.align	1
 116              		.syntax unified
 117              		.thumb
 118              		.thumb_func
 119              		.fpu fpv4-sp-d16
 120              		.type	wakeup, %function
 121              	wakeup:
 122              	.LFB221:
 123              		.loc 1 319 0
 124              		.cfi_startproc
 125              		@ args = 0, pretend = 0, frame = 0
 126              		@ frame_needed = 0, uses_anonymous_args = 0
 127              	.LVL6:
 128 0000 08B5     		push	{r3, lr}
 129              		.cfi_def_cfa_offset 8
 130              		.cfi_offset 3, -8
 131              		.cfi_offset 14, -4
 132              	.LBB76:
 133              	.LBB77:
 134              	.LBB78:
 135              	.LBB79:
 136              	.LBB80:
 137              		.file 3 "../../modules/ChibiOS/os/common/ext/ARM/CMSIS/Core/Include/cmsis_gcc.h"
 138              		.loc 3 493 0
 139 0002 2023     		movs	r3, #32
 140              		.syntax unified
 141              	@ 493 "../../modules/ChibiOS/os/common/ext/ARM/CMSIS/Core/Include/cmsis_gcc.h" 1
 142 0004 83F31188 		MSR basepri, r3
 143              	@ 0 "" 2
 144              	.LVL7:
 145              		.thumb
 146              		.syntax unified
 147              	.LBE80:
 148              	.LBE79:
 149              	.LBE78:
 150              	.LBE77:
 151              	.LBE76:
 152              		.loc 1 323 0
 153 0008 037C     		ldrb	r3, [r0, #16]	@ zero_extendqisi2
 154 000a 032B     		cmp	r3, #3
 155 000c 05D0     		beq	.L11
 156 000e 042B     		cmp	r3, #4
 157 0010 0DD0     		beq	.L12
 158 0012 2BB9     		cbnz	r3, .L10
 159              	.LVL8:
 160              	.L15:
 161              	.LBB81:
 162              	.LBB82:
 163              	.LBB83:
 164              	.LBB84:
 165              	.LBB85:
 166              		.loc 3 493 0
 167              		.syntax unified
 168              	@ 493 "../../modules/ChibiOS/os/common/ext/ARM/CMSIS/Core/Include/cmsis_gcc.h" 1
 169 0014 83F31188 		MSR basepri, r3
 170              	@ 0 "" 2
 171              		.thumb
ARM GAS  /tmp/ccxxfSAv.s 			page 4


 172              		.syntax unified
 173 0018 08BD     		pop	{r3, pc}
 174              	.LVL9:
 175              	.L11:
 176              	.LBE85:
 177              	.LBE84:
 178              	.LBE83:
 179              	.LBE82:
 180              	.LBE81:
 181              		.loc 1 330 0
 182 001a 4369     		ldr	r3, [r0, #20]
 183 001c 0022     		movs	r2, #0
 184 001e 1A60     		str	r2, [r3]
 185              	.L10:
 186              		.loc 1 349 0
 187 0020 4FF0FF33 		mov	r3, #-1
 188 0024 4361     		str	r3, [r0, #20]
 189              		.loc 1 350 0
 190 0026 FFF7FEFF 		bl	chSchReadyI
 191              	.LVL10:
 192              	.LBB90:
 193              	.LBB89:
 194              	.LBB88:
 195              	.LBB87:
 196              	.LBB86:
 197              		.loc 3 493 0
 198 002a 0023     		movs	r3, #0
 199 002c F2E7     		b	.L15
 200              	.LVL11:
 201              	.L12:
 202              	.LBE86:
 203              	.LBE87:
 204              	.LBE88:
 205              	.LBE89:
 206              	.LBE90:
 207              	.LBB91:
 208              	.LBB92:
 209              		.loc 2 626 0
 210 002e 90E80C00 		ldm	r0, {r2, r3}
 211 0032 1A60     		str	r2, [r3]
 212              		.loc 2 627 0
 213 0034 0268     		ldr	r2, [r0]
 214 0036 5360     		str	r3, [r2, #4]
 215 0038 F2E7     		b	.L10
 216              	.LBE92:
 217              	.LBE91:
 218              		.cfi_endproc
 219              	.LFE221:
 220              		.size	wakeup, .-wakeup
 221              		.section	.text.chSchReadyAheadI,"ax",%progbits
 222              		.align	1
 223              		.global	chSchReadyAheadI
 224              		.syntax unified
 225              		.thumb
 226              		.thumb_func
 227              		.fpu fpv4-sp-d16
 228              		.type	chSchReadyAheadI, %function
ARM GAS  /tmp/ccxxfSAv.s 			page 5


 229              	chSchReadyAheadI:
 230              	.LFB219:
 231              		.loc 1 257 0
 232              		.cfi_startproc
 233              		@ args = 0, pretend = 0, frame = 0
 234              		@ frame_needed = 0, uses_anonymous_args = 0
 235              		@ link register save eliminated.
 236              	.LVL12:
 237              		.loc 1 266 0
 238 0000 0023     		movs	r3, #0
 239 0002 0374     		strb	r3, [r0, #16]
 240              	.LVL13:
 241              		.loc 1 270 0
 242 0004 8268     		ldr	r2, [r0, #8]
 243              		.loc 1 267 0
 244 0006 054B     		ldr	r3, .L19
 245              	.LVL14:
 246              	.L17:
 247              		.loc 1 269 0 discriminator 1
 248 0008 1B68     		ldr	r3, [r3]
 249              	.LVL15:
 250              		.loc 1 270 0 discriminator 1
 251 000a 9968     		ldr	r1, [r3, #8]
 252 000c 9142     		cmp	r1, r2
 253 000e FBD8     		bhi	.L17
 254              		.loc 1 273 0
 255 0010 5A68     		ldr	r2, [r3, #4]
 256              		.loc 1 272 0
 257 0012 0360     		str	r3, [r0]
 258              		.loc 1 273 0
 259 0014 4260     		str	r2, [r0, #4]
 260              		.loc 1 274 0
 261 0016 1060     		str	r0, [r2]
 262              		.loc 1 275 0
 263 0018 5860     		str	r0, [r3, #4]
 264              		.loc 1 278 0
 265 001a 7047     		bx	lr
 266              	.L20:
 267              		.align	2
 268              	.L19:
 269 001c 00000000 		.word	.LANCHOR0
 270              		.cfi_endproc
 271              	.LFE219:
 272              		.size	chSchReadyAheadI, .-chSchReadyAheadI
 273              		.section	.text.chSchGoSleepS,"ax",%progbits
 274              		.align	1
 275              		.global	chSchGoSleepS
 276              		.syntax unified
 277              		.thumb
 278              		.thumb_func
 279              		.fpu fpv4-sp-d16
 280              		.type	chSchGoSleepS, %function
 281              	chSchGoSleepS:
 282              	.LFB220:
 283              		.loc 1 289 0
 284              		.cfi_startproc
 285              		@ args = 0, pretend = 0, frame = 0
ARM GAS  /tmp/ccxxfSAv.s 			page 6


 286              		@ frame_needed = 0, uses_anonymous_args = 0
 287              		@ link register save eliminated.
 288              	.LVL16:
 289              		.loc 1 290 0
 290 0000 054B     		ldr	r3, .L22
 291 0002 1969     		ldr	r1, [r3, #16]
 292              	.LVL17:
 293              		.loc 1 295 0
 294 0004 0874     		strb	r0, [r1, #16]
 295              	.LVL18:
 296              	.LBB93:
 297              	.LBB94:
 298              		.loc 2 607 0
 299 0006 1868     		ldr	r0, [r3]
 300              	.LVL19:
 301              		.loc 2 609 0
 302 0008 0268     		ldr	r2, [r0]
 303 000a 1A60     		str	r2, [r3]
 304              		.loc 2 610 0
 305 000c 5360     		str	r3, [r2, #4]
 306              	.LVL20:
 307              	.LBE94:
 308              	.LBE93:
 309              		.loc 1 304 0
 310 000e 1861     		str	r0, [r3, #16]
 311              		.loc 1 305 0
 312 0010 0123     		movs	r3, #1
 313 0012 0374     		strb	r3, [r0, #16]
 314              		.loc 1 313 0
 315 0014 FFF7FEBF 		b	_port_switch
 316              	.LVL21:
 317              	.L23:
 318              		.align	2
 319              	.L22:
 320 0018 00000000 		.word	.LANCHOR0
 321              		.cfi_endproc
 322              	.LFE220:
 323              		.size	chSchGoSleepS, .-chSchGoSleepS
 324              		.section	.text.chSchGoSleepTimeoutS,"ax",%progbits
 325              		.align	1
 326              		.global	chSchGoSleepTimeoutS
 327              		.syntax unified
 328              		.thumb
 329              		.thumb_func
 330              		.fpu fpv4-sp-d16
 331              		.type	chSchGoSleepTimeoutS, %function
 332              	chSchGoSleepTimeoutS:
 333              	.LFB222:
 334              		.loc 1 375 0
 335              		.cfi_startproc
 336              		@ args = 0, pretend = 0, frame = 24
 337              		@ frame_needed = 0, uses_anonymous_args = 0
 338              	.LVL22:
 339 0000 30B5     		push	{r4, r5, lr}
 340              		.cfi_def_cfa_offset 12
 341              		.cfi_offset 4, -12
 342              		.cfi_offset 5, -8
ARM GAS  /tmp/ccxxfSAv.s 			page 7


 343              		.cfi_offset 14, -4
 344              		.loc 1 379 0
 345 0002 4B1C     		adds	r3, r1, #1
 346              		.loc 1 375 0
 347 0004 87B0     		sub	sp, sp, #28
 348              		.cfi_def_cfa_offset 40
 349              		.loc 1 375 0
 350 0006 0546     		mov	r5, r0
 351 0008 0A4C     		ldr	r4, .L31
 352              		.loc 1 379 0
 353 000a 10D0     		beq	.L25
 354              	.LBB95:
 355              		.loc 1 382 0
 356 000c 2369     		ldr	r3, [r4, #16]
 357 000e 0A4A     		ldr	r2, .L31+4
 358 0010 01A8     		add	r0, sp, #4
 359              	.LVL23:
 360 0012 FFF7FEFF 		bl	chVTDoSetI
 361              	.LVL24:
 362              		.loc 1 383 0
 363 0016 2846     		mov	r0, r5
 364 0018 FFF7FEFF 		bl	chSchGoSleepS
 365              	.LVL25:
 366              		.loc 1 384 0
 367 001c 049B     		ldr	r3, [sp, #16]
 368 001e 13B1     		cbz	r3, .L27
 369              		.loc 1 385 0
 370 0020 01A8     		add	r0, sp, #4
 371              	.LVL26:
 372 0022 FFF7FEFF 		bl	chVTDoResetI
 373              	.LVL27:
 374              	.L27:
 375              	.LBE95:
 376              		.loc 1 392 0
 377 0026 2369     		ldr	r3, [r4, #16]
 378              		.loc 1 393 0
 379 0028 5869     		ldr	r0, [r3, #20]
 380 002a 07B0     		add	sp, sp, #28
 381              		.cfi_remember_state
 382              		.cfi_def_cfa_offset 12
 383              		@ sp needed
 384 002c 30BD     		pop	{r4, r5, pc}
 385              	.LVL28:
 386              	.L25:
 387              		.cfi_restore_state
 388              		.loc 1 389 0
 389 002e FFF7FEFF 		bl	chSchGoSleepS
 390              	.LVL29:
 391 0032 F8E7     		b	.L27
 392              	.L32:
 393              		.align	2
 394              	.L31:
 395 0034 00000000 		.word	.LANCHOR0
 396 0038 00000000 		.word	wakeup
 397              		.cfi_endproc
 398              	.LFE222:
 399              		.size	chSchGoSleepTimeoutS, .-chSchGoSleepTimeoutS
ARM GAS  /tmp/ccxxfSAv.s 			page 8


 400              		.section	.text.chSchWakeupS,"ax",%progbits
 401              		.align	1
 402              		.global	chSchWakeupS
 403              		.syntax unified
 404              		.thumb
 405              		.thumb_func
 406              		.fpu fpv4-sp-d16
 407              		.type	chSchWakeupS, %function
 408              	chSchWakeupS:
 409              	.LFB223:
 410              		.loc 1 412 0
 411              		.cfi_startproc
 412              		@ args = 0, pretend = 0, frame = 0
 413              		@ frame_needed = 0, uses_anonymous_args = 0
 414              	.LVL30:
 415 0000 38B5     		push	{r3, r4, r5, lr}
 416              		.cfi_def_cfa_offset 16
 417              		.cfi_offset 3, -16
 418              		.cfi_offset 4, -12
 419              		.cfi_offset 5, -8
 420              		.cfi_offset 14, -4
 421              		.loc 1 413 0
 422 0002 0C4D     		ldr	r5, .L35
 423              		.loc 1 423 0
 424 0004 4161     		str	r1, [r0, #20]
 425              		.loc 1 413 0
 426 0006 2B69     		ldr	r3, [r5, #16]
 427              	.LVL31:
 428              		.loc 1 429 0
 429 0008 8168     		ldr	r1, [r0, #8]
 430              	.LVL32:
 431 000a 9A68     		ldr	r2, [r3, #8]
 432 000c 9142     		cmp	r1, r2
 433              		.loc 1 412 0
 434 000e 0446     		mov	r4, r0
 435              		.loc 1 429 0
 436 0010 03D8     		bhi	.L34
 437              		.loc 1 447 0
 438 0012 BDE83840 		pop	{r3, r4, r5, lr}
 439              		.cfi_remember_state
 440              		.cfi_restore 14
 441              		.cfi_restore 5
 442              		.cfi_restore 4
 443              		.cfi_restore 3
 444              		.cfi_def_cfa_offset 0
 445              	.LVL33:
 446              		.loc 1 430 0
 447 0016 FFF7FEBF 		b	chSchReadyI
 448              	.LVL34:
 449              	.L34:
 450              		.cfi_restore_state
 451              		.loc 1 433 0
 452 001a 1846     		mov	r0, r3
 453              	.LVL35:
 454 001c FFF7FEFF 		bl	chSchReadyI
 455              	.LVL36:
 456              		.loc 1 442 0
ARM GAS  /tmp/ccxxfSAv.s 			page 9


 457 0020 0123     		movs	r3, #1
 458              		.loc 1 441 0
 459 0022 2C61     		str	r4, [r5, #16]
 460              		.loc 1 445 0
 461 0024 0146     		mov	r1, r0
 462              		.loc 1 442 0
 463 0026 2374     		strb	r3, [r4, #16]
 464              		.loc 1 445 0
 465 0028 2046     		mov	r0, r4
 466              	.LVL37:
 467              		.loc 1 447 0
 468 002a BDE83840 		pop	{r3, r4, r5, lr}
 469              		.cfi_restore 14
 470              		.cfi_restore 5
 471              		.cfi_restore 4
 472              		.cfi_restore 3
 473              		.cfi_def_cfa_offset 0
 474              	.LVL38:
 475              		.loc 1 445 0
 476 002e FFF7FEBF 		b	_port_switch
 477              	.LVL39:
 478              	.L36:
 479 0032 00BF     		.align	2
 480              	.L35:
 481 0034 00000000 		.word	.LANCHOR0
 482              		.cfi_endproc
 483              	.LFE223:
 484              		.size	chSchWakeupS, .-chSchWakeupS
 485              		.section	.text.chSchIsPreemptionRequired,"ax",%progbits
 486              		.align	1
 487              		.global	chSchIsPreemptionRequired
 488              		.syntax unified
 489              		.thumb
 490              		.thumb_func
 491              		.fpu fpv4-sp-d16
 492              		.type	chSchIsPreemptionRequired, %function
 493              	chSchIsPreemptionRequired:
 494              	.LFB225:
 495              		.loc 1 479 0
 496              		.cfi_startproc
 497              		@ args = 0, pretend = 0, frame = 0
 498              		@ frame_needed = 0, uses_anonymous_args = 0
 499              		@ link register save eliminated.
 500              	.LVL40:
 501              		.loc 1 480 0
 502 0000 044B     		ldr	r3, .L38
 503 0002 1A68     		ldr	r2, [r3]
 504              		.loc 1 481 0
 505 0004 1B69     		ldr	r3, [r3, #16]
 506              		.loc 1 492 0
 507 0006 9068     		ldr	r0, [r2, #8]
 508 0008 9B68     		ldr	r3, [r3, #8]
 509              		.loc 1 494 0
 510 000a 9842     		cmp	r0, r3
 511 000c 94BF     		ite	ls
 512 000e 0020     		movls	r0, #0
 513 0010 0120     		movhi	r0, #1
ARM GAS  /tmp/ccxxfSAv.s 			page 10


 514 0012 7047     		bx	lr
 515              	.L39:
 516              		.align	2
 517              	.L38:
 518 0014 00000000 		.word	.LANCHOR0
 519              		.cfi_endproc
 520              	.LFE225:
 521              		.size	chSchIsPreemptionRequired, .-chSchIsPreemptionRequired
 522              		.thumb_set chSchIsRescRequiredI,chSchIsPreemptionRequired
 523              		.section	.text.chSchDoRescheduleBehind,"ax",%progbits
 524              		.align	1
 525              		.global	chSchDoRescheduleBehind
 526              		.syntax unified
 527              		.thumb
 528              		.thumb_func
 529              		.fpu fpv4-sp-d16
 530              		.type	chSchDoRescheduleBehind, %function
 531              	chSchDoRescheduleBehind:
 532              	.LFB226:
 533              		.loc 1 507 0
 534              		.cfi_startproc
 535              		@ args = 0, pretend = 0, frame = 0
 536              		@ frame_needed = 0, uses_anonymous_args = 0
 537 0000 10B5     		push	{r4, lr}
 538              		.cfi_def_cfa_offset 8
 539              		.cfi_offset 4, -8
 540              		.cfi_offset 14, -4
 541              		.loc 1 508 0
 542 0002 084C     		ldr	r4, .L41
 543              	.LBB96:
 544              	.LBB97:
 545              		.loc 2 607 0
 546 0004 2368     		ldr	r3, [r4]
 547              	.LBE97:
 548              	.LBE96:
 549              		.loc 1 508 0
 550 0006 2069     		ldr	r0, [r4, #16]
 551              	.LVL41:
 552              	.LBB99:
 553              	.LBB98:
 554              		.loc 2 609 0
 555 0008 1A68     		ldr	r2, [r3]
 556 000a 2260     		str	r2, [r4]
 557              		.loc 2 610 0
 558 000c 5460     		str	r4, [r2, #4]
 559              	.LVL42:
 560              	.LBE98:
 561              	.LBE99:
 562              		.loc 1 512 0
 563 000e 0122     		movs	r2, #1
 564              		.loc 1 511 0
 565 0010 2361     		str	r3, [r4, #16]
 566              		.loc 1 512 0
 567 0012 1A74     		strb	r2, [r3, #16]
 568              		.loc 1 525 0
 569 0014 FFF7FEFF 		bl	chSchReadyI
 570              	.LVL43:
ARM GAS  /tmp/ccxxfSAv.s 			page 11


 571              		.loc 1 528 0
 572 0018 0146     		mov	r1, r0
 573 001a 2069     		ldr	r0, [r4, #16]
 574              	.LVL44:
 575              		.loc 1 529 0
 576 001c BDE81040 		pop	{r4, lr}
 577              		.cfi_restore 14
 578              		.cfi_restore 4
 579              		.cfi_def_cfa_offset 0
 580              		.loc 1 528 0
 581 0020 FFF7FEBF 		b	_port_switch
 582              	.LVL45:
 583              	.L42:
 584              		.align	2
 585              	.L41:
 586 0024 00000000 		.word	.LANCHOR0
 587              		.cfi_endproc
 588              	.LFE226:
 589              		.size	chSchDoRescheduleBehind, .-chSchDoRescheduleBehind
 590              		.section	.text.chSchDoReschedule,"ax",%progbits
 591              		.align	1
 592              		.global	chSchDoReschedule
 593              		.syntax unified
 594              		.thumb
 595              		.thumb_func
 596              		.fpu fpv4-sp-d16
 597              		.type	chSchDoReschedule, %function
 598              	chSchDoReschedule:
 599              	.LFB228:
 600              		.loc 1 570 0
 601              		.cfi_startproc
 602              		@ args = 0, pretend = 0, frame = 0
 603              		@ frame_needed = 0, uses_anonymous_args = 0
 604 0000 10B5     		push	{r4, lr}
 605              		.cfi_def_cfa_offset 8
 606              		.cfi_offset 4, -8
 607              		.cfi_offset 14, -4
 608              		.loc 1 571 0
 609 0002 084C     		ldr	r4, .L44
 610              	.LBB100:
 611              	.LBB101:
 612              		.loc 2 607 0
 613 0004 2368     		ldr	r3, [r4]
 614              	.LBE101:
 615              	.LBE100:
 616              		.loc 1 571 0
 617 0006 2069     		ldr	r0, [r4, #16]
 618              	.LVL46:
 619              	.LBB103:
 620              	.LBB102:
 621              		.loc 2 609 0
 622 0008 1A68     		ldr	r2, [r3]
 623 000a 2260     		str	r2, [r4]
 624              		.loc 2 610 0
 625 000c 5460     		str	r4, [r2, #4]
 626              	.LVL47:
 627              	.LBE102:
ARM GAS  /tmp/ccxxfSAv.s 			page 12


 628              	.LBE103:
 629              		.loc 1 575 0
 630 000e 0122     		movs	r2, #1
 631              		.loc 1 574 0
 632 0010 2361     		str	r3, [r4, #16]
 633              		.loc 1 575 0
 634 0012 1A74     		strb	r2, [r3, #16]
 635              		.loc 1 602 0
 636 0014 FFF7FEFF 		bl	chSchReadyAheadI
 637              	.LVL48:
 638              		.loc 1 606 0
 639 0018 0146     		mov	r1, r0
 640 001a 2069     		ldr	r0, [r4, #16]
 641              	.LVL49:
 642              		.loc 1 607 0
 643 001c BDE81040 		pop	{r4, lr}
 644              		.cfi_restore 14
 645              		.cfi_restore 4
 646              		.cfi_def_cfa_offset 0
 647              		.loc 1 606 0
 648 0020 FFF7FEBF 		b	_port_switch
 649              	.LVL50:
 650              	.L45:
 651              		.align	2
 652              	.L44:
 653 0024 00000000 		.word	.LANCHOR0
 654              		.cfi_endproc
 655              	.LFE228:
 656              		.size	chSchDoReschedule, .-chSchDoReschedule
 657              		.section	.text.chSchRescheduleS,"ax",%progbits
 658              		.align	1
 659              		.global	chSchRescheduleS
 660              		.syntax unified
 661              		.thumb
 662              		.thumb_func
 663              		.fpu fpv4-sp-d16
 664              		.type	chSchRescheduleS, %function
 665              	chSchRescheduleS:
 666              	.LFB224:
 667              		.loc 1 456 0
 668              		.cfi_startproc
 669              		@ args = 0, pretend = 0, frame = 0
 670              		@ frame_needed = 0, uses_anonymous_args = 0
 671 0000 08B5     		push	{r3, lr}
 672              		.cfi_def_cfa_offset 8
 673              		.cfi_offset 3, -8
 674              		.cfi_offset 14, -4
 675              		.loc 1 460 0
 676 0002 FFF7FEFF 		bl	chSchIsRescRequiredI
 677              	.LVL51:
 678 0006 18B1     		cbz	r0, .L46
 679              		.loc 1 463 0
 680 0008 BDE80840 		pop	{r3, lr}
 681              		.cfi_remember_state
 682              		.cfi_restore 14
 683              		.cfi_restore 3
 684              		.cfi_def_cfa_offset 0
ARM GAS  /tmp/ccxxfSAv.s 			page 13


 685              		.loc 1 461 0
 686 000c FFF7FEBF 		b	chSchDoReschedule
 687              	.LVL52:
 688              	.L46:
 689              		.cfi_restore_state
 690 0010 08BD     		pop	{r3, pc}
 691              		.cfi_endproc
 692              	.LFE224:
 693              		.size	chSchRescheduleS, .-chSchRescheduleS
 694              		.section	.text.chSchDoRescheduleAhead,"ax",%progbits
 695              		.align	1
 696              		.global	chSchDoRescheduleAhead
 697              		.syntax unified
 698              		.thumb
 699              		.thumb_func
 700              		.fpu fpv4-sp-d16
 701              		.type	chSchDoRescheduleAhead, %function
 702              	chSchDoRescheduleAhead:
 703              	.LFB231:
 704              		.cfi_startproc
 705              		@ args = 0, pretend = 0, frame = 0
 706              		@ frame_needed = 0, uses_anonymous_args = 0
 707              		@ link register save eliminated.
 708 0000 FFF7FEBF 		b	chSchDoReschedule
 709              		.cfi_endproc
 710              	.LFE231:
 711              		.size	chSchDoRescheduleAhead, .-chSchDoRescheduleAhead
 712              		.global	ch
 713              		.section	.bss.ch,"aw",%nobits
 714              		.align	2
 715              		.set	.LANCHOR0,. + 0
 716              		.type	ch, %object
 717              		.size	ch, 64
 718              	ch:
 719 0000 00000000 		.space	64
 719      00000000 
 719      00000000 
 719      00000000 
 719      00000000 
 720              		.text
 721              	.Letext0:
 722              		.file 4 "/opt/gcc-arm-none-eabi-6-2017-q2-update/arm-none-eabi/include/machine/_default_types.h"
 723              		.file 5 "/opt/gcc-arm-none-eabi-6-2017-q2-update/arm-none-eabi/include/sys/_stdint.h"
 724              		.file 6 "../../modules/ChibiOS/os/common/ports/ARMCMx/compilers/GCC/chtypes.h"
 725              		.file 7 "../../modules/ChibiOS/os/rt/include/chsystypes.h"
 726              		.file 8 "../../modules/ChibiOS/os/rt/include/chtime.h"
 727              		.file 9 "../../modules/ChibiOS/os/common/ext/ARM/CMSIS/Core/Include/core_cm4.h"
 728              		.file 10 "../../modules/ChibiOS/os/common/ext/ST/STM32F4xx/system_stm32f4xx.h"
 729              		.file 11 "../../modules/ChibiOS/os/common/ports/ARMCMx/chcore.h"
 730              		.file 12 "../../modules/ChibiOS/os/common/ports/ARMCMx/chcore_v7m.h"
 731              		.file 13 "../../modules/ChibiOS/os/rt/include/chsys.h"
 732              		.file 14 "../../modules/ChibiOS/os/rt/include/chvt.h"
 733              		.section	.debug_info,"",%progbits
 734              	.Ldebug_info0:
 735 0000 A50B0000 		.4byte	0xba5
 736 0004 0400     		.2byte	0x4
 737 0006 00000000 		.4byte	.Ldebug_abbrev0
ARM GAS  /tmp/ccxxfSAv.s 			page 14


 738 000a 04       		.byte	0x4
 739 000b 01       		.uleb128 0x1
 740 000c 32010000 		.4byte	.LASF99
 741 0010 0C       		.byte	0xc
 742 0011 B4030000 		.4byte	.LASF100
 743 0015 19030000 		.4byte	.LASF101
 744 0019 60000000 		.4byte	.Ldebug_ranges0+0x60
 745 001d 00000000 		.4byte	0
 746 0021 00000000 		.4byte	.Ldebug_line0
 747 0025 02       		.uleb128 0x2
 748 0026 04       		.byte	0x4
 749 0027 05       		.byte	0x5
 750 0028 696E7400 		.ascii	"int\000"
 751 002c 03       		.uleb128 0x3
 752 002d 04       		.byte	0x4
 753 002e 07       		.byte	0x7
 754 002f E8020000 		.4byte	.LASF0
 755 0033 03       		.uleb128 0x3
 756 0034 08       		.byte	0x8
 757 0035 05       		.byte	0x5
 758 0036 18010000 		.4byte	.LASF1
 759 003a 03       		.uleb128 0x3
 760 003b 08       		.byte	0x8
 761 003c 04       		.byte	0x4
 762 003d 1B040000 		.4byte	.LASF2
 763 0041 03       		.uleb128 0x3
 764 0042 01       		.byte	0x1
 765 0043 06       		.byte	0x6
 766 0044 26010000 		.4byte	.LASF3
 767 0048 04       		.uleb128 0x4
 768 0049 40000000 		.4byte	.LASF7
 769 004d 04       		.byte	0x4
 770 004e 2B       		.byte	0x2b
 771 004f 53000000 		.4byte	0x53
 772 0053 03       		.uleb128 0x3
 773 0054 01       		.byte	0x1
 774 0055 08       		.byte	0x8
 775 0056 AD040000 		.4byte	.LASF4
 776 005a 03       		.uleb128 0x3
 777 005b 02       		.byte	0x2
 778 005c 05       		.byte	0x5
 779 005d C4040000 		.4byte	.LASF5
 780 0061 03       		.uleb128 0x3
 781 0062 02       		.byte	0x2
 782 0063 07       		.byte	0x7
 783 0064 57030000 		.4byte	.LASF6
 784 0068 04       		.uleb128 0x4
 785 0069 C5000000 		.4byte	.LASF8
 786 006d 04       		.byte	0x4
 787 006e 4D       		.byte	0x4d
 788 006f 73000000 		.4byte	0x73
 789 0073 03       		.uleb128 0x3
 790 0074 04       		.byte	0x4
 791 0075 05       		.byte	0x5
 792 0076 69020000 		.4byte	.LASF9
 793 007a 04       		.uleb128 0x4
 794 007b B4020000 		.4byte	.LASF10
ARM GAS  /tmp/ccxxfSAv.s 			page 15


 795 007f 04       		.byte	0x4
 796 0080 4F       		.byte	0x4f
 797 0081 85000000 		.4byte	0x85
 798 0085 03       		.uleb128 0x3
 799 0086 04       		.byte	0x4
 800 0087 07       		.byte	0x7
 801 0088 56050000 		.4byte	.LASF11
 802 008c 04       		.uleb128 0x4
 803 008d 59040000 		.4byte	.LASF12
 804 0091 04       		.byte	0x4
 805 0092 69       		.byte	0x69
 806 0093 97000000 		.4byte	0x97
 807 0097 03       		.uleb128 0x3
 808 0098 08       		.byte	0x8
 809 0099 07       		.byte	0x7
 810 009a 8D000000 		.4byte	.LASF13
 811 009e 04       		.uleb128 0x4
 812 009f 03060000 		.4byte	.LASF14
 813 00a3 05       		.byte	0x5
 814 00a4 18       		.byte	0x18
 815 00a5 48000000 		.4byte	0x48
 816 00a9 05       		.uleb128 0x5
 817 00aa 9E000000 		.4byte	0x9e
 818 00ae 04       		.uleb128 0x4
 819 00af A5040000 		.4byte	.LASF15
 820 00b3 05       		.byte	0x5
 821 00b4 2C       		.byte	0x2c
 822 00b5 68000000 		.4byte	0x68
 823 00b9 06       		.uleb128 0x6
 824 00ba AE000000 		.4byte	0xae
 825 00be 04       		.uleb128 0x4
 826 00bf 41050000 		.4byte	.LASF16
 827 00c3 05       		.byte	0x5
 828 00c4 30       		.byte	0x30
 829 00c5 7A000000 		.4byte	0x7a
 830 00c9 04       		.uleb128 0x4
 831 00ca 20000000 		.4byte	.LASF17
 832 00ce 05       		.byte	0x5
 833 00cf 3C       		.byte	0x3c
 834 00d0 8C000000 		.4byte	0x8c
 835 00d4 04       		.uleb128 0x4
 836 00d5 E1040000 		.4byte	.LASF18
 837 00d9 06       		.byte	0x6
 838 00da 2A       		.byte	0x2a
 839 00db 9E000000 		.4byte	0x9e
 840 00df 04       		.uleb128 0x4
 841 00e0 80020000 		.4byte	.LASF19
 842 00e4 06       		.byte	0x6
 843 00e5 2B       		.byte	0x2b
 844 00e6 9E000000 		.4byte	0x9e
 845 00ea 04       		.uleb128 0x4
 846 00eb 74040000 		.4byte	.LASF20
 847 00ef 06       		.byte	0x6
 848 00f0 2E       		.byte	0x2e
 849 00f1 BE000000 		.4byte	0xbe
 850 00f5 04       		.uleb128 0x4
 851 00f6 74030000 		.4byte	.LASF21
ARM GAS  /tmp/ccxxfSAv.s 			page 16


 852 00fa 06       		.byte	0x6
 853 00fb 2F       		.byte	0x2f
 854 00fc AE000000 		.4byte	0xae
 855 0100 04       		.uleb128 0x4
 856 0101 87050000 		.4byte	.LASF22
 857 0105 07       		.byte	0x7
 858 0106 34       		.byte	0x34
 859 0107 0B010000 		.4byte	0x10b
 860 010b 07       		.uleb128 0x7
 861 010c 6A030000 		.4byte	.LASF29
 862 0110 18       		.byte	0x18
 863 0111 02       		.byte	0x2
 864 0112 8E       		.byte	0x8e
 865 0113 5F010000 		.4byte	0x15f
 866 0117 08       		.uleb128 0x8
 867 0118 51030000 		.4byte	.LASF23
 868 011c 02       		.byte	0x2
 869 011d 8F       		.byte	0x8f
 870 011e 70010000 		.4byte	0x170
 871 0122 00       		.byte	0
 872 0123 08       		.uleb128 0x8
 873 0124 4C040000 		.4byte	.LASF24
 874 0128 02       		.byte	0x2
 875 0129 90       		.byte	0x90
 876 012a EA000000 		.4byte	0xea
 877 012e 08       		.byte	0x8
 878 012f 09       		.uleb128 0x9
 879 0130 63747800 		.ascii	"ctx\000"
 880 0134 02       		.byte	0x2
 881 0135 91       		.byte	0x91
 882 0136 B4030000 		.4byte	0x3b4
 883 013a 0C       		.byte	0xc
 884 013b 08       		.uleb128 0x8
 885 013c 63020000 		.4byte	.LASF25
 886 0140 02       		.byte	0x2
 887 0141 A9       		.byte	0xa9
 888 0142 DF000000 		.4byte	0xdf
 889 0146 10       		.byte	0x10
 890 0147 08       		.uleb128 0x8
 891 0148 0B060000 		.4byte	.LASF26
 892 014c 02       		.byte	0x2
 893 014d AD       		.byte	0xad
 894 014e D4000000 		.4byte	0xd4
 895 0152 11       		.byte	0x11
 896 0153 0A       		.uleb128 0xa
 897 0154 7500     		.ascii	"u\000"
 898 0156 02       		.byte	0x2
 899 0157 0301     		.2byte	0x103
 900 0159 1E050000 		.4byte	0x51e
 901 015d 14       		.byte	0x14
 902 015e 00       		.byte	0
 903 015f 04       		.uleb128 0x4
 904 0160 F1030000 		.4byte	.LASF27
 905 0164 07       		.byte	0x7
 906 0165 39       		.byte	0x39
 907 0166 6A010000 		.4byte	0x16a
 908 016a 0B       		.uleb128 0xb
ARM GAS  /tmp/ccxxfSAv.s 			page 17


 909 016b 04       		.byte	0x4
 910 016c 00010000 		.4byte	0x100
 911 0170 04       		.uleb128 0x4
 912 0171 ED050000 		.4byte	.LASF28
 913 0175 07       		.byte	0x7
 914 0176 45       		.byte	0x45
 915 0177 7B010000 		.4byte	0x17b
 916 017b 07       		.uleb128 0x7
 917 017c F7000000 		.4byte	.LASF30
 918 0180 08       		.byte	0x8
 919 0181 02       		.byte	0x2
 920 0182 83       		.byte	0x83
 921 0183 A0010000 		.4byte	0x1a0
 922 0187 08       		.uleb128 0x8
 923 0188 F2000000 		.4byte	.LASF31
 924 018c 02       		.byte	0x2
 925 018d 84       		.byte	0x84
 926 018e 6A010000 		.4byte	0x16a
 927 0192 00       		.byte	0
 928 0193 08       		.uleb128 0x8
 929 0194 4A000000 		.4byte	.LASF32
 930 0198 02       		.byte	0x2
 931 0199 85       		.byte	0x85
 932 019a 6A010000 		.4byte	0x16a
 933 019e 04       		.byte	0x4
 934 019f 00       		.byte	0
 935 01a0 04       		.uleb128 0x4
 936 01a1 00000000 		.4byte	.LASF33
 937 01a5 07       		.byte	0x7
 938 01a6 4C       		.byte	0x4c
 939 01a7 AB010000 		.4byte	0x1ab
 940 01ab 0C       		.uleb128 0xc
 941 01ac 8D030000 		.4byte	.LASF34
 942 01b0 14       		.byte	0x14
 943 01b1 02       		.byte	0x2
 944 01b2 5E01     		.2byte	0x15e
 945 01b4 ED010000 		.4byte	0x1ed
 946 01b8 0D       		.uleb128 0xd
 947 01b9 51030000 		.4byte	.LASF23
 948 01bd 02       		.byte	0x2
 949 01be 5F01     		.2byte	0x15f
 950 01c0 70010000 		.4byte	0x170
 951 01c4 00       		.byte	0
 952 01c5 0D       		.uleb128 0xd
 953 01c6 4C040000 		.4byte	.LASF24
 954 01ca 02       		.byte	0x2
 955 01cb 6001     		.2byte	0x160
 956 01cd EA000000 		.4byte	0xea
 957 01d1 08       		.byte	0x8
 958 01d2 0A       		.uleb128 0xa
 959 01d3 63747800 		.ascii	"ctx\000"
 960 01d7 02       		.byte	0x2
 961 01d8 6201     		.2byte	0x162
 962 01da B4030000 		.4byte	0x3b4
 963 01de 0C       		.byte	0xc
 964 01df 0D       		.uleb128 0xd
 965 01e0 51040000 		.4byte	.LASF35
ARM GAS  /tmp/ccxxfSAv.s 			page 18


 966 01e4 02       		.byte	0x2
 967 01e5 6901     		.2byte	0x169
 968 01e7 6A010000 		.4byte	0x16a
 969 01eb 10       		.byte	0x10
 970 01ec 00       		.byte	0
 971 01ed 04       		.uleb128 0x4
 972 01ee AC050000 		.4byte	.LASF36
 973 01f2 07       		.byte	0x7
 974 01f3 51       		.byte	0x51
 975 01f4 F8010000 		.4byte	0x1f8
 976 01f8 0B       		.uleb128 0xb
 977 01f9 04       		.byte	0x4
 978 01fa FE010000 		.4byte	0x1fe
 979 01fe 0E       		.uleb128 0xe
 980 01ff 09020000 		.4byte	0x209
 981 0203 0F       		.uleb128 0xf
 982 0204 09020000 		.4byte	0x209
 983 0208 00       		.byte	0
 984 0209 10       		.uleb128 0x10
 985 020a 04       		.byte	0x4
 986 020b 04       		.uleb128 0x4
 987 020c 64040000 		.4byte	.LASF37
 988 0210 07       		.byte	0x7
 989 0211 56       		.byte	0x56
 990 0212 1B020000 		.4byte	0x21b
 991 0216 05       		.uleb128 0x5
 992 0217 0B020000 		.4byte	0x20b
 993 021b 0C       		.uleb128 0xc
 994 021c FF040000 		.4byte	.LASF38
 995 0220 14       		.byte	0x14
 996 0221 02       		.byte	0x2
 997 0222 3901     		.2byte	0x139
 998 0224 6A020000 		.4byte	0x26a
 999 0228 0D       		.uleb128 0xd
 1000 0229 F2000000 		.4byte	.LASF31
 1001 022d 02       		.byte	0x2
 1002 022e 3A01     		.2byte	0x13a
 1003 0230 59050000 		.4byte	0x559
 1004 0234 00       		.byte	0
 1005 0235 0D       		.uleb128 0xd
 1006 0236 4A000000 		.4byte	.LASF32
 1007 023a 02       		.byte	0x2
 1008 023b 3B01     		.2byte	0x13b
 1009 023d 59050000 		.4byte	0x559
 1010 0241 04       		.byte	0x4
 1011 0242 0D       		.uleb128 0xd
 1012 0243 13000000 		.4byte	.LASF39
 1013 0247 02       		.byte	0x2
 1014 0248 3C01     		.2byte	0x13c
 1015 024a 35030000 		.4byte	0x335
 1016 024e 08       		.byte	0x8
 1017 024f 0D       		.uleb128 0xd
 1018 0250 6D050000 		.4byte	.LASF40
 1019 0254 02       		.byte	0x2
 1020 0255 3D01     		.2byte	0x13d
 1021 0257 ED010000 		.4byte	0x1ed
 1022 025b 0C       		.byte	0xc
ARM GAS  /tmp/ccxxfSAv.s 			page 19


 1023 025c 0A       		.uleb128 0xa
 1024 025d 70617200 		.ascii	"par\000"
 1025 0261 02       		.byte	0x2
 1026 0262 3F01     		.2byte	0x13f
 1027 0264 09020000 		.4byte	0x209
 1028 0268 10       		.byte	0x10
 1029 0269 00       		.byte	0
 1030 026a 04       		.uleb128 0x4
 1031 026b CF000000 		.4byte	.LASF41
 1032 026f 07       		.byte	0x7
 1033 0270 5B       		.byte	0x5b
 1034 0271 75020000 		.4byte	0x275
 1035 0275 0C       		.uleb128 0xc
 1036 0276 04040000 		.4byte	.LASF42
 1037 027a 10       		.byte	0x10
 1038 027b 02       		.byte	0x2
 1039 027c 4901     		.2byte	0x149
 1040 027e B7020000 		.4byte	0x2b7
 1041 0282 0D       		.uleb128 0xd
 1042 0283 F2000000 		.4byte	.LASF31
 1043 0287 02       		.byte	0x2
 1044 0288 4A01     		.2byte	0x14a
 1045 028a 59050000 		.4byte	0x559
 1046 028e 00       		.byte	0
 1047 028f 0D       		.uleb128 0xd
 1048 0290 4A000000 		.4byte	.LASF32
 1049 0294 02       		.byte	0x2
 1050 0295 4C01     		.2byte	0x14c
 1051 0297 59050000 		.4byte	0x559
 1052 029b 04       		.byte	0x4
 1053 029c 0D       		.uleb128 0xd
 1054 029d 13000000 		.4byte	.LASF39
 1055 02a1 02       		.byte	0x2
 1056 02a2 4E01     		.2byte	0x14e
 1057 02a4 35030000 		.4byte	0x335
 1058 02a8 08       		.byte	0x8
 1059 02a9 0D       		.uleb128 0xd
 1060 02aa CE040000 		.4byte	.LASF43
 1061 02ae 02       		.byte	0x2
 1062 02af 5601     		.2byte	0x156
 1063 02b1 2A030000 		.4byte	0x32a
 1064 02b5 0C       		.byte	0xc
 1065 02b6 00       		.byte	0
 1066 02b7 04       		.uleb128 0x4
 1067 02b8 5B000000 		.4byte	.LASF44
 1068 02bc 07       		.byte	0x7
 1069 02bd 60       		.byte	0x60
 1070 02be C2020000 		.4byte	0x2c2
 1071 02c2 0C       		.uleb128 0xc
 1072 02c3 8F040000 		.4byte	.LASF45
 1073 02c7 04       		.byte	0x4
 1074 02c8 02       		.byte	0x2
 1075 02c9 7001     		.2byte	0x170
 1076 02cb DD020000 		.4byte	0x2dd
 1077 02cf 0D       		.uleb128 0xd
 1078 02d0 C3050000 		.4byte	.LASF46
 1079 02d4 02       		.byte	0x2
ARM GAS  /tmp/ccxxfSAv.s 			page 20


 1080 02d5 7801     		.2byte	0x178
 1081 02d7 65050000 		.4byte	0x565
 1082 02db 00       		.byte	0
 1083 02dc 00       		.byte	0
 1084 02dd 04       		.uleb128 0x4
 1085 02de 7A030000 		.4byte	.LASF47
 1086 02e2 07       		.byte	0x7
 1087 02e3 65       		.byte	0x65
 1088 02e4 E8020000 		.4byte	0x2e8
 1089 02e8 0C       		.uleb128 0xc
 1090 02e9 D7040000 		.4byte	.LASF48
 1091 02ed 40       		.byte	0x40
 1092 02ee 02       		.byte	0x2
 1093 02ef 9001     		.2byte	0x190
 1094 02f1 2A030000 		.4byte	0x32a
 1095 02f5 0D       		.uleb128 0xd
 1096 02f6 FD050000 		.4byte	.LASF49
 1097 02fa 02       		.byte	0x2
 1098 02fb 9401     		.2byte	0x194
 1099 02fd A0010000 		.4byte	0x1a0
 1100 0301 00       		.byte	0
 1101 0302 0D       		.uleb128 0xd
 1102 0303 50020000 		.4byte	.LASF50
 1103 0307 02       		.byte	0x2
 1104 0308 9801     		.2byte	0x198
 1105 030a 6A020000 		.4byte	0x26a
 1106 030e 14       		.byte	0x14
 1107 030f 0A       		.uleb128 0xa
 1108 0310 64626700 		.ascii	"dbg\000"
 1109 0314 02       		.byte	0x2
 1110 0315 9C01     		.2byte	0x19c
 1111 0317 B7020000 		.4byte	0x2b7
 1112 031b 24       		.byte	0x24
 1113 031c 0D       		.uleb128 0xd
 1114 031d BA000000 		.4byte	.LASF51
 1115 0321 02       		.byte	0x2
 1116 0322 A001     		.2byte	0x1a0
 1117 0324 00010000 		.4byte	0x100
 1118 0328 28       		.byte	0x28
 1119 0329 00       		.byte	0
 1120 032a 04       		.uleb128 0x4
 1121 032b A2050000 		.4byte	.LASF52
 1122 032f 08       		.byte	0x8
 1123 0330 6D       		.byte	0x6d
 1124 0331 BE000000 		.4byte	0xbe
 1125 0335 04       		.uleb128 0x4
 1126 0336 DA020000 		.4byte	.LASF53
 1127 033a 08       		.byte	0x8
 1128 033b 79       		.byte	0x79
 1129 033c BE000000 		.4byte	0xbe
 1130 0340 03       		.uleb128 0x3
 1131 0341 04       		.byte	0x4
 1132 0342 07       		.byte	0x7
 1133 0343 E8030000 		.4byte	.LASF54
 1134 0347 11       		.uleb128 0x11
 1135 0348 E5000000 		.4byte	.LASF55
 1136 034c 09       		.byte	0x9
ARM GAS  /tmp/ccxxfSAv.s 			page 21


 1137 034d 0408     		.2byte	0x804
 1138 034f B9000000 		.4byte	0xb9
 1139 0353 12       		.uleb128 0x12
 1140 0354 FC020000 		.4byte	.LASF56
 1141 0358 0A       		.byte	0xa
 1142 0359 4C       		.byte	0x4c
 1143 035a BE000000 		.4byte	0xbe
 1144 035e 13       		.uleb128 0x13
 1145 035f A9000000 		.4byte	0xa9
 1146 0363 6E030000 		.4byte	0x36e
 1147 0367 14       		.uleb128 0x14
 1148 0368 40030000 		.4byte	0x340
 1149 036c 0F       		.byte	0xf
 1150 036d 00       		.byte	0
 1151 036e 05       		.uleb128 0x5
 1152 036f 5E030000 		.4byte	0x35e
 1153 0373 12       		.uleb128 0x12
 1154 0374 A6030000 		.4byte	.LASF57
 1155 0378 0A       		.byte	0xa
 1156 0379 4E       		.byte	0x4e
 1157 037a 6E030000 		.4byte	0x36e
 1158 037e 13       		.uleb128 0x13
 1159 037f A9000000 		.4byte	0xa9
 1160 0383 8E030000 		.4byte	0x38e
 1161 0387 14       		.uleb128 0x14
 1162 0388 40030000 		.4byte	0x340
 1163 038c 07       		.byte	0x7
 1164 038d 00       		.byte	0
 1165 038e 05       		.uleb128 0x5
 1166 038f 7E030000 		.4byte	0x37e
 1167 0393 12       		.uleb128 0x12
 1168 0394 6A000000 		.4byte	.LASF58
 1169 0398 0A       		.byte	0xa
 1170 0399 4F       		.byte	0x4f
 1171 039a 8E030000 		.4byte	0x38e
 1172 039e 04       		.uleb128 0x4
 1173 039f BF020000 		.4byte	.LASF59
 1174 03a3 0B       		.byte	0xb
 1175 03a4 65       		.byte	0x65
 1176 03a5 09020000 		.4byte	0x209
 1177 03a9 04       		.uleb128 0x4
 1178 03aa DD030000 		.4byte	.LASF60
 1179 03ae 0B       		.byte	0xb
 1180 03af 6D       		.byte	0x6d
 1181 03b0 C9000000 		.4byte	0xc9
 1182 03b4 07       		.uleb128 0x7
 1183 03b5 3F040000 		.4byte	.LASF61
 1184 03b9 04       		.byte	0x4
 1185 03ba 0B       		.byte	0xb
 1186 03bb 89       		.byte	0x89
 1187 03bc CC030000 		.4byte	0x3cc
 1188 03c0 09       		.uleb128 0x9
 1189 03c1 737000   		.ascii	"sp\000"
 1190 03c4 0B       		.byte	0xb
 1191 03c5 8A       		.byte	0x8a
 1192 03c6 18050000 		.4byte	0x518
 1193 03ca 00       		.byte	0
ARM GAS  /tmp/ccxxfSAv.s 			page 22


 1194 03cb 00       		.byte	0
 1195 03cc 0C       		.uleb128 0xc
 1196 03cd 4F000000 		.4byte	.LASF62
 1197 03d1 64       		.byte	0x64
 1198 03d2 0C       		.byte	0xc
 1199 03d3 5901     		.2byte	0x159
 1200 03d5 18050000 		.4byte	0x518
 1201 03d9 0A       		.uleb128 0xa
 1202 03da 73313600 		.ascii	"s16\000"
 1203 03de 0C       		.byte	0xc
 1204 03df 5B01     		.2byte	0x15b
 1205 03e1 9E030000 		.4byte	0x39e
 1206 03e5 00       		.byte	0
 1207 03e6 0A       		.uleb128 0xa
 1208 03e7 73313700 		.ascii	"s17\000"
 1209 03eb 0C       		.byte	0xc
 1210 03ec 5C01     		.2byte	0x15c
 1211 03ee 9E030000 		.4byte	0x39e
 1212 03f2 04       		.byte	0x4
 1213 03f3 0A       		.uleb128 0xa
 1214 03f4 73313800 		.ascii	"s18\000"
 1215 03f8 0C       		.byte	0xc
 1216 03f9 5D01     		.2byte	0x15d
 1217 03fb 9E030000 		.4byte	0x39e
 1218 03ff 08       		.byte	0x8
 1219 0400 0A       		.uleb128 0xa
 1220 0401 73313900 		.ascii	"s19\000"
 1221 0405 0C       		.byte	0xc
 1222 0406 5E01     		.2byte	0x15e
 1223 0408 9E030000 		.4byte	0x39e
 1224 040c 0C       		.byte	0xc
 1225 040d 0A       		.uleb128 0xa
 1226 040e 73323000 		.ascii	"s20\000"
 1227 0412 0C       		.byte	0xc
 1228 0413 5F01     		.2byte	0x15f
 1229 0415 9E030000 		.4byte	0x39e
 1230 0419 10       		.byte	0x10
 1231 041a 0A       		.uleb128 0xa
 1232 041b 73323100 		.ascii	"s21\000"
 1233 041f 0C       		.byte	0xc
 1234 0420 6001     		.2byte	0x160
 1235 0422 9E030000 		.4byte	0x39e
 1236 0426 14       		.byte	0x14
 1237 0427 0A       		.uleb128 0xa
 1238 0428 73323200 		.ascii	"s22\000"
 1239 042c 0C       		.byte	0xc
 1240 042d 6101     		.2byte	0x161
 1241 042f 9E030000 		.4byte	0x39e
 1242 0433 18       		.byte	0x18
 1243 0434 0A       		.uleb128 0xa
 1244 0435 73323300 		.ascii	"s23\000"
 1245 0439 0C       		.byte	0xc
 1246 043a 6201     		.2byte	0x162
 1247 043c 9E030000 		.4byte	0x39e
 1248 0440 1C       		.byte	0x1c
 1249 0441 0A       		.uleb128 0xa
 1250 0442 73323400 		.ascii	"s24\000"
ARM GAS  /tmp/ccxxfSAv.s 			page 23


 1251 0446 0C       		.byte	0xc
 1252 0447 6301     		.2byte	0x163
 1253 0449 9E030000 		.4byte	0x39e
 1254 044d 20       		.byte	0x20
 1255 044e 0A       		.uleb128 0xa
 1256 044f 73323500 		.ascii	"s25\000"
 1257 0453 0C       		.byte	0xc
 1258 0454 6401     		.2byte	0x164
 1259 0456 9E030000 		.4byte	0x39e
 1260 045a 24       		.byte	0x24
 1261 045b 0A       		.uleb128 0xa
 1262 045c 73323600 		.ascii	"s26\000"
 1263 0460 0C       		.byte	0xc
 1264 0461 6501     		.2byte	0x165
 1265 0463 9E030000 		.4byte	0x39e
 1266 0467 28       		.byte	0x28
 1267 0468 0A       		.uleb128 0xa
 1268 0469 73323700 		.ascii	"s27\000"
 1269 046d 0C       		.byte	0xc
 1270 046e 6601     		.2byte	0x166
 1271 0470 9E030000 		.4byte	0x39e
 1272 0474 2C       		.byte	0x2c
 1273 0475 0A       		.uleb128 0xa
 1274 0476 73323800 		.ascii	"s28\000"
 1275 047a 0C       		.byte	0xc
 1276 047b 6701     		.2byte	0x167
 1277 047d 9E030000 		.4byte	0x39e
 1278 0481 30       		.byte	0x30
 1279 0482 0A       		.uleb128 0xa
 1280 0483 73323900 		.ascii	"s29\000"
 1281 0487 0C       		.byte	0xc
 1282 0488 6801     		.2byte	0x168
 1283 048a 9E030000 		.4byte	0x39e
 1284 048e 34       		.byte	0x34
 1285 048f 0A       		.uleb128 0xa
 1286 0490 73333000 		.ascii	"s30\000"
 1287 0494 0C       		.byte	0xc
 1288 0495 6901     		.2byte	0x169
 1289 0497 9E030000 		.4byte	0x39e
 1290 049b 38       		.byte	0x38
 1291 049c 0A       		.uleb128 0xa
 1292 049d 73333100 		.ascii	"s31\000"
 1293 04a1 0C       		.byte	0xc
 1294 04a2 6A01     		.2byte	0x16a
 1295 04a4 9E030000 		.4byte	0x39e
 1296 04a8 3C       		.byte	0x3c
 1297 04a9 0A       		.uleb128 0xa
 1298 04aa 723400   		.ascii	"r4\000"
 1299 04ad 0C       		.byte	0xc
 1300 04ae 6C01     		.2byte	0x16c
 1301 04b0 9E030000 		.4byte	0x39e
 1302 04b4 40       		.byte	0x40
 1303 04b5 0A       		.uleb128 0xa
 1304 04b6 723500   		.ascii	"r5\000"
 1305 04b9 0C       		.byte	0xc
 1306 04ba 6D01     		.2byte	0x16d
 1307 04bc 9E030000 		.4byte	0x39e
ARM GAS  /tmp/ccxxfSAv.s 			page 24


 1308 04c0 44       		.byte	0x44
 1309 04c1 0A       		.uleb128 0xa
 1310 04c2 723600   		.ascii	"r6\000"
 1311 04c5 0C       		.byte	0xc
 1312 04c6 6E01     		.2byte	0x16e
 1313 04c8 9E030000 		.4byte	0x39e
 1314 04cc 48       		.byte	0x48
 1315 04cd 0A       		.uleb128 0xa
 1316 04ce 723700   		.ascii	"r7\000"
 1317 04d1 0C       		.byte	0xc
 1318 04d2 6F01     		.2byte	0x16f
 1319 04d4 9E030000 		.4byte	0x39e
 1320 04d8 4C       		.byte	0x4c
 1321 04d9 0A       		.uleb128 0xa
 1322 04da 723800   		.ascii	"r8\000"
 1323 04dd 0C       		.byte	0xc
 1324 04de 7001     		.2byte	0x170
 1325 04e0 9E030000 		.4byte	0x39e
 1326 04e4 50       		.byte	0x50
 1327 04e5 0A       		.uleb128 0xa
 1328 04e6 723900   		.ascii	"r9\000"
 1329 04e9 0C       		.byte	0xc
 1330 04ea 7101     		.2byte	0x171
 1331 04ec 9E030000 		.4byte	0x39e
 1332 04f0 54       		.byte	0x54
 1333 04f1 0A       		.uleb128 0xa
 1334 04f2 72313000 		.ascii	"r10\000"
 1335 04f6 0C       		.byte	0xc
 1336 04f7 7201     		.2byte	0x172
 1337 04f9 9E030000 		.4byte	0x39e
 1338 04fd 58       		.byte	0x58
 1339 04fe 0A       		.uleb128 0xa
 1340 04ff 72313100 		.ascii	"r11\000"
 1341 0503 0C       		.byte	0xc
 1342 0504 7301     		.2byte	0x173
 1343 0506 9E030000 		.4byte	0x39e
 1344 050a 5C       		.byte	0x5c
 1345 050b 0A       		.uleb128 0xa
 1346 050c 6C7200   		.ascii	"lr\000"
 1347 050f 0C       		.byte	0xc
 1348 0510 7401     		.2byte	0x174
 1349 0512 9E030000 		.4byte	0x39e
 1350 0516 60       		.byte	0x60
 1351 0517 00       		.byte	0
 1352 0518 0B       		.uleb128 0xb
 1353 0519 04       		.byte	0x4
 1354 051a CC030000 		.4byte	0x3cc
 1355 051e 15       		.uleb128 0x15
 1356 051f 04       		.byte	0x4
 1357 0520 02       		.byte	0x2
 1358 0521 C6       		.byte	0xc6
 1359 0522 53050000 		.4byte	0x553
 1360 0526 16       		.uleb128 0x16
 1361 0527 19000000 		.4byte	.LASF63
 1362 052b 02       		.byte	0x2
 1363 052c CD       		.byte	0xcd
 1364 052d F5000000 		.4byte	0xf5
ARM GAS  /tmp/ccxxfSAv.s 			page 25


 1365 0531 16       		.uleb128 0x16
 1366 0532 B1000000 		.4byte	.LASF64
 1367 0536 02       		.byte	0x2
 1368 0537 D4       		.byte	0xd4
 1369 0538 F5000000 		.4byte	0xf5
 1370 053c 16       		.uleb128 0x16
 1371 053d 86030000 		.4byte	.LASF65
 1372 0541 02       		.byte	0x2
 1373 0542 DB       		.byte	0xdb
 1374 0543 09020000 		.4byte	0x209
 1375 0547 16       		.uleb128 0x16
 1376 0548 0D000000 		.4byte	.LASF66
 1377 054c 02       		.byte	0x2
 1378 054d E2       		.byte	0xe2
 1379 054e 53050000 		.4byte	0x553
 1380 0552 00       		.byte	0
 1381 0553 0B       		.uleb128 0xb
 1382 0554 04       		.byte	0x4
 1383 0555 5F010000 		.4byte	0x15f
 1384 0559 0B       		.uleb128 0xb
 1385 055a 04       		.byte	0x4
 1386 055b 0B020000 		.4byte	0x20b
 1387 055f 0B       		.uleb128 0xb
 1388 0560 04       		.byte	0x4
 1389 0561 71050000 		.4byte	0x571
 1390 0565 06       		.uleb128 0x6
 1391 0566 5F050000 		.4byte	0x55f
 1392 056a 03       		.uleb128 0x3
 1393 056b 01       		.byte	0x1
 1394 056c 08       		.byte	0x8
 1395 056d 68050000 		.4byte	.LASF67
 1396 0571 05       		.uleb128 0x5
 1397 0572 6A050000 		.4byte	0x56a
 1398 0576 17       		.uleb128 0x17
 1399 0577 636800   		.ascii	"ch\000"
 1400 057a 02       		.byte	0x2
 1401 057b C701     		.2byte	0x1c7
 1402 057d DD020000 		.4byte	0x2dd
 1403 0581 13       		.uleb128 0x13
 1404 0582 A9030000 		.4byte	0x3a9
 1405 0586 8C050000 		.4byte	0x58c
 1406 058a 18       		.uleb128 0x18
 1407 058b 00       		.byte	0
 1408 058c 11       		.uleb128 0x11
 1409 058d 1E050000 		.4byte	.LASF68
 1410 0591 0D       		.byte	0xd
 1411 0592 1701     		.2byte	0x117
 1412 0594 81050000 		.4byte	0x581
 1413 0598 19       		.uleb128 0x19
 1414 0599 76050000 		.4byte	0x576
 1415 059d 01       		.byte	0x1
 1416 059e 2A       		.byte	0x2a
 1417 059f 05       		.uleb128 0x5
 1418 05a0 03       		.byte	0x3
 1419 05a1 00000000 		.4byte	ch
 1420 05a5 1A       		.uleb128 0x1a
 1421 05a6 C8020000 		.4byte	.LASF69
ARM GAS  /tmp/ccxxfSAv.s 			page 26


 1422 05aa 01       		.byte	0x1
 1423 05ab 3A02     		.2byte	0x23a
 1424 05ad 00000000 		.4byte	.LFB228
 1425 05b1 28000000 		.4byte	.LFE228-.LFB228
 1426 05b5 01       		.uleb128 0x1
 1427 05b6 9C       		.byte	0x9c
 1428 05b7 16060000 		.4byte	0x616
 1429 05bb 1B       		.uleb128 0x1b
 1430 05bc 6F747000 		.ascii	"otp\000"
 1431 05c0 01       		.byte	0x1
 1432 05c1 3B02     		.2byte	0x23b
 1433 05c3 6A010000 		.4byte	0x16a
 1434 05c7 00000000 		.4byte	.LLST19
 1435 05cb 1C       		.uleb128 0x1c
 1436 05cc FF0A0000 		.4byte	0xaff
 1437 05d0 04000000 		.4byte	.LBB100
 1438 05d4 48000000 		.4byte	.Ldebug_ranges0+0x48
 1439 05d8 01       		.byte	0x1
 1440 05d9 3E02     		.2byte	0x23e
 1441 05db F8050000 		.4byte	0x5f8
 1442 05df 1D       		.uleb128 0x1d
 1443 05e0 100B0000 		.4byte	0xb10
 1444 05e4 1E000000 		.4byte	.LLST20
 1445 05e8 1E       		.uleb128 0x1e
 1446 05e9 48000000 		.4byte	.Ldebug_ranges0+0x48
 1447 05ed 1F       		.uleb128 0x1f
 1448 05ee 1C0B0000 		.4byte	0xb1c
 1449 05f2 36000000 		.4byte	.LLST21
 1450 05f6 00       		.byte	0
 1451 05f7 00       		.byte	0
 1452 05f8 20       		.uleb128 0x20
 1453 05f9 18000000 		.4byte	.LVL48
 1454 05fd CC090000 		.4byte	0x9cc
 1455 0601 0C060000 		.4byte	0x60c
 1456 0605 21       		.uleb128 0x21
 1457 0606 01       		.uleb128 0x1
 1458 0607 50       		.byte	0x50
 1459 0608 02       		.uleb128 0x2
 1460 0609 70       		.byte	0x70
 1461 060a 00       		.sleb128 0
 1462 060b 00       		.byte	0
 1463 060c 22       		.uleb128 0x22
 1464 060d 24000000 		.4byte	.LVL50
 1465 0611 860B0000 		.4byte	0xb86
 1466 0615 00       		.byte	0
 1467 0616 23       		.uleb128 0x23
 1468 0617 29000000 		.4byte	.LASF102
 1469 061b 01       		.byte	0x1
 1470 061c 1C02     		.2byte	0x21c
 1471 061e 2F060000 		.4byte	0x62f
 1472 0622 24       		.uleb128 0x24
 1473 0623 6F747000 		.ascii	"otp\000"
 1474 0627 01       		.byte	0x1
 1475 0628 1D02     		.2byte	0x21d
 1476 062a 6A010000 		.4byte	0x16a
 1477 062e 00       		.byte	0
 1478 062f 1A       		.uleb128 0x1a
ARM GAS  /tmp/ccxxfSAv.s 			page 27


 1479 0630 27040000 		.4byte	.LASF70
 1480 0634 01       		.byte	0x1
 1481 0635 FB01     		.2byte	0x1fb
 1482 0637 00000000 		.4byte	.LFB226
 1483 063b 28000000 		.4byte	.LFE226-.LFB226
 1484 063f 01       		.uleb128 0x1
 1485 0640 9C       		.byte	0x9c
 1486 0641 A0060000 		.4byte	0x6a0
 1487 0645 1B       		.uleb128 0x1b
 1488 0646 6F747000 		.ascii	"otp\000"
 1489 064a 01       		.byte	0x1
 1490 064b FC01     		.2byte	0x1fc
 1491 064d 6A010000 		.4byte	0x16a
 1492 0651 49000000 		.4byte	.LLST16
 1493 0655 1C       		.uleb128 0x1c
 1494 0656 FF0A0000 		.4byte	0xaff
 1495 065a 04000000 		.4byte	.LBB96
 1496 065e 30000000 		.4byte	.Ldebug_ranges0+0x30
 1497 0662 01       		.byte	0x1
 1498 0663 FF01     		.2byte	0x1ff
 1499 0665 82060000 		.4byte	0x682
 1500 0669 1D       		.uleb128 0x1d
 1501 066a 100B0000 		.4byte	0xb10
 1502 066e 67000000 		.4byte	.LLST17
 1503 0672 1E       		.uleb128 0x1e
 1504 0673 30000000 		.4byte	.Ldebug_ranges0+0x30
 1505 0677 1F       		.uleb128 0x1f
 1506 0678 1C0B0000 		.4byte	0xb1c
 1507 067c 7F000000 		.4byte	.LLST18
 1508 0680 00       		.byte	0
 1509 0681 00       		.byte	0
 1510 0682 20       		.uleb128 0x20
 1511 0683 18000000 		.4byte	.LVL43
 1512 0687 210A0000 		.4byte	0xa21
 1513 068b 96060000 		.4byte	0x696
 1514 068f 21       		.uleb128 0x21
 1515 0690 01       		.uleb128 0x1
 1516 0691 50       		.byte	0x50
 1517 0692 02       		.uleb128 0x2
 1518 0693 70       		.byte	0x70
 1519 0694 00       		.sleb128 0
 1520 0695 00       		.byte	0
 1521 0696 22       		.uleb128 0x22
 1522 0697 24000000 		.4byte	.LVL45
 1523 069b 860B0000 		.4byte	0xb86
 1524 069f 00       		.byte	0
 1525 06a0 25       		.uleb128 0x25
 1526 06a1 89020000 		.4byte	.LASF74
 1527 06a5 01       		.byte	0x1
 1528 06a6 DF01     		.2byte	0x1df
 1529 06a8 E3060000 		.4byte	0x6e3
 1530 06ac 00000000 		.4byte	.LFB225
 1531 06b0 18000000 		.4byte	.LFE225-.LFB225
 1532 06b4 01       		.uleb128 0x1
 1533 06b5 9C       		.byte	0x9c
 1534 06b6 E3060000 		.4byte	0x6e3
 1535 06ba 26       		.uleb128 0x26
ARM GAS  /tmp/ccxxfSAv.s 			page 28


 1536 06bb 703100   		.ascii	"p1\000"
 1537 06be 01       		.byte	0x1
 1538 06bf E001     		.2byte	0x1e0
 1539 06c1 EA000000 		.4byte	0xea
 1540 06c5 08       		.uleb128 0x8
 1541 06c6 03       		.byte	0x3
 1542 06c7 00000000 		.4byte	ch
 1543 06cb 06       		.byte	0x6
 1544 06cc 23       		.byte	0x23
 1545 06cd 08       		.uleb128 0x8
 1546 06ce 26       		.uleb128 0x26
 1547 06cf 703200   		.ascii	"p2\000"
 1548 06d2 01       		.byte	0x1
 1549 06d3 E101     		.2byte	0x1e1
 1550 06d5 EA000000 		.4byte	0xea
 1551 06d9 08       		.uleb128 0x8
 1552 06da 03       		.byte	0x3
 1553 06db 10000000 		.4byte	ch+16
 1554 06df 06       		.byte	0x6
 1555 06e0 23       		.byte	0x23
 1556 06e1 08       		.uleb128 0x8
 1557 06e2 00       		.byte	0
 1558 06e3 03       		.uleb128 0x3
 1559 06e4 01       		.byte	0x1
 1560 06e5 02       		.byte	0x2
 1561 06e6 9F040000 		.4byte	.LASF71
 1562 06ea 1A       		.uleb128 0x1a
 1563 06eb A3020000 		.4byte	.LASF72
 1564 06ef 01       		.byte	0x1
 1565 06f0 C801     		.2byte	0x1c8
 1566 06f2 00000000 		.4byte	.LFB224
 1567 06f6 12000000 		.4byte	.LFE224-.LFB224
 1568 06fa 01       		.uleb128 0x1
 1569 06fb 9C       		.byte	0x9c
 1570 06fc 13070000 		.4byte	0x713
 1571 0700 27       		.uleb128 0x27
 1572 0701 06000000 		.4byte	.LVL51
 1573 0705 D60A0000 		.4byte	0xad6
 1574 0709 22       		.uleb128 0x22
 1575 070a 10000000 		.4byte	.LVL52
 1576 070e A5050000 		.4byte	0x5a5
 1577 0712 00       		.byte	0
 1578 0713 1A       		.uleb128 0x1a
 1579 0714 E0050000 		.4byte	.LASF73
 1580 0718 01       		.byte	0x1
 1581 0719 9C01     		.2byte	0x19c
 1582 071b 00000000 		.4byte	.LFB223
 1583 071f 38000000 		.4byte	.LFE223-.LFB223
 1584 0723 01       		.uleb128 0x1
 1585 0724 9C       		.byte	0x9c
 1586 0725 9C070000 		.4byte	0x79c
 1587 0729 28       		.uleb128 0x28
 1588 072a 6E747000 		.ascii	"ntp\000"
 1589 072e 01       		.byte	0x1
 1590 072f 9C01     		.2byte	0x19c
 1591 0731 6A010000 		.4byte	0x16a
 1592 0735 92000000 		.4byte	.LLST13
ARM GAS  /tmp/ccxxfSAv.s 			page 29


 1593 0739 28       		.uleb128 0x28
 1594 073a 6D736700 		.ascii	"msg\000"
 1595 073e 01       		.byte	0x1
 1596 073f 9C01     		.2byte	0x19c
 1597 0741 F5000000 		.4byte	0xf5
 1598 0745 D4000000 		.4byte	.LLST14
 1599 0749 1B       		.uleb128 0x1b
 1600 074a 6F747000 		.ascii	"otp\000"
 1601 074e 01       		.byte	0x1
 1602 074f 9D01     		.2byte	0x19d
 1603 0751 6A010000 		.4byte	0x16a
 1604 0755 27010000 		.4byte	.LLST15
 1605 0759 29       		.uleb128 0x29
 1606 075a E9040000 		.4byte	.LASF80
 1607 075e AC070000 		.4byte	0x7ac
 1608 0762 2A       		.uleb128 0x2a
 1609 0763 1A000000 		.4byte	.LVL34
 1610 0767 210A0000 		.4byte	0xa21
 1611 076b 76070000 		.4byte	0x776
 1612 076f 21       		.uleb128 0x21
 1613 0770 01       		.uleb128 0x1
 1614 0771 50       		.byte	0x50
 1615 0772 02       		.uleb128 0x2
 1616 0773 70       		.byte	0x70
 1617 0774 00       		.sleb128 0
 1618 0775 00       		.byte	0
 1619 0776 20       		.uleb128 0x20
 1620 0777 20000000 		.4byte	.LVL36
 1621 077b 210A0000 		.4byte	0xa21
 1622 077f 8A070000 		.4byte	0x78a
 1623 0783 21       		.uleb128 0x21
 1624 0784 01       		.uleb128 0x1
 1625 0785 50       		.byte	0x50
 1626 0786 02       		.uleb128 0x2
 1627 0787 70       		.byte	0x70
 1628 0788 00       		.sleb128 0
 1629 0789 00       		.byte	0
 1630 078a 2B       		.uleb128 0x2b
 1631 078b 32000000 		.4byte	.LVL39
 1632 078f 860B0000 		.4byte	0xb86
 1633 0793 21       		.uleb128 0x21
 1634 0794 01       		.uleb128 0x1
 1635 0795 50       		.byte	0x50
 1636 0796 03       		.uleb128 0x3
 1637 0797 F3       		.byte	0xf3
 1638 0798 01       		.uleb128 0x1
 1639 0799 50       		.byte	0x50
 1640 079a 00       		.byte	0
 1641 079b 00       		.byte	0
 1642 079c 13       		.uleb128 0x13
 1643 079d 71050000 		.4byte	0x571
 1644 07a1 AC070000 		.4byte	0x7ac
 1645 07a5 14       		.uleb128 0x14
 1646 07a6 40030000 		.4byte	0x340
 1647 07aa 0C       		.byte	0xc
 1648 07ab 00       		.byte	0
 1649 07ac 05       		.uleb128 0x5
ARM GAS  /tmp/ccxxfSAv.s 			page 30


 1650 07ad 9C070000 		.4byte	0x79c
 1651 07b1 25       		.uleb128 0x25
 1652 07b2 22060000 		.4byte	.LASF75
 1653 07b6 01       		.byte	0x1
 1654 07b7 7701     		.2byte	0x177
 1655 07b9 F5000000 		.4byte	0xf5
 1656 07bd 00000000 		.4byte	.LFB222
 1657 07c1 3C000000 		.4byte	.LFE222-.LFB222
 1658 07c5 01       		.uleb128 0x1
 1659 07c6 9C       		.byte	0x9c
 1660 07c7 59080000 		.4byte	0x859
 1661 07cb 2C       		.uleb128 0x2c
 1662 07cc BB040000 		.4byte	.LASF76
 1663 07d0 01       		.byte	0x1
 1664 07d1 7701     		.2byte	0x177
 1665 07d3 DF000000 		.4byte	0xdf
 1666 07d7 6A010000 		.4byte	.LLST11
 1667 07db 2C       		.uleb128 0x2c
 1668 07dc 49030000 		.4byte	.LASF77
 1669 07e0 01       		.byte	0x1
 1670 07e1 7701     		.2byte	0x177
 1671 07e3 35030000 		.4byte	0x335
 1672 07e7 A4010000 		.4byte	.LLST12
 1673 07eb 2D       		.uleb128 0x2d
 1674 07ec 0C000000 		.4byte	.LBB95
 1675 07f0 1A000000 		.4byte	.LBE95-.LBB95
 1676 07f4 4F080000 		.4byte	0x84f
 1677 07f8 26       		.uleb128 0x26
 1678 07f9 767400   		.ascii	"vt\000"
 1679 07fc 01       		.byte	0x1
 1680 07fd 7C01     		.2byte	0x17c
 1681 07ff 0B020000 		.4byte	0x20b
 1682 0803 02       		.uleb128 0x2
 1683 0804 91       		.byte	0x91
 1684 0805 5C       		.sleb128 -36
 1685 0806 20       		.uleb128 0x20
 1686 0807 16000000 		.4byte	.LVL24
 1687 080b 920B0000 		.4byte	0xb92
 1688 080f 2A080000 		.4byte	0x82a
 1689 0813 21       		.uleb128 0x21
 1690 0814 01       		.uleb128 0x1
 1691 0815 50       		.byte	0x50
 1692 0816 02       		.uleb128 0x2
 1693 0817 91       		.byte	0x91
 1694 0818 5C       		.sleb128 -36
 1695 0819 21       		.uleb128 0x21
 1696 081a 01       		.uleb128 0x1
 1697 081b 51       		.byte	0x51
 1698 081c 03       		.uleb128 0x3
 1699 081d F3       		.byte	0xf3
 1700 081e 01       		.uleb128 0x1
 1701 081f 51       		.byte	0x51
 1702 0820 21       		.uleb128 0x21
 1703 0821 01       		.uleb128 0x1
 1704 0822 52       		.byte	0x52
 1705 0823 05       		.uleb128 0x5
 1706 0824 03       		.byte	0x3
ARM GAS  /tmp/ccxxfSAv.s 			page 31


 1707 0825 00000000 		.4byte	wakeup
 1708 0829 00       		.byte	0
 1709 082a 20       		.uleb128 0x20
 1710 082b 1C000000 		.4byte	.LVL25
 1711 082f 5B090000 		.4byte	0x95b
 1712 0833 3E080000 		.4byte	0x83e
 1713 0837 21       		.uleb128 0x21
 1714 0838 01       		.uleb128 0x1
 1715 0839 50       		.byte	0x50
 1716 083a 02       		.uleb128 0x2
 1717 083b 75       		.byte	0x75
 1718 083c 00       		.sleb128 0
 1719 083d 00       		.byte	0
 1720 083e 2E       		.uleb128 0x2e
 1721 083f 26000000 		.4byte	.LVL27
 1722 0843 9D0B0000 		.4byte	0xb9d
 1723 0847 21       		.uleb128 0x21
 1724 0848 01       		.uleb128 0x1
 1725 0849 50       		.byte	0x50
 1726 084a 02       		.uleb128 0x2
 1727 084b 91       		.byte	0x91
 1728 084c 5C       		.sleb128 -36
 1729 084d 00       		.byte	0
 1730 084e 00       		.byte	0
 1731 084f 27       		.uleb128 0x27
 1732 0850 32000000 		.4byte	.LVL29
 1733 0854 5B090000 		.4byte	0x95b
 1734 0858 00       		.byte	0
 1735 0859 2F       		.uleb128 0x2f
 1736 085a F5020000 		.4byte	.LASF103
 1737 085e 01       		.byte	0x1
 1738 085f 3F01     		.2byte	0x13f
 1739 0861 00000000 		.4byte	.LFB221
 1740 0865 3A000000 		.4byte	.LFE221-.LFB221
 1741 0869 01       		.uleb128 0x1
 1742 086a 9C       		.byte	0x9c
 1743 086b 5B090000 		.4byte	0x95b
 1744 086f 28       		.uleb128 0x28
 1745 0870 7000     		.ascii	"p\000"
 1746 0872 01       		.byte	0x1
 1747 0873 3F01     		.2byte	0x13f
 1748 0875 09020000 		.4byte	0x209
 1749 0879 DE010000 		.4byte	.LLST2
 1750 087d 1B       		.uleb128 0x1b
 1751 087e 747000   		.ascii	"tp\000"
 1752 0881 01       		.byte	0x1
 1753 0882 4001     		.2byte	0x140
 1754 0884 6A010000 		.4byte	0x16a
 1755 0888 23020000 		.4byte	.LLST3
 1756 088c 30       		.uleb128 0x30
 1757 088d CD0A0000 		.4byte	0xacd
 1758 0891 02000000 		.4byte	.LBB76
 1759 0895 06000000 		.4byte	.LBE76-.LBB76
 1760 0899 01       		.byte	0x1
 1761 089a 4201     		.2byte	0x142
 1762 089c DD080000 		.4byte	0x8dd
 1763 08a0 31       		.uleb128 0x31
ARM GAS  /tmp/ccxxfSAv.s 			page 32


 1764 08a1 510B0000 		.4byte	0xb51
 1765 08a5 02000000 		.4byte	.LBB77
 1766 08a9 06000000 		.4byte	.LBE77-.LBB77
 1767 08ad 0D       		.byte	0xd
 1768 08ae 8B01     		.2byte	0x18b
 1769 08b0 31       		.uleb128 0x31
 1770 08b1 630B0000 		.4byte	0xb63
 1771 08b5 02000000 		.4byte	.LBB78
 1772 08b9 06000000 		.4byte	.LBE78-.LBB78
 1773 08bd 0C       		.byte	0xc
 1774 08be 8302     		.2byte	0x283
 1775 08c0 31       		.uleb128 0x31
 1776 08c1 6C0B0000 		.4byte	0xb6c
 1777 08c5 02000000 		.4byte	.LBB79
 1778 08c9 06000000 		.4byte	.LBE79-.LBB79
 1779 08cd 0C       		.byte	0xc
 1780 08ce 6202     		.2byte	0x262
 1781 08d0 1D       		.uleb128 0x1d
 1782 08d1 790B0000 		.4byte	0xb79
 1783 08d5 68020000 		.4byte	.LLST4
 1784 08d9 00       		.byte	0
 1785 08da 00       		.byte	0
 1786 08db 00       		.byte	0
 1787 08dc 00       		.byte	0
 1788 08dd 1C       		.uleb128 0x1c
 1789 08de C40A0000 		.4byte	0xac4
 1790 08e2 14000000 		.4byte	.LBB81
 1791 08e6 18000000 		.4byte	.Ldebug_ranges0+0x18
 1792 08ea 01       		.byte	0x1
 1793 08eb 5F01     		.2byte	0x15f
 1794 08ed 2E090000 		.4byte	0x92e
 1795 08f1 32       		.uleb128 0x32
 1796 08f2 480B0000 		.4byte	0xb48
 1797 08f6 14000000 		.4byte	.LBB82
 1798 08fa 18000000 		.4byte	.Ldebug_ranges0+0x18
 1799 08fe 0D       		.byte	0xd
 1800 08ff A101     		.2byte	0x1a1
 1801 0901 32       		.uleb128 0x32
 1802 0902 5A0B0000 		.4byte	0xb5a
 1803 0906 14000000 		.4byte	.LBB83
 1804 090a 18000000 		.4byte	.Ldebug_ranges0+0x18
 1805 090e 0C       		.byte	0xc
 1806 090f 8E02     		.2byte	0x28e
 1807 0911 32       		.uleb128 0x32
 1808 0912 6C0B0000 		.4byte	0xb6c
 1809 0916 14000000 		.4byte	.LBB84
 1810 091a 18000000 		.4byte	.Ldebug_ranges0+0x18
 1811 091e 0C       		.byte	0xc
 1812 091f 7502     		.2byte	0x275
 1813 0921 1D       		.uleb128 0x1d
 1814 0922 790B0000 		.4byte	0xb79
 1815 0926 7D020000 		.4byte	.LLST5
 1816 092a 00       		.byte	0
 1817 092b 00       		.byte	0
 1818 092c 00       		.byte	0
 1819 092d 00       		.byte	0
 1820 092e 30       		.uleb128 0x30
ARM GAS  /tmp/ccxxfSAv.s 			page 33


 1821 092f E20A0000 		.4byte	0xae2
 1822 0933 2E000000 		.4byte	.LBB91
 1823 0937 0C000000 		.4byte	.LBE91-.LBB91
 1824 093b 01       		.byte	0x1
 1825 093c 5701     		.2byte	0x157
 1826 093e 4A090000 		.4byte	0x94a
 1827 0942 33       		.uleb128 0x33
 1828 0943 F30A0000 		.4byte	0xaf3
 1829 0947 01       		.uleb128 0x1
 1830 0948 50       		.byte	0x50
 1831 0949 00       		.byte	0
 1832 094a 2E       		.uleb128 0x2e
 1833 094b 2A000000 		.4byte	.LVL10
 1834 094f 210A0000 		.4byte	0xa21
 1835 0953 21       		.uleb128 0x21
 1836 0954 01       		.uleb128 0x1
 1837 0955 50       		.byte	0x50
 1838 0956 02       		.uleb128 0x2
 1839 0957 70       		.byte	0x70
 1840 0958 00       		.sleb128 0
 1841 0959 00       		.byte	0
 1842 095a 00       		.byte	0
 1843 095b 1A       		.uleb128 0x1a
 1844 095c 10050000 		.4byte	.LASF78
 1845 0960 01       		.byte	0x1
 1846 0961 2101     		.2byte	0x121
 1847 0963 00000000 		.4byte	.LFB220
 1848 0967 1C000000 		.4byte	.LFE220-.LFB220
 1849 096b 01       		.uleb128 0x1
 1850 096c 9C       		.byte	0x9c
 1851 096d CC090000 		.4byte	0x9cc
 1852 0971 2C       		.uleb128 0x2c
 1853 0972 BB040000 		.4byte	.LASF76
 1854 0976 01       		.byte	0x1
 1855 0977 2101     		.2byte	0x121
 1856 0979 DF000000 		.4byte	0xdf
 1857 097d 91020000 		.4byte	.LLST7
 1858 0981 1B       		.uleb128 0x1b
 1859 0982 6F747000 		.ascii	"otp\000"
 1860 0986 01       		.byte	0x1
 1861 0987 2201     		.2byte	0x122
 1862 0989 6A010000 		.4byte	0x16a
 1863 098d BE020000 		.4byte	.LLST8
 1864 0991 30       		.uleb128 0x30
 1865 0992 FF0A0000 		.4byte	0xaff
 1866 0996 06000000 		.4byte	.LBB93
 1867 099a 08000000 		.4byte	.LBE93-.LBB93
 1868 099e 01       		.byte	0x1
 1869 099f 3001     		.2byte	0x130
 1870 09a1 C2090000 		.4byte	0x9c2
 1871 09a5 1D       		.uleb128 0x1d
 1872 09a6 100B0000 		.4byte	0xb10
 1873 09aa D1020000 		.4byte	.LLST9
 1874 09ae 34       		.uleb128 0x34
 1875 09af 06000000 		.4byte	.LBB94
 1876 09b3 08000000 		.4byte	.LBE94-.LBB94
 1877 09b7 1F       		.uleb128 0x1f
ARM GAS  /tmp/ccxxfSAv.s 			page 34


 1878 09b8 1C0B0000 		.4byte	0xb1c
 1879 09bc E9020000 		.4byte	.LLST10
 1880 09c0 00       		.byte	0
 1881 09c1 00       		.byte	0
 1882 09c2 22       		.uleb128 0x22
 1883 09c3 18000000 		.4byte	.LVL21
 1884 09c7 860B0000 		.4byte	0xb86
 1885 09cb 00       		.byte	0
 1886 09cc 25       		.uleb128 0x25
 1887 09cd 30050000 		.4byte	.LASF79
 1888 09d1 01       		.byte	0x1
 1889 09d2 0101     		.2byte	0x101
 1890 09d4 6A010000 		.4byte	0x16a
 1891 09d8 00000000 		.4byte	.LFB219
 1892 09dc 20000000 		.4byte	.LFE219-.LFB219
 1893 09e0 01       		.uleb128 0x1
 1894 09e1 9C       		.byte	0x9c
 1895 09e2 0C0A0000 		.4byte	0xa0c
 1896 09e6 35       		.uleb128 0x35
 1897 09e7 747000   		.ascii	"tp\000"
 1898 09ea 01       		.byte	0x1
 1899 09eb 0101     		.2byte	0x101
 1900 09ed 6A010000 		.4byte	0x16a
 1901 09f1 01       		.uleb128 0x1
 1902 09f2 50       		.byte	0x50
 1903 09f3 1B       		.uleb128 0x1b
 1904 09f4 637000   		.ascii	"cp\000"
 1905 09f7 01       		.byte	0x1
 1906 09f8 0201     		.2byte	0x102
 1907 09fa 6A010000 		.4byte	0x16a
 1908 09fe FC020000 		.4byte	.LLST6
 1909 0a02 29       		.uleb128 0x29
 1910 0a03 E9040000 		.4byte	.LASF80
 1911 0a07 1C0A0000 		.4byte	0xa1c
 1912 0a0b 00       		.byte	0
 1913 0a0c 13       		.uleb128 0x13
 1914 0a0d 71050000 		.4byte	0x571
 1915 0a11 1C0A0000 		.4byte	0xa1c
 1916 0a15 14       		.uleb128 0x14
 1917 0a16 40030000 		.4byte	0x340
 1918 0a1a 10       		.byte	0x10
 1919 0a1b 00       		.byte	0
 1920 0a1c 05       		.uleb128 0x5
 1921 0a1d 0C0A0000 		.4byte	0xa0c
 1922 0a21 36       		.uleb128 0x36
 1923 0a22 4A050000 		.4byte	.LASF81
 1924 0a26 01       		.byte	0x1
 1925 0a27 DA       		.byte	0xda
 1926 0a28 6A010000 		.4byte	0x16a
 1927 0a2c 00000000 		.4byte	.LFB218
 1928 0a30 20000000 		.4byte	.LFE218-.LFB218
 1929 0a34 01       		.uleb128 0x1
 1930 0a35 9C       		.byte	0x9c
 1931 0a36 5E0A0000 		.4byte	0xa5e
 1932 0a3a 37       		.uleb128 0x37
 1933 0a3b 747000   		.ascii	"tp\000"
 1934 0a3e 01       		.byte	0x1
ARM GAS  /tmp/ccxxfSAv.s 			page 35


 1935 0a3f DA       		.byte	0xda
 1936 0a40 6A010000 		.4byte	0x16a
 1937 0a44 01       		.uleb128 0x1
 1938 0a45 50       		.byte	0x50
 1939 0a46 38       		.uleb128 0x38
 1940 0a47 637000   		.ascii	"cp\000"
 1941 0a4a 01       		.byte	0x1
 1942 0a4b DB       		.byte	0xdb
 1943 0a4c 6A010000 		.4byte	0x16a
 1944 0a50 1F030000 		.4byte	.LLST1
 1945 0a54 29       		.uleb128 0x29
 1946 0a55 E9040000 		.4byte	.LASF80
 1947 0a59 6E0A0000 		.4byte	0xa6e
 1948 0a5d 00       		.byte	0
 1949 0a5e 13       		.uleb128 0x13
 1950 0a5f 71050000 		.4byte	0x571
 1951 0a63 6E0A0000 		.4byte	0xa6e
 1952 0a67 14       		.uleb128 0x14
 1953 0a68 40030000 		.4byte	0x340
 1954 0a6c 0B       		.byte	0xb
 1955 0a6d 00       		.byte	0
 1956 0a6e 05       		.uleb128 0x5
 1957 0a6f 5E0A0000 		.4byte	0xa5e
 1958 0a73 39       		.uleb128 0x39
 1959 0a74 08010000 		.4byte	.LASF82
 1960 0a78 01       		.byte	0x1
 1961 0a79 41       		.byte	0x41
 1962 0a7a 00000000 		.4byte	.LFB217
 1963 0a7e 10000000 		.4byte	.LFE217-.LFB217
 1964 0a82 01       		.uleb128 0x1
 1965 0a83 9C       		.byte	0x9c
 1966 0a84 A20A0000 		.4byte	0xaa2
 1967 0a88 3A       		.uleb128 0x3a
 1968 0a89 2E0B0000 		.4byte	0xb2e
 1969 0a8d 00000000 		.4byte	.LBB55
 1970 0a91 00000000 		.4byte	.Ldebug_ranges0+0
 1971 0a95 01       		.byte	0x1
 1972 0a96 43       		.byte	0x43
 1973 0a97 1D       		.uleb128 0x1d
 1974 0a98 3B0B0000 		.4byte	0xb3b
 1975 0a9c 42030000 		.4byte	.LLST0
 1976 0aa0 00       		.byte	0
 1977 0aa1 00       		.byte	0
 1978 0aa2 3B       		.uleb128 0x3b
 1979 0aa3 F2040000 		.4byte	.LASF86
 1980 0aa7 0E       		.byte	0xe
 1981 0aa8 F1       		.byte	0xf1
 1982 0aa9 E3060000 		.4byte	0x6e3
 1983 0aad 03       		.byte	0x3
 1984 0aae BE0A0000 		.4byte	0xabe
 1985 0ab2 3C       		.uleb128 0x3c
 1986 0ab3 76747000 		.ascii	"vtp\000"
 1987 0ab7 0E       		.byte	0xe
 1988 0ab8 F1       		.byte	0xf1
 1989 0ab9 BE0A0000 		.4byte	0xabe
 1990 0abd 00       		.byte	0
 1991 0abe 0B       		.uleb128 0xb
ARM GAS  /tmp/ccxxfSAv.s 			page 36


 1992 0abf 04       		.byte	0x4
 1993 0ac0 16020000 		.4byte	0x216
 1994 0ac4 3D       		.uleb128 0x3d
 1995 0ac5 7C040000 		.4byte	.LASF83
 1996 0ac9 0D       		.byte	0xd
 1997 0aca 9D01     		.2byte	0x19d
 1998 0acc 03       		.byte	0x3
 1999 0acd 3D       		.uleb128 0x3d
 2000 0ace 11060000 		.4byte	.LASF84
 2001 0ad2 0D       		.byte	0xd
 2002 0ad3 8901     		.2byte	0x189
 2003 0ad5 03       		.byte	0x3
 2004 0ad6 3E       		.uleb128 0x3e
 2005 0ad7 37060000 		.4byte	.LASF85
 2006 0adb 02       		.byte	0x2
 2007 0adc 8402     		.2byte	0x284
 2008 0ade E3060000 		.4byte	0x6e3
 2009 0ae2 3F       		.uleb128 0x3f
 2010 0ae3 72020000 		.4byte	.LASF87
 2011 0ae7 02       		.byte	0x2
 2012 0ae8 7002     		.2byte	0x270
 2013 0aea 6A010000 		.4byte	0x16a
 2014 0aee 03       		.byte	0x3
 2015 0aef FF0A0000 		.4byte	0xaff
 2016 0af3 40       		.uleb128 0x40
 2017 0af4 747000   		.ascii	"tp\000"
 2018 0af7 02       		.byte	0x2
 2019 0af8 7002     		.2byte	0x270
 2020 0afa 6A010000 		.4byte	0x16a
 2021 0afe 00       		.byte	0
 2022 0aff 3F       		.uleb128 0x3f
 2023 0b00 90050000 		.4byte	.LASF88
 2024 0b04 02       		.byte	0x2
 2025 0b05 5E02     		.2byte	0x25e
 2026 0b07 6A010000 		.4byte	0x16a
 2027 0b0b 03       		.byte	0x3
 2028 0b0c 280B0000 		.4byte	0xb28
 2029 0b10 40       		.uleb128 0x40
 2030 0b11 74717000 		.ascii	"tqp\000"
 2031 0b15 02       		.byte	0x2
 2032 0b16 5E02     		.2byte	0x25e
 2033 0b18 280B0000 		.4byte	0xb28
 2034 0b1c 24       		.uleb128 0x24
 2035 0b1d 747000   		.ascii	"tp\000"
 2036 0b20 02       		.byte	0x2
 2037 0b21 5F02     		.2byte	0x25f
 2038 0b23 6A010000 		.4byte	0x16a
 2039 0b27 00       		.byte	0
 2040 0b28 0B       		.uleb128 0xb
 2041 0b29 04       		.byte	0x4
 2042 0b2a 70010000 		.4byte	0x170
 2043 0b2e 41       		.uleb128 0x41
 2044 0b2f 78000000 		.4byte	.LASF93
 2045 0b33 02       		.byte	0x2
 2046 0b34 1902     		.2byte	0x219
 2047 0b36 03       		.byte	0x3
 2048 0b37 480B0000 		.4byte	0xb48
ARM GAS  /tmp/ccxxfSAv.s 			page 37


 2049 0b3b 40       		.uleb128 0x40
 2050 0b3c 74717000 		.ascii	"tqp\000"
 2051 0b40 02       		.byte	0x2
 2052 0b41 1902     		.2byte	0x219
 2053 0b43 280B0000 		.4byte	0xb28
 2054 0b47 00       		.byte	0
 2055 0b48 3D       		.uleb128 0x3d
 2056 0b49 72050000 		.4byte	.LASF89
 2057 0b4d 0C       		.byte	0xc
 2058 0b4e 8C02     		.2byte	0x28c
 2059 0b50 03       		.byte	0x3
 2060 0b51 3D       		.uleb128 0x3d
 2061 0b52 CD050000 		.4byte	.LASF90
 2062 0b56 0C       		.byte	0xc
 2063 0b57 8102     		.2byte	0x281
 2064 0b59 03       		.byte	0x3
 2065 0b5a 3D       		.uleb128 0x3d
 2066 0b5b 57020000 		.4byte	.LASF91
 2067 0b5f 0C       		.byte	0xc
 2068 0b60 7202     		.2byte	0x272
 2069 0b62 03       		.byte	0x3
 2070 0b63 3D       		.uleb128 0x3d
 2071 0b64 83000000 		.4byte	.LASF92
 2072 0b68 0C       		.byte	0xc
 2073 0b69 5A02     		.2byte	0x25a
 2074 0b6b 03       		.byte	0x3
 2075 0b6c 41       		.uleb128 0x41
 2076 0b6d B5050000 		.4byte	.LASF94
 2077 0b71 03       		.byte	0x3
 2078 0b72 EB01     		.2byte	0x1eb
 2079 0b74 03       		.byte	0x3
 2080 0b75 860B0000 		.4byte	0xb86
 2081 0b79 42       		.uleb128 0x42
 2082 0b7a 48020000 		.4byte	.LASF95
 2083 0b7e 03       		.byte	0x3
 2084 0b7f EB01     		.2byte	0x1eb
 2085 0b81 BE000000 		.4byte	0xbe
 2086 0b85 00       		.byte	0
 2087 0b86 43       		.uleb128 0x43
 2088 0b87 0C030000 		.4byte	.LASF96
 2089 0b8b 0C030000 		.4byte	.LASF96
 2090 0b8f 0C       		.byte	0xc
 2091 0b90 F301     		.2byte	0x1f3
 2092 0b92 44       		.uleb128 0x44
 2093 0b93 9B030000 		.4byte	.LASF97
 2094 0b97 9B030000 		.4byte	.LASF97
 2095 0b9b 0E       		.byte	0xe
 2096 0b9c 4B       		.byte	0x4b
 2097 0b9d 44       		.uleb128 0x44
 2098 0b9e A4000000 		.4byte	.LASF98
 2099 0ba2 A4000000 		.4byte	.LASF98
 2100 0ba6 0E       		.byte	0xe
 2101 0ba7 4D       		.byte	0x4d
 2102 0ba8 00       		.byte	0
 2103              		.section	.debug_abbrev,"",%progbits
 2104              	.Ldebug_abbrev0:
 2105 0000 01       		.uleb128 0x1
ARM GAS  /tmp/ccxxfSAv.s 			page 38


 2106 0001 11       		.uleb128 0x11
 2107 0002 01       		.byte	0x1
 2108 0003 25       		.uleb128 0x25
 2109 0004 0E       		.uleb128 0xe
 2110 0005 13       		.uleb128 0x13
 2111 0006 0B       		.uleb128 0xb
 2112 0007 03       		.uleb128 0x3
 2113 0008 0E       		.uleb128 0xe
 2114 0009 1B       		.uleb128 0x1b
 2115 000a 0E       		.uleb128 0xe
 2116 000b 55       		.uleb128 0x55
 2117 000c 17       		.uleb128 0x17
 2118 000d 11       		.uleb128 0x11
 2119 000e 01       		.uleb128 0x1
 2120 000f 10       		.uleb128 0x10
 2121 0010 17       		.uleb128 0x17
 2122 0011 00       		.byte	0
 2123 0012 00       		.byte	0
 2124 0013 02       		.uleb128 0x2
 2125 0014 24       		.uleb128 0x24
 2126 0015 00       		.byte	0
 2127 0016 0B       		.uleb128 0xb
 2128 0017 0B       		.uleb128 0xb
 2129 0018 3E       		.uleb128 0x3e
 2130 0019 0B       		.uleb128 0xb
 2131 001a 03       		.uleb128 0x3
 2132 001b 08       		.uleb128 0x8
 2133 001c 00       		.byte	0
 2134 001d 00       		.byte	0
 2135 001e 03       		.uleb128 0x3
 2136 001f 24       		.uleb128 0x24
 2137 0020 00       		.byte	0
 2138 0021 0B       		.uleb128 0xb
 2139 0022 0B       		.uleb128 0xb
 2140 0023 3E       		.uleb128 0x3e
 2141 0024 0B       		.uleb128 0xb
 2142 0025 03       		.uleb128 0x3
 2143 0026 0E       		.uleb128 0xe
 2144 0027 00       		.byte	0
 2145 0028 00       		.byte	0
 2146 0029 04       		.uleb128 0x4
 2147 002a 16       		.uleb128 0x16
 2148 002b 00       		.byte	0
 2149 002c 03       		.uleb128 0x3
 2150 002d 0E       		.uleb128 0xe
 2151 002e 3A       		.uleb128 0x3a
 2152 002f 0B       		.uleb128 0xb
 2153 0030 3B       		.uleb128 0x3b
 2154 0031 0B       		.uleb128 0xb
 2155 0032 49       		.uleb128 0x49
 2156 0033 13       		.uleb128 0x13
 2157 0034 00       		.byte	0
 2158 0035 00       		.byte	0
 2159 0036 05       		.uleb128 0x5
 2160 0037 26       		.uleb128 0x26
 2161 0038 00       		.byte	0
 2162 0039 49       		.uleb128 0x49
ARM GAS  /tmp/ccxxfSAv.s 			page 39


 2163 003a 13       		.uleb128 0x13
 2164 003b 00       		.byte	0
 2165 003c 00       		.byte	0
 2166 003d 06       		.uleb128 0x6
 2167 003e 35       		.uleb128 0x35
 2168 003f 00       		.byte	0
 2169 0040 49       		.uleb128 0x49
 2170 0041 13       		.uleb128 0x13
 2171 0042 00       		.byte	0
 2172 0043 00       		.byte	0
 2173 0044 07       		.uleb128 0x7
 2174 0045 13       		.uleb128 0x13
 2175 0046 01       		.byte	0x1
 2176 0047 03       		.uleb128 0x3
 2177 0048 0E       		.uleb128 0xe
 2178 0049 0B       		.uleb128 0xb
 2179 004a 0B       		.uleb128 0xb
 2180 004b 3A       		.uleb128 0x3a
 2181 004c 0B       		.uleb128 0xb
 2182 004d 3B       		.uleb128 0x3b
 2183 004e 0B       		.uleb128 0xb
 2184 004f 01       		.uleb128 0x1
 2185 0050 13       		.uleb128 0x13
 2186 0051 00       		.byte	0
 2187 0052 00       		.byte	0
 2188 0053 08       		.uleb128 0x8
 2189 0054 0D       		.uleb128 0xd
 2190 0055 00       		.byte	0
 2191 0056 03       		.uleb128 0x3
 2192 0057 0E       		.uleb128 0xe
 2193 0058 3A       		.uleb128 0x3a
 2194 0059 0B       		.uleb128 0xb
 2195 005a 3B       		.uleb128 0x3b
 2196 005b 0B       		.uleb128 0xb
 2197 005c 49       		.uleb128 0x49
 2198 005d 13       		.uleb128 0x13
 2199 005e 38       		.uleb128 0x38
 2200 005f 0B       		.uleb128 0xb
 2201 0060 00       		.byte	0
 2202 0061 00       		.byte	0
 2203 0062 09       		.uleb128 0x9
 2204 0063 0D       		.uleb128 0xd
 2205 0064 00       		.byte	0
 2206 0065 03       		.uleb128 0x3
 2207 0066 08       		.uleb128 0x8
 2208 0067 3A       		.uleb128 0x3a
 2209 0068 0B       		.uleb128 0xb
 2210 0069 3B       		.uleb128 0x3b
 2211 006a 0B       		.uleb128 0xb
 2212 006b 49       		.uleb128 0x49
 2213 006c 13       		.uleb128 0x13
 2214 006d 38       		.uleb128 0x38
 2215 006e 0B       		.uleb128 0xb
 2216 006f 00       		.byte	0
 2217 0070 00       		.byte	0
 2218 0071 0A       		.uleb128 0xa
 2219 0072 0D       		.uleb128 0xd
ARM GAS  /tmp/ccxxfSAv.s 			page 40


 2220 0073 00       		.byte	0
 2221 0074 03       		.uleb128 0x3
 2222 0075 08       		.uleb128 0x8
 2223 0076 3A       		.uleb128 0x3a
 2224 0077 0B       		.uleb128 0xb
 2225 0078 3B       		.uleb128 0x3b
 2226 0079 05       		.uleb128 0x5
 2227 007a 49       		.uleb128 0x49
 2228 007b 13       		.uleb128 0x13
 2229 007c 38       		.uleb128 0x38
 2230 007d 0B       		.uleb128 0xb
 2231 007e 00       		.byte	0
 2232 007f 00       		.byte	0
 2233 0080 0B       		.uleb128 0xb
 2234 0081 0F       		.uleb128 0xf
 2235 0082 00       		.byte	0
 2236 0083 0B       		.uleb128 0xb
 2237 0084 0B       		.uleb128 0xb
 2238 0085 49       		.uleb128 0x49
 2239 0086 13       		.uleb128 0x13
 2240 0087 00       		.byte	0
 2241 0088 00       		.byte	0
 2242 0089 0C       		.uleb128 0xc
 2243 008a 13       		.uleb128 0x13
 2244 008b 01       		.byte	0x1
 2245 008c 03       		.uleb128 0x3
 2246 008d 0E       		.uleb128 0xe
 2247 008e 0B       		.uleb128 0xb
 2248 008f 0B       		.uleb128 0xb
 2249 0090 3A       		.uleb128 0x3a
 2250 0091 0B       		.uleb128 0xb
 2251 0092 3B       		.uleb128 0x3b
 2252 0093 05       		.uleb128 0x5
 2253 0094 01       		.uleb128 0x1
 2254 0095 13       		.uleb128 0x13
 2255 0096 00       		.byte	0
 2256 0097 00       		.byte	0
 2257 0098 0D       		.uleb128 0xd
 2258 0099 0D       		.uleb128 0xd
 2259 009a 00       		.byte	0
 2260 009b 03       		.uleb128 0x3
 2261 009c 0E       		.uleb128 0xe
 2262 009d 3A       		.uleb128 0x3a
 2263 009e 0B       		.uleb128 0xb
 2264 009f 3B       		.uleb128 0x3b
 2265 00a0 05       		.uleb128 0x5
 2266 00a1 49       		.uleb128 0x49
 2267 00a2 13       		.uleb128 0x13
 2268 00a3 38       		.uleb128 0x38
 2269 00a4 0B       		.uleb128 0xb
 2270 00a5 00       		.byte	0
 2271 00a6 00       		.byte	0
 2272 00a7 0E       		.uleb128 0xe
 2273 00a8 15       		.uleb128 0x15
 2274 00a9 01       		.byte	0x1
 2275 00aa 27       		.uleb128 0x27
 2276 00ab 19       		.uleb128 0x19
ARM GAS  /tmp/ccxxfSAv.s 			page 41


 2277 00ac 01       		.uleb128 0x1
 2278 00ad 13       		.uleb128 0x13
 2279 00ae 00       		.byte	0
 2280 00af 00       		.byte	0
 2281 00b0 0F       		.uleb128 0xf
 2282 00b1 05       		.uleb128 0x5
 2283 00b2 00       		.byte	0
 2284 00b3 49       		.uleb128 0x49
 2285 00b4 13       		.uleb128 0x13
 2286 00b5 00       		.byte	0
 2287 00b6 00       		.byte	0
 2288 00b7 10       		.uleb128 0x10
 2289 00b8 0F       		.uleb128 0xf
 2290 00b9 00       		.byte	0
 2291 00ba 0B       		.uleb128 0xb
 2292 00bb 0B       		.uleb128 0xb
 2293 00bc 00       		.byte	0
 2294 00bd 00       		.byte	0
 2295 00be 11       		.uleb128 0x11
 2296 00bf 34       		.uleb128 0x34
 2297 00c0 00       		.byte	0
 2298 00c1 03       		.uleb128 0x3
 2299 00c2 0E       		.uleb128 0xe
 2300 00c3 3A       		.uleb128 0x3a
 2301 00c4 0B       		.uleb128 0xb
 2302 00c5 3B       		.uleb128 0x3b
 2303 00c6 05       		.uleb128 0x5
 2304 00c7 49       		.uleb128 0x49
 2305 00c8 13       		.uleb128 0x13
 2306 00c9 3F       		.uleb128 0x3f
 2307 00ca 19       		.uleb128 0x19
 2308 00cb 3C       		.uleb128 0x3c
 2309 00cc 19       		.uleb128 0x19
 2310 00cd 00       		.byte	0
 2311 00ce 00       		.byte	0
 2312 00cf 12       		.uleb128 0x12
 2313 00d0 34       		.uleb128 0x34
 2314 00d1 00       		.byte	0
 2315 00d2 03       		.uleb128 0x3
 2316 00d3 0E       		.uleb128 0xe
 2317 00d4 3A       		.uleb128 0x3a
 2318 00d5 0B       		.uleb128 0xb
 2319 00d6 3B       		.uleb128 0x3b
 2320 00d7 0B       		.uleb128 0xb
 2321 00d8 49       		.uleb128 0x49
 2322 00d9 13       		.uleb128 0x13
 2323 00da 3F       		.uleb128 0x3f
 2324 00db 19       		.uleb128 0x19
 2325 00dc 3C       		.uleb128 0x3c
 2326 00dd 19       		.uleb128 0x19
 2327 00de 00       		.byte	0
 2328 00df 00       		.byte	0
 2329 00e0 13       		.uleb128 0x13
 2330 00e1 01       		.uleb128 0x1
 2331 00e2 01       		.byte	0x1
 2332 00e3 49       		.uleb128 0x49
 2333 00e4 13       		.uleb128 0x13
ARM GAS  /tmp/ccxxfSAv.s 			page 42


 2334 00e5 01       		.uleb128 0x1
 2335 00e6 13       		.uleb128 0x13
 2336 00e7 00       		.byte	0
 2337 00e8 00       		.byte	0
 2338 00e9 14       		.uleb128 0x14
 2339 00ea 21       		.uleb128 0x21
 2340 00eb 00       		.byte	0
 2341 00ec 49       		.uleb128 0x49
 2342 00ed 13       		.uleb128 0x13
 2343 00ee 2F       		.uleb128 0x2f
 2344 00ef 0B       		.uleb128 0xb
 2345 00f0 00       		.byte	0
 2346 00f1 00       		.byte	0
 2347 00f2 15       		.uleb128 0x15
 2348 00f3 17       		.uleb128 0x17
 2349 00f4 01       		.byte	0x1
 2350 00f5 0B       		.uleb128 0xb
 2351 00f6 0B       		.uleb128 0xb
 2352 00f7 3A       		.uleb128 0x3a
 2353 00f8 0B       		.uleb128 0xb
 2354 00f9 3B       		.uleb128 0x3b
 2355 00fa 0B       		.uleb128 0xb
 2356 00fb 01       		.uleb128 0x1
 2357 00fc 13       		.uleb128 0x13
 2358 00fd 00       		.byte	0
 2359 00fe 00       		.byte	0
 2360 00ff 16       		.uleb128 0x16
 2361 0100 0D       		.uleb128 0xd
 2362 0101 00       		.byte	0
 2363 0102 03       		.uleb128 0x3
 2364 0103 0E       		.uleb128 0xe
 2365 0104 3A       		.uleb128 0x3a
 2366 0105 0B       		.uleb128 0xb
 2367 0106 3B       		.uleb128 0x3b
 2368 0107 0B       		.uleb128 0xb
 2369 0108 49       		.uleb128 0x49
 2370 0109 13       		.uleb128 0x13
 2371 010a 00       		.byte	0
 2372 010b 00       		.byte	0
 2373 010c 17       		.uleb128 0x17
 2374 010d 34       		.uleb128 0x34
 2375 010e 00       		.byte	0
 2376 010f 03       		.uleb128 0x3
 2377 0110 08       		.uleb128 0x8
 2378 0111 3A       		.uleb128 0x3a
 2379 0112 0B       		.uleb128 0xb
 2380 0113 3B       		.uleb128 0x3b
 2381 0114 05       		.uleb128 0x5
 2382 0115 49       		.uleb128 0x49
 2383 0116 13       		.uleb128 0x13
 2384 0117 3F       		.uleb128 0x3f
 2385 0118 19       		.uleb128 0x19
 2386 0119 3C       		.uleb128 0x3c
 2387 011a 19       		.uleb128 0x19
 2388 011b 00       		.byte	0
 2389 011c 00       		.byte	0
 2390 011d 18       		.uleb128 0x18
ARM GAS  /tmp/ccxxfSAv.s 			page 43


 2391 011e 21       		.uleb128 0x21
 2392 011f 00       		.byte	0
 2393 0120 00       		.byte	0
 2394 0121 00       		.byte	0
 2395 0122 19       		.uleb128 0x19
 2396 0123 34       		.uleb128 0x34
 2397 0124 00       		.byte	0
 2398 0125 47       		.uleb128 0x47
 2399 0126 13       		.uleb128 0x13
 2400 0127 3A       		.uleb128 0x3a
 2401 0128 0B       		.uleb128 0xb
 2402 0129 3B       		.uleb128 0x3b
 2403 012a 0B       		.uleb128 0xb
 2404 012b 02       		.uleb128 0x2
 2405 012c 18       		.uleb128 0x18
 2406 012d 00       		.byte	0
 2407 012e 00       		.byte	0
 2408 012f 1A       		.uleb128 0x1a
 2409 0130 2E       		.uleb128 0x2e
 2410 0131 01       		.byte	0x1
 2411 0132 3F       		.uleb128 0x3f
 2412 0133 19       		.uleb128 0x19
 2413 0134 03       		.uleb128 0x3
 2414 0135 0E       		.uleb128 0xe
 2415 0136 3A       		.uleb128 0x3a
 2416 0137 0B       		.uleb128 0xb
 2417 0138 3B       		.uleb128 0x3b
 2418 0139 05       		.uleb128 0x5
 2419 013a 27       		.uleb128 0x27
 2420 013b 19       		.uleb128 0x19
 2421 013c 11       		.uleb128 0x11
 2422 013d 01       		.uleb128 0x1
 2423 013e 12       		.uleb128 0x12
 2424 013f 06       		.uleb128 0x6
 2425 0140 40       		.uleb128 0x40
 2426 0141 18       		.uleb128 0x18
 2427 0142 9742     		.uleb128 0x2117
 2428 0144 19       		.uleb128 0x19
 2429 0145 01       		.uleb128 0x1
 2430 0146 13       		.uleb128 0x13
 2431 0147 00       		.byte	0
 2432 0148 00       		.byte	0
 2433 0149 1B       		.uleb128 0x1b
 2434 014a 34       		.uleb128 0x34
 2435 014b 00       		.byte	0
 2436 014c 03       		.uleb128 0x3
 2437 014d 08       		.uleb128 0x8
 2438 014e 3A       		.uleb128 0x3a
 2439 014f 0B       		.uleb128 0xb
 2440 0150 3B       		.uleb128 0x3b
 2441 0151 05       		.uleb128 0x5
 2442 0152 49       		.uleb128 0x49
 2443 0153 13       		.uleb128 0x13
 2444 0154 02       		.uleb128 0x2
 2445 0155 17       		.uleb128 0x17
 2446 0156 00       		.byte	0
 2447 0157 00       		.byte	0
ARM GAS  /tmp/ccxxfSAv.s 			page 44


 2448 0158 1C       		.uleb128 0x1c
 2449 0159 1D       		.uleb128 0x1d
 2450 015a 01       		.byte	0x1
 2451 015b 31       		.uleb128 0x31
 2452 015c 13       		.uleb128 0x13
 2453 015d 52       		.uleb128 0x52
 2454 015e 01       		.uleb128 0x1
 2455 015f 55       		.uleb128 0x55
 2456 0160 17       		.uleb128 0x17
 2457 0161 58       		.uleb128 0x58
 2458 0162 0B       		.uleb128 0xb
 2459 0163 59       		.uleb128 0x59
 2460 0164 05       		.uleb128 0x5
 2461 0165 01       		.uleb128 0x1
 2462 0166 13       		.uleb128 0x13
 2463 0167 00       		.byte	0
 2464 0168 00       		.byte	0
 2465 0169 1D       		.uleb128 0x1d
 2466 016a 05       		.uleb128 0x5
 2467 016b 00       		.byte	0
 2468 016c 31       		.uleb128 0x31
 2469 016d 13       		.uleb128 0x13
 2470 016e 02       		.uleb128 0x2
 2471 016f 17       		.uleb128 0x17
 2472 0170 00       		.byte	0
 2473 0171 00       		.byte	0
 2474 0172 1E       		.uleb128 0x1e
 2475 0173 0B       		.uleb128 0xb
 2476 0174 01       		.byte	0x1
 2477 0175 55       		.uleb128 0x55
 2478 0176 17       		.uleb128 0x17
 2479 0177 00       		.byte	0
 2480 0178 00       		.byte	0
 2481 0179 1F       		.uleb128 0x1f
 2482 017a 34       		.uleb128 0x34
 2483 017b 00       		.byte	0
 2484 017c 31       		.uleb128 0x31
 2485 017d 13       		.uleb128 0x13
 2486 017e 02       		.uleb128 0x2
 2487 017f 17       		.uleb128 0x17
 2488 0180 00       		.byte	0
 2489 0181 00       		.byte	0
 2490 0182 20       		.uleb128 0x20
 2491 0183 898201   		.uleb128 0x4109
 2492 0186 01       		.byte	0x1
 2493 0187 11       		.uleb128 0x11
 2494 0188 01       		.uleb128 0x1
 2495 0189 31       		.uleb128 0x31
 2496 018a 13       		.uleb128 0x13
 2497 018b 01       		.uleb128 0x1
 2498 018c 13       		.uleb128 0x13
 2499 018d 00       		.byte	0
 2500 018e 00       		.byte	0
 2501 018f 21       		.uleb128 0x21
 2502 0190 8A8201   		.uleb128 0x410a
 2503 0193 00       		.byte	0
 2504 0194 02       		.uleb128 0x2
ARM GAS  /tmp/ccxxfSAv.s 			page 45


 2505 0195 18       		.uleb128 0x18
 2506 0196 9142     		.uleb128 0x2111
 2507 0198 18       		.uleb128 0x18
 2508 0199 00       		.byte	0
 2509 019a 00       		.byte	0
 2510 019b 22       		.uleb128 0x22
 2511 019c 898201   		.uleb128 0x4109
 2512 019f 00       		.byte	0
 2513 01a0 11       		.uleb128 0x11
 2514 01a1 01       		.uleb128 0x1
 2515 01a2 9542     		.uleb128 0x2115
 2516 01a4 19       		.uleb128 0x19
 2517 01a5 31       		.uleb128 0x31
 2518 01a6 13       		.uleb128 0x13
 2519 01a7 00       		.byte	0
 2520 01a8 00       		.byte	0
 2521 01a9 23       		.uleb128 0x23
 2522 01aa 2E       		.uleb128 0x2e
 2523 01ab 01       		.byte	0x1
 2524 01ac 3F       		.uleb128 0x3f
 2525 01ad 19       		.uleb128 0x19
 2526 01ae 03       		.uleb128 0x3
 2527 01af 0E       		.uleb128 0xe
 2528 01b0 3A       		.uleb128 0x3a
 2529 01b1 0B       		.uleb128 0xb
 2530 01b2 3B       		.uleb128 0x3b
 2531 01b3 05       		.uleb128 0x5
 2532 01b4 27       		.uleb128 0x27
 2533 01b5 19       		.uleb128 0x19
 2534 01b6 01       		.uleb128 0x1
 2535 01b7 13       		.uleb128 0x13
 2536 01b8 00       		.byte	0
 2537 01b9 00       		.byte	0
 2538 01ba 24       		.uleb128 0x24
 2539 01bb 34       		.uleb128 0x34
 2540 01bc 00       		.byte	0
 2541 01bd 03       		.uleb128 0x3
 2542 01be 08       		.uleb128 0x8
 2543 01bf 3A       		.uleb128 0x3a
 2544 01c0 0B       		.uleb128 0xb
 2545 01c1 3B       		.uleb128 0x3b
 2546 01c2 05       		.uleb128 0x5
 2547 01c3 49       		.uleb128 0x49
 2548 01c4 13       		.uleb128 0x13
 2549 01c5 00       		.byte	0
 2550 01c6 00       		.byte	0
 2551 01c7 25       		.uleb128 0x25
 2552 01c8 2E       		.uleb128 0x2e
 2553 01c9 01       		.byte	0x1
 2554 01ca 3F       		.uleb128 0x3f
 2555 01cb 19       		.uleb128 0x19
 2556 01cc 03       		.uleb128 0x3
 2557 01cd 0E       		.uleb128 0xe
 2558 01ce 3A       		.uleb128 0x3a
 2559 01cf 0B       		.uleb128 0xb
 2560 01d0 3B       		.uleb128 0x3b
 2561 01d1 05       		.uleb128 0x5
ARM GAS  /tmp/ccxxfSAv.s 			page 46


 2562 01d2 27       		.uleb128 0x27
 2563 01d3 19       		.uleb128 0x19
 2564 01d4 49       		.uleb128 0x49
 2565 01d5 13       		.uleb128 0x13
 2566 01d6 11       		.uleb128 0x11
 2567 01d7 01       		.uleb128 0x1
 2568 01d8 12       		.uleb128 0x12
 2569 01d9 06       		.uleb128 0x6
 2570 01da 40       		.uleb128 0x40
 2571 01db 18       		.uleb128 0x18
 2572 01dc 9742     		.uleb128 0x2117
 2573 01de 19       		.uleb128 0x19
 2574 01df 01       		.uleb128 0x1
 2575 01e0 13       		.uleb128 0x13
 2576 01e1 00       		.byte	0
 2577 01e2 00       		.byte	0
 2578 01e3 26       		.uleb128 0x26
 2579 01e4 34       		.uleb128 0x34
 2580 01e5 00       		.byte	0
 2581 01e6 03       		.uleb128 0x3
 2582 01e7 08       		.uleb128 0x8
 2583 01e8 3A       		.uleb128 0x3a
 2584 01e9 0B       		.uleb128 0xb
 2585 01ea 3B       		.uleb128 0x3b
 2586 01eb 05       		.uleb128 0x5
 2587 01ec 49       		.uleb128 0x49
 2588 01ed 13       		.uleb128 0x13
 2589 01ee 02       		.uleb128 0x2
 2590 01ef 18       		.uleb128 0x18
 2591 01f0 00       		.byte	0
 2592 01f1 00       		.byte	0
 2593 01f2 27       		.uleb128 0x27
 2594 01f3 898201   		.uleb128 0x4109
 2595 01f6 00       		.byte	0
 2596 01f7 11       		.uleb128 0x11
 2597 01f8 01       		.uleb128 0x1
 2598 01f9 31       		.uleb128 0x31
 2599 01fa 13       		.uleb128 0x13
 2600 01fb 00       		.byte	0
 2601 01fc 00       		.byte	0
 2602 01fd 28       		.uleb128 0x28
 2603 01fe 05       		.uleb128 0x5
 2604 01ff 00       		.byte	0
 2605 0200 03       		.uleb128 0x3
 2606 0201 08       		.uleb128 0x8
 2607 0202 3A       		.uleb128 0x3a
 2608 0203 0B       		.uleb128 0xb
 2609 0204 3B       		.uleb128 0x3b
 2610 0205 05       		.uleb128 0x5
 2611 0206 49       		.uleb128 0x49
 2612 0207 13       		.uleb128 0x13
 2613 0208 02       		.uleb128 0x2
 2614 0209 17       		.uleb128 0x17
 2615 020a 00       		.byte	0
 2616 020b 00       		.byte	0
 2617 020c 29       		.uleb128 0x29
 2618 020d 34       		.uleb128 0x34
ARM GAS  /tmp/ccxxfSAv.s 			page 47


 2619 020e 00       		.byte	0
 2620 020f 03       		.uleb128 0x3
 2621 0210 0E       		.uleb128 0xe
 2622 0211 49       		.uleb128 0x49
 2623 0212 13       		.uleb128 0x13
 2624 0213 34       		.uleb128 0x34
 2625 0214 19       		.uleb128 0x19
 2626 0215 00       		.byte	0
 2627 0216 00       		.byte	0
 2628 0217 2A       		.uleb128 0x2a
 2629 0218 898201   		.uleb128 0x4109
 2630 021b 01       		.byte	0x1
 2631 021c 11       		.uleb128 0x11
 2632 021d 01       		.uleb128 0x1
 2633 021e 9542     		.uleb128 0x2115
 2634 0220 19       		.uleb128 0x19
 2635 0221 31       		.uleb128 0x31
 2636 0222 13       		.uleb128 0x13
 2637 0223 01       		.uleb128 0x1
 2638 0224 13       		.uleb128 0x13
 2639 0225 00       		.byte	0
 2640 0226 00       		.byte	0
 2641 0227 2B       		.uleb128 0x2b
 2642 0228 898201   		.uleb128 0x4109
 2643 022b 01       		.byte	0x1
 2644 022c 11       		.uleb128 0x11
 2645 022d 01       		.uleb128 0x1
 2646 022e 9542     		.uleb128 0x2115
 2647 0230 19       		.uleb128 0x19
 2648 0231 31       		.uleb128 0x31
 2649 0232 13       		.uleb128 0x13
 2650 0233 00       		.byte	0
 2651 0234 00       		.byte	0
 2652 0235 2C       		.uleb128 0x2c
 2653 0236 05       		.uleb128 0x5
 2654 0237 00       		.byte	0
 2655 0238 03       		.uleb128 0x3
 2656 0239 0E       		.uleb128 0xe
 2657 023a 3A       		.uleb128 0x3a
 2658 023b 0B       		.uleb128 0xb
 2659 023c 3B       		.uleb128 0x3b
 2660 023d 05       		.uleb128 0x5
 2661 023e 49       		.uleb128 0x49
 2662 023f 13       		.uleb128 0x13
 2663 0240 02       		.uleb128 0x2
 2664 0241 17       		.uleb128 0x17
 2665 0242 00       		.byte	0
 2666 0243 00       		.byte	0
 2667 0244 2D       		.uleb128 0x2d
 2668 0245 0B       		.uleb128 0xb
 2669 0246 01       		.byte	0x1
 2670 0247 11       		.uleb128 0x11
 2671 0248 01       		.uleb128 0x1
 2672 0249 12       		.uleb128 0x12
 2673 024a 06       		.uleb128 0x6
 2674 024b 01       		.uleb128 0x1
 2675 024c 13       		.uleb128 0x13
ARM GAS  /tmp/ccxxfSAv.s 			page 48


 2676 024d 00       		.byte	0
 2677 024e 00       		.byte	0
 2678 024f 2E       		.uleb128 0x2e
 2679 0250 898201   		.uleb128 0x4109
 2680 0253 01       		.byte	0x1
 2681 0254 11       		.uleb128 0x11
 2682 0255 01       		.uleb128 0x1
 2683 0256 31       		.uleb128 0x31
 2684 0257 13       		.uleb128 0x13
 2685 0258 00       		.byte	0
 2686 0259 00       		.byte	0
 2687 025a 2F       		.uleb128 0x2f
 2688 025b 2E       		.uleb128 0x2e
 2689 025c 01       		.byte	0x1
 2690 025d 03       		.uleb128 0x3
 2691 025e 0E       		.uleb128 0xe
 2692 025f 3A       		.uleb128 0x3a
 2693 0260 0B       		.uleb128 0xb
 2694 0261 3B       		.uleb128 0x3b
 2695 0262 05       		.uleb128 0x5
 2696 0263 27       		.uleb128 0x27
 2697 0264 19       		.uleb128 0x19
 2698 0265 11       		.uleb128 0x11
 2699 0266 01       		.uleb128 0x1
 2700 0267 12       		.uleb128 0x12
 2701 0268 06       		.uleb128 0x6
 2702 0269 40       		.uleb128 0x40
 2703 026a 18       		.uleb128 0x18
 2704 026b 9742     		.uleb128 0x2117
 2705 026d 19       		.uleb128 0x19
 2706 026e 01       		.uleb128 0x1
 2707 026f 13       		.uleb128 0x13
 2708 0270 00       		.byte	0
 2709 0271 00       		.byte	0
 2710 0272 30       		.uleb128 0x30
 2711 0273 1D       		.uleb128 0x1d
 2712 0274 01       		.byte	0x1
 2713 0275 31       		.uleb128 0x31
 2714 0276 13       		.uleb128 0x13
 2715 0277 11       		.uleb128 0x11
 2716 0278 01       		.uleb128 0x1
 2717 0279 12       		.uleb128 0x12
 2718 027a 06       		.uleb128 0x6
 2719 027b 58       		.uleb128 0x58
 2720 027c 0B       		.uleb128 0xb
 2721 027d 59       		.uleb128 0x59
 2722 027e 05       		.uleb128 0x5
 2723 027f 01       		.uleb128 0x1
 2724 0280 13       		.uleb128 0x13
 2725 0281 00       		.byte	0
 2726 0282 00       		.byte	0
 2727 0283 31       		.uleb128 0x31
 2728 0284 1D       		.uleb128 0x1d
 2729 0285 01       		.byte	0x1
 2730 0286 31       		.uleb128 0x31
 2731 0287 13       		.uleb128 0x13
 2732 0288 11       		.uleb128 0x11
ARM GAS  /tmp/ccxxfSAv.s 			page 49


 2733 0289 01       		.uleb128 0x1
 2734 028a 12       		.uleb128 0x12
 2735 028b 06       		.uleb128 0x6
 2736 028c 58       		.uleb128 0x58
 2737 028d 0B       		.uleb128 0xb
 2738 028e 59       		.uleb128 0x59
 2739 028f 05       		.uleb128 0x5
 2740 0290 00       		.byte	0
 2741 0291 00       		.byte	0
 2742 0292 32       		.uleb128 0x32
 2743 0293 1D       		.uleb128 0x1d
 2744 0294 01       		.byte	0x1
 2745 0295 31       		.uleb128 0x31
 2746 0296 13       		.uleb128 0x13
 2747 0297 52       		.uleb128 0x52
 2748 0298 01       		.uleb128 0x1
 2749 0299 55       		.uleb128 0x55
 2750 029a 17       		.uleb128 0x17
 2751 029b 58       		.uleb128 0x58
 2752 029c 0B       		.uleb128 0xb
 2753 029d 59       		.uleb128 0x59
 2754 029e 05       		.uleb128 0x5
 2755 029f 00       		.byte	0
 2756 02a0 00       		.byte	0
 2757 02a1 33       		.uleb128 0x33
 2758 02a2 05       		.uleb128 0x5
 2759 02a3 00       		.byte	0
 2760 02a4 31       		.uleb128 0x31
 2761 02a5 13       		.uleb128 0x13
 2762 02a6 02       		.uleb128 0x2
 2763 02a7 18       		.uleb128 0x18
 2764 02a8 00       		.byte	0
 2765 02a9 00       		.byte	0
 2766 02aa 34       		.uleb128 0x34
 2767 02ab 0B       		.uleb128 0xb
 2768 02ac 01       		.byte	0x1
 2769 02ad 11       		.uleb128 0x11
 2770 02ae 01       		.uleb128 0x1
 2771 02af 12       		.uleb128 0x12
 2772 02b0 06       		.uleb128 0x6
 2773 02b1 00       		.byte	0
 2774 02b2 00       		.byte	0
 2775 02b3 35       		.uleb128 0x35
 2776 02b4 05       		.uleb128 0x5
 2777 02b5 00       		.byte	0
 2778 02b6 03       		.uleb128 0x3
 2779 02b7 08       		.uleb128 0x8
 2780 02b8 3A       		.uleb128 0x3a
 2781 02b9 0B       		.uleb128 0xb
 2782 02ba 3B       		.uleb128 0x3b
 2783 02bb 05       		.uleb128 0x5
 2784 02bc 49       		.uleb128 0x49
 2785 02bd 13       		.uleb128 0x13
 2786 02be 02       		.uleb128 0x2
 2787 02bf 18       		.uleb128 0x18
 2788 02c0 00       		.byte	0
 2789 02c1 00       		.byte	0
ARM GAS  /tmp/ccxxfSAv.s 			page 50


 2790 02c2 36       		.uleb128 0x36
 2791 02c3 2E       		.uleb128 0x2e
 2792 02c4 01       		.byte	0x1
 2793 02c5 3F       		.uleb128 0x3f
 2794 02c6 19       		.uleb128 0x19
 2795 02c7 03       		.uleb128 0x3
 2796 02c8 0E       		.uleb128 0xe
 2797 02c9 3A       		.uleb128 0x3a
 2798 02ca 0B       		.uleb128 0xb
 2799 02cb 3B       		.uleb128 0x3b
 2800 02cc 0B       		.uleb128 0xb
 2801 02cd 27       		.uleb128 0x27
 2802 02ce 19       		.uleb128 0x19
 2803 02cf 49       		.uleb128 0x49
 2804 02d0 13       		.uleb128 0x13
 2805 02d1 11       		.uleb128 0x11
 2806 02d2 01       		.uleb128 0x1
 2807 02d3 12       		.uleb128 0x12
 2808 02d4 06       		.uleb128 0x6
 2809 02d5 40       		.uleb128 0x40
 2810 02d6 18       		.uleb128 0x18
 2811 02d7 9742     		.uleb128 0x2117
 2812 02d9 19       		.uleb128 0x19
 2813 02da 01       		.uleb128 0x1
 2814 02db 13       		.uleb128 0x13
 2815 02dc 00       		.byte	0
 2816 02dd 00       		.byte	0
 2817 02de 37       		.uleb128 0x37
 2818 02df 05       		.uleb128 0x5
 2819 02e0 00       		.byte	0
 2820 02e1 03       		.uleb128 0x3
 2821 02e2 08       		.uleb128 0x8
 2822 02e3 3A       		.uleb128 0x3a
 2823 02e4 0B       		.uleb128 0xb
 2824 02e5 3B       		.uleb128 0x3b
 2825 02e6 0B       		.uleb128 0xb
 2826 02e7 49       		.uleb128 0x49
 2827 02e8 13       		.uleb128 0x13
 2828 02e9 02       		.uleb128 0x2
 2829 02ea 18       		.uleb128 0x18
 2830 02eb 00       		.byte	0
 2831 02ec 00       		.byte	0
 2832 02ed 38       		.uleb128 0x38
 2833 02ee 34       		.uleb128 0x34
 2834 02ef 00       		.byte	0
 2835 02f0 03       		.uleb128 0x3
 2836 02f1 08       		.uleb128 0x8
 2837 02f2 3A       		.uleb128 0x3a
 2838 02f3 0B       		.uleb128 0xb
 2839 02f4 3B       		.uleb128 0x3b
 2840 02f5 0B       		.uleb128 0xb
 2841 02f6 49       		.uleb128 0x49
 2842 02f7 13       		.uleb128 0x13
 2843 02f8 02       		.uleb128 0x2
 2844 02f9 17       		.uleb128 0x17
 2845 02fa 00       		.byte	0
 2846 02fb 00       		.byte	0
ARM GAS  /tmp/ccxxfSAv.s 			page 51


 2847 02fc 39       		.uleb128 0x39
 2848 02fd 2E       		.uleb128 0x2e
 2849 02fe 01       		.byte	0x1
 2850 02ff 3F       		.uleb128 0x3f
 2851 0300 19       		.uleb128 0x19
 2852 0301 03       		.uleb128 0x3
 2853 0302 0E       		.uleb128 0xe
 2854 0303 3A       		.uleb128 0x3a
 2855 0304 0B       		.uleb128 0xb
 2856 0305 3B       		.uleb128 0x3b
 2857 0306 0B       		.uleb128 0xb
 2858 0307 27       		.uleb128 0x27
 2859 0308 19       		.uleb128 0x19
 2860 0309 11       		.uleb128 0x11
 2861 030a 01       		.uleb128 0x1
 2862 030b 12       		.uleb128 0x12
 2863 030c 06       		.uleb128 0x6
 2864 030d 40       		.uleb128 0x40
 2865 030e 18       		.uleb128 0x18
 2866 030f 9742     		.uleb128 0x2117
 2867 0311 19       		.uleb128 0x19
 2868 0312 01       		.uleb128 0x1
 2869 0313 13       		.uleb128 0x13
 2870 0314 00       		.byte	0
 2871 0315 00       		.byte	0
 2872 0316 3A       		.uleb128 0x3a
 2873 0317 1D       		.uleb128 0x1d
 2874 0318 01       		.byte	0x1
 2875 0319 31       		.uleb128 0x31
 2876 031a 13       		.uleb128 0x13
 2877 031b 52       		.uleb128 0x52
 2878 031c 01       		.uleb128 0x1
 2879 031d 55       		.uleb128 0x55
 2880 031e 17       		.uleb128 0x17
 2881 031f 58       		.uleb128 0x58
 2882 0320 0B       		.uleb128 0xb
 2883 0321 59       		.uleb128 0x59
 2884 0322 0B       		.uleb128 0xb
 2885 0323 00       		.byte	0
 2886 0324 00       		.byte	0
 2887 0325 3B       		.uleb128 0x3b
 2888 0326 2E       		.uleb128 0x2e
 2889 0327 01       		.byte	0x1
 2890 0328 03       		.uleb128 0x3
 2891 0329 0E       		.uleb128 0xe
 2892 032a 3A       		.uleb128 0x3a
 2893 032b 0B       		.uleb128 0xb
 2894 032c 3B       		.uleb128 0x3b
 2895 032d 0B       		.uleb128 0xb
 2896 032e 27       		.uleb128 0x27
 2897 032f 19       		.uleb128 0x19
 2898 0330 49       		.uleb128 0x49
 2899 0331 13       		.uleb128 0x13
 2900 0332 20       		.uleb128 0x20
 2901 0333 0B       		.uleb128 0xb
 2902 0334 01       		.uleb128 0x1
 2903 0335 13       		.uleb128 0x13
ARM GAS  /tmp/ccxxfSAv.s 			page 52


 2904 0336 00       		.byte	0
 2905 0337 00       		.byte	0
 2906 0338 3C       		.uleb128 0x3c
 2907 0339 05       		.uleb128 0x5
 2908 033a 00       		.byte	0
 2909 033b 03       		.uleb128 0x3
 2910 033c 08       		.uleb128 0x8
 2911 033d 3A       		.uleb128 0x3a
 2912 033e 0B       		.uleb128 0xb
 2913 033f 3B       		.uleb128 0x3b
 2914 0340 0B       		.uleb128 0xb
 2915 0341 49       		.uleb128 0x49
 2916 0342 13       		.uleb128 0x13
 2917 0343 00       		.byte	0
 2918 0344 00       		.byte	0
 2919 0345 3D       		.uleb128 0x3d
 2920 0346 2E       		.uleb128 0x2e
 2921 0347 00       		.byte	0
 2922 0348 03       		.uleb128 0x3
 2923 0349 0E       		.uleb128 0xe
 2924 034a 3A       		.uleb128 0x3a
 2925 034b 0B       		.uleb128 0xb
 2926 034c 3B       		.uleb128 0x3b
 2927 034d 05       		.uleb128 0x5
 2928 034e 27       		.uleb128 0x27
 2929 034f 19       		.uleb128 0x19
 2930 0350 20       		.uleb128 0x20
 2931 0351 0B       		.uleb128 0xb
 2932 0352 00       		.byte	0
 2933 0353 00       		.byte	0
 2934 0354 3E       		.uleb128 0x3e
 2935 0355 2E       		.uleb128 0x2e
 2936 0356 00       		.byte	0
 2937 0357 03       		.uleb128 0x3
 2938 0358 0E       		.uleb128 0xe
 2939 0359 3A       		.uleb128 0x3a
 2940 035a 0B       		.uleb128 0xb
 2941 035b 3B       		.uleb128 0x3b
 2942 035c 05       		.uleb128 0x5
 2943 035d 27       		.uleb128 0x27
 2944 035e 19       		.uleb128 0x19
 2945 035f 49       		.uleb128 0x49
 2946 0360 13       		.uleb128 0x13
 2947 0361 00       		.byte	0
 2948 0362 00       		.byte	0
 2949 0363 3F       		.uleb128 0x3f
 2950 0364 2E       		.uleb128 0x2e
 2951 0365 01       		.byte	0x1
 2952 0366 03       		.uleb128 0x3
 2953 0367 0E       		.uleb128 0xe
 2954 0368 3A       		.uleb128 0x3a
 2955 0369 0B       		.uleb128 0xb
 2956 036a 3B       		.uleb128 0x3b
 2957 036b 05       		.uleb128 0x5
 2958 036c 27       		.uleb128 0x27
 2959 036d 19       		.uleb128 0x19
 2960 036e 49       		.uleb128 0x49
ARM GAS  /tmp/ccxxfSAv.s 			page 53


 2961 036f 13       		.uleb128 0x13
 2962 0370 20       		.uleb128 0x20
 2963 0371 0B       		.uleb128 0xb
 2964 0372 01       		.uleb128 0x1
 2965 0373 13       		.uleb128 0x13
 2966 0374 00       		.byte	0
 2967 0375 00       		.byte	0
 2968 0376 40       		.uleb128 0x40
 2969 0377 05       		.uleb128 0x5
 2970 0378 00       		.byte	0
 2971 0379 03       		.uleb128 0x3
 2972 037a 08       		.uleb128 0x8
 2973 037b 3A       		.uleb128 0x3a
 2974 037c 0B       		.uleb128 0xb
 2975 037d 3B       		.uleb128 0x3b
 2976 037e 05       		.uleb128 0x5
 2977 037f 49       		.uleb128 0x49
 2978 0380 13       		.uleb128 0x13
 2979 0381 00       		.byte	0
 2980 0382 00       		.byte	0
 2981 0383 41       		.uleb128 0x41
 2982 0384 2E       		.uleb128 0x2e
 2983 0385 01       		.byte	0x1
 2984 0386 03       		.uleb128 0x3
 2985 0387 0E       		.uleb128 0xe
 2986 0388 3A       		.uleb128 0x3a
 2987 0389 0B       		.uleb128 0xb
 2988 038a 3B       		.uleb128 0x3b
 2989 038b 05       		.uleb128 0x5
 2990 038c 27       		.uleb128 0x27
 2991 038d 19       		.uleb128 0x19
 2992 038e 20       		.uleb128 0x20
 2993 038f 0B       		.uleb128 0xb
 2994 0390 01       		.uleb128 0x1
 2995 0391 13       		.uleb128 0x13
 2996 0392 00       		.byte	0
 2997 0393 00       		.byte	0
 2998 0394 42       		.uleb128 0x42
 2999 0395 05       		.uleb128 0x5
 3000 0396 00       		.byte	0
 3001 0397 03       		.uleb128 0x3
 3002 0398 0E       		.uleb128 0xe
 3003 0399 3A       		.uleb128 0x3a
 3004 039a 0B       		.uleb128 0xb
 3005 039b 3B       		.uleb128 0x3b
 3006 039c 05       		.uleb128 0x5
 3007 039d 49       		.uleb128 0x49
 3008 039e 13       		.uleb128 0x13
 3009 039f 00       		.byte	0
 3010 03a0 00       		.byte	0
 3011 03a1 43       		.uleb128 0x43
 3012 03a2 2E       		.uleb128 0x2e
 3013 03a3 00       		.byte	0
 3014 03a4 3F       		.uleb128 0x3f
 3015 03a5 19       		.uleb128 0x19
 3016 03a6 3C       		.uleb128 0x3c
 3017 03a7 19       		.uleb128 0x19
ARM GAS  /tmp/ccxxfSAv.s 			page 54


 3018 03a8 6E       		.uleb128 0x6e
 3019 03a9 0E       		.uleb128 0xe
 3020 03aa 03       		.uleb128 0x3
 3021 03ab 0E       		.uleb128 0xe
 3022 03ac 3A       		.uleb128 0x3a
 3023 03ad 0B       		.uleb128 0xb
 3024 03ae 3B       		.uleb128 0x3b
 3025 03af 05       		.uleb128 0x5
 3026 03b0 00       		.byte	0
 3027 03b1 00       		.byte	0
 3028 03b2 44       		.uleb128 0x44
 3029 03b3 2E       		.uleb128 0x2e
 3030 03b4 00       		.byte	0
 3031 03b5 3F       		.uleb128 0x3f
 3032 03b6 19       		.uleb128 0x19
 3033 03b7 3C       		.uleb128 0x3c
 3034 03b8 19       		.uleb128 0x19
 3035 03b9 6E       		.uleb128 0x6e
 3036 03ba 0E       		.uleb128 0xe
 3037 03bb 03       		.uleb128 0x3
 3038 03bc 0E       		.uleb128 0xe
 3039 03bd 3A       		.uleb128 0x3a
 3040 03be 0B       		.uleb128 0xb
 3041 03bf 3B       		.uleb128 0x3b
 3042 03c0 0B       		.uleb128 0xb
 3043 03c1 00       		.byte	0
 3044 03c2 00       		.byte	0
 3045 03c3 00       		.byte	0
 3046              		.section	.debug_loc,"",%progbits
 3047              	.Ldebug_loc0:
 3048              	.LLST19:
 3049 0000 08000000 		.4byte	.LVL46
 3050 0004 1C000000 		.4byte	.LVL49
 3051 0008 0100     		.2byte	0x1
 3052 000a 50       		.byte	0x50
 3053 000b 1C000000 		.4byte	.LVL49
 3054 000f 23000000 		.4byte	.LVL50-1
 3055 0013 0100     		.2byte	0x1
 3056 0015 51       		.byte	0x51
 3057 0016 00000000 		.4byte	0
 3058 001a 00000000 		.4byte	0
 3059              	.LLST20:
 3060 001e 08000000 		.4byte	.LVL46
 3061 0022 0E000000 		.4byte	.LVL47
 3062 0026 0600     		.2byte	0x6
 3063 0028 03       		.byte	0x3
 3064 0029 00000000 		.4byte	ch
 3065 002d 9F       		.byte	0x9f
 3066 002e 00000000 		.4byte	0
 3067 0032 00000000 		.4byte	0
 3068              	.LLST21:
 3069 0036 08000000 		.4byte	.LVL46
 3070 003a 0E000000 		.4byte	.LVL47
 3071 003e 0100     		.2byte	0x1
 3072 0040 53       		.byte	0x53
 3073 0041 00000000 		.4byte	0
 3074 0045 00000000 		.4byte	0
ARM GAS  /tmp/ccxxfSAv.s 			page 55


 3075              	.LLST16:
 3076 0049 08000000 		.4byte	.LVL41
 3077 004d 1C000000 		.4byte	.LVL44
 3078 0051 0100     		.2byte	0x1
 3079 0053 50       		.byte	0x50
 3080 0054 1C000000 		.4byte	.LVL44
 3081 0058 23000000 		.4byte	.LVL45-1
 3082 005c 0100     		.2byte	0x1
 3083 005e 51       		.byte	0x51
 3084 005f 00000000 		.4byte	0
 3085 0063 00000000 		.4byte	0
 3086              	.LLST17:
 3087 0067 08000000 		.4byte	.LVL41
 3088 006b 0E000000 		.4byte	.LVL42
 3089 006f 0600     		.2byte	0x6
 3090 0071 03       		.byte	0x3
 3091 0072 00000000 		.4byte	ch
 3092 0076 9F       		.byte	0x9f
 3093 0077 00000000 		.4byte	0
 3094 007b 00000000 		.4byte	0
 3095              	.LLST18:
 3096 007f 08000000 		.4byte	.LVL41
 3097 0083 0E000000 		.4byte	.LVL42
 3098 0087 0100     		.2byte	0x1
 3099 0089 53       		.byte	0x53
 3100 008a 00000000 		.4byte	0
 3101 008e 00000000 		.4byte	0
 3102              	.LLST13:
 3103 0092 00000000 		.4byte	.LVL30
 3104 0096 1A000000 		.4byte	.LVL34
 3105 009a 0100     		.2byte	0x1
 3106 009c 50       		.byte	0x50
 3107 009d 1A000000 		.4byte	.LVL34
 3108 00a1 1C000000 		.4byte	.LVL35
 3109 00a5 0100     		.2byte	0x1
 3110 00a7 50       		.byte	0x50
 3111 00a8 1C000000 		.4byte	.LVL35
 3112 00ac 2E000000 		.4byte	.LVL38
 3113 00b0 0100     		.2byte	0x1
 3114 00b2 54       		.byte	0x54
 3115 00b3 2E000000 		.4byte	.LVL38
 3116 00b7 31000000 		.4byte	.LVL39-1
 3117 00bb 0100     		.2byte	0x1
 3118 00bd 50       		.byte	0x50
 3119 00be 31000000 		.4byte	.LVL39-1
 3120 00c2 38000000 		.4byte	.LFE223
 3121 00c6 0400     		.2byte	0x4
 3122 00c8 F3       		.byte	0xf3
 3123 00c9 01       		.uleb128 0x1
 3124 00ca 50       		.byte	0x50
 3125 00cb 9F       		.byte	0x9f
 3126 00cc 00000000 		.4byte	0
 3127 00d0 00000000 		.4byte	0
 3128              	.LLST14:
 3129 00d4 00000000 		.4byte	.LVL30
 3130 00d8 0A000000 		.4byte	.LVL32
 3131 00dc 0100     		.2byte	0x1
ARM GAS  /tmp/ccxxfSAv.s 			page 56


 3132 00de 51       		.byte	0x51
 3133 00df 0A000000 		.4byte	.LVL32
 3134 00e3 19000000 		.4byte	.LVL34-1
 3135 00e7 0200     		.2byte	0x2
 3136 00e9 70       		.byte	0x70
 3137 00ea 14       		.sleb128 20
 3138 00eb 19000000 		.4byte	.LVL34-1
 3139 00ef 1A000000 		.4byte	.LVL34
 3140 00f3 0400     		.2byte	0x4
 3141 00f5 F3       		.byte	0xf3
 3142 00f6 01       		.uleb128 0x1
 3143 00f7 51       		.byte	0x51
 3144 00f8 9F       		.byte	0x9f
 3145 00f9 1A000000 		.4byte	.LVL34
 3146 00fd 1C000000 		.4byte	.LVL35
 3147 0101 0200     		.2byte	0x2
 3148 0103 70       		.byte	0x70
 3149 0104 14       		.sleb128 20
 3150 0105 1C000000 		.4byte	.LVL35
 3151 0109 1F000000 		.4byte	.LVL36-1
 3152 010d 0200     		.2byte	0x2
 3153 010f 74       		.byte	0x74
 3154 0110 14       		.sleb128 20
 3155 0111 1F000000 		.4byte	.LVL36-1
 3156 0115 38000000 		.4byte	.LFE223
 3157 0119 0400     		.2byte	0x4
 3158 011b F3       		.byte	0xf3
 3159 011c 01       		.uleb128 0x1
 3160 011d 51       		.byte	0x51
 3161 011e 9F       		.byte	0x9f
 3162 011f 00000000 		.4byte	0
 3163 0123 00000000 		.4byte	0
 3164              	.LLST15:
 3165 0127 08000000 		.4byte	.LVL31
 3166 012b 16000000 		.4byte	.LVL33
 3167 012f 0100     		.2byte	0x1
 3168 0131 53       		.byte	0x53
 3169 0132 16000000 		.4byte	.LVL33
 3170 0136 19000000 		.4byte	.LVL34-1
 3171 013a 0500     		.2byte	0x5
 3172 013c 03       		.byte	0x3
 3173 013d 10000000 		.4byte	ch+16
 3174 0141 1A000000 		.4byte	.LVL34
 3175 0145 1F000000 		.4byte	.LVL36-1
 3176 0149 0100     		.2byte	0x1
 3177 014b 53       		.byte	0x53
 3178 014c 1F000000 		.4byte	.LVL36-1
 3179 0150 2A000000 		.4byte	.LVL37
 3180 0154 0100     		.2byte	0x1
 3181 0156 50       		.byte	0x50
 3182 0157 2A000000 		.4byte	.LVL37
 3183 015b 31000000 		.4byte	.LVL39-1
 3184 015f 0100     		.2byte	0x1
 3185 0161 51       		.byte	0x51
 3186 0162 00000000 		.4byte	0
 3187 0166 00000000 		.4byte	0
 3188              	.LLST11:
ARM GAS  /tmp/ccxxfSAv.s 			page 57


 3189 016a 00000000 		.4byte	.LVL22
 3190 016e 12000000 		.4byte	.LVL23
 3191 0172 0100     		.2byte	0x1
 3192 0174 50       		.byte	0x50
 3193 0175 12000000 		.4byte	.LVL23
 3194 0179 2E000000 		.4byte	.LVL28
 3195 017d 0400     		.2byte	0x4
 3196 017f F3       		.byte	0xf3
 3197 0180 01       		.uleb128 0x1
 3198 0181 50       		.byte	0x50
 3199 0182 9F       		.byte	0x9f
 3200 0183 2E000000 		.4byte	.LVL28
 3201 0187 31000000 		.4byte	.LVL29-1
 3202 018b 0100     		.2byte	0x1
 3203 018d 50       		.byte	0x50
 3204 018e 31000000 		.4byte	.LVL29-1
 3205 0192 3C000000 		.4byte	.LFE222
 3206 0196 0400     		.2byte	0x4
 3207 0198 F3       		.byte	0xf3
 3208 0199 01       		.uleb128 0x1
 3209 019a 50       		.byte	0x50
 3210 019b 9F       		.byte	0x9f
 3211 019c 00000000 		.4byte	0
 3212 01a0 00000000 		.4byte	0
 3213              	.LLST12:
 3214 01a4 00000000 		.4byte	.LVL22
 3215 01a8 15000000 		.4byte	.LVL24-1
 3216 01ac 0100     		.2byte	0x1
 3217 01ae 51       		.byte	0x51
 3218 01af 15000000 		.4byte	.LVL24-1
 3219 01b3 2E000000 		.4byte	.LVL28
 3220 01b7 0400     		.2byte	0x4
 3221 01b9 F3       		.byte	0xf3
 3222 01ba 01       		.uleb128 0x1
 3223 01bb 51       		.byte	0x51
 3224 01bc 9F       		.byte	0x9f
 3225 01bd 2E000000 		.4byte	.LVL28
 3226 01c1 31000000 		.4byte	.LVL29-1
 3227 01c5 0100     		.2byte	0x1
 3228 01c7 51       		.byte	0x51
 3229 01c8 31000000 		.4byte	.LVL29-1
 3230 01cc 3C000000 		.4byte	.LFE222
 3231 01d0 0400     		.2byte	0x4
 3232 01d2 F3       		.byte	0xf3
 3233 01d3 01       		.uleb128 0x1
 3234 01d4 51       		.byte	0x51
 3235 01d5 9F       		.byte	0x9f
 3236 01d6 00000000 		.4byte	0
 3237 01da 00000000 		.4byte	0
 3238              	.LLST2:
 3239 01de 00000000 		.4byte	.LVL6
 3240 01e2 14000000 		.4byte	.LVL8
 3241 01e6 0100     		.2byte	0x1
 3242 01e8 50       		.byte	0x50
 3243 01e9 14000000 		.4byte	.LVL8
 3244 01ed 1A000000 		.4byte	.LVL9
 3245 01f1 0400     		.2byte	0x4
ARM GAS  /tmp/ccxxfSAv.s 			page 58


 3246 01f3 F3       		.byte	0xf3
 3247 01f4 01       		.uleb128 0x1
 3248 01f5 50       		.byte	0x50
 3249 01f6 9F       		.byte	0x9f
 3250 01f7 1A000000 		.4byte	.LVL9
 3251 01fb 2A000000 		.4byte	.LVL10
 3252 01ff 0100     		.2byte	0x1
 3253 0201 50       		.byte	0x50
 3254 0202 2A000000 		.4byte	.LVL10
 3255 0206 2E000000 		.4byte	.LVL11
 3256 020a 0400     		.2byte	0x4
 3257 020c F3       		.byte	0xf3
 3258 020d 01       		.uleb128 0x1
 3259 020e 50       		.byte	0x50
 3260 020f 9F       		.byte	0x9f
 3261 0210 2E000000 		.4byte	.LVL11
 3262 0214 3A000000 		.4byte	.LFE221
 3263 0218 0100     		.2byte	0x1
 3264 021a 50       		.byte	0x50
 3265 021b 00000000 		.4byte	0
 3266 021f 00000000 		.4byte	0
 3267              	.LLST3:
 3268 0223 00000000 		.4byte	.LVL6
 3269 0227 14000000 		.4byte	.LVL8
 3270 022b 0100     		.2byte	0x1
 3271 022d 50       		.byte	0x50
 3272 022e 14000000 		.4byte	.LVL8
 3273 0232 1A000000 		.4byte	.LVL9
 3274 0236 0400     		.2byte	0x4
 3275 0238 F3       		.byte	0xf3
 3276 0239 01       		.uleb128 0x1
 3277 023a 50       		.byte	0x50
 3278 023b 9F       		.byte	0x9f
 3279 023c 1A000000 		.4byte	.LVL9
 3280 0240 2A000000 		.4byte	.LVL10
 3281 0244 0100     		.2byte	0x1
 3282 0246 50       		.byte	0x50
 3283 0247 2A000000 		.4byte	.LVL10
 3284 024b 2E000000 		.4byte	.LVL11
 3285 024f 0400     		.2byte	0x4
 3286 0251 F3       		.byte	0xf3
 3287 0252 01       		.uleb128 0x1
 3288 0253 50       		.byte	0x50
 3289 0254 9F       		.byte	0x9f
 3290 0255 2E000000 		.4byte	.LVL11
 3291 0259 3A000000 		.4byte	.LFE221
 3292 025d 0100     		.2byte	0x1
 3293 025f 50       		.byte	0x50
 3294 0260 00000000 		.4byte	0
 3295 0264 00000000 		.4byte	0
 3296              	.LLST4:
 3297 0268 00000000 		.4byte	.LVL6
 3298 026c 08000000 		.4byte	.LVL7
 3299 0270 0300     		.2byte	0x3
 3300 0272 08       		.byte	0x8
 3301 0273 20       		.byte	0x20
 3302 0274 9F       		.byte	0x9f
ARM GAS  /tmp/ccxxfSAv.s 			page 59


 3303 0275 00000000 		.4byte	0
 3304 0279 00000000 		.4byte	0
 3305              	.LLST5:
 3306 027d 2A000000 		.4byte	.LVL10
 3307 0281 2E000000 		.4byte	.LVL11
 3308 0285 0200     		.2byte	0x2
 3309 0287 30       		.byte	0x30
 3310 0288 9F       		.byte	0x9f
 3311 0289 00000000 		.4byte	0
 3312 028d 00000000 		.4byte	0
 3313              	.LLST7:
 3314 0291 00000000 		.4byte	.LVL16
 3315 0295 08000000 		.4byte	.LVL19
 3316 0299 0100     		.2byte	0x1
 3317 029b 50       		.byte	0x50
 3318 029c 08000000 		.4byte	.LVL19
 3319 02a0 0E000000 		.4byte	.LVL20
 3320 02a4 0200     		.2byte	0x2
 3321 02a6 71       		.byte	0x71
 3322 02a7 10       		.sleb128 16
 3323 02a8 0E000000 		.4byte	.LVL20
 3324 02ac 1C000000 		.4byte	.LFE220
 3325 02b0 0400     		.2byte	0x4
 3326 02b2 F3       		.byte	0xf3
 3327 02b3 01       		.uleb128 0x1
 3328 02b4 50       		.byte	0x50
 3329 02b5 9F       		.byte	0x9f
 3330 02b6 00000000 		.4byte	0
 3331 02ba 00000000 		.4byte	0
 3332              	.LLST8:
 3333 02be 04000000 		.4byte	.LVL17
 3334 02c2 17000000 		.4byte	.LVL21-1
 3335 02c6 0100     		.2byte	0x1
 3336 02c8 51       		.byte	0x51
 3337 02c9 00000000 		.4byte	0
 3338 02cd 00000000 		.4byte	0
 3339              	.LLST9:
 3340 02d1 06000000 		.4byte	.LVL18
 3341 02d5 0E000000 		.4byte	.LVL20
 3342 02d9 0600     		.2byte	0x6
 3343 02db 03       		.byte	0x3
 3344 02dc 00000000 		.4byte	ch
 3345 02e0 9F       		.byte	0x9f
 3346 02e1 00000000 		.4byte	0
 3347 02e5 00000000 		.4byte	0
 3348              	.LLST10:
 3349 02e9 08000000 		.4byte	.LVL19
 3350 02ed 0E000000 		.4byte	.LVL20
 3351 02f1 0100     		.2byte	0x1
 3352 02f3 50       		.byte	0x50
 3353 02f4 00000000 		.4byte	0
 3354 02f8 00000000 		.4byte	0
 3355              	.LLST6:
 3356 02fc 04000000 		.4byte	.LVL13
 3357 0300 08000000 		.4byte	.LVL14
 3358 0304 0600     		.2byte	0x6
 3359 0306 03       		.byte	0x3
ARM GAS  /tmp/ccxxfSAv.s 			page 60


 3360 0307 00000000 		.4byte	ch
 3361 030b 9F       		.byte	0x9f
 3362 030c 08000000 		.4byte	.LVL14
 3363 0310 20000000 		.4byte	.LFE219
 3364 0314 0100     		.2byte	0x1
 3365 0316 53       		.byte	0x53
 3366 0317 00000000 		.4byte	0
 3367 031b 00000000 		.4byte	0
 3368              	.LLST1:
 3369 031f 04000000 		.4byte	.LVL3
 3370 0323 08000000 		.4byte	.LVL4
 3371 0327 0600     		.2byte	0x6
 3372 0329 03       		.byte	0x3
 3373 032a 00000000 		.4byte	ch
 3374 032e 9F       		.byte	0x9f
 3375 032f 08000000 		.4byte	.LVL4
 3376 0333 20000000 		.4byte	.LFE218
 3377 0337 0100     		.2byte	0x1
 3378 0339 53       		.byte	0x53
 3379 033a 00000000 		.4byte	0
 3380 033e 00000000 		.4byte	0
 3381              	.LLST0:
 3382 0342 00000000 		.4byte	.LVL0
 3383 0346 08000000 		.4byte	.LVL1
 3384 034a 0600     		.2byte	0x6
 3385 034c 03       		.byte	0x3
 3386 034d 00000000 		.4byte	ch
 3387 0351 9F       		.byte	0x9f
 3388 0352 00000000 		.4byte	0
 3389 0356 00000000 		.4byte	0
 3390              		.section	.debug_aranges,"",%progbits
 3391 0000 6C000000 		.4byte	0x6c
 3392 0004 0200     		.2byte	0x2
 3393 0006 00000000 		.4byte	.Ldebug_info0
 3394 000a 04       		.byte	0x4
 3395 000b 00       		.byte	0
 3396 000c 0000     		.2byte	0
 3397 000e 0000     		.2byte	0
 3398 0010 00000000 		.4byte	.LFB217
 3399 0014 10000000 		.4byte	.LFE217-.LFB217
 3400 0018 00000000 		.4byte	.LFB218
 3401 001c 20000000 		.4byte	.LFE218-.LFB218
 3402 0020 00000000 		.4byte	.LFB221
 3403 0024 3A000000 		.4byte	.LFE221-.LFB221
 3404 0028 00000000 		.4byte	.LFB219
 3405 002c 20000000 		.4byte	.LFE219-.LFB219
 3406 0030 00000000 		.4byte	.LFB220
 3407 0034 1C000000 		.4byte	.LFE220-.LFB220
 3408 0038 00000000 		.4byte	.LFB222
 3409 003c 3C000000 		.4byte	.LFE222-.LFB222
 3410 0040 00000000 		.4byte	.LFB223
 3411 0044 38000000 		.4byte	.LFE223-.LFB223
 3412 0048 00000000 		.4byte	.LFB225
 3413 004c 18000000 		.4byte	.LFE225-.LFB225
 3414 0050 00000000 		.4byte	.LFB226
 3415 0054 28000000 		.4byte	.LFE226-.LFB226
 3416 0058 00000000 		.4byte	.LFB228
ARM GAS  /tmp/ccxxfSAv.s 			page 61


 3417 005c 28000000 		.4byte	.LFE228-.LFB228
 3418 0060 00000000 		.4byte	.LFB224
 3419 0064 12000000 		.4byte	.LFE224-.LFB224
 3420 0068 00000000 		.4byte	0
 3421 006c 00000000 		.4byte	0
 3422              		.section	.debug_ranges,"",%progbits
 3423              	.Ldebug_ranges0:
 3424 0000 00000000 		.4byte	.LBB55
 3425 0004 02000000 		.4byte	.LBE55
 3426 0008 04000000 		.4byte	.LBB58
 3427 000c 08000000 		.4byte	.LBE58
 3428 0010 00000000 		.4byte	0
 3429 0014 00000000 		.4byte	0
 3430 0018 14000000 		.4byte	.LBB81
 3431 001c 1A000000 		.4byte	.LBE81
 3432 0020 2A000000 		.4byte	.LBB90
 3433 0024 2E000000 		.4byte	.LBE90
 3434 0028 00000000 		.4byte	0
 3435 002c 00000000 		.4byte	0
 3436 0030 04000000 		.4byte	.LBB96
 3437 0034 06000000 		.4byte	.LBE96
 3438 0038 08000000 		.4byte	.LBB99
 3439 003c 0E000000 		.4byte	.LBE99
 3440 0040 00000000 		.4byte	0
 3441 0044 00000000 		.4byte	0
 3442 0048 04000000 		.4byte	.LBB100
 3443 004c 06000000 		.4byte	.LBE100
 3444 0050 08000000 		.4byte	.LBB103
 3445 0054 0E000000 		.4byte	.LBE103
 3446 0058 00000000 		.4byte	0
 3447 005c 00000000 		.4byte	0
 3448 0060 00000000 		.4byte	.LFB217
 3449 0064 10000000 		.4byte	.LFE217
 3450 0068 00000000 		.4byte	.LFB218
 3451 006c 20000000 		.4byte	.LFE218
 3452 0070 00000000 		.4byte	.LFB221
 3453 0074 3A000000 		.4byte	.LFE221
 3454 0078 00000000 		.4byte	.LFB219
 3455 007c 20000000 		.4byte	.LFE219
 3456 0080 00000000 		.4byte	.LFB220
 3457 0084 1C000000 		.4byte	.LFE220
 3458 0088 00000000 		.4byte	.LFB222
 3459 008c 3C000000 		.4byte	.LFE222
 3460 0090 00000000 		.4byte	.LFB223
 3461 0094 38000000 		.4byte	.LFE223
 3462 0098 00000000 		.4byte	.LFB225
 3463 009c 18000000 		.4byte	.LFE225
 3464 00a0 00000000 		.4byte	.LFB226
 3465 00a4 28000000 		.4byte	.LFE226
 3466 00a8 00000000 		.4byte	.LFB228
 3467 00ac 28000000 		.4byte	.LFE228
 3468 00b0 00000000 		.4byte	.LFB224
 3469 00b4 12000000 		.4byte	.LFE224
 3470 00b8 00000000 		.4byte	0
 3471 00bc 00000000 		.4byte	0
 3472              		.section	.debug_line,"",%progbits
 3473              	.Ldebug_line0:
ARM GAS  /tmp/ccxxfSAv.s 			page 62


 3474 0000 21040000 		.section	.debug_str,"MS",%progbits,1
 3474      02007902 
 3474      00000201 
 3474      FB0E0D00 
 3474      01010101 
 3475              	.LASF33:
 3476 0000 72656164 		.ascii	"ready_list_t\000"
 3476      795F6C69 
 3476      73745F74 
 3476      00
 3477              	.LASF66:
 3478 000d 77747472 		.ascii	"wttrp\000"
 3478      7000
 3479              	.LASF39:
 3480 0013 64656C74 		.ascii	"delta\000"
 3480      6100
 3481              	.LASF63:
 3482 0019 7264796D 		.ascii	"rdymsg\000"
 3482      736700
 3483              	.LASF17:
 3484 0020 75696E74 		.ascii	"uint64_t\000"
 3484      36345F74 
 3484      00
 3485              	.LASF102:
 3486 0029 63685363 		.ascii	"chSchDoRescheduleAhead\000"
 3486      68446F52 
 3486      65736368 
 3486      6564756C 
 3486      65416865 
 3487              	.LASF7:
 3488 0040 5F5F7569 		.ascii	"__uint8_t\000"
 3488      6E74385F 
 3488      7400
 3489              	.LASF32:
 3490 004a 70726576 		.ascii	"prev\000"
 3490      00
 3491              	.LASF62:
 3492 004f 706F7274 		.ascii	"port_intctx\000"
 3492      5F696E74 
 3492      63747800 
 3493              	.LASF44:
 3494 005b 73797374 		.ascii	"system_debug_t\000"
 3494      656D5F64 
 3494      65627567 
 3494      5F7400
 3495              	.LASF58:
 3496 006a 41504250 		.ascii	"APBPrescTable\000"
 3496      72657363 
 3496      5461626C 
 3496      6500
 3497              	.LASF93:
 3498 0078 71756575 		.ascii	"queue_init\000"
 3498      655F696E 
 3498      697400
 3499              	.LASF92:
 3500 0083 706F7274 		.ascii	"port_lock\000"
 3500      5F6C6F63 
ARM GAS  /tmp/ccxxfSAv.s 			page 63


 3500      6B00
 3501              	.LASF13:
 3502 008d 6C6F6E67 		.ascii	"long long unsigned int\000"
 3502      206C6F6E 
 3502      6720756E 
 3502      7369676E 
 3502      65642069 
 3503              	.LASF98:
 3504 00a4 63685654 		.ascii	"chVTDoResetI\000"
 3504      446F5265 
 3504      73657449 
 3504      00
 3505              	.LASF64:
 3506 00b1 65786974 		.ascii	"exitcode\000"
 3506      636F6465 
 3506      00
 3507              	.LASF51:
 3508 00ba 6D61696E 		.ascii	"mainthread\000"
 3508      74687265 
 3508      616400
 3509              	.LASF8:
 3510 00c5 5F5F696E 		.ascii	"__int32_t\000"
 3510      7433325F 
 3510      7400
 3511              	.LASF41:
 3512 00cf 76697274 		.ascii	"virtual_timers_list_t\000"
 3512      75616C5F 
 3512      74696D65 
 3512      72735F6C 
 3512      6973745F 
 3513              	.LASF55:
 3514 00e5 49544D5F 		.ascii	"ITM_RxBuffer\000"
 3514      52784275 
 3514      66666572 
 3514      00
 3515              	.LASF31:
 3516 00f2 6E657874 		.ascii	"next\000"
 3516      00
 3517              	.LASF30:
 3518 00f7 63685F74 		.ascii	"ch_threads_queue\000"
 3518      68726561 
 3518      64735F71 
 3518      75657565 
 3518      00
 3519              	.LASF82:
 3520 0108 5F736368 		.ascii	"_scheduler_init\000"
 3520      6564756C 
 3520      65725F69 
 3520      6E697400 
 3521              	.LASF1:
 3522 0118 6C6F6E67 		.ascii	"long long int\000"
 3522      206C6F6E 
 3522      6720696E 
 3522      7400
 3523              	.LASF3:
 3524 0126 7369676E 		.ascii	"signed char\000"
 3524      65642063 
ARM GAS  /tmp/ccxxfSAv.s 			page 64


 3524      68617200 
 3525              	.LASF99:
 3526 0132 474E5520 		.ascii	"GNU C11 6.3.1 20170620 (release) [ARM/embedded-6-br"
 3526      43313120 
 3526      362E332E 
 3526      31203230 
 3526      31373036 
 3527 0165 616E6368 		.ascii	"anch revision 249437] -mcpu=cortex-m4 -mfloat-abi=h"
 3527      20726576 
 3527      6973696F 
 3527      6E203234 
 3527      39343337 
 3528 0198 61726420 		.ascii	"ard -mfpu=fpv4-sp-d16 -mno-thumb-interwork -mthumb "
 3528      2D6D6670 
 3528      753D6670 
 3528      76342D73 
 3528      702D6431 
 3529 01cb 2D67202D 		.ascii	"-g -Os -fomit-frame-pointer -falign-functions=16 -f"
 3529      4F73202D 
 3529      666F6D69 
 3529      742D6672 
 3529      616D652D 
 3530 01fe 66756E63 		.ascii	"function-sections -fdata-sections -fno-common -fsin"
 3530      74696F6E 
 3530      2D736563 
 3530      74696F6E 
 3530      73202D66 
 3531 0231 676C652D 		.ascii	"gle-precision-constant\000"
 3531      70726563 
 3531      6973696F 
 3531      6E2D636F 
 3531      6E737461 
 3532              	.LASF95:
 3533 0248 62617365 		.ascii	"basePri\000"
 3533      50726900 
 3534              	.LASF50:
 3535 0250 76746C69 		.ascii	"vtlist\000"
 3535      737400
 3536              	.LASF91:
 3537 0257 706F7274 		.ascii	"port_unlock\000"
 3537      5F756E6C 
 3537      6F636B00 
 3538              	.LASF25:
 3539 0263 73746174 		.ascii	"state\000"
 3539      6500
 3540              	.LASF9:
 3541 0269 6C6F6E67 		.ascii	"long int\000"
 3541      20696E74 
 3541      00
 3542              	.LASF87:
 3543 0272 71756575 		.ascii	"queue_dequeue\000"
 3543      655F6465 
 3543      71756575 
 3543      6500
 3544              	.LASF19:
 3545 0280 74737461 		.ascii	"tstate_t\000"
 3545      74655F74 
ARM GAS  /tmp/ccxxfSAv.s 			page 65


 3545      00
 3546              	.LASF74:
 3547 0289 63685363 		.ascii	"chSchIsPreemptionRequired\000"
 3547      68497350 
 3547      7265656D 
 3547      7074696F 
 3547      6E526571 
 3548              	.LASF72:
 3549 02a3 63685363 		.ascii	"chSchRescheduleS\000"
 3549      68526573 
 3549      63686564 
 3549      756C6553 
 3549      00
 3550              	.LASF10:
 3551 02b4 5F5F7569 		.ascii	"__uint32_t\000"
 3551      6E743332 
 3551      5F7400
 3552              	.LASF59:
 3553 02bf 72656761 		.ascii	"regarm_t\000"
 3553      726D5F74 
 3553      00
 3554              	.LASF69:
 3555 02c8 63685363 		.ascii	"chSchDoReschedule\000"
 3555      68446F52 
 3555      65736368 
 3555      6564756C 
 3555      6500
 3556              	.LASF53:
 3557 02da 73797369 		.ascii	"sysinterval_t\000"
 3557      6E746572 
 3557      76616C5F 
 3557      7400
 3558              	.LASF0:
 3559 02e8 756E7369 		.ascii	"unsigned int\000"
 3559      676E6564 
 3559      20696E74 
 3559      00
 3560              	.LASF103:
 3561 02f5 77616B65 		.ascii	"wakeup\000"
 3561      757000
 3562              	.LASF56:
 3563 02fc 53797374 		.ascii	"SystemCoreClock\000"
 3563      656D436F 
 3563      7265436C 
 3563      6F636B00 
 3564              	.LASF96:
 3565 030c 5F706F72 		.ascii	"_port_switch\000"
 3565      745F7377 
 3565      69746368 
 3565      00
 3566              	.LASF101:
 3567 0319 2F686F6D 		.ascii	"/home/alex/ArduPilot/ardupilot/build/STM32Disco\000"
 3567      652F616C 
 3567      65782F41 
 3567      72647550 
 3567      696C6F74 
 3568              	.LASF77:
ARM GAS  /tmp/ccxxfSAv.s 			page 66


 3569 0349 74696D65 		.ascii	"timeout\000"
 3569      6F757400 
 3570              	.LASF23:
 3571 0351 71756575 		.ascii	"queue\000"
 3571      6500
 3572              	.LASF6:
 3573 0357 73686F72 		.ascii	"short unsigned int\000"
 3573      7420756E 
 3573      7369676E 
 3573      65642069 
 3573      6E7400
 3574              	.LASF29:
 3575 036a 63685F74 		.ascii	"ch_thread\000"
 3575      68726561 
 3575      6400
 3576              	.LASF21:
 3577 0374 6D73675F 		.ascii	"msg_t\000"
 3577      7400
 3578              	.LASF47:
 3579 037a 63685F73 		.ascii	"ch_system_t\000"
 3579      79737465 
 3579      6D5F7400 
 3580              	.LASF65:
 3581 0386 77746F62 		.ascii	"wtobjp\000"
 3581      6A7000
 3582              	.LASF34:
 3583 038d 63685F72 		.ascii	"ch_ready_list\000"
 3583      65616479 
 3583      5F6C6973 
 3583      7400
 3584              	.LASF97:
 3585 039b 63685654 		.ascii	"chVTDoSetI\000"
 3585      446F5365 
 3585      744900
 3586              	.LASF57:
 3587 03a6 41484250 		.ascii	"AHBPrescTable\000"
 3587      72657363 
 3587      5461626C 
 3587      6500
 3588              	.LASF100:
 3589 03b4 2E2E2F2E 		.ascii	"../../modules/ChibiOS/os/rt/src/chschd.c\000"
 3589      2E2F6D6F 
 3589      64756C65 
 3589      732F4368 
 3589      6962694F 
 3590              	.LASF60:
 3591 03dd 73746B61 		.ascii	"stkalign_t\000"
 3591      6C69676E 
 3591      5F7400
 3592              	.LASF54:
 3593 03e8 73697A65 		.ascii	"sizetype\000"
 3593      74797065 
 3593      00
 3594              	.LASF27:
 3595 03f1 74687265 		.ascii	"thread_reference_t\000"
 3595      61645F72 
 3595      65666572 
ARM GAS  /tmp/ccxxfSAv.s 			page 67


 3595      656E6365 
 3595      5F7400
 3596              	.LASF42:
 3597 0404 63685F76 		.ascii	"ch_virtual_timers_list\000"
 3597      69727475 
 3597      616C5F74 
 3597      696D6572 
 3597      735F6C69 
 3598              	.LASF2:
 3599 041b 6C6F6E67 		.ascii	"long double\000"
 3599      20646F75 
 3599      626C6500 
 3600              	.LASF70:
 3601 0427 63685363 		.ascii	"chSchDoRescheduleBehind\000"
 3601      68446F52 
 3601      65736368 
 3601      6564756C 
 3601      65426568 
 3602              	.LASF61:
 3603 043f 706F7274 		.ascii	"port_context\000"
 3603      5F636F6E 
 3603      74657874 
 3603      00
 3604              	.LASF24:
 3605 044c 7072696F 		.ascii	"prio\000"
 3605      00
 3606              	.LASF35:
 3607 0451 63757272 		.ascii	"current\000"
 3607      656E7400 
 3608              	.LASF12:
 3609 0459 5F5F7569 		.ascii	"__uint64_t\000"
 3609      6E743634 
 3609      5F7400
 3610              	.LASF37:
 3611 0464 76697274 		.ascii	"virtual_timer_t\000"
 3611      75616C5F 
 3611      74696D65 
 3611      725F7400 
 3612              	.LASF20:
 3613 0474 74707269 		.ascii	"tprio_t\000"
 3613      6F5F7400 
 3614              	.LASF83:
 3615 047c 63685379 		.ascii	"chSysUnlockFromISR\000"
 3615      73556E6C 
 3615      6F636B46 
 3615      726F6D49 
 3615      535200
 3616              	.LASF45:
 3617 048f 63685F73 		.ascii	"ch_system_debug\000"
 3617      79737465 
 3617      6D5F6465 
 3617      62756700 
 3618              	.LASF71:
 3619 049f 5F426F6F 		.ascii	"_Bool\000"
 3619      6C00
 3620              	.LASF15:
 3621 04a5 696E7433 		.ascii	"int32_t\000"
ARM GAS  /tmp/ccxxfSAv.s 			page 68


 3621      325F7400 
 3622              	.LASF4:
 3623 04ad 756E7369 		.ascii	"unsigned char\000"
 3623      676E6564 
 3623      20636861 
 3623      7200
 3624              	.LASF76:
 3625 04bb 6E657773 		.ascii	"newstate\000"
 3625      74617465 
 3625      00
 3626              	.LASF5:
 3627 04c4 73686F72 		.ascii	"short int\000"
 3627      7420696E 
 3627      7400
 3628              	.LASF43:
 3629 04ce 6C617374 		.ascii	"lasttime\000"
 3629      74696D65 
 3629      00
 3630              	.LASF48:
 3631 04d7 63685F73 		.ascii	"ch_system\000"
 3631      79737465 
 3631      6D00
 3632              	.LASF18:
 3633 04e1 746D6F64 		.ascii	"tmode_t\000"
 3633      655F7400 
 3634              	.LASF80:
 3635 04e9 5F5F6675 		.ascii	"__func__\000"
 3635      6E635F5F 
 3635      00
 3636              	.LASF86:
 3637 04f2 63685654 		.ascii	"chVTIsArmedI\000"
 3637      49734172 
 3637      6D656449 
 3637      00
 3638              	.LASF38:
 3639 04ff 63685F76 		.ascii	"ch_virtual_timer\000"
 3639      69727475 
 3639      616C5F74 
 3639      696D6572 
 3639      00
 3640              	.LASF78:
 3641 0510 63685363 		.ascii	"chSchGoSleepS\000"
 3641      68476F53 
 3641      6C656570 
 3641      5300
 3642              	.LASF68:
 3643 051e 63685F69 		.ascii	"ch_idle_thread_wa\000"
 3643      646C655F 
 3643      74687265 
 3643      61645F77 
 3643      6100
 3644              	.LASF79:
 3645 0530 63685363 		.ascii	"chSchReadyAheadI\000"
 3645      68526561 
 3645      64794168 
 3645      65616449 
 3645      00
ARM GAS  /tmp/ccxxfSAv.s 			page 69


 3646              	.LASF16:
 3647 0541 75696E74 		.ascii	"uint32_t\000"
 3647      33325F74 
 3647      00
 3648              	.LASF81:
 3649 054a 63685363 		.ascii	"chSchReadyI\000"
 3649      68526561 
 3649      64794900 
 3650              	.LASF11:
 3651 0556 6C6F6E67 		.ascii	"long unsigned int\000"
 3651      20756E73 
 3651      69676E65 
 3651      6420696E 
 3651      7400
 3652              	.LASF67:
 3653 0568 63686172 		.ascii	"char\000"
 3653      00
 3654              	.LASF40:
 3655 056d 66756E63 		.ascii	"func\000"
 3655      00
 3656              	.LASF89:
 3657 0572 706F7274 		.ascii	"port_unlock_from_isr\000"
 3657      5F756E6C 
 3657      6F636B5F 
 3657      66726F6D 
 3657      5F697372 
 3658              	.LASF22:
 3659 0587 74687265 		.ascii	"thread_t\000"
 3659      61645F74 
 3659      00
 3660              	.LASF88:
 3661 0590 71756575 		.ascii	"queue_fifo_remove\000"
 3661      655F6669 
 3661      666F5F72 
 3661      656D6F76 
 3661      6500
 3662              	.LASF52:
 3663 05a2 73797374 		.ascii	"systime_t\000"
 3663      696D655F 
 3663      7400
 3664              	.LASF36:
 3665 05ac 76746675 		.ascii	"vtfunc_t\000"
 3665      6E635F74 
 3665      00
 3666              	.LASF94:
 3667 05b5 5F5F7365 		.ascii	"__set_BASEPRI\000"
 3667      745F4241 
 3667      53455052 
 3667      4900
 3668              	.LASF46:
 3669 05c3 70616E69 		.ascii	"panic_msg\000"
 3669      635F6D73 
 3669      6700
 3670              	.LASF90:
 3671 05cd 706F7274 		.ascii	"port_lock_from_isr\000"
 3671      5F6C6F63 
 3671      6B5F6672 
ARM GAS  /tmp/ccxxfSAv.s 			page 70


 3671      6F6D5F69 
 3671      737200
 3672              	.LASF73:
 3673 05e0 63685363 		.ascii	"chSchWakeupS\000"
 3673      6857616B 
 3673      65757053 
 3673      00
 3674              	.LASF28:
 3675 05ed 74687265 		.ascii	"threads_queue_t\000"
 3675      6164735F 
 3675      71756575 
 3675      655F7400 
 3676              	.LASF49:
 3677 05fd 726C6973 		.ascii	"rlist\000"
 3677      7400
 3678              	.LASF14:
 3679 0603 75696E74 		.ascii	"uint8_t\000"
 3679      385F7400 
 3680              	.LASF26:
 3681 060b 666C6167 		.ascii	"flags\000"
 3681      7300
 3682              	.LASF84:
 3683 0611 63685379 		.ascii	"chSysLockFromISR\000"
 3683      734C6F63 
 3683      6B46726F 
 3683      6D495352 
 3683      00
 3684              	.LASF75:
 3685 0622 63685363 		.ascii	"chSchGoSleepTimeoutS\000"
 3685      68476F53 
 3685      6C656570 
 3685      54696D65 
 3685      6F757453 
 3686              	.LASF85:
 3687 0637 63685363 		.ascii	"chSchIsRescRequiredI\000"
 3687      68497352 
 3687      65736352 
 3687      65717569 
 3687      72656449 
 3688              		.ident	"GCC: (GNU Tools for ARM Embedded Processors 6-2017-q2-update) 6.3.1 20170620 (release) [AR
ARM GAS  /tmp/ccxxfSAv.s 			page 71


DEFINED SYMBOLS
                            *ABS*:0000000000000000 chschd.c
     /tmp/ccxxfSAv.s:18     .text._scheduler_init:0000000000000000 $t
     /tmp/ccxxfSAv.s:25     .text._scheduler_init:0000000000000000 _scheduler_init
     /tmp/ccxxfSAv.s:58     .text._scheduler_init:000000000000000c $d
     /tmp/ccxxfSAv.s:63     .text.chSchReadyI:0000000000000000 $t
     /tmp/ccxxfSAv.s:70     .text.chSchReadyI:0000000000000000 chSchReadyI
     /tmp/ccxxfSAv.s:110    .text.chSchReadyI:000000000000001c $d
     /tmp/ccxxfSAv.s:115    .text.wakeup:0000000000000000 $t
     /tmp/ccxxfSAv.s:121    .text.wakeup:0000000000000000 wakeup
     /tmp/ccxxfSAv.s:222    .text.chSchReadyAheadI:0000000000000000 $t
     /tmp/ccxxfSAv.s:229    .text.chSchReadyAheadI:0000000000000000 chSchReadyAheadI
     /tmp/ccxxfSAv.s:269    .text.chSchReadyAheadI:000000000000001c $d
     /tmp/ccxxfSAv.s:274    .text.chSchGoSleepS:0000000000000000 $t
     /tmp/ccxxfSAv.s:281    .text.chSchGoSleepS:0000000000000000 chSchGoSleepS
     /tmp/ccxxfSAv.s:320    .text.chSchGoSleepS:0000000000000018 $d
     /tmp/ccxxfSAv.s:325    .text.chSchGoSleepTimeoutS:0000000000000000 $t
     /tmp/ccxxfSAv.s:332    .text.chSchGoSleepTimeoutS:0000000000000000 chSchGoSleepTimeoutS
     /tmp/ccxxfSAv.s:395    .text.chSchGoSleepTimeoutS:0000000000000034 $d
     /tmp/ccxxfSAv.s:401    .text.chSchWakeupS:0000000000000000 $t
     /tmp/ccxxfSAv.s:408    .text.chSchWakeupS:0000000000000000 chSchWakeupS
     /tmp/ccxxfSAv.s:481    .text.chSchWakeupS:0000000000000034 $d
     /tmp/ccxxfSAv.s:486    .text.chSchIsPreemptionRequired:0000000000000000 $t
     /tmp/ccxxfSAv.s:493    .text.chSchIsPreemptionRequired:0000000000000000 chSchIsPreemptionRequired
     /tmp/ccxxfSAv.s:518    .text.chSchIsPreemptionRequired:0000000000000014 $d
     /tmp/ccxxfSAv.s:493    .text.chSchIsPreemptionRequired:0000000000000000 chSchIsRescRequiredI
     /tmp/ccxxfSAv.s:524    .text.chSchDoRescheduleBehind:0000000000000000 $t
     /tmp/ccxxfSAv.s:531    .text.chSchDoRescheduleBehind:0000000000000000 chSchDoRescheduleBehind
     /tmp/ccxxfSAv.s:586    .text.chSchDoRescheduleBehind:0000000000000024 $d
     /tmp/ccxxfSAv.s:591    .text.chSchDoReschedule:0000000000000000 $t
     /tmp/ccxxfSAv.s:598    .text.chSchDoReschedule:0000000000000000 chSchDoReschedule
     /tmp/ccxxfSAv.s:653    .text.chSchDoReschedule:0000000000000024 $d
     /tmp/ccxxfSAv.s:658    .text.chSchRescheduleS:0000000000000000 $t
     /tmp/ccxxfSAv.s:665    .text.chSchRescheduleS:0000000000000000 chSchRescheduleS
     /tmp/ccxxfSAv.s:695    .text.chSchDoRescheduleAhead:0000000000000000 $t
     /tmp/ccxxfSAv.s:702    .text.chSchDoRescheduleAhead:0000000000000000 chSchDoRescheduleAhead
     /tmp/ccxxfSAv.s:718    .bss.ch:0000000000000000 ch
     /tmp/ccxxfSAv.s:714    .bss.ch:0000000000000000 $d
                     .debug_frame:0000000000000010 $d

UNDEFINED SYMBOLS
_port_switch
chVTDoSetI
chVTDoResetI
