ARM GAS  /tmp/ccYV1CFC.s 			page 1


   1              		.cpu cortex-m4
   2              		.eabi_attribute 27, 1
   3              		.eabi_attribute 28, 1
   4              		.eabi_attribute 20, 1
   5              		.eabi_attribute 21, 1
   6              		.eabi_attribute 23, 3
   7              		.eabi_attribute 24, 1
   8              		.eabi_attribute 25, 1
   9              		.eabi_attribute 26, 1
  10              		.eabi_attribute 30, 4
  11              		.eabi_attribute 34, 1
  12              		.eabi_attribute 18, 4
  13              		.file	"chsys.c"
  14              		.text
  15              	.Ltext0:
  16              		.cfi_sections	.debug_frame
  17              		.section	.text._idle_thread,"ax",%progbits
  18              		.align	1
  19              		.syntax unified
  20              		.thumb
  21              		.thumb_func
  22              		.fpu fpv4-sp-d16
  23              		.type	_idle_thread, %function
  24              	_idle_thread:
  25              	.LFB217:
  26              		.file 1 "../../modules/ChibiOS/os/rt/src/chsys.c"
  27              		.loc 1 72 0
  28              		.cfi_startproc
  29              		@ Volatile: function does not return.
  30              		@ args = 0, pretend = 0, frame = 0
  31              		@ frame_needed = 0, uses_anonymous_args = 0
  32              		@ link register save eliminated.
  33              	.LVL0:
  34              	.L2:
  35 0000 FEE7     		b	.L2
  36              		.cfi_endproc
  37              	.LFE217:
  38              		.size	_idle_thread, .-_idle_thread
  39              		.section	.text.chSysInit,"ax",%progbits
  40              		.align	1
  41              		.global	chSysInit
  42              		.syntax unified
  43              		.thumb
  44              		.thumb_func
  45              		.fpu fpv4-sp-d16
  46              		.type	chSysInit, %function
  47              	chSysInit:
  48              	.LFB218:
  49              		.loc 1 100 0
  50              		.cfi_startproc
  51              		@ args = 0, pretend = 0, frame = 0
  52              		@ frame_needed = 0, uses_anonymous_args = 0
  53              		.loc 1 100 0
  54 0000 10B5     		push	{r4, lr}
  55              		.cfi_def_cfa_offset 8
  56              		.cfi_offset 4, -8
  57              		.cfi_offset 14, -4
ARM GAS  /tmp/ccYV1CFC.s 			page 2


  58              		.loc 1 131 0
  59 0002 174C     		ldr	r4, .L4
  60              		.loc 1 102 0
  61 0004 FFF7FEFF 		bl	_scheduler_init
  62              	.LVL1:
  63              		.loc 1 103 0
  64 0008 FFF7FEFF 		bl	_vt_init
  65              	.LVL2:
  66              		.loc 1 131 0
  67 000c 8022     		movs	r2, #128
  68 000e 1549     		ldr	r1, .L4+4
  69 0010 2046     		mov	r0, r4
  70 0012 FFF7FEFF 		bl	_thread_init
  71              	.LVL3:
  72              		.loc 1 150 0
  73 0016 0123     		movs	r3, #1
  74              		.loc 1 131 0
  75 0018 44F8180C 		str	r0, [r4, #-24]
  76              		.loc 1 150 0
  77 001c 0374     		strb	r3, [r0, #16]
  78              	.LVL4:
  79              	.LBB145:
  80              	.LBB146:
  81              	.LBB147:
  82              	.LBB148:
  83              		.file 2 "../../modules/ChibiOS/os/common/ext/ARM/CMSIS/Core/Include/core_cm4.h"
  84              		.loc 2 1662 0
  85 001e 124B     		ldr	r3, .L4+8
  86              		.loc 2 1664 0
  87 0020 124A     		ldr	r2, .L4+12
  88              		.loc 2 1662 0
  89 0022 D968     		ldr	r1, [r3, #12]
  90              	.LVL5:
  91              		.loc 2 1663 0
  92 0024 21F4E061 		bic	r1, r1, #1792
  93              	.LVL6:
  94 0028 0904     		lsls	r1, r1, #16
  95 002a 090C     		lsrs	r1, r1, #16
  96              	.LVL7:
  97              		.loc 2 1664 0
  98 002c 0A43     		orrs	r2, r2, r1
  99              	.LVL8:
 100              	.LBE148:
 101              	.LBE147:
 102              		.file 3 "../../modules/ChibiOS/os/common/ports/ARMCMx/chcore_v7m.h"
 103              		.loc 3 520 0
 104 002e 1049     		ldr	r1, .L4+16
 105              	.LBB150:
 106              	.LBB149:
 107              		.loc 2 1667 0
 108 0030 DA60     		str	r2, [r3, #12]
 109              	.LVL9:
 110              	.LBE149:
 111              	.LBE150:
 112              		.loc 3 520 0
 113 0032 CA68     		ldr	r2, [r1, #12]
 114 0034 42F08072 		orr	r2, r2, #16777216
ARM GAS  /tmp/ccYV1CFC.s 			page 3


 115 0038 CA60     		str	r2, [r1, #12]
 116              		.loc 3 524 0
 117 003a 0E49     		ldr	r1, .L4+20
 118 003c 0A68     		ldr	r2, [r1]
 119 003e 42F00102 		orr	r2, r2, #1
 120 0042 0A60     		str	r2, [r1]
 121              	.LVL10:
 122              	.LBB151:
 123              	.LBB152:
 124              		.loc 2 1824 0
 125 0044 1022     		movs	r2, #16
 126 0046 DA77     		strb	r2, [r3, #31]
 127              	.LVL11:
 128              	.LBE152:
 129              	.LBE151:
 130              	.LBB153:
 131              	.LBB154:
 132 0048 2022     		movs	r2, #32
 133 004a 83F82220 		strb	r2, [r3, #34]
 134              	.LVL12:
 135              	.LBE154:
 136              	.LBE153:
 137              	.LBE146:
 138              	.LBE145:
 139              	.LBB155:
 140              	.LBB156:
 141              	.LBB157:
 142              	.LBB158:
 143              		.file 4 "../../modules/ChibiOS/os/common/ext/ARM/CMSIS/Core/Include/cmsis_gcc.h"
 144              		.loc 4 493 0
 145 004e 0023     		movs	r3, #0
 146              		.syntax unified
 147              	@ 493 "../../modules/ChibiOS/os/common/ext/ARM/CMSIS/Core/Include/cmsis_gcc.h" 1
 148 0050 83F31188 		MSR basepri, r3
 149              	@ 0 "" 2
 150              	.LVL13:
 151              		.thumb
 152              		.syntax unified
 153              	.LBE158:
 154              	.LBE157:
 155              	.LBB159:
 156              	.LBB160:
 157              		.loc 4 131 0
 158              		.syntax unified
 159              	@ 131 "../../modules/ChibiOS/os/common/ext/ARM/CMSIS/Core/Include/cmsis_gcc.h" 1
 160 0054 62B6     		cpsie i
 161              	@ 0 "" 2
 162              		.thumb
 163              		.syntax unified
 164              	.LBE160:
 165              	.LBE159:
 166              	.LBE156:
 167              	.LBE155:
 168              	.LBB161:
 169              		.loc 1 181 0
 170 0056 0848     		ldr	r0, .L4+24
 171              	.LBE161:
ARM GAS  /tmp/ccYV1CFC.s 			page 4


 172              		.loc 1 184 0
 173 0058 BDE81040 		pop	{r4, lr}
 174              		.cfi_restore 14
 175              		.cfi_restore 4
 176              		.cfi_def_cfa_offset 0
 177              	.LBB162:
 178              		.loc 1 181 0
 179 005c FFF7FEBF 		b	chThdCreate
 180              	.LVL14:
 181              	.L5:
 182              		.align	2
 183              	.L4:
 184 0060 28000000 		.word	ch+40
 185 0064 00000000 		.word	.LC0
 186 0068 00ED00E0 		.word	-536810240
 187 006c 0003FA05 		.word	100270848
 188 0070 F0ED00E0 		.word	-536810000
 189 0074 001000E0 		.word	-536866816
 190 0078 00000000 		.word	.LANCHOR0
 191              	.LBE162:
 192              		.cfi_endproc
 193              	.LFE218:
 194              		.size	chSysInit, .-chSysInit
 195              		.section	.text.chSysHalt,"ax",%progbits
 196              		.align	1
 197              		.global	chSysHalt
 198              		.syntax unified
 199              		.thumb
 200              		.thumb_func
 201              		.fpu fpv4-sp-d16
 202              		.type	chSysHalt, %function
 203              	chSysHalt:
 204              	.LFB219:
 205              		.loc 1 198 0
 206              		.cfi_startproc
 207              		@ Volatile: function does not return.
 208              		@ args = 0, pretend = 0, frame = 0
 209              		@ frame_needed = 0, uses_anonymous_args = 0
 210              	.LVL15:
 211 0000 08B5     		push	{r3, lr}
 212              		.cfi_def_cfa_offset 8
 213              		.cfi_offset 3, -8
 214              		.cfi_offset 14, -4
 215              	.LBB163:
 216              	.LBB164:
 217              	.LBB165:
 218              		.loc 4 142 0
 219              		.syntax unified
 220              	@ 142 "../../modules/ChibiOS/os/common/ext/ARM/CMSIS/Core/Include/cmsis_gcc.h" 1
 221 0002 72B6     		cpsid i
 222              	@ 0 "" 2
 223              		.thumb
 224              		.syntax unified
 225              	.LBE165:
 226              	.LBE164:
 227              	.LBE163:
 228              		.loc 1 206 0
ARM GAS  /tmp/ccYV1CFC.s 			page 5


 229 0004 034B     		ldr	r3, .L8
 230 0006 5862     		str	r0, [r3, #36]
 231              	.LBB166:
 232              		.loc 1 209 0
 233 0008 FFF7FEFF 		bl	memory_flush_all
 234              	.LVL16:
 235 000c FFF7FEFF 		bl	system_halt_hook
 236              	.LVL17:
 237              	.L7:
 238 0010 FEE7     		b	.L7
 239              	.L9:
 240 0012 00BF     		.align	2
 241              	.L8:
 242 0014 00000000 		.word	ch
 243              	.LBE166:
 244              		.cfi_endproc
 245              	.LFE219:
 246              		.size	chSysHalt, .-chSysHalt
 247              		.section	.text.chSysIntegrityCheckI,"ax",%progbits
 248              		.align	1
 249              		.global	chSysIntegrityCheckI
 250              		.syntax unified
 251              		.thumb
 252              		.thumb_func
 253              		.fpu fpv4-sp-d16
 254              		.type	chSysIntegrityCheckI, %function
 255              	chSysIntegrityCheckI:
 256              	.LFB220:
 257              		.loc 1 240 0
 258              		.cfi_startproc
 259              		@ args = 0, pretend = 0, frame = 0
 260              		@ frame_needed = 0, uses_anonymous_args = 0
 261              	.LVL18:
 262              		.loc 1 246 0
 263 0000 C307     		lsls	r3, r0, #31
 264              		.loc 1 240 0
 265 0002 10B5     		push	{r4, lr}
 266              		.cfi_def_cfa_offset 8
 267              		.cfi_offset 4, -8
 268              		.cfi_offset 14, -4
 269              		.loc 1 246 0
 270 0004 08D5     		bpl	.L11
 271              	.LVL19:
 272              	.LBB167:
 273              		.loc 1 251 0
 274 0006 144B     		ldr	r3, .L26
 275 0008 1968     		ldr	r1, [r3]
 276              	.LVL20:
 277              		.loc 1 250 0
 278 000a 0022     		movs	r2, #0
 279              	.LVL21:
 280              	.L12:
 281              		.loc 1 252 0
 282 000c 9942     		cmp	r1, r3
 283 000e 15D1     		bne	.L13
 284              		.loc 1 258 0
 285 0010 5968     		ldr	r1, [r3, #4]
ARM GAS  /tmp/ccYV1CFC.s 			page 6


 286              	.LVL22:
 287              	.L14:
 288              		.loc 1 259 0
 289 0012 9942     		cmp	r1, r3
 290 0014 15D1     		bne	.L15
 291              		.loc 1 265 0
 292 0016 EAB9     		cbnz	r2, .L21
 293              	.LVL23:
 294              	.L11:
 295              	.LBE167:
 296              		.loc 1 271 0
 297 0018 10F00200 		ands	r0, r0, #2
 298              	.LVL24:
 299 001c 1BD0     		beq	.L16
 300              	.LVL25:
 301              	.LBB168:
 302              		.loc 1 276 0
 303 001e 0E4B     		ldr	r3, .L26
 304              		.loc 1 277 0
 305 0020 03F11401 		add	r1, r3, #20
 306              		.loc 1 276 0
 307 0024 5A69     		ldr	r2, [r3, #20]
 308              	.LVL26:
 309              		.loc 1 275 0
 310 0026 0020     		movs	r0, #0
 311 0028 0C46     		mov	r4, r1
 312              	.LVL27:
 313              	.L17:
 314              		.loc 1 277 0
 315 002a 8A42     		cmp	r2, r1
 316 002c 0CD1     		bne	.L18
 317              		.loc 1 283 0
 318 002e 9B69     		ldr	r3, [r3, #24]
 319              	.LVL28:
 320              	.L19:
 321              		.loc 1 284 0
 322 0030 A342     		cmp	r3, r4
 323 0032 0CD1     		bne	.L20
 324              		.loc 1 290 0
 325 0034 0030     		adds	r0, r0, #0
 326 0036 18BF     		it	ne
 327 0038 0120     		movne	r0, #1
 328              	.LVL29:
 329 003a 10BD     		pop	{r4, pc}
 330              	.LVL30:
 331              	.L13:
 332              	.LBE168:
 333              	.LBB169:
 334              		.loc 1 253 0
 335 003c 0132     		adds	r2, r2, #1
 336              	.LVL31:
 337              		.loc 1 254 0
 338 003e 0968     		ldr	r1, [r1]
 339              	.LVL32:
 340 0040 E4E7     		b	.L12
 341              	.L15:
 342              		.loc 1 260 0
ARM GAS  /tmp/ccYV1CFC.s 			page 7


 343 0042 013A     		subs	r2, r2, #1
 344              	.LVL33:
 345              		.loc 1 261 0
 346 0044 4968     		ldr	r1, [r1, #4]
 347              	.LVL34:
 348 0046 E4E7     		b	.L14
 349              	.LVL35:
 350              	.L18:
 351              	.LBE169:
 352              	.LBB170:
 353              		.loc 1 278 0
 354 0048 0130     		adds	r0, r0, #1
 355              	.LVL36:
 356              		.loc 1 279 0
 357 004a 1268     		ldr	r2, [r2]
 358              	.LVL37:
 359 004c EDE7     		b	.L17
 360              	.LVL38:
 361              	.L20:
 362              		.loc 1 285 0
 363 004e 0138     		subs	r0, r0, #1
 364              	.LVL39:
 365              		.loc 1 286 0
 366 0050 5B68     		ldr	r3, [r3, #4]
 367              	.LVL40:
 368 0052 EDE7     		b	.L19
 369              	.LVL41:
 370              	.L21:
 371              	.LBE170:
 372              	.LBB171:
 373              		.loc 1 266 0
 374 0054 0120     		movs	r0, #1
 375              	.LVL42:
 376              	.L16:
 377              	.LBE171:
 378              		.loc 1 328 0
 379 0056 10BD     		pop	{r4, pc}
 380              	.L27:
 381              		.align	2
 382              	.L26:
 383 0058 00000000 		.word	ch
 384              		.cfi_endproc
 385              	.LFE220:
 386              		.size	chSysIntegrityCheckI, .-chSysIntegrityCheckI
 387              		.section	.text.chSysTimerHandlerI,"ax",%progbits
 388              		.align	1
 389              		.global	chSysTimerHandlerI
 390              		.syntax unified
 391              		.thumb
 392              		.thumb_func
 393              		.fpu fpv4-sp-d16
 394              		.type	chSysTimerHandlerI, %function
 395              	chSysTimerHandlerI:
 396              	.LFB221:
 397              		.loc 1 341 0
 398              		.cfi_startproc
 399              		@ args = 0, pretend = 0, frame = 0
ARM GAS  /tmp/ccYV1CFC.s 			page 8


 400              		@ frame_needed = 0, uses_anonymous_args = 0
 401 0000 2DE9F84F 		push	{r3, r4, r5, r6, r7, r8, r9, r10, fp, lr}
 402              		.cfi_def_cfa_offset 40
 403              		.cfi_offset 3, -40
 404              		.cfi_offset 4, -36
 405              		.cfi_offset 5, -32
 406              		.cfi_offset 6, -28
 407              		.cfi_offset 7, -24
 408              		.cfi_offset 8, -20
 409              		.cfi_offset 9, -16
 410              		.cfi_offset 10, -12
 411              		.cfi_offset 11, -8
 412              		.cfi_offset 14, -4
 413              	.LBB197:
 414              	.LBB198:
 415              		.file 5 "../../modules/ChibiOS/os/rt/include/chvt.h"
 416              		.loc 5 399 0
 417 0004 1F4C     		ldr	r4, .L35
 418              	.LBB199:
 419              	.LBB200:
 420              	.LBB201:
 421              	.LBB202:
 422              		.file 6 "../../modules/ChibiOS/os/hal/ports/STM32/LLD/TIMv1/hal_st_lld.h"
 423              		.loc 6 168 0
 424 0006 DFF88090 		ldr	r9, .L35+4
 425              	.LBE202:
 426              	.LBE201:
 427              	.LBE200:
 428              	.LBE199:
 429              		.loc 5 399 0
 430 000a 6569     		ldr	r5, [r4, #20]
 431              	.LVL43:
 432 000c 04F11407 		add	r7, r4, #20
 433              	.LBB206:
 434              		.loc 5 424 0
 435 0010 4FF00008 		mov	r8, #0
 436              	.L32:
 437              	.LBE206:
 438              	.LBB224:
 439              	.LBB205:
 440              	.LBB204:
 441              	.LBB203:
 442              		.loc 6 168 0
 443 0014 D9F82430 		ldr	r3, [r9, #36]
 444              	.LVL44:
 445              	.LBE203:
 446              	.LBE204:
 447              	.LBE205:
 448              	.LBE224:
 449              	.LBB225:
 450              	.LBB226:
 451              		.file 7 "../../modules/ChibiOS/os/rt/include/chtime.h"
 452              		.loc 7 514 0
 453 0018 266A     		ldr	r6, [r4, #32]
 454              	.LBE226:
 455              	.LBE225:
 456              		.loc 5 409 0
ARM GAS  /tmp/ccYV1CFC.s 			page 9


 457 001a AA68     		ldr	r2, [r5, #8]
 458              	.LBB228:
 459              	.LBB227:
 460              		.loc 7 514 0
 461 001c 9E1B     		subs	r6, r3, r6
 462              	.LVL45:
 463              	.LBE227:
 464              	.LBE228:
 465              		.loc 5 409 0
 466 001e 9642     		cmp	r6, r2
 467 0020 1DD3     		bcc	.L29
 468              	.LBB229:
 469              	.LBB207:
 470              	.LBB208:
 471              	.LBB209:
 472              	.LBB210:
 473              	.LBB211:
 474              		.loc 4 493 0
 475 0022 4FF0200A 		mov	r10, #32
 476              	.L31:
 477              	.LVL46:
 478              	.LBE211:
 479              	.LBE210:
 480              	.LBE209:
 481              	.LBE208:
 482              	.LBE207:
 483              		.loc 5 418 0
 484 0026 AA68     		ldr	r2, [r5, #8]
 485 0028 236A     		ldr	r3, [r4, #32]
 486              		.loc 5 423 0
 487 002a D5F80CB0 		ldr	fp, [r5, #12]
 488              		.loc 5 418 0
 489 002e 1344     		add	r3, r3, r2
 490 0030 2362     		str	r3, [r4, #32]
 491              		.loc 5 421 0
 492 0032 2B68     		ldr	r3, [r5]
 493              		.loc 5 427 0
 494 0034 BB42     		cmp	r3, r7
 495              		.loc 5 421 0
 496 0036 5F60     		str	r7, [r3, #4]
 497              		.loc 5 419 0
 498 0038 A6EB0206 		sub	r6, r6, r2
 499              	.LVL47:
 500              		.loc 5 422 0
 501 003c 6361     		str	r3, [r4, #20]
 502              		.loc 5 424 0
 503 003e C5F80C80 		str	r8, [r5, #12]
 504              		.loc 5 427 0
 505 0042 01D1     		bne	.L30
 506              	.LBB216:
 507              	.LBB217:
 508              		.file 8 "../../modules/ChibiOS/os/common/ports/ARMCMx/chcore_timer.h"
 509              		.loc 8 83 0
 510 0044 FFF7FEFF 		bl	stStopAlarm
 511              	.LVL48:
 512              	.L30:
 513              	.LBE217:
ARM GAS  /tmp/ccYV1CFC.s 			page 10


 514              	.LBE216:
 515              	.LBB218:
 516              	.LBB219:
 517              	.LBB220:
 518              	.LBB221:
 519              	.LBB222:
 520              		.loc 4 493 0
 521              		.syntax unified
 522              	@ 493 "../../modules/ChibiOS/os/common/ext/ARM/CMSIS/Core/Include/cmsis_gcc.h" 1
 523 0048 88F31188 		MSR basepri, r8
 524              	@ 0 "" 2
 525              	.LVL49:
 526              		.thumb
 527              		.syntax unified
 528              	.LBE222:
 529              	.LBE221:
 530              	.LBE220:
 531              	.LBE219:
 532              	.LBE218:
 533              		.loc 5 433 0
 534 004c 2869     		ldr	r0, [r5, #16]
 535 004e D847     		blx	fp
 536              	.LVL50:
 537              	.LBB223:
 538              	.LBB215:
 539              	.LBB214:
 540              	.LBB213:
 541              	.LBB212:
 542              		.loc 4 493 0
 543              		.syntax unified
 544              	@ 493 "../../modules/ChibiOS/os/common/ext/ARM/CMSIS/Core/Include/cmsis_gcc.h" 1
 545 0050 8AF31188 		MSR basepri, r10
 546              	@ 0 "" 2
 547              	.LVL51:
 548              		.thumb
 549              		.syntax unified
 550              	.LBE212:
 551              	.LBE213:
 552              	.LBE214:
 553              	.LBE215:
 554              	.LBE223:
 555              		.loc 5 437 0
 556 0054 6569     		ldr	r5, [r4, #20]
 557              	.LVL52:
 558              	.LBE229:
 559              		.loc 5 439 0
 560 0056 AB68     		ldr	r3, [r5, #8]
 561 0058 9E42     		cmp	r6, r3
 562 005a E4D2     		bcs	.L31
 563 005c DAE7     		b	.L32
 564              	.LVL53:
 565              	.L29:
 566              		.loc 5 443 0
 567 005e 6269     		ldr	r2, [r4, #20]
 568 0060 BA42     		cmp	r2, r7
 569 0062 0CD0     		beq	.L28
 570              		.loc 5 450 0
ARM GAS  /tmp/ccYV1CFC.s 			page 11


 571 0064 9168     		ldr	r1, [r2, #8]
 572              		.loc 5 449 0
 573 0066 2362     		str	r3, [r4, #32]
 574              		.loc 5 450 0
 575 0068 8E1B     		subs	r6, r1, r6
 576 006a 9660     		str	r6, [r2, #8]
 577              	.LVL54:
 578              	.LBB230:
 579              	.LBB231:
 580              		.loc 7 498 0
 581 006c A868     		ldr	r0, [r5, #8]
 582              	.LBE231:
 583              	.LBE230:
 584              	.LBB232:
 585              	.LBB233:
 586              		.loc 8 95 0
 587 006e 0228     		cmp	r0, #2
 588 0070 2CBF     		ite	cs
 589 0072 1818     		addcs	r0, r3, r0
 590 0074 981C     		addcc	r0, r3, #2
 591              	.LBE233:
 592              	.LBE232:
 593              	.LBE198:
 594              	.LBE197:
 595              		.loc 1 357 0
 596 0076 BDE8F84F 		pop	{r3, r4, r5, r6, r7, r8, r9, r10, fp, lr}
 597              		.cfi_remember_state
 598              		.cfi_restore 14
 599              		.cfi_restore 11
 600              		.cfi_restore 10
 601              		.cfi_restore 9
 602              		.cfi_restore 8
 603              		.cfi_restore 7
 604              		.cfi_restore 6
 605              		.cfi_restore 5
 606              		.cfi_restore 4
 607              		.cfi_restore 3
 608              		.cfi_def_cfa_offset 0
 609              	.LVL55:
 610              	.LBB237:
 611              	.LBB236:
 612              	.LBB235:
 613              	.LBB234:
 614              		.loc 8 95 0
 615 007a FFF7FEBF 		b	stSetAlarm
 616              	.LVL56:
 617              	.L28:
 618              		.cfi_restore_state
 619 007e BDE8F88F 		pop	{r3, r4, r5, r6, r7, r8, r9, r10, fp, pc}
 620              	.LVL57:
 621              	.L36:
 622 0082 00BF     		.align	2
 623              	.L35:
 624 0084 00000000 		.word	ch
 625 0088 000C0040 		.word	1073744896
 626              	.LBE234:
 627              	.LBE235:
ARM GAS  /tmp/ccYV1CFC.s 			page 12


 628              	.LBE236:
 629              	.LBE237:
 630              		.cfi_endproc
 631              	.LFE221:
 632              		.size	chSysTimerHandlerI, .-chSysTimerHandlerI
 633              		.section	.text.chSysGetStatusAndLockX,"ax",%progbits
 634              		.align	1
 635              		.global	chSysGetStatusAndLockX
 636              		.syntax unified
 637              		.thumb
 638              		.thumb_func
 639              		.fpu fpv4-sp-d16
 640              		.type	chSysGetStatusAndLockX, %function
 641              	chSysGetStatusAndLockX:
 642              	.LFB222:
 643              		.loc 1 372 0
 644              		.cfi_startproc
 645              		@ args = 0, pretend = 0, frame = 0
 646              		@ frame_needed = 0, uses_anonymous_args = 0
 647              		@ link register save eliminated.
 648              	.LBB255:
 649              	.LBB256:
 650              	.LBB257:
 651              	.LBB258:
 652              		.loc 4 465 0
 653              		.syntax unified
 654              	@ 465 "../../modules/ChibiOS/os/common/ext/ARM/CMSIS/Core/Include/cmsis_gcc.h" 1
 655 0000 EFF31180 		MRS r0, basepri
 656              	@ 0 "" 2
 657              		.thumb
 658              		.syntax unified
 659              	.LBE258:
 660              	.LBE257:
 661              	.LBE256:
 662              	.LBE255:
 663              		.loc 1 375 0
 664 0004 20B9     		cbnz	r0, .L37
 665              	.LBB259:
 666              	.LBB260:
 667              	.LBB261:
 668              	.LBB262:
 669              		.loc 4 209 0
 670              		.syntax unified
 671              	@ 209 "../../modules/ChibiOS/os/common/ext/ARM/CMSIS/Core/Include/cmsis_gcc.h" 1
 672 0006 EFF30583 		MRS r3, ipsr
 673              	@ 0 "" 2
 674              		.thumb
 675              		.syntax unified
 676 000a 2022     		movs	r2, #32
 677              	.LVL58:
 678              	.LBE262:
 679              	.LBE261:
 680              	.LBE260:
 681              	.LBE259:
 682              	.LBB263:
 683              	.LBB264:
 684              	.LBB265:
ARM GAS  /tmp/ccYV1CFC.s 			page 13


 685              	.LBB266:
 686              		.loc 4 493 0
 687              		.syntax unified
 688              	@ 493 "../../modules/ChibiOS/os/common/ext/ARM/CMSIS/Core/Include/cmsis_gcc.h" 1
 689 000c 82F31188 		MSR basepri, r2
 690              	@ 0 "" 2
 691              	.LVL59:
 692              		.thumb
 693              		.syntax unified
 694              	.L37:
 695              	.LBE266:
 696              	.LBE265:
 697              	.LBE264:
 698              	.LBE263:
 699              		.loc 1 384 0
 700 0010 7047     		bx	lr
 701              		.cfi_endproc
 702              	.LFE222:
 703              		.size	chSysGetStatusAndLockX, .-chSysGetStatusAndLockX
 704              		.section	.text.chSysRestoreStatusX,"ax",%progbits
 705              		.align	1
 706              		.global	chSysRestoreStatusX
 707              		.syntax unified
 708              		.thumb
 709              		.thumb_func
 710              		.fpu fpv4-sp-d16
 711              		.type	chSysRestoreStatusX, %function
 712              	chSysRestoreStatusX:
 713              	.LFB223:
 714              		.loc 1 395 0
 715              		.cfi_startproc
 716              		@ args = 0, pretend = 0, frame = 0
 717              		@ frame_needed = 0, uses_anonymous_args = 0
 718              	.LVL60:
 719 0000 10B5     		push	{r4, lr}
 720              		.cfi_def_cfa_offset 8
 721              		.cfi_offset 4, -8
 722              		.cfi_offset 14, -4
 723              		.loc 1 397 0
 724 0002 58B9     		cbnz	r0, .L40
 725              	.LBB281:
 726              	.LBB282:
 727              	.LBB283:
 728              	.LBB284:
 729              		.loc 4 209 0
 730              		.syntax unified
 731              	@ 209 "../../modules/ChibiOS/os/common/ext/ARM/CMSIS/Core/Include/cmsis_gcc.h" 1
 732 0004 EFF30584 		MRS r4, ipsr
 733              	@ 0 "" 2
 734              		.thumb
 735              		.syntax unified
 736              	.LBE284:
 737              	.LBE283:
 738              		.loc 3 594 0
 739 0008 C4F30804 		ubfx	r4, r4, #0, #9
 740              	.LBE282:
 741              	.LBE281:
ARM GAS  /tmp/ccYV1CFC.s 			page 14


 742              		.loc 1 398 0
 743 000c 14B1     		cbz	r4, .L42
 744              	.LVL61:
 745              	.LBB285:
 746              	.LBB286:
 747              	.LBB287:
 748              	.LBB288:
 749              	.LBB289:
 750              		.loc 4 493 0
 751              		.syntax unified
 752              	@ 493 "../../modules/ChibiOS/os/common/ext/ARM/CMSIS/Core/Include/cmsis_gcc.h" 1
 753 000e 80F31188 		MSR basepri, r0
 754              	@ 0 "" 2
 755              	.LVL62:
 756              		.thumb
 757              		.syntax unified
 758 0012 10BD     		pop	{r4, pc}
 759              	.L42:
 760              	.LBE289:
 761              	.LBE288:
 762              	.LBE287:
 763              	.LBE286:
 764              	.LBE285:
 765              		.loc 1 402 0
 766 0014 FFF7FEFF 		bl	chSchRescheduleS
 767              	.LVL63:
 768              	.LBB290:
 769              	.LBB291:
 770              	.LBB292:
 771              	.LBB293:
 772              	.LBB294:
 773              		.loc 4 493 0
 774              		.syntax unified
 775              	@ 493 "../../modules/ChibiOS/os/common/ext/ARM/CMSIS/Core/Include/cmsis_gcc.h" 1
 776 0018 84F31188 		MSR basepri, r4
 777              	@ 0 "" 2
 778              	.LVL64:
 779              		.thumb
 780              		.syntax unified
 781              	.L40:
 782 001c 10BD     		pop	{r4, pc}
 783              	.LBE294:
 784              	.LBE293:
 785              	.LBE292:
 786              	.LBE291:
 787              	.LBE290:
 788              		.cfi_endproc
 789              	.LFE223:
 790              		.size	chSysRestoreStatusX, .-chSysRestoreStatusX
 791              		.section	.text.chSysIsCounterWithinX,"ax",%progbits
 792              		.align	1
 793              		.global	chSysIsCounterWithinX
 794              		.syntax unified
 795              		.thumb
 796              		.thumb_func
 797              		.fpu fpv4-sp-d16
 798              		.type	chSysIsCounterWithinX, %function
ARM GAS  /tmp/ccYV1CFC.s 			page 15


 799              	chSysIsCounterWithinX:
 800              	.LFB224:
 801              		.loc 1 427 0
 802              		.cfi_startproc
 803              		@ args = 0, pretend = 0, frame = 0
 804              		@ frame_needed = 0, uses_anonymous_args = 0
 805              		@ link register save eliminated.
 806              	.LVL65:
 807              		.loc 1 429 0
 808 0000 401A     		subs	r0, r0, r1
 809              	.LVL66:
 810 0002 521A     		subs	r2, r2, r1
 811              	.LVL67:
 812              		.loc 1 430 0
 813 0004 9042     		cmp	r0, r2
 814 0006 2CBF     		ite	cs
 815 0008 0020     		movcs	r0, #0
 816 000a 0120     		movcc	r0, #1
 817 000c 7047     		bx	lr
 818              		.cfi_endproc
 819              	.LFE224:
 820              		.size	chSysIsCounterWithinX, .-chSysIsCounterWithinX
 821              		.section	.text.chSysPolledDelayX,"ax",%progbits
 822              		.align	1
 823              		.global	chSysPolledDelayX
 824              		.syntax unified
 825              		.thumb
 826              		.thumb_func
 827              		.fpu fpv4-sp-d16
 828              		.type	chSysPolledDelayX, %function
 829              	chSysPolledDelayX:
 830              	.LFB225:
 831              		.loc 1 443 0
 832              		.cfi_startproc
 833              		@ args = 0, pretend = 0, frame = 0
 834              		@ frame_needed = 0, uses_anonymous_args = 0
 835              		@ link register save eliminated.
 836              	.LVL68:
 837              	.LBB295:
 838              	.LBB296:
 839              		.loc 3 716 0
 840 0000 034B     		ldr	r3, .L47
 841 0002 5968     		ldr	r1, [r3, #4]
 842              	.LVL69:
 843              	.L45:
 844              	.LBE296:
 845              	.LBE295:
 846              	.LBB297:
 847              	.LBB298:
 848              		.loc 3 716 0 is_stmt 0 discriminator 1
 849 0004 5A68     		ldr	r2, [r3, #4]
 850              	.LBE298:
 851              	.LBE297:
 852              	.LBB299:
 853              	.LBB300:
 854              		.loc 1 429 0 is_stmt 1 discriminator 1
 855 0006 521A     		subs	r2, r2, r1
ARM GAS  /tmp/ccYV1CFC.s 			page 16


 856              	.LBE300:
 857              	.LBE299:
 858              		.loc 1 447 0 discriminator 1
 859 0008 9042     		cmp	r0, r2
 860 000a FBD8     		bhi	.L45
 861              		.loc 1 449 0
 862 000c 7047     		bx	lr
 863              	.L48:
 864 000e 00BF     		.align	2
 865              	.L47:
 866 0010 001000E0 		.word	-536866816
 867              		.cfi_endproc
 868              	.LFE225:
 869              		.size	chSysPolledDelayX, .-chSysPolledDelayX
 870              		.global	ch_idle_thread_wa
 871              		.section	.bss.ch_idle_thread_wa,"aw",%nobits
 872              		.align	3
 873              		.type	ch_idle_thread_wa, %object
 874              		.size	ch_idle_thread_wa, 504
 875              	ch_idle_thread_wa:
 876 0000 00000000 		.space	504
 876      00000000 
 876      00000000 
 876      00000000 
 876      00000000 
 877              		.section	.rodata.chSysInit.str1.1,"aMS",%progbits,1
 878              	.LC0:
 879 0000 6D61696E 		.ascii	"main\000"
 879      00
 880              		.section	.rodata.idle_descriptor.7357,"a",%progbits
 881              		.align	2
 882              		.set	.LANCHOR0,. + 0
 883              		.type	idle_descriptor.7357, %object
 884              		.size	idle_descriptor.7357, 24
 885              	idle_descriptor.7357:
 886 0000 00000000 		.word	.LC1
 887 0004 00000000 		.word	ch_idle_thread_wa
 888 0008 F8010000 		.word	ch_idle_thread_wa+504
 889 000c 01000000 		.word	1
 890 0010 00000000 		.word	_idle_thread
 891 0014 00000000 		.word	0
 892              		.section	.rodata.str1.1,"aMS",%progbits,1
 893              	.LC1:
 894 0000 69646C65 		.ascii	"idle\000"
 894      00
 895              		.text
 896              	.Letext0:
 897              		.file 9 "/opt/gcc-arm-none-eabi-6-2017-q2-update/lib/gcc/arm-none-eabi/6.3.1/include/stddef.h"
 898              		.file 10 "/opt/gcc-arm-none-eabi-6-2017-q2-update/arm-none-eabi/include/machine/_default_types.h"
 899              		.file 11 "/opt/gcc-arm-none-eabi-6-2017-q2-update/arm-none-eabi/include/sys/_stdint.h"
 900              		.file 12 "../../modules/ChibiOS/os/common/ports/ARMCMx/compilers/GCC/chtypes.h"
 901              		.file 13 "../../modules/ChibiOS/os/rt/include/chsystypes.h"
 902              		.file 14 "../../modules/ChibiOS/os/rt/include/chschd.h"
 903              		.file 15 "../../modules/ChibiOS/os/common/ext/ST/STM32F4xx/stm32f407xx.h"
 904              		.file 16 "../../modules/ChibiOS/os/common/ext/ST/STM32F4xx/system_stm32f4xx.h"
 905              		.file 17 "../../modules/ChibiOS/os/common/ports/ARMCMx/chcore.h"
 906              		.file 18 "../../modules/ChibiOS/os/hal/ports/STM32/LLD/TIMv1/stm32_tim.h"
ARM GAS  /tmp/ccYV1CFC.s 			page 17


 907              		.file 19 "../../modules/ChibiOS/os/rt/include/chsys.h"
 908              		.file 20 "../../modules/ChibiOS/os/rt/include/chthreads.h"
 909              		.file 21 "../../modules/ChibiOS/os/hal/include/hal_st.h"