ARM GAS  /tmp/cckSp55Q.s 			page 1


   1              		.cpu cortex-m4
   2              		.eabi_attribute 27, 1
   3              		.eabi_attribute 28, 1
   4              		.eabi_attribute 20, 1
   5              		.eabi_attribute 21, 1
   6              		.eabi_attribute 23, 3
   7              		.eabi_attribute 24, 1
   8              		.eabi_attribute 25, 1
   9              		.eabi_attribute 26, 1
  10              		.eabi_attribute 30, 4
  11              		.eabi_attribute 34, 1
  12              		.eabi_attribute 18, 4
  13              		.file	"chvt.c"
  14              		.text
  15              	.Ltext0:
  16              		.cfi_sections	.debug_frame
  17              		.section	.text._vt_init,"ax",%progbits
  18              		.align	1
  19              		.global	_vt_init
  20              		.syntax unified
  21              		.thumb
  22              		.thumb_func
  23              		.fpu fpv4-sp-d16
  24              		.type	_vt_init, %function
  25              	_vt_init:
  26              	.LFB217:
  27              		.file 1 "../../modules/ChibiOS/os/rt/src/chvt.c"
  28              		.loc 1 61 0
  29              		.cfi_startproc
  30              		@ args = 0, pretend = 0, frame = 0
  31              		@ frame_needed = 0, uses_anonymous_args = 0
  32              		@ link register save eliminated.
  33              		.loc 1 63 0
  34 0000 054B     		ldr	r3, .L2
  35 0002 03F11402 		add	r2, r3, #20
  36 0006 5A61     		str	r2, [r3, #20]
  37              		.loc 1 64 0
  38 0008 9A61     		str	r2, [r3, #24]
  39              		.loc 1 65 0
  40 000a 4FF0FF32 		mov	r2, #-1
  41 000e DA61     		str	r2, [r3, #28]
  42              		.loc 1 69 0
  43 0010 0022     		movs	r2, #0
  44 0012 1A62     		str	r2, [r3, #32]
  45 0014 7047     		bx	lr
  46              	.L3:
  47 0016 00BF     		.align	2
  48              	.L2:
  49 0018 00000000 		.word	ch
  50              		.cfi_endproc
  51              	.LFE217:
  52              		.size	_vt_init, .-_vt_init
  53              		.section	.text.chVTDoSetI,"ax",%progbits
  54              		.align	1
  55              		.global	chVTDoSetI
  56              		.syntax unified
  57              		.thumb
ARM GAS  /tmp/cckSp55Q.s 			page 2


  58              		.thumb_func
  59              		.fpu fpv4-sp-d16
  60              		.type	chVTDoSetI, %function
  61              	chVTDoSetI:
  62              	.LFB218:
  63              		.loc 1 96 0
  64              		.cfi_startproc
  65              		@ args = 0, pretend = 0, frame = 0
  66              		@ frame_needed = 0, uses_anonymous_args = 0
  67              	.LVL0:
  68 0000 F8B5     		push	{r3, r4, r5, r6, r7, lr}
  69              		.cfi_def_cfa_offset 24
  70              		.cfi_offset 3, -24
  71              		.cfi_offset 4, -20
  72              		.cfi_offset 5, -16
  73              		.cfi_offset 6, -12
  74              		.cfi_offset 7, -8
  75              		.cfi_offset 14, -4
  76              		.loc 1 103 0
  77 0002 0361     		str	r3, [r0, #16]
  78              	.LBB40:
  79              	.LBB41:
  80              	.LBB42:
  81              	.LBB43:
  82              	.LBB44:
  83              		.file 2 "../../modules/ChibiOS/os/hal/ports/STM32/LLD/TIMv1/hal_st_lld.h"
  84              		.loc 2 168 0
  85 0004 1A4B     		ldr	r3, .L10
  86              	.LVL1:
  87              	.LBE44:
  88              	.LBE43:
  89              	.LBE42:
  90              	.LBE41:
  91              	.LBE40:
  92              		.loc 1 104 0
  93 0006 C260     		str	r2, [r0, #12]
  94              	.LBB58:
  95              	.LBB48:
  96              	.LBB47:
  97              	.LBB46:
  98              	.LBB45:
  99              		.loc 2 168 0
 100 0008 5C6A     		ldr	r4, [r3, #36]
 101              	.LBE45:
 102              	.LBE46:
 103              	.LBE47:
 104              	.LBE48:
 105              		.loc 1 117 0
 106 000a 1A4B     		ldr	r3, .L10+4
 107 000c 1A46     		mov	r2, r3
 108              	.LVL2:
 109 000e 0229     		cmp	r1, #2
 110 0010 52F8145F 		ldr	r5, [r2, #20]!
 111 0014 38BF     		it	cc
 112 0016 0221     		movcc	r1, #2
 113              	.LVL3:
 114 0018 9542     		cmp	r5, r2
ARM GAS  /tmp/cckSp55Q.s 			page 3


 115              	.LBE58:
 116              		.loc 1 96 0
 117 001a 0646     		mov	r6, r0
 118 001c 1F46     		mov	r7, r3
 119              	.LBB59:
 120              		.loc 1 117 0
 121 001e 0AD1     		bne	.L5
 122              		.loc 1 122 0
 123 0020 5861     		str	r0, [r3, #20]
 124              		.loc 1 123 0
 125 0022 9861     		str	r0, [r3, #24]
 126              		.loc 1 121 0
 127 0024 1C62     		str	r4, [r3, #32]
 128              		.loc 1 124 0
 129 0026 0560     		str	r5, [r0]
 130              		.loc 1 125 0
 131 0028 4560     		str	r5, [r0, #4]
 132              		.loc 1 126 0
 133 002a 8160     		str	r1, [r0, #8]
 134              	.LBB49:
 135              	.LBB50:
 136              		.file 3 "../../modules/ChibiOS/os/common/ports/ARMCMx/chcore_timer.h"
 137              		.loc 3 73 0
 138 002c 0819     		adds	r0, r1, r4
 139              	.LVL4:
 140              	.LBE50:
 141              	.LBE49:
 142              	.LBE59:
 143              		.loc 1 201 0
 144 002e BDE8F840 		pop	{r3, r4, r5, r6, r7, lr}
 145              		.cfi_remember_state
 146              		.cfi_restore 14
 147              		.cfi_restore 7
 148              		.cfi_restore 6
 149              		.cfi_restore 5
 150              		.cfi_restore 4
 151              		.cfi_restore 3
 152              		.cfi_def_cfa_offset 0
 153              	.LVL5:
 154              	.LBB60:
 155              	.LBB52:
 156              	.LBB51:
 157              		.loc 3 73 0
 158 0032 FFF7FEBF 		b	stStartAlarm
 159              	.LVL6:
 160              	.L5:
 161              		.cfi_restore_state
 162              	.LBE51:
 163              	.LBE52:
 164              		.loc 1 146 0
 165 0036 186A     		ldr	r0, [r3, #32]
 166              	.LVL7:
 167 0038 AB68     		ldr	r3, [r5, #8]
 168              	.LBB53:
 169              	.LBB54:
 170              		.file 4 "../../modules/ChibiOS/os/rt/include/chtime.h"
 171              		.loc 4 514 0
ARM GAS  /tmp/cckSp55Q.s 			page 4


 172 003a 241A     		subs	r4, r4, r0
 173              	.LVL8:
 174              	.LBE54:
 175              	.LBE53:
 176              		.loc 1 148 0
 177 003c 0C19     		adds	r4, r1, r4
 178              	.LVL9:
 179 003e 02D3     		bcc	.L6
 180              	.LVL10:
 181              	.L9:
 182              	.LBE60:
 183              		.loc 1 184 0
 184 0040 E41A     		subs	r4, r4, r3
 185              	.LVL11:
 186              		.loc 1 185 0
 187 0042 2D68     		ldr	r5, [r5]
 188              	.LVL12:
 189 0044 04E0     		b	.L8
 190              	.LVL13:
 191              	.L6:
 192              	.LBB61:
 193              		.loc 1 155 0
 194 0046 9C42     		cmp	r4, r3
 195 0048 02D2     		bcs	.L8
 196              	.LVL14:
 197              	.LBB55:
 198              	.LBB56:
 199              	.LBB57:
 200              		.loc 3 95 0
 201 004a 2044     		add	r0, r0, r4
 202 004c FFF7FEFF 		bl	stSetAlarm
 203              	.LVL15:
 204              	.L8:
 205              	.LBE57:
 206              	.LBE56:
 207              	.LBE55:
 208              	.LBE61:
 209              		.loc 1 180 0
 210 0050 AB68     		ldr	r3, [r5, #8]
 211 0052 9C42     		cmp	r4, r3
 212 0054 F4D8     		bhi	.L9
 213              		.loc 1 190 0
 214 0056 6B68     		ldr	r3, [r5, #4]
 215 0058 7360     		str	r3, [r6, #4]
 216              		.loc 1 189 0
 217 005a 3560     		str	r5, [r6]
 218              		.loc 1 191 0
 219 005c 1E60     		str	r6, [r3]
 220              		.loc 1 192 0
 221 005e 6E60     		str	r6, [r5, #4]
 222              		.loc 1 193 0
 223 0060 B460     		str	r4, [r6, #8]
 224              		.loc 1 196 0
 225 0062 A968     		ldr	r1, [r5, #8]
 226              		.loc 1 200 0
 227 0064 4FF0FF33 		mov	r3, #-1
 228              		.loc 1 196 0
ARM GAS  /tmp/cckSp55Q.s 			page 5


 229 0068 091B     		subs	r1, r1, r4
 230 006a A960     		str	r1, [r5, #8]
 231              		.loc 1 200 0
 232 006c FB61     		str	r3, [r7, #28]
 233 006e F8BD     		pop	{r3, r4, r5, r6, r7, pc}
 234              	.LVL16:
 235              	.L11:
 236              		.align	2
 237              	.L10:
 238 0070 000C0040 		.word	1073744896
 239 0074 00000000 		.word	ch
 240              		.cfi_endproc
 241              	.LFE218:
 242              		.size	chVTDoSetI, .-chVTDoSetI
 243              		.section	.text.chVTDoResetI,"ax",%progbits
 244              		.align	1
 245              		.global	chVTDoResetI
 246              		.syntax unified
 247              		.thumb
 248              		.thumb_func
 249              		.fpu fpv4-sp-d16
 250              		.type	chVTDoResetI, %function
 251              	chVTDoResetI:
 252              	.LFB219:
 253              		.loc 1 211 0
 254              		.cfi_startproc
 255              		@ args = 0, pretend = 0, frame = 0
 256              		@ frame_needed = 0, uses_anonymous_args = 0
 257              		@ link register save eliminated.
 258              	.LVL17:
 259 0000 10B4     		push	{r4}
 260              		.cfi_def_cfa_offset 4
 261              		.cfi_offset 4, -4
 262              		.loc 1 235 0
 263 0002 1A4C     		ldr	r4, .L19
 264 0004 2346     		mov	r3, r4
 265 0006 53F8141F 		ldr	r1, [r3, #20]!
 266 000a 8142     		cmp	r1, r0
 267 000c 10D0     		beq	.L13
 268              		.loc 1 237 0
 269 000e 4168     		ldr	r1, [r0, #4]
 270 0010 0268     		ldr	r2, [r0]
 271 0012 0A60     		str	r2, [r1]
 272              		.loc 1 238 0
 273 0014 0268     		ldr	r2, [r0]
 274 0016 5160     		str	r1, [r2, #4]
 275              		.loc 1 242 0
 276 0018 9A42     		cmp	r2, r3
 277              		.loc 1 239 0
 278 001a 4FF00001 		mov	r1, #0
 279 001e C160     		str	r1, [r0, #12]
 280              		.loc 1 242 0
 281 0020 03D0     		beq	.L12
 282              		.loc 1 243 0
 283 0022 9368     		ldr	r3, [r2, #8]
 284 0024 8168     		ldr	r1, [r0, #8]
 285 0026 0B44     		add	r3, r3, r1
ARM GAS  /tmp/cckSp55Q.s 			page 6


 286 0028 9360     		str	r3, [r2, #8]
 287              	.LVL18:
 288              	.L12:
 289              		.loc 1 297 0
 290 002a 5DF8044B 		ldr	r4, [sp], #4
 291              		.cfi_remember_state
 292              		.cfi_restore 4
 293              		.cfi_def_cfa_offset 0
 294 002e 7047     		bx	lr
 295              	.LVL19:
 296              	.L13:
 297              		.cfi_restore_state
 298              		.loc 1 249 0
 299 0030 0A68     		ldr	r2, [r1]
 300 0032 6261     		str	r2, [r4, #20]
 301              		.loc 1 251 0
 302 0034 0020     		movs	r0, #0
 303              	.LVL20:
 304              		.loc 1 254 0
 305 0036 9A42     		cmp	r2, r3
 306              		.loc 1 250 0
 307 0038 5360     		str	r3, [r2, #4]
 308              		.loc 1 251 0
 309 003a C860     		str	r0, [r1, #12]
 310              		.loc 1 254 0
 311 003c 03D1     		bne	.L16
 312              		.loc 1 297 0
 313 003e 5DF8044B 		ldr	r4, [sp], #4
 314              		.cfi_remember_state
 315              		.cfi_restore 4
 316              		.cfi_def_cfa_offset 0
 317              	.LBB62:
 318              	.LBB63:
 319              		.loc 3 83 0
 320 0042 FFF7FEBF 		b	stStopAlarm
 321              	.LVL21:
 322              	.L16:
 323              		.cfi_restore_state
 324              	.LBE63:
 325              	.LBE62:
 326              		.loc 1 261 0
 327 0046 9368     		ldr	r3, [r2, #8]
 328 0048 8868     		ldr	r0, [r1, #8]
 329 004a 0344     		add	r3, r3, r0
 330 004c 9360     		str	r3, [r2, #8]
 331              	.LBB64:
 332              	.LBB65:
 333              	.LBB66:
 334              	.LBB67:
 335              		.loc 2 168 0
 336 004e 084A     		ldr	r2, .L19+4
 337              	.LBE67:
 338              	.LBE66:
 339              	.LBE65:
 340              	.LBE64:
 341              		.loc 1 270 0
 342 0050 206A     		ldr	r0, [r4, #32]
ARM GAS  /tmp/cckSp55Q.s 			page 7


 343              	.LBB71:
 344              	.LBB70:
 345              	.LBB69:
 346              	.LBB68:
 347              		.loc 2 168 0
 348 0052 526A     		ldr	r2, [r2, #36]
 349              	.LVL22:
 350              	.LBE68:
 351              	.LBE69:
 352              	.LBE70:
 353              	.LBE71:
 354              	.LBB72:
 355              	.LBB73:
 356              		.loc 4 514 0
 357 0054 121A     		subs	r2, r2, r0
 358              	.LVL23:
 359              	.LBE73:
 360              	.LBE72:
 361              		.loc 1 274 0
 362 0056 9342     		cmp	r3, r2
 363 0058 E7D9     		bls	.L12
 364              	.LVL24:
 365              		.loc 1 279 0
 366 005a 991A     		subs	r1, r3, r2
 367              	.LVL25:
 368              		.loc 1 283 0
 369 005c 0129     		cmp	r1, #1
 370              		.loc 1 284 0
 371 005e 98BF     		it	ls
 372 0060 931C     		addls	r3, r2, #2
 373              	.LVL26:
 374              	.LBB74:
 375              	.LBB75:
 376              		.loc 3 95 0
 377 0062 1844     		add	r0, r0, r3
 378              	.LBE75:
 379              	.LBE74:
 380              		.loc 1 297 0
 381 0064 5DF8044B 		ldr	r4, [sp], #4
 382              		.cfi_restore 4
 383              		.cfi_def_cfa_offset 0
 384              	.LBB77:
 385              	.LBB76:
 386              		.loc 3 95 0
 387 0068 FFF7FEBF 		b	stSetAlarm
 388              	.LVL27:
 389              	.L20:
 390              		.align	2
 391              	.L19:
 392 006c 00000000 		.word	ch
 393 0070 000C0040 		.word	1073744896
 394              	.LBE76:
 395              	.LBE77:
 396              		.cfi_endproc
 397              	.LFE219:
 398              		.size	chVTDoResetI, .-chVTDoResetI
 399              		.text
ARM GAS  /tmp/cckSp55Q.s 			page 8


 400              	.Letext0:
 401              		.file 5 "/opt/gcc-arm-none-eabi-6-2017-q2-update/arm-none-eabi/include/machine/_default_types.h"
 402              		.file 6 "/opt/gcc-arm-none-eabi-6-2017-q2-update/arm-none-eabi/include/sys/_stdint.h"
 403              		.file 7 "../../modules/ChibiOS/os/common/ports/ARMCMx/compilers/GCC/chtypes.h"
 404              		.file 8 "../../modules/ChibiOS/os/rt/include/chsystypes.h"
 405              		.file 9 "../../modules/ChibiOS/os/rt/include/chschd.h"
 406              		.file 10 "../../modules/ChibiOS/os/common/ext/ARM/CMSIS/Core/Include/core_cm4.h"
 407              		.file 11 "../../modules/ChibiOS/os/common/ext/ST/STM32F4xx/system_stm32f4xx.h"
 408              		.file 12 "../../modules/ChibiOS/os/common/ports/ARMCMx/chcore.h"
 409              		.file 13 "../../modules/ChibiOS/os/common/ports/ARMCMx/chcore_v7m.h"
 410              		.file 14 "../../modules/ChibiOS/os/hal/ports/STM32/LLD/TIMv1/stm32_tim.h"
 411              		.file 15 "../../modules/ChibiOS/os/rt/include/chsys.h"
 412              		.file 16 "../../modules/ChibiOS/os/rt/include/chvt.h"
 413              		.file 17 "../../modules/ChibiOS/os/hal/include/hal_st.h"