ARM GAS  /tmp/ccWR9Gnm.s 			page 1


   1              		.cpu cortex-m4
   2              		.eabi_attribute 27, 1
   3              		.eabi_attribute 28, 1
   4              		.eabi_attribute 20, 1
   5              		.eabi_attribute 21, 1
   6              		.eabi_attribute 23, 3
   7              		.eabi_attribute 24, 1
   8              		.eabi_attribute 25, 1
   9              		.eabi_attribute 26, 1
  10              		.eabi_attribute 30, 4
  11              		.eabi_attribute 34, 1
  12              		.eabi_attribute 18, 4
  13              		.file	"ff.c"
  14              		.text
  15              	.Ltext0:
  16              		.cfi_sections	.debug_frame
  17              		.section	.text.ld_dword,"ax",%progbits
  18              		.align	1
  19              		.syntax unified
  20              		.thumb
  21              		.thumb_func
  22              		.fpu fpv4-sp-d16
  23              		.type	ld_dword, %function
  24              	ld_dword:
  25              	.LFB291:
  26              		.file 1 "../../modules/ChibiOS/ext/fatfs/src/ff.c"
  27              		.loc 1 559 0
  28              		.cfi_startproc
  29              		@ args = 0, pretend = 0, frame = 0
  30              		@ frame_needed = 0, uses_anonymous_args = 0
  31              		@ link register save eliminated.
  32              	.LVL0:
  33              		.loc 1 563 0
  34 0000 4288     		ldrh	r2, [r0, #2]	@ unaligned
  35              	.LVL1:
  36              		.loc 1 564 0
  37 0002 4378     		ldrb	r3, [r0, #1]	@ zero_extendqisi2
  38              		.loc 1 565 0
  39 0004 0078     		ldrb	r0, [r0]	@ zero_extendqisi2
  40              	.LVL2:
  41              		.loc 1 564 0
  42 0006 43EA0223 		orr	r3, r3, r2, lsl #8
  43              	.LVL3:
  44              		.loc 1 567 0
  45 000a 40EA0320 		orr	r0, r0, r3, lsl #8
  46 000e 7047     		bx	lr
  47              		.cfi_endproc
  48              	.LFE291:
  49              		.size	ld_dword, .-ld_dword
  50              		.section	.text.ld_qword,"ax",%progbits
  51              		.align	1
  52              		.syntax unified
  53              		.thumb
  54              		.thumb_func
  55              		.fpu fpv4-sp-d16
  56              		.type	ld_qword, %function
  57              	ld_qword:
ARM GAS  /tmp/ccWR9Gnm.s 			page 2


  58              	.LFB292:
  59              		.loc 1 572 0
  60              		.cfi_startproc
  61              		@ args = 0, pretend = 0, frame = 0
  62              		@ frame_needed = 0, uses_anonymous_args = 0
  63              	.LVL4:
  64 0000 30B5     		push	{r4, r5, lr}
  65              		.cfi_def_cfa_offset 12
  66              		.cfi_offset 4, -12
  67              		.cfi_offset 5, -8
  68              		.cfi_offset 14, -4
  69              		.loc 1 578 0
  70 0002 4168     		ldr	r1, [r0, #4]	@ unaligned
  71              		.loc 1 579 0
  72 0004 C478     		ldrb	r4, [r0, #3]	@ zero_extendqisi2
  73 0006 0B0E     		lsrs	r3, r1, #24
  74 0008 0025     		movs	r5, #0
  75 000a 0A02     		lsls	r2, r1, #8
  76              	.LVL5:
  77 000c 1D43     		orrs	r5, r5, r3
  78 000e 1443     		orrs	r4, r4, r2
  79              		.loc 1 580 0
  80 0010 2B02     		lsls	r3, r5, #8
  81 0012 43EA1463 		orr	r3, r3, r4, lsr #24
  82 0016 2202     		lsls	r2, r4, #8
  83              	.LVL6:
  84 0018 0025     		movs	r5, #0
  85 001a 8478     		ldrb	r4, [r0, #2]	@ zero_extendqisi2
  86 001c 1D43     		orrs	r5, r5, r3
  87 001e 1443     		orrs	r4, r4, r2
  88              		.loc 1 581 0
  89 0020 2B02     		lsls	r3, r5, #8
  90 0022 43EA1463 		orr	r3, r3, r4, lsr #24
  91 0026 2202     		lsls	r2, r4, #8
  92              	.LVL7:
  93 0028 0025     		movs	r5, #0
  94 002a 4478     		ldrb	r4, [r0, #1]	@ zero_extendqisi2
  95              		.loc 1 582 0
  96 002c 0078     		ldrb	r0, [r0]	@ zero_extendqisi2
  97              	.LVL8:
  98              		.loc 1 581 0
  99 002e 1D43     		orrs	r5, r5, r3
 100 0030 1443     		orrs	r4, r4, r2
 101              	.LVL9:
 102              		.loc 1 582 0
 103 0032 2B02     		lsls	r3, r5, #8
 104 0034 43EA1463 		orr	r3, r3, r4, lsr #24
 105 0038 2202     		lsls	r2, r4, #8
 106              	.LVL10:
 107 003a 0021     		movs	r1, #0
 108              		.loc 1 584 0
 109 003c 1043     		orrs	r0, r0, r2
 110 003e 1943     		orrs	r1, r1, r3
 111 0040 30BD     		pop	{r4, r5, pc}
 112              		.cfi_endproc
 113              	.LFE292:
 114              		.size	ld_qword, .-ld_qword
ARM GAS  /tmp/ccWR9Gnm.s 			page 3


 115              		.section	.text.st_dword,"ax",%progbits
 116              		.align	1
 117              		.syntax unified
 118              		.thumb
 119              		.thumb_func
 120              		.fpu fpv4-sp-d16
 121              		.type	st_dword, %function
 122              	st_dword:
 123              	.LFB294:
 124              		.loc 1 597 0
 125              		.cfi_startproc
 126              		@ args = 0, pretend = 0, frame = 0
 127              		@ frame_needed = 0, uses_anonymous_args = 0
 128              		@ link register save eliminated.
 129              	.LVL11:
 130              		.loc 1 598 0
 131 0000 0B0A     		lsrs	r3, r1, #8
 132 0002 0170     		strb	r1, [r0]
 133              	.LVL12:
 134              		.loc 1 599 0
 135 0004 4370     		strb	r3, [r0, #1]
 136              	.LVL13:
 137 0006 0B0C     		lsrs	r3, r1, #16
 138              	.LVL14:
 139              		.loc 1 600 0
 140 0008 090E     		lsrs	r1, r1, #24
 141 000a 8370     		strb	r3, [r0, #2]
 142              	.LVL15:
 143              		.loc 1 601 0
 144 000c C170     		strb	r1, [r0, #3]
 145 000e 7047     		bx	lr
 146              		.cfi_endproc
 147              	.LFE294:
 148              		.size	st_dword, .-st_dword
 149              		.section	.text.st_qword,"ax",%progbits
 150              		.align	1
 151              		.syntax unified
 152              		.thumb
 153              		.thumb_func
 154              		.fpu fpv4-sp-d16
 155              		.type	st_qword, %function
 156              	st_qword:
 157              	.LFB295:
 158              		.loc 1 607 0
 159              		.cfi_startproc
 160              		@ args = 0, pretend = 0, frame = 0
 161              		@ frame_needed = 0, uses_anonymous_args = 0
 162              		@ link register save eliminated.
 163              	.LVL16:
 164              		.loc 1 608 0
 165 0000 110A     		lsrs	r1, r2, #8
 166 0002 0270     		strb	r2, [r0]
 167              	.LVL17:
 168              		.loc 1 609 0
 169 0004 4170     		strb	r1, [r0, #1]
 170              	.LVL18:
 171 0006 110C     		lsrs	r1, r2, #16
ARM GAS  /tmp/ccWR9Gnm.s 			page 4


 172              		.loc 1 610 0
 173 0008 120E     		lsrs	r2, r2, #24
 174              	.LVL19:
 175              		.loc 1 611 0
 176 000a C270     		strb	r2, [r0, #3]
 177              		.loc 1 612 0
 178 000c 1A0A     		lsrs	r2, r3, #8
 179 000e 0371     		strb	r3, [r0, #4]
 180              		.loc 1 613 0
 181 0010 4271     		strb	r2, [r0, #5]
 182 0012 1A0C     		lsrs	r2, r3, #16
 183              		.loc 1 614 0
 184 0014 1B0E     		lsrs	r3, r3, #24
 185              		.loc 1 610 0
 186 0016 8170     		strb	r1, [r0, #2]
 187              	.LVL20:
 188              		.loc 1 614 0
 189 0018 8271     		strb	r2, [r0, #6]
 190              	.LVL21:
 191              		.loc 1 615 0
 192 001a C371     		strb	r3, [r0, #7]
 193 001c 7047     		bx	lr
 194              		.cfi_endproc
 195              	.LFE295:
 196              		.size	st_qword, .-st_qword
 197              		.section	.text.mem_set,"ax",%progbits
 198              		.align	1
 199              		.syntax unified
 200              		.thumb
 201              		.thumb_func
 202              		.fpu fpv4-sp-d16
 203              		.type	mem_set, %function
 204              	mem_set:
 205              	.LFB297:
 206              		.loc 1 644 0
 207              		.cfi_startproc
 208              		@ args = 0, pretend = 0, frame = 0
 209              		@ frame_needed = 0, uses_anonymous_args = 0
 210              		@ link register save eliminated.
 211              	.LVL22:
 212 0000 0244     		add	r2, r2, r0
 213              	.LVL23:
 214              	.L6:
 215              		.loc 1 648 0 discriminator 1
 216 0002 00F8011B 		strb	r1, [r0], #1
 217              	.LVL24:
 218              		.loc 1 649 0 discriminator 1
 219 0006 9042     		cmp	r0, r2
 220 0008 FBD1     		bne	.L6
 221              		.loc 1 650 0
 222 000a 7047     		bx	lr
 223              		.cfi_endproc
 224              	.LFE297:
 225              		.size	mem_set, .-mem_set
 226              		.section	.text.mem_cmp,"ax",%progbits
 227              		.align	1
 228              		.syntax unified
ARM GAS  /tmp/ccWR9Gnm.s 			page 5


 229              		.thumb
 230              		.thumb_func
 231              		.fpu fpv4-sp-d16
 232              		.type	mem_cmp, %function
 233              	mem_cmp:
 234              	.LFB298:
 235              		.loc 1 656 0
 236              		.cfi_startproc
 237              		@ args = 0, pretend = 0, frame = 0
 238              		@ frame_needed = 0, uses_anonymous_args = 0
 239              	.LVL25:
 240 0000 30B5     		push	{r4, r5, lr}
 241              		.cfi_def_cfa_offset 12
 242              		.cfi_offset 4, -12
 243              		.cfi_offset 5, -8
 244              		.cfi_offset 14, -4
 245              		.loc 1 657 0
 246 0002 0446     		mov	r4, r0
 247              	.LVL26:
 248              	.L10:
 249              		.loc 1 661 0 discriminator 2
 250 0004 14F8013B 		ldrb	r3, [r4], #1	@ zero_extendqisi2
 251              	.LVL27:
 252 0008 11F8015B 		ldrb	r5, [r1], #1	@ zero_extendqisi2
 253              	.LVL28:
 254 000c 5B1B     		subs	r3, r3, r5
 255              	.LVL29:
 256 000e 151B     		subs	r5, r2, r4
 257              		.loc 1 662 0 discriminator 2
 258 0010 E842     		cmn	r0, r5
 259 0012 01D0     		beq	.L8
 260              		.loc 1 662 0 is_stmt 0 discriminator 1
 261 0014 002B     		cmp	r3, #0
 262 0016 F5D0     		beq	.L10
 263              	.L8:
 264              		.loc 1 665 0 is_stmt 1
 265 0018 1846     		mov	r0, r3
 266              	.LVL30:
 267 001a 30BD     		pop	{r4, r5, pc}
 268              		.cfi_endproc
 269              	.LFE298:
 270              		.size	mem_cmp, .-mem_cmp
 271              		.section	.text.clst2sect,"ax",%progbits
 272              		.align	1
 273              		.syntax unified
 274              		.thumb
 275              		.thumb_func
 276              		.fpu fpv4-sp-d16
 277              		.type	clst2sect, %function
 278              	clst2sect:
 279              	.LFB305:
 280              		.loc 1 966 0
 281              		.cfi_startproc
 282              		@ args = 0, pretend = 0, frame = 0
 283              		@ frame_needed = 0, uses_anonymous_args = 0
 284              		@ link register save eliminated.
 285              	.LVL31:
ARM GAS  /tmp/ccWR9Gnm.s 			page 6


 286              		.loc 1 968 0
 287 0000 C36A     		ldr	r3, [r0, #44]
 288              		.loc 1 967 0
 289 0002 0239     		subs	r1, r1, #2
 290              	.LVL32:
 291              		.loc 1 968 0
 292 0004 023B     		subs	r3, r3, #2
 293 0006 9942     		cmp	r1, r3
 294              		.loc 1 969 0
 295 0008 3DBF     		ittte	cc
 296 000a 4389     		ldrhcc	r3, [r0, #10]
 297 000c 006C     		ldrcc	r0, [r0, #64]
 298              	.LVL33:
 299 000e 01FB0300 		mlacc	r0, r1, r3, r0
 300              		.loc 1 968 0
 301 0012 0020     		movcs	r0, #0
 302              		.loc 1 970 0
 303 0014 7047     		bx	lr
 304              		.cfi_endproc
 305              	.LFE305:
 306              		.size	clst2sect, .-clst2sect
 307              		.section	.text.sum_sfn,"ax",%progbits
 308              		.align	1
 309              		.syntax unified
 310              		.thumb
 311              		.thumb_func
 312              		.fpu fpv4-sp-d16
 313              		.type	sum_sfn, %function
 314              	sum_sfn:
 315              	.LFB324:
 316              		.loc 1 1887 0
 317              		.cfi_startproc
 318              		@ args = 0, pretend = 0, frame = 0
 319              		@ frame_needed = 0, uses_anonymous_args = 0
 320              		@ link register save eliminated.
 321              	.LVL34:
 322              		.loc 1 1887 0
 323 0000 0246     		mov	r2, r0
 324 0002 00F10B01 		add	r1, r0, #11
 325              		.loc 1 1888 0
 326 0006 0020     		movs	r0, #0
 327              	.LVL35:
 328              	.L18:
 329              		.loc 1 1892 0 discriminator 1
 330 0008 C301     		lsls	r3, r0, #7
 331 000a 43EA5003 		orr	r3, r3, r0, lsr #1
 332 000e 12F8010B 		ldrb	r0, [r2], #1	@ zero_extendqisi2
 333              	.LVL36:
 334 0012 50FA83F3 		uxtab	r3, r0, r3
 335              		.loc 1 1893 0 discriminator 1
 336 0016 8A42     		cmp	r2, r1
 337              		.loc 1 1892 0 discriminator 1
 338 0018 D8B2     		uxtb	r0, r3
 339              	.LVL37:
 340              		.loc 1 1893 0 discriminator 1
 341 001a F5D1     		bne	.L18
 342              		.loc 1 1895 0
ARM GAS  /tmp/ccWR9Gnm.s 			page 7


 343 001c 7047     		bx	lr
 344              		.cfi_endproc
 345              	.LFE324:
 346              		.size	sum_sfn, .-sum_sfn
 347              		.section	.text.xdir_sum,"ax",%progbits
 348              		.align	1
 349              		.syntax unified
 350              		.thumb
 351              		.thumb_func
 352              		.fpu fpv4-sp-d16
 353              		.type	xdir_sum, %function
 354              	xdir_sum:
 355              	.LFB325:
 356              		.loc 1 1910 0
 357              		.cfi_startproc
 358              		@ args = 0, pretend = 0, frame = 0
 359              		@ frame_needed = 0, uses_anonymous_args = 0
 360              	.LVL38:
 361 0000 30B5     		push	{r4, r5, lr}
 362              		.cfi_def_cfa_offset 12
 363              		.cfi_offset 4, -12
 364              		.cfi_offset 5, -8
 365              		.cfi_offset 14, -4
 366              		.loc 1 1915 0
 367 0002 4178     		ldrb	r1, [r0, #1]	@ zero_extendqisi2
 368              		.loc 1 1916 0
 369 0004 0022     		movs	r2, #0
 370              		.loc 1 1915 0
 371 0006 0131     		adds	r1, r1, #1
 372 0008 4901     		lsls	r1, r1, #5
 373              	.LVL39:
 374              		.loc 1 1916 0
 375 000a 1346     		mov	r3, r2
 376              	.LVL40:
 377              	.L23:
 378              		.loc 1 1917 0
 379 000c 022B     		cmp	r3, #2
 380 000e 0FD0     		beq	.L24
 381              		.loc 1 1920 0
 382 0010 C55C     		ldrb	r5, [r0, r3]	@ zero_extendqisi2
 383 0012 12F0010F 		tst	r2, #1
 384 0016 14BF     		ite	ne
 385 0018 4FF40044 		movne	r4, #32768
 386 001c 0024     		moveq	r4, #0
 387 001e 05EB5202 		add	r2, r5, r2, lsr #1
 388              	.LVL41:
 389 0022 2244     		add	r2, r2, r4
 390 0024 92B2     		uxth	r2, r2
 391              	.LVL42:
 392              	.L21:
 393              		.loc 1 1916 0 discriminator 2
 394 0026 0133     		adds	r3, r3, #1
 395              	.LVL43:
 396 0028 9942     		cmp	r1, r3
 397 002a EFD8     		bhi	.L23
 398              		.loc 1 1924 0
 399 002c 1046     		mov	r0, r2
ARM GAS  /tmp/ccWR9Gnm.s 			page 8


 400              	.LVL44:
 401 002e 30BD     		pop	{r4, r5, pc}
 402              	.LVL45:
 403              	.L24:
 404              		.loc 1 1918 0
 405 0030 0323     		movs	r3, #3
 406              	.LVL46:
 407 0032 F8E7     		b	.L21
 408              		.cfi_endproc
 409              	.LFE325:
 410              		.size	xdir_sum, .-xdir_sum
 411              		.section	.text.get_ldnumber,"ax",%progbits
 412              		.align	1
 413              		.syntax unified
 414              		.thumb
 415              		.thumb_func
 416              		.fpu fpv4-sp-d16
 417              		.type	get_ldnumber, %function
 418              	get_ldnumber:
 419              	.LFB339:
 420              		.loc 1 2953 0
 421              		.cfi_startproc
 422              		@ args = 0, pretend = 0, frame = 0
 423              		@ frame_needed = 0, uses_anonymous_args = 0
 424              	.LVL47:
 425              		.loc 1 2965 0
 426 0000 0268     		ldr	r2, [r0]
 427              		.loc 1 2953 0
 428 0002 10B5     		push	{r4, lr}
 429              		.cfi_def_cfa_offset 8
 430              		.cfi_offset 4, -8
 431              		.cfi_offset 14, -4
 432              		.loc 1 2965 0
 433 0004 52B1     		cbz	r2, .L37
 434 0006 1146     		mov	r1, r2
 435              	.L29:
 436 0008 0B46     		mov	r3, r1
 437              	.LVL48:
 438              		.loc 1 2966 0 discriminator 1
 439 000a 11F8014B 		ldrb	r4, [r1], #1	@ zero_extendqisi2
 440              	.LVL49:
 441 000e 1F2C     		cmp	r4, #31
 442 0010 0CD9     		bls	.L33
 443              		.loc 1 2966 0 is_stmt 0 discriminator 3
 444 0012 3A2C     		cmp	r4, #58
 445 0014 F8D1     		bne	.L29
 446              	.LVL50:
 447              		.loc 1 2969 0 is_stmt 1
 448 0016 511C     		adds	r1, r2, #1
 449              	.LVL51:
 450              		.loc 1 2970 0
 451 0018 8B42     		cmp	r3, r1
 452 001a 02D0     		beq	.L31
 453              	.LVL52:
 454              	.L37:
 455              		.loc 1 2956 0
 456 001c 4FF0FF30 		mov	r0, #-1
ARM GAS  /tmp/ccWR9Gnm.s 			page 9


 457              	.LVL53:
 458              		.loc 1 3001 0
 459 0020 10BD     		pop	{r4, pc}
 460              	.LVL54:
 461              	.L31:
 462              		.loc 1 2971 0
 463 0022 1278     		ldrb	r2, [r2]	@ zero_extendqisi2
 464              	.LVL55:
 465 0024 302A     		cmp	r2, #48
 466 0026 F9D1     		bne	.L37
 467              	.LVL56:
 468              		.loc 1 2973 0
 469 0028 0133     		adds	r3, r3, #1
 470              	.LVL57:
 471 002a 0360     		str	r3, [r0]
 472              	.LVL58:
 473              	.L33:
 474              		.loc 1 2996 0
 475 002c 0020     		movs	r0, #0
 476              	.LVL59:
 477 002e 10BD     		pop	{r4, pc}
 478              		.cfi_endproc
 479              	.LFE339:
 480              		.size	get_ldnumber, .-get_ldnumber
 481              		.section	.text.validate,"ax",%progbits
 482              		.align	1
 483              		.syntax unified
 484              		.thumb
 485              		.thumb_func
 486              		.fpu fpv4-sp-d16
 487              		.type	validate, %function
 488              	validate:
 489              	.LFB342:
 490              		.loc 1 3269 0
 491              		.cfi_startproc
 492              		@ args = 0, pretend = 0, frame = 0
 493              		@ frame_needed = 0, uses_anonymous_args = 0
 494              	.LVL60:
 495 0000 38B5     		push	{r3, r4, r5, lr}
 496              		.cfi_def_cfa_offset 16
 497              		.cfi_offset 3, -16
 498              		.cfi_offset 4, -12
 499              		.cfi_offset 5, -8
 500              		.cfi_offset 14, -4
 501              		.loc 1 3269 0
 502 0002 0D46     		mov	r5, r1
 503              		.loc 1 3273 0
 504 0004 0446     		mov	r4, r0
 505 0006 18B9     		cbnz	r0, .L39
 506              	.LVL61:
 507              	.L41:
 508              		.loc 1 3286 0
 509 0008 0920     		movs	r0, #9
 510              		.loc 1 3290 0
 511 000a 0023     		movs	r3, #0
 512              	.LVL62:
 513              	.L40:
ARM GAS  /tmp/ccWR9Gnm.s 			page 10


 514              		.loc 1 3290 0 is_stmt 0 discriminator 4
 515 000c 2B60     		str	r3, [r5]
 516              		.loc 1 3292 0 is_stmt 1 discriminator 4
 517 000e 38BD     		pop	{r3, r4, r5, pc}
 518              	.LVL63:
 519              	.L39:
 520              		.loc 1 3273 0 discriminator 1
 521 0010 0368     		ldr	r3, [r0]
 522 0012 002B     		cmp	r3, #0
 523 0014 F8D0     		beq	.L41
 524              		.loc 1 3273 0 is_stmt 0 discriminator 2
 525 0016 1A78     		ldrb	r2, [r3]	@ zero_extendqisi2
 526 0018 002A     		cmp	r2, #0
 527 001a F5D0     		beq	.L41
 528              		.loc 1 3273 0 discriminator 3
 529 001c 8188     		ldrh	r1, [r0, #4]
 530              	.LVL64:
 531 001e DA88     		ldrh	r2, [r3, #6]
 532 0020 9142     		cmp	r1, r2
 533 0022 F1D1     		bne	.L41
 534              		.loc 1 3285 0 is_stmt 1
 535 0024 5878     		ldrb	r0, [r3, #1]	@ zero_extendqisi2
 536              	.LVL65:
 537 0026 FFF7FEFF 		bl	disk_status
 538              	.LVL66:
 539 002a 10F00100 		ands	r0, r0, #1
 540 002e EBD1     		bne	.L41
 541              	.LVL67:
 542              		.loc 1 3290 0
 543 0030 2368     		ldr	r3, [r4]
 544 0032 EBE7     		b	.L40
 545              		.cfi_endproc
 546              	.LFE342:
 547              		.size	validate, .-validate
 548              		.section	.text.get_fileinfo,"ax",%progbits
 549              		.align	1
 550              		.syntax unified
 551              		.thumb
 552              		.thumb_func
 553              		.fpu fpv4-sp-d16
 554              		.type	get_fileinfo, %function
 555              	get_fileinfo:
 556              	.LFB336:
 557              		.loc 1 2481 0
 558              		.cfi_startproc
 559              		@ args = 0, pretend = 0, frame = 0
 560              		@ frame_needed = 0, uses_anonymous_args = 0
 561              	.LVL68:
 562 0000 2DE9F041 		push	{r4, r5, r6, r7, r8, lr}
 563              		.cfi_def_cfa_offset 24
 564              		.cfi_offset 4, -24
 565              		.cfi_offset 5, -20
 566              		.cfi_offset 6, -16
 567              		.cfi_offset 7, -12
 568              		.cfi_offset 8, -8
 569              		.cfi_offset 14, -4
 570              		.loc 1 2491 0
ARM GAS  /tmp/ccWR9Gnm.s 			page 11


 571 0004 0025     		movs	r5, #0
 572              		.loc 1 2487 0
 573 0006 D0F80080 		ldr	r8, [r0]
 574              	.LVL69:
 575              		.loc 1 2491 0
 576 000a 8D76     		strb	r5, [r1, #26]
 577              		.loc 1 2492 0
 578 000c 836B     		ldr	r3, [r0, #56]
 579              		.loc 1 2481 0
 580 000e 0746     		mov	r7, r0
 581 0010 0C46     		mov	r4, r1
 582              		.loc 1 2492 0
 583 0012 002B     		cmp	r3, #0
 584 0014 00F0B080 		beq	.L50
 585              		.loc 1 2496 0
 586 0018 98F80030 		ldrb	r3, [r8]	@ zero_extendqisi2
 587 001c 042B     		cmp	r3, #4
 588 001e 4BD1     		bne	.L52
 589              		.loc 1 2497 0
 590 0020 D8F81070 		ldr	r7, [r8, #16]
 591              	.LVL70:
 592              	.LBB147:
 593              	.LBB148:
 594              		.loc 1 1974 0
 595 0024 2E46     		mov	r6, r5
 596 0026 4FF04008 		mov	r8, #64
 597              	.LVL71:
 598              	.L53:
 599 002a 97F82330 		ldrb	r3, [r7, #35]	@ zero_extendqisi2
 600 002e 9D42     		cmp	r5, r3
 601 0030 01D3     		bcc	.L59
 602              		.loc 1 1986 0
 603 0032 26BB     		cbnz	r6, .L57
 604 0034 20E0     		b	.L58
 605              	.L59:
 606              		.loc 1 1975 0
 607 0036 18F01F0F 		tst	r8, #31
 608 003a 08BF     		it	eq
 609 003c 08F10208 		addeq	r8, r8, #2
 610              	.LVL72:
 611              		.loc 1 1976 0
 612 0040 07EB0803 		add	r3, r7, r8
 613              		.loc 1 1978 0
 614 0044 40F25231 		movw	r1, #850
 615              	.LBB149:
 616              	.LBB150:
 617              		.loc 1 553 0
 618 0048 5878     		ldrb	r0, [r3, #1]	@ zero_extendqisi2
 619 004a 17F80830 		ldrb	r3, [r7, r8]	@ zero_extendqisi2
 620              	.LBE150:
 621              	.LBE149:
 622              		.loc 1 1978 0
 623 004e 43EA0020 		orr	r0, r3, r0, lsl #8
 624 0052 FFF7FEFF 		bl	ff_uni2oem
 625              	.LVL73:
 626              		.loc 1 1979 0
 627 0056 FF28     		cmp	r0, #255
ARM GAS  /tmp/ccWR9Gnm.s 			page 12


 628 0058 0CD9     		bls	.L55
 629              	.LVL74:
 630              		.loc 1 1980 0
 631 005a A319     		adds	r3, r4, r6
 632 005c 020A     		lsrs	r2, r0, #8
 633 005e 9A76     		strb	r2, [r3, #26]
 634 0060 0136     		adds	r6, r6, #1
 635              	.LVL75:
 636              	.L56:
 637              		.loc 1 1983 0
 638 0062 FE2E     		cmp	r6, #254
 639 0064 08D8     		bhi	.L58
 640              	.LVL76:
 641              		.loc 1 1984 0
 642 0066 A319     		adds	r3, r4, r6
 643              		.loc 1 1974 0
 644 0068 08F10208 		add	r8, r8, #2
 645              	.LVL77:
 646              		.loc 1 1984 0
 647 006c 9876     		strb	r0, [r3, #26]
 648              		.loc 1 1974 0
 649 006e 0135     		adds	r5, r5, #1
 650              	.LVL78:
 651              		.loc 1 1984 0
 652 0070 0136     		adds	r6, r6, #1
 653              	.LVL79:
 654 0072 DAE7     		b	.L53
 655              	.L55:
 656              		.loc 1 1983 0
 657 0074 0028     		cmp	r0, #0
 658 0076 F4D1     		bne	.L56
 659              	.LVL80:
 660              	.L58:
 661              		.loc 1 1986 0
 662 0078 3F23     		movs	r3, #63
 663 007a A376     		strb	r3, [r4, #26]
 664 007c 0126     		movs	r6, #1
 665              	.LVL81:
 666              	.L57:
 667              		.loc 1 1987 0
 668 007e 2644     		add	r6, r6, r4
 669              	.LVL82:
 670 0080 0023     		movs	r3, #0
 671 0082 B376     		strb	r3, [r6, #26]
 672              		.loc 1 1989 0
 673 0084 6373     		strb	r3, [r4, #13]
 674              		.loc 1 1990 0
 675 0086 3B79     		ldrb	r3, [r7, #4]	@ zero_extendqisi2
 676 0088 2373     		strb	r3, [r4, #12]
 677              		.loc 1 1991 0
 678 008a DB06     		lsls	r3, r3, #27
 679 008c 11D4     		bmi	.L77
 680 008e 07F13800 		add	r0, r7, #56
 681 0092 FFF7FEFF 		bl	ld_qword
 682              	.LVL83:
 683              	.L60:
 684 0096 C4E90001 		strd	r0, [r4]
ARM GAS  /tmp/ccWR9Gnm.s 			page 13


 685              	.LBB151:
 686              	.LBB152:
 687              		.loc 1 553 0
 688 009a 7A7B     		ldrb	r2, [r7, #13]	@ zero_extendqisi2
 689 009c 3B7B     		ldrb	r3, [r7, #12]	@ zero_extendqisi2
 690 009e 43EA0223 		orr	r3, r3, r2, lsl #8
 691              	.LBE152:
 692              	.LBE151:
 693              		.loc 1 1992 0
 694 00a2 6381     		strh	r3, [r4, #10]	@ movhi
 695              	.LBB153:
 696              	.LBB154:
 697              		.loc 1 553 0
 698 00a4 FA7B     		ldrb	r2, [r7, #15]	@ zero_extendqisi2
 699 00a6 BB7B     		ldrb	r3, [r7, #14]	@ zero_extendqisi2
 700 00a8 43EA0223 		orr	r3, r3, r2, lsl #8
 701              	.LBE154:
 702              	.LBE153:
 703              		.loc 1 1993 0
 704 00ac 2381     		strh	r3, [r4, #8]	@ movhi
 705 00ae BDE8F081 		pop	{r4, r5, r6, r7, r8, pc}
 706              	.LVL84:
 707              	.L77:
 708              		.loc 1 1991 0
 709 00b2 0020     		movs	r0, #0
 710 00b4 0021     		movs	r1, #0
 711 00b6 EEE7     		b	.L60
 712              	.LVL85:
 713              	.L52:
 714              	.LBE148:
 715              	.LBE147:
 716              		.loc 1 2502 0
 717 00b8 C36C     		ldr	r3, [r0, #76]
 718 00ba 0133     		adds	r3, r3, #1
 719 00bc 0ED0     		beq	.L61
 720 00be 2E46     		mov	r6, r5
 721              	.LVL86:
 722              	.L62:
 723              		.loc 1 2504 0
 724 00c0 D8F80C30 		ldr	r3, [r8, #12]
 725 00c4 585B     		ldrh	r0, [r3, r5]
 726              	.LVL87:
 727 00c6 30B1     		cbz	r0, .L64
 728              		.loc 1 2506 0
 729 00c8 40F25231 		movw	r1, #850
 730 00cc FFF7FEFF 		bl	ff_uni2oem
 731              	.LVL88:
 732              		.loc 1 2507 0
 733 00d0 0028     		cmp	r0, #0
 734 00d2 53D1     		bne	.L63
 735              	.L66:
 736 00d4 0026     		movs	r6, #0
 737              	.LVL89:
 738              	.L64:
 739              		.loc 1 2515 0
 740 00d6 2644     		add	r6, r6, r4
 741              	.LVL90:
ARM GAS  /tmp/ccWR9Gnm.s 			page 14


 742 00d8 0023     		movs	r3, #0
 743 00da B376     		strb	r3, [r6, #26]
 744              	.LVL91:
 745              	.L61:
 746              		.loc 1 2522 0
 747 00dc F96B     		ldr	r1, [r7, #60]
 748              		.loc 1 2520 0
 749 00de A57E     		ldrb	r5, [r4, #26]	@ zero_extendqisi2
 750              	.LVL92:
 751              		.loc 1 2519 0
 752 00e0 0023     		movs	r3, #0
 753 00e2 4E1E     		subs	r6, r1, #1
 754 00e4 1846     		mov	r0, r3
 755              		.loc 1 2527 0
 756 00e6 2E27     		movs	r7, #46
 757              	.LVL93:
 758              	.L75:
 759              		.loc 1 2522 0
 760 00e8 16F8012F 		ldrb	r2, [r6, #1]!	@ zero_extendqisi2
 761              		.loc 1 2523 0
 762 00ec 202A     		cmp	r2, #32
 763              		.loc 1 2522 0
 764 00ee 00F10100 		add	r0, r0, #1
 765              	.LVL94:
 766              		.loc 1 2523 0
 767 00f2 26D0     		beq	.L68
 768              		.loc 1 2524 0
 769 00f4 052A     		cmp	r2, #5
 770 00f6 08BF     		it	eq
 771 00f8 E522     		moveq	r2, #229
 772              	.LVL95:
 773              		.loc 1 2525 0
 774 00fa 0928     		cmp	r0, #9
 775 00fc 07D1     		bne	.L70
 776 00fe 04EB030E 		add	lr, r4, r3
 777              		.loc 1 2526 0
 778 0102 0DB9     		cbnz	r5, .L71
 779              		.loc 1 2526 0 is_stmt 0 discriminator 1
 780 0104 8EF81A70 		strb	r7, [lr, #26]
 781              	.L71:
 782              	.LVL96:
 783              		.loc 1 2527 0 is_stmt 1
 784 0108 8EF80D70 		strb	r7, [lr, #13]
 785 010c 0133     		adds	r3, r3, #1
 786              	.LVL97:
 787              	.L70:
 788              		.loc 1 2536 0
 789 010e 04EB030E 		add	lr, r4, r3
 790 0112 8EF80D20 		strb	r2, [lr, #13]
 791              		.loc 1 2537 0
 792 0116 9DB9     		cbnz	r5, .L72
 793              		.loc 1 2538 0
 794 0118 A2F1410C 		sub	ip, r2, #65
 795 011c BCF1190F 		cmp	ip, #25
 796 0120 0CD8     		bhi	.L73
 797              		.loc 1 2538 0 is_stmt 0 discriminator 1
 798 0122 0828     		cmp	r0, #8
ARM GAS  /tmp/ccWR9Gnm.s 			page 15


 799 0124 91F80CC0 		ldrb	ip, [r1, #12]	@ zero_extendqisi2
 800 0128 8CBF     		ite	hi
 801 012a 4FF01008 		movhi	r8, #16
 802 012e 4FF00808 		movls	r8, #8
 803 0132 18EA0C0F 		tst	r8, ip
 804              		.loc 1 2539 0 is_stmt 1 discriminator 1
 805 0136 1CBF     		itt	ne
 806 0138 2032     		addne	r2, r2, #32
 807              	.LVL98:
 808 013a D2B2     		uxtbne	r2, r2
 809              	.LVL99:
 810              	.L73:
 811              		.loc 1 2541 0
 812 013c 8EF81A20 		strb	r2, [lr, #26]
 813              	.L72:
 814              		.loc 1 2543 0
 815 0140 0133     		adds	r3, r3, #1
 816              	.LVL100:
 817              	.L68:
 818              		.loc 1 2521 0
 819 0142 0B28     		cmp	r0, #11
 820 0144 D0D1     		bne	.L75
 821              		.loc 1 2545 0
 822 0146 2DB9     		cbnz	r5, .L76
 823              		.loc 1 2546 0
 824 0148 E218     		adds	r2, r4, r3
 825              	.LVL101:
 826 014a 9576     		strb	r5, [r2, #26]
 827              		.loc 1 2547 0
 828 014c 0A7B     		ldrb	r2, [r1, #12]	@ zero_extendqisi2
 829 014e 002A     		cmp	r2, #0
 830 0150 08BF     		it	eq
 831 0152 0023     		moveq	r3, #0
 832              	.LVL102:
 833              	.L76:
 834              		.loc 1 2549 0
 835 0154 2344     		add	r3, r3, r4
 836              	.LVL103:
 837 0156 0025     		movs	r5, #0
 838              	.LVL104:
 839 0158 5D73     		strb	r5, [r3, #13]
 840              		.loc 1 2563 0
 841 015a CB7A     		ldrb	r3, [r1, #11]	@ zero_extendqisi2
 842 015c 2373     		strb	r3, [r4, #12]
 843              		.loc 1 2564 0
 844 015e 01F11C00 		add	r0, r1, #28
 845              	.LVL105:
 846 0162 FFF7FEFF 		bl	ld_dword
 847              	.LVL106:
 848 0166 84E82100 		stm	r4, {r0, r5}
 849              		.loc 1 2565 0
 850 016a 01F11600 		add	r0, r1, #22
 851 016e FFF7FEFF 		bl	ld_dword
 852              	.LVL107:
 853              		.loc 1 2566 0
 854 0172 6081     		strh	r0, [r4, #10]	@ movhi
 855 0174 000C     		lsrs	r0, r0, #16
ARM GAS  /tmp/ccWR9Gnm.s 			page 16


 856              	.LVL108:
 857 0176 2081     		strh	r0, [r4, #8]	@ movhi
 858              	.L50:
 859 0178 BDE8F081 		pop	{r4, r5, r6, r7, r8, pc}
 860              	.LVL109:
 861              	.L63:
 862              		.loc 1 2508 0
 863 017c FF28     		cmp	r0, #255
 864              		.loc 1 2509 0
 865 017e 81BF     		itttt	hi
 866 0180 A319     		addhi	r3, r4, r6
 867 0182 020A     		lsrhi	r2, r0, #8
 868 0184 0136     		addhi	r6, r6, #1
 869              	.LVL110:
 870 0186 9A76     		strbhi	r2, [r3, #26]
 871              		.loc 1 2512 0
 872 0188 FE2E     		cmp	r6, #254
 873 018a 05F10205 		add	r5, r5, #2
 874 018e A1D8     		bhi	.L66
 875              	.LVL111:
 876              		.loc 1 2513 0
 877 0190 A319     		adds	r3, r4, r6
 878 0192 0136     		adds	r6, r6, #1
 879              	.LVL112:
 880 0194 9876     		strb	r0, [r3, #26]
 881 0196 93E7     		b	.L62
 882              		.cfi_endproc
 883              	.LFE336:
 884              		.size	get_fileinfo, .-get_fileinfo
 885              		.section	.text.xname_sum,"ax",%progbits
 886              		.align	1
 887              		.syntax unified
 888              		.thumb
 889              		.thumb_func
 890              		.fpu fpv4-sp-d16
 891              		.type	xname_sum, %function
 892              	xname_sum:
 893              	.LFB326:
 894              		.loc 1 1932 0
 895              		.cfi_startproc
 896              		@ args = 0, pretend = 0, frame = 0
 897              		@ frame_needed = 0, uses_anonymous_args = 0
 898              	.LVL113:
 899 0000 38B5     		push	{r3, r4, r5, lr}
 900              		.cfi_def_cfa_offset 16
 901              		.cfi_offset 3, -16
 902              		.cfi_offset 4, -12
 903              		.cfi_offset 5, -8
 904              		.cfi_offset 14, -4
 905              		.loc 1 1932 0
 906 0002 0546     		mov	r5, r0
 907              		.loc 1 1934 0
 908 0004 0024     		movs	r4, #0
 909              	.LVL114:
 910              	.L96:
 911              		.loc 1 1937 0
 912 0006 35F8020B 		ldrh	r0, [r5], #2
ARM GAS  /tmp/ccWR9Gnm.s 			page 17


 913              	.LVL115:
 914 000a 08B9     		cbnz	r0, .L99
 915              		.loc 1 1943 0
 916 000c 2046     		mov	r0, r4
 917              	.LVL116:
 918 000e 38BD     		pop	{r3, r4, r5, pc}
 919              	.LVL117:
 920              	.L99:
 921              		.loc 1 1938 0
 922 0010 FFF7FEFF 		bl	ff_wtoupper
 923              	.LVL118:
 924              		.loc 1 1939 0
 925 0014 14F0010F 		tst	r4, #1
 926 0018 C2B2     		uxtb	r2, r0
 927 001a 02EB5404 		add	r4, r2, r4, lsr #1
 928              	.LVL119:
 929 001e 14BF     		ite	ne
 930 0020 4FF40043 		movne	r3, #32768
 931 0024 0023     		moveq	r3, #0
 932 0026 2344     		add	r3, r3, r4
 933 0028 9BB2     		uxth	r3, r3
 934              	.LVL120:
 935              		.loc 1 1940 0
 936 002a 13F0010F 		tst	r3, #1
 937 002e 4FEA1020 		lsr	r0, r0, #8
 938              	.LVL121:
 939 0032 14BF     		ite	ne
 940 0034 4FF40042 		movne	r2, #32768
 941 0038 0022     		moveq	r2, #0
 942 003a 00EB5300 		add	r0, r0, r3, lsr #1
 943 003e 12FA80F0 		uxtah	r0, r2, r0
 944 0042 84B2     		uxth	r4, r0
 945              	.LVL122:
 946 0044 DFE7     		b	.L96
 947              		.cfi_endproc
 948              	.LFE326:
 949              		.size	xname_sum, .-xname_sum
 950              		.section	.text.mem_cpy.part.0,"ax",%progbits
 951              		.align	1
 952              		.syntax unified
 953              		.thumb
 954              		.thumb_func
 955              		.fpu fpv4-sp-d16
 956              		.type	mem_cpy.part.0, %function
 957              	mem_cpy.part.0:
 958              	.LFB362:
 959              		.loc 1 628 0
 960              		.cfi_startproc
 961              		@ args = 0, pretend = 0, frame = 0
 962              		@ frame_needed = 0, uses_anonymous_args = 0
 963              		@ link register save eliminated.
 964              	.LVL123:
 965 0000 0138     		subs	r0, r0, #1
 966              	.LVL124:
 967 0002 0A44     		add	r2, r2, r1
 968              	.LVL125:
 969              	.L103:
ARM GAS  /tmp/ccWR9Gnm.s 			page 18


 970              		.loc 1 635 0
 971 0004 11F8013B 		ldrb	r3, [r1], #1	@ zero_extendqisi2
 972              	.LVL126:
 973 0008 00F8013F 		strb	r3, [r0, #1]!
 974              	.LVL127:
 975              		.loc 1 636 0
 976 000c 9142     		cmp	r1, r2
 977 000e F9D1     		bne	.L103
 978              		.loc 1 638 0
 979 0010 7047     		bx	lr
 980              		.cfi_endproc
 981              	.LFE362:
 982              		.size	mem_cpy.part.0, .-mem_cpy.part.0
 983              		.section	.text.ld_clust.isra.3,"ax",%progbits
 984              		.align	1
 985              		.syntax unified
 986              		.thumb
 987              		.thumb_func
 988              		.fpu fpv4-sp-d16
 989              		.type	ld_clust.isra.3, %function
 990              	ld_clust.isra.3:
 991              	.LFB365:
 992              		.loc 1 1675 0
 993              		.cfi_startproc
 994              		@ args = 0, pretend = 0, frame = 0
 995              		@ frame_needed = 0, uses_anonymous_args = 0
 996              		@ link register save eliminated.
 997              	.LVL128:
 998              	.LBB155:
 999              	.LBB156:
 1000              		.loc 1 553 0
 1001 0000 CA7E     		ldrb	r2, [r1, #27]	@ zero_extendqisi2
 1002 0002 8B7E     		ldrb	r3, [r1, #26]	@ zero_extendqisi2
 1003              	.LBE156:
 1004              	.LBE155:
 1005              		.loc 1 1683 0
 1006 0004 0328     		cmp	r0, #3
 1007              		.loc 1 1682 0
 1008 0006 43EA0223 		orr	r3, r3, r2, lsl #8
 1009              	.LVL129:
 1010              	.LBB157:
 1011              	.LBB158:
 1012              		.loc 1 553 0
 1013 000a 01BF     		itttt	eq
 1014 000c 487D     		ldrbeq	r0, [r1, #21]	@ zero_extendqisi2
 1015 000e 0A7D     		ldrbeq	r2, [r1, #20]	@ zero_extendqisi2
 1016              	.LBE158:
 1017              	.LBE157:
 1018              		.loc 1 1684 0
 1019 0010 42EA0022 		orreq	r2, r2, r0, lsl #8
 1020 0014 43EA0243 		orreq	r3, r3, r2, lsl #16
 1021              	.LVL130:
 1022              		.loc 1 1688 0
 1023 0018 1846     		mov	r0, r3
 1024 001a 7047     		bx	lr
 1025              		.cfi_endproc
 1026              	.LFE365:
ARM GAS  /tmp/ccWR9Gnm.s 			page 19


 1027              		.size	ld_clust.isra.3, .-ld_clust.isra.3
 1028              		.section	.text.st_clust.isra.4,"ax",%progbits
 1029              		.align	1
 1030              		.syntax unified
 1031              		.thumb
 1032              		.thumb_func
 1033              		.fpu fpv4-sp-d16
 1034              		.type	st_clust.isra.4, %function
 1035              	st_clust.isra.4:
 1036              	.LFB366:
 1037              		.loc 1 1693 0
 1038              		.cfi_startproc
 1039              		@ args = 0, pretend = 0, frame = 0
 1040              		@ frame_needed = 0, uses_anonymous_args = 0
 1041              		@ link register save eliminated.
 1042              	.LVL131:
 1043              	.LBB159:
 1044              	.LBB160:
 1045              		.loc 1 591 0
 1046 0000 C2F30723 		ubfx	r3, r2, #8, #8
 1047 0004 8A76     		strb	r2, [r1, #26]
 1048              	.LVL132:
 1049              		.loc 1 592 0
 1050 0006 CB76     		strb	r3, [r1, #27]
 1051              	.LVL133:
 1052              	.LBE160:
 1053              	.LBE159:
 1054              		.loc 1 1700 0
 1055 0008 0378     		ldrb	r3, [r0]	@ zero_extendqisi2
 1056 000a 032B     		cmp	r3, #3
 1057              		.loc 1 1701 0
 1058 000c 01BF     		itttt	eq
 1059 000e 120C     		lsreq	r2, r2, #16
 1060              	.LVL134:
 1061              	.LBB161:
 1062              	.LBB162:
 1063              		.loc 1 591 0
 1064 0010 0A75     		strbeq	r2, [r1, #20]
 1065              	.LVL135:
 1066 0012 120A     		lsreq	r2, r2, #8
 1067              	.LVL136:
 1068              		.loc 1 592 0
 1069 0014 4A75     		strbeq	r2, [r1, #21]
 1070 0016 7047     		bx	lr
 1071              	.LBE162:
 1072              	.LBE161:
 1073              		.cfi_endproc
 1074              	.LFE366:
 1075              		.size	st_clust.isra.4, .-st_clust.isra.4
 1076              		.section	.text.sync_window,"ax",%progbits
 1077              		.align	1
 1078              		.syntax unified
 1079              		.thumb
 1080              		.thumb_func
 1081              		.fpu fpv4-sp-d16
 1082              		.type	sync_window, %function
 1083              	sync_window:
ARM GAS  /tmp/ccWR9Gnm.s 			page 20


 1084              	.LFB302:
 1085              		.loc 1 872 0
 1086              		.cfi_startproc
 1087              		@ args = 0, pretend = 0, frame = 0
 1088              		@ frame_needed = 0, uses_anonymous_args = 0
 1089              	.LVL137:
 1090 0000 70B5     		push	{r4, r5, r6, lr}
 1091              		.cfi_def_cfa_offset 16
 1092              		.cfi_offset 4, -16
 1093              		.cfi_offset 5, -12
 1094              		.cfi_offset 6, -8
 1095              		.cfi_offset 14, -4
 1096              		.loc 1 876 0
 1097 0002 C378     		ldrb	r3, [r0, #3]	@ zero_extendqisi2
 1098              		.loc 1 872 0
 1099 0004 0446     		mov	r4, r0
 1100              		.loc 1 876 0
 1101 0006 0BB9     		cbnz	r3, .L110
 1102              	.LVL138:
 1103              	.L112:
 1104              		.loc 1 873 0
 1105 0008 0020     		movs	r0, #0
 1106 000a 70BD     		pop	{r4, r5, r6, pc}
 1107              	.LVL139:
 1108              	.L110:
 1109              	.LBB165:
 1110              	.LBB166:
 1111              		.loc 1 877 0
 1112 000c 00F14806 		add	r6, r0, #72
 1113 0010 426C     		ldr	r2, [r0, #68]
 1114 0012 4078     		ldrb	r0, [r0, #1]	@ zero_extendqisi2
 1115              	.LVL140:
 1116 0014 0123     		movs	r3, #1
 1117 0016 3146     		mov	r1, r6
 1118 0018 FFF7FEFF 		bl	disk_write
 1119              	.LVL141:
 1120 001c 80B9     		cbnz	r0, .L113
 1121              		.loc 1 879 0
 1122 001e 616C     		ldr	r1, [r4, #68]
 1123 0020 A36B     		ldr	r3, [r4, #56]
 1124 0022 226B     		ldr	r2, [r4, #48]
 1125              		.loc 1 878 0
 1126 0024 E070     		strb	r0, [r4, #3]
 1127              		.loc 1 879 0
 1128 0026 CB1A     		subs	r3, r1, r3
 1129 0028 9342     		cmp	r3, r2
 1130 002a EDD2     		bcs	.L112
 1131              		.loc 1 880 0
 1132 002c A378     		ldrb	r3, [r4, #2]	@ zero_extendqisi2
 1133 002e 022B     		cmp	r3, #2
 1134 0030 EAD1     		bne	.L112
 1135 0032 0A44     		add	r2, r2, r1
 1136 0034 0123     		movs	r3, #1
 1137 0036 3146     		mov	r1, r6
 1138 0038 6078     		ldrb	r0, [r4, #1]	@ zero_extendqisi2
 1139 003a FFF7FEFF 		bl	disk_write
 1140              	.LVL142:
ARM GAS  /tmp/ccWR9Gnm.s 			page 21


 1141 003e E3E7     		b	.L112
 1142              	.L113:
 1143              		.loc 1 883 0
 1144 0040 0120     		movs	r0, #1
 1145              	.LVL143:
 1146              	.LBE166:
 1147              	.LBE165:
 1148              		.loc 1 887 0
 1149 0042 70BD     		pop	{r4, r5, r6, pc}
 1150              		.cfi_endproc
 1151              	.LFE302:
 1152              		.size	sync_window, .-sync_window
 1153              		.section	.text.dir_clear,"ax",%progbits
 1154              		.align	1
 1155              		.syntax unified
 1156              		.thumb
 1157              		.thumb_func
 1158              		.fpu fpv4-sp-d16
 1159              		.type	dir_clear, %function
 1160              	dir_clear:
 1161              	.LFB314:
 1162              		.loc 1 1486 0
 1163              		.cfi_startproc
 1164              		@ args = 0, pretend = 0, frame = 0
 1165              		@ frame_needed = 0, uses_anonymous_args = 0
 1166              	.LVL144:
 1167 0000 2DE9F843 		push	{r3, r4, r5, r6, r7, r8, r9, lr}
 1168              		.cfi_def_cfa_offset 32
 1169              		.cfi_offset 3, -32
 1170              		.cfi_offset 4, -28
 1171              		.cfi_offset 5, -24
 1172              		.cfi_offset 6, -20
 1173              		.cfi_offset 7, -16
 1174              		.cfi_offset 8, -12
 1175              		.cfi_offset 9, -8
 1176              		.cfi_offset 14, -4
 1177              		.loc 1 1486 0
 1178 0004 0646     		mov	r6, r0
 1179 0006 0D46     		mov	r5, r1
 1180              		.loc 1 1492 0
 1181 0008 FFF7FEFF 		bl	sync_window
 1182              	.LVL145:
 1183 000c 0446     		mov	r4, r0
 1184 000e 0028     		cmp	r0, #0
 1185 0010 47D1     		bne	.L127
 1186              		.loc 1 1493 0
 1187 0012 2946     		mov	r1, r5
 1188 0014 3046     		mov	r0, r6
 1189 0016 FFF7FEFF 		bl	clst2sect
 1190              	.LVL146:
 1191              		.loc 1 1495 0
 1192 001a 06F14809 		add	r9, r6, #72
 1193              		.loc 1 1494 0
 1194 001e 7064     		str	r0, [r6, #68]
 1195              		.loc 1 1495 0
 1196 0020 2146     		mov	r1, r4
 1197              		.loc 1 1493 0
ARM GAS  /tmp/ccWR9Gnm.s 			page 22


 1198 0022 0746     		mov	r7, r0
 1199              	.LVL147:
 1200              		.loc 1 1495 0
 1201 0024 4FF40072 		mov	r2, #512
 1202 0028 4846     		mov	r0, r9
 1203              	.LVL148:
 1204 002a FFF7FEFF 		bl	mem_set
 1205              	.LVL149:
 1206              		.loc 1 1498 0
 1207 002e 7489     		ldrh	r4, [r6, #10]
 1208 0030 6402     		lsls	r4, r4, #9
 1209 0032 B4F5004F 		cmp	r4, #32768
 1210 0036 28BF     		it	cs
 1211 0038 4FF40044 		movcs	r4, #32768
 1212              	.LVL150:
 1213              	.L116:
 1214              		.loc 1 1498 0 is_stmt 0 discriminator 1
 1215 003c B4F5007F 		cmp	r4, #512
 1216 0040 0ED8     		bhi	.L117
 1217 0042 0025     		movs	r5, #0
 1218              	.LVL151:
 1219              	.L118:
 1220              		.loc 1 1508 0 is_stmt 1 discriminator 1
 1221 0044 7389     		ldrh	r3, [r6, #10]
 1222 0046 9D42     		cmp	r5, r3
 1223 0048 25D2     		bcs	.L122
 1224              		.loc 1 1508 0 is_stmt 0 discriminator 3
 1225 004a 0123     		movs	r3, #1
 1226 004c EA19     		adds	r2, r5, r7
 1227 004e 4946     		mov	r1, r9
 1228 0050 7078     		ldrb	r0, [r6, #1]	@ zero_extendqisi2
 1229 0052 FFF7FEFF 		bl	disk_write
 1230              	.LVL152:
 1231 0056 F0B9     		cbnz	r0, .L122
 1232              		.loc 1 1508 0 discriminator 4
 1233 0058 0135     		adds	r5, r5, #1
 1234              	.LVL153:
 1235 005a F3E7     		b	.L118
 1236              	.LVL154:
 1237              	.L119:
 1238              		.loc 1 1498 0 is_stmt 1 discriminator 4
 1239 005c 6408     		lsrs	r4, r4, #1
 1240              	.LVL155:
 1241 005e EDE7     		b	.L116
 1242              	.LVL156:
 1243              	.L117:
 1244              		.loc 1 1498 0 is_stmt 0 discriminator 3
 1245 0060 2046     		mov	r0, r4
 1246 0062 FFF7FEFF 		bl	ff_memalloc
 1247              	.LVL157:
 1248 0066 8046     		mov	r8, r0
 1249 0068 0028     		cmp	r0, #0
 1250 006a F7D0     		beq	.L119
 1251              		.loc 1 1500 0 is_stmt 1
 1252 006c 2246     		mov	r2, r4
 1253 006e 0021     		movs	r1, #0
 1254 0070 FFF7FEFF 		bl	mem_set
ARM GAS  /tmp/ccWR9Gnm.s 			page 23


 1255              	.LVL158:
 1256              		.loc 1 1501 0
 1257 0074 640A     		lsrs	r4, r4, #9
 1258              	.LVL159:
 1259              		.loc 1 1502 0
 1260 0076 0025     		movs	r5, #0
 1261              	.LVL160:
 1262 0078 07E0     		b	.L126
 1263              	.LVL161:
 1264              	.L121:
 1265              		.loc 1 1502 0 is_stmt 0 discriminator 3
 1266 007a 2346     		mov	r3, r4
 1267 007c EA19     		adds	r2, r5, r7
 1268 007e 4146     		mov	r1, r8
 1269 0080 7078     		ldrb	r0, [r6, #1]	@ zero_extendqisi2
 1270 0082 FFF7FEFF 		bl	disk_write
 1271              	.LVL162:
 1272 0086 18B9     		cbnz	r0, .L124
 1273              		.loc 1 1502 0 discriminator 4
 1274 0088 2544     		add	r5, r5, r4
 1275              	.LVL163:
 1276              	.L126:
 1277              		.loc 1 1502 0 discriminator 1
 1278 008a 7389     		ldrh	r3, [r6, #10]
 1279 008c 9D42     		cmp	r5, r3
 1280 008e F4D3     		bcc	.L121
 1281              	.L124:
 1282              		.loc 1 1503 0 is_stmt 1
 1283 0090 4046     		mov	r0, r8
 1284 0092 FFF7FEFF 		bl	ff_memfree
 1285              	.LVL164:
 1286              	.L122:
 1287              		.loc 1 1510 0
 1288 0096 7089     		ldrh	r0, [r6, #10]
 1289 0098 401B     		subs	r0, r0, r5
 1290 009a 18BF     		it	ne
 1291 009c 0120     		movne	r0, #1
 1292 009e BDE8F883 		pop	{r3, r4, r5, r6, r7, r8, r9, pc}
 1293              	.LVL165:
 1294              	.L127:
 1295              		.loc 1 1492 0
 1296 00a2 0120     		movs	r0, #1
 1297 00a4 BDE8F883 		pop	{r3, r4, r5, r6, r7, r8, r9, pc}
 1298              		.cfi_endproc
 1299              	.LFE314:
 1300              		.size	dir_clear, .-dir_clear
 1301              		.section	.text.sync_fs,"ax",%progbits
 1302              		.align	1
 1303              		.syntax unified
 1304              		.thumb
 1305              		.thumb_func
 1306              		.fpu fpv4-sp-d16
 1307              		.type	sync_fs, %function
 1308              	sync_fs:
 1309              	.LFB304:
 1310              		.loc 1 927 0
 1311              		.cfi_startproc
ARM GAS  /tmp/ccWR9Gnm.s 			page 24


 1312              		@ args = 0, pretend = 0, frame = 0
 1313              		@ frame_needed = 0, uses_anonymous_args = 0
 1314              	.LVL166:
 1315 0000 F8B5     		push	{r3, r4, r5, r6, r7, lr}
 1316              		.cfi_def_cfa_offset 24
 1317              		.cfi_offset 3, -24
 1318              		.cfi_offset 4, -20
 1319              		.cfi_offset 5, -16
 1320              		.cfi_offset 6, -12
 1321              		.cfi_offset 7, -8
 1322              		.cfi_offset 14, -4
 1323              		.loc 1 927 0
 1324 0002 0446     		mov	r4, r0
 1325              		.loc 1 931 0
 1326 0004 FFF7FEFF 		bl	sync_window
 1327              	.LVL167:
 1328 0008 0546     		mov	r5, r0
 1329              	.LVL168:
 1330              		.loc 1 932 0
 1331 000a 0028     		cmp	r0, #0
 1332 000c 42D1     		bne	.L131
 1333              		.loc 1 933 0
 1334 000e 2378     		ldrb	r3, [r4]	@ zero_extendqisi2
 1335 0010 032B     		cmp	r3, #3
 1336 0012 37D1     		bne	.L132
 1337              		.loc 1 933 0 is_stmt 0 discriminator 1
 1338 0014 2779     		ldrb	r7, [r4, #4]	@ zero_extendqisi2
 1339 0016 012F     		cmp	r7, #1
 1340 0018 34D1     		bne	.L132
 1341              		.loc 1 935 0 is_stmt 1
 1342 001a 04F14806 		add	r6, r4, #72
 1343 001e 0146     		mov	r1, r0
 1344 0020 4FF40072 		mov	r2, #512
 1345 0024 3046     		mov	r0, r6
 1346              	.LVL169:
 1347 0026 FFF7FEFF 		bl	mem_set
 1348              	.LVL170:
 1349              	.LBB167:
 1350              	.LBB168:
 1351              		.loc 1 591 0
 1352 002a 5523     		movs	r3, #85
 1353 002c 84F84632 		strb	r3, [r4, #582]
 1354              	.LVL171:
 1355              		.loc 1 592 0
 1356 0030 AA23     		movs	r3, #170
 1357 0032 84F84732 		strb	r3, [r4, #583]
 1358              	.LVL172:
 1359              	.LBE168:
 1360              	.LBE167:
 1361              	.LBB169:
 1362              	.LBB170:
 1363              		.loc 1 598 0
 1364 0036 5223     		movs	r3, #82
 1365              		.loc 1 601 0
 1366 0038 4122     		movs	r2, #65
 1367              	.LBE170:
 1368              	.LBE169:
ARM GAS  /tmp/ccWR9Gnm.s 			page 25


 1369              	.LBB172:
 1370              	.LBB173:
 1371              		.loc 1 598 0
 1372 003a 7221     		movs	r1, #114
 1373              	.LBE173:
 1374              	.LBE172:
 1375              	.LBB175:
 1376              	.LBB171:
 1377 003c 84F84830 		strb	r3, [r4, #72]
 1378              	.LVL173:
 1379              		.loc 1 599 0
 1380 0040 84F84930 		strb	r3, [r4, #73]
 1381              	.LVL174:
 1382              		.loc 1 600 0
 1383 0044 6123     		movs	r3, #97
 1384 0046 84F84A30 		strb	r3, [r4, #74]
 1385              	.LVL175:
 1386              		.loc 1 601 0
 1387 004a 84F84B20 		strb	r2, [r4, #75]
 1388              	.LVL176:
 1389              	.LBE171:
 1390              	.LBE175:
 1391              	.LBB176:
 1392              	.LBB174:
 1393              		.loc 1 600 0
 1394 004e 84F82E22 		strb	r2, [r4, #558]
 1395              		.loc 1 601 0
 1396 0052 84F82F32 		strb	r3, [r4, #559]
 1397              		.loc 1 598 0
 1398 0056 84F82C12 		strb	r1, [r4, #556]
 1399              	.LVL177:
 1400              		.loc 1 599 0
 1401 005a 84F82D12 		strb	r1, [r4, #557]
 1402              	.LVL178:
 1403              	.LBE174:
 1404              	.LBE176:
 1405              		.loc 1 939 0
 1406 005e 04F50C70 		add	r0, r4, #560
 1407 0062 A169     		ldr	r1, [r4, #24]
 1408 0064 FFF7FEFF 		bl	st_dword
 1409              	.LVL179:
 1410              		.loc 1 940 0
 1411 0068 6169     		ldr	r1, [r4, #20]
 1412 006a 04F50D70 		add	r0, r4, #564
 1413 006e FFF7FEFF 		bl	st_dword
 1414              	.LVL180:
 1415              		.loc 1 942 0
 1416 0072 626B     		ldr	r2, [r4, #52]
 1417              		.loc 1 943 0
 1418 0074 6078     		ldrb	r0, [r4, #1]	@ zero_extendqisi2
 1419              		.loc 1 942 0
 1420 0076 0132     		adds	r2, r2, #1
 1421 0078 6264     		str	r2, [r4, #68]
 1422              		.loc 1 943 0
 1423 007a 3B46     		mov	r3, r7
 1424 007c 3146     		mov	r1, r6
 1425 007e FFF7FEFF 		bl	disk_write
ARM GAS  /tmp/ccWR9Gnm.s 			page 26


 1426              	.LVL181:
 1427              		.loc 1 944 0
 1428 0082 2571     		strb	r5, [r4, #4]
 1429              	.L132:
 1430              		.loc 1 947 0
 1431 0084 0022     		movs	r2, #0
 1432 0086 1146     		mov	r1, r2
 1433 0088 6078     		ldrb	r0, [r4, #1]	@ zero_extendqisi2
 1434 008a FFF7FEFF 		bl	disk_ioctl
 1435              	.LVL182:
 1436 008e 0030     		adds	r0, r0, #0
 1437 0090 18BF     		it	ne
 1438 0092 0120     		movne	r0, #1
 1439              	.L131:
 1440              	.LVL183:
 1441              		.loc 1 951 0
 1442 0094 F8BD     		pop	{r3, r4, r5, r6, r7, pc}
 1443              		.cfi_endproc
 1444              	.LFE304:
 1445              		.size	sync_fs, .-sync_fs
 1446              		.section	.text.move_window,"ax",%progbits
 1447              		.align	1
 1448              		.syntax unified
 1449              		.thumb
 1450              		.thumb_func
 1451              		.fpu fpv4-sp-d16
 1452              		.type	move_window, %function
 1453              	move_window:
 1454              	.LFB303:
 1455              		.loc 1 896 0
 1456              		.cfi_startproc
 1457              		@ args = 0, pretend = 0, frame = 0
 1458              		@ frame_needed = 0, uses_anonymous_args = 0
 1459              	.LVL184:
 1460              		.loc 1 900 0
 1461 0000 436C     		ldr	r3, [r0, #68]
 1462 0002 8B42     		cmp	r3, r1
 1463              		.loc 1 896 0
 1464 0004 70B5     		push	{r4, r5, r6, lr}
 1465              		.cfi_def_cfa_offset 16
 1466              		.cfi_offset 4, -16
 1467              		.cfi_offset 5, -12
 1468              		.cfi_offset 6, -8
 1469              		.cfi_offset 14, -4
 1470              		.loc 1 896 0
 1471 0006 0646     		mov	r6, r0
 1472 0008 0D46     		mov	r5, r1
 1473              		.loc 1 900 0
 1474 000a 12D0     		beq	.L136
 1475              	.LVL185:
 1476              	.LBB179:
 1477              	.LBB180:
 1478              		.loc 1 902 0
 1479 000c FFF7FEFF 		bl	sync_window
 1480              	.LVL186:
 1481              		.loc 1 904 0
 1482 0010 0446     		mov	r4, r0
ARM GAS  /tmp/ccWR9Gnm.s 			page 27


 1483 0012 60B9     		cbnz	r0, .L134
 1484              		.loc 1 905 0
 1485 0014 2A46     		mov	r2, r5
 1486 0016 0123     		movs	r3, #1
 1487 0018 06F14801 		add	r1, r6, #72
 1488 001c 7078     		ldrb	r0, [r6, #1]	@ zero_extendqisi2
 1489              	.LVL187:
 1490 001e FFF7FEFF 		bl	disk_read
 1491              	.LVL188:
 1492 0022 0028     		cmp	r0, #0
 1493              		.loc 1 907 0
 1494 0024 1CBF     		itt	ne
 1495 0026 4FF0FF35 		movne	r5, #-1
 1496              	.LVL189:
 1497 002a 0124     		movne	r4, #1
 1498              	.LVL190:
 1499              		.loc 1 909 0
 1500 002c 7564     		str	r5, [r6, #68]
 1501              	.LVL191:
 1502              	.L134:
 1503              	.LBE180:
 1504              	.LBE179:
 1505              		.loc 1 913 0
 1506 002e 2046     		mov	r0, r4
 1507 0030 70BD     		pop	{r4, r5, r6, pc}
 1508              	.LVL192:
 1509              	.L136:
 1510              		.loc 1 897 0
 1511 0032 0024     		movs	r4, #0
 1512 0034 FBE7     		b	.L134
 1513              		.cfi_endproc
 1514              	.LFE303:
 1515              		.size	move_window, .-move_window
 1516              		.section	.text.change_bitmap,"ax",%progbits
 1517              		.align	1
 1518              		.syntax unified
 1519              		.thumb
 1520              		.thumb_func
 1521              		.fpu fpv4-sp-d16
 1522              		.type	change_bitmap, %function
 1523              	change_bitmap:
 1524              	.LFB309:
 1525              		.loc 1 1171 0
 1526              		.cfi_startproc
 1527              		@ args = 0, pretend = 0, frame = 0
 1528              		@ frame_needed = 0, uses_anonymous_args = 0
 1529              	.LVL193:
 1530 0000 2DE9F047 		push	{r4, r5, r6, r7, r8, r9, r10, lr}
 1531              		.cfi_def_cfa_offset 32
 1532              		.cfi_offset 4, -32
 1533              		.cfi_offset 5, -28
 1534              		.cfi_offset 6, -24
 1535              		.cfi_offset 7, -20
 1536              		.cfi_offset 8, -16
 1537              		.cfi_offset 9, -12
 1538              		.cfi_offset 10, -8
 1539              		.cfi_offset 14, -4
ARM GAS  /tmp/ccWR9Gnm.s 			page 28


 1540              		.loc 1 1177 0
 1541 0004 8C1E     		subs	r4, r1, #2
 1542              	.LVL194:
 1543              		.loc 1 1178 0
 1544 0006 016C     		ldr	r1, [r0, #64]
 1545              		.loc 1 1179 0
 1546 0008 C4F3C808 		ubfx	r8, r4, #3, #9
 1547              		.loc 1 1178 0
 1548 000c 01EB1431 		add	r1, r1, r4, lsr #12
 1549              	.LVL195:
 1550              		.loc 1 1180 0
 1551 0010 4FF00109 		mov	r9, #1
 1552 0014 04F00704 		and	r4, r4, #7
 1553              	.LVL196:
 1554 0018 09FA04F4 		lsl	r4, r9, r4
 1555              		.loc 1 1171 0
 1556 001c 0546     		mov	r5, r0
 1557 001e 1646     		mov	r6, r2
 1558 0020 1F46     		mov	r7, r3
 1559              		.loc 1 1180 0
 1560 0022 E4B2     		uxtb	r4, r4
 1561              	.LVL197:
 1562              	.L143:
 1563              		.loc 1 1182 0
 1564 0024 2846     		mov	r0, r5
 1565 0026 01F1010A 		add	r10, r1, #1
 1566              	.LVL198:
 1567 002a FFF7FEFF 		bl	move_window
 1568              	.LVL199:
 1569 002e 00BB     		cbnz	r0, .L144
 1570 0030 4346     		mov	r3, r8
 1571              	.LVL200:
 1572              	.L141:
 1573              		.loc 1 1185 0
 1574 0032 E918     		adds	r1, r5, r3
 1575 0034 91F84820 		ldrb	r2, [r1, #72]	@ zero_extendqisi2
 1576 0038 1442     		tst	r4, r2
 1577 003a 14BF     		ite	ne
 1578 003c 4FF0010E 		movne	lr, #1
 1579 0040 4FF0000E 		moveq	lr, #0
 1580 0044 BE45     		cmp	lr, r7
 1581 0046 17D0     		beq	.L145
 1582              	.LVL201:
 1583              		.loc 1 1186 0
 1584 0048 6240     		eors	r2, r2, r4
 1585              		.loc 1 1188 0
 1586 004a 013E     		subs	r6, r6, #1
 1587              	.LVL202:
 1588              		.loc 1 1186 0
 1589 004c 81F84820 		strb	r2, [r1, #72]
 1590              		.loc 1 1187 0
 1591 0050 85F80390 		strb	r9, [r5, #3]
 1592              		.loc 1 1188 0
 1593 0054 11D0     		beq	.L140
 1594              		.loc 1 1189 0
 1595 0056 6400     		lsls	r4, r4, #1
 1596              	.LVL203:
ARM GAS  /tmp/ccWR9Gnm.s 			page 29


 1597 0058 14F0FF04 		ands	r4, r4, #255
 1598              	.LVL204:
 1599 005c E9D1     		bne	.L141
 1600              	.LVL205:
 1601              		.loc 1 1191 0
 1602 005e 0133     		adds	r3, r3, #1
 1603              	.LVL206:
 1604 0060 B3F5007F 		cmp	r3, #512
 1605              		.loc 1 1190 0
 1606 0064 4FF00104 		mov	r4, #1
 1607              		.loc 1 1192 0
 1608 0068 4FF00008 		mov	r8, #0
 1609              		.loc 1 1182 0
 1610 006c 5146     		mov	r1, r10
 1611              		.loc 1 1191 0
 1612 006e E0D1     		bne	.L141
 1613              	.LVL207:
 1614 0070 D8E7     		b	.L143
 1615              	.LVL208:
 1616              	.L144:
 1617              		.loc 1 1182 0
 1618 0072 0120     		movs	r0, #1
 1619 0074 BDE8F087 		pop	{r4, r5, r6, r7, r8, r9, r10, pc}
 1620              	.LVL209:
 1621              	.L145:
 1622              		.loc 1 1185 0
 1623 0078 0220     		movs	r0, #2
 1624              	.L140:
 1625              		.loc 1 1194 0
 1626 007a BDE8F087 		pop	{r4, r5, r6, r7, r8, r9, r10, pc}
 1627              		.cfi_endproc
 1628              	.LFE309:
 1629              		.size	change_bitmap, .-change_bitmap
 1630              		.section	.text.get_fat,"ax",%progbits
 1631              		.align	1
 1632              		.syntax unified
 1633              		.thumb
 1634              		.thumb_func
 1635              		.fpu fpv4-sp-d16
 1636              		.type	get_fat, %function
 1637              	get_fat:
 1638              	.LFB306:
 1639              		.loc 1 984 0
 1640              		.cfi_startproc
 1641              		@ args = 0, pretend = 0, frame = 0
 1642              		@ frame_needed = 0, uses_anonymous_args = 0
 1643              	.LVL210:
 1644              		.loc 1 990 0
 1645 0000 0129     		cmp	r1, #1
 1646              		.loc 1 984 0
 1647 0002 F8B5     		push	{r3, r4, r5, r6, r7, lr}
 1648              		.cfi_def_cfa_offset 24
 1649              		.cfi_offset 3, -24
 1650              		.cfi_offset 4, -20
 1651              		.cfi_offset 5, -16
 1652              		.cfi_offset 6, -12
 1653              		.cfi_offset 7, -8
ARM GAS  /tmp/ccWR9Gnm.s 			page 30


 1654              		.cfi_offset 14, -4
 1655              		.loc 1 984 0
 1656 0004 0C46     		mov	r4, r1
 1657              		.loc 1 990 0
 1658 0006 40F28D80 		bls	.L168
 1659              		.loc 1 987 0 discriminator 1
 1660 000a 0568     		ldr	r5, [r0]
 1661              		.loc 1 990 0 discriminator 1
 1662 000c EB6A     		ldr	r3, [r5, #44]
 1663 000e 9942     		cmp	r1, r3
 1664 0010 80F08880 		bcs	.L168
 1665              	.LVL211:
 1666              		.loc 1 996 0
 1667 0014 2B78     		ldrb	r3, [r5]	@ zero_extendqisi2
 1668 0016 013B     		subs	r3, r3, #1
 1669 0018 032B     		cmp	r3, #3
 1670 001a 00F28380 		bhi	.L168
 1671 001e DFE803F0 		tbb	[pc, r3]
 1672              	.L154:
 1673 0022 02       		.byte	(.L153-.L154)/2
 1674 0023 29       		.byte	(.L155-.L154)/2
 1675 0024 3B       		.byte	(.L156-.L154)/2
 1676 0025 4E       		.byte	(.L157-.L154)/2
 1677              		.p2align 1
 1678              	.L153:
 1679              	.LVL212:
 1680              		.loc 1 998 0
 1681 0026 01EB5106 		add	r6, r1, r1, lsr #1
 1682              	.LVL213:
 1683              		.loc 1 999 0
 1684 002a A96B     		ldr	r1, [r5, #56]
 1685              	.LVL214:
 1686 002c 2846     		mov	r0, r5
 1687              	.LVL215:
 1688 002e 01EB5621 		add	r1, r1, r6, lsr #9
 1689 0032 FFF7FEFF 		bl	move_window
 1690              	.LVL216:
 1691 0036 10B1     		cbz	r0, .L158
 1692              	.LVL217:
 1693              	.L159:
 1694              		.loc 1 994 0
 1695 0038 4FF0FF30 		mov	r0, #-1
 1696 003c F8BD     		pop	{r3, r4, r5, r6, r7, pc}
 1697              	.LVL218:
 1698              	.L158:
 1699              		.loc 1 1000 0
 1700 003e 771C     		adds	r7, r6, #1
 1701              	.LVL219:
 1702              		.loc 1 1001 0
 1703 0040 A96B     		ldr	r1, [r5, #56]
 1704              		.loc 1 1000 0
 1705 0042 C6F30806 		ubfx	r6, r6, #0, #9
 1706 0046 2E44     		add	r6, r6, r5
 1707              		.loc 1 1001 0
 1708 0048 01EB5721 		add	r1, r1, r7, lsr #9
 1709 004c 2846     		mov	r0, r5
 1710              		.loc 1 1000 0
ARM GAS  /tmp/ccWR9Gnm.s 			page 31


 1711 004e 96F84860 		ldrb	r6, [r6, #72]	@ zero_extendqisi2
 1712              	.LVL220:
 1713              		.loc 1 1001 0
 1714 0052 FFF7FEFF 		bl	move_window
 1715              	.LVL221:
 1716 0056 0028     		cmp	r0, #0
 1717 0058 EED1     		bne	.L159
 1718              		.loc 1 1002 0
 1719 005a C7F30807 		ubfx	r7, r7, #0, #9
 1720              	.LVL222:
 1721 005e 3D44     		add	r5, r5, r7
 1722              		.loc 1 1003 0
 1723 0060 E307     		lsls	r3, r4, #31
 1724              		.loc 1 1002 0
 1725 0062 95F84800 		ldrb	r0, [r5, #72]	@ zero_extendqisi2
 1726 0066 46EA0020 		orr	r0, r6, r0, lsl #8
 1727              	.LVL223:
 1728              		.loc 1 1003 0
 1729 006a 4CBF     		ite	mi
 1730 006c 0009     		lsrmi	r0, r0, #4
 1731              	.LVL224:
 1732 006e C0F30B00 		ubfxpl	r0, r0, #0, #12
 1733 0072 F8BD     		pop	{r3, r4, r5, r6, r7, pc}
 1734              	.LVL225:
 1735              	.L155:
 1736              		.loc 1 1007 0
 1737 0074 A96B     		ldr	r1, [r5, #56]
 1738              	.LVL226:
 1739 0076 2846     		mov	r0, r5
 1740              	.LVL227:
 1741 0078 01EB1421 		add	r1, r1, r4, lsr #8
 1742 007c FFF7FEFF 		bl	move_window
 1743              	.LVL228:
 1744 0080 0028     		cmp	r0, #0
 1745 0082 D9D1     		bne	.L159
 1746              		.loc 1 1008 0
 1747 0084 6400     		lsls	r4, r4, #1
 1748              	.LVL229:
 1749 0086 04F4FF73 		and	r3, r4, #510
 1750 008a 4835     		adds	r5, r5, #72
 1751 008c EA18     		adds	r2, r5, r3
 1752              	.LBB181:
 1753              	.LBB182:
 1754              		.loc 1 553 0
 1755 008e E85C     		ldrb	r0, [r5, r3]	@ zero_extendqisi2
 1756 0090 5478     		ldrb	r4, [r2, #1]	@ zero_extendqisi2
 1757              	.LBE182:
 1758              	.LBE181:
 1759              		.loc 1 1008 0
 1760 0092 40EA0420 		orr	r0, r0, r4, lsl #8
 1761              	.LVL230:
 1762              		.loc 1 1009 0
 1763 0096 F8BD     		pop	{r3, r4, r5, r6, r7, pc}
 1764              	.LVL231:
 1765              	.L156:
 1766              		.loc 1 1012 0
 1767 0098 A96B     		ldr	r1, [r5, #56]
ARM GAS  /tmp/ccWR9Gnm.s 			page 32


 1768              	.LVL232:
 1769 009a 2846     		mov	r0, r5
 1770              	.LVL233:
 1771 009c 01EBD411 		add	r1, r1, r4, lsr #7
 1772 00a0 FFF7FEFF 		bl	move_window
 1773              	.LVL234:
 1774 00a4 0028     		cmp	r0, #0
 1775 00a6 C7D1     		bne	.L159
 1776              		.loc 1 1013 0
 1777 00a8 A400     		lsls	r4, r4, #2
 1778              	.LVL235:
 1779 00aa 05F14800 		add	r0, r5, #72
 1780 00ae 04F4FE74 		and	r4, r4, #508
 1781 00b2 2044     		add	r0, r0, r4
 1782 00b4 FFF7FEFF 		bl	ld_dword
 1783              	.LVL236:
 1784 00b8 20F07040 		bic	r0, r0, #-268435456
 1785              	.LVL237:
 1786              		.loc 1 1014 0
 1787 00bc F8BD     		pop	{r3, r4, r5, r6, r7, pc}
 1788              	.LVL238:
 1789              	.L157:
 1790              		.loc 1 1017 0
 1791 00be D0E90423 		ldrd	r2, [r0, #16]
 1792 00c2 52EA0301 		orrs	r1, r2, r3
 1793              	.LVL239:
 1794 00c6 2DD0     		beq	.L168
 1795              	.LBB183:
 1796              		.loc 1 1021 0
 1797 00c8 C179     		ldrb	r1, [r0, #7]	@ zero_extendqisi2
 1798              		.loc 1 1018 0
 1799 00ca 8668     		ldr	r6, [r0, #8]
 1800              		.loc 1 1019 0
 1801 00cc 6F89     		ldrh	r7, [r5, #10]
 1802              		.loc 1 1021 0
 1803 00ce 0229     		cmp	r1, #2
 1804              		.loc 1 1018 0
 1805 00d0 A4EB0606 		sub	r6, r4, r6
 1806              	.LVL240:
 1807              		.loc 1 1021 0
 1808 00d4 0DD1     		bne	.L161
 1809              		.loc 1 1019 0 discriminator 1
 1810 00d6 12F1FF30 		adds	r0, r2, #-1
 1811              	.LVL241:
 1812 00da 43F1FF31 		adc	r1, r3, #-1
 1813 00de 430A     		lsrs	r3, r0, #9
 1814 00e0 43EAC153 		orr	r3, r3, r1, lsl #23
 1815 00e4 B3FBF7F3 		udiv	r3, r3, r7
 1816              		.loc 1 1021 0 discriminator 1
 1817 00e8 9E42     		cmp	r6, r3
 1818 00ea 1BD8     		bhi	.L168
 1819              		.loc 1 1022 0
 1820 00ec 1CD0     		beq	.L170
 1821              	.L163:
 1822              		.loc 1 1022 0 is_stmt 0 discriminator 1
 1823 00ee 601C     		adds	r0, r4, #1
 1824 00f0 F8BD     		pop	{r3, r4, r5, r6, r7, pc}
ARM GAS  /tmp/ccWR9Gnm.s 			page 33


 1825              	.LVL242:
 1826              	.L161:
 1827              		.loc 1 1025 0 is_stmt 1
 1828 00f2 0329     		cmp	r1, #3
 1829 00f4 02D1     		bne	.L162
 1830              		.loc 1 1025 0 is_stmt 0 discriminator 1
 1831 00f6 8369     		ldr	r3, [r0, #24]
 1832 00f8 9E42     		cmp	r6, r3
 1833 00fa F8D3     		bcc	.L163
 1834              	.L162:
 1835              		.loc 1 1030 0 is_stmt 1
 1836 00fc C369     		ldr	r3, [r0, #28]
 1837 00fe 9BB9     		cbnz	r3, .L170
 1838              		.loc 1 1033 0
 1839 0100 A96B     		ldr	r1, [r5, #56]
 1840 0102 2846     		mov	r0, r5
 1841              	.LVL243:
 1842 0104 01EBD411 		add	r1, r1, r4, lsr #7
 1843 0108 FFF7FEFF 		bl	move_window
 1844              	.LVL244:
 1845 010c 0028     		cmp	r0, #0
 1846 010e 93D1     		bne	.L159
 1847              		.loc 1 1034 0
 1848 0110 A000     		lsls	r0, r4, #2
 1849 0112 4835     		adds	r5, r5, #72
 1850 0114 00F4FE70 		and	r0, r0, #508
 1851 0118 2844     		add	r0, r0, r5
 1852 011a FFF7FEFF 		bl	ld_dword
 1853              	.LVL245:
 1854 011e 20F00040 		bic	r0, r0, #-2147483648
 1855              	.LVL246:
 1856 0122 F8BD     		pop	{r3, r4, r5, r6, r7, pc}
 1857              	.LVL247:
 1858              	.L168:
 1859              	.LBE183:
 1860              		.loc 1 991 0
 1861 0124 0120     		movs	r0, #1
 1862 0126 F8BD     		pop	{r3, r4, r5, r6, r7, pc}
 1863              	.LVL248:
 1864              	.L170:
 1865              	.LBB184:
 1866              		.loc 1 1022 0
 1867 0128 6FF00040 		mvn	r0, #-2147483648
 1868              	.LVL249:
 1869              	.LBE184:
 1870              		.loc 1 1047 0
 1871 012c F8BD     		pop	{r3, r4, r5, r6, r7, pc}
 1872              		.cfi_endproc
 1873              	.LFE306:
 1874              		.size	get_fat, .-get_fat
 1875              		.section	.text.dir_sdi,"ax",%progbits
 1876              		.align	1
 1877              		.syntax unified
 1878              		.thumb
 1879              		.thumb_func
 1880              		.fpu fpv4-sp-d16
 1881              		.type	dir_sdi, %function
ARM GAS  /tmp/ccWR9Gnm.s 			page 34


 1882              	dir_sdi:
 1883              	.LFB315:
 1884              		.loc 1 1526 0
 1885              		.cfi_startproc
 1886              		@ args = 0, pretend = 0, frame = 0
 1887              		@ frame_needed = 0, uses_anonymous_args = 0
 1888              	.LVL250:
 1889 0000 F8B5     		push	{r3, r4, r5, r6, r7, lr}
 1890              		.cfi_def_cfa_offset 24
 1891              		.cfi_offset 3, -24
 1892              		.cfi_offset 4, -20
 1893              		.cfi_offset 5, -16
 1894              		.cfi_offset 6, -12
 1895              		.cfi_offset 7, -8
 1896              		.cfi_offset 14, -4
 1897              		.loc 1 1528 0
 1898 0002 0468     		ldr	r4, [r0]
 1899              	.LVL251:
 1900              		.loc 1 1531 0
 1901 0004 2378     		ldrb	r3, [r4]	@ zero_extendqisi2
 1902 0006 042B     		cmp	r3, #4
 1903 0008 0CBF     		ite	eq
 1904 000a 4FF08052 		moveq	r2, #268435456
 1905 000e 4FF40012 		movne	r2, #2097152
 1906 0012 8A42     		cmp	r2, r1
 1907              		.loc 1 1526 0
 1908 0014 0546     		mov	r5, r0
 1909 0016 0E46     		mov	r6, r1
 1910              		.loc 1 1531 0
 1911 0018 01D8     		bhi	.L173
 1912              	.LVL252:
 1913              	.L175:
 1914              		.loc 1 1532 0
 1915 001a 0220     		movs	r0, #2
 1916 001c F8BD     		pop	{r3, r4, r5, r6, r7, pc}
 1917              	.LVL253:
 1918              	.L173:
 1919              		.loc 1 1531 0 discriminator 5
 1920 001e CA06     		lsls	r2, r1, #27
 1921 0020 FBD1     		bne	.L175
 1922              		.loc 1 1535 0
 1923 0022 8268     		ldr	r2, [r0, #8]
 1924              	.LVL254:
 1925              		.loc 1 1534 0
 1926 0024 2963     		str	r1, [r5, #48]
 1927              		.loc 1 1536 0
 1928 0026 22BB     		cbnz	r2, .L184
 1929              		.loc 1 1536 0 is_stmt 0 discriminator 1
 1930 0028 022B     		cmp	r3, #2
 1931 002a 13D8     		bhi	.L177
 1932              	.LVL255:
 1933              	.L179:
 1934              		.loc 1 1542 0 is_stmt 1
 1935 002c 2389     		ldrh	r3, [r4, #8]
 1936 002e B3EB561F 		cmp	r3, r6, lsr #5
 1937 0032 F2D9     		bls	.L175
 1938              		.loc 1 1543 0
ARM GAS  /tmp/ccWR9Gnm.s 			page 35


 1939 0034 E36B     		ldr	r3, [r4, #60]
 1940 0036 AB63     		str	r3, [r5, #56]
 1941              	.LVL256:
 1942              	.L180:
 1943              		.loc 1 1556 0
 1944 0038 AB6B     		ldr	r3, [r5, #56]
 1945              		.loc 1 1555 0
 1946 003a 6A63     		str	r2, [r5, #52]
 1947              		.loc 1 1556 0
 1948 003c 002B     		cmp	r3, #0
 1949 003e ECD0     		beq	.L175
 1950              		.loc 1 1557 0
 1951 0040 03EB5623 		add	r3, r3, r6, lsr #9
 1952              		.loc 1 1558 0
 1953 0044 4834     		adds	r4, r4, #72
 1954              	.LVL257:
 1955 0046 C6F30806 		ubfx	r6, r6, #0, #9
 1956              	.LVL258:
 1957 004a 3444     		add	r4, r4, r6
 1958              	.LVL259:
 1959              		.loc 1 1557 0
 1960 004c AB63     		str	r3, [r5, #56]
 1961              		.loc 1 1558 0
 1962 004e EC63     		str	r4, [r5, #60]
 1963              		.loc 1 1560 0
 1964 0050 0020     		movs	r0, #0
 1965 0052 F8BD     		pop	{r3, r4, r5, r6, r7, pc}
 1966              	.LVL260:
 1967              	.L177:
 1968              		.loc 1 1537 0
 1969 0054 E36B     		ldr	r3, [r4, #60]
 1970              	.LVL261:
 1971              		.loc 1 1538 0
 1972 0056 C271     		strb	r2, [r0, #7]
 1973              		.loc 1 1541 0
 1974 0058 002B     		cmp	r3, #0
 1975 005a E7D0     		beq	.L179
 1976              	.L176:
 1977              		.loc 1 1546 0
 1978 005c 6789     		ldrh	r7, [r4, #10]
 1979              		.loc 1 1547 0
 1980 005e 1A46     		mov	r2, r3
 1981              		.loc 1 1546 0
 1982 0060 7F02     		lsls	r7, r7, #9
 1983              	.LVL262:
 1984              	.L181:
 1985              		.loc 1 1547 0
 1986 0062 BE42     		cmp	r6, r7
 1987              		.loc 1 1548 0
 1988 0064 1146     		mov	r1, r2
 1989              		.loc 1 1547 0
 1990 0066 06D2     		bcs	.L182
 1991              	.LVL263:
 1992              		.loc 1 1553 0
 1993 0068 2046     		mov	r0, r4
 1994 006a FFF7FEFF 		bl	clst2sect
 1995              	.LVL264:
ARM GAS  /tmp/ccWR9Gnm.s 			page 36


 1996 006e A863     		str	r0, [r5, #56]
 1997 0070 E2E7     		b	.L180
 1998              	.LVL265:
 1999              	.L184:
 2000 0072 1346     		mov	r3, r2
 2001 0074 F2E7     		b	.L176
 2002              	.LVL266:
 2003              	.L182:
 2004              		.loc 1 1548 0
 2005 0076 2846     		mov	r0, r5
 2006 0078 FFF7FEFF 		bl	get_fat
 2007              	.LVL267:
 2008              		.loc 1 1549 0
 2009 007c 431C     		adds	r3, r0, #1
 2010              		.loc 1 1548 0
 2011 007e 0246     		mov	r2, r0
 2012              	.LVL268:
 2013              		.loc 1 1549 0
 2014 0080 06D0     		beq	.L185
 2015              		.loc 1 1550 0
 2016 0082 0128     		cmp	r0, #1
 2017 0084 C9D9     		bls	.L175
 2018              		.loc 1 1550 0 is_stmt 0 discriminator 2
 2019 0086 E36A     		ldr	r3, [r4, #44]
 2020 0088 9842     		cmp	r0, r3
 2021 008a C6D2     		bcs	.L175
 2022              		.loc 1 1551 0 is_stmt 1
 2023 008c F61B     		subs	r6, r6, r7
 2024              	.LVL269:
 2025 008e E8E7     		b	.L181
 2026              	.L185:
 2027              		.loc 1 1549 0
 2028 0090 0120     		movs	r0, #1
 2029              	.LVL270:
 2030              		.loc 1 1561 0
 2031 0092 F8BD     		pop	{r3, r4, r5, r6, r7, pc}
 2032              		.cfi_endproc
 2033              	.LFE315:
 2034              		.size	dir_sdi, .-dir_sdi
 2035              		.section	.text.check_fs,"ax",%progbits
 2036              		.align	1
 2037              		.syntax unified
 2038              		.thumb
 2039              		.thumb_func
 2040              		.fpu fpv4-sp-d16
 2041              		.type	check_fs, %function
 2042              	check_fs:
 2043              	.LFB340:
 2044              		.loc 1 3015 0
 2045              		.cfi_startproc
 2046              		@ args = 0, pretend = 0, frame = 0
 2047              		@ frame_needed = 0, uses_anonymous_args = 0
 2048              	.LVL271:
 2049              		.loc 1 3016 0
 2050 0000 0023     		movs	r3, #0
 2051              		.loc 1 3015 0
 2052 0002 10B5     		push	{r4, lr}
ARM GAS  /tmp/ccWR9Gnm.s 			page 37


 2053              		.cfi_def_cfa_offset 8
 2054              		.cfi_offset 4, -8
 2055              		.cfi_offset 14, -4
 2056              		.loc 1 3016 0
 2057 0004 C370     		strb	r3, [r0, #3]
 2058 0006 4FF0FF33 		mov	r3, #-1
 2059 000a 4364     		str	r3, [r0, #68]
 2060              		.loc 1 3015 0
 2061 000c 0446     		mov	r4, r0
 2062              		.loc 1 3017 0
 2063 000e FFF7FEFF 		bl	move_window
 2064              	.LVL272:
 2065 0012 60BB     		cbnz	r0, .L196
 2066              	.LBB191:
 2067              	.LBB192:
 2068              		.loc 1 553 0
 2069 0014 94F84722 		ldrb	r2, [r4, #583]	@ zero_extendqisi2
 2070 0018 94F84632 		ldrb	r3, [r4, #582]	@ zero_extendqisi2
 2071 001c 43EA0223 		orr	r3, r3, r2, lsl #8
 2072              	.LBE192:
 2073              	.LBE191:
 2074              		.loc 1 3019 0
 2075 0020 4AF65522 		movw	r2, #43605
 2076 0024 9342     		cmp	r3, r2
 2077 0026 24D1     		bne	.L197
 2078              		.loc 1 3022 0
 2079 0028 0B22     		movs	r2, #11
 2080 002a 1549     		ldr	r1, .L205
 2081 002c 04F14800 		add	r0, r4, #72
 2082 0030 FFF7FEFF 		bl	mem_cmp
 2083              	.LVL273:
 2084 0034 F8B1     		cbz	r0, .L198
 2085              		.loc 1 3024 0
 2086 0036 94F84830 		ldrb	r3, [r4, #72]	@ zero_extendqisi2
 2087 003a E92B     		cmp	r3, #233
 2088 003c 05D0     		beq	.L195
 2089              		.loc 1 3024 0 is_stmt 0 discriminator 1
 2090 003e A36C     		ldr	r3, [r4, #72]
 2091 0040 104A     		ldr	r2, .L205+4
 2092 0042 03F0FF13 		and	r3, r3, #16711935
 2093 0046 9342     		cmp	r3, r2
 2094 0048 17D1     		bne	.L199
 2095              	.L195:
 2096              		.loc 1 3025 0 is_stmt 1
 2097 004a 0322     		movs	r2, #3
 2098 004c 0E49     		ldr	r1, .L205+8
 2099 004e 04F17E00 		add	r0, r4, #126
 2100 0052 FFF7FEFF 		bl	mem_cmp
 2101              	.LVL274:
 2102 0056 88B1     		cbz	r0, .L194
 2103              	.LVL275:
 2104              	.LBB193:
 2105              	.LBB194:
 2106              		.loc 1 3026 0
 2107 0058 0522     		movs	r2, #5
 2108 005a 0C49     		ldr	r1, .L205+12
 2109 005c 04F19A00 		add	r0, r4, #154
ARM GAS  /tmp/ccWR9Gnm.s 			page 38


 2110 0060 FFF7FEFF 		bl	mem_cmp
 2111              	.LVL276:
 2112              	.LBE194:
 2113              	.LBE193:
 2114              		.loc 1 3025 0
 2115 0064 0028     		cmp	r0, #0
 2116 0066 14BF     		ite	ne
 2117 0068 0220     		movne	r0, #2
 2118 006a 0020     		moveq	r0, #0
 2119 006c 10BD     		pop	{r4, pc}
 2120              	.LVL277:
 2121              	.L196:
 2122              		.loc 1 3017 0
 2123 006e 0420     		movs	r0, #4
 2124 0070 10BD     		pop	{r4, pc}
 2125              	.LVL278:
 2126              	.L197:
 2127              		.loc 1 3019 0
 2128 0072 0320     		movs	r0, #3
 2129 0074 10BD     		pop	{r4, pc}
 2130              	.LVL279:
 2131              	.L198:
 2132              		.loc 1 3022 0
 2133 0076 0120     		movs	r0, #1
 2134 0078 10BD     		pop	{r4, pc}
 2135              	.LVL280:
 2136              	.L199:
 2137              	.LBB196:
 2138              	.LBB195:
 2139              		.loc 1 3028 0
 2140 007a 0220     		movs	r0, #2
 2141              	.L194:
 2142              	.LBE195:
 2143              	.LBE196:
 2144              		.loc 1 3029 0
 2145 007c 10BD     		pop	{r4, pc}
 2146              	.LVL281:
 2147              	.L206:
 2148 007e 00BF     		.align	2
 2149              	.L205:
 2150 0080 00000000 		.word	.LC0
 2151 0084 EB009000 		.word	9437419
 2152 0088 0C000000 		.word	.LC1
 2153 008c 10000000 		.word	.LC2
 2154              		.cfi_endproc
 2155              	.LFE340:
 2156              		.size	check_fs, .-check_fs
 2157              		.section	.text.find_volume,"ax",%progbits
 2158              		.align	1
 2159              		.syntax unified
 2160              		.thumb
 2161              		.thumb_func
 2162              		.fpu fpv4-sp-d16
 2163              		.type	find_volume, %function
 2164              	find_volume:
 2165              	.LFB341:
 2166              		.loc 1 3044 0
ARM GAS  /tmp/ccWR9Gnm.s 			page 39


 2167              		.cfi_startproc
 2168              		@ args = 0, pretend = 0, frame = 16
 2169              		@ frame_needed = 0, uses_anonymous_args = 0
 2170              	.LVL282:
 2171 0000 2DE9F043 		push	{r4, r5, r6, r7, r8, r9, lr}
 2172              		.cfi_def_cfa_offset 28
 2173              		.cfi_offset 4, -28
 2174              		.cfi_offset 5, -24
 2175              		.cfi_offset 6, -20
 2176              		.cfi_offset 7, -16
 2177              		.cfi_offset 8, -12
 2178              		.cfi_offset 9, -8
 2179              		.cfi_offset 14, -4
 2180              		.loc 1 3055 0
 2181 0004 0023     		movs	r3, #0
 2182              		.loc 1 3044 0
 2183 0006 85B0     		sub	sp, sp, #20
 2184              		.cfi_def_cfa_offset 48
 2185              		.loc 1 3055 0
 2186 0008 0B60     		str	r3, [r1]
 2187              		.loc 1 3044 0
 2188 000a 0F46     		mov	r7, r1
 2189 000c 1546     		mov	r5, r2
 2190              		.loc 1 3056 0
 2191 000e FFF7FEFF 		bl	get_ldnumber
 2192              	.LVL283:
 2193              		.loc 1 3057 0
 2194 0012 061E     		subs	r6, r0, #0
 2195 0014 C0F24A81 		blt	.L242
 2196              		.loc 1 3060 0
 2197 0018 AB4B     		ldr	r3, .L284
 2198 001a 53F82640 		ldr	r4, [r3, r6, lsl #2]
 2199              	.LVL284:
 2200              		.loc 1 3061 0
 2201 001e 002C     		cmp	r4, #0
 2202 0020 00F04681 		beq	.L243
 2203              		.loc 1 3065 0
 2204 0024 3C60     		str	r4, [r7]
 2205              		.loc 1 3068 0
 2206 0026 2378     		ldrb	r3, [r4]	@ zero_extendqisi2
 2207              		.loc 1 3067 0
 2208 0028 05F0FE05 		and	r5, r5, #254
 2209              	.LVL285:
 2210              		.loc 1 3068 0
 2211 002c 73B1     		cbz	r3, .L209
 2212              		.loc 1 3069 0
 2213 002e 6078     		ldrb	r0, [r4, #1]	@ zero_extendqisi2
 2214              	.LVL286:
 2215 0030 FFF7FEFF 		bl	disk_status
 2216              	.LVL287:
 2217              		.loc 1 3070 0
 2218 0034 C707     		lsls	r7, r0, #31
 2219              	.LVL288:
 2220 0036 09D4     		bmi	.L209
 2221              		.loc 1 3071 0
 2222 0038 002D     		cmp	r5, #0
 2223 003a 00F03B81 		beq	.L244
ARM GAS  /tmp/ccWR9Gnm.s 			page 40


 2224              		.loc 1 3071 0 is_stmt 0 discriminator 1
 2225 003e 10F00400 		ands	r0, r0, #4
 2226              	.LVL289:
 2227 0042 00D0     		beq	.L278
 2228              	.L211:
 2229              		.loc 1 3072 0 is_stmt 1
 2230 0044 0A20     		movs	r0, #10
 2231              	.LVL290:
 2232              	.L278:
 2233              		.loc 1 3255 0
 2234 0046 05B0     		add	sp, sp, #20
 2235              		.cfi_remember_state
 2236              		.cfi_def_cfa_offset 28
 2237              		@ sp needed
 2238 0048 BDE8F083 		pop	{r4, r5, r6, r7, r8, r9, pc}
 2239              	.LVL291:
 2240              	.L209:
 2241              		.cfi_restore_state
 2242              		.loc 1 3081 0
 2243 004c 0023     		movs	r3, #0
 2244              		.loc 1 3082 0
 2245 004e F0B2     		uxtb	r0, r6
 2246              		.loc 1 3081 0
 2247 0050 2370     		strb	r3, [r4]
 2248              		.loc 1 3082 0
 2249 0052 6070     		strb	r0, [r4, #1]
 2250              		.loc 1 3083 0
 2251 0054 FFF7FEFF 		bl	disk_initialize
 2252              	.LVL292:
 2253              		.loc 1 3084 0
 2254 0058 C107     		lsls	r1, r0, #31
 2255 005a 00F12D81 		bmi	.L246
 2256              		.loc 1 3087 0
 2257 005e 0DB1     		cbz	r5, .L210
 2258              		.loc 1 3087 0 is_stmt 0 discriminator 1
 2259 0060 4207     		lsls	r2, r0, #29
 2260 0062 EFD4     		bmi	.L211
 2261              	.L210:
 2262              	.LVL293:
 2263              		.loc 1 3097 0 is_stmt 1
 2264 0064 0021     		movs	r1, #0
 2265 0066 2046     		mov	r0, r4
 2266              	.LVL294:
 2267 0068 FFF7FEFF 		bl	check_fs
 2268              	.LVL295:
 2269              		.loc 1 3098 0
 2270 006c 0228     		cmp	r0, #2
 2271 006e 40F0A580 		bne	.L212
 2272 0072 04F20E25 		addw	r5, r4, #526
 2273              	.LVL296:
 2274 0076 0021     		movs	r1, #0
 2275              	.LVL297:
 2276              	.L214:
 2277              		.loc 1 3101 0
 2278 0078 15F8040C 		ldrb	r0, [r5, #-4]	@ zero_extendqisi2
 2279 007c 10B1     		cbz	r0, .L213
 2280              		.loc 1 3101 0 is_stmt 0 discriminator 1
ARM GAS  /tmp/ccWR9Gnm.s 			page 41


 2281 007e 2846     		mov	r0, r5
 2282 0080 FFF7FEFF 		bl	ld_dword
 2283              	.LVL298:
 2284              	.L213:
 2285              		.loc 1 3101 0 discriminator 4
 2286 0084 4DF82100 		str	r0, [sp, r1, lsl #2]
 2287              		.loc 1 3099 0 is_stmt 1 discriminator 4
 2288 0088 0131     		adds	r1, r1, #1
 2289              	.LVL299:
 2290 008a 0429     		cmp	r1, #4
 2291 008c 05F11005 		add	r5, r5, #16
 2292              	.LVL300:
 2293 0090 F2D1     		bne	.L214
 2294 0092 0026     		movs	r6, #0
 2295              	.LVL301:
 2296              	.L217:
 2297              		.loc 1 3106 0
 2298 0094 5DF82650 		ldr	r5, [sp, r6, lsl #2]
 2299              	.LVL302:
 2300              		.loc 1 3107 0
 2301 0098 002D     		cmp	r5, #0
 2302 009a 00F08780 		beq	.L248
 2303              		.loc 1 3107 0 is_stmt 0 discriminator 1
 2304 009e 2946     		mov	r1, r5
 2305 00a0 2046     		mov	r0, r4
 2306 00a2 FFF7FEFF 		bl	check_fs
 2307              	.LVL303:
 2308              		.loc 1 3108 0 is_stmt 1 discriminator 1
 2309 00a6 0128     		cmp	r0, #1
 2310 00a8 00F28180 		bhi	.L215
 2311              	.LVL304:
 2312              	.L216:
 2313              		.loc 1 3116 0
 2314 00ac 0128     		cmp	r0, #1
 2315 00ae 40F08F80 		bne	.L220
 2316 00b2 04F15303 		add	r3, r4, #83
 2317 00b6 04F18801 		add	r1, r4, #136
 2318              	.L221:
 2319              	.LBB197:
 2320              		.loc 1 3119 0 discriminator 3
 2321 00ba 13F8012B 		ldrb	r2, [r3], #1	@ zero_extendqisi2
 2322 00be 002A     		cmp	r2, #0
 2323 00c0 40F08280 		bne	.L224
 2324              		.loc 1 3119 0 is_stmt 0 discriminator 4
 2325 00c4 8B42     		cmp	r3, r1
 2326 00c6 F8D1     		bne	.L221
 2327              	.LBB198:
 2328              	.LBB199:
 2329              		.loc 1 553 0 is_stmt 1
 2330 00c8 94F8B120 		ldrb	r2, [r4, #177]	@ zero_extendqisi2
 2331 00cc 94F8B030 		ldrb	r3, [r4, #176]	@ zero_extendqisi2
 2332 00d0 43EA0223 		orr	r3, r3, r2, lsl #8
 2333              	.LBE199:
 2334              	.LBE198:
 2335              		.loc 1 3122 0
 2336 00d4 B3F5807F 		cmp	r3, #256
 2337 00d8 76D1     		bne	.L224
ARM GAS  /tmp/ccWR9Gnm.s 			page 42


 2338              		.loc 1 3124 0
 2339 00da 94F8B430 		ldrb	r3, [r4, #180]	@ zero_extendqisi2
 2340 00de 092B     		cmp	r3, #9
 2341 00e0 72D1     		bne	.L224
 2342              		.loc 1 3128 0
 2343 00e2 04F19000 		add	r0, r4, #144
 2344              	.LVL305:
 2345 00e6 FFF7FEFF 		bl	ld_qword
 2346              	.LVL306:
 2347 00ea 4619     		adds	r6, r0, r5
 2348 00ec 41F10007 		adc	r7, r1, #0
 2349              	.LVL307:
 2350              		.loc 1 3129 0
 2351 00f0 012F     		cmp	r7, #1
 2352 00f2 08BF     		it	eq
 2353 00f4 002E     		cmpeq	r6, #0
 2354 00f6 67D2     		bcs	.L224
 2355              		.loc 1 3131 0
 2356 00f8 04F19C00 		add	r0, r4, #156
 2357 00fc FFF7FEFF 		bl	ld_dword
 2358              	.LVL308:
 2359              		.loc 1 3133 0
 2360 0100 94F8B680 		ldrb	r8, [r4, #182]	@ zero_extendqisi2
 2361              		.loc 1 3131 0
 2362 0104 2063     		str	r0, [r4, #48]
 2363              		.loc 1 3134 0
 2364 0106 B8F1010F 		cmp	r8, #1
 2365              		.loc 1 3133 0
 2366 010a 84F80280 		strb	r8, [r4, #2]
 2367              		.loc 1 3134 0
 2368 010e 5BD1     		bne	.L224
 2369              		.loc 1 3136 0
 2370 0110 94F8B530 		ldrb	r3, [r4, #181]	@ zero_extendqisi2
 2371 0114 08FA03F9 		lsl	r9, r8, r3
 2372 0118 1FFA89F3 		uxth	r3, r9
 2373 011c 6381     		strh	r3, [r4, #10]	@ movhi
 2374              		.loc 1 3137 0
 2375 011e 002B     		cmp	r3, #0
 2376 0120 52D0     		beq	.L224
 2377              		.loc 1 3139 0
 2378 0122 04F1A400 		add	r0, r4, #164
 2379 0126 FFF7FEFF 		bl	ld_dword
 2380              	.LVL309:
 2381              		.loc 1 3140 0
 2382 012a 684B     		ldr	r3, .L284+4
 2383 012c 9842     		cmp	r0, r3
 2384              		.loc 1 3139 0
 2385 012e 8046     		mov	r8, r0
 2386              	.LVL310:
 2387              		.loc 1 3140 0
 2388 0130 4AD8     		bhi	.L224
 2389              		.loc 1 3141 0
 2390 0132 831C     		adds	r3, r0, #2
 2391 0134 E362     		str	r3, [r4, #44]
 2392              		.loc 1 3144 0
 2393 0136 6563     		str	r5, [r4, #52]
 2394              		.loc 1 3145 0
ARM GAS  /tmp/ccWR9Gnm.s 			page 43


 2395 0138 04F1A000 		add	r0, r4, #160
 2396              	.LVL311:
 2397 013c FFF7FEFF 		bl	ld_dword
 2398              	.LVL312:
 2399 0140 2918     		adds	r1, r5, r0
 2400 0142 2164     		str	r1, [r4, #64]
 2401              		.loc 1 3146 0
 2402 0144 04F19800 		add	r0, r4, #152
 2403 0148 FFF7FEFF 		bl	ld_dword
 2404              	.LVL313:
 2405              		.loc 1 3147 0
 2406 014c 1FFA89F3 		uxth	r3, r9
 2407 0150 08FB03F8 		mul	r8, r8, r3
 2408              	.LVL314:
 2409 0154 11EB0802 		adds	r2, r1, r8
 2410 0158 4FF00003 		mov	r3, #0
 2411 015c 43F10003 		adc	r3, r3, #0
 2412 0160 9F42     		cmp	r7, r3
 2413              		.loc 1 3146 0
 2414 0162 2844     		add	r0, r0, r5
 2415              		.loc 1 3147 0
 2416 0164 08BF     		it	eq
 2417 0166 9642     		cmpeq	r6, r2
 2418              		.loc 1 3146 0
 2419 0168 A063     		str	r0, [r4, #56]
 2420              		.loc 1 3147 0
 2421 016a 2DD3     		bcc	.L224
 2422              		.loc 1 3148 0
 2423 016c 04F1A800 		add	r0, r4, #168
 2424 0170 FFF7FEFF 		bl	ld_dword
 2425              	.LVL315:
 2426 0174 0146     		mov	r1, r0
 2427 0176 E063     		str	r0, [r4, #60]
 2428              		.loc 1 3151 0
 2429 0178 2046     		mov	r0, r4
 2430 017a FFF7FEFF 		bl	clst2sect
 2431              	.LVL316:
 2432 017e 0146     		mov	r1, r0
 2433 0180 2046     		mov	r0, r4
 2434 0182 FFF7FEFF 		bl	move_window
 2435              	.LVL317:
 2436 0186 D8B9     		cbnz	r0, .L225
 2437 0188 04F15C01 		add	r1, r4, #92
 2438 018c 04F51775 		add	r5, r4, #604
 2439              	.L228:
 2440              		.loc 1 3153 0
 2441 0190 11F8143C 		ldrb	r3, [r1, #-20]	@ zero_extendqisi2
 2442 0194 812B     		cmp	r3, #129
 2443 0196 05D1     		bne	.L226
 2444              		.loc 1 3153 0 is_stmt 0 discriminator 1
 2445 0198 0846     		mov	r0, r1
 2446 019a FFF7FEFF 		bl	ld_dword
 2447              	.LVL318:
 2448 019e 0228     		cmp	r0, #2
 2449 01a0 00F08C80 		beq	.L227
 2450              	.L226:
 2451 01a4 2031     		adds	r1, r1, #32
ARM GAS  /tmp/ccWR9Gnm.s 			page 44


 2452              		.loc 1 3152 0 is_stmt 1 discriminator 2
 2453 01a6 8D42     		cmp	r5, r1
 2454 01a8 F2D1     		bne	.L228
 2455 01aa 0DE0     		b	.L224
 2456              	.LVL319:
 2457              	.L248:
 2458              	.LBE197:
 2459              		.loc 1 3107 0
 2460 01ac 0320     		movs	r0, #3
 2461              	.L215:
 2462              		.loc 1 3108 0 discriminator 1
 2463 01ae 0136     		adds	r6, r6, #1
 2464              	.LVL320:
 2465 01b0 042E     		cmp	r6, #4
 2466 01b2 7FF46FAF 		bne	.L217
 2467              	.LVL321:
 2468              		.loc 1 3110 0
 2469 01b6 0428     		cmp	r0, #4
 2470 01b8 06D1     		bne	.L224
 2471 01ba 01E0     		b	.L225
 2472              	.LVL322:
 2473              	.L212:
 2474 01bc 0428     		cmp	r0, #4
 2475 01be 01D1     		bne	.L219
 2476              	.LVL323:
 2477              	.L225:
 2478 01c0 0120     		movs	r0, #1
 2479 01c2 40E7     		b	.L278
 2480              	.LVL324:
 2481              	.L219:
 2482              		.loc 1 3111 0
 2483 01c4 0128     		cmp	r0, #1
 2484 01c6 01D9     		bls	.L249
 2485              	.LVL325:
 2486              	.L224:
 2487 01c8 0D20     		movs	r0, #13
 2488 01ca 3CE7     		b	.L278
 2489              	.LVL326:
 2490              	.L249:
 2491              		.loc 1 3096 0
 2492 01cc 0025     		movs	r5, #0
 2493              	.LVL327:
 2494 01ce 6DE7     		b	.L216
 2495              	.LVL328:
 2496              	.L220:
 2497              	.LBB200:
 2498              	.LBB201:
 2499              		.loc 1 553 0
 2500 01d0 94F85420 		ldrb	r2, [r4, #84]	@ zero_extendqisi2
 2501 01d4 94F85330 		ldrb	r3, [r4, #83]	@ zero_extendqisi2
 2502 01d8 43EA0223 		orr	r3, r3, r2, lsl #8
 2503              	.LBE201:
 2504              	.LBE200:
 2505              		.loc 1 3163 0
 2506 01dc B3F5007F 		cmp	r3, #512
 2507 01e0 F2D1     		bne	.L224
 2508              	.LVL329:
ARM GAS  /tmp/ccWR9Gnm.s 			page 45


 2509              	.LBB202:
 2510              	.LBB203:
 2511              		.loc 1 553 0
 2512 01e2 94F85F30 		ldrb	r3, [r4, #95]	@ zero_extendqisi2
 2513 01e6 94F85E60 		ldrb	r6, [r4, #94]	@ zero_extendqisi2
 2514              	.LVL330:
 2515              	.LBE203:
 2516              	.LBE202:
 2517              		.loc 1 3166 0
 2518 01ea 56EA0326 		orrs	r6, r6, r3, lsl #8
 2519              	.LVL331:
 2520 01ee 04D1     		bne	.L230
 2521              		.loc 1 3166 0 is_stmt 0 discriminator 1
 2522 01f0 04F16C00 		add	r0, r4, #108
 2523              	.LVL332:
 2524 01f4 FFF7FEFF 		bl	ld_dword
 2525              	.LVL333:
 2526 01f8 0646     		mov	r6, r0
 2527              	.LVL334:
 2528              	.L230:
 2529              		.loc 1 3169 0 is_stmt 1
 2530 01fa 94F85810 		ldrb	r1, [r4, #88]	@ zero_extendqisi2
 2531              		.loc 1 3167 0
 2532 01fe 2663     		str	r6, [r4, #48]
 2533              		.loc 1 3170 0
 2534 0200 4B1E     		subs	r3, r1, #1
 2535 0202 012B     		cmp	r3, #1
 2536              		.loc 1 3169 0
 2537 0204 A170     		strb	r1, [r4, #2]
 2538              		.loc 1 3170 0
 2539 0206 DFD8     		bhi	.L224
 2540              	.LVL335:
 2541              		.loc 1 3173 0
 2542 0208 94F85580 		ldrb	r8, [r4, #85]	@ zero_extendqisi2
 2543 020c 1FFA88F3 		uxth	r3, r8
 2544 0210 6381     		strh	r3, [r4, #10]	@ movhi
 2545              		.loc 1 3174 0
 2546 0212 002B     		cmp	r3, #0
 2547 0214 D8D0     		beq	.L224
 2548              		.loc 1 3174 0 is_stmt 0 discriminator 2
 2549 0216 08F1FF33 		add	r3, r8, #-1
 2550 021a 13EA080F 		tst	r3, r8
 2551 021e D3D1     		bne	.L224
 2552              	.LVL336:
 2553              	.LBB204:
 2554              	.LBB205:
 2555              		.loc 1 553 0 is_stmt 1
 2556 0220 94F85A30 		ldrb	r3, [r4, #90]	@ zero_extendqisi2
 2557 0224 94F85970 		ldrb	r7, [r4, #89]	@ zero_extendqisi2
 2558 0228 47EA0327 		orr	r7, r7, r3, lsl #8
 2559              	.LVL337:
 2560              	.LBE205:
 2561              	.LBE204:
 2562              		.loc 1 3177 0
 2563 022c 3B07     		lsls	r3, r7, #28
 2564              		.loc 1 3176 0
 2565 022e 2781     		strh	r7, [r4, #8]	@ movhi
ARM GAS  /tmp/ccWR9Gnm.s 			page 46


 2566              		.loc 1 3177 0
 2567 0230 CAD1     		bne	.L224
 2568              	.LVL338:
 2569              	.LBB206:
 2570              	.LBB207:
 2571              		.loc 1 553 0
 2572 0232 94F85C30 		ldrb	r3, [r4, #92]	@ zero_extendqisi2
 2573 0236 94F85B00 		ldrb	r0, [r4, #91]	@ zero_extendqisi2
 2574              	.LVL339:
 2575              	.LBE207:
 2576              	.LBE206:
 2577              		.loc 1 3180 0
 2578 023a 50EA0320 		orrs	r0, r0, r3, lsl #8
 2579              	.LVL340:
 2580 023e 03D1     		bne	.L231
 2581              		.loc 1 3180 0 is_stmt 0 discriminator 1
 2582 0240 04F16800 		add	r0, r4, #104
 2583              	.LVL341:
 2584 0244 FFF7FEFF 		bl	ld_dword
 2585              	.LVL342:
 2586              	.L231:
 2587              	.LBB208:
 2588              	.LBB209:
 2589              		.loc 1 553 0 is_stmt 1
 2590 0248 94F85720 		ldrb	r2, [r4, #87]	@ zero_extendqisi2
 2591 024c 94F85630 		ldrb	r3, [r4, #86]	@ zero_extendqisi2
 2592              	.LBE209:
 2593              	.LBE208:
 2594              		.loc 1 3183 0
 2595 0250 53EA0223 		orrs	r3, r3, r2, lsl #8
 2596 0254 B8D0     		beq	.L224
 2597              		.loc 1 3171 0
 2598 0256 06FB01FE 		mul	lr, r6, r1
 2599              		.loc 1 3186 0
 2600 025a 03EB1712 		add	r2, r3, r7, lsr #4
 2601 025e 7244     		add	r2, r2, lr
 2602              	.LVL343:
 2603              		.loc 1 3187 0
 2604 0260 9042     		cmp	r0, r2
 2605 0262 B1D3     		bcc	.L224
 2606              		.loc 1 3189 0
 2607 0264 1A49     		ldr	r1, .L284+8
 2608              	.LVL344:
 2609              		.loc 1 3188 0
 2610 0266 801A     		subs	r0, r0, r2
 2611              	.LVL345:
 2612 0268 B0FBF8F0 		udiv	r0, r0, r8
 2613              	.LVL346:
 2614              		.loc 1 3189 0
 2615 026c 00F1FF3C 		add	ip, r0, #-1
 2616 0270 8C45     		cmp	ip, r1
 2617 0272 A9D8     		bhi	.L224
 2618              	.LVL347:
 2619              		.loc 1 3192 0
 2620 0274 4FF6F571 		movw	r1, #65525
 2621 0278 8842     		cmp	r0, r1
 2622 027a 2B44     		add	r3, r3, r5
ARM GAS  /tmp/ccWR9Gnm.s 			page 47


 2623 027c 00F10201 		add	r1, r0, #2
 2624 0280 2A44     		add	r2, r2, r5
 2625              	.LVL348:
 2626 0282 27D8     		bhi	.L232
 2627              	.LVL349:
 2628              		.loc 1 3193 0
 2629 0284 40F6F57C 		movw	ip, #4085
 2630 0288 6045     		cmp	r0, ip
 2631              		.loc 1 3197 0
 2632 028a E162     		str	r1, [r4, #44]
 2633              		.loc 1 3198 0
 2634 028c 6563     		str	r5, [r4, #52]
 2635              		.loc 1 3199 0
 2636 028e A363     		str	r3, [r4, #56]
 2637              		.loc 1 3200 0
 2638 0290 2264     		str	r2, [r4, #64]
 2639              		.loc 1 3193 0
 2640 0292 7ED8     		bhi	.L233
 2641              	.LVL350:
 2642              		.loc 1 3207 0
 2643 0294 002F     		cmp	r7, #0
 2644 0296 97D0     		beq	.L224
 2645              		.loc 1 3208 0
 2646 0298 7344     		add	r3, r3, lr
 2647 029a E363     		str	r3, [r4, #60]
 2648              		.loc 1 3210 0
 2649 029c 01EB4103 		add	r3, r1, r1, lsl #1
 2650 02a0 01F00101 		and	r1, r1, #1
 2651 02a4 01EB5301 		add	r1, r1, r3, lsr #1
 2652 02a8 0127     		movs	r7, #1
 2653              	.LVL351:
 2654 02aa 29E0     		b	.L241
 2655              	.LVL352:
 2656              	.L242:
 2657              		.loc 1 3057 0
 2658 02ac 0B20     		movs	r0, #11
 2659              	.LVL353:
 2660 02ae CAE6     		b	.L278
 2661              	.LVL354:
 2662              	.L243:
 2663              		.loc 1 3061 0
 2664 02b0 0C20     		movs	r0, #12
 2665              	.LVL355:
 2666 02b2 C8E6     		b	.L278
 2667              	.LVL356:
 2668              	.L244:
 2669              		.loc 1 3074 0
 2670 02b4 2846     		mov	r0, r5
 2671              	.LVL357:
 2672 02b6 C6E6     		b	.L278
 2673              	.LVL358:
 2674              	.L246:
 2675              		.loc 1 3085 0
 2676 02b8 0320     		movs	r0, #3
 2677              	.LVL359:
 2678 02ba C4E6     		b	.L278
 2679              	.LVL360:
ARM GAS  /tmp/ccWR9Gnm.s 			page 48


 2680              	.L227:
 2681              	.LBB210:
 2682              		.loc 1 3157 0
 2683 02bc 4FF0FF33 		mov	r3, #-1
 2684 02c0 A361     		str	r3, [r4, #24]
 2685 02c2 6361     		str	r3, [r4, #20]
 2686              	.LVL361:
 2687              		.loc 1 3159 0
 2688 02c4 0427     		movs	r7, #4
 2689              	.LBE210:
 2690 02c6 5AE0     		b	.L235
 2691              	.L285:
 2692              		.align	2
 2693              	.L284:
 2694 02c8 00000000 		.word	.LANCHOR0
 2695 02cc FDFFFF7F 		.word	2147483645
 2696 02d0 F4FFFF0F 		.word	268435444
 2697              	.LVL362:
 2698              	.L232:
 2699              		.loc 1 3199 0
 2700 02d4 A363     		str	r3, [r4, #56]
 2701              		.loc 1 3200 0
 2702 02d6 2264     		str	r2, [r4, #64]
 2703              	.LBB211:
 2704              	.LBB212:
 2705              		.loc 1 553 0
 2706 02d8 94F87230 		ldrb	r3, [r4, #114]	@ zero_extendqisi2
 2707 02dc 94F87320 		ldrb	r2, [r4, #115]	@ zero_extendqisi2
 2708              	.LBE212:
 2709              	.LBE211:
 2710              		.loc 1 3197 0
 2711 02e0 E162     		str	r1, [r4, #44]
 2712              		.loc 1 3202 0
 2713 02e2 53EA0223 		orrs	r3, r3, r2, lsl #8
 2714              		.loc 1 3198 0
 2715 02e6 6563     		str	r5, [r4, #52]
 2716              		.loc 1 3202 0
 2717 02e8 7FF46EAF 		bne	.L224
 2718              		.loc 1 3203 0
 2719 02ec 002F     		cmp	r7, #0
 2720 02ee 7FF46BAF 		bne	.L224
 2721              		.loc 1 3204 0
 2722 02f2 04F17400 		add	r0, r4, #116
 2723              	.LVL363:
 2724 02f6 FFF7FEFF 		bl	ld_dword
 2725              	.LVL364:
 2726 02fa 0327     		movs	r7, #3
 2727 02fc E063     		str	r0, [r4, #60]
 2728              		.loc 1 3205 0
 2729 02fe 8900     		lsls	r1, r1, #2
 2730              	.LVL365:
 2731              	.L241:
 2732              		.loc 1 3212 0
 2733 0300 01F2FF11 		addw	r1, r1, #511
 2734              	.LVL366:
 2735 0304 B6EB512F 		cmp	r6, r1, lsr #9
 2736 0308 FFF45EAF 		bcc	.L224
ARM GAS  /tmp/ccWR9Gnm.s 			page 49


 2737              		.loc 1 3216 0
 2738 030c 4FF0FF33 		mov	r3, #-1
 2739 0310 A361     		str	r3, [r4, #24]
 2740 0312 6361     		str	r3, [r4, #20]
 2741              		.loc 1 3219 0
 2742 0314 032F     		cmp	r7, #3
 2743              		.loc 1 3217 0
 2744 0316 4FF08003 		mov	r3, #128
 2745 031a 2371     		strb	r3, [r4, #4]
 2746              		.loc 1 3219 0
 2747 031c 2FD1     		bne	.L235
 2748              	.LBB213:
 2749              	.LBB214:
 2750              		.loc 1 553 0
 2751 031e 94F87920 		ldrb	r2, [r4, #121]	@ zero_extendqisi2
 2752 0322 94F87830 		ldrb	r3, [r4, #120]	@ zero_extendqisi2
 2753 0326 43EA0223 		orr	r3, r3, r2, lsl #8
 2754              	.LBE214:
 2755              	.LBE213:
 2756              		.loc 1 3220 0
 2757 032a 012B     		cmp	r3, #1
 2758 032c 27D1     		bne	.L235
 2759              		.loc 1 3221 0
 2760 032e 691C     		adds	r1, r5, #1
 2761              	.LVL367:
 2762 0330 2046     		mov	r0, r4
 2763 0332 FFF7FEFF 		bl	move_window
 2764              	.LVL368:
 2765 0336 10BB     		cbnz	r0, .L235
 2766              	.LBB215:
 2767              	.LBB216:
 2768              		.loc 1 553 0
 2769 0338 94F84722 		ldrb	r2, [r4, #583]	@ zero_extendqisi2
 2770 033c 94F84632 		ldrb	r3, [r4, #582]	@ zero_extendqisi2
 2771              	.LBE216:
 2772              	.LBE215:
 2773              		.loc 1 3223 0
 2774 0340 2071     		strb	r0, [r4, #4]
 2775              	.LBB218:
 2776              	.LBB217:
 2777              		.loc 1 553 0
 2778 0342 43EA0223 		orr	r3, r3, r2, lsl #8
 2779              	.LBE217:
 2780              	.LBE218:
 2781              		.loc 1 3224 0
 2782 0346 4AF65522 		movw	r2, #43605
 2783 034a 9342     		cmp	r3, r2
 2784 034c 17D1     		bne	.L235
 2785              		.loc 1 3225 0
 2786 034e 04F14800 		add	r0, r4, #72
 2787 0352 FFF7FEFF 		bl	ld_dword
 2788              	.LVL369:
 2789 0356 134B     		ldr	r3, .L286
 2790 0358 9842     		cmp	r0, r3
 2791 035a 10D1     		bne	.L235
 2792              		.loc 1 3226 0
 2793 035c 04F50B70 		add	r0, r4, #556
ARM GAS  /tmp/ccWR9Gnm.s 			page 50


 2794 0360 FFF7FEFF 		bl	ld_dword
 2795              	.LVL370:
 2796 0364 104B     		ldr	r3, .L286+4
 2797 0366 9842     		cmp	r0, r3
 2798 0368 09D1     		bne	.L235
 2799              		.loc 1 3229 0
 2800 036a 04F50C70 		add	r0, r4, #560
 2801 036e FFF7FEFF 		bl	ld_dword
 2802              	.LVL371:
 2803 0372 A061     		str	r0, [r4, #24]
 2804              		.loc 1 3232 0
 2805 0374 04F50D70 		add	r0, r4, #564
 2806 0378 FFF7FEFF 		bl	ld_dword
 2807              	.LVL372:
 2808 037c 6061     		str	r0, [r4, #20]
 2809              	.L235:
 2810              	.LVL373:
 2811              		.loc 1 3241 0
 2812 037e 0B4A     		ldr	r2, .L286+8
 2813              		.loc 1 3240 0
 2814 0380 2770     		strb	r7, [r4]
 2815              		.loc 1 3241 0
 2816 0382 1388     		ldrh	r3, [r2]
 2817 0384 0133     		adds	r3, r3, #1
 2818 0386 9BB2     		uxth	r3, r3
 2819              		.loc 1 3249 0
 2820 0388 0020     		movs	r0, #0
 2821              		.loc 1 3241 0
 2822 038a 1380     		strh	r3, [r2]	@ movhi
 2823 038c E380     		strh	r3, [r4, #6]	@ movhi
 2824              		.loc 1 3249 0
 2825 038e E061     		str	r0, [r4, #28]
 2826              		.loc 1 3254 0
 2827 0390 59E6     		b	.L278
 2828              	.LVL374:
 2829              	.L233:
 2830              		.loc 1 3207 0
 2831 0392 002F     		cmp	r7, #0
 2832 0394 3FF418AF 		beq	.L224
 2833              		.loc 1 3208 0
 2834 0398 7344     		add	r3, r3, lr
 2835 039a E363     		str	r3, [r4, #60]
 2836              		.loc 1 3210 0
 2837 039c 4900     		lsls	r1, r1, #1
 2838 039e 0227     		movs	r7, #2
 2839              	.LVL375:
 2840 03a0 AEE7     		b	.L241
 2841              	.L287:
 2842 03a2 00BF     		.align	2
 2843              	.L286:
 2844 03a4 52526141 		.word	1096897106
 2845 03a8 72724161 		.word	1631679090
 2846 03ac 00000000 		.word	.LANCHOR1
 2847              		.cfi_endproc
 2848              	.LFE341:
 2849              		.size	find_volume, .-find_volume
 2850              		.section	.text.put_fat,"ax",%progbits
ARM GAS  /tmp/ccWR9Gnm.s 			page 51


 2851              		.align	1
 2852              		.syntax unified
 2853              		.thumb
 2854              		.thumb_func
 2855              		.fpu fpv4-sp-d16
 2856              		.type	put_fat, %function
 2857              	put_fat:
 2858              	.LFB307:
 2859              		.loc 1 1063 0
 2860              		.cfi_startproc
 2861              		@ args = 0, pretend = 0, frame = 0
 2862              		@ frame_needed = 0, uses_anonymous_args = 0
 2863              	.LVL376:
 2864              		.loc 1 1069 0
 2865 0000 0129     		cmp	r1, #1
 2866              		.loc 1 1063 0
 2867 0002 2DE9F047 		push	{r4, r5, r6, r7, r8, r9, r10, lr}
 2868              		.cfi_def_cfa_offset 32
 2869              		.cfi_offset 4, -32
 2870              		.cfi_offset 5, -28
 2871              		.cfi_offset 6, -24
 2872              		.cfi_offset 7, -20
 2873              		.cfi_offset 8, -16
 2874              		.cfi_offset 9, -12
 2875              		.cfi_offset 10, -8
 2876              		.cfi_offset 14, -4
 2877              		.loc 1 1063 0
 2878 0006 0546     		mov	r5, r0
 2879 0008 0C46     		mov	r4, r1
 2880 000a 1646     		mov	r6, r2
 2881              		.loc 1 1069 0
 2882 000c 79D9     		bls	.L301
 2883              		.loc 1 1069 0 is_stmt 0 discriminator 1
 2884 000e C36A     		ldr	r3, [r0, #44]
 2885 0010 9942     		cmp	r1, r3
 2886 0012 76D2     		bcs	.L301
 2887              	.LVL377:
 2888              	.LBB223:
 2889              	.LBB224:
 2890              		.loc 1 1070 0 is_stmt 1
 2891 0014 0378     		ldrb	r3, [r0]	@ zero_extendqisi2
 2892 0016 013B     		subs	r3, r3, #1
 2893 0018 032B     		cmp	r3, #3
 2894 001a 72D8     		bhi	.L301
 2895 001c DFE803F0 		tbb	[pc, r3]
 2896              	.LVL378:
 2897              	.L291:
 2898 0020 02       		.byte	(.L290-.L291)/2
 2899 0021 3E       		.byte	(.L292-.L291)/2
 2900 0022 51       		.byte	(.L293-.L291)/2
 2901 0023 51       		.byte	(.L293-.L291)/2
 2902              		.p2align 1
 2903              	.L290:
 2904              		.loc 1 1072 0
 2905 0024 01EB5108 		add	r8, r1, r1, lsr #1
 2906              	.LVL379:
 2907              		.loc 1 1073 0
ARM GAS  /tmp/ccWR9Gnm.s 			page 52


 2908 0028 816B     		ldr	r1, [r0, #56]
 2909              	.LVL380:
 2910 002a 01EB5821 		add	r1, r1, r8, lsr #9
 2911 002e FFF7FEFF 		bl	move_window
 2912              	.LVL381:
 2913              		.loc 1 1074 0
 2914 0032 0746     		mov	r7, r0
 2915 0034 38BB     		cbnz	r0, .L289
 2916              		.loc 1 1075 0
 2917 0036 05F14809 		add	r9, r5, #72
 2918 003a 08F1010A 		add	r10, r8, #1
 2919              	.LVL382:
 2920 003e C8F30808 		ubfx	r8, r8, #0, #9
 2921              	.LVL383:
 2922              		.loc 1 1076 0
 2923 0042 14F00104 		ands	r4, r4, #1
 2924              	.LVL384:
 2925 0046 1FBF     		itttt	ne
 2926 0048 19F80830 		ldrbne	r3, [r9, r8]	@ zero_extendqisi2
 2927 004c 03F00F02 		andne	r2, r3, #15
 2928 0050 3301     		lslne	r3, r6, #4
 2929 0052 03F0F003 		andne	r3, r3, #240
 2930 0056 14BF     		ite	ne
 2931 0058 1343     		orrne	r3, r3, r2
 2932 005a F3B2     		uxtbeq	r3, r6
 2933 005c 09F80830 		strb	r3, [r9, r8]
 2934              		.loc 1 1078 0
 2935 0060 A96B     		ldr	r1, [r5, #56]
 2936              		.loc 1 1077 0
 2937 0062 0123     		movs	r3, #1
 2938 0064 EB70     		strb	r3, [r5, #3]
 2939              		.loc 1 1078 0
 2940 0066 01EB5A21 		add	r1, r1, r10, lsr #9
 2941 006a 2846     		mov	r0, r5
 2942              	.LVL385:
 2943 006c FFF7FEFF 		bl	move_window
 2944              	.LVL386:
 2945              		.loc 1 1079 0
 2946 0070 0746     		mov	r7, r0
 2947 0072 40B9     		cbnz	r0, .L289
 2948              		.loc 1 1080 0
 2949 0074 CAF3080A 		ubfx	r10, r10, #0, #9
 2950              	.LVL387:
 2951              		.loc 1 1081 0
 2952 0078 44B1     		cbz	r4, .L296
 2953 007a C6F30716 		ubfx	r6, r6, #4, #8
 2954              	.LVL388:
 2955              	.L297:
 2956 007e 09F80A60 		strb	r6, [r9, r10]
 2957              	.LVL389:
 2958              	.L305:
 2959              		.loc 1 1102 0
 2960 0082 0123     		movs	r3, #1
 2961 0084 EB70     		strb	r3, [r5, #3]
 2962              	.LVL390:
 2963              	.L289:
 2964              	.LBE224:
ARM GAS  /tmp/ccWR9Gnm.s 			page 53


 2965              	.LBE223:
 2966              		.loc 1 1107 0
 2967 0086 3846     		mov	r0, r7
 2968 0088 BDE8F087 		pop	{r4, r5, r6, r7, r8, r9, r10, pc}
 2969              	.LVL391:
 2970              	.L296:
 2971              	.LBB228:
 2972              	.LBB227:
 2973              		.loc 1 1081 0
 2974 008c 19F80A20 		ldrb	r2, [r9, r10]	@ zero_extendqisi2
 2975 0090 C6F30326 		ubfx	r6, r6, #8, #4
 2976              	.LVL392:
 2977 0094 22F00F02 		bic	r2, r2, #15
 2978 0098 1643     		orrs	r6, r6, r2
 2979 009a F0E7     		b	.L297
 2980              	.LVL393:
 2981              	.L292:
 2982              		.loc 1 1086 0
 2983 009c 816B     		ldr	r1, [r0, #56]
 2984              	.LVL394:
 2985 009e 01EB1421 		add	r1, r1, r4, lsr #8
 2986 00a2 FFF7FEFF 		bl	move_window
 2987              	.LVL395:
 2988              		.loc 1 1087 0
 2989 00a6 0746     		mov	r7, r0
 2990 00a8 0028     		cmp	r0, #0
 2991 00aa ECD1     		bne	.L289
 2992              		.loc 1 1088 0
 2993 00ac 6400     		lsls	r4, r4, #1
 2994              	.LVL396:
 2995 00ae 05F14803 		add	r3, r5, #72
 2996 00b2 04F4FF74 		and	r4, r4, #510
 2997 00b6 1919     		adds	r1, r3, r4
 2998              	.LVL397:
 2999              	.LBB225:
 3000              	.LBB226:
 3001              		.loc 1 591 0
 3002 00b8 1E55     		strb	r6, [r3, r4]
 3003              	.LVL398:
 3004 00ba C6F30726 		ubfx	r6, r6, #8, #8
 3005              	.LVL399:
 3006              		.loc 1 592 0
 3007 00be 4E70     		strb	r6, [r1, #1]
 3008              	.LVL400:
 3009 00c0 DFE7     		b	.L305
 3010              	.LVL401:
 3011              	.L293:
 3012              	.LBE226:
 3013              	.LBE225:
 3014              		.loc 1 1096 0
 3015 00c2 816B     		ldr	r1, [r0, #56]
 3016              	.LVL402:
 3017 00c4 01EBD411 		add	r1, r1, r4, lsr #7
 3018 00c8 FFF7FEFF 		bl	move_window
 3019              	.LVL403:
 3020              		.loc 1 1097 0
 3021 00cc 0746     		mov	r7, r0
ARM GAS  /tmp/ccWR9Gnm.s 			page 54


 3022 00ce 0028     		cmp	r0, #0
 3023 00d0 D9D1     		bne	.L289
 3024              		.loc 1 1098 0
 3025 00d2 A846     		mov	r8, r5
 3026 00d4 A400     		lsls	r4, r4, #2
 3027              	.LVL404:
 3028 00d6 18F8483B 		ldrb	r3, [r8], #72	@ zero_extendqisi2
 3029 00da 042B     		cmp	r3, #4
 3030 00dc 09D0     		beq	.L298
 3031              		.loc 1 1099 0
 3032 00de 04F4FE70 		and	r0, r4, #508
 3033              	.LVL405:
 3034 00e2 4044     		add	r0, r0, r8
 3035 00e4 FFF7FEFF 		bl	ld_dword
 3036              	.LVL406:
 3037 00e8 26F07046 		bic	r6, r6, #-268435456
 3038              	.LVL407:
 3039 00ec 00F07040 		and	r0, r0, #-268435456
 3040 00f0 0643     		orrs	r6, r6, r0
 3041              	.LVL408:
 3042              	.L298:
 3043              		.loc 1 1101 0
 3044 00f2 04F4FE74 		and	r4, r4, #508
 3045 00f6 3146     		mov	r1, r6
 3046 00f8 08EB0400 		add	r0, r8, r4
 3047 00fc FFF7FEFF 		bl	st_dword
 3048              	.LVL409:
 3049 0100 BFE7     		b	.L305
 3050              	.LVL410:
 3051              	.L301:
 3052              		.loc 1 1066 0
 3053 0102 0227     		movs	r7, #2
 3054 0104 BFE7     		b	.L289
 3055              	.LBE227:
 3056              	.LBE228:
 3057              		.cfi_endproc
 3058              	.LFE307:
 3059              		.size	put_fat, .-put_fat
 3060              		.section	.text.fill_last_frag,"ax",%progbits
 3061              		.align	1
 3062              		.syntax unified
 3063              		.thumb
 3064              		.thumb_func
 3065              		.fpu fpv4-sp-d16
 3066              		.type	fill_last_frag, %function
 3067              	fill_last_frag:
 3068              	.LFB311:
 3069              		.loc 1 1231 0
 3070              		.cfi_startproc
 3071              		@ args = 0, pretend = 0, frame = 0
 3072              		@ frame_needed = 0, uses_anonymous_args = 0
 3073              	.LVL411:
 3074 0000 70B5     		push	{r4, r5, r6, lr}
 3075              		.cfi_def_cfa_offset 16
 3076              		.cfi_offset 4, -16
 3077              		.cfi_offset 5, -12
 3078              		.cfi_offset 6, -8
ARM GAS  /tmp/ccWR9Gnm.s 			page 55


 3079              		.cfi_offset 14, -4
 3080 0002 0446     		mov	r4, r0
 3081 0004 0D46     		mov	r5, r1
 3082 0006 1646     		mov	r6, r2
 3083              	.LVL412:
 3084              	.L307:
 3085              		.loc 1 1235 0
 3086 0008 E369     		ldr	r3, [r4, #28]
 3087 000a 0BB9     		cbnz	r3, .L310
 3088              		.loc 1 1240 0
 3089 000c 1846     		mov	r0, r3
 3090              	.L309:
 3091              		.loc 1 1241 0
 3092 000e 70BD     		pop	{r4, r5, r6, pc}
 3093              	.LVL413:
 3094              	.L310:
 3095              		.loc 1 1236 0
 3096 0010 EA1A     		subs	r2, r5, r3
 3097 0012 012B     		cmp	r3, #1
 3098 0014 02F10101 		add	r1, r2, #1
 3099 0018 2068     		ldr	r0, [r4]
 3100 001a 8CBF     		ite	hi
 3101 001c 0232     		addhi	r2, r2, #2
 3102 001e 3246     		movls	r2, r6
 3103 0020 FFF7FEFF 		bl	put_fat
 3104              	.LVL414:
 3105              		.loc 1 1237 0
 3106 0024 0028     		cmp	r0, #0
 3107 0026 F2D1     		bne	.L309
 3108              		.loc 1 1238 0
 3109 0028 E369     		ldr	r3, [r4, #28]
 3110 002a 013B     		subs	r3, r3, #1
 3111 002c E361     		str	r3, [r4, #28]
 3112 002e EBE7     		b	.L307
 3113              		.cfi_endproc
 3114              	.LFE311:
 3115              		.size	fill_last_frag, .-fill_last_frag
 3116              		.section	.text.remove_chain,"ax",%progbits
 3117              		.align	1
 3118              		.syntax unified
 3119              		.thumb
 3120              		.thumb_func
 3121              		.fpu fpv4-sp-d16
 3122              		.type	remove_chain, %function
 3123              	remove_chain:
 3124              	.LFB312:
 3125              		.loc 1 1257 0
 3126              		.cfi_startproc
 3127              		@ args = 0, pretend = 0, frame = 0
 3128              		@ frame_needed = 0, uses_anonymous_args = 0
 3129              	.LVL415:
 3130              		.loc 1 1268 0
 3131 0000 0129     		cmp	r1, #1
 3132              		.loc 1 1257 0
 3133 0002 2DE9F843 		push	{r3, r4, r5, r6, r7, r8, r9, lr}
 3134              		.cfi_def_cfa_offset 32
 3135              		.cfi_offset 3, -32
ARM GAS  /tmp/ccWR9Gnm.s 			page 56


 3136              		.cfi_offset 4, -28
 3137              		.cfi_offset 5, -24
 3138              		.cfi_offset 6, -20
 3139              		.cfi_offset 7, -16
 3140              		.cfi_offset 8, -12
 3141              		.cfi_offset 9, -8
 3142              		.cfi_offset 14, -4
 3143              		.loc 1 1257 0
 3144 0006 0646     		mov	r6, r0
 3145 0008 0D46     		mov	r5, r1
 3146 000a 1746     		mov	r7, r2
 3147              		.loc 1 1268 0
 3148 000c 02D8     		bhi	.L313
 3149              	.LVL416:
 3150              	.L315:
 3151 000e 0220     		movs	r0, #2
 3152 0010 BDE8F883 		pop	{r3, r4, r5, r6, r7, r8, r9, pc}
 3153              	.LVL417:
 3154              	.L313:
 3155              		.loc 1 1260 0 discriminator 2
 3156 0014 0468     		ldr	r4, [r0]
 3157              		.loc 1 1268 0 discriminator 2
 3158 0016 E36A     		ldr	r3, [r4, #44]
 3159 0018 9942     		cmp	r1, r3
 3160 001a F8D2     		bcs	.L315
 3161              		.loc 1 1271 0
 3162 001c 7AB9     		cbnz	r2, .L316
 3163              	.LVL418:
 3164              	.L319:
 3165              		.loc 1 1257 0
 3166 001e A946     		mov	r9, r5
 3167              	.LVL419:
 3168              	.L317:
 3169              		.loc 1 1278 0
 3170 0020 2946     		mov	r1, r5
 3171 0022 3046     		mov	r0, r6
 3172 0024 FFF7FEFF 		bl	get_fat
 3173              	.LVL420:
 3174              		.loc 1 1279 0
 3175 0028 8046     		mov	r8, r0
 3176 002a C0B9     		cbnz	r0, .L320
 3177              	.LVL421:
 3178              	.L329:
 3179              		.loc 1 1313 0
 3180 002c 2378     		ldrb	r3, [r4]	@ zero_extendqisi2
 3181 002e 042B     		cmp	r3, #4
 3182 0030 02D1     		bne	.L347
 3183              		.loc 1 1314 0
 3184 0032 002F     		cmp	r7, #0
 3185 0034 48D1     		bne	.L330
 3186              		.loc 1 1315 0
 3187 0036 F771     		strb	r7, [r6, #7]
 3188              	.LVL422:
 3189              	.L347:
 3190              		.loc 1 1337 0
 3191 0038 0020     		movs	r0, #0
 3192              	.L314:
ARM GAS  /tmp/ccWR9Gnm.s 			page 57


 3193              		.loc 1 1338 0
 3194 003a BDE8F883 		pop	{r3, r4, r5, r6, r7, r8, r9, pc}
 3195              	.LVL423:
 3196              	.L316:
 3197              		.loc 1 1271 0 discriminator 1
 3198 003e 2378     		ldrb	r3, [r4]	@ zero_extendqisi2
 3199 0040 042B     		cmp	r3, #4
 3200 0042 02D1     		bne	.L318
 3201              		.loc 1 1271 0 is_stmt 0 discriminator 2
 3202 0044 C379     		ldrb	r3, [r0, #7]	@ zero_extendqisi2
 3203 0046 022B     		cmp	r3, #2
 3204 0048 E9D0     		beq	.L319
 3205              	.L318:
 3206              		.loc 1 1272 0 is_stmt 1
 3207 004a 4FF0FF32 		mov	r2, #-1
 3208              	.LVL424:
 3209 004e 3946     		mov	r1, r7
 3210              	.LVL425:
 3211 0050 2046     		mov	r0, r4
 3212              	.LVL426:
 3213 0052 FFF7FEFF 		bl	put_fat
 3214              	.LVL427:
 3215              		.loc 1 1273 0
 3216 0056 0028     		cmp	r0, #0
 3217 0058 E1D0     		beq	.L319
 3218 005a BDE8F883 		pop	{r3, r4, r5, r6, r7, r8, r9, pc}
 3219              	.LVL428:
 3220              	.L320:
 3221              		.loc 1 1280 0
 3222 005e 0128     		cmp	r0, #1
 3223 0060 D5D0     		beq	.L315
 3224              		.loc 1 1281 0
 3225 0062 B0F1FF3F 		cmp	r0, #-1
 3226 0066 02D1     		bne	.L323
 3227              	.LVL429:
 3228              	.L333:
 3229 0068 0120     		movs	r0, #1
 3230              	.LVL430:
 3231 006a BDE8F883 		pop	{r3, r4, r5, r6, r7, r8, r9, pc}
 3232              	.LVL431:
 3233              	.L323:
 3234              		.loc 1 1282 0
 3235 006e 2378     		ldrb	r3, [r4]	@ zero_extendqisi2
 3236 0070 042B     		cmp	r3, #4
 3237 0072 19D1     		bne	.L324
 3238              	.LVL432:
 3239              	.L327:
 3240              		.loc 1 1286 0
 3241 0074 E26A     		ldr	r2, [r4, #44]
 3242 0076 A369     		ldr	r3, [r4, #24]
 3243 0078 023A     		subs	r2, r2, #2
 3244 007a 9342     		cmp	r3, r2
 3245 007c 1DD3     		bcc	.L325
 3246              	.L326:
 3247              		.loc 1 1291 0
 3248 007e 6A1C     		adds	r2, r5, #1
 3249 0080 9045     		cmp	r8, r2
ARM GAS  /tmp/ccWR9Gnm.s 			page 58


 3250 0082 0CD0     		beq	.L328
 3251              		.loc 1 1295 0
 3252 0084 2378     		ldrb	r3, [r4]	@ zero_extendqisi2
 3253 0086 042B     		cmp	r3, #4
 3254 0088 08D1     		bne	.L336
 3255              		.loc 1 1296 0
 3256 008a 0023     		movs	r3, #0
 3257 008c A2EB0902 		sub	r2, r2, r9
 3258 0090 4946     		mov	r1, r9
 3259 0092 2046     		mov	r0, r4
 3260 0094 FFF7FEFF 		bl	change_bitmap
 3261              	.LVL433:
 3262              		.loc 1 1297 0
 3263 0098 0028     		cmp	r0, #0
 3264 009a CED1     		bne	.L314
 3265              	.LVL434:
 3266              	.L336:
 3267 009c C146     		mov	r9, r8
 3268              	.LVL435:
 3269              	.L328:
 3270              		.loc 1 1309 0
 3271 009e E36A     		ldr	r3, [r4, #44]
 3272 00a0 9845     		cmp	r8, r3
 3273 00a2 4546     		mov	r5, r8
 3274 00a4 BCD3     		bcc	.L317
 3275              	.LVL436:
 3276 00a6 C1E7     		b	.L329
 3277              	.LVL437:
 3278              	.L324:
 3279              		.loc 1 1283 0
 3280 00a8 0022     		movs	r2, #0
 3281 00aa 2946     		mov	r1, r5
 3282 00ac 2046     		mov	r0, r4
 3283              	.LVL438:
 3284 00ae FFF7FEFF 		bl	put_fat
 3285              	.LVL439:
 3286              		.loc 1 1284 0
 3287 00b2 0028     		cmp	r0, #0
 3288 00b4 DED0     		beq	.L327
 3289 00b6 BDE8F883 		pop	{r3, r4, r5, r6, r7, r8, r9, pc}
 3290              	.LVL440:
 3291              	.L325:
 3292              		.loc 1 1287 0
 3293 00ba 0133     		adds	r3, r3, #1
 3294 00bc A361     		str	r3, [r4, #24]
 3295              		.loc 1 1288 0
 3296 00be 2379     		ldrb	r3, [r4, #4]	@ zero_extendqisi2
 3297 00c0 43F00103 		orr	r3, r3, #1
 3298 00c4 2371     		strb	r3, [r4, #4]
 3299 00c6 DAE7     		b	.L326
 3300              	.L330:
 3301              		.loc 1 1317 0
 3302 00c8 F379     		ldrb	r3, [r6, #7]	@ zero_extendqisi2
 3303 00ca 93B9     		cbnz	r3, .L331
 3304              		.loc 1 1318 0
 3305 00cc B468     		ldr	r4, [r6, #8]
 3306              	.LVL441:
ARM GAS  /tmp/ccWR9Gnm.s 			page 59


 3307              	.L332:
 3308              		.loc 1 1319 0
 3309 00ce BC42     		cmp	r4, r7
 3310 00d0 02D1     		bne	.L334
 3311              	.LVL442:
 3312              	.L335:
 3313              		.loc 1 1331 0
 3314 00d2 0223     		movs	r3, #2
 3315 00d4 F371     		strb	r3, [r6, #7]
 3316 00d6 AFE7     		b	.L347
 3317              	.LVL443:
 3318              	.L334:
 3319              		.loc 1 1320 0
 3320 00d8 2146     		mov	r1, r4
 3321 00da 3046     		mov	r0, r6
 3322 00dc FFF7FEFF 		bl	get_fat
 3323              	.LVL444:
 3324              		.loc 1 1321 0
 3325 00e0 0128     		cmp	r0, #1
 3326 00e2 94D9     		bls	.L315
 3327              		.loc 1 1322 0
 3328 00e4 431C     		adds	r3, r0, #1
 3329 00e6 BFD0     		beq	.L333
 3330              		.loc 1 1323 0
 3331 00e8 631C     		adds	r3, r4, #1
 3332 00ea 9842     		cmp	r0, r3
 3333 00ec 0446     		mov	r4, r0
 3334              	.LVL445:
 3335 00ee EED0     		beq	.L332
 3336 00f0 A2E7     		b	.L347
 3337              	.LVL446:
 3338              	.L331:
 3339              		.loc 1 1330 0
 3340 00f2 032B     		cmp	r3, #3
 3341 00f4 A0D1     		bne	.L347
 3342              		.loc 1 1330 0 is_stmt 0 discriminator 1
 3343 00f6 B368     		ldr	r3, [r6, #8]
 3344 00f8 9F42     		cmp	r7, r3
 3345 00fa 9DD3     		bcc	.L347
 3346              		.loc 1 1330 0 discriminator 2
 3347 00fc B269     		ldr	r2, [r6, #24]
 3348 00fe 1344     		add	r3, r3, r2
 3349 0100 9F42     		cmp	r7, r3
 3350 0102 E6D9     		bls	.L335
 3351 0104 98E7     		b	.L347
 3352              		.cfi_endproc
 3353              	.LFE312:
 3354              		.size	remove_chain, .-remove_chain
 3355              		.section	.text.fill_first_frag,"ax",%progbits
 3356              		.align	1
 3357              		.syntax unified
 3358              		.thumb
 3359              		.thumb_func
 3360              		.fpu fpv4-sp-d16
 3361              		.type	fill_first_frag, %function
 3362              	fill_first_frag:
 3363              	.LFB310:
ARM GAS  /tmp/ccWR9Gnm.s 			page 60


 3364              		.loc 1 1205 0 is_stmt 1
 3365              		.cfi_startproc
 3366              		@ args = 0, pretend = 0, frame = 0
 3367              		@ frame_needed = 0, uses_anonymous_args = 0
 3368              	.LVL447:
 3369 0000 70B5     		push	{r4, r5, r6, lr}
 3370              		.cfi_def_cfa_offset 16
 3371              		.cfi_offset 4, -16
 3372              		.cfi_offset 5, -12
 3373              		.cfi_offset 6, -8
 3374              		.cfi_offset 14, -4
 3375              		.loc 1 1210 0
 3376 0002 C379     		ldrb	r3, [r0, #7]	@ zero_extendqisi2
 3377 0004 032B     		cmp	r3, #3
 3378              		.loc 1 1205 0
 3379 0006 0446     		mov	r4, r0
 3380              		.loc 1 1210 0
 3381 0008 10D1     		bne	.L352
 3382              	.LVL448:
 3383              	.LBB231:
 3384              	.LBB232:
 3385              		.loc 1 1211 0
 3386 000a 8168     		ldr	r1, [r0, #8]
 3387              	.LVL449:
 3388 000c 8369     		ldr	r3, [r0, #24]
 3389 000e CD18     		adds	r5, r1, r3
 3390              	.LVL450:
 3391              	.L350:
 3392 0010 A942     		cmp	r1, r5
 3393 0012 02D1     		bne	.L351
 3394              		.loc 1 1215 0
 3395 0014 0020     		movs	r0, #0
 3396 0016 E071     		strb	r0, [r4, #7]
 3397 0018 70BD     		pop	{r4, r5, r6, pc}
 3398              	.LVL451:
 3399              	.L351:
 3400              		.loc 1 1212 0
 3401 001a 4E1C     		adds	r6, r1, #1
 3402 001c 3246     		mov	r2, r6
 3403 001e 2068     		ldr	r0, [r4]
 3404 0020 FFF7FEFF 		bl	put_fat
 3405              	.LVL452:
 3406              		.loc 1 1211 0
 3407 0024 3146     		mov	r1, r6
 3408              		.loc 1 1213 0
 3409 0026 0028     		cmp	r0, #0
 3410 0028 F2D0     		beq	.L350
 3411              	.LVL453:
 3412              	.L349:
 3413              	.LBE232:
 3414              	.LBE231:
 3415              		.loc 1 1218 0
 3416 002a 70BD     		pop	{r4, r5, r6, pc}
 3417              	.LVL454:
 3418              	.L352:
 3419              		.loc 1 1217 0
 3420 002c 0020     		movs	r0, #0
ARM GAS  /tmp/ccWR9Gnm.s 			page 61


 3421              	.LVL455:
 3422 002e FCE7     		b	.L349
 3423              		.cfi_endproc
 3424              	.LFE310:
 3425              		.size	fill_first_frag, .-fill_first_frag
 3426              		.section	.text.create_chain,"ax",%progbits
 3427              		.align	1
 3428              		.syntax unified
 3429              		.thumb
 3430              		.thumb_func
 3431              		.fpu fpv4-sp-d16
 3432              		.type	create_chain, %function
 3433              	create_chain:
 3434              	.LFB313:
 3435              		.loc 1 1351 0
 3436              		.cfi_startproc
 3437              		@ args = 0, pretend = 0, frame = 0
 3438              		@ frame_needed = 0, uses_anonymous_args = 0
 3439              	.LVL456:
 3440 0000 2DE9F84F 		push	{r3, r4, r5, r6, r7, r8, r9, r10, fp, lr}
 3441              		.cfi_def_cfa_offset 40
 3442              		.cfi_offset 3, -40
 3443              		.cfi_offset 4, -36
 3444              		.cfi_offset 5, -32
 3445              		.cfi_offset 6, -28
 3446              		.cfi_offset 7, -24
 3447              		.cfi_offset 8, -20
 3448              		.cfi_offset 9, -16
 3449              		.cfi_offset 10, -12
 3450              		.cfi_offset 11, -8
 3451              		.cfi_offset 14, -4
 3452              		.loc 1 1351 0
 3453 0004 0746     		mov	r7, r0
 3454              		.loc 1 1354 0
 3455 0006 0568     		ldr	r5, [r0]
 3456              	.LVL457:
 3457              		.loc 1 1357 0
 3458 0008 8946     		mov	r9, r1
 3459 000a 49B9     		cbnz	r1, .L354
 3460              		.loc 1 1358 0
 3461 000c 6E69     		ldr	r6, [r5, #20]
 3462              	.LVL458:
 3463              		.loc 1 1359 0
 3464 000e CEB1     		cbz	r6, .L385
 3465              		.loc 1 1359 0 is_stmt 0 discriminator 2
 3466 0010 EB6A     		ldr	r3, [r5, #44]
 3467 0012 9E42     		cmp	r6, r3
 3468 0014 28BF     		it	cs
 3469 0016 0126     		movcs	r6, #1
 3470              	.LVL459:
 3471              	.L355:
 3472              		.loc 1 1368 0 is_stmt 1
 3473 0018 AB69     		ldr	r3, [r5, #24]
 3474 001a ABB9     		cbnz	r3, .L359
 3475              	.L382:
 3476 001c 0024     		movs	r4, #0
 3477 001e 09E0     		b	.L353
ARM GAS  /tmp/ccWR9Gnm.s 			page 62


 3478              	.LVL460:
 3479              	.L354:
 3480              		.loc 1 1362 0
 3481 0020 FFF7FEFF 		bl	get_fat
 3482              	.LVL461:
 3483              		.loc 1 1363 0
 3484 0024 0128     		cmp	r0, #1
 3485              		.loc 1 1362 0
 3486 0026 0446     		mov	r4, r0
 3487              	.LVL462:
 3488              		.loc 1 1363 0
 3489 0028 40F2DB80 		bls	.L356
 3490              		.loc 1 1364 0
 3491 002c 421C     		adds	r2, r0, #1
 3492 002e 04D1     		bne	.L357
 3493              	.LVL463:
 3494              	.L368:
 3495              		.loc 1 1414 0
 3496 0030 4FF0FF34 		mov	r4, #-1
 3497              	.L353:
 3498              		.loc 1 1438 0
 3499 0034 2046     		mov	r0, r4
 3500 0036 BDE8F88F 		pop	{r3, r4, r5, r6, r7, r8, r9, r10, fp, pc}
 3501              	.LVL464:
 3502              	.L357:
 3503              		.loc 1 1365 0
 3504 003a EB6A     		ldr	r3, [r5, #44]
 3505 003c 9842     		cmp	r0, r3
 3506 003e F9D3     		bcc	.L353
 3507 0040 4E46     		mov	r6, r9
 3508 0042 E9E7     		b	.L355
 3509              	.LVL465:
 3510              	.L385:
 3511              		.loc 1 1359 0
 3512 0044 0126     		movs	r6, #1
 3513              	.LVL466:
 3514 0046 E7E7     		b	.L355
 3515              	.LVL467:
 3516              	.L359:
 3517              		.loc 1 1371 0
 3518 0048 2B78     		ldrb	r3, [r5]	@ zero_extendqisi2
 3519 004a 042B     		cmp	r3, #4
 3520 004c EB6A     		ldr	r3, [r5, #44]
 3521 004e 40F08580 		bne	.L360
 3522              	.LVL468:
 3523              	.LBB235:
 3524              	.LBB236:
 3525              		.loc 1 1135 0
 3526 0052 A6F1020A 		sub	r10, r6, #2
 3527              	.LVL469:
 3528              		.loc 1 1136 0
 3529 0056 023B     		subs	r3, r3, #2
 3530 0058 9A45     		cmp	r10, r3
 3531 005a 28BF     		it	cs
 3532 005c 4FF0000A 		movcs	r10, #0
 3533              	.LVL470:
 3534              		.loc 1 1137 0
ARM GAS  /tmp/ccWR9Gnm.s 			page 63


 3535 0060 D046     		mov	r8, r10
 3536              		.loc 1 1140 0
 3537 0062 4FF0010B 		mov	fp, #1
 3538              	.LVL471:
 3539              	.L367:
 3540              		.loc 1 1139 0
 3541 0066 296C     		ldr	r1, [r5, #64]
 3542 0068 2846     		mov	r0, r5
 3543 006a 01EB1831 		add	r1, r1, r8, lsr #12
 3544 006e FFF7FEFF 		bl	move_window
 3545              	.LVL472:
 3546 0072 0028     		cmp	r0, #0
 3547 0074 46D1     		bne	.L386
 3548              		.loc 1 1140 0
 3549 0076 08F00703 		and	r3, r8, #7
 3550              		.loc 1 1144 0
 3551 007a EA6A     		ldr	r2, [r5, #44]
 3552              		.loc 1 1140 0
 3553 007c 0BFA03F3 		lsl	r3, fp, r3
 3554 0080 C8F3C801 		ubfx	r1, r8, #3, #9
 3555              	.LVL473:
 3556 0084 DBB2     		uxtb	r3, r3
 3557              	.LVL474:
 3558              		.loc 1 1144 0
 3559 0086 901E     		subs	r0, r2, #2
 3560              	.LVL475:
 3561              	.L366:
 3562              		.loc 1 1143 0
 3563 0088 6A18     		adds	r2, r5, r1
 3564              		.loc 1 1154 0
 3565 008a 4446     		mov	r4, r8
 3566              	.LVL476:
 3567              		.loc 1 1143 0
 3568 008c 92F84820 		ldrb	r2, [r2, #72]	@ zero_extendqisi2
 3569              		.loc 1 1144 0
 3570 0090 08F10108 		add	r8, r8, #1
 3571 0094 8045     		cmp	r8, r0
 3572              		.loc 1 1143 0
 3573 0096 02EA0302 		and	r2, r2, r3
 3574              	.LVL477:
 3575              		.loc 1 1145 0
 3576 009a 2DBF     		iteet	cs
 3577 009c 4FF00008 		movcs	r8, #0
 3578              	.LVL478:
 3579              		.loc 1 1143 0
 3580 00a0 5B00     		lslcc	r3, r3, #1
 3581              	.LVL479:
 3582 00a2 DBB2     		uxtbcc	r3, r3
 3583              		.loc 1 1145 0
 3584 00a4 4FF40071 		movcs	r1, #512
 3585              	.LVL480:
 3586 00a8 28BF     		it	cs
 3587 00aa 4346     		movcs	r3, r8
 3588              	.LVL481:
 3589              		.loc 1 1147 0
 3590 00ac 02BB     		cbnz	r2, .L365
 3591              	.LVL482:
ARM GAS  /tmp/ccWR9Gnm.s 			page 64


 3592              		.loc 1 1148 0
 3593 00ae 0234     		adds	r4, r4, #2
 3594              	.LVL483:
 3595              	.L362:
 3596              	.LBE236:
 3597              	.LBE235:
 3598              		.loc 1 1373 0
 3599 00b0 631E     		subs	r3, r4, #1
 3600 00b2 0333     		adds	r3, r3, #3
 3601 00b4 BED8     		bhi	.L353
 3602              		.loc 1 1374 0
 3603 00b6 0123     		movs	r3, #1
 3604 00b8 1A46     		mov	r2, r3
 3605 00ba 2146     		mov	r1, r4
 3606 00bc 2846     		mov	r0, r5
 3607 00be FFF7FEFF 		bl	change_bitmap
 3608              	.LVL484:
 3609              		.loc 1 1375 0
 3610 00c2 0228     		cmp	r0, #2
 3611 00c4 00F08D80 		beq	.L356
 3612              		.loc 1 1376 0
 3613 00c8 0128     		cmp	r0, #1
 3614 00ca B1D0     		beq	.L368
 3615              		.loc 1 1377 0
 3616 00cc B9F1000F 		cmp	r9, #0
 3617 00d0 1DD1     		bne	.L369
 3618              		.loc 1 1378 0
 3619 00d2 0223     		movs	r3, #2
 3620              	.LVL485:
 3621              	.L425:
 3622              		.loc 1 1382 0
 3623 00d4 FB71     		strb	r3, [r7, #7]
 3624              	.L370:
 3625              		.loc 1 1385 0
 3626 00d6 FB79     		ldrb	r3, [r7, #7]	@ zero_extendqisi2
 3627 00d8 022B     		cmp	r3, #2
 3628 00da 07D0     		beq	.L371
 3629              		.loc 1 1386 0
 3630 00dc 09F10103 		add	r3, r9, #1
 3631 00e0 A342     		cmp	r3, r4
 3632 00e2 FB69     		ldr	r3, [r7, #28]
 3633 00e4 20D1     		bne	.L372
 3634              		.loc 1 1387 0
 3635 00e6 EBB1     		cbz	r3, .L390
 3636              		.loc 1 1387 0 is_stmt 0 discriminator 1
 3637 00e8 0133     		adds	r3, r3, #1
 3638              	.L373:
 3639              		.loc 1 1387 0 discriminator 4
 3640 00ea FB61     		str	r3, [r7, #28]
 3641              	.L371:
 3642              	.LVL486:
 3643              		.loc 1 1429 0 is_stmt 1
 3644 00ec 40B3     		cbz	r0, .L376
 3645 00ee 78E0     		b	.L356
 3646              	.LVL487:
 3647              	.L365:
 3648              	.LBB238:
ARM GAS  /tmp/ccWR9Gnm.s 			page 65


 3649              	.LBB237:
 3650              		.loc 1 1152 0
 3651 00f0 C245     		cmp	r10, r8
 3652 00f2 0AD0     		beq	.L388
 3653              		.loc 1 1153 0
 3654 00f4 002B     		cmp	r3, #0
 3655 00f6 C7D1     		bne	.L366
 3656              	.LVL488:
 3657              		.loc 1 1155 0
 3658 00f8 0131     		adds	r1, r1, #1
 3659              	.LVL489:
 3660 00fa B1F5007F 		cmp	r1, #512
 3661 00fe B2D2     		bcs	.L367
 3662              		.loc 1 1154 0
 3663 0100 0123     		movs	r3, #1
 3664 0102 C1E7     		b	.L366
 3665              	.LVL490:
 3666              	.L386:
 3667              		.loc 1 1139 0
 3668 0104 4FF0FF34 		mov	r4, #-1
 3669 0108 D2E7     		b	.L362
 3670              	.LVL491:
 3671              	.L388:
 3672              		.loc 1 1152 0
 3673 010a 0024     		movs	r4, #0
 3674 010c D0E7     		b	.L362
 3675              	.LVL492:
 3676              	.L369:
 3677              	.LBE237:
 3678              	.LBE238:
 3679              		.loc 1 1380 0
 3680 010e FB79     		ldrb	r3, [r7, #7]	@ zero_extendqisi2
 3681 0110 022B     		cmp	r3, #2
 3682 0112 E0D1     		bne	.L370
 3683              		.loc 1 1380 0 is_stmt 0 discriminator 1
 3684 0114 731C     		adds	r3, r6, #1
 3685 0116 A342     		cmp	r3, r4
 3686 0118 DDD0     		beq	.L370
 3687              		.loc 1 1381 0 is_stmt 1
 3688 011a BB68     		ldr	r3, [r7, #8]
 3689 011c F61A     		subs	r6, r6, r3
 3690              	.LVL493:
 3691 011e BE61     		str	r6, [r7, #24]
 3692              		.loc 1 1382 0
 3693 0120 0323     		movs	r3, #3
 3694 0122 D7E7     		b	.L425
 3695              	.L390:
 3696              		.loc 1 1387 0
 3697 0124 0223     		movs	r3, #2
 3698 0126 E0E7     		b	.L373
 3699              	.L372:
 3700              		.loc 1 1389 0
 3701 0128 0BB9     		cbnz	r3, .L374
 3702              		.loc 1 1389 0 is_stmt 0 discriminator 1
 3703 012a 0123     		movs	r3, #1
 3704 012c FB61     		str	r3, [r7, #28]
 3705              	.L374:
ARM GAS  /tmp/ccWR9Gnm.s 			page 66


 3706              		.loc 1 1390 0 is_stmt 1
 3707 012e 2246     		mov	r2, r4
 3708 0130 4946     		mov	r1, r9
 3709 0132 3846     		mov	r0, r7
 3710              	.LVL494:
 3711 0134 FFF7FEFF 		bl	fill_last_frag
 3712              	.LVL495:
 3713              		.loc 1 1391 0
 3714 0138 0028     		cmp	r0, #0
 3715 013a 4FD1     		bne	.L375
 3716              		.loc 1 1391 0 is_stmt 0 discriminator 1
 3717 013c 0123     		movs	r3, #1
 3718 013e FB61     		str	r3, [r7, #28]
 3719              	.L376:
 3720              	.LVL496:
 3721              		.loc 1 1431 0 is_stmt 1
 3722 0140 EA6A     		ldr	r2, [r5, #44]
 3723 0142 AB69     		ldr	r3, [r5, #24]
 3724              		.loc 1 1430 0
 3725 0144 6C61     		str	r4, [r5, #20]
 3726              		.loc 1 1431 0
 3727 0146 023A     		subs	r2, r2, #2
 3728 0148 9342     		cmp	r3, r2
 3729 014a 9CBF     		itt	ls
 3730 014c 03F1FF33 		addls	r3, r3, #-1
 3731 0150 AB61     		strls	r3, [r5, #24]
 3732              		.loc 1 1432 0
 3733 0152 2B79     		ldrb	r3, [r5, #4]	@ zero_extendqisi2
 3734 0154 43F00103 		orr	r3, r3, #1
 3735 0158 2B71     		strb	r3, [r5, #4]
 3736 015a 6BE7     		b	.L353
 3737              	.LVL497:
 3738              	.L360:
 3739              		.loc 1 1398 0
 3740 015c 4E45     		cmp	r6, r9
 3741 015e 14D1     		bne	.L377
 3742              		.loc 1 1399 0
 3743 0160 741C     		adds	r4, r6, #1
 3744              	.LVL498:
 3745              		.loc 1 1400 0
 3746 0162 9C42     		cmp	r4, r3
 3747 0164 28BF     		it	cs
 3748 0166 0224     		movcs	r4, #2
 3749              	.LVL499:
 3750              		.loc 1 1401 0
 3751 0168 2146     		mov	r1, r4
 3752 016a 3846     		mov	r0, r7
 3753 016c FFF7FEFF 		bl	get_fat
 3754              	.LVL500:
 3755              		.loc 1 1402 0
 3756 0170 0128     		cmp	r0, #1
 3757 0172 36D0     		beq	.L356
 3758              		.loc 1 1402 0 is_stmt 0 discriminator 2
 3759 0174 431C     		adds	r3, r0, #1
 3760 0176 3FF45BAF 		beq	.L368
 3761              		.loc 1 1403 0 is_stmt 1
 3762 017a E0B1     		cbz	r0, .L379
ARM GAS  /tmp/ccWR9Gnm.s 			page 67


 3763              		.loc 1 1404 0
 3764 017c 6B69     		ldr	r3, [r5, #20]
 3765              	.LVL501:
 3766              		.loc 1 1405 0
 3767 017e 012B     		cmp	r3, #1
 3768 0180 03D9     		bls	.L377
 3769              		.loc 1 1405 0 is_stmt 0 discriminator 1
 3770 0182 EA6A     		ldr	r2, [r5, #44]
 3771 0184 9342     		cmp	r3, r2
 3772 0186 38BF     		it	cc
 3773 0188 1E46     		movcc	r6, r3
 3774              	.LVL502:
 3775              	.L377:
 3776 018a 3446     		mov	r4, r6
 3777              	.L383:
 3778              	.LVL503:
 3779              		.loc 1 1413 0 is_stmt 1
 3780 018c EB6A     		ldr	r3, [r5, #44]
 3781              		.loc 1 1412 0
 3782 018e 0134     		adds	r4, r4, #1
 3783              	.LVL504:
 3784              		.loc 1 1413 0
 3785 0190 9C42     		cmp	r4, r3
 3786 0192 03D3     		bcc	.L381
 3787              	.LVL505:
 3788              		.loc 1 1415 0
 3789 0194 012E     		cmp	r6, #1
 3790 0196 7FF641AF 		bls	.L382
 3791              		.loc 1 1414 0
 3792 019a 0224     		movs	r4, #2
 3793              	.LVL506:
 3794              	.L381:
 3795              		.loc 1 1417 0
 3796 019c 2146     		mov	r1, r4
 3797 019e 3846     		mov	r0, r7
 3798 01a0 FFF7FEFF 		bl	get_fat
 3799              	.LVL507:
 3800              		.loc 1 1418 0
 3801 01a4 48B1     		cbz	r0, .L380
 3802              		.loc 1 1419 0
 3803 01a6 0128     		cmp	r0, #1
 3804 01a8 1BD0     		beq	.L356
 3805              		.loc 1 1419 0 is_stmt 0 discriminator 2
 3806 01aa 0130     		adds	r0, r0, #1
 3807              	.LVL508:
 3808 01ac 3FF440AF 		beq	.L368
 3809              		.loc 1 1420 0 is_stmt 1
 3810 01b0 B442     		cmp	r4, r6
 3811 01b2 EBD1     		bne	.L383
 3812 01b4 32E7     		b	.L382
 3813              	.LVL509:
 3814              	.L379:
 3815              		.loc 1 1409 0
 3816 01b6 002C     		cmp	r4, #0
 3817 01b8 E7D0     		beq	.L377
 3818              	.L380:
 3819              		.loc 1 1423 0
ARM GAS  /tmp/ccWR9Gnm.s 			page 68


 3820 01ba 4FF0FF32 		mov	r2, #-1
 3821 01be 2146     		mov	r1, r4
 3822 01c0 2846     		mov	r0, r5
 3823              	.LVL510:
 3824 01c2 FFF7FEFF 		bl	put_fat
 3825              	.LVL511:
 3826              		.loc 1 1424 0
 3827 01c6 48B9     		cbnz	r0, .L375
 3828              		.loc 1 1424 0 is_stmt 0 discriminator 1
 3829 01c8 B9F1000F 		cmp	r9, #0
 3830 01cc B8D0     		beq	.L376
 3831              		.loc 1 1425 0 is_stmt 1
 3832 01ce 2246     		mov	r2, r4
 3833 01d0 4946     		mov	r1, r9
 3834 01d2 2846     		mov	r0, r5
 3835              	.LVL512:
 3836 01d4 FFF7FEFF 		bl	put_fat
 3837              	.LVL513:
 3838              		.loc 1 1429 0
 3839 01d8 0028     		cmp	r0, #0
 3840 01da B1D0     		beq	.L376
 3841              	.LVL514:
 3842              	.L375:
 3843              		.loc 1 1434 0
 3844 01dc 0128     		cmp	r0, #1
 3845 01de 3FF427AF 		beq	.L368
 3846              	.LVL515:
 3847              	.L356:
 3848              		.loc 1 1434 0 is_stmt 0 discriminator 2
 3849 01e2 0124     		movs	r4, #1
 3850 01e4 26E7     		b	.L353
 3851              		.cfi_endproc
 3852              	.LFE313:
 3853              		.size	create_chain, .-create_chain
 3854              		.section	.text.dir_next,"ax",%progbits
 3855              		.align	1
 3856              		.syntax unified
 3857              		.thumb
 3858              		.thumb_func
 3859              		.fpu fpv4-sp-d16
 3860              		.type	dir_next, %function
 3861              	dir_next:
 3862              	.LFB316:
 3863              		.loc 1 1575 0 is_stmt 1
 3864              		.cfi_startproc
 3865              		@ args = 0, pretend = 0, frame = 0
 3866              		@ frame_needed = 0, uses_anonymous_args = 0
 3867              	.LVL516:
 3868 0000 2DE9F843 		push	{r3, r4, r5, r6, r7, r8, r9, lr}
 3869              		.cfi_def_cfa_offset 32
 3870              		.cfi_offset 3, -32
 3871              		.cfi_offset 4, -28
 3872              		.cfi_offset 5, -24
 3873              		.cfi_offset 6, -20
 3874              		.cfi_offset 7, -16
 3875              		.cfi_offset 8, -12
 3876              		.cfi_offset 9, -8
ARM GAS  /tmp/ccWR9Gnm.s 			page 69


 3877              		.cfi_offset 14, -4
 3878              		.loc 1 1581 0
 3879 0004 836B     		ldr	r3, [r0, #56]
 3880              		.loc 1 1575 0
 3881 0006 0446     		mov	r4, r0
 3882 0008 8946     		mov	r9, r1
 3883              		.loc 1 1581 0
 3884 000a D3B1     		cbz	r3, .L441
 3885              		.loc 1 1577 0 discriminator 2
 3886 000c 0568     		ldr	r5, [r0]
 3887              		.loc 1 1580 0 discriminator 2
 3888 000e 076B     		ldr	r7, [r0, #48]
 3889              		.loc 1 1581 0 discriminator 2
 3890 0010 2A78     		ldrb	r2, [r5]	@ zero_extendqisi2
 3891 0012 042A     		cmp	r2, #4
 3892 0014 0CBF     		ite	eq
 3893 0016 4FF08052 		moveq	r2, #268435456
 3894 001a 4FF40012 		movne	r2, #2097152
 3895              		.loc 1 1580 0 discriminator 2
 3896 001e 2037     		adds	r7, r7, #32
 3897              		.loc 1 1581 0 discriminator 2
 3898 0020 BA42     		cmp	r2, r7
 3899 0022 0ED9     		bls	.L441
 3900              		.loc 1 1583 0
 3901 0024 C7F30808 		ubfx	r8, r7, #0, #9
 3902 0028 B8F1000F 		cmp	r8, #0
 3903 002c 3ED1     		bne	.L430
 3904              		.loc 1 1586 0
 3905 002e 416B     		ldr	r1, [r0, #52]
 3906              	.LVL517:
 3907              		.loc 1 1584 0
 3908 0030 0133     		adds	r3, r3, #1
 3909 0032 8363     		str	r3, [r0, #56]
 3910              		.loc 1 1586 0
 3911 0034 41B9     		cbnz	r1, .L431
 3912              		.loc 1 1587 0
 3913 0036 2B89     		ldrh	r3, [r5, #8]
 3914 0038 B3EB571F 		cmp	r3, r7, lsr #5
 3915 003c 36D8     		bhi	.L430
 3916              	.LVL518:
 3917              	.L436:
 3918              		.loc 1 1588 0
 3919 003e 0023     		movs	r3, #0
 3920 0040 A363     		str	r3, [r4, #56]
 3921              	.L441:
 3922              		.loc 1 1581 0
 3923 0042 0420     		movs	r0, #4
 3924 0044 BDE8F883 		pop	{r3, r4, r5, r6, r7, r8, r9, pc}
 3925              	.LVL519:
 3926              	.L431:
 3927              		.loc 1 1592 0
 3928 0048 6B89     		ldrh	r3, [r5, #10]
 3929 004a 013B     		subs	r3, r3, #1
 3930 004c 13EA5723 		ands	r3, r3, r7, lsr #9
 3931 0050 2CD1     		bne	.L430
 3932              		.loc 1 1593 0
 3933 0052 FFF7FEFF 		bl	get_fat
ARM GAS  /tmp/ccWR9Gnm.s 			page 70


 3934              	.LVL520:
 3935              		.loc 1 1594 0
 3936 0056 0128     		cmp	r0, #1
 3937              		.loc 1 1593 0
 3938 0058 0646     		mov	r6, r0
 3939              	.LVL521:
 3940              		.loc 1 1594 0
 3941 005a 02D8     		bhi	.L433
 3942              	.L437:
 3943 005c 0220     		movs	r0, #2
 3944              	.LVL522:
 3945 005e BDE8F883 		pop	{r3, r4, r5, r6, r7, r8, r9, pc}
 3946              	.LVL523:
 3947              	.L433:
 3948              		.loc 1 1595 0
 3949 0062 421C     		adds	r2, r0, #1
 3950 0064 02D1     		bne	.L434
 3951              	.LVL524:
 3952              	.L438:
 3953 0066 0120     		movs	r0, #1
 3954 0068 BDE8F883 		pop	{r3, r4, r5, r6, r7, r8, r9, pc}
 3955              	.LVL525:
 3956              	.L434:
 3957              		.loc 1 1596 0
 3958 006c EB6A     		ldr	r3, [r5, #44]
 3959 006e 9842     		cmp	r0, r3
 3960 0070 16D3     		bcc	.L435
 3961              		.loc 1 1598 0
 3962 0072 B9F1000F 		cmp	r9, #0
 3963 0076 E2D0     		beq	.L436
 3964              		.loc 1 1601 0
 3965 0078 616B     		ldr	r1, [r4, #52]
 3966 007a 2046     		mov	r0, r4
 3967              	.LVL526:
 3968 007c FFF7FEFF 		bl	create_chain
 3969              	.LVL527:
 3970              		.loc 1 1602 0
 3971 0080 0646     		mov	r6, r0
 3972 0082 D0B1     		cbz	r0, .L442
 3973              		.loc 1 1603 0
 3974 0084 0128     		cmp	r0, #1
 3975 0086 E9D0     		beq	.L437
 3976              		.loc 1 1604 0
 3977 0088 431C     		adds	r3, r0, #1
 3978 008a ECD0     		beq	.L438
 3979              		.loc 1 1605 0
 3980 008c 0146     		mov	r1, r0
 3981 008e 2846     		mov	r0, r5
 3982              	.LVL528:
 3983 0090 FFF7FEFF 		bl	dir_clear
 3984              	.LVL529:
 3985 0094 0028     		cmp	r0, #0
 3986 0096 E6D1     		bne	.L438
 3987              		.loc 1 1606 0 discriminator 1
 3988 0098 E379     		ldrb	r3, [r4, #7]	@ zero_extendqisi2
 3989 009a 43F00403 		orr	r3, r3, #4
 3990 009e E371     		strb	r3, [r4, #7]
ARM GAS  /tmp/ccWR9Gnm.s 			page 71


 3991              	.L435:
 3992              		.loc 1 1612 0
 3993 00a0 6663     		str	r6, [r4, #52]
 3994              		.loc 1 1613 0
 3995 00a2 3146     		mov	r1, r6
 3996 00a4 2846     		mov	r0, r5
 3997 00a6 FFF7FEFF 		bl	clst2sect
 3998              	.LVL530:
 3999 00aa A063     		str	r0, [r4, #56]
 4000              	.LVL531:
 4001              	.L430:
 4002              		.loc 1 1618 0
 4003 00ac 4835     		adds	r5, r5, #72
 4004 00ae 4544     		add	r5, r5, r8
 4005              		.loc 1 1617 0
 4006 00b0 2763     		str	r7, [r4, #48]
 4007              		.loc 1 1618 0
 4008 00b2 E563     		str	r5, [r4, #60]
 4009              		.loc 1 1620 0
 4010 00b4 0020     		movs	r0, #0
 4011 00b6 BDE8F883 		pop	{r3, r4, r5, r6, r7, r8, r9, pc}
 4012              	.LVL532:
 4013              	.L442:
 4014              		.loc 1 1602 0
 4015 00ba 0720     		movs	r0, #7
 4016              	.LVL533:
 4017              		.loc 1 1621 0
 4018 00bc BDE8F883 		pop	{r3, r4, r5, r6, r7, r8, r9, pc}
 4019              		.cfi_endproc
 4020              	.LFE316:
 4021              		.size	dir_next, .-dir_next
 4022              		.section	.text.load_xdir,"ax",%progbits
 4023              		.align	1
 4024              		.syntax unified
 4025              		.thumb
 4026              		.thumb_func
 4027              		.fpu fpv4-sp-d16
 4028              		.type	load_xdir, %function
 4029              	load_xdir:
 4030              	.LFB328:
 4031              		.loc 1 2007 0
 4032              		.cfi_startproc
 4033              		@ args = 0, pretend = 0, frame = 0
 4034              		@ frame_needed = 0, uses_anonymous_args = 0
 4035              	.LVL534:
 4036 0000 2DE9F041 		push	{r4, r5, r6, r7, r8, lr}
 4037              		.cfi_def_cfa_offset 24
 4038              		.cfi_offset 4, -24
 4039              		.cfi_offset 5, -20
 4040              		.cfi_offset 6, -16
 4041              		.cfi_offset 7, -12
 4042              		.cfi_offset 8, -8
 4043              		.cfi_offset 14, -4
 4044              		.loc 1 2007 0
 4045 0004 0546     		mov	r5, r0
 4046              		.loc 1 2010 0
 4047 0006 0068     		ldr	r0, [r0]
ARM GAS  /tmp/ccWR9Gnm.s 			page 72


 4048              	.LVL535:
 4049              		.loc 1 2014 0
 4050 0008 A96B     		ldr	r1, [r5, #56]
 4051              		.loc 1 2010 0
 4052 000a 0669     		ldr	r6, [r0, #16]
 4053              	.LVL536:
 4054              		.loc 1 2014 0
 4055 000c FFF7FEFF 		bl	move_window
 4056              	.LVL537:
 4057              		.loc 1 2015 0
 4058 0010 0446     		mov	r4, r0
 4059 0012 20B9     		cbnz	r0, .L453
 4060              		.loc 1 2016 0
 4061 0014 E96B     		ldr	r1, [r5, #60]
 4062 0016 0B78     		ldrb	r3, [r1]	@ zero_extendqisi2
 4063 0018 852B     		cmp	r3, #133
 4064 001a 03D0     		beq	.L454
 4065              	.LVL538:
 4066              	.L455:
 4067 001c 0224     		movs	r4, #2
 4068              	.L453:
 4069              		.loc 1 2048 0
 4070 001e 2046     		mov	r0, r4
 4071 0020 BDE8F081 		pop	{r4, r5, r6, r7, r8, pc}
 4072              	.LVL539:
 4073              	.L454:
 4074              	.LBB239:
 4075              	.LBB240:
 4076 0024 2022     		movs	r2, #32
 4077 0026 3046     		mov	r0, r6
 4078              	.LVL540:
 4079 0028 FFF7FEFF 		bl	mem_cpy.part.0
 4080              	.LVL541:
 4081              	.LBE240:
 4082              	.LBE239:
 4083              		.loc 1 2018 0
 4084 002c 7778     		ldrb	r7, [r6, #1]	@ zero_extendqisi2
 4085 002e 0137     		adds	r7, r7, #1
 4086 0030 7F01     		lsls	r7, r7, #5
 4087              	.LVL542:
 4088              		.loc 1 2019 0
 4089 0032 A7F16003 		sub	r3, r7, #96
 4090 0036 B3F5007F 		cmp	r3, #512
 4091 003a EFD8     		bhi	.L455
 4092              		.loc 1 2022 0
 4093 003c 2146     		mov	r1, r4
 4094 003e 2846     		mov	r0, r5
 4095 0040 FFF7FEFF 		bl	dir_next
 4096              	.LVL543:
 4097              		.loc 1 2023 0
 4098 0044 0428     		cmp	r0, #4
 4099              		.loc 1 2022 0
 4100 0046 0446     		mov	r4, r0
 4101              	.LVL544:
 4102              		.loc 1 2023 0
 4103 0048 E8D0     		beq	.L455
 4104              		.loc 1 2024 0
ARM GAS  /tmp/ccWR9Gnm.s 			page 73


 4105 004a 0028     		cmp	r0, #0
 4106 004c E7D1     		bne	.L453
 4107              		.loc 1 2025 0
 4108 004e A96B     		ldr	r1, [r5, #56]
 4109 0050 2868     		ldr	r0, [r5]
 4110              	.LVL545:
 4111 0052 FFF7FEFF 		bl	move_window
 4112              	.LVL546:
 4113              		.loc 1 2026 0
 4114 0056 0446     		mov	r4, r0
 4115 0058 0028     		cmp	r0, #0
 4116 005a E0D1     		bne	.L453
 4117              		.loc 1 2027 0
 4118 005c E96B     		ldr	r1, [r5, #60]
 4119 005e 0B78     		ldrb	r3, [r1]	@ zero_extendqisi2
 4120 0060 C02B     		cmp	r3, #192
 4121 0062 DBD1     		bne	.L455
 4122              	.LVL547:
 4123              	.LBB241:
 4124              	.LBB242:
 4125 0064 2022     		movs	r2, #32
 4126 0066 B018     		adds	r0, r6, r2
 4127              	.LVL548:
 4128 0068 FFF7FEFF 		bl	mem_cpy.part.0
 4129              	.LVL549:
 4130              	.LBE242:
 4131              	.LBE241:
 4132              		.loc 1 2029 0
 4133 006c 96F82330 		ldrb	r3, [r6, #35]	@ zero_extendqisi2
 4134 0070 0F22     		movs	r2, #15
 4135 0072 2C33     		adds	r3, r3, #44
 4136 0074 B3FBF2F3 		udiv	r3, r3, r2
 4137 0078 B7EB431F 		cmp	r7, r3, lsl #5
 4138 007c CED3     		bcc	.L455
 4139 007e 4FF04008 		mov	r8, #64
 4140              	.L457:
 4141              	.LVL550:
 4142              		.loc 1 2034 0
 4143 0082 0021     		movs	r1, #0
 4144 0084 2846     		mov	r0, r5
 4145 0086 FFF7FEFF 		bl	dir_next
 4146              	.LVL551:
 4147              		.loc 1 2035 0
 4148 008a 0428     		cmp	r0, #4
 4149              		.loc 1 2034 0
 4150 008c 0446     		mov	r4, r0
 4151              	.LVL552:
 4152              		.loc 1 2035 0
 4153 008e C5D0     		beq	.L455
 4154              		.loc 1 2036 0
 4155 0090 0028     		cmp	r0, #0
 4156 0092 C4D1     		bne	.L453
 4157              		.loc 1 2037 0
 4158 0094 A96B     		ldr	r1, [r5, #56]
 4159 0096 2868     		ldr	r0, [r5]
 4160              	.LVL553:
 4161 0098 FFF7FEFF 		bl	move_window
ARM GAS  /tmp/ccWR9Gnm.s 			page 74


 4162              	.LVL554:
 4163              		.loc 1 2038 0
 4164 009c 0446     		mov	r4, r0
 4165 009e 0028     		cmp	r0, #0
 4166 00a0 BDD1     		bne	.L453
 4167              		.loc 1 2039 0
 4168 00a2 E96B     		ldr	r1, [r5, #60]
 4169 00a4 0B78     		ldrb	r3, [r1]	@ zero_extendqisi2
 4170 00a6 C12B     		cmp	r3, #193
 4171 00a8 B8D1     		bne	.L455
 4172              		.loc 1 2040 0
 4173 00aa B8F5187F 		cmp	r8, #608
 4174 00ae 04D2     		bcs	.L456
 4175              	.LVL555:
 4176              	.LBB243:
 4177              	.LBB244:
 4178 00b0 2022     		movs	r2, #32
 4179 00b2 06EB0800 		add	r0, r6, r8
 4180              	.LVL556:
 4181 00b6 FFF7FEFF 		bl	mem_cpy.part.0
 4182              	.LVL557:
 4183              	.L456:
 4184              	.LBE244:
 4185              	.LBE243:
 4186              		.loc 1 2041 0
 4187 00ba 08F12008 		add	r8, r8, #32
 4188              	.LVL558:
 4189 00be 4745     		cmp	r7, r8
 4190 00c0 DFD8     		bhi	.L457
 4191              		.loc 1 2044 0
 4192 00c2 B8F5187F 		cmp	r8, #608
 4193 00c6 AAD8     		bhi	.L453
 4194              		.loc 1 2045 0
 4195 00c8 3046     		mov	r0, r6
 4196 00ca FFF7FEFF 		bl	xdir_sum
 4197              	.LVL559:
 4198              	.LBB245:
 4199              	.LBB246:
 4200              		.loc 1 553 0
 4201 00ce F278     		ldrb	r2, [r6, #3]	@ zero_extendqisi2
 4202 00d0 B378     		ldrb	r3, [r6, #2]	@ zero_extendqisi2
 4203              	.LBE246:
 4204              	.LBE245:
 4205              		.loc 1 2045 0
 4206 00d2 43EA0223 		orr	r3, r3, r2, lsl #8
 4207 00d6 9842     		cmp	r0, r3
 4208 00d8 A0D1     		bne	.L455
 4209 00da A0E7     		b	.L453
 4210              		.cfi_endproc
 4211              	.LFE328:
 4212              		.size	load_xdir, .-load_xdir
 4213              		.section	.text.load_obj_xdir,"ax",%progbits
 4214              		.align	1
 4215              		.syntax unified
 4216              		.thumb
 4217              		.thumb_func
 4218              		.fpu fpv4-sp-d16
ARM GAS  /tmp/ccWR9Gnm.s 			page 75


 4219              		.type	load_obj_xdir, %function
 4220              	load_obj_xdir:
 4221              	.LFB329:
 4222              		.loc 1 2060 0
 4223              		.cfi_startproc
 4224              		@ args = 0, pretend = 0, frame = 0
 4225              		@ frame_needed = 0, uses_anonymous_args = 0
 4226              	.LVL560:
 4227              		.loc 1 2064 0
 4228 0000 0B68     		ldr	r3, [r1]
 4229              		.loc 1 2060 0
 4230 0002 10B5     		push	{r4, lr}
 4231              		.cfi_def_cfa_offset 8
 4232              		.cfi_offset 4, -8
 4233              		.cfi_offset 14, -4
 4234              		.loc 1 2064 0
 4235 0004 0360     		str	r3, [r0]
 4236              		.loc 1 2065 0
 4237 0006 0B6A     		ldr	r3, [r1, #32]
 4238 0008 8360     		str	r3, [r0, #8]
 4239              		.loc 1 2066 0
 4240 000a 4B6A     		ldr	r3, [r1, #36]
 4241 000c C371     		strb	r3, [r0, #7]
 4242              		.loc 1 2067 0
 4243 000e 0022     		movs	r2, #0
 4244 0010 23F0FF03 		bic	r3, r3, #255
 4245              		.loc 1 2069 0
 4246 0014 896A     		ldr	r1, [r1, #40]
 4247              	.LVL561:
 4248              		.loc 1 2067 0
 4249 0016 0361     		str	r3, [r0, #16]
 4250 0018 4261     		str	r2, [r0, #20]
 4251              		.loc 1 2068 0
 4252 001a C261     		str	r2, [r0, #28]
 4253              		.loc 1 2069 0
 4254 001c C164     		str	r1, [r0, #76]
 4255              		.loc 1 2060 0
 4256 001e 0446     		mov	r4, r0
 4257              		.loc 1 2071 0
 4258 0020 FFF7FEFF 		bl	dir_sdi
 4259              	.LVL562:
 4260              		.loc 1 2072 0
 4261 0024 20B9     		cbnz	r0, .L466
 4262              		.loc 1 2073 0
 4263 0026 2046     		mov	r0, r4
 4264              	.LVL563:
 4265              		.loc 1 2076 0
 4266 0028 BDE81040 		pop	{r4, lr}
 4267              		.cfi_remember_state
 4268              		.cfi_restore 14
 4269              		.cfi_restore 4
 4270              		.cfi_def_cfa_offset 0
 4271              	.LVL564:
 4272              		.loc 1 2073 0
 4273 002c FFF7FEBF 		b	load_xdir
 4274              	.LVL565:
 4275              	.L466:
ARM GAS  /tmp/ccWR9Gnm.s 			page 76


 4276              		.cfi_restore_state
 4277              		.loc 1 2076 0
 4278 0030 10BD     		pop	{r4, pc}
 4279              		.cfi_endproc
 4280              	.LFE329:
 4281              		.size	load_obj_xdir, .-load_obj_xdir
 4282              		.section	.text.dir_alloc,"ax",%progbits
 4283              		.align	1
 4284              		.syntax unified
 4285              		.thumb
 4286              		.thumb_func
 4287              		.fpu fpv4-sp-d16
 4288              		.type	dir_alloc, %function
 4289              	dir_alloc:
 4290              	.LFB317:
 4291              		.loc 1 1636 0
 4292              		.cfi_startproc
 4293              		@ args = 0, pretend = 0, frame = 0
 4294              		@ frame_needed = 0, uses_anonymous_args = 0
 4295              	.LVL566:
 4296 0000 F8B5     		push	{r3, r4, r5, r6, r7, lr}
 4297              		.cfi_def_cfa_offset 24
 4298              		.cfi_offset 3, -24
 4299              		.cfi_offset 4, -20
 4300              		.cfi_offset 5, -16
 4301              		.cfi_offset 6, -12
 4302              		.cfi_offset 7, -8
 4303              		.cfi_offset 14, -4
 4304              		.loc 1 1636 0
 4305 0002 0E46     		mov	r6, r1
 4306              		.loc 1 1642 0
 4307 0004 0021     		movs	r1, #0
 4308              	.LVL567:
 4309              		.loc 1 1636 0
 4310 0006 0446     		mov	r4, r0
 4311              		.loc 1 1639 0
 4312 0008 0568     		ldr	r5, [r0]
 4313              	.LVL568:
 4314              		.loc 1 1642 0
 4315 000a FFF7FEFF 		bl	dir_sdi
 4316              	.LVL569:
 4317              		.loc 1 1643 0
 4318 000e F8B9     		cbnz	r0, .L468
 4319 0010 0746     		mov	r7, r0
 4320              	.L474:
 4321              	.LVL570:
 4322              		.loc 1 1646 0
 4323 0012 A16B     		ldr	r1, [r4, #56]
 4324 0014 2846     		mov	r0, r5
 4325              	.LVL571:
 4326 0016 FFF7FEFF 		bl	move_window
 4327              	.LVL572:
 4328              		.loc 1 1647 0
 4329 001a C8B9     		cbnz	r0, .L468
 4330              		.loc 1 1649 0
 4331 001c 2B78     		ldrb	r3, [r5]	@ zero_extendqisi2
 4332 001e 042B     		cmp	r3, #4
ARM GAS  /tmp/ccWR9Gnm.s 			page 77


 4333 0020 E36B     		ldr	r3, [r4, #60]
 4334 0022 1B78     		ldrb	r3, [r3]	@ zero_extendqisi2
 4335 0024 07D1     		bne	.L469
 4336              		.loc 1 1649 0 is_stmt 0 discriminator 1
 4337 0026 DB43     		mvns	r3, r3
 4338 0028 C3F3C013 		ubfx	r3, r3, #7, #1
 4339              	.L470:
 4340              		.loc 1 1649 0 discriminator 10
 4341 002c 4BB1     		cbz	r3, .L475
 4342              	.L471:
 4343              		.loc 1 1653 0 is_stmt 1
 4344 002e 0137     		adds	r7, r7, #1
 4345              	.LVL573:
 4346 0030 B742     		cmp	r7, r6
 4347 0032 07D1     		bne	.L472
 4348 0034 F8BD     		pop	{r3, r4, r5, r6, r7, pc}
 4349              	.LVL574:
 4350              	.L469:
 4351              		.loc 1 1649 0 discriminator 2
 4352 0036 E52B     		cmp	r3, #229
 4353 0038 F9D0     		beq	.L471
 4354              		.loc 1 1649 0 is_stmt 0 discriminator 5
 4355 003a B3FA83F3 		clz	r3, r3
 4356 003e 5B09     		lsrs	r3, r3, #5
 4357 0040 F4E7     		b	.L470
 4358              	.L475:
 4359              		.loc 1 1655 0 is_stmt 1
 4360 0042 1F46     		mov	r7, r3
 4361              	.LVL575:
 4362              	.L472:
 4363              		.loc 1 1657 0
 4364 0044 0121     		movs	r1, #1
 4365 0046 2046     		mov	r0, r4
 4366              	.LVL576:
 4367 0048 FFF7FEFF 		bl	dir_next
 4368              	.LVL577:
 4369              		.loc 1 1658 0
 4370 004c 0028     		cmp	r0, #0
 4371 004e E0D0     		beq	.L474
 4372              	.LVL578:
 4373              	.L468:
 4374              		.loc 1 1661 0
 4375 0050 0428     		cmp	r0, #4
 4376 0052 08BF     		it	eq
 4377 0054 0720     		moveq	r0, #7
 4378              	.LVL579:
 4379              		.loc 1 1663 0
 4380 0056 F8BD     		pop	{r3, r4, r5, r6, r7, pc}
 4381              		.cfi_endproc
 4382              	.LFE317:
 4383              		.size	dir_alloc, .-dir_alloc
 4384              		.section	.text.store_xdir,"ax",%progbits
 4385              		.align	1
 4386              		.syntax unified
 4387              		.thumb
 4388              		.thumb_func
 4389              		.fpu fpv4-sp-d16
ARM GAS  /tmp/ccWR9Gnm.s 			page 78


 4390              		.type	store_xdir, %function
 4391              	store_xdir:
 4392              	.LFB330:
 4393              		.loc 1 2088 0
 4394              		.cfi_startproc
 4395              		@ args = 0, pretend = 0, frame = 0
 4396              		@ frame_needed = 0, uses_anonymous_args = 0
 4397              	.LVL580:
 4398              		.loc 1 2091 0
 4399 0000 0368     		ldr	r3, [r0]
 4400              		.loc 1 2088 0
 4401 0002 2DE9F041 		push	{r4, r5, r6, r7, r8, lr}
 4402              		.cfi_def_cfa_offset 24
 4403              		.cfi_offset 4, -24
 4404              		.cfi_offset 5, -20
 4405              		.cfi_offset 6, -16
 4406              		.cfi_offset 7, -12
 4407              		.cfi_offset 8, -8
 4408              		.cfi_offset 14, -4
 4409              		.loc 1 2091 0
 4410 0006 1E69     		ldr	r6, [r3, #16]
 4411              	.LVL581:
 4412              		.loc 1 2088 0
 4413 0008 0546     		mov	r5, r0
 4414              		.loc 1 2094 0
 4415 000a 3046     		mov	r0, r6
 4416              	.LVL582:
 4417 000c FFF7FEFF 		bl	xdir_sum
 4418              	.LVL583:
 4419              	.LBB247:
 4420              	.LBB248:
 4421              		.loc 1 591 0
 4422 0010 B070     		strb	r0, [r6, #2]
 4423              	.LVL584:
 4424 0012 000A     		lsrs	r0, r0, #8
 4425              	.LVL585:
 4426              		.loc 1 592 0
 4427 0014 F070     		strb	r0, [r6, #3]
 4428              	.LVL586:
 4429              	.LBE248:
 4430              	.LBE247:
 4431              		.loc 1 2098 0
 4432 0016 E96C     		ldr	r1, [r5, #76]
 4433              		.loc 1 2095 0
 4434 0018 7778     		ldrb	r7, [r6, #1]	@ zero_extendqisi2
 4435              	.LVL587:
 4436              		.loc 1 2098 0
 4437 001a 2846     		mov	r0, r5
 4438 001c FFF7FEFF 		bl	dir_sdi
 4439              	.LVL588:
 4440              		.loc 1 2103 0
 4441 0020 4FF00108 		mov	r8, #1
 4442              		.loc 1 2098 0
 4443 0024 0446     		mov	r4, r0
 4444              	.LVL589:
 4445              	.L482:
 4446              		.loc 1 2099 0
ARM GAS  /tmp/ccWR9Gnm.s 			page 79


 4447 0026 2CB1     		cbz	r4, .L484
 4448              	.LVL590:
 4449              	.L483:
 4450              		.loc 1 2108 0
 4451 0028 022C     		cmp	r4, #2
 4452 002a 28BF     		it	cs
 4453 002c 0224     		movcs	r4, #2
 4454              	.LVL591:
 4455              		.loc 1 2109 0
 4456 002e E0B2     		uxtb	r0, r4
 4457 0030 BDE8F081 		pop	{r4, r5, r6, r7, r8, pc}
 4458              	.LVL592:
 4459              	.L484:
 4460              		.loc 1 2100 0
 4461 0034 A96B     		ldr	r1, [r5, #56]
 4462 0036 2868     		ldr	r0, [r5]
 4463 0038 FFF7FEFF 		bl	move_window
 4464              	.LVL593:
 4465              		.loc 1 2101 0
 4466 003c 0446     		mov	r4, r0
 4467 003e 0028     		cmp	r0, #0
 4468 0040 F2D1     		bne	.L483
 4469              	.LVL594:
 4470              	.LBB249:
 4471              	.LBB250:
 4472 0042 2022     		movs	r2, #32
 4473 0044 3146     		mov	r1, r6
 4474 0046 E86B     		ldr	r0, [r5, #60]
 4475              	.LVL595:
 4476 0048 FFF7FEFF 		bl	mem_cpy.part.0
 4477              	.LVL596:
 4478              	.LBE250:
 4479              	.LBE249:
 4480              		.loc 1 2103 0
 4481 004c 2B68     		ldr	r3, [r5]
 4482 004e 83F80380 		strb	r8, [r3, #3]
 4483              	.LVL597:
 4484              		.loc 1 2104 0
 4485 0052 002F     		cmp	r7, #0
 4486 0054 E8D0     		beq	.L483
 4487              		.loc 1 2106 0
 4488 0056 2146     		mov	r1, r4
 4489 0058 2846     		mov	r0, r5
 4490 005a FFF7FEFF 		bl	dir_next
 4491              	.LVL598:
 4492              		.loc 1 2105 0
 4493 005e 2036     		adds	r6, r6, #32
 4494              	.LVL599:
 4495              		.loc 1 2106 0
 4496 0060 0446     		mov	r4, r0
 4497              	.LVL600:
 4498 0062 013F     		subs	r7, r7, #1
 4499              	.LVL601:
 4500 0064 DFE7     		b	.L482
 4501              		.cfi_endproc
 4502              	.LFE330:
 4503              		.size	store_xdir, .-store_xdir
ARM GAS  /tmp/ccWR9Gnm.s 			page 80


 4504              		.section	.text.dir_remove,"ax",%progbits
 4505              		.align	1
 4506              		.syntax unified
 4507              		.thumb
 4508              		.thumb_func
 4509              		.fpu fpv4-sp-d16
 4510              		.type	dir_remove, %function
 4511              	dir_remove:
 4512              	.LFB335:
 4513              		.loc 1 2432 0
 4514              		.cfi_startproc
 4515              		@ args = 0, pretend = 0, frame = 0
 4516              		@ frame_needed = 0, uses_anonymous_args = 0
 4517              	.LVL602:
 4518              		.loc 1 2438 0
 4519 0000 C16C     		ldr	r1, [r0, #76]
 4520 0002 4B1C     		adds	r3, r1, #1
 4521              		.loc 1 2432 0
 4522 0004 2DE9F041 		push	{r4, r5, r6, r7, r8, lr}
 4523              		.cfi_def_cfa_offset 24
 4524              		.cfi_offset 4, -24
 4525              		.cfi_offset 5, -20
 4526              		.cfi_offset 6, -16
 4527              		.cfi_offset 7, -12
 4528              		.cfi_offset 8, -8
 4529              		.cfi_offset 14, -4
 4530              		.loc 1 2432 0
 4531 0008 0446     		mov	r4, r0
 4532              		.loc 1 2434 0
 4533 000a 0568     		ldr	r5, [r0]
 4534              	.LVL603:
 4535              		.loc 1 2436 0
 4536 000c 066B     		ldr	r6, [r0, #48]
 4537              	.LVL604:
 4538              		.loc 1 2438 0
 4539 000e 1FD1     		bne	.L489
 4540              	.LVL605:
 4541              	.L491:
 4542              		.loc 1 2447 0
 4543 0010 E527     		movs	r7, #229
 4544              		.loc 1 2449 0
 4545 0012 4FF00108 		mov	r8, #1
 4546              	.L490:
 4547              		.loc 1 2441 0
 4548 0016 A16B     		ldr	r1, [r4, #56]
 4549 0018 2846     		mov	r0, r5
 4550 001a FFF7FEFF 		bl	move_window
 4551              	.LVL606:
 4552              		.loc 1 2442 0
 4553 001e 98B9     		cbnz	r0, .L493
 4554              		.loc 1 2444 0
 4555 0020 2B78     		ldrb	r3, [r5]	@ zero_extendqisi2
 4556 0022 042B     		cmp	r3, #4
 4557 0024 E36B     		ldr	r3, [r4, #60]
 4558              		.loc 1 2445 0
 4559 0026 09BF     		itett	eq
 4560 0028 1A78     		ldrbeq	r2, [r3]	@ zero_extendqisi2
ARM GAS  /tmp/ccWR9Gnm.s 			page 81


 4561              		.loc 1 2447 0
 4562 002a 1F70     		strbne	r7, [r3]
 4563              		.loc 1 2445 0
 4564 002c 02F07F02 		andeq	r2, r2, #127
 4565 0030 1A70     		strbeq	r2, [r3]
 4566              		.loc 1 2449 0
 4567 0032 85F80380 		strb	r8, [r5, #3]
 4568              		.loc 1 2450 0
 4569 0036 236B     		ldr	r3, [r4, #48]
 4570 0038 9E42     		cmp	r6, r3
 4571 003a 0DD9     		bls	.L492
 4572              		.loc 1 2451 0
 4573 003c 0021     		movs	r1, #0
 4574 003e 2046     		mov	r0, r4
 4575              	.LVL607:
 4576 0040 FFF7FEFF 		bl	dir_next
 4577              	.LVL608:
 4578              		.loc 1 2452 0
 4579 0044 0028     		cmp	r0, #0
 4580 0046 E6D0     		beq	.L490
 4581              	.L493:
 4582              		.loc 1 2453 0
 4583 0048 0428     		cmp	r0, #4
 4584 004a 08BF     		it	eq
 4585 004c 0220     		moveq	r0, #2
 4586              	.LVL609:
 4587 004e 03E0     		b	.L492
 4588              	.LVL610:
 4589              	.L489:
 4590              		.loc 1 2438 0 discriminator 1
 4591 0050 FFF7FEFF 		bl	dir_sdi
 4592              	.LVL611:
 4593              		.loc 1 2439 0 discriminator 1
 4594 0054 0028     		cmp	r0, #0
 4595 0056 DBD0     		beq	.L491
 4596              	.LVL612:
 4597              	.L492:
 4598              		.loc 1 2465 0
 4599 0058 BDE8F081 		pop	{r4, r5, r6, r7, r8, pc}
 4600              		.cfi_endproc
 4601              	.LFE335:
 4602              		.size	dir_remove, .-dir_remove
 4603              		.section	.text.dir_read.constprop.10,"ax",%progbits
 4604              		.align	1
 4605              		.syntax unified
 4606              		.thumb
 4607              		.thumb_func
 4608              		.fpu fpv4-sp-d16
 4609              		.type	dir_read.constprop.10, %function
 4610              	dir_read.constprop.10:
 4611              	.LFB373:
 4612              		.loc 1 2161 0
 4613              		.cfi_startproc
 4614              		@ args = 0, pretend = 0, frame = 0
 4615              		@ frame_needed = 0, uses_anonymous_args = 0
 4616              	.LVL613:
 4617 0000 2DE9F84F 		push	{r3, r4, r5, r6, r7, r8, r9, r10, fp, lr}
ARM GAS  /tmp/ccWR9Gnm.s 			page 82


 4618              		.cfi_def_cfa_offset 40
 4619              		.cfi_offset 3, -40
 4620              		.cfi_offset 4, -36
 4621              		.cfi_offset 5, -32
 4622              		.cfi_offset 6, -28
 4623              		.cfi_offset 7, -24
 4624              		.cfi_offset 8, -20
 4625              		.cfi_offset 9, -16
 4626              		.cfi_offset 10, -12
 4627              		.cfi_offset 11, -8
 4628              		.cfi_offset 14, -4
 4629              		.loc 1 2170 0
 4630 0004 FF27     		movs	r7, #255
 4631              		.loc 1 2167 0
 4632 0006 0668     		ldr	r6, [r0]
 4633              	.LVL614:
 4634              	.LBB257:
 4635              	.LBB258:
 4636              		.loc 1 1763 0
 4637 0008 DFF83081 		ldr	r8, .L535
 4638              	.LBE258:
 4639              	.LBE257:
 4640              		.loc 1 2161 0
 4641 000c 0546     		mov	r5, r0
 4642              		.loc 1 2170 0
 4643 000e 3C46     		mov	r4, r7
 4644              		.loc 1 2166 0
 4645 0010 4FF0040A 		mov	r10, #4
 4646              	.LBB269:
 4647              	.LBB265:
 4648              		.loc 1 1768 0
 4649 0014 4FF6FF79 		movw	r9, #65535
 4650              	.LVL615:
 4651              	.L502:
 4652              	.LBE265:
 4653              	.LBE269:
 4654              		.loc 1 2173 0
 4655 0018 A96B     		ldr	r1, [r5, #56]
 4656 001a 21B9     		cbnz	r1, .L515
 4657              	.LVL616:
 4658              		.loc 1 2227 0
 4659 001c BAF1000F 		cmp	r10, #0
 4660 0020 00F08280 		beq	.L516
 4661 0024 75E0     		b	.L503
 4662              	.LVL617:
 4663              	.L515:
 4664              		.loc 1 2174 0
 4665 0026 3046     		mov	r0, r6
 4666 0028 FFF7FEFF 		bl	move_window
 4667              	.LVL618:
 4668              		.loc 1 2175 0
 4669 002c 8246     		mov	r10, r0
 4670 002e 0028     		cmp	r0, #0
 4671 0030 6FD1     		bne	.L503
 4672              		.loc 1 2176 0
 4673 0032 E86B     		ldr	r0, [r5, #60]
 4674              	.LVL619:
ARM GAS  /tmp/ccWR9Gnm.s 			page 83


 4675 0034 0378     		ldrb	r3, [r0]	@ zero_extendqisi2
 4676              	.LVL620:
 4677              		.loc 1 2177 0
 4678 0036 002B     		cmp	r3, #0
 4679 0038 7DD0     		beq	.L517
 4680              		.loc 1 2181 0
 4681 003a 3278     		ldrb	r2, [r6]	@ zero_extendqisi2
 4682 003c 042A     		cmp	r2, #4
 4683 003e 11D1     		bne	.L504
 4684              		.loc 1 2185 0
 4685 0040 852B     		cmp	r3, #133
 4686 0042 5FD1     		bne	.L505
 4687              		.loc 1 2186 0
 4688 0044 2B6B     		ldr	r3, [r5, #48]
 4689              	.LVL621:
 4690 0046 EB64     		str	r3, [r5, #76]
 4691              	.LVL622:
 4692              		.loc 1 2187 0
 4693 0048 2846     		mov	r0, r5
 4694 004a FFF7FEFF 		bl	load_xdir
 4695              	.LVL623:
 4696              		.loc 1 2188 0
 4697 004e 8246     		mov	r10, r0
 4698 0050 0028     		cmp	r0, #0
 4699 0052 5ED1     		bne	.L503
 4700              		.loc 1 2189 0
 4701 0054 3369     		ldr	r3, [r6, #16]
 4702 0056 1B79     		ldrb	r3, [r3, #4]	@ zero_extendqisi2
 4703 0058 03F03F03 		and	r3, r3, #63
 4704 005c AB71     		strb	r3, [r5, #6]
 4705              	.LVL624:
 4706              	.L534:
 4707              		.loc 1 2229 0
 4708 005e 5046     		mov	r0, r10
 4709 0060 BDE8F88F 		pop	{r3, r4, r5, r6, r7, r8, r9, r10, fp, pc}
 4710              	.LVL625:
 4711              	.L504:
 4712              		.loc 1 2197 0
 4713 0064 C27A     		ldrb	r2, [r0, #11]	@ zero_extendqisi2
 4714              		.loc 1 2199 0
 4715 0066 E52B     		cmp	r3, #229
 4716              		.loc 1 2197 0
 4717 0068 02F03F02 		and	r2, r2, #63
 4718              	.LVL626:
 4719 006c AA71     		strb	r2, [r5, #6]
 4720              		.loc 1 2199 0
 4721 006e 48D0     		beq	.L526
 4722 0070 2E2B     		cmp	r3, #46
 4723 0072 46D0     		beq	.L526
 4724 0074 22F02001 		bic	r1, r2, #32
 4725 0078 0829     		cmp	r1, #8
 4726 007a 42D0     		beq	.L526
 4727              		.loc 1 2202 0
 4728 007c 0F2A     		cmp	r2, #15
 4729 007e 4ED1     		bne	.L507
 4730              		.loc 1 2203 0
 4731 0080 5A06     		lsls	r2, r3, #25
ARM GAS  /tmp/ccWR9Gnm.s 			page 84


 4732              	.LVL627:
 4733 0082 3CD5     		bpl	.L508
 4734              		.loc 1 2205 0
 4735 0084 03F0BF04 		and	r4, r3, #191
 4736              	.LVL628:
 4737              		.loc 1 2206 0
 4738 0088 2B6B     		ldr	r3, [r5, #48]
 4739              	.LVL629:
 4740              		.loc 1 2204 0
 4741 008a 477B     		ldrb	r7, [r0, #13]	@ zero_extendqisi2
 4742              	.LVL630:
 4743              		.loc 1 2206 0
 4744 008c EB64     		str	r3, [r5, #76]
 4745              	.LVL631:
 4746              	.L509:
 4747              		.loc 1 2209 0
 4748 008e 437B     		ldrb	r3, [r0, #13]	@ zero_extendqisi2
 4749 0090 BB42     		cmp	r3, r7
 4750 0092 36D1     		bne	.L526
 4751              	.LVL632:
 4752              	.LBB270:
 4753              	.LBB266:
 4754              	.LBB259:
 4755              	.LBB260:
 4756              		.loc 1 553 0
 4757 0094 C27E     		ldrb	r2, [r0, #27]	@ zero_extendqisi2
 4758 0096 837E     		ldrb	r3, [r0, #26]	@ zero_extendqisi2
 4759 0098 43EA0223 		orr	r3, r3, r2, lsl #8
 4760              	.LBE260:
 4761              	.LBE259:
 4762              		.loc 1 1758 0
 4763 009c 1BB2     		sxth	r3, r3
 4764 009e 83BB     		cbnz	r3, .L526
 4765              		.loc 1 1760 0
 4766 00a0 0278     		ldrb	r2, [r0]	@ zero_extendqisi2
 4767              	.LBE266:
 4768              	.LBE270:
 4769              		.loc 1 2209 0
 4770 00a2 F168     		ldr	r1, [r6, #12]
 4771              	.LBB271:
 4772              	.LBB267:
 4773              		.loc 1 1760 0
 4774 00a4 22F04002 		bic	r2, r2, #64
 4775 00a8 013A     		subs	r2, r2, #1
 4776 00aa 4FF00D0E 		mov	lr, #13
 4777 00ae 0EFB02FE 		mul	lr, lr, r2
 4778              	.LVL633:
 4779              		.loc 1 1762 0
 4780 00b2 4FF0010C 		mov	ip, #1
 4781              	.LVL634:
 4782              	.L512:
 4783              		.loc 1 1763 0
 4784 00b6 13F808A0 		ldrb	r10, [r3, r8]	@ zero_extendqisi2
 4785 00ba 00EB0A02 		add	r2, r0, r10
 4786              	.LVL635:
 4787              	.LBB261:
 4788              	.LBB262:
ARM GAS  /tmp/ccWR9Gnm.s 			page 85


 4789              		.loc 1 553 0
 4790 00be 92F801B0 		ldrb	fp, [r2, #1]	@ zero_extendqisi2
 4791 00c2 10F80A20 		ldrb	r2, [r0, r10]	@ zero_extendqisi2
 4792              	.LVL636:
 4793 00c6 42EA0B22 		orr	r2, r2, fp, lsl #8
 4794              	.LVL637:
 4795              	.LBE262:
 4796              	.LBE261:
 4797              		.loc 1 1764 0
 4798 00ca BCF1000F 		cmp	ip, #0
 4799 00ce 23D0     		beq	.L510
 4800              		.loc 1 1765 0
 4801 00d0 BEF1FE0F 		cmp	lr, #254
 4802 00d4 15D8     		bhi	.L526
 4803              	.LVL638:
 4804              		.loc 1 1766 0
 4805 00d6 21F81E20 		strh	r2, [r1, lr, lsl #1]	@ movhi
 4806              	.LBB264:
 4807              	.LBB263:
 4808              		.loc 1 553 0
 4809 00da 9446     		mov	ip, r2
 4810              	.LBE263:
 4811              	.LBE264:
 4812              		.loc 1 1766 0
 4813 00dc 0EF1010E 		add	lr, lr, #1
 4814              	.LVL639:
 4815              	.L511:
 4816              		.loc 1 1762 0
 4817 00e0 0133     		adds	r3, r3, #1
 4818              	.LVL640:
 4819 00e2 0D2B     		cmp	r3, #13
 4820 00e4 E7D1     		bne	.L512
 4821              		.loc 1 1772 0
 4822 00e6 0378     		ldrb	r3, [r0]	@ zero_extendqisi2
 4823              	.LVL641:
 4824 00e8 5B06     		lsls	r3, r3, #25
 4825 00ea 05D5     		bpl	.L513
 4826              		.loc 1 1773 0
 4827 00ec BEF1FE0F 		cmp	lr, #254
 4828 00f0 07D8     		bhi	.L526
 4829              		.loc 1 1774 0
 4830 00f2 0023     		movs	r3, #0
 4831 00f4 21F81E30 		strh	r3, [r1, lr, lsl #1]	@ movhi
 4832              	.L513:
 4833              	.LVL642:
 4834              	.LBE267:
 4835              	.LBE271:
 4836              		.loc 1 2209 0
 4837 00f8 013C     		subs	r4, r4, #1
 4838              	.LVL643:
 4839 00fa E4B2     		uxtb	r4, r4
 4840 00fc 02E0     		b	.L505
 4841              	.LVL644:
 4842              	.L508:
 4843 00fe A342     		cmp	r3, r4
 4844 0100 C5D0     		beq	.L509
 4845              	.LVL645:
ARM GAS  /tmp/ccWR9Gnm.s 			page 86


 4846              	.L526:
 4847 0102 FF24     		movs	r4, #255
 4848              	.LVL646:
 4849              	.L505:
 4850              		.loc 1 2223 0
 4851 0104 0021     		movs	r1, #0
 4852 0106 2846     		mov	r0, r5
 4853 0108 FFF7FEFF 		bl	dir_next
 4854              	.LVL647:
 4855              		.loc 1 2224 0
 4856 010c 8246     		mov	r10, r0
 4857 010e 0028     		cmp	r0, #0
 4858 0110 82D0     		beq	.L502
 4859              	.LVL648:
 4860              	.L503:
 4861              		.loc 1 2227 0
 4862 0112 0023     		movs	r3, #0
 4863 0114 AB63     		str	r3, [r5, #56]
 4864 0116 A2E7     		b	.L534
 4865              	.LVL649:
 4866              	.L510:
 4867              	.LBB272:
 4868              	.LBB268:
 4869              		.loc 1 1768 0
 4870 0118 4A45     		cmp	r2, r9
 4871 011a E1D0     		beq	.L511
 4872 011c F1E7     		b	.L526
 4873              	.LVL650:
 4874              	.L507:
 4875              	.LBE268:
 4876              	.LBE272:
 4877              		.loc 1 2211 0
 4878 011e 34B9     		cbnz	r4, .L514
 4879 0120 FFF7FEFF 		bl	sum_sfn
 4880              	.LVL651:
 4881 0124 B842     		cmp	r0, r7
 4882 0126 02D1     		bne	.L514
 4883              	.L516:
 4884              		.loc 1 2178 0
 4885 0128 4FF0000A 		mov	r10, #0
 4886 012c 97E7     		b	.L534
 4887              	.L514:
 4888              		.loc 1 2212 0
 4889 012e 4FF0FF33 		mov	r3, #-1
 4890 0132 EB64     		str	r3, [r5, #76]
 4891 0134 93E7     		b	.L534
 4892              	.LVL652:
 4893              	.L517:
 4894              		.loc 1 2178 0
 4895 0136 4FF0040A 		mov	r10, #4
 4896 013a EAE7     		b	.L503
 4897              	.L536:
 4898              		.align	2
 4899              	.L535:
 4900 013c 00000000 		.word	.LANCHOR2
 4901              		.cfi_endproc
 4902              	.LFE373:
ARM GAS  /tmp/ccWR9Gnm.s 			page 87


 4903              		.size	dir_read.constprop.10, .-dir_read.constprop.10
 4904              		.section	.text.dir_find,"ax",%progbits
 4905              		.align	1
 4906              		.syntax unified
 4907              		.thumb
 4908              		.thumb_func
 4909              		.fpu fpv4-sp-d16
 4910              		.type	dir_find, %function
 4911              	dir_find:
 4912              	.LFB333:
 4913              		.loc 1 2243 0
 4914              		.cfi_startproc
 4915              		@ args = 0, pretend = 0, frame = 16
 4916              		@ frame_needed = 0, uses_anonymous_args = 0
 4917              	.LVL653:
 4918 0000 2DE9F04F 		push	{r4, r5, r6, r7, r8, r9, r10, fp, lr}
 4919              		.cfi_def_cfa_offset 36
 4920              		.cfi_offset 4, -36
 4921              		.cfi_offset 5, -32
 4922              		.cfi_offset 6, -28
 4923              		.cfi_offset 7, -24
 4924              		.cfi_offset 8, -20
 4925              		.cfi_offset 9, -16
 4926              		.cfi_offset 10, -12
 4927              		.cfi_offset 11, -8
 4928              		.cfi_offset 14, -4
 4929              		.loc 1 2251 0
 4930 0004 0021     		movs	r1, #0
 4931              		.loc 1 2243 0
 4932 0006 85B0     		sub	sp, sp, #20
 4933              		.cfi_def_cfa_offset 56
 4934              		.loc 1 2243 0
 4935 0008 0446     		mov	r4, r0
 4936              		.loc 1 2245 0
 4937 000a D0F80080 		ldr	r8, [r0]
 4938              	.LVL654:
 4939              		.loc 1 2251 0
 4940 000e FFF7FEFF 		bl	dir_sdi
 4941              	.LVL655:
 4942              		.loc 1 2252 0
 4943 0012 8246     		mov	r10, r0
 4944 0014 0028     		cmp	r0, #0
 4945 0016 40F0D280 		bne	.L572
 4946              		.loc 1 2254 0
 4947 001a 98F80030 		ldrb	r3, [r8]	@ zero_extendqisi2
 4948 001e 042B     		cmp	r3, #4
 4949 0020 39D1     		bne	.L539
 4950              	.LBB284:
 4951              		.loc 1 2257 0
 4952 0022 D8F80C00 		ldr	r0, [r8, #12]
 4953              	.LVL656:
 4954 0026 FFF7FEFF 		bl	xname_sum
 4955              	.LVL657:
 4956 002a 0746     		mov	r7, r0
 4957              	.LVL658:
 4958              	.L541:
 4959              		.loc 1 2259 0
ARM GAS  /tmp/ccWR9Gnm.s 			page 88


 4960 002c 2046     		mov	r0, r4
 4961 002e FFF7FEFF 		bl	dir_read.constprop.10
 4962              	.LVL659:
 4963 0032 08B1     		cbz	r0, .L547
 4964              	.LVL660:
 4965              	.L563:
 4966              	.LBE284:
 4967              		.loc 1 2278 0
 4968 0034 8246     		mov	r10, r0
 4969 0036 C2E0     		b	.L572
 4970              	.LVL661:
 4971              	.L547:
 4972              	.LBB289:
 4973              		.loc 1 2263 0
 4974 0038 D8F81030 		ldr	r3, [r8, #16]
 4975              	.LBB285:
 4976              	.LBB286:
 4977              		.loc 1 553 0
 4978 003c 93F82510 		ldrb	r1, [r3, #37]	@ zero_extendqisi2
 4979 0040 93F82420 		ldrb	r2, [r3, #36]	@ zero_extendqisi2
 4980              	.LBE286:
 4981              	.LBE285:
 4982              		.loc 1 2263 0
 4983 0044 42EA0122 		orr	r2, r2, r1, lsl #8
 4984 0048 9742     		cmp	r7, r2
 4985 004a EFD1     		bne	.L541
 4986              	.LVL662:
 4987 004c 93F82390 		ldrb	r9, [r3, #35]	@ zero_extendqisi2
 4988              		.loc 1 2264 0
 4989 0050 0546     		mov	r5, r0
 4990 0052 4026     		movs	r6, #64
 4991              	.LVL663:
 4992              	.L542:
 4993              		.loc 1 2264 0 is_stmt 0 discriminator 1
 4994 0054 4D45     		cmp	r5, r9
 4995 0056 06D1     		bne	.L545
 4996              		.loc 1 2268 0 is_stmt 1
 4997 0058 D8F80C30 		ldr	r3, [r8, #12]
 4998 005c 33F81530 		ldrh	r3, [r3, r5, lsl #1]
 4999 0060 002B     		cmp	r3, #0
 5000 0062 E3D1     		bne	.L541
 5001 0064 ABE0     		b	.L572
 5002              	.L545:
 5003              		.loc 1 2265 0
 5004 0066 F106     		lsls	r1, r6, #27
 5005              		.loc 1 2266 0
 5006 0068 D8F81030 		ldr	r3, [r8, #16]
 5007              		.loc 1 2265 0
 5008 006c 08BF     		it	eq
 5009 006e 0236     		addeq	r6, r6, #2
 5010              	.LVL664:
 5011              		.loc 1 2266 0
 5012 0070 9A19     		adds	r2, r3, r6
 5013              	.LBB287:
 5014              	.LBB288:
 5015              		.loc 1 553 0
 5016 0072 9B5D     		ldrb	r3, [r3, r6]	@ zero_extendqisi2
ARM GAS  /tmp/ccWR9Gnm.s 			page 89


 5017 0074 5078     		ldrb	r0, [r2, #1]	@ zero_extendqisi2
 5018              	.LBE288:
 5019              	.LBE287:
 5020              		.loc 1 2266 0
 5021 0076 43EA0020 		orr	r0, r3, r0, lsl #8
 5022 007a FFF7FEFF 		bl	ff_wtoupper
 5023              	.LVL665:
 5024 007e D8F80C30 		ldr	r3, [r8, #12]
 5025 0082 8346     		mov	fp, r0
 5026 0084 33F81500 		ldrh	r0, [r3, r5, lsl #1]
 5027 0088 FFF7FEFF 		bl	ff_wtoupper
 5028              	.LVL666:
 5029 008c 8345     		cmp	fp, r0
 5030 008e CDD1     		bne	.L541
 5031              	.LVL667:
 5032              		.loc 1 2264 0 discriminator 2
 5033 0090 0236     		adds	r6, r6, #2
 5034              	.LVL668:
 5035 0092 0135     		adds	r5, r5, #1
 5036              	.LVL669:
 5037 0094 DEE7     		b	.L542
 5038              	.LVL670:
 5039              	.L539:
 5040              	.LBE289:
 5041              		.loc 1 2275 0
 5042 0096 4FF0FF33 		mov	r3, #-1
 5043 009a 4FF0FF0B 		mov	fp, #255
 5044 009e E364     		str	r3, [r4, #76]
 5045 00a0 5E46     		mov	r6, fp
 5046              	.LVL671:
 5047              	.L562:
 5048              		.loc 1 2278 0
 5049 00a2 A16B     		ldr	r1, [r4, #56]
 5050 00a4 4046     		mov	r0, r8
 5051              	.LVL672:
 5052 00a6 FFF7FEFF 		bl	move_window
 5053              	.LVL673:
 5054              		.loc 1 2279 0
 5055 00aa 0028     		cmp	r0, #0
 5056 00ac C2D1     		bne	.L563
 5057              		.loc 1 2280 0
 5058 00ae E56B     		ldr	r5, [r4, #60]
 5059 00b0 2F78     		ldrb	r7, [r5]	@ zero_extendqisi2
 5060              	.LVL674:
 5061              		.loc 1 2281 0
 5062 00b2 002F     		cmp	r7, #0
 5063 00b4 00F08980 		beq	.L564
 5064              		.loc 1 2283 0
 5065 00b8 EA7A     		ldrb	r2, [r5, #11]	@ zero_extendqisi2
 5066              		.loc 1 2284 0
 5067 00ba E52F     		cmp	r7, #229
 5068              		.loc 1 2283 0
 5069 00bc 02F03F03 		and	r3, r2, #63
 5070              	.LVL675:
 5071 00c0 A371     		strb	r3, [r4, #6]
 5072              		.loc 1 2284 0
 5073 00c2 03D0     		beq	.L560
ARM GAS  /tmp/ccWR9Gnm.s 			page 90


 5074              		.loc 1 2284 0 is_stmt 0 discriminator 1
 5075 00c4 1207     		lsls	r2, r2, #28
 5076 00c6 05D5     		bpl	.L549
 5077              		.loc 1 2284 0 discriminator 2
 5078 00c8 0F2B     		cmp	r3, #15
 5079 00ca 05D0     		beq	.L550
 5080              	.LVL676:
 5081              	.L560:
 5082              		.loc 1 2300 0 is_stmt 1
 5083 00cc 4FF0FF33 		mov	r3, #-1
 5084 00d0 E364     		str	r3, [r4, #76]
 5085 00d2 5AE0     		b	.L571
 5086              	.LVL677:
 5087              	.L549:
 5088              		.loc 1 2287 0
 5089 00d4 0F2B     		cmp	r3, #15
 5090 00d6 60D1     		bne	.L552
 5091              	.L550:
 5092              		.loc 1 2288 0
 5093 00d8 94F84B30 		ldrb	r3, [r4, #75]	@ zero_extendqisi2
 5094              	.LVL678:
 5095 00dc 5806     		lsls	r0, r3, #25
 5096              	.LVL679:
 5097 00de 55D4     		bmi	.L551
 5098              		.loc 1 2289 0
 5099 00e0 7906     		lsls	r1, r7, #25
 5100 00e2 4AD5     		bpl	.L553
 5101              		.loc 1 2292 0
 5102 00e4 226B     		ldr	r2, [r4, #48]
 5103              		.loc 1 2290 0
 5104 00e6 6B7B     		ldrb	r3, [r5, #13]	@ zero_extendqisi2
 5105              	.LVL680:
 5106              		.loc 1 2292 0
 5107 00e8 E264     		str	r2, [r4, #76]
 5108              		.loc 1 2291 0
 5109 00ea 07F0BF07 		and	r7, r7, #191
 5110              	.LVL681:
 5111              	.L554:
 5112              		.loc 1 2295 0 discriminator 1
 5113 00ee 95F80DB0 		ldrb	fp, [r5, #13]	@ zero_extendqisi2
 5114 00f2 9B45     		cmp	fp, r3
 5115 00f4 67D1     		bne	.L566
 5116              	.LVL682:
 5117              	.LBB290:
 5118              	.LBB291:
 5119              	.LBB292:
 5120              	.LBB293:
 5121              		.loc 1 553 0 discriminator 3
 5122 00f6 EB7E     		ldrb	r3, [r5, #27]	@ zero_extendqisi2
 5123              	.LVL683:
 5124 00f8 AE7E     		ldrb	r6, [r5, #26]	@ zero_extendqisi2
 5125 00fa 46EA0326 		orr	r6, r6, r3, lsl #8
 5126              	.LBE293:
 5127              	.LBE292:
 5128              		.loc 1 1722 0 discriminator 3
 5129 00fe 36B2     		sxth	r6, r6
 5130 0100 002E     		cmp	r6, #0
ARM GAS  /tmp/ccWR9Gnm.s 			page 91


 5131 0102 42D1     		bne	.L571
 5132              		.loc 1 1724 0
 5133 0104 95F80090 		ldrb	r9, [r5]	@ zero_extendqisi2
 5134              	.LBE291:
 5135              	.LBE290:
 5136              		.loc 1 2295 0
 5137 0108 D8F80C30 		ldr	r3, [r8, #12]
 5138 010c 0093     		str	r3, [sp]
 5139              	.LBB302:
 5140              	.LBB300:
 5141              		.loc 1 1724 0
 5142 010e 09F03F09 		and	r9, r9, #63
 5143 0112 09F1FF33 		add	r3, r9, #-1
 5144 0116 4FF00D09 		mov	r9, #13
 5145 011a 09FB03F9 		mul	r9, r9, r3
 5146              	.LVL684:
 5147              		.loc 1 1726 0
 5148 011e 0121     		movs	r1, #1
 5149              	.LVL685:
 5150              	.L557:
 5151              		.loc 1 1727 0
 5152 0120 2B4B     		ldr	r3, .L596
 5153 0122 F25C     		ldrb	r2, [r6, r3]	@ zero_extendqisi2
 5154 0124 AB18     		adds	r3, r5, r2
 5155              	.LVL686:
 5156              	.LBB294:
 5157              	.LBB295:
 5158              		.loc 1 553 0
 5159 0126 AA5C     		ldrb	r2, [r5, r2]	@ zero_extendqisi2
 5160 0128 5B78     		ldrb	r3, [r3, #1]	@ zero_extendqisi2
 5161              	.LVL687:
 5162 012a 42EA0323 		orr	r3, r2, r3, lsl #8
 5163              	.LVL688:
 5164              	.LBE295:
 5165              	.LBE294:
 5166              		.loc 1 1728 0
 5167 012e 41B3     		cbz	r1, .L555
 5168              		.loc 1 1729 0
 5169 0130 B9F1FE0F 		cmp	r9, #254
 5170 0134 29D8     		bhi	.L571
 5171 0136 1846     		mov	r0, r3
 5172 0138 0393     		str	r3, [sp, #12]
 5173 013a FFF7FEFF 		bl	ff_wtoupper
 5174              	.LVL689:
 5175 013e 009B     		ldr	r3, [sp]
 5176 0140 0290     		str	r0, [sp, #8]
 5177 0142 09F10102 		add	r2, r9, #1
 5178 0146 33F81900 		ldrh	r0, [r3, r9, lsl #1]
 5179 014a 0192     		str	r2, [sp, #4]
 5180              	.LVL690:
 5181 014c FFF7FEFF 		bl	ff_wtoupper
 5182              	.LVL691:
 5183 0150 0299     		ldr	r1, [sp, #8]
 5184 0152 8142     		cmp	r1, r0
 5185 0154 19D1     		bne	.L571
 5186              	.LVL692:
 5187              	.LBB298:
ARM GAS  /tmp/ccWR9Gnm.s 			page 92


 5188              	.LBB296:
 5189              		.loc 1 553 0
 5190 0156 039B     		ldr	r3, [sp, #12]
 5191              	.LBE296:
 5192              	.LBE298:
 5193              		.loc 1 1729 0
 5194 0158 019A     		ldr	r2, [sp, #4]
 5195              	.LBB299:
 5196              	.LBB297:
 5197              		.loc 1 553 0
 5198 015a 1946     		mov	r1, r3
 5199              	.LBE297:
 5200              	.LBE299:
 5201              		.loc 1 1729 0
 5202 015c 9146     		mov	r9, r2
 5203              	.LVL693:
 5204              	.L556:
 5205              		.loc 1 1726 0
 5206 015e 0136     		adds	r6, r6, #1
 5207              	.LVL694:
 5208 0160 0D2E     		cmp	r6, #13
 5209 0162 DDD1     		bne	.L557
 5210              		.loc 1 1738 0
 5211 0164 2B78     		ldrb	r3, [r5]	@ zero_extendqisi2
 5212 0166 5A06     		lsls	r2, r3, #25
 5213 0168 04D5     		bpl	.L558
 5214 016a 19B1     		cbz	r1, .L558
 5215 016c 009B     		ldr	r3, [sp]
 5216 016e 33F81930 		ldrh	r3, [r3, r9, lsl #1]
 5217 0172 53B9     		cbnz	r3, .L571
 5218              	.L558:
 5219              	.LVL695:
 5220              	.LBE300:
 5221              	.LBE302:
 5222              		.loc 1 2295 0
 5223 0174 013F     		subs	r7, r7, #1
 5224              	.LVL696:
 5225 0176 FEB2     		uxtb	r6, r7
 5226 0178 08E0     		b	.L551
 5227              	.LVL697:
 5228              	.L553:
 5229 017a BE42     		cmp	r6, r7
 5230 017c 05D1     		bne	.L571
 5231 017e 5B46     		mov	r3, fp
 5232 0180 B5E7     		b	.L554
 5233              	.LVL698:
 5234              	.L555:
 5235              	.LBB303:
 5236              	.LBB301:
 5237              		.loc 1 1734 0
 5238 0182 4FF6FF72 		movw	r2, #65535
 5239 0186 9342     		cmp	r3, r2
 5240 0188 E9D0     		beq	.L556
 5241              	.LVL699:
 5242              	.L571:
 5243              	.LBE301:
 5244              	.LBE303:
ARM GAS  /tmp/ccWR9Gnm.s 			page 93


 5245              		.loc 1 2295 0
 5246 018a FF26     		movs	r6, #255
 5247              	.L551:
 5248              	.LVL700:
 5249              		.loc 1 2307 0
 5250 018c 0021     		movs	r1, #0
 5251 018e 2046     		mov	r0, r4
 5252 0190 FFF7FEFF 		bl	dir_next
 5253              	.LVL701:
 5254              		.loc 1 2308 0
 5255 0194 0028     		cmp	r0, #0
 5256 0196 84D0     		beq	.L562
 5257 0198 4CE7     		b	.L563
 5258              	.LVL702:
 5259              	.L552:
 5260              		.loc 1 2298 0
 5261 019a 26B9     		cbnz	r6, .L559
 5262              		.loc 1 2298 0 is_stmt 0 discriminator 1
 5263 019c 2846     		mov	r0, r5
 5264              	.LVL703:
 5265 019e FFF7FEFF 		bl	sum_sfn
 5266              	.LVL704:
 5267 01a2 8345     		cmp	fp, r0
 5268 01a4 0BD0     		beq	.L572
 5269              	.L559:
 5270              		.loc 1 2299 0 is_stmt 1
 5271 01a6 94F84B30 		ldrb	r3, [r4, #75]	@ zero_extendqisi2
 5272 01aa DB07     		lsls	r3, r3, #31
 5273 01ac 8ED4     		bmi	.L560
 5274              		.loc 1 2299 0 is_stmt 0 discriminator 1
 5275 01ae 0B22     		movs	r2, #11
 5276 01b0 04F14001 		add	r1, r4, #64
 5277 01b4 2846     		mov	r0, r5
 5278 01b6 FFF7FEFF 		bl	mem_cmp
 5279              	.LVL705:
 5280 01ba 0028     		cmp	r0, #0
 5281 01bc 86D1     		bne	.L560
 5282              	.LVL706:
 5283              	.L572:
 5284              		.loc 1 2311 0 is_stmt 1
 5285 01be 5046     		mov	r0, r10
 5286 01c0 05B0     		add	sp, sp, #20
 5287              		.cfi_remember_state
 5288              		.cfi_def_cfa_offset 36
 5289              		@ sp needed
 5290 01c2 BDE8F08F 		pop	{r4, r5, r6, r7, r8, r9, r10, fp, pc}
 5291              	.LVL707:
 5292              	.L566:
 5293              		.cfi_restore_state
 5294 01c6 9B46     		mov	fp, r3
 5295 01c8 DFE7     		b	.L571
 5296              	.LVL708:
 5297              	.L564:
 5298              		.loc 1 2281 0
 5299 01ca 4FF0040A 		mov	r10, #4
 5300 01ce F6E7     		b	.L572
 5301              	.L597:
ARM GAS  /tmp/ccWR9Gnm.s 			page 94


 5302              		.align	2
 5303              	.L596:
 5304 01d0 00000000 		.word	.LANCHOR2
 5305              		.cfi_endproc
 5306              	.LFE333:
 5307              		.size	dir_find, .-dir_find
 5308              		.section	.text.dir_register,"ax",%progbits
 5309              		.align	1
 5310              		.syntax unified
 5311              		.thumb
 5312              		.thumb_func
 5313              		.fpu fpv4-sp-d16
 5314              		.type	dir_register, %function
 5315              	dir_register:
 5316              	.LFB334:
 5317              		.loc 1 2325 0
 5318              		.cfi_startproc
 5319              		@ args = 0, pretend = 0, frame = 96
 5320              		@ frame_needed = 0, uses_anonymous_args = 0
 5321              	.LVL709:
 5322 0000 2DE9F04F 		push	{r4, r5, r6, r7, r8, r9, r10, fp, lr}
 5323              		.cfi_def_cfa_offset 36
 5324              		.cfi_offset 4, -36
 5325              		.cfi_offset 5, -32
 5326              		.cfi_offset 6, -28
 5327              		.cfi_offset 7, -24
 5328              		.cfi_offset 8, -20
 5329              		.cfi_offset 9, -16
 5330              		.cfi_offset 10, -12
 5331              		.cfi_offset 11, -8
 5332              		.cfi_offset 14, -4
 5333              		.loc 1 2333 0
 5334 0004 90F84B40 		ldrb	r4, [r0, #75]	@ zero_extendqisi2
 5335 0008 14F0A004 		ands	r4, r4, #160
 5336              		.loc 1 2325 0
 5337 000c 99B0     		sub	sp, sp, #100
 5338              		.cfi_def_cfa_offset 136
 5339              		.loc 1 2325 0
 5340 000e 0546     		mov	r5, r0
 5341              		.loc 1 2333 0
 5342 0010 40F00181 		bne	.L635
 5343              		.loc 1 2327 0 discriminator 1
 5344 0014 0668     		ldr	r6, [r0]
 5345              		.loc 1 2334 0 discriminator 1
 5346 0016 F268     		ldr	r2, [r6, #12]
 5347              	.L600:
 5348              	.LVL710:
 5349 0018 32F81430 		ldrh	r3, [r2, r4, lsl #1]
 5350 001c 002B     		cmp	r3, #0
 5351 001e 4CD1     		bne	.L601
 5352              		.loc 1 2337 0
 5353 0020 3378     		ldrb	r3, [r6]	@ zero_extendqisi2
 5354 0022 042B     		cmp	r3, #4
 5355 0024 40F08980 		bne	.L602
 5356              		.loc 1 2338 0
 5357 0028 0F23     		movs	r3, #15
 5358 002a 0E34     		adds	r4, r4, #14
ARM GAS  /tmp/ccWR9Gnm.s 			page 95


 5359              	.LVL711:
 5360              		.loc 1 2339 0
 5361 002c 2846     		mov	r0, r5
 5362              	.LVL712:
 5363              		.loc 1 2338 0
 5364 002e B4FBF3F4 		udiv	r4, r4, r3
 5365              	.LVL713:
 5366              		.loc 1 2339 0
 5367 0032 A11C     		adds	r1, r4, #2
 5368              	.LVL714:
 5369 0034 FFF7FEFF 		bl	dir_alloc
 5370              	.LVL715:
 5371              		.loc 1 2340 0
 5372 0038 8246     		mov	r10, r0
 5373 003a 0028     		cmp	r0, #0
 5374 003c 79D1     		bne	.L642
 5375              		.loc 1 2341 0
 5376 003e 2B6B     		ldr	r3, [r5, #48]
 5377 0040 04F10064 		add	r4, r4, #134217728
 5378              	.LVL716:
 5379 0044 0134     		adds	r4, r4, #1
 5380              	.LVL717:
 5381 0046 A3EB4414 		sub	r4, r3, r4, lsl #5
 5382              	.LVL718:
 5383              		.loc 1 2343 0
 5384 004a EB79     		ldrb	r3, [r5, #7]	@ zero_extendqisi2
 5385              		.loc 1 2341 0
 5386 004c EC64     		str	r4, [r5, #76]
 5387              		.loc 1 2343 0
 5388 004e 5A07     		lsls	r2, r3, #29
 5389 0050 35D5     		bpl	.L605
 5390              		.loc 1 2344 0
 5391 0052 23F00403 		bic	r3, r3, #4
 5392 0056 EB71     		strb	r3, [r5, #7]
 5393              		.loc 1 2345 0
 5394 0058 2846     		mov	r0, r5
 5395              	.LVL719:
 5396 005a FFF7FEFF 		bl	fill_first_frag
 5397              	.LVL720:
 5398              		.loc 1 2346 0
 5399 005e 50BB     		cbnz	r0, .L637
 5400              		.loc 1 2347 0
 5401 0060 4FF0FF32 		mov	r2, #-1
 5402 0064 696B     		ldr	r1, [r5, #52]
 5403 0066 2846     		mov	r0, r5
 5404              	.LVL721:
 5405 0068 FFF7FEFF 		bl	fill_last_frag
 5406              	.LVL722:
 5407              		.loc 1 2348 0
 5408 006c 18BB     		cbnz	r0, .L637
 5409              		.loc 1 2349 0
 5410 006e AB68     		ldr	r3, [r5, #8]
 5411 0070 2BB3     		cbz	r3, .L605
 5412              	.LBB325:
 5413              		.loc 1 2352 0
 5414 0072 2946     		mov	r1, r5
 5415 0074 04A8     		add	r0, sp, #16
ARM GAS  /tmp/ccWR9Gnm.s 			page 96


 5416              	.LVL723:
 5417 0076 FFF7FEFF 		bl	load_obj_xdir
 5418              	.LVL724:
 5419              		.loc 1 2353 0
 5420 007a E0B9     		cbnz	r0, .L637
 5421              		.loc 1 2354 0
 5422 007c D5E90423 		ldrd	r2, [r5, #16]
 5423 0080 7089     		ldrh	r0, [r6, #10]
 5424              	.LVL725:
 5425 0082 4FF40071 		mov	r1, #512
 5426 0086 E1FB0023 		umlal	r2, r3, r1, r0
 5427              		.loc 1 2355 0
 5428 008a 3069     		ldr	r0, [r6, #16]
 5429              		.loc 1 2354 0
 5430 008c C5E90423 		strd	r2, [r5, #16]
 5431              		.loc 1 2355 0
 5432 0090 3830     		adds	r0, r0, #56
 5433 0092 FFF7FEFF 		bl	st_qword
 5434              	.LVL726:
 5435              		.loc 1 2356 0
 5436 0096 3069     		ldr	r0, [r6, #16]
 5437 0098 D5E90423 		ldrd	r2, [r5, #16]
 5438 009c 2830     		adds	r0, r0, #40
 5439 009e FFF7FEFF 		bl	st_qword
 5440              	.LVL727:
 5441              		.loc 1 2357 0
 5442 00a2 EB79     		ldrb	r3, [r5, #7]	@ zero_extendqisi2
 5443 00a4 3269     		ldr	r2, [r6, #16]
 5444 00a6 43F00103 		orr	r3, r3, #1
 5445 00aa 82F82130 		strb	r3, [r2, #33]
 5446              		.loc 1 2358 0
 5447 00ae 04A8     		add	r0, sp, #16
 5448 00b0 FFF7FEFF 		bl	store_xdir
 5449              	.LVL728:
 5450              		.loc 1 2359 0
 5451 00b4 18B1     		cbz	r0, .L605
 5452              	.L637:
 5453              	.LBE325:
 5454 00b6 8246     		mov	r10, r0
 5455 00b8 3BE0     		b	.L642
 5456              	.LVL729:
 5457              	.L601:
 5458              		.loc 1 2334 0 discriminator 3
 5459 00ba 0134     		adds	r4, r4, #1
 5460              	.LVL730:
 5461 00bc ACE7     		b	.L600
 5462              	.LVL731:
 5463              	.L605:
 5464              		.loc 1 2363 0
 5465 00be 3469     		ldr	r4, [r6, #16]
 5466 00c0 F568     		ldr	r5, [r6, #12]
 5467              	.LVL732:
 5468              	.LBB326:
 5469              	.LBB327:
 5470              		.loc 1 2129 0
 5471 00c2 4022     		movs	r2, #64
 5472 00c4 0021     		movs	r1, #0
ARM GAS  /tmp/ccWR9Gnm.s 			page 97


 5473 00c6 2046     		mov	r0, r4
 5474              	.LVL733:
 5475 00c8 FFF7FEFF 		bl	mem_set
 5476              	.LVL734:
 5477              		.loc 1 2130 0
 5478 00cc 8523     		movs	r3, #133
 5479              		.loc 1 2131 0
 5480 00ce 0021     		movs	r1, #0
 5481              		.loc 1 2130 0
 5482 00d0 2370     		strb	r3, [r4]
 5483              		.loc 1 2131 0
 5484 00d2 C023     		movs	r3, #192
 5485 00d4 84F82030 		strb	r3, [r4, #32]
 5486              	.LVL735:
 5487              		.loc 1 2134 0
 5488 00d8 0120     		movs	r0, #1
 5489 00da 0A46     		mov	r2, r1
 5490 00dc 4023     		movs	r3, #64
 5491              		.loc 1 2136 0
 5492 00de 4FF0C10E 		mov	lr, #193
 5493 00e2 8C46     		mov	ip, r1
 5494              	.LVL736:
 5495              	.L608:
 5496 00e4 5F1C     		adds	r7, r3, #1
 5497 00e6 04F803E0 		strb	lr, [r4, r3]
 5498 00ea 04F807C0 		strb	ip, [r4, r7]
 5499 00ee CEB2     		uxtb	r6, r1
 5500              	.LVL737:
 5501 00f0 0233     		adds	r3, r3, #2
 5502              	.LVL738:
 5503              	.L607:
 5504              		.loc 1 2138 0
 5505 00f2 20B1     		cbz	r0, .L606
 5506 00f4 35F81200 		ldrh	r0, [r5, r2, lsl #1]
 5507              	.LVL739:
 5508 00f8 08B1     		cbz	r0, .L606
 5509 00fa 0132     		adds	r2, r2, #1
 5510              	.LVL740:
 5511 00fc D2B2     		uxtb	r2, r2
 5512              	.LVL741:
 5513              	.L606:
 5514              	.LBB328:
 5515              	.LBB329:
 5516              		.loc 1 592 0
 5517 00fe E718     		adds	r7, r4, r3
 5518              	.LVL742:
 5519              		.loc 1 591 0
 5520 0100 E054     		strb	r0, [r4, r3]
 5521              	.LVL743:
 5522 0102 4FEA1028 		lsr	r8, r0, #8
 5523              	.LBE329:
 5524              	.LBE328:
 5525              		.loc 1 2140 0
 5526 0106 0233     		adds	r3, r3, #2
 5527              	.LVL744:
 5528              	.LBB331:
 5529              	.LBB330:
ARM GAS  /tmp/ccWR9Gnm.s 			page 98


 5530              		.loc 1 592 0
 5531 0108 87F80180 		strb	r8, [r7, #1]
 5532              	.LVL745:
 5533              	.LBE330:
 5534              	.LBE331:
 5535              		.loc 1 2141 0
 5536 010c DF06     		lsls	r7, r3, #27
 5537 010e F0D1     		bne	.L607
 5538              	.LVL746:
 5539              		.loc 1 2143 0
 5540 0110 35F81270 		ldrh	r7, [r5, r2, lsl #1]
 5541 0114 0131     		adds	r1, r1, #1
 5542              	.LVL747:
 5543 0116 002F     		cmp	r7, #0
 5544 0118 E4D1     		bne	.L608
 5545              		.loc 1 2146 0
 5546 011a B31C     		adds	r3, r6, #2
 5547              	.LVL748:
 5548              		.loc 1 2145 0
 5549 011c 84F82320 		strb	r2, [r4, #35]
 5550              		.loc 1 2146 0
 5551 0120 6370     		strb	r3, [r4, #1]
 5552              		.loc 1 2147 0
 5553 0122 2846     		mov	r0, r5
 5554              	.LVL749:
 5555 0124 FFF7FEFF 		bl	xname_sum
 5556              	.LVL750:
 5557              	.LBB332:
 5558              	.LBB333:
 5559              		.loc 1 591 0
 5560 0128 84F82400 		strb	r0, [r4, #36]
 5561              	.LVL751:
 5562 012c 000A     		lsrs	r0, r0, #8
 5563              	.LVL752:
 5564              		.loc 1 592 0
 5565 012e 84F82500 		strb	r0, [r4, #37]
 5566              	.LVL753:
 5567              	.L642:
 5568              	.LBE333:
 5569              	.LBE332:
 5570              	.LBE327:
 5571              	.LBE326:
 5572              		.loc 1 2417 0
 5573 0132 5046     		mov	r0, r10
 5574 0134 19B0     		add	sp, sp, #100
 5575              		.cfi_remember_state
 5576              		.cfi_def_cfa_offset 36
 5577              		@ sp needed
 5578 0136 BDE8F08F 		pop	{r4, r5, r6, r7, r8, r9, r10, fp, pc}
 5579              	.LVL754:
 5580              	.L602:
 5581              		.cfi_restore_state
 5582              		.loc 1 2368 0
 5583 013a 05F14007 		add	r7, r5, #64
 5584              	.LVL755:
 5585              	.LBB334:
 5586              	.LBB335:
ARM GAS  /tmp/ccWR9Gnm.s 			page 99


 5587 013e 0C22     		movs	r2, #12
 5588 0140 3946     		mov	r1, r7
 5589 0142 04A8     		add	r0, sp, #16
 5590              	.LVL756:
 5591 0144 FFF7FEFF 		bl	mem_cpy.part.0
 5592              	.LVL757:
 5593              	.LBE335:
 5594              	.LBE334:
 5595              		.loc 1 2369 0
 5596 0148 9DF81B30 		ldrb	r3, [sp, #27]	@ zero_extendqisi2
 5597 014c DB07     		lsls	r3, r3, #31
 5598 014e 6BD5     		bpl	.L609
 5599              		.loc 1 2370 0
 5600 0150 4023     		movs	r3, #64
 5601              	.LBB336:
 5602              	.LBB337:
 5603              		.loc 1 1847 0
 5604 0152 DFF8EC81 		ldr	r8, .L674+4
 5605              	.LBE337:
 5606              	.LBE336:
 5607              		.loc 1 2370 0
 5608 0156 85F84B30 		strb	r3, [r5, #75]
 5609              	.LVL758:
 5610              		.loc 1 2371 0
 5611 015a 4FF00109 		mov	r9, #1
 5612              	.LVL759:
 5613              	.L624:
 5614              	.LBB345:
 5615              	.LBB342:
 5616              	.LBB338:
 5617              	.LBB339:
 5618 015e 0B22     		movs	r2, #11
 5619 0160 04A9     		add	r1, sp, #16
 5620 0162 3846     		mov	r0, r7
 5621              	.LBE339:
 5622              	.LBE338:
 5623              	.LBE342:
 5624              	.LBE345:
 5625              		.loc 1 2372 0
 5626 0164 D6F80CA0 		ldr	r10, [r6, #12]
 5627              	.LVL760:
 5628              	.LBB346:
 5629              	.LBB343:
 5630              	.LBB341:
 5631              	.LBB340:
 5632 0168 FFF7FEFF 		bl	mem_cpy.part.0
 5633              	.LVL761:
 5634              	.LBE340:
 5635              	.LBE341:
 5636              		.loc 1 1840 0
 5637 016c B9F1050F 		cmp	r9, #5
 5638 0170 49D8     		bhi	.L610
 5639 0172 4B46     		mov	r3, r9
 5640              	.LVL762:
 5641              	.L611:
 5642              		.loc 1 1842 0
 5643 0174 0722     		movs	r2, #7
ARM GAS  /tmp/ccWR9Gnm.s 			page 100


 5644              	.LVL763:
 5645              	.L617:
 5646              		.loc 1 1856 0
 5647 0176 03F00F00 		and	r0, r3, #15
 5648 017a 00F13001 		add	r1, r0, #48
 5649              	.LVL764:
 5650              		.loc 1 1857 0
 5651 017e 3929     		cmp	r1, #57
 5652 0180 88BF     		it	hi
 5653 0182 00F13701 		addhi	r1, r0, #55
 5654              	.LVL765:
 5655              		.loc 1 1858 0
 5656 0186 013A     		subs	r2, r2, #1
 5657              	.LVL766:
 5658 0188 02A8     		add	r0, sp, #8
 5659 018a 1044     		add	r0, r0, r2
 5660              		.loc 1 1860 0
 5661 018c 1B09     		lsrs	r3, r3, #4
 5662              	.LVL767:
 5663              		.loc 1 1858 0
 5664 018e 4170     		strb	r1, [r0, #1]
 5665              		.loc 1 1860 0
 5666 0190 F1D1     		bne	.L617
 5667              		.loc 1 1861 0
 5668 0192 18A9     		add	r1, sp, #96
 5669              	.LVL768:
 5670 0194 1144     		add	r1, r1, r2
 5671 0196 7E20     		movs	r0, #126
 5672              	.LVL769:
 5673 0198 01F8580C 		strb	r0, [r1, #-88]
 5674              	.LVL770:
 5675              	.L618:
 5676              		.loc 1 1864 0
 5677 019c 9A42     		cmp	r2, r3
 5678 019e 38D0     		beq	.L638
 5679 01a0 F95C     		ldrb	r1, [r7, r3]	@ zero_extendqisi2
 5680 01a2 2029     		cmp	r1, #32
 5681 01a4 33D1     		bne	.L620
 5682              	.LVL771:
 5683              	.L619:
 5684 01a6 3B44     		add	r3, r3, r7
 5685              	.LVL772:
 5686              	.L622:
 5687              		.loc 1 1871 0
 5688 01a8 072A     		cmp	r2, #7
 5689 01aa 9BBF     		ittet	ls
 5690 01ac 18A9     		addls	r1, sp, #96
 5691 01ae 8918     		addls	r1, r1, r2
 5692 01b0 2021     		movhi	r1, #32
 5693 01b2 11F8581C 		ldrbls	r1, [r1, #-88]	@ zero_extendqisi2
 5694 01b6 03F8011B 		strb	r1, [r3], #1
 5695              		.loc 1 1872 0
 5696 01ba A3EB0701 		sub	r1, r3, r7
 5697              		.loc 1 1871 0
 5698 01be 98BF     		it	ls
 5699 01c0 0132     		addls	r2, r2, #1
 5700              	.LVL773:
ARM GAS  /tmp/ccWR9Gnm.s 			page 101


 5701              		.loc 1 1872 0
 5702 01c2 0729     		cmp	r1, #7
 5703 01c4 F0D9     		bls	.L622
 5704              	.LVL774:
 5705              	.LBE343:
 5706              	.LBE346:
 5707              		.loc 1 2373 0
 5708 01c6 2846     		mov	r0, r5
 5709 01c8 FFF7FEFF 		bl	dir_find
 5710              	.LVL775:
 5711              		.loc 1 2374 0
 5712 01cc 8246     		mov	r10, r0
 5713 01ce 28BB     		cbnz	r0, .L623
 5714              		.loc 1 2371 0 discriminator 2
 5715 01d0 09F10109 		add	r9, r9, #1
 5716              	.LVL776:
 5717 01d4 B9F1640F 		cmp	r9, #100
 5718 01d8 C1D1     		bne	.L624
 5719              		.loc 1 2376 0
 5720 01da 4FF0070A 		mov	r10, #7
 5721 01de A8E7     		b	.L642
 5722              	.LVL777:
 5723              	.L615:
 5724              	.LBB347:
 5725              	.LBB344:
 5726              		.loc 1 1842 0
 5727 01e0 1020     		movs	r0, #16
 5728              	.L613:
 5729              	.LVL778:
 5730              		.loc 1 1845 0
 5731 01e2 02F0010E 		and	lr, r2, #1
 5732 01e6 0EEB4303 		add	r3, lr, r3, lsl #1
 5733              	.LVL779:
 5734              		.loc 1 1847 0
 5735 01ea 13F4803F 		tst	r3, #65536
 5736 01ee 18BF     		it	ne
 5737 01f0 83EA0803 		eorne	r3, r3, r8
 5738              	.LVL780:
 5739              		.loc 1 1844 0
 5740 01f4 0138     		subs	r0, r0, #1
 5741              	.LVL781:
 5742              		.loc 1 1846 0
 5743 01f6 4FEA5202 		lsr	r2, r2, #1
 5744              	.LVL782:
 5745              		.loc 1 1844 0
 5746 01fa F2D1     		bne	.L613
 5747              	.LVL783:
 5748              	.L614:
 5749              		.loc 1 1842 0
 5750 01fc 31F8022F 		ldrh	r2, [r1, #2]!
 5751              	.LVL784:
 5752 0200 002A     		cmp	r2, #0
 5753 0202 EDD1     		bne	.L615
 5754 0204 B6E7     		b	.L611
 5755              	.LVL785:
 5756              	.L610:
 5757 0206 AAF10201 		sub	r1, r10, #2
ARM GAS  /tmp/ccWR9Gnm.s 			page 102


 5758              		.loc 1 1840 0
 5759 020a 4B46     		mov	r3, r9
 5760 020c F6E7     		b	.L614
 5761              	.LVL786:
 5762              	.L620:
 5763              		.loc 1 1864 0
 5764 020e 0133     		adds	r3, r3, #1
 5765              	.LVL787:
 5766 0210 C4E7     		b	.L618
 5767              	.L638:
 5768 0212 1346     		mov	r3, r2
 5769              	.LVL788:
 5770 0214 C7E7     		b	.L619
 5771              	.LVL789:
 5772              	.L635:
 5773              	.LBE344:
 5774              	.LBE347:
 5775              		.loc 1 2333 0
 5776 0216 4FF0060A 		mov	r10, #6
 5777 021a 8AE7     		b	.L642
 5778              	.LVL790:
 5779              	.L623:
 5780              		.loc 1 2377 0
 5781 021c 0428     		cmp	r0, #4
 5782 021e 88D1     		bne	.L642
 5783              		.loc 1 2378 0
 5784 0220 9DF81B30 		ldrb	r3, [sp, #27]	@ zero_extendqisi2
 5785 0224 85F84B30 		strb	r3, [r5, #75]
 5786              	.LVL791:
 5787              	.L609:
 5788              		.loc 1 2382 0
 5789 0228 9DF81B30 		ldrb	r3, [sp, #27]	@ zero_extendqisi2
 5790 022c 9B07     		lsls	r3, r3, #30
 5791 022e 45BF     		ittet	mi
 5792 0230 0C34     		addmi	r4, r4, #12
 5793              	.LVL792:
 5794 0232 0D23     		movmi	r3, #13
 5795 0234 0124     		movpl	r4, #1
 5796 0236 B4FBF3F4 		udivmi	r4, r4, r3
 5797 023a 48BF     		it	mi
 5798 023c 0134     		addmi	r4, r4, #1
 5799              	.LVL793:
 5800              		.loc 1 2383 0
 5801 023e 2146     		mov	r1, r4
 5802 0240 2846     		mov	r0, r5
 5803 0242 FFF7FEFF 		bl	dir_alloc
 5804              	.LVL794:
 5805              		.loc 1 2384 0
 5806 0246 8246     		mov	r10, r0
 5807 0248 0028     		cmp	r0, #0
 5808 024a 7FF472AF 		bne	.L642
 5809              	.LVL795:
 5810              		.loc 1 2384 0 is_stmt 0 discriminator 1
 5811 024e 013C     		subs	r4, r4, #1
 5812              	.LVL796:
 5813 0250 58D0     		beq	.L626
 5814              		.loc 1 2385 0 is_stmt 1
ARM GAS  /tmp/ccWR9Gnm.s 			page 103


 5815 0252 296B     		ldr	r1, [r5, #48]
 5816 0254 2846     		mov	r0, r5
 5817              	.LVL797:
 5818 0256 A1EB4411 		sub	r1, r1, r4, lsl #5
 5819 025a FFF7FEFF 		bl	dir_sdi
 5820              	.LVL798:
 5821              		.loc 1 2386 0
 5822 025e 8246     		mov	r10, r0
 5823 0260 0028     		cmp	r0, #0
 5824 0262 7FF466AF 		bne	.L642
 5825              		.loc 1 2387 0
 5826 0266 3846     		mov	r0, r7
 5827              	.LVL799:
 5828 0268 FFF7FEFF 		bl	sum_sfn
 5829              	.LVL800:
 5830              	.LBB348:
 5831              	.LBB349:
 5832              		.loc 1 1806 0
 5833 026c 4FF6FF79 		movw	r9, #65535
 5834              	.LBE349:
 5835              	.LBE348:
 5836              		.loc 1 2387 0
 5837 0270 8046     		mov	r8, r0
 5838              	.LVL801:
 5839              	.L632:
 5840              		.loc 1 2389 0
 5841 0272 A96B     		ldr	r1, [r5, #56]
 5842 0274 3046     		mov	r0, r6
 5843 0276 FFF7FEFF 		bl	move_window
 5844              	.LVL802:
 5845 027a 8246     		mov	r10, r0
 5846              	.LVL803:
 5847              		.loc 1 2390 0
 5848 027c 0028     		cmp	r0, #0
 5849 027e 7FF458AF 		bne	.L642
 5850              		.loc 1 2391 0
 5851 0282 EB6B     		ldr	r3, [r5, #60]
 5852 0284 D6F80CC0 		ldr	ip, [r6, #12]
 5853              	.LBB358:
 5854              	.LBB356:
 5855              		.loc 1 1798 0
 5856 0288 83F80D80 		strb	r8, [r3, #13]
 5857              		.loc 1 1799 0
 5858 028c 0F22     		movs	r2, #15
 5859              	.LBE356:
 5860              	.LBE358:
 5861              		.loc 1 2391 0
 5862 028e E1B2     		uxtb	r1, r4
 5863              	.LVL804:
 5864              	.LBB359:
 5865              	.LBB357:
 5866              		.loc 1 1803 0
 5867 0290 4FF00D0E 		mov	lr, #13
 5868              		.loc 1 1799 0
 5869 0294 DA72     		strb	r2, [r3, #11]
 5870              		.loc 1 1803 0
 5871 0296 4A1E     		subs	r2, r1, #1
ARM GAS  /tmp/ccWR9Gnm.s 			page 104


 5872 0298 0EFB02F2 		mul	r2, lr, r2
 5873              		.loc 1 1800 0
 5874 029c 1873     		strb	r0, [r3, #12]
 5875              	.LVL805:
 5876              	.LBB350:
 5877              	.LBB351:
 5878              		.loc 1 591 0
 5879 029e 9876     		strb	r0, [r3, #26]
 5880              	.LVL806:
 5881              		.loc 1 592 0
 5882 02a0 D876     		strb	r0, [r3, #27]
 5883              	.LVL807:
 5884              	.LBE351:
 5885              	.LBE350:
 5886              		.loc 1 1803 0
 5887 02a2 0192     		str	r2, [sp, #4]
 5888              	.LVL808:
 5889              		.loc 1 1804 0
 5890 02a4 8646     		mov	lr, r0
 5891              	.LVL809:
 5892              	.L629:
 5893              		.loc 1 1806 0
 5894 02a6 4845     		cmp	r0, r9
 5895              	.LVL810:
 5896 02a8 1FBF     		itttt	ne
 5897 02aa 019A     		ldrne	r2, [sp, #4]
 5898 02ac 3CF81200 		ldrhne	r0, [ip, r2, lsl #1]
 5899 02b0 0132     		addne	r2, r2, #1
 5900 02b2 0192     		strne	r2, [sp, #4]
 5901              	.LVL811:
 5902              		.loc 1 1807 0
 5903 02b4 214A     		ldr	r2, .L674
 5904 02b6 1EF802A0 		ldrb	r10, [lr, r2]	@ zero_extendqisi2
 5905              		.loc 1 1809 0
 5906 02ba 0EF1010E 		add	lr, lr, #1
 5907              	.LVL812:
 5908              		.loc 1 1807 0
 5909 02be 03EB0A0B 		add	fp, r3, r10
 5910              	.LVL813:
 5911              	.LBB352:
 5912              	.LBB353:
 5913              		.loc 1 591 0
 5914 02c2 03F80A00 		strb	r0, [r3, r10]
 5915              	.LVL814:
 5916 02c6 4FEA102A 		lsr	r10, r0, #8
 5917              	.LBE353:
 5918              	.LBE352:
 5919              		.loc 1 1808 0
 5920 02ca 0028     		cmp	r0, #0
 5921 02cc 08BF     		it	eq
 5922 02ce 4846     		moveq	r0, r9
 5923              		.loc 1 1809 0
 5924 02d0 BEF10D0F 		cmp	lr, #13
 5925              	.LBB355:
 5926              	.LBB354:
 5927              		.loc 1 592 0
 5928 02d4 8BF801A0 		strb	r10, [fp, #1]
ARM GAS  /tmp/ccWR9Gnm.s 			page 105


 5929              	.LVL815:
 5930              	.LBE354:
 5931              	.LBE355:
 5932              		.loc 1 1809 0
 5933 02d8 E5D1     		bne	.L629
 5934              		.loc 1 1810 0
 5935 02da 4845     		cmp	r0, r9
 5936 02dc 03D0     		beq	.L630
 5937 02de 019A     		ldr	r2, [sp, #4]
 5938 02e0 3CF81220 		ldrh	r2, [ip, r2, lsl #1]
 5939 02e4 0AB9     		cbnz	r2, .L631
 5940              	.L630:
 5941 02e6 41F04001 		orr	r1, r1, #64
 5942              	.LVL816:
 5943              	.L631:
 5944              		.loc 1 1811 0
 5945 02ea 1970     		strb	r1, [r3]
 5946              	.LVL817:
 5947              	.LBE357:
 5948              	.LBE359:
 5949              		.loc 1 2392 0
 5950 02ec 0123     		movs	r3, #1
 5951 02ee F370     		strb	r3, [r6, #3]
 5952              		.loc 1 2393 0
 5953 02f0 0021     		movs	r1, #0
 5954 02f2 2846     		mov	r0, r5
 5955 02f4 FFF7FEFF 		bl	dir_next
 5956              	.LVL818:
 5957              		.loc 1 2394 0
 5958 02f8 8246     		mov	r10, r0
 5959 02fa 0028     		cmp	r0, #0
 5960 02fc 7FF419AF 		bne	.L642
 5961              	.LVL819:
 5962              		.loc 1 2394 0 is_stmt 0 discriminator 1
 5963 0300 013C     		subs	r4, r4, #1
 5964              	.LVL820:
 5965 0302 B6D1     		bne	.L632
 5966              	.LVL821:
 5967              	.L626:
 5968              		.loc 1 2405 0 is_stmt 1
 5969 0304 A96B     		ldr	r1, [r5, #56]
 5970 0306 3046     		mov	r0, r6
 5971 0308 FFF7FEFF 		bl	move_window
 5972              	.LVL822:
 5973              		.loc 1 2406 0
 5974 030c 8246     		mov	r10, r0
 5975 030e 0028     		cmp	r0, #0
 5976 0310 7FF40FAF 		bne	.L642
 5977              		.loc 1 2407 0
 5978 0314 2022     		movs	r2, #32
 5979 0316 5146     		mov	r1, r10
 5980 0318 E86B     		ldr	r0, [r5, #60]
 5981              	.LVL823:
 5982 031a FFF7FEFF 		bl	mem_set
 5983              	.LVL824:
 5984              	.LBB360:
 5985              	.LBB361:
ARM GAS  /tmp/ccWR9Gnm.s 			page 106


 5986 031e 0B22     		movs	r2, #11
 5987 0320 3946     		mov	r1, r7
 5988 0322 E86B     		ldr	r0, [r5, #60]
 5989 0324 FFF7FEFF 		bl	mem_cpy.part.0
 5990              	.LVL825:
 5991              	.LBE361:
 5992              	.LBE360:
 5993              		.loc 1 2410 0
 5994 0328 95F84B30 		ldrb	r3, [r5, #75]	@ zero_extendqisi2
 5995 032c EA6B     		ldr	r2, [r5, #60]
 5996 032e 03F01803 		and	r3, r3, #24
 5997 0332 1373     		strb	r3, [r2, #12]
 5998              		.loc 1 2412 0
 5999 0334 0123     		movs	r3, #1
 6000 0336 F370     		strb	r3, [r6, #3]
 6001 0338 FBE6     		b	.L642
 6002              	.L675:
 6003 033a 00BF     		.align	2
 6004              	.L674:
 6005 033c 00000000 		.word	.LANCHOR2
 6006 0340 21100100 		.word	69665
 6007              		.cfi_endproc
 6008              	.LFE334:
 6009              		.size	dir_register, .-dir_register
 6010              		.section	.text.follow_path,"ax",%progbits
 6011              		.align	1
 6012              		.syntax unified
 6013              		.thumb
 6014              		.thumb_func
 6015              		.fpu fpv4-sp-d16
 6016              		.type	follow_path, %function
 6017              	follow_path:
 6018              	.LFB338:
 6019              		.loc 1 2864 0
 6020              		.cfi_startproc
 6021              		@ args = 0, pretend = 0, frame = 96
 6022              		@ frame_needed = 0, uses_anonymous_args = 0
 6023              	.LVL826:
 6024 0000 2DE9F04F 		push	{r4, r5, r6, r7, r8, r9, r10, fp, lr}
 6025              		.cfi_def_cfa_offset 36
 6026              		.cfi_offset 4, -36
 6027              		.cfi_offset 5, -32
 6028              		.cfi_offset 6, -28
 6029              		.cfi_offset 7, -24
 6030              		.cfi_offset 8, -20
 6031              		.cfi_offset 9, -16
 6032              		.cfi_offset 10, -12
 6033              		.cfi_offset 11, -8
 6034              		.cfi_offset 14, -4
 6035              		.loc 1 2871 0
 6036 0004 0B78     		ldrb	r3, [r1]	@ zero_extendqisi2
 6037              		.loc 1 2867 0
 6038 0006 D0F800B0 		ldr	fp, [r0]
 6039              	.LVL827:
 6040              		.loc 1 2871 0
 6041 000a 2F2B     		cmp	r3, #47
 6042              		.loc 1 2864 0
ARM GAS  /tmp/ccWR9Gnm.s 			page 107


 6043 000c 99B0     		sub	sp, sp, #100
 6044              		.cfi_def_cfa_offset 136
 6045              		.loc 1 2864 0
 6046 000e 0546     		mov	r5, r0
 6047 0010 8946     		mov	r9, r1
 6048              		.loc 1 2871 0
 6049 0012 01D0     		beq	.L677
 6050              		.loc 1 2871 0 is_stmt 0 discriminator 1
 6051 0014 5C2B     		cmp	r3, #92
 6052 0016 0AD1     		bne	.L678
 6053              	.L677:
 6054 0018 4A46     		mov	r2, r9
 6055              	.LVL828:
 6056              	.L679:
 6057              		.loc 1 2876 0 is_stmt 1 discriminator 1
 6058 001a 1378     		ldrb	r3, [r2]	@ zero_extendqisi2
 6059 001c 2F2B     		cmp	r3, #47
 6060 001e 9146     		mov	r9, r2
 6061              	.LVL829:
 6062 0020 02F10102 		add	r2, r2, #1
 6063              	.LVL830:
 6064 0024 F9D0     		beq	.L679
 6065              		.loc 1 2876 0 is_stmt 0 discriminator 3
 6066 0026 5C2B     		cmp	r3, #92
 6067 0028 F7D0     		beq	.L679
 6068              		.loc 1 2877 0 is_stmt 1
 6069 002a 0023     		movs	r3, #0
 6070 002c 01E0     		b	.L827
 6071              	.LVL831:
 6072              	.L678:
 6073              		.loc 1 2872 0
 6074 002e DBF81C30 		ldr	r3, [fp, #28]
 6075              	.LVL832:
 6076              	.L827:
 6077              		.loc 1 2877 0
 6078 0032 AB60     		str	r3, [r5, #8]
 6079              		.loc 1 2880 0
 6080 0034 0023     		movs	r3, #0
 6081 0036 EB61     		str	r3, [r5, #28]
 6082              		.loc 1 2882 0
 6083 0038 9BF80030 		ldrb	r3, [fp]	@ zero_extendqisi2
 6084 003c 042B     		cmp	r3, #4
 6085 003e 1DD1     		bne	.L682
 6086              		.loc 1 2882 0 is_stmt 0 discriminator 1
 6087 0040 AB68     		ldr	r3, [r5, #8]
 6088 0042 DBB1     		cbz	r3, .L682
 6089              	.LBB369:
 6090              		.loc 1 2885 0 is_stmt 1
 6091 0044 DBF82030 		ldr	r3, [fp, #32]
 6092 0048 2B62     		str	r3, [r5, #32]
 6093              		.loc 1 2886 0
 6094 004a DBF82430 		ldr	r3, [fp, #36]
 6095 004e 6B62     		str	r3, [r5, #36]
 6096              		.loc 1 2887 0
 6097 0050 DBF82830 		ldr	r3, [fp, #40]
 6098 0054 AB62     		str	r3, [r5, #40]
 6099              		.loc 1 2888 0
ARM GAS  /tmp/ccWR9Gnm.s 			page 108


 6100 0056 2946     		mov	r1, r5
 6101 0058 04A8     		add	r0, sp, #16
 6102              	.LVL833:
 6103 005a FFF7FEFF 		bl	load_obj_xdir
 6104              	.LVL834:
 6105 005e 0146     		mov	r1, r0
 6106              	.LVL835:
 6107              		.loc 1 2889 0
 6108 0060 B8B9     		cbnz	r0, .L752
 6109              		.loc 1 2890 0
 6110 0062 DBF81040 		ldr	r4, [fp, #16]
 6111 0066 04F13800 		add	r0, r4, #56
 6112              	.LVL836:
 6113 006a FFF7FEFF 		bl	ld_dword
 6114              	.LVL837:
 6115 006e 2861     		str	r0, [r5, #16]
 6116 0070 6961     		str	r1, [r5, #20]
 6117              		.loc 1 2891 0
 6118 0072 94F82130 		ldrb	r3, [r4, #33]	@ zero_extendqisi2
 6119 0076 03F00203 		and	r3, r3, #2
 6120 007a EB71     		strb	r3, [r5, #7]
 6121              	.L682:
 6122              	.LBE369:
 6123              		.loc 1 2896 0
 6124 007c 99F80030 		ldrb	r3, [r9]	@ zero_extendqisi2
 6125 0080 1F2B     		cmp	r3, #31
 6126 0082 69D8     		bhi	.L686
 6127              		.loc 1 2897 0
 6128 0084 8023     		movs	r3, #128
 6129 0086 85F84B30 		strb	r3, [r5, #75]
 6130              		.loc 1 2898 0
 6131 008a 0021     		movs	r1, #0
 6132 008c 2846     		mov	r0, r5
 6133 008e FFF7FEFF 		bl	dir_sdi
 6134              	.LVL838:
 6135              	.L752:
 6136              		.loc 1 2940 0
 6137 0092 19B0     		add	sp, sp, #100
 6138              		.cfi_remember_state
 6139              		.cfi_def_cfa_offset 36
 6140              		@ sp needed
 6141 0094 BDE8F08F 		pop	{r4, r5, r6, r7, r8, r9, r10, fp, pc}
 6142              	.LVL839:
 6143              	.L688:
 6144              		.cfi_restore_state
 6145              	.LBB370:
 6146              	.LBB371:
 6147              		.loc 1 2671 0
 6148 0098 5C28     		cmp	r0, #92
 6149 009a 6DD0     		beq	.L690
 6150              		.loc 1 2675 0
 6151 009c B4F5807F 		cmp	r4, #256
 6152 00a0 0CD0     		beq	.L693
 6153              	.LVL840:
 6154              		.loc 1 2683 0
 6155 00a2 40F25231 		movw	r1, #850
 6156 00a6 FFF7FEFF 		bl	ff_oem2uni
ARM GAS  /tmp/ccWR9Gnm.s 			page 109


 6157              	.LVL841:
 6158              		.loc 1 2684 0
 6159 00aa 38B1     		cbz	r0, .L693
 6160              		.loc 1 2686 0
 6161 00ac 7F28     		cmp	r0, #127
 6162 00ae 07D8     		bhi	.L694
 6163 00b0 B64A     		ldr	r2, .L829
 6164              	.L695:
 6165              	.LVL842:
 6166              	.LBB372:
 6167              	.LBB373:
 6168              		.loc 1 672 0
 6169 00b2 12F8013F 		ldrb	r3, [r2, #1]!	@ zero_extendqisi2
 6170              	.LVL843:
 6171 00b6 1BB1     		cbz	r3, .L694
 6172 00b8 9842     		cmp	r0, r3
 6173 00ba FAD1     		bne	.L695
 6174              	.LVL844:
 6175              	.L693:
 6176              	.LBE373:
 6177              	.LBE372:
 6178              	.LBE371:
 6179              	.LBE370:
 6180              		.loc 1 2913 0
 6181 00bc 0620     		movs	r0, #6
 6182 00be E8E7     		b	.L752
 6183              	.LVL845:
 6184              	.L694:
 6185              	.LBB379:
 6186              	.LBB376:
 6187              		.loc 1 2687 0
 6188 00c0 27F8020F 		strh	r0, [r7, #2]!	@ movhi
 6189 00c4 2646     		mov	r6, r4
 6190 00c6 4FE0     		b	.L696
 6191              	.LVL846:
 6192              	.L698:
 6193              		.loc 1 2692 0
 6194 00c8 022E     		cmp	r6, #2
 6195 00ca 6AD1     		bne	.L701
 6196              		.loc 1 2693 0
 6197 00cc BAF80230 		ldrh	r3, [r10, #2]
 6198 00d0 2E2B     		cmp	r3, #46
 6199 00d2 66D1     		bne	.L701
 6200 00d4 61E0     		b	.L828
 6201              	.L699:
 6202              		.loc 1 2694 0
 6203 00d6 0023     		movs	r3, #0
 6204 00d8 2AF81630 		strh	r3, [r10, r6, lsl #1]	@ movhi
 6205              	.LVL847:
 6206 00dc 05F14002 		add	r2, r5, #64
 6207              	.LVL848:
 6208              	.L703:
 6209              		.loc 1 2696 0
 6210 00e0 9E42     		cmp	r6, r3
 6211 00e2 94BF     		ite	ls
 6212 00e4 2021     		movls	r1, #32
 6213 00e6 2E21     		movhi	r1, #46
ARM GAS  /tmp/ccWR9Gnm.s 			page 110


 6214              		.loc 1 2695 0
 6215 00e8 0133     		adds	r3, r3, #1
 6216              	.LVL849:
 6217 00ea 0B2B     		cmp	r3, #11
 6218              		.loc 1 2696 0
 6219 00ec 02F8011B 		strb	r1, [r2], #1
 6220              		.loc 1 2695 0
 6221 00f0 F6D1     		bne	.L703
 6222              		.loc 1 2697 0
 6223 00f2 44F02004 		orr	r4, r4, #32
 6224              	.LVL850:
 6225              	.L737:
 6226              		.loc 1 2783 0
 6227 00f6 85F84B40 		strb	r4, [r5, #75]
 6228              	.LVL851:
 6229              	.LBE376:
 6230              	.LBE379:
 6231              		.loc 1 2904 0
 6232 00fa 2846     		mov	r0, r5
 6233 00fc FFF7FEFF 		bl	dir_find
 6234              	.LVL852:
 6235              		.loc 1 2905 0
 6236 0100 95F84B30 		ldrb	r3, [r5, #75]	@ zero_extendqisi2
 6237              	.LVL853:
 6238              		.loc 1 2906 0
 6239 0104 0028     		cmp	r0, #0
 6240 0106 40F0E380 		bne	.L742
 6241              		.loc 1 2918 0
 6242 010a 5A07     		lsls	r2, r3, #29
 6243 010c C1D4     		bmi	.L752
 6244              		.loc 1 2920 0
 6245 010e AB79     		ldrb	r3, [r5, #6]	@ zero_extendqisi2
 6246              	.LVL854:
 6247 0110 DB06     		lsls	r3, r3, #27
 6248 0112 40F1FB80 		bpl	.L751
 6249              		.loc 1 2924 0
 6250 0116 9BF80000 		ldrb	r0, [fp]	@ zero_extendqisi2
 6251              	.LVL855:
 6252 011a 0428     		cmp	r0, #4
 6253 011c 40F0EC80 		bne	.L741
 6254              		.loc 1 2925 0
 6255 0120 AB68     		ldr	r3, [r5, #8]
 6256 0122 2B62     		str	r3, [r5, #32]
 6257              		.loc 1 2926 0
 6258 0124 2B69     		ldr	r3, [r5, #16]
 6259 0126 EA79     		ldrb	r2, [r5, #7]	@ zero_extendqisi2
 6260              		.loc 1 2928 0
 6261 0128 DBF81010 		ldr	r1, [fp, #16]
 6262              		.loc 1 2926 0
 6263 012c 23F0FF03 		bic	r3, r3, #255
 6264 0130 1343     		orrs	r3, r3, r2
 6265 0132 6B62     		str	r3, [r5, #36]
 6266              		.loc 1 2927 0
 6267 0134 EB6C     		ldr	r3, [r5, #76]
 6268 0136 AB62     		str	r3, [r5, #40]
 6269              		.loc 1 2928 0
 6270 0138 01F13400 		add	r0, r1, #52
ARM GAS  /tmp/ccWR9Gnm.s 			page 111


 6271 013c FFF7FEFF 		bl	ld_dword
 6272              	.LVL856:
 6273 0140 A860     		str	r0, [r5, #8]
 6274              		.loc 1 2929 0
 6275 0142 91F82130 		ldrb	r3, [r1, #33]	@ zero_extendqisi2
 6276 0146 03F00203 		and	r3, r3, #2
 6277 014a EB71     		strb	r3, [r5, #7]
 6278              		.loc 1 2930 0
 6279 014c 01F13800 		add	r0, r1, #56
 6280 0150 FFF7FEFF 		bl	ld_qword
 6281              	.LVL857:
 6282 0154 C5E90401 		strd	r0, [r5, #16]
 6283              	.L686:
 6284              	.LVL858:
 6285              	.LBB380:
 6286              	.LBB377:
 6287              		.loc 1 2667 0
 6288 0158 2B68     		ldr	r3, [r5]
 6289 015a D3F80CA0 		ldr	r10, [r3, #12]
 6290              	.LVL859:
 6291 015e 09F1FF38 		add	r8, r9, #-1
 6292 0162 AAF10207 		sub	r7, r10, #2
 6293 0166 0026     		movs	r6, #0
 6294              	.LVL860:
 6295              	.L696:
 6296              		.loc 1 2669 0
 6297 0168 18F8010F 		ldrb	r0, [r8, #1]!	@ zero_extendqisi2
 6298              		.loc 1 2670 0
 6299 016c 1F28     		cmp	r0, #31
 6300              		.loc 1 2669 0
 6301 016e 06F10104 		add	r4, r6, #1
 6302              	.LVL861:
 6303              		.loc 1 2670 0
 6304 0172 0BD9     		bls	.L687
 6305              		.loc 1 2671 0
 6306 0174 2F28     		cmp	r0, #47
 6307 0176 8FD1     		bne	.L688
 6308              	.L690:
 6309 0178 09EB0403 		add	r3, r9, r4
 6310              	.L689:
 6311 017c A3EB0904 		sub	r4, r3, r9
 6312              	.LVL862:
 6313              		.loc 1 2672 0
 6314 0180 13F8012B 		ldrb	r2, [r3], #1	@ zero_extendqisi2
 6315 0184 2F2A     		cmp	r2, #47
 6316 0186 F9D0     		beq	.L689
 6317 0188 5C2A     		cmp	r2, #92
 6318 018a F7D0     		beq	.L689
 6319              	.L687:
 6320              		.loc 1 2690 0
 6321 018c 1F28     		cmp	r0, #31
 6322              		.loc 1 2689 0
 6323 018e A144     		add	r9, r9, r4
 6324              	.LVL863:
 6325              		.loc 1 2690 0
 6326 0190 8CBF     		ite	hi
 6327 0192 0024     		movhi	r4, #0
ARM GAS  /tmp/ccWR9Gnm.s 			page 112


 6328              	.LVL864:
 6329 0194 0424     		movls	r4, #4
 6330              	.LVL865:
 6331              		.loc 1 2692 0
 6332 0196 012E     		cmp	r6, #1
 6333 0198 96D1     		bne	.L698
 6334              	.L828:
 6335 019a BAF80030 		ldrh	r3, [r10]
 6336 019e 2E2B     		cmp	r3, #46
 6337 01a0 99D0     		beq	.L699
 6338              	.L701:
 6339 01a2 0AEB4603 		add	r3, r10, r6, lsl #1
 6340              	.LVL866:
 6341              	.L700:
 6342              		.loc 1 2701 0
 6343 01a6 9EBB     		cbnz	r6, .L707
 6344              	.L706:
 6345              		.loc 1 2706 0
 6346 01a8 0027     		movs	r7, #0
 6347 01aa 0AEB4603 		add	r3, r10, r6, lsl #1
 6348 01ae 2AF81670 		strh	r7, [r10, r6, lsl #1]	@ movhi
 6349              		.loc 1 2707 0
 6350 01b2 002E     		cmp	r6, #0
 6351 01b4 82D0     		beq	.L693
 6352              		.loc 1 2710 0
 6353 01b6 2021     		movs	r1, #32
 6354 01b8 0B22     		movs	r2, #11
 6355 01ba 05F14000 		add	r0, r5, #64
 6356 01be FFF7FEFF 		bl	mem_set
 6357              	.LVL867:
 6358              		.loc 1 2711 0
 6359 01c2 3946     		mov	r1, r7
 6360              	.LVL868:
 6361              	.L708:
 6362 01c4 3AF81120 		ldrh	r2, [r10, r1, lsl #1]
 6363 01c8 202A     		cmp	r2, #32
 6364 01ca 29D0     		beq	.L709
 6365 01cc 2E2A     		cmp	r2, #46
 6366 01ce 27D0     		beq	.L709
 6367              		.loc 1 2712 0
 6368 01d0 11B1     		cbz	r1, .L711
 6369 01d2 44F00304 		orr	r4, r4, #3
 6370              	.LVL869:
 6371 01d6 E4B2     		uxtb	r4, r4
 6372              	.LVL870:
 6373              	.L711:
 6374              		.loc 1 2713 0
 6375 01d8 33F8022D 		ldrh	r2, [r3, #-2]!
 6376 01dc 2E2A     		cmp	r2, #46
 6377 01de 01D0     		beq	.L714
 6378              	.LVL871:
 6379 01e0 013E     		subs	r6, r6, #1
 6380              	.LVL872:
 6381 01e2 F9D1     		bne	.L711
 6382              	.L714:
 6383              		.loc 1 2754 0
 6384 01e4 4FF00008 		mov	r8, #0
ARM GAS  /tmp/ccWR9Gnm.s 			page 113


 6385 01e8 0823     		movs	r3, #8
 6386 01ea 4746     		mov	r7, r8
 6387              	.LVL873:
 6388              	.L712:
 6389              		.loc 1 2717 0
 6390 01ec 3AF81100 		ldrh	r0, [r10, r1, lsl #1]
 6391 01f0 4A1C     		adds	r2, r1, #1
 6392              	.LVL874:
 6393              		.loc 1 2718 0
 6394 01f2 0028     		cmp	r0, #0
 6395 01f4 00F09480 		beq	.L715
 6396              		.loc 1 2719 0
 6397 01f8 2028     		cmp	r0, #32
 6398 01fa 04D0     		beq	.L716
 6399 01fc 2E28     		cmp	r0, #46
 6400 01fe 11D1     		bne	.L717
 6401 0200 9642     		cmp	r6, r2
 6402 0202 00F08580 		beq	.L718
 6403              	.L716:
 6404              		.loc 1 2720 0
 6405 0206 44F00304 		orr	r4, r4, #3
 6406              	.LVL875:
 6407 020a E4B2     		uxtb	r4, r4
 6408              	.LVL876:
 6409              	.L719:
 6410              		.loc 1 2754 0
 6411 020c 1146     		mov	r1, r2
 6412 020e EDE7     		b	.L712
 6413              	.LVL877:
 6414              	.L707:
 6415              		.loc 1 2702 0
 6416 0210 33F8022D 		ldrh	r2, [r3, #-2]!
 6417              	.LVL878:
 6418              		.loc 1 2703 0
 6419 0214 202A     		cmp	r2, #32
 6420 0216 01D0     		beq	.L705
 6421 0218 2E2A     		cmp	r2, #46
 6422 021a C5D1     		bne	.L706
 6423              	.L705:
 6424              		.loc 1 2704 0
 6425 021c 013E     		subs	r6, r6, #1
 6426              	.LVL879:
 6427 021e C2E7     		b	.L700
 6428              	.LVL880:
 6429              	.L709:
 6430              		.loc 1 2711 0
 6431 0220 0131     		adds	r1, r1, #1
 6432              	.LVL881:
 6433 0222 CFE7     		b	.L708
 6434              	.LVL882:
 6435              	.L717:
 6436              		.loc 1 2724 0
 6437 0224 9845     		cmp	r8, r3
 6438 0226 75D2     		bcs	.L720
 6439 0228 9642     		cmp	r6, r2
 6440 022a 0FD1     		bne	.L824
 6441              	.L721:
ARM GAS  /tmp/ccWR9Gnm.s 			page 114


 6442              		.loc 1 2725 0
 6443 022c 0B2B     		cmp	r3, #11
 6444 022e 06D1     		bne	.L724
 6445 0230 72E0     		b	.L744
 6446              	.L723:
 6447              		.loc 1 2729 0
 6448 0232 9642     		cmp	r6, r2
 6449 0234 03D0     		beq	.L724
 6450 0236 44F00304 		orr	r4, r4, #3
 6451              	.LVL883:
 6452 023a E4B2     		uxtb	r4, r4
 6453              	.LVL884:
 6454              		.loc 1 2730 0
 6455 023c 70D3     		bcc	.L715
 6456              	.L724:
 6457              	.LVL885:
 6458              		.loc 1 2732 0
 6459 023e BF00     		lsls	r7, r7, #2
 6460              	.LVL886:
 6461 0240 FFB2     		uxtb	r7, r7
 6462              	.LVL887:
 6463 0242 3246     		mov	r2, r6
 6464              		.loc 1 2731 0
 6465 0244 0B23     		movs	r3, #11
 6466 0246 4FF00808 		mov	r8, #8
 6467 024a DFE7     		b	.L719
 6468              	.LVL888:
 6469              	.L824:
 6470              		.loc 1 2735 0
 6471 024c 7F28     		cmp	r0, #127
 6472 024e 3AD9     		bls	.L749
 6473              		.loc 1 2736 0
 6474 0250 44F00201 		orr	r1, r4, #2
 6475 0254 0393     		str	r3, [sp, #12]
 6476 0256 CBB2     		uxtb	r3, r1
 6477              	.LVL889:
 6478              		.loc 1 2745 0
 6479 0258 40F25231 		movw	r1, #850
 6480 025c 0292     		str	r2, [sp, #8]
 6481              		.loc 1 2736 0
 6482 025e 0193     		str	r3, [sp, #4]
 6483              	.LVL890:
 6484              		.loc 1 2745 0
 6485 0260 FFF7FEFF 		bl	ff_uni2oem
 6486              	.LVL891:
 6487              		.loc 1 2746 0
 6488 0264 10F0800F 		tst	r0, #128
 6489 0268 029A     		ldr	r2, [sp, #8]
 6490 026a 039B     		ldr	r3, [sp, #12]
 6491 026c 12D0     		beq	.L726
 6492 026e 00F07F00 		and	r0, r0, #127
 6493              	.LVL892:
 6494 0272 4749     		ldr	r1, .L829+4
 6495 0274 085C     		ldrb	r0, [r1, r0]	@ zero_extendqisi2
 6496              	.LVL893:
 6497              	.L727:
 6498              		.loc 1 2759 0
ARM GAS  /tmp/ccWR9Gnm.s 			page 115


 6499 0276 30B1     		cbz	r0, .L730
 6500              	.LVL894:
 6501              	.L725:
 6502 0278 464C     		ldr	r4, .L829+8
 6503              	.L732:
 6504              	.LVL895:
 6505              	.LBB374:
 6506              	.LBB375:
 6507              		.loc 1 672 0
 6508 027a 14F8011F 		ldrb	r1, [r4, #1]!	@ zero_extendqisi2
 6509              	.LVL896:
 6510 027e 0029     		cmp	r1, #0
 6511 0280 74D0     		beq	.L731
 6512 0282 8142     		cmp	r1, r0
 6513 0284 F9D1     		bne	.L732
 6514              	.LVL897:
 6515              	.L730:
 6516              	.LBE375:
 6517              	.LBE374:
 6518              		.loc 1 2760 0
 6519 0286 0199     		ldr	r1, [sp, #4]
 6520 0288 41F00301 		orr	r1, r1, #3
 6521 028c C9B2     		uxtb	r1, r1
 6522 028e 0191     		str	r1, [sp, #4]
 6523              	.LVL898:
 6524 0290 5F20     		movs	r0, #95
 6525 0292 10E0     		b	.L729
 6526              	.LVL899:
 6527              	.L726:
 6528              		.loc 1 2752 0
 6529 0294 FF28     		cmp	r0, #255
 6530 0296 EED9     		bls	.L727
 6531              		.loc 1 2753 0
 6532 0298 591E     		subs	r1, r3, #1
 6533 029a 8845     		cmp	r8, r1
 6534 029c 04D3     		bcc	.L728
 6535              		.loc 1 2754 0
 6536 029e 44F00304 		orr	r4, r4, #3
 6537 02a2 E4B2     		uxtb	r4, r4
 6538              	.LVL900:
 6539 02a4 9846     		mov	r8, r3
 6540 02a6 B1E7     		b	.L719
 6541              	.LVL901:
 6542              	.L728:
 6543              		.loc 1 2757 0
 6544 02a8 05EB0801 		add	r1, r5, r8
 6545 02ac 040A     		lsrs	r4, r0, #8
 6546 02ae 81F84040 		strb	r4, [r1, #64]
 6547 02b2 08F10108 		add	r8, r8, #1
 6548              	.LVL902:
 6549              	.L729:
 6550              		.loc 1 2771 0
 6551 02b6 05EB0801 		add	r1, r5, r8
 6552 02ba 019C     		ldr	r4, [sp, #4]
 6553 02bc 81F84000 		strb	r0, [r1, #64]
 6554 02c0 08F10108 		add	r8, r8, #1
 6555              	.LVL903:
ARM GAS  /tmp/ccWR9Gnm.s 			page 116


 6556 02c4 A2E7     		b	.L719
 6557              	.LVL904:
 6558              	.L749:
 6559              		.loc 1 2735 0
 6560 02c6 0194     		str	r4, [sp, #4]
 6561 02c8 D6E7     		b	.L725
 6562              	.LVL905:
 6563              	.L745:
 6564              		.loc 1 2763 0
 6565 02ca 47F00207 		orr	r7, r7, #2
 6566              	.LVL906:
 6567 02ce F2E7     		b	.L729
 6568              	.LVL907:
 6569              	.L742:
 6570              	.LBE377:
 6571              	.LBE380:
 6572              		.loc 1 2907 0
 6573 02d0 0428     		cmp	r0, #4
 6574 02d2 7FF4DEAE 		bne	.L752
 6575              		.loc 1 2908 0
 6576 02d6 13F0200F 		tst	r3, #32
 6577 02da 03F00403 		and	r3, r3, #4
 6578              	.LVL908:
 6579 02de 07D0     		beq	.L739
 6580              		.loc 1 2909 0
 6581 02e0 002B     		cmp	r3, #0
 6582 02e2 3FF439AF 		beq	.L686
 6583              		.loc 1 2910 0
 6584 02e6 8023     		movs	r3, #128
 6585 02e8 85F84B30 		strb	r3, [r5, #75]
 6586              	.LVL909:
 6587              		.loc 1 2911 0
 6588 02ec 0020     		movs	r0, #0
 6589 02ee D0E6     		b	.L752
 6590              	.LVL910:
 6591              	.L739:
 6592              		.loc 1 2913 0
 6593 02f0 002B     		cmp	r3, #0
 6594 02f2 08BF     		it	eq
 6595 02f4 0520     		moveq	r0, #5
 6596              	.LVL911:
 6597 02f6 CCE6     		b	.L752
 6598              	.L741:
 6599              		.loc 1 2934 0
 6600 02f8 2B6B     		ldr	r3, [r5, #48]
 6601 02fa 0BF14801 		add	r1, fp, #72
 6602 02fe C3F30803 		ubfx	r3, r3, #0, #9
 6603 0302 1944     		add	r1, r1, r3
 6604 0304 FFF7FEFF 		bl	ld_clust.isra.3
 6605              	.LVL912:
 6606 0308 A860     		str	r0, [r5, #8]
 6607 030a 25E7     		b	.L686
 6608              	.LVL913:
 6609              	.L751:
 6610              		.loc 1 2913 0
 6611 030c 0520     		movs	r0, #5
 6612              	.LVL914:
ARM GAS  /tmp/ccWR9Gnm.s 			page 117


 6613 030e C0E6     		b	.L752
 6614              	.LVL915:
 6615              	.L718:
 6616              	.LBB381:
 6617              	.LBB378:
 6618              		.loc 1 2724 0
 6619 0310 9845     		cmp	r8, r3
 6620 0312 8BD3     		bcc	.L721
 6621              	.L720:
 6622              		.loc 1 2725 0
 6623 0314 0B2B     		cmp	r3, #11
 6624 0316 8CD1     		bne	.L723
 6625              	.L744:
 6626              		.loc 1 2726 0
 6627 0318 44F00304 		orr	r4, r4, #3
 6628              	.LVL916:
 6629 031c E4B2     		uxtb	r4, r4
 6630              	.LVL917:
 6631 031e 0B23     		movs	r3, #11
 6632              	.LVL918:
 6633              	.L715:
 6634              		.loc 1 2774 0
 6635 0320 95F84020 		ldrb	r2, [r5, #64]	@ zero_extendqisi2
 6636              	.LVL919:
 6637 0324 E52A     		cmp	r2, #229
 6638 0326 04BF     		itt	eq
 6639 0328 0522     		moveq	r2, #5
 6640 032a 85F84020 		strbeq	r2, [r5, #64]
 6641              		.loc 1 2776 0
 6642 032e 082B     		cmp	r3, #8
 6643 0330 04BF     		itt	eq
 6644 0332 BF00     		lsleq	r7, r7, #2
 6645              	.LVL920:
 6646 0334 FFB2     		uxtbeq	r7, r7
 6647              	.LVL921:
 6648 0336 07F00C03 		and	r3, r7, #12
 6649              		.loc 1 2777 0
 6650 033a 0C2B     		cmp	r3, #12
 6651 033c 03D0     		beq	.L735
 6652 033e 07F00302 		and	r2, r7, #3
 6653 0342 032A     		cmp	r2, #3
 6654 0344 02D1     		bne	.L736
 6655              	.L735:
 6656 0346 44F00204 		orr	r4, r4, #2
 6657              	.LVL922:
 6658 034a E4B2     		uxtb	r4, r4
 6659              	.LVL923:
 6660              	.L736:
 6661              		.loc 1 2778 0
 6662 034c A107     		lsls	r1, r4, #30
 6663              	.LVL924:
 6664 034e 3FF5D2AE 		bmi	.L737
 6665              		.loc 1 2779 0
 6666 0352 07F00307 		and	r7, r7, #3
 6667              	.LVL925:
 6668 0356 012F     		cmp	r7, #1
 6669 0358 04BF     		itt	eq
ARM GAS  /tmp/ccWR9Gnm.s 			page 118


 6670 035a 44F01004 		orreq	r4, r4, #16
 6671              	.LVL926:
 6672 035e E4B2     		uxtbeq	r4, r4
 6673              	.LVL927:
 6674              		.loc 1 2780 0
 6675 0360 042B     		cmp	r3, #4
 6676 0362 04BF     		itt	eq
 6677 0364 44F00804 		orreq	r4, r4, #8
 6678              	.LVL928:
 6679 0368 E4B2     		uxtbeq	r4, r4
 6680              	.LVL929:
 6681 036a C4E6     		b	.L737
 6682              	.LVL930:
 6683              	.L731:
 6684              		.loc 1 2762 0
 6685 036c A0F14101 		sub	r1, r0, #65
 6686 0370 89B2     		uxth	r1, r1
 6687 0372 1929     		cmp	r1, #25
 6688 0374 A9D9     		bls	.L745
 6689              		.loc 1 2765 0
 6690 0376 A0F16101 		sub	r1, r0, #97
 6691 037a 89B2     		uxth	r1, r1
 6692 037c 1929     		cmp	r1, #25
 6693              		.loc 1 2766 0
 6694 037e 9EBF     		ittt	ls
 6695 0380 2038     		subls	r0, r0, #32
 6696              	.LVL931:
 6697 0382 47F00107 		orrls	r7, r7, #1
 6698              	.LVL932:
 6699 0386 80B2     		uxthls	r0, r0
 6700              	.LVL933:
 6701 0388 95E7     		b	.L729
 6702              	.L830:
 6703 038a 00BF     		.align	2
 6704              	.L829:
 6705 038c FFFFFFFF 		.word	.LC3-1
 6706 0390 00000000 		.word	.LANCHOR3
 6707 0394 FFFFFFFF 		.word	.LC4-1
 6708              	.LBE378:
 6709              	.LBE381:
 6710              		.cfi_endproc
 6711              	.LFE338:
 6712              		.size	follow_path, .-follow_path
 6713              		.section	.text.f_mount,"ax",%progbits
 6714              		.align	1
 6715              		.global	f_mount
 6716              		.syntax unified
 6717              		.thumb
 6718              		.thumb_func
 6719              		.fpu fpv4-sp-d16
 6720              		.type	f_mount, %function
 6721              	f_mount:
 6722              	.LFB343:
 6723              		.loc 1 3314 0
 6724              		.cfi_startproc
 6725              		@ args = 0, pretend = 0, frame = 16
 6726              		@ frame_needed = 0, uses_anonymous_args = 0
ARM GAS  /tmp/ccWR9Gnm.s 			page 119


 6727              	.LVL934:
 6728 0000 1FB5     		push	{r0, r1, r2, r3, r4, lr}
 6729              		.cfi_def_cfa_offset 24
 6730              		.cfi_offset 4, -8
 6731              		.cfi_offset 14, -4
 6732              		.loc 1 3314 0
 6733 0002 0190     		str	r0, [sp, #4]
 6734              		.loc 1 3318 0
 6735 0004 04A8     		add	r0, sp, #16
 6736              	.LVL935:
 6737              		.loc 1 3314 0
 6738 0006 0091     		str	r1, [sp]
 6739              		.loc 1 3318 0
 6740 0008 40F8041D 		str	r1, [r0, #-4]!
 6741              		.loc 1 3314 0
 6742 000c 1446     		mov	r4, r2
 6743              		.loc 1 3322 0
 6744 000e FFF7FEFF 		bl	get_ldnumber
 6745              	.LVL936:
 6746              		.loc 1 3323 0
 6747 0012 0028     		cmp	r0, #0
 6748 0014 13DB     		blt	.L835
 6749              		.loc 1 3324 0
 6750 0016 0C4B     		ldr	r3, .L843
 6751 0018 53F82020 		ldr	r2, [r3, r0, lsl #2]
 6752              	.LVL937:
 6753              		.loc 1 3326 0
 6754 001c 0AB1     		cbz	r2, .L833
 6755              		.loc 1 3333 0
 6756 001e 0021     		movs	r1, #0
 6757 0020 1170     		strb	r1, [r2]
 6758              	.L833:
 6759              		.loc 1 3336 0
 6760 0022 019A     		ldr	r2, [sp, #4]
 6761              	.LVL938:
 6762 0024 0AB1     		cbz	r2, .L834
 6763              		.loc 1 3337 0
 6764 0026 0021     		movs	r1, #0
 6765 0028 1170     		strb	r1, [r2]
 6766              	.L834:
 6767              		.loc 1 3342 0
 6768 002a 43F82020 		str	r2, [r3, r0, lsl #2]
 6769              		.loc 1 3344 0
 6770 002e 44B1     		cbz	r4, .L836
 6771              		.loc 1 3346 0
 6772 0030 0022     		movs	r2, #0
 6773 0032 01A9     		add	r1, sp, #4
 6774 0034 6846     		mov	r0, sp
 6775              	.LVL939:
 6776 0036 FFF7FEFF 		bl	find_volume
 6777              	.LVL940:
 6778              	.L832:
 6779              		.loc 1 3348 0
 6780 003a 04B0     		add	sp, sp, #16
 6781              		.cfi_remember_state
 6782              		.cfi_def_cfa_offset 8
 6783              		@ sp needed
ARM GAS  /tmp/ccWR9Gnm.s 			page 120


 6784 003c 10BD     		pop	{r4, pc}
 6785              	.LVL941:
 6786              	.L835:
 6787              		.cfi_restore_state
 6788              		.loc 1 3323 0
 6789 003e 0B20     		movs	r0, #11
 6790              	.LVL942:
 6791 0040 FBE7     		b	.L832
 6792              	.LVL943:
 6793              	.L836:
 6794              		.loc 1 3344 0
 6795 0042 2046     		mov	r0, r4
 6796              	.LVL944:
 6797 0044 F9E7     		b	.L832
 6798              	.L844:
 6799 0046 00BF     		.align	2
 6800              	.L843:
 6801 0048 00000000 		.word	.LANCHOR0
 6802              		.cfi_endproc
 6803              	.LFE343:
 6804              		.size	f_mount, .-f_mount
 6805              		.section	.text.f_open,"ax",%progbits
 6806              		.align	1
 6807              		.global	f_open
 6808              		.syntax unified
 6809              		.thumb
 6810              		.thumb_func
 6811              		.fpu fpv4-sp-d16
 6812              		.type	f_open, %function
 6813              	f_open:
 6814              	.LFB344:
 6815              		.loc 1 3362 0
 6816              		.cfi_startproc
 6817              		@ args = 0, pretend = 0, frame = 96
 6818              		@ frame_needed = 0, uses_anonymous_args = 0
 6819              	.LVL945:
 6820 0000 2DE9F04F 		push	{r4, r5, r6, r7, r8, r9, r10, fp, lr}
 6821              		.cfi_def_cfa_offset 36
 6822              		.cfi_offset 4, -36
 6823              		.cfi_offset 5, -32
 6824              		.cfi_offset 6, -28
 6825              		.cfi_offset 7, -24
 6826              		.cfi_offset 8, -20
 6827              		.cfi_offset 9, -16
 6828              		.cfi_offset 10, -12
 6829              		.cfi_offset 11, -8
 6830              		.cfi_offset 14, -4
 6831 0004 99B0     		sub	sp, sp, #100
 6832              		.cfi_def_cfa_offset 136
 6833              		.loc 1 3362 0
 6834 0006 1746     		mov	r7, r2
 6835 0008 0191     		str	r1, [sp, #4]
 6836              		.loc 1 3373 0
 6837 000a 0546     		mov	r5, r0
 6838 000c 0028     		cmp	r0, #0
 6839 000e 00F06A81 		beq	.L865
 6840              		.loc 1 3376 0
ARM GAS  /tmp/ccWR9Gnm.s 			page 121


 6841 0012 02F03F06 		and	r6, r2, #63
 6842              	.LVL946:
 6843              		.loc 1 3377 0
 6844 0016 3246     		mov	r2, r6
 6845 0018 03A9     		add	r1, sp, #12
 6846              	.LVL947:
 6847 001a 01A8     		add	r0, sp, #4
 6848              	.LVL948:
 6849 001c FFF7FEFF 		bl	find_volume
 6850              	.LVL949:
 6851              		.loc 1 3378 0
 6852 0020 0028     		cmp	r0, #0
 6853 0022 40F05E81 		bne	.L866
 6854              		.loc 1 3379 0
 6855 0026 039B     		ldr	r3, [sp, #12]
 6856 0028 0493     		str	r3, [sp, #16]
 6857              		.loc 1 3380 0
 6858 002a 4FF48C60 		mov	r0, #1120
 6859              	.LVL950:
 6860 002e FFF7FEFF 		bl	ff_memalloc
 6861              	.LVL951:
 6862 0032 8246     		mov	r10, r0
 6863 0034 0028     		cmp	r0, #0
 6864 0036 00F05881 		beq	.L867
 6865              		.loc 1 3380 0 is_stmt 0 discriminator 2
 6866 003a 039B     		ldr	r3, [sp, #12]
 6867              		.loc 1 3381 0 is_stmt 1 discriminator 2
 6868 003c 0199     		ldr	r1, [sp, #4]
 6869              		.loc 1 3380 0 discriminator 2
 6870 003e D860     		str	r0, [r3, #12]
 6871 0040 00F50072 		add	r2, r0, #512
 6872 0044 1A61     		str	r2, [r3, #16]
 6873              		.loc 1 3381 0 discriminator 2
 6874 0046 04A8     		add	r0, sp, #16
 6875              	.LVL952:
 6876 0048 FFF7FEFF 		bl	follow_path
 6877              	.LVL953:
 6878              		.loc 1 3383 0 discriminator 2
 6879 004c 0446     		mov	r4, r0
 6880 004e 20B9     		cbnz	r0, .L848
 6881              		.loc 1 3384 0
 6882 0050 9DF95B30 		ldrsb	r3, [sp, #91]
 6883              		.loc 1 3385 0
 6884 0054 002B     		cmp	r3, #0
 6885 0056 B8BF     		it	lt
 6886 0058 0624     		movlt	r4, #6
 6887              	.L848:
 6888              	.LVL954:
 6889              		.loc 1 3394 0
 6890 005a 17F01C0F 		tst	r7, #28
 6891 005e 00F0DD80 		beq	.L849
 6892              		.loc 1 3395 0
 6893 0062 002C     		cmp	r4, #0
 6894 0064 00F0A380 		beq	.L850
 6895              		.loc 1 3396 0
 6896 0068 042C     		cmp	r4, #4
 6897 006a 40F09680 		bne	.L851
ARM GAS  /tmp/ccWR9Gnm.s 			page 122


 6898              		.loc 1 3400 0
 6899 006e 04A8     		add	r0, sp, #16
 6900 0070 FFF7FEFF 		bl	dir_register
 6901              	.LVL955:
 6902              		.loc 1 3412 0
 6903 0074 0446     		mov	r4, r0
 6904 0076 0028     		cmp	r0, #0
 6905 0078 40F08F80 		bne	.L851
 6906              		.loc 1 3403 0
 6907 007c 46F00806 		orr	r6, r6, #8
 6908              	.LVL956:
 6909              	.L852:
 6910              		.loc 1 3412 0 discriminator 1
 6911 0080 3107     		lsls	r1, r6, #28
