ARM GAS  /tmp/cctbqtZl.s 			page 1


   1              		.cpu cortex-m4
   2              		.eabi_attribute 27, 1
   3              		.eabi_attribute 28, 1
   4              		.eabi_attribute 20, 1
   5              		.eabi_attribute 21, 1
   6              		.eabi_attribute 23, 3
   7              		.eabi_attribute 24, 1
   8              		.eabi_attribute 25, 1
   9              		.eabi_attribute 26, 1
  10              		.eabi_attribute 30, 4
  11              		.eabi_attribute 34, 1
  12              		.eabi_attribute 18, 4
  13              		.file	"ffunicode.c"
  14              		.text
  15              	.Ltext0:
  16              		.cfi_sections	.debug_frame
  17              		.section	.text.ff_uni2oem,"ax",%progbits
  18              		.align	1
  19              		.global	ff_uni2oem
  20              		.syntax unified
  21              		.thumb
  22              		.thumb_func
  23              		.fpu fpv4-sp-d16
  24              		.type	ff_uni2oem, %function
  25              	ff_uni2oem:
  26              	.LFB290:
  27              		.file 1 "../../modules/ChibiOS/ext/fatfs/src/ffunicode.c"
  28              		.loc 1 15251 0
  29              		.cfi_startproc
  30              		@ args = 0, pretend = 0, frame = 0
  31              		@ frame_needed = 0, uses_anonymous_args = 0
  32              	.LVL0:
  33              		.loc 1 15256 0
  34 0000 7F28     		cmp	r0, #127
  35              		.loc 1 15251 0
  36 0002 10B5     		push	{r4, lr}
  37              		.cfi_def_cfa_offset 8
  38              		.cfi_offset 4, -8
  39              		.cfi_offset 14, -4
  40              		.loc 1 15256 0
  41 0004 13D9     		bls	.L2
  42              		.loc 1 15260 0
  43 0006 40F25233 		movw	r3, #850
  44 000a 9942     		cmp	r1, r3
  45 000c 01D0     		beq	.L3
  46              		.loc 1 15252 0
  47 000e 0020     		movs	r0, #0
  48              	.LVL1:
  49 0010 10BD     		pop	{r4, pc}
  50              	.LVL2:
  51              	.L3:
  52              		.loc 1 15261 0 discriminator 3
  53 0012 074C     		ldr	r4, .L8
  54 0014 0023     		movs	r3, #0
  55              	.LVL3:
  56              	.L4:
  57 0016 34F81310 		ldrh	r1, [r4, r3, lsl #1]
ARM GAS  /tmp/cctbqtZl.s 			page 2


  58 001a 8142     		cmp	r1, r0
  59 001c 9AB2     		uxth	r2, r3
  60              	.LVL4:
  61 001e 03D0     		beq	.L5
  62              	.LVL5:
  63 0020 0133     		adds	r3, r3, #1
  64              	.LVL6:
  65              		.loc 1 15261 0 is_stmt 0 discriminator 4
  66 0022 802B     		cmp	r3, #128
  67 0024 F7D1     		bne	.L4
  68 0026 1A46     		mov	r2, r3
  69              	.LVL7:
  70              	.L5:
  71              		.loc 1 15262 0 is_stmt 1
  72 0028 02F18000 		add	r0, r2, #128
  73              	.LVL8:
  74 002c C0B2     		uxtb	r0, r0
  75              	.LVL9:
  76              	.L2:
  77              		.loc 1 15266 0
  78 002e 10BD     		pop	{r4, pc}
  79              	.L9:
  80              		.align	2
  81              	.L8:
  82 0030 00000000 		.word	.LANCHOR0
  83              		.cfi_endproc
  84              	.LFE290:
  85              		.size	ff_uni2oem, .-ff_uni2oem
  86              		.section	.text.ff_oem2uni,"ax",%progbits
  87              		.align	1
  88              		.global	ff_oem2uni
  89              		.syntax unified
  90              		.thumb
  91              		.thumb_func
  92              		.fpu fpv4-sp-d16
  93              		.type	ff_oem2uni, %function
  94              	ff_oem2uni:
  95              	.LFB291:
  96              		.loc 1 15272 0
  97              		.cfi_startproc
  98              		@ args = 0, pretend = 0, frame = 0
  99              		@ frame_needed = 0, uses_anonymous_args = 0
 100              		@ link register save eliminated.
 101              	.LVL10:
 102              		.loc 1 15277 0
 103 0000 7F28     		cmp	r0, #127
 104 0002 0DD9     		bls	.L11
 105              		.loc 1 15281 0
 106 0004 40F25233 		movw	r3, #850
 107 0008 9942     		cmp	r1, r3
 108 000a 08D1     		bne	.L13
 109              		.loc 1 15282 0
 110 000c FF28     		cmp	r0, #255
 111 000e 06D8     		bhi	.L13
 112              		.loc 1 15282 0 is_stmt 0 discriminator 1
 113 0010 00F10040 		add	r0, r0, #-2147483648
 114              	.LVL11:
ARM GAS  /tmp/cctbqtZl.s 			page 3


 115 0014 034B     		ldr	r3, .L14
 116 0016 8038     		subs	r0, r0, #128
 117 0018 33F81000 		ldrh	r0, [r3, r0, lsl #1]
 118              	.LVL12:
 119 001c 7047     		bx	lr
 120              	.LVL13:
 121              	.L13:
 122              		.loc 1 15273 0 is_stmt 1
 123 001e 0020     		movs	r0, #0
 124              	.LVL14:
 125              	.L11:
 126              		.loc 1 15286 0
 127 0020 7047     		bx	lr
 128              	.L15:
 129 0022 00BF     		.align	2
 130              	.L14:
 131 0024 00000000 		.word	.LANCHOR0
 132              		.cfi_endproc
 133              	.LFE291:
 134              		.size	ff_oem2uni, .-ff_oem2uni
 135              		.section	.text.ff_wtoupper,"ax",%progbits
 136              		.align	1
 137              		.global	ff_wtoupper
 138              		.syntax unified
 139              		.thumb
 140              		.thumb_func
 141              		.fpu fpv4-sp-d16
 142              		.type	ff_wtoupper, %function
 143              	ff_wtoupper:
 144              	.LFB292:
 145              		.loc 1 15482 0
 146              		.cfi_startproc
 147              		@ args = 0, pretend = 0, frame = 0
 148              		@ frame_needed = 0, uses_anonymous_args = 0
 149              	.LVL15:
 150 0000 70B5     		push	{r4, r5, r6, lr}
 151              		.cfi_def_cfa_offset 16
 152              		.cfi_offset 4, -16
 153              		.cfi_offset 5, -12
 154              		.cfi_offset 6, -8
 155              		.cfi_offset 14, -4
 156              		.loc 1 15540 0
 157 0002 1E4A     		ldr	r2, .L38
 158 0004 1E4B     		ldr	r3, .L38+4
 159 0006 B0F5805F 		cmp	r0, #4096
 160 000a 28BF     		it	cs
 161 000c 1346     		movcs	r3, r2
 162              	.L31:
 163 000e 191D     		adds	r1, r3, #4
 164              	.L30:
 165              	.LVL16:
 166              		.loc 1 15542 0
 167 0010 31F8043C 		ldrh	r3, [r1, #-4]
 168              	.LVL17:
 169 0014 0A46     		mov	r2, r1
 170              		.loc 1 15543 0
 171 0016 83B3     		cbz	r3, .L18
ARM GAS  /tmp/cctbqtZl.s 			page 4


 172              		.loc 1 15543 0 is_stmt 0 discriminator 1
 173 0018 9842     		cmp	r0, r3
 174 001a 2ED3     		bcc	.L18
 175              	.LVL18:
 176              		.loc 1 15544 0 is_stmt 1
 177 001c 31F8024C 		ldrh	r4, [r1, #-2]
 178              	.LVL19:
 179 0020 250A     		lsrs	r5, r4, #8
 180              	.LVL20:
 181 0022 E4B2     		uxtb	r4, r4
 182              	.LVL21:
 183              		.loc 1 15545 0
 184 0024 E618     		adds	r6, r4, r3
 185 0026 B042     		cmp	r0, r6
 186 0028 21DA     		bge	.L19
 187              		.loc 1 15546 0
 188 002a 082D     		cmp	r5, #8
 189 002c 25D8     		bhi	.L18
 190 002e DFE805F0 		tbb	[pc, r5]
 191              	.L21:
 192 0032 05       		.byte	(.L20-.L21)/2
 193 0033 09       		.byte	(.L22-.L21)/2
 194 0034 0F       		.byte	(.L23-.L21)/2
 195 0035 11       		.byte	(.L24-.L21)/2
 196 0036 13       		.byte	(.L25-.L21)/2
 197 0037 15       		.byte	(.L26-.L21)/2
 198 0038 17       		.byte	(.L27-.L21)/2
 199 0039 19       		.byte	(.L28-.L21)/2
 200 003a 1B       		.byte	(.L29-.L21)/2
 201 003b 00       		.p2align 1
 202              	.L20:
 203              		.loc 1 15547 0
 204 003c C01A     		subs	r0, r0, r3
 205              	.LVL22:
 206 003e 31F81000 		ldrh	r0, [r1, r0, lsl #1]
 207              	.LVL23:
 208 0042 70BD     		pop	{r4, r5, r6, pc}
 209              	.LVL24:
 210              	.L22:
 211              		.loc 1 15548 0
 212 0044 C31A     		subs	r3, r0, r3
 213              	.LVL25:
 214 0046 03F00103 		and	r3, r3, #1
 215 004a C01A     		subs	r0, r0, r3
 216              	.LVL26:
 217              	.L37:
 218              		.loc 1 15555 0
 219 004c 80B2     		uxth	r0, r0
 220              	.LVL27:
 221 004e 70BD     		pop	{r4, r5, r6, pc}
 222              	.LVL28:
 223              	.L23:
 224              		.loc 1 15549 0
 225 0050 1038     		subs	r0, r0, #16
 226              	.LVL29:
 227 0052 FBE7     		b	.L37
 228              	.LVL30:
ARM GAS  /tmp/cctbqtZl.s 			page 5


 229              	.L24:
 230              		.loc 1 15550 0
 231 0054 2038     		subs	r0, r0, #32
 232              	.LVL31:
 233 0056 F9E7     		b	.L37
 234              	.LVL32:
 235              	.L25:
 236              		.loc 1 15551 0
 237 0058 3038     		subs	r0, r0, #48
 238              	.LVL33:
 239 005a F7E7     		b	.L37
 240              	.LVL34:
 241              	.L26:
 242              		.loc 1 15552 0
 243 005c 1A38     		subs	r0, r0, #26
 244              	.LVL35:
 245 005e F5E7     		b	.L37
 246              	.LVL36:
 247              	.L27:
 248              		.loc 1 15553 0
 249 0060 0830     		adds	r0, r0, #8
 250              	.LVL37:
 251 0062 F3E7     		b	.L37
 252              	.LVL38:
 253              	.L28:
 254              		.loc 1 15554 0
 255 0064 5038     		subs	r0, r0, #80
 256              	.LVL39:
 257 0066 F1E7     		b	.L37
 258              	.LVL40:
 259              	.L29:
 260              		.loc 1 15555 0
 261 0068 A0F5E350 		sub	r0, r0, #7264
 262              	.LVL41:
 263 006c EEE7     		b	.L37
 264              	.LVL42:
 265              	.L19:
 266 006e 0431     		adds	r1, r1, #4
 267              	.LVL43:
 268              		.loc 1 15559 0
 269 0070 002D     		cmp	r5, #0
 270 0072 CDD1     		bne	.L30
 271              		.loc 1 15559 0 is_stmt 0 discriminator 1
 272 0074 02EB4403 		add	r3, r2, r4, lsl #1
 273              	.LVL44:
 274 0078 C9E7     		b	.L31
 275              	.LVL45:
 276              	.L18:
 277              		.loc 1 15563 0 is_stmt 1
 278 007a 70BD     		pop	{r4, r5, r6, pc}
 279              	.L39:
 280              		.align	2
 281              	.L38:
 282 007c 00000000 		.word	.LANCHOR1
 283 0080 00000000 		.word	.LANCHOR2
 284              		.cfi_endproc
 285              	.LFE292:
ARM GAS  /tmp/cctbqtZl.s 			page 6


 286              		.size	ff_wtoupper, .-ff_wtoupper
 287              		.section	.rodata.cvt1.8363,"a",%progbits
 288              		.align	1
 289              		.set	.LANCHOR2,. + 0
 290              		.type	cvt1.8363, %object
 291              		.size	cvt1.8363, 498
 292              	cvt1.8363:
 293 0000 6100     		.short	97
 294 0002 1A03     		.short	794
 295 0004 E000     		.short	224
 296 0006 1703     		.short	791
 297 0008 F800     		.short	248
 298 000a 0703     		.short	775
 299 000c FF00     		.short	255
 300 000e 0100     		.short	1
 301 0010 7801     		.short	376
 302 0012 0001     		.short	256
 303 0014 3001     		.short	304
 304 0016 3201     		.short	306
 305 0018 0601     		.short	262
 306 001a 3901     		.short	313
 307 001c 1001     		.short	272
 308 001e 4A01     		.short	330
 309 0020 2E01     		.short	302
 310 0022 7901     		.short	377
 311 0024 0601     		.short	262
 312 0026 8001     		.short	384
 313 0028 4D00     		.short	77
 314 002a 4302     		.short	579
 315 002c 8101     		.short	385
 316 002e 8201     		.short	386
 317 0030 8201     		.short	386
 318 0032 8401     		.short	388
 319 0034 8401     		.short	388
 320 0036 8601     		.short	390
 321 0038 8701     		.short	391
 322 003a 8701     		.short	391
 323 003c 8901     		.short	393
 324 003e 8A01     		.short	394
 325 0040 8B01     		.short	395
 326 0042 8B01     		.short	395
 327 0044 8D01     		.short	397
 328 0046 8E01     		.short	398
 329 0048 8F01     		.short	399
 330 004a 9001     		.short	400
 331 004c 9101     		.short	401
 332 004e 9101     		.short	401
 333 0050 9301     		.short	403
 334 0052 9401     		.short	404
 335 0054 F601     		.short	502
 336 0056 9601     		.short	406
 337 0058 9701     		.short	407
 338 005a 9801     		.short	408
 339 005c 9801     		.short	408
 340 005e 3D02     		.short	573
 341 0060 9B01     		.short	411
 342 0062 9C01     		.short	412
ARM GAS  /tmp/cctbqtZl.s 			page 7


 343 0064 9D01     		.short	413
 344 0066 2002     		.short	544
 345 0068 9F01     		.short	415
 346 006a A001     		.short	416
 347 006c A001     		.short	416
 348 006e A201     		.short	418
 349 0070 A201     		.short	418
 350 0072 A401     		.short	420
 351 0074 A401     		.short	420
 352 0076 A601     		.short	422
 353 0078 A701     		.short	423
 354 007a A701     		.short	423
 355 007c A901     		.short	425
 356 007e AA01     		.short	426
 357 0080 AB01     		.short	427
 358 0082 AC01     		.short	428
 359 0084 AC01     		.short	428
 360 0086 AE01     		.short	430
 361 0088 AF01     		.short	431
 362 008a AF01     		.short	431
 363 008c B101     		.short	433
 364 008e B201     		.short	434
 365 0090 B301     		.short	435
 366 0092 B301     		.short	435
 367 0094 B501     		.short	437
 368 0096 B501     		.short	437
 369 0098 B701     		.short	439
 370 009a B801     		.short	440
 371 009c B801     		.short	440
 372 009e BA01     		.short	442
 373 00a0 BB01     		.short	443
 374 00a2 BC01     		.short	444
 375 00a4 BC01     		.short	444
 376 00a6 BE01     		.short	446
 377 00a8 F701     		.short	503
 378 00aa C001     		.short	448
 379 00ac C101     		.short	449
 380 00ae C201     		.short	450
 381 00b0 C301     		.short	451
 382 00b2 C401     		.short	452
 383 00b4 C501     		.short	453
 384 00b6 C401     		.short	452
 385 00b8 C701     		.short	455
 386 00ba C801     		.short	456
 387 00bc C701     		.short	455
 388 00be CA01     		.short	458
 389 00c0 CB01     		.short	459
 390 00c2 CA01     		.short	458
 391 00c4 CD01     		.short	461
 392 00c6 1001     		.short	272
 393 00c8 DD01     		.short	477
 394 00ca 0100     		.short	1
 395 00cc 8E01     		.short	398
 396 00ce DE01     		.short	478
 397 00d0 1201     		.short	274
 398 00d2 F301     		.short	499
 399 00d4 0300     		.short	3
ARM GAS  /tmp/cctbqtZl.s 			page 8


 400 00d6 F101     		.short	497
 401 00d8 F401     		.short	500
 402 00da F401     		.short	500
 403 00dc F801     		.short	504
 404 00de 2801     		.short	296
 405 00e0 2202     		.short	546
 406 00e2 1201     		.short	274
 407 00e4 3A02     		.short	570
 408 00e6 0900     		.short	9
 409 00e8 652C     		.short	11365
 410 00ea 3B02     		.short	571
 411 00ec 3B02     		.short	571
 412 00ee 3D02     		.short	573
 413 00f0 662C     		.short	11366
 414 00f2 3F02     		.short	575
 415 00f4 4002     		.short	576
 416 00f6 4102     		.short	577
 417 00f8 4102     		.short	577
 418 00fa 4602     		.short	582
 419 00fc 0A01     		.short	266
 420 00fe 5302     		.short	595
 421 0100 4000     		.short	64
 422 0102 8101     		.short	385
 423 0104 8601     		.short	390
 424 0106 5502     		.short	597
 425 0108 8901     		.short	393
 426 010a 8A01     		.short	394
 427 010c 5802     		.short	600
 428 010e 8F01     		.short	399
 429 0110 5A02     		.short	602
 430 0112 9001     		.short	400
 431 0114 5C02     		.short	604
 432 0116 5D02     		.short	605
 433 0118 5E02     		.short	606
 434 011a 5F02     		.short	607
 435 011c 9301     		.short	403
 436 011e 6102     		.short	609
 437 0120 6202     		.short	610
 438 0122 9401     		.short	404
 439 0124 6402     		.short	612
 440 0126 6502     		.short	613
 441 0128 6602     		.short	614
 442 012a 6702     		.short	615
 443 012c 9701     		.short	407
 444 012e 9601     		.short	406
 445 0130 6A02     		.short	618
 446 0132 622C     		.short	11362
 447 0134 6C02     		.short	620
 448 0136 6D02     		.short	621
 449 0138 6E02     		.short	622
 450 013a 9C01     		.short	412
 451 013c 7002     		.short	624
 452 013e 7102     		.short	625
 453 0140 9D01     		.short	413
 454 0142 7302     		.short	627
 455 0144 7402     		.short	628
 456 0146 9F01     		.short	415
ARM GAS  /tmp/cctbqtZl.s 			page 9


 457 0148 7602     		.short	630
 458 014a 7702     		.short	631
 459 014c 7802     		.short	632
 460 014e 7902     		.short	633
 461 0150 7A02     		.short	634
 462 0152 7B02     		.short	635
 463 0154 7C02     		.short	636
 464 0156 642C     		.short	11364
 465 0158 7E02     		.short	638
 466 015a 7F02     		.short	639
 467 015c A601     		.short	422
 468 015e 8102     		.short	641
 469 0160 8202     		.short	642
 470 0162 A901     		.short	425
 471 0164 8402     		.short	644
 472 0166 8502     		.short	645
 473 0168 8602     		.short	646
 474 016a 8702     		.short	647
 475 016c AE01     		.short	430
 476 016e 4402     		.short	580
 477 0170 B101     		.short	433
 478 0172 B201     		.short	434
 479 0174 4502     		.short	581
 480 0176 8D02     		.short	653
 481 0178 8E02     		.short	654
 482 017a 8F02     		.short	655
 483 017c 9002     		.short	656
 484 017e 9102     		.short	657
 485 0180 B701     		.short	439
 486 0182 7B03     		.short	891
 487 0184 0300     		.short	3
 488 0186 FD03     		.short	1021
 489 0188 FE03     		.short	1022
 490 018a FF03     		.short	1023
 491 018c AC03     		.short	940
 492 018e 0400     		.short	4
 493 0190 8603     		.short	902
 494 0192 8803     		.short	904
 495 0194 8903     		.short	905
 496 0196 8A03     		.short	906
 497 0198 B103     		.short	945
 498 019a 1103     		.short	785
 499 019c C203     		.short	962
 500 019e 0200     		.short	2
 501 01a0 A303     		.short	931
 502 01a2 A303     		.short	931
 503 01a4 C403     		.short	964
 504 01a6 0803     		.short	776
 505 01a8 CC03     		.short	972
 506 01aa 0300     		.short	3
 507 01ac 8C03     		.short	908
 508 01ae 8E03     		.short	910
 509 01b0 8F03     		.short	911
 510 01b2 D803     		.short	984
 511 01b4 1801     		.short	280
 512 01b6 F203     		.short	1010
 513 01b8 0A00     		.short	10
ARM GAS  /tmp/cctbqtZl.s 			page 10


 514 01ba F903     		.short	1017
 515 01bc F303     		.short	1011
 516 01be F403     		.short	1012
 517 01c0 F503     		.short	1013
 518 01c2 F603     		.short	1014
 519 01c4 F703     		.short	1015
 520 01c6 F703     		.short	1015
 521 01c8 F903     		.short	1017
 522 01ca FA03     		.short	1018
 523 01cc FA03     		.short	1018
 524 01ce 3004     		.short	1072
 525 01d0 2003     		.short	800
 526 01d2 5004     		.short	1104
 527 01d4 1007     		.short	1808
 528 01d6 6004     		.short	1120
 529 01d8 2201     		.short	290
 530 01da 8A04     		.short	1162
 531 01dc 3601     		.short	310
 532 01de C104     		.short	1217
 533 01e0 0E01     		.short	270
 534 01e2 CF04     		.short	1231
 535 01e4 0100     		.short	1
 536 01e6 C004     		.short	1216
 537 01e8 D004     		.short	1232
 538 01ea 4401     		.short	324
 539 01ec 6105     		.short	1377
 540 01ee 2604     		.short	1062
 541 01f0 0000     		.short	0
 542              		.section	.rodata.cvt2.8364,"a",%progbits
 543              		.align	1
 544              		.set	.LANCHOR1,. + 0
 545              		.type	cvt2.8364, %object
 546              		.size	cvt2.8364, 188
 547              	cvt2.8364:
 548 0000 7D1D     		.short	7549
 549 0002 0100     		.short	1
 550 0004 632C     		.short	11363
 551 0006 001E     		.short	7680
 552 0008 9601     		.short	406
 553 000a A01E     		.short	7840
 554 000c 5A01     		.short	346
 555 000e 001F     		.short	7936
 556 0010 0806     		.short	1544
 557 0012 101F     		.short	7952
 558 0014 0606     		.short	1542
 559 0016 201F     		.short	7968
 560 0018 0806     		.short	1544
 561 001a 301F     		.short	7984
 562 001c 0806     		.short	1544
 563 001e 401F     		.short	8000
 564 0020 0606     		.short	1542
 565 0022 511F     		.short	8017
 566 0024 0700     		.short	7
 567 0026 591F     		.short	8025
 568 0028 521F     		.short	8018
 569 002a 5B1F     		.short	8027
 570 002c 541F     		.short	8020
ARM GAS  /tmp/cctbqtZl.s 			page 11


 571 002e 5D1F     		.short	8029
 572 0030 561F     		.short	8022
 573 0032 5F1F     		.short	8031
 574 0034 601F     		.short	8032
 575 0036 0806     		.short	1544
 576 0038 701F     		.short	8048
 577 003a 0E00     		.short	14
 578 003c BA1F     		.short	8122
 579 003e BB1F     		.short	8123
 580 0040 C81F     		.short	8136
 581 0042 C91F     		.short	8137
 582 0044 CA1F     		.short	8138
 583 0046 CB1F     		.short	8139
 584 0048 DA1F     		.short	8154
 585 004a DB1F     		.short	8155
 586 004c F81F     		.short	8184
 587 004e F91F     		.short	8185
 588 0050 EA1F     		.short	8170
 589 0052 EB1F     		.short	8171
 590 0054 FA1F     		.short	8186
 591 0056 FB1F     		.short	8187
 592 0058 801F     		.short	8064
 593 005a 0806     		.short	1544
 594 005c 901F     		.short	8080
 595 005e 0806     		.short	1544
 596 0060 A01F     		.short	8096
 597 0062 0806     		.short	1544
 598 0064 B01F     		.short	8112
 599 0066 0400     		.short	4
 600 0068 B81F     		.short	8120
 601 006a B91F     		.short	8121
 602 006c B21F     		.short	8114
 603 006e BC1F     		.short	8124
 604 0070 CC1F     		.short	8140
 605 0072 0100     		.short	1
 606 0074 C31F     		.short	8131
 607 0076 D01F     		.short	8144
 608 0078 0206     		.short	1538
 609 007a E01F     		.short	8160
 610 007c 0206     		.short	1538
 611 007e E51F     		.short	8165
 612 0080 0100     		.short	1
 613 0082 EC1F     		.short	8172
 614 0084 F31F     		.short	8179
 615 0086 0100     		.short	1
 616 0088 FC1F     		.short	8188
 617 008a 4E21     		.short	8526
 618 008c 0100     		.short	1
 619 008e 3221     		.short	8498
 620 0090 7021     		.short	8560
 621 0092 1002     		.short	528
 622 0094 8421     		.short	8580
 623 0096 0100     		.short	1
 624 0098 8321     		.short	8579
 625 009a D024     		.short	9424
 626 009c 1A05     		.short	1306
 627 009e 302C     		.short	11312
ARM GAS  /tmp/cctbqtZl.s 			page 12


 628 00a0 2F04     		.short	1071
 629 00a2 602C     		.short	11360
 630 00a4 0201     		.short	258
 631 00a6 672C     		.short	11367
 632 00a8 0601     		.short	262
 633 00aa 752C     		.short	11381
 634 00ac 0201     		.short	258
 635 00ae 802C     		.short	11392
 636 00b0 6401     		.short	356
 637 00b2 002D     		.short	11520
 638 00b4 2608     		.short	2086
 639 00b6 41FF     		.short	-191
 640 00b8 1A03     		.short	794
 641 00ba 0000     		.short	0
 642              		.section	.rodata.uc850,"a",%progbits
 643              		.align	1
 644              		.set	.LANCHOR0,. + 0
 645              		.type	uc850, %object
 646              		.size	uc850, 256
 647              	uc850:
 648 0000 C700     		.short	199
 649 0002 FC00     		.short	252
 650 0004 E900     		.short	233
 651 0006 E200     		.short	226
 652 0008 E400     		.short	228
 653 000a E000     		.short	224
 654 000c E500     		.short	229
 655 000e E700     		.short	231
 656 0010 EA00     		.short	234
 657 0012 EB00     		.short	235
 658 0014 E800     		.short	232
 659 0016 EF00     		.short	239
 660 0018 EE00     		.short	238
 661 001a EC00     		.short	236
 662 001c C400     		.short	196
 663 001e C500     		.short	197
 664 0020 C900     		.short	201
 665 0022 E600     		.short	230
 666 0024 C600     		.short	198
 667 0026 F400     		.short	244
 668 0028 F600     		.short	246
 669 002a F200     		.short	242
 670 002c FB00     		.short	251
 671 002e F900     		.short	249
 672 0030 FF00     		.short	255
 673 0032 D600     		.short	214
 674 0034 DC00     		.short	220
 675 0036 F800     		.short	248
 676 0038 A300     		.short	163
 677 003a D800     		.short	216
 678 003c D700     		.short	215
 679 003e 9201     		.short	402
 680 0040 E100     		.short	225
 681 0042 ED00     		.short	237
 682 0044 F300     		.short	243
 683 0046 FA00     		.short	250
 684 0048 F100     		.short	241
ARM GAS  /tmp/cctbqtZl.s 			page 13


 685 004a D100     		.short	209
 686 004c AA00     		.short	170
 687 004e BA00     		.short	186
 688 0050 BF00     		.short	191
 689 0052 AE00     		.short	174
 690 0054 AC00     		.short	172
 691 0056 BD00     		.short	189
 692 0058 BC00     		.short	188
 693 005a A100     		.short	161
 694 005c AB00     		.short	171
 695 005e BB00     		.short	187
 696 0060 9125     		.short	9617
 697 0062 9225     		.short	9618
 698 0064 9325     		.short	9619
 699 0066 0225     		.short	9474
 700 0068 2425     		.short	9508
 701 006a C100     		.short	193
 702 006c C200     		.short	194
 703 006e C000     		.short	192
 704 0070 A900     		.short	169
 705 0072 6325     		.short	9571
 706 0074 5125     		.short	9553
 707 0076 5725     		.short	9559
 708 0078 5D25     		.short	9565
 709 007a A200     		.short	162
 710 007c A500     		.short	165
 711 007e 1025     		.short	9488
 712 0080 1425     		.short	9492
 713 0082 3425     		.short	9524
 714 0084 2C25     		.short	9516
 715 0086 1C25     		.short	9500
 716 0088 0025     		.short	9472
 717 008a 3C25     		.short	9532
 718 008c E300     		.short	227
 719 008e C300     		.short	195
 720 0090 5A25     		.short	9562
 721 0092 5425     		.short	9556
 722 0094 6925     		.short	9577
 723 0096 6625     		.short	9574
 724 0098 6025     		.short	9568
 725 009a 5025     		.short	9552
 726 009c 6C25     		.short	9580
 727 009e A400     		.short	164
 728 00a0 F000     		.short	240
 729 00a2 D000     		.short	208
 730 00a4 CA00     		.short	202
 731 00a6 CB00     		.short	203
 732 00a8 C800     		.short	200
 733 00aa 3101     		.short	305
 734 00ac CD00     		.short	205
 735 00ae CE00     		.short	206
 736 00b0 CF00     		.short	207
 737 00b2 1825     		.short	9496
 738 00b4 0C25     		.short	9484
 739 00b6 8825     		.short	9608
 740 00b8 8425     		.short	9604
 741 00ba A600     		.short	166
ARM GAS  /tmp/cctbqtZl.s 			page 14


 742 00bc CC00     		.short	204
 743 00be 8025     		.short	9600
 744 00c0 D300     		.short	211
 745 00c2 DF00     		.short	223
 746 00c4 D400     		.short	212
 747 00c6 D200     		.short	210
 748 00c8 F500     		.short	245
 749 00ca D500     		.short	213
 750 00cc B500     		.short	181
 751 00ce FE00     		.short	254
 752 00d0 DE00     		.short	222
 753 00d2 DA00     		.short	218
 754 00d4 DB00     		.short	219
 755 00d6 D900     		.short	217
 756 00d8 FD00     		.short	253
 757 00da DD00     		.short	221
 758 00dc AF00     		.short	175
 759 00de B400     		.short	180
 760 00e0 AD00     		.short	173
 761 00e2 B100     		.short	177
 762 00e4 1720     		.short	8215
 763 00e6 BE00     		.short	190
 764 00e8 B600     		.short	182
 765 00ea A700     		.short	167
 766 00ec F700     		.short	247
 767 00ee B800     		.short	184
 768 00f0 B000     		.short	176
 769 00f2 A800     		.short	168
 770 00f4 B700     		.short	183
 771 00f6 B900     		.short	185
 772 00f8 B300     		.short	179
 773 00fa B200     		.short	178
 774 00fc A025     		.short	9632
 775 00fe A000     		.short	160
 776              		.text
 777              	.Letext0:
 778              		.file 2 "../../modules/ChibiOS/ext/fatfs/src/integer.h"
 779              		.file 3 "/opt/gcc-arm-none-eabi-6-2017-q2-update/lib/gcc/arm-none-eabi/6.3.1/include/stddef.h"
 780              		.file 4 "/opt/gcc-arm-none-eabi-6-2017-q2-update/arm-none-eabi/include/machine/_default_types.h"
 781              		.file 5 "/opt/gcc-arm-none-eabi-6-2017-q2-update/arm-none-eabi/include/sys/_stdint.h"
 782              		.file 6 "../../modules/ChibiOS/os/common/ports/ARMCMx/compilers/GCC/chtypes.h"
 783              		.file 7 "../../modules/ChibiOS/os/rt/include/chsystypes.h"
 784              		.file 8 "../../modules/ChibiOS/os/rt/include/chschd.h"
 785              		.file 9 "../../modules/ChibiOS/os/rt/include/chtime.h"
 786              		.file 10 "../../modules/ChibiOS/os/common/ext/ARM/CMSIS/Core/Include/core_cm4.h"
 787              		.file 11 "../../modules/ChibiOS/os/common/ext/ST/STM32F4xx/system_stm32f4xx.h"
 788              		.file 12 "../../modules/ChibiOS/os/common/ports/ARMCMx/chcore.h"
 789              		.file 13 "../../modules/ChibiOS/os/common/ports/ARMCMx/chcore_v7m.h"
 790              		.file 14 "../../modules/ChibiOS/os/rt/include/chtm.h"
 791              		.file 15 "../../modules/ChibiOS/os/rt/include/chsem.h"
 792              		.file 16 "../../modules/ChibiOS/os/rt/include/chmtx.h"
 793              		.file 17 "../../modules/ChibiOS/os/rt/include/chsys.h"
 794              		.file 18 "../../modules/ChibiOS/os/rt/include/chregistry.h"
 795              		.file 19 "../../modules/ChibiOS/os/oslib/include/chmemcore.h"
 796              		.file 20 "../../modules/ChibiOS/os/oslib/include/chmempools.h"
 797              		.file 21 "../../modules/ChibiOS/os/oslib/include/chfactory.h"
 798              		.section	.debug_info,"",%progbits
ARM GAS  /tmp/cctbqtZl.s 			page 15


 799              	.Ldebug_info0:
 800 0000 190C0000 		.4byte	0xc19
 801 0004 0400     		.2byte	0x4
 802 0006 00000000 		.4byte	.Ldebug_abbrev0
 803 000a 04       		.byte	0x4
 804 000b 01       		.uleb128 0x1
 805 000c 41010000 		.4byte	.LASF152
 806 0010 0C       		.byte	0xc
 807 0011 1A000000 		.4byte	.LASF153
 808 0015 2F030000 		.4byte	.LASF154
 809 0019 00000000 		.4byte	.Ldebug_ranges0+0
 810 001d 00000000 		.4byte	0
 811 0021 00000000 		.4byte	.Ldebug_line0
 812 0025 02       		.uleb128 0x2
 813 0026 04       		.byte	0x4
 814 0027 05       		.byte	0x5
 815 0028 696E7400 		.ascii	"int\000"
 816 002c 03       		.uleb128 0x3
 817 002d 04       		.byte	0x4
 818 002e 07       		.byte	0x7
 819 002f FC020000 		.4byte	.LASF0
 820 0033 03       		.uleb128 0x3
 821 0034 01       		.byte	0x1
 822 0035 08       		.byte	0x8
 823 0036 4B050000 		.4byte	.LASF1
 824 003a 03       		.uleb128 0x3
 825 003b 02       		.byte	0x2
 826 003c 05       		.byte	0x5
 827 003d 6F050000 		.4byte	.LASF2
 828 0041 04       		.uleb128 0x4
 829 0042 A6040000 		.4byte	.LASF4
 830 0046 02       		.byte	0x2
 831 0047 1A       		.byte	0x1a
 832 0048 4C000000 		.4byte	0x4c
 833 004c 03       		.uleb128 0x3
 834 004d 02       		.byte	0x2
 835 004e 07       		.byte	0x7
 836 004f A2060000 		.4byte	.LASF3
 837 0053 04       		.uleb128 0x4
 838 0054 3E070000 		.4byte	.LASF5
 839 0058 02       		.byte	0x2
 840 0059 1B       		.byte	0x1b
 841 005a 4C000000 		.4byte	0x4c
 842 005e 05       		.uleb128 0x5
 843 005f 53000000 		.4byte	0x53
 844 0063 03       		.uleb128 0x3
 845 0064 04       		.byte	0x4
 846 0065 05       		.byte	0x5
 847 0066 6D020000 		.4byte	.LASF6
 848 006a 03       		.uleb128 0x3
 849 006b 04       		.byte	0x4
 850 006c 07       		.byte	0x7
 851 006d 11060000 		.4byte	.LASF7
 852 0071 03       		.uleb128 0x3
 853 0072 08       		.byte	0x8
 854 0073 07       		.byte	0x7
 855 0074 9C000000 		.4byte	.LASF8
ARM GAS  /tmp/cctbqtZl.s 			page 16


 856 0078 04       		.uleb128 0x4
 857 0079 0D000000 		.4byte	.LASF9
 858 007d 03       		.byte	0x3
 859 007e D8       		.byte	0xd8
 860 007f 2C000000 		.4byte	0x2c
 861 0083 03       		.uleb128 0x3
 862 0084 08       		.byte	0x8
 863 0085 05       		.byte	0x5
 864 0086 16010000 		.4byte	.LASF10
 865 008a 03       		.uleb128 0x3
 866 008b 08       		.byte	0x8
 867 008c 04       		.byte	0x4
 868 008d 79040000 		.4byte	.LASF11
 869 0091 03       		.uleb128 0x3
 870 0092 01       		.byte	0x1
 871 0093 06       		.byte	0x6
 872 0094 24010000 		.4byte	.LASF12
 873 0098 04       		.uleb128 0x4
 874 0099 53000000 		.4byte	.LASF13
 875 009d 04       		.byte	0x4
 876 009e 2B       		.byte	0x2b
 877 009f 33000000 		.4byte	0x33
 878 00a3 04       		.uleb128 0x4
 879 00a4 4C060000 		.4byte	.LASF14
 880 00a8 04       		.byte	0x4
 881 00a9 39       		.byte	0x39
 882 00aa 4C000000 		.4byte	0x4c
 883 00ae 04       		.uleb128 0x4
 884 00af 1A040000 		.4byte	.LASF15
 885 00b3 04       		.byte	0x4
 886 00b4 4D       		.byte	0x4d
 887 00b5 63000000 		.4byte	0x63
 888 00b9 04       		.uleb128 0x4
 889 00ba 9A020000 		.4byte	.LASF16
 890 00be 04       		.byte	0x4
 891 00bf 4F       		.byte	0x4f
 892 00c0 6A000000 		.4byte	0x6a
 893 00c4 04       		.uleb128 0x4
 894 00c5 DF040000 		.4byte	.LASF17
 895 00c9 04       		.byte	0x4
 896 00ca 69       		.byte	0x69
 897 00cb 71000000 		.4byte	0x71
 898 00cf 04       		.uleb128 0x4
 899 00d0 1F070000 		.4byte	.LASF18
 900 00d4 05       		.byte	0x5
 901 00d5 18       		.byte	0x18
 902 00d6 98000000 		.4byte	0x98
 903 00da 05       		.uleb128 0x5
 904 00db CF000000 		.4byte	0xcf
 905 00df 04       		.uleb128 0x4
 906 00e0 09030000 		.4byte	.LASF19
 907 00e4 05       		.byte	0x5
 908 00e5 24       		.byte	0x24
 909 00e6 A3000000 		.4byte	0xa3
 910 00ea 04       		.uleb128 0x4
 911 00eb 43050000 		.4byte	.LASF20
 912 00ef 05       		.byte	0x5
ARM GAS  /tmp/cctbqtZl.s 			page 17


 913 00f0 2C       		.byte	0x2c
 914 00f1 AE000000 		.4byte	0xae
 915 00f5 06       		.uleb128 0x6
 916 00f6 EA000000 		.4byte	0xea
 917 00fa 04       		.uleb128 0x4
 918 00fb EB050000 		.4byte	.LASF21
 919 00ff 05       		.byte	0x5
 920 0100 30       		.byte	0x30
 921 0101 B9000000 		.4byte	0xb9
 922 0105 04       		.uleb128 0x4
 923 0106 4A000000 		.4byte	.LASF22
 924 010a 05       		.byte	0x5
 925 010b 3C       		.byte	0x3c
 926 010c C4000000 		.4byte	0xc4
 927 0110 04       		.uleb128 0x4
 928 0111 C0060000 		.4byte	.LASF23
 929 0115 06       		.byte	0x6
 930 0116 27       		.byte	0x27
 931 0117 FA000000 		.4byte	0xfa
 932 011b 04       		.uleb128 0x4
 933 011c E3030000 		.4byte	.LASF24
 934 0120 06       		.byte	0x6
 935 0121 2A       		.byte	0x2a
 936 0122 CF000000 		.4byte	0xcf
 937 0126 04       		.uleb128 0x4
 938 0127 76020000 		.4byte	.LASF25
 939 012b 06       		.byte	0x6
 940 012c 2B       		.byte	0x2b
 941 012d CF000000 		.4byte	0xcf
 942 0131 04       		.uleb128 0x4
 943 0132 FE040000 		.4byte	.LASF26
 944 0136 06       		.byte	0x6
 945 0137 2C       		.byte	0x2c
 946 0138 CF000000 		.4byte	0xcf
 947 013c 04       		.uleb128 0x4
 948 013d 2A050000 		.4byte	.LASF27
 949 0141 06       		.byte	0x6
 950 0142 2E       		.byte	0x2e
 951 0143 FA000000 		.4byte	0xfa
 952 0147 04       		.uleb128 0x4
 953 0148 AE030000 		.4byte	.LASF28
 954 014c 06       		.byte	0x6
 955 014d 2F       		.byte	0x2f
 956 014e EA000000 		.4byte	0xea
 957 0152 04       		.uleb128 0x4
 958 0153 F9030000 		.4byte	.LASF29
 959 0157 06       		.byte	0x6
 960 0158 31       		.byte	0x31
 961 0159 FA000000 		.4byte	0xfa
 962 015d 04       		.uleb128 0x4
 963 015e F6020000 		.4byte	.LASF30
 964 0162 06       		.byte	0x6
 965 0163 33       		.byte	0x33
 966 0164 EA000000 		.4byte	0xea
 967 0168 04       		.uleb128 0x4
 968 0169 B4030000 		.4byte	.LASF31
 969 016d 06       		.byte	0x6
ARM GAS  /tmp/cctbqtZl.s 			page 18


 970 016e 34       		.byte	0x34
 971 016f FA000000 		.4byte	0xfa
 972 0173 04       		.uleb128 0x4
 973 0174 57060000 		.4byte	.LASF32
 974 0178 07       		.byte	0x7
 975 0179 34       		.byte	0x34
 976 017a 7E010000 		.4byte	0x17e
 977 017e 07       		.uleb128 0x7
 978 017f A4030000 		.4byte	.LASF50
 979 0183 44       		.byte	0x44
 980 0184 08       		.byte	0x8
 981 0185 8E       		.byte	0x8e
 982 0186 5C020000 		.4byte	0x25c
 983 018a 08       		.uleb128 0x8
 984 018b 86030000 		.4byte	.LASF33
 985 018f 08       		.byte	0x8
 986 0190 8F       		.byte	0x8f
 987 0191 91020000 		.4byte	0x291
 988 0195 00       		.byte	0
 989 0196 08       		.uleb128 0x8
 990 0197 C9040000 		.4byte	.LASF34
 991 019b 08       		.byte	0x8
 992 019c 90       		.byte	0x90
 993 019d 3C010000 		.4byte	0x13c
 994 01a1 08       		.byte	0x8
 995 01a2 09       		.uleb128 0x9
 996 01a3 63747800 		.ascii	"ctx\000"
 997 01a7 08       		.byte	0x8
 998 01a8 91       		.byte	0x91
 999 01a9 F6040000 		.4byte	0x4f6
 1000 01ad 0C       		.byte	0xc
 1001 01ae 08       		.uleb128 0x8
 1002 01af 2F040000 		.4byte	.LASF35
 1003 01b3 08       		.byte	0x8
 1004 01b4 93       		.byte	0x93
 1005 01b5 67020000 		.4byte	0x267
 1006 01b9 10       		.byte	0x10
 1007 01ba 08       		.uleb128 0x8
 1008 01bb 2F060000 		.4byte	.LASF36
 1009 01bf 08       		.byte	0x8
 1010 01c0 94       		.byte	0x94
 1011 01c1 67020000 		.4byte	0x267
 1012 01c5 14       		.byte	0x14
 1013 01c6 08       		.uleb128 0x8
 1014 01c7 81030000 		.4byte	.LASF37
 1015 01cb 08       		.byte	0x8
 1016 01cc 9B       		.byte	0x9b
 1017 01cd 56070000 		.4byte	0x756
 1018 01d1 18       		.byte	0x18
 1019 01d2 08       		.uleb128 0x8
 1020 01d3 23060000 		.4byte	.LASF38
 1021 01d7 08       		.byte	0x8
 1022 01d8 A4       		.byte	0xa4
 1023 01d9 6D070000 		.4byte	0x76d
 1024 01dd 1C       		.byte	0x1c
 1025 01de 08       		.uleb128 0x8
 1026 01df 67020000 		.4byte	.LASF39
ARM GAS  /tmp/cctbqtZl.s 			page 19


 1027 01e3 08       		.byte	0x8
 1028 01e4 A9       		.byte	0xa9
 1029 01e5 26010000 		.4byte	0x126
 1030 01e9 20       		.byte	0x20
 1031 01ea 08       		.uleb128 0x8
 1032 01eb 27070000 		.4byte	.LASF40
 1033 01ef 08       		.byte	0x8
 1034 01f0 AD       		.byte	0xad
 1035 01f1 1B010000 		.4byte	0x11b
 1036 01f5 21       		.byte	0x21
 1037 01f6 08       		.uleb128 0x8
 1038 01f7 06050000 		.4byte	.LASF41
 1039 01fb 08       		.byte	0x8
 1040 01fc B2       		.byte	0xb2
 1041 01fd 31010000 		.4byte	0x131
 1042 0201 22       		.byte	0x22
 1043 0202 0A       		.uleb128 0xa
 1044 0203 7500     		.ascii	"u\000"
 1045 0205 08       		.byte	0x8
 1046 0206 0301     		.2byte	0x103
 1047 0208 80060000 		.4byte	0x680
 1048 020c 24       		.byte	0x24
 1049 020d 0B       		.uleb128 0xb
 1050 020e C7020000 		.4byte	.LASF42
 1051 0212 08       		.byte	0x8
 1052 0213 0801     		.2byte	0x108
 1053 0215 6D020000 		.4byte	0x26d
 1054 0219 28       		.byte	0x28
 1055 021a 0B       		.uleb128 0xb
 1056 021b 5E020000 		.4byte	.LASF43
 1057 021f 08       		.byte	0x8
 1058 0220 0E01     		.2byte	0x10e
 1059 0222 91020000 		.4byte	0x291
 1060 0226 2C       		.byte	0x2c
 1061 0227 0B       		.uleb128 0xb
 1062 0228 BB030000 		.4byte	.LASF44
 1063 022c 08       		.byte	0x8
 1064 022d 1401     		.2byte	0x114
 1065 022f 52010000 		.4byte	0x152
 1066 0233 34       		.byte	0x34
 1067 0234 0B       		.uleb128 0xb
 1068 0235 79070000 		.4byte	.LASF45
 1069 0239 08       		.byte	0x8
 1070 023a 1B01     		.2byte	0x11b
 1071 023c 50070000 		.4byte	0x750
 1072 0240 38       		.byte	0x38
 1073 0241 0B       		.uleb128 0xb
 1074 0242 35040000 		.4byte	.LASF46
 1075 0246 08       		.byte	0x8
 1076 0247 1F01     		.2byte	0x11f
 1077 0249 3C010000 		.4byte	0x13c
 1078 024d 3C       		.byte	0x3c
 1079 024e 0B       		.uleb128 0xb
 1080 024f 8C030000 		.4byte	.LASF47
 1081 0253 08       		.byte	0x8
 1082 0254 2601     		.2byte	0x126
 1083 0256 44030000 		.4byte	0x344
ARM GAS  /tmp/cctbqtZl.s 			page 20


 1084 025a 40       		.byte	0x40
 1085 025b 00       		.byte	0
 1086 025c 04       		.uleb128 0x4
 1087 025d 4F040000 		.4byte	.LASF48
 1088 0261 07       		.byte	0x7
 1089 0262 39       		.byte	0x39
 1090 0263 67020000 		.4byte	0x267
 1091 0267 0C       		.uleb128 0xc
 1092 0268 04       		.byte	0x4
 1093 0269 73010000 		.4byte	0x173
 1094 026d 04       		.uleb128 0x4
 1095 026e 44070000 		.4byte	.LASF49
 1096 0272 07       		.byte	0x7
 1097 0273 3E       		.byte	0x3e
 1098 0274 78020000 		.4byte	0x278
 1099 0278 07       		.uleb128 0x7
 1100 0279 FB050000 		.4byte	.LASF51
 1101 027d 04       		.byte	0x4
 1102 027e 08       		.byte	0x8
 1103 027f 7C       		.byte	0x7c
 1104 0280 91020000 		.4byte	0x291
 1105 0284 08       		.uleb128 0x8
 1106 0285 00010000 		.4byte	.LASF52
 1107 0289 08       		.byte	0x8
 1108 028a 7D       		.byte	0x7d
 1109 028b 67020000 		.4byte	0x267
 1110 028f 00       		.byte	0
 1111 0290 00       		.byte	0
 1112 0291 04       		.uleb128 0x4
 1113 0292 EF060000 		.4byte	.LASF53
 1114 0296 07       		.byte	0x7
 1115 0297 45       		.byte	0x45
 1116 0298 9C020000 		.4byte	0x29c
 1117 029c 07       		.uleb128 0x7
 1118 029d 05010000 		.4byte	.LASF54
 1119 02a1 08       		.byte	0x8
 1120 02a2 08       		.byte	0x8
 1121 02a3 83       		.byte	0x83
 1122 02a4 C1020000 		.4byte	0x2c1
 1123 02a8 08       		.uleb128 0x8
 1124 02a9 00010000 		.4byte	.LASF52
 1125 02ad 08       		.byte	0x8
 1126 02ae 84       		.byte	0x84
 1127 02af 67020000 		.4byte	0x267
 1128 02b3 00       		.byte	0
 1129 02b4 08       		.uleb128 0x8
 1130 02b5 5D000000 		.4byte	.LASF55
 1131 02b9 08       		.byte	0x8
 1132 02ba 85       		.byte	0x85
 1133 02bb 67020000 		.4byte	0x267
 1134 02bf 04       		.byte	0x4
 1135 02c0 00       		.byte	0
 1136 02c1 04       		.uleb128 0x4
 1137 02c2 00000000 		.4byte	.LASF56
 1138 02c6 07       		.byte	0x7
 1139 02c7 4C       		.byte	0x4c
 1140 02c8 CC020000 		.4byte	0x2cc
ARM GAS  /tmp/cctbqtZl.s 			page 21


 1141 02cc 0D       		.uleb128 0xd
 1142 02cd EB030000 		.4byte	.LASF57
 1143 02d1 1C       		.byte	0x1c
 1144 02d2 08       		.byte	0x8
 1145 02d3 5E01     		.2byte	0x15e
 1146 02d5 28030000 		.4byte	0x328
 1147 02d9 0B       		.uleb128 0xb
 1148 02da 86030000 		.4byte	.LASF33
 1149 02de 08       		.byte	0x8
 1150 02df 5F01     		.2byte	0x15f
 1151 02e1 91020000 		.4byte	0x291
 1152 02e5 00       		.byte	0
 1153 02e6 0B       		.uleb128 0xb
 1154 02e7 C9040000 		.4byte	.LASF34
 1155 02eb 08       		.byte	0x8
 1156 02ec 6001     		.2byte	0x160
 1157 02ee 3C010000 		.4byte	0x13c
 1158 02f2 08       		.byte	0x8
 1159 02f3 0A       		.uleb128 0xa
 1160 02f4 63747800 		.ascii	"ctx\000"
 1161 02f8 08       		.byte	0x8
 1162 02f9 6201     		.2byte	0x162
 1163 02fb F6040000 		.4byte	0x4f6
 1164 02ff 0C       		.byte	0xc
 1165 0300 0B       		.uleb128 0xb
 1166 0301 2F040000 		.4byte	.LASF35
 1167 0305 08       		.byte	0x8
 1168 0306 6501     		.2byte	0x165
 1169 0308 67020000 		.4byte	0x267
 1170 030c 10       		.byte	0x10
 1171 030d 0B       		.uleb128 0xb
 1172 030e 2F060000 		.4byte	.LASF36
 1173 0312 08       		.byte	0x8
 1174 0313 6601     		.2byte	0x166
 1175 0315 67020000 		.4byte	0x267
 1176 0319 14       		.byte	0x14
 1177 031a 0B       		.uleb128 0xb
 1178 031b D7040000 		.4byte	.LASF58
 1179 031f 08       		.byte	0x8
 1180 0320 6901     		.2byte	0x169
 1181 0322 67020000 		.4byte	0x267
 1182 0326 18       		.byte	0x18
 1183 0327 00       		.byte	0
 1184 0328 04       		.uleb128 0x4
 1185 0329 75060000 		.4byte	.LASF59
 1186 032d 07       		.byte	0x7
 1187 032e 51       		.byte	0x51
 1188 032f 33030000 		.4byte	0x333
 1189 0333 0C       		.uleb128 0xc
 1190 0334 04       		.byte	0x4
 1191 0335 39030000 		.4byte	0x339
 1192 0339 0E       		.uleb128 0xe
 1193 033a 44030000 		.4byte	0x344
 1194 033e 0F       		.uleb128 0xf
 1195 033f 44030000 		.4byte	0x344
 1196 0343 00       		.byte	0
 1197 0344 10       		.uleb128 0x10
ARM GAS  /tmp/cctbqtZl.s 			page 22


 1198 0345 04       		.byte	0x4
 1199 0346 04       		.uleb128 0x4
 1200 0347 0B050000 		.4byte	.LASF60
 1201 034b 07       		.byte	0x7
 1202 034c 56       		.byte	0x56
 1203 034d 51030000 		.4byte	0x351
 1204 0351 0D       		.uleb128 0xd
 1205 0352 A9050000 		.4byte	.LASF61
 1206 0356 14       		.byte	0x14
 1207 0357 08       		.byte	0x8
 1208 0358 3901     		.2byte	0x139
 1209 035a A0030000 		.4byte	0x3a0
 1210 035e 0B       		.uleb128 0xb
 1211 035f 00010000 		.4byte	.LASF52
 1212 0363 08       		.byte	0x8
 1213 0364 3A01     		.2byte	0x13a
 1214 0366 73070000 		.4byte	0x773
 1215 036a 00       		.byte	0
 1216 036b 0B       		.uleb128 0xb
 1217 036c 5D000000 		.4byte	.LASF55
 1218 0370 08       		.byte	0x8
 1219 0371 3B01     		.2byte	0x13b
 1220 0373 73070000 		.4byte	0x773
 1221 0377 04       		.byte	0x4
 1222 0378 0B       		.uleb128 0xb
 1223 0379 14000000 		.4byte	.LASF62
 1224 037d 08       		.byte	0x8
 1225 037e 3C01     		.2byte	0x13c
 1226 0380 77040000 		.4byte	0x477
 1227 0384 08       		.byte	0x8
 1228 0385 0B       		.uleb128 0xb
 1229 0386 7F020000 		.4byte	.LASF63
 1230 038a 08       		.byte	0x8
 1231 038b 3D01     		.2byte	0x13d
 1232 038d 28030000 		.4byte	0x328
 1233 0391 0C       		.byte	0xc
 1234 0392 0A       		.uleb128 0xa
 1235 0393 70617200 		.ascii	"par\000"
 1236 0397 08       		.byte	0x8
 1237 0398 3F01     		.2byte	0x13f
 1238 039a 44030000 		.4byte	0x344
 1239 039e 10       		.byte	0x10
 1240 039f 00       		.byte	0
 1241 03a0 04       		.uleb128 0x4
 1242 03a1 CF000000 		.4byte	.LASF64
 1243 03a5 07       		.byte	0x7
 1244 03a6 5B       		.byte	0x5b
 1245 03a7 AB030000 		.4byte	0x3ab
 1246 03ab 0D       		.uleb128 0xd
 1247 03ac 62040000 		.4byte	.LASF65
 1248 03b0 10       		.byte	0x10
 1249 03b1 08       		.byte	0x8
 1250 03b2 4901     		.2byte	0x149
 1251 03b4 ED030000 		.4byte	0x3ed
 1252 03b8 0B       		.uleb128 0xb
 1253 03b9 00010000 		.4byte	.LASF52
 1254 03bd 08       		.byte	0x8
ARM GAS  /tmp/cctbqtZl.s 			page 23


 1255 03be 4A01     		.2byte	0x14a
 1256 03c0 73070000 		.4byte	0x773
 1257 03c4 00       		.byte	0
 1258 03c5 0B       		.uleb128 0xb
 1259 03c6 5D000000 		.4byte	.LASF55
 1260 03ca 08       		.byte	0x8
 1261 03cb 4C01     		.2byte	0x14c
 1262 03cd 73070000 		.4byte	0x773
 1263 03d1 04       		.byte	0x4
 1264 03d2 0B       		.uleb128 0xb
 1265 03d3 14000000 		.4byte	.LASF62
 1266 03d7 08       		.byte	0x8
 1267 03d8 4E01     		.2byte	0x14e
 1268 03da 77040000 		.4byte	0x477
 1269 03de 08       		.byte	0x8
 1270 03df 0B       		.uleb128 0xb
 1271 03e0 79050000 		.4byte	.LASF66
 1272 03e4 08       		.byte	0x8
 1273 03e5 5601     		.2byte	0x156
 1274 03e7 6C040000 		.4byte	0x46c
 1275 03eb 0C       		.byte	0xc
 1276 03ec 00       		.byte	0
 1277 03ed 04       		.uleb128 0x4
 1278 03ee 6E000000 		.4byte	.LASF67
 1279 03f2 07       		.byte	0x7
 1280 03f3 60       		.byte	0x60
 1281 03f4 F8030000 		.4byte	0x3f8
 1282 03f8 0D       		.uleb128 0xd
 1283 03f9 B7020000 		.4byte	.LASF68
 1284 03fd 04       		.byte	0x4
 1285 03fe 08       		.byte	0x8
 1286 03ff 7001     		.2byte	0x170
 1287 0401 13040000 		.4byte	0x413
 1288 0405 0B       		.uleb128 0xb
 1289 0406 7E060000 		.4byte	.LASF69
 1290 040a 08       		.byte	0x8
 1291 040b 7801     		.2byte	0x178
 1292 040d 5C070000 		.4byte	0x75c
 1293 0411 00       		.byte	0
 1294 0412 00       		.byte	0
 1295 0413 04       		.uleb128 0x4
 1296 0414 CF030000 		.4byte	.LASF70
 1297 0418 07       		.byte	0x7
 1298 0419 65       		.byte	0x65
 1299 041a 1E040000 		.4byte	0x41e
 1300 041e 0D       		.uleb128 0xd
 1301 041f 89050000 		.4byte	.LASF71
 1302 0423 78       		.byte	0x78
 1303 0424 08       		.byte	0x8
 1304 0425 9001     		.2byte	0x190
 1305 0427 6C040000 		.4byte	0x46c
 1306 042b 0B       		.uleb128 0xb
 1307 042c CF020000 		.4byte	.LASF72
 1308 0430 08       		.byte	0x8
 1309 0431 9401     		.2byte	0x194
 1310 0433 C1020000 		.4byte	0x2c1
 1311 0437 00       		.byte	0
ARM GAS  /tmp/cctbqtZl.s 			page 24


 1312 0438 0B       		.uleb128 0xb
 1313 0439 57020000 		.4byte	.LASF73
 1314 043d 08       		.byte	0x8
 1315 043e 9801     		.2byte	0x198
 1316 0440 A0030000 		.4byte	0x3a0
 1317 0444 1C       		.byte	0x1c
 1318 0445 0A       		.uleb128 0xa
 1319 0446 64626700 		.ascii	"dbg\000"
 1320 044a 08       		.byte	0x8
 1321 044b 9C01     		.2byte	0x19c
 1322 044d ED030000 		.4byte	0x3ed
 1323 0451 2C       		.byte	0x2c
 1324 0452 0B       		.uleb128 0xb
 1325 0453 BC000000 		.4byte	.LASF74
 1326 0457 08       		.byte	0x8
 1327 0458 A001     		.2byte	0x1a0
 1328 045a 73010000 		.4byte	0x173
 1329 045e 30       		.byte	0x30
 1330 045f 0A       		.uleb128 0xa
 1331 0460 746D00   		.ascii	"tm\000"
 1332 0463 08       		.byte	0x8
 1333 0464 A501     		.2byte	0x1a5
 1334 0466 75060000 		.4byte	0x675
 1335 046a 74       		.byte	0x74
 1336 046b 00       		.byte	0
 1337 046c 04       		.uleb128 0x4
 1338 046d 6B060000 		.4byte	.LASF75
 1339 0471 09       		.byte	0x9
 1340 0472 6D       		.byte	0x6d
 1341 0473 FA000000 		.4byte	0xfa
 1342 0477 04       		.uleb128 0x4
 1343 0478 E8020000 		.4byte	.LASF76
 1344 047c 09       		.byte	0x9
 1345 047d 79       		.byte	0x79
 1346 047e FA000000 		.4byte	0xfa
 1347 0482 03       		.uleb128 0x3
 1348 0483 04       		.byte	0x4
 1349 0484 07       		.byte	0x7
 1350 0485 46040000 		.4byte	.LASF77
 1351 0489 11       		.uleb128 0x11
 1352 048a E5000000 		.4byte	.LASF78
 1353 048e 0A       		.byte	0xa
 1354 048f 0408     		.2byte	0x804
 1355 0491 F5000000 		.4byte	0xf5
 1356 0495 12       		.uleb128 0x12
 1357 0496 12030000 		.4byte	.LASF79
 1358 049a 0B       		.byte	0xb
 1359 049b 4C       		.byte	0x4c
 1360 049c FA000000 		.4byte	0xfa
 1361 04a0 13       		.uleb128 0x13
 1362 04a1 DA000000 		.4byte	0xda
 1363 04a5 B0040000 		.4byte	0x4b0
 1364 04a9 14       		.uleb128 0x14
 1365 04aa 82040000 		.4byte	0x482
 1366 04ae 0F       		.byte	0xf
 1367 04af 00       		.byte	0
 1368 04b0 05       		.uleb128 0x5
ARM GAS  /tmp/cctbqtZl.s 			page 25


 1369 04b1 A0040000 		.4byte	0x4a0
 1370 04b5 12       		.uleb128 0x12
 1371 04b6 05040000 		.4byte	.LASF80
 1372 04ba 0B       		.byte	0xb
 1373 04bb 4E       		.byte	0x4e
 1374 04bc B0040000 		.4byte	0x4b0
 1375 04c0 13       		.uleb128 0x13
 1376 04c1 DA000000 		.4byte	0xda
 1377 04c5 D0040000 		.4byte	0x4d0
 1378 04c9 14       		.uleb128 0x14
 1379 04ca 82040000 		.4byte	0x482
 1380 04ce 07       		.byte	0x7
 1381 04cf 00       		.byte	0
 1382 04d0 05       		.uleb128 0x5
 1383 04d1 C0040000 		.4byte	0x4c0
 1384 04d5 12       		.uleb128 0x12
 1385 04d6 35060000 		.4byte	.LASF81
 1386 04da 0B       		.byte	0xb
 1387 04db 4F       		.byte	0x4f
 1388 04dc D0040000 		.4byte	0x4d0
 1389 04e0 04       		.uleb128 0x4
 1390 04e1 A5020000 		.4byte	.LASF82
 1391 04e5 0C       		.byte	0xc
 1392 04e6 65       		.byte	0x65
 1393 04e7 44030000 		.4byte	0x344
 1394 04eb 04       		.uleb128 0x4
 1395 04ec 24040000 		.4byte	.LASF83
 1396 04f0 0C       		.byte	0xc
 1397 04f1 6D       		.byte	0x6d
 1398 04f2 05010000 		.4byte	0x105
 1399 04f6 07       		.uleb128 0x7
 1400 04f7 AB040000 		.4byte	.LASF84
 1401 04fb 04       		.byte	0x4
 1402 04fc 0C       		.byte	0xc
 1403 04fd 89       		.byte	0x89
 1404 04fe 0E050000 		.4byte	0x50e
 1405 0502 09       		.uleb128 0x9
 1406 0503 737000   		.ascii	"sp\000"
 1407 0506 0C       		.byte	0xc
 1408 0507 8A       		.byte	0x8a
 1409 0508 5A060000 		.4byte	0x65a
 1410 050c 00       		.byte	0
 1411 050d 00       		.byte	0
 1412 050e 0D       		.uleb128 0xd
 1413 050f 62000000 		.4byte	.LASF85
 1414 0513 64       		.byte	0x64
 1415 0514 0D       		.byte	0xd
 1416 0515 5901     		.2byte	0x159
 1417 0517 5A060000 		.4byte	0x65a
 1418 051b 0A       		.uleb128 0xa
 1419 051c 73313600 		.ascii	"s16\000"
 1420 0520 0D       		.byte	0xd
 1421 0521 5B01     		.2byte	0x15b
 1422 0523 E0040000 		.4byte	0x4e0
 1423 0527 00       		.byte	0
 1424 0528 0A       		.uleb128 0xa
 1425 0529 73313700 		.ascii	"s17\000"
ARM GAS  /tmp/cctbqtZl.s 			page 26


 1426 052d 0D       		.byte	0xd
 1427 052e 5C01     		.2byte	0x15c
 1428 0530 E0040000 		.4byte	0x4e0
 1429 0534 04       		.byte	0x4
 1430 0535 0A       		.uleb128 0xa
 1431 0536 73313800 		.ascii	"s18\000"
 1432 053a 0D       		.byte	0xd
 1433 053b 5D01     		.2byte	0x15d
 1434 053d E0040000 		.4byte	0x4e0
 1435 0541 08       		.byte	0x8
 1436 0542 0A       		.uleb128 0xa
 1437 0543 73313900 		.ascii	"s19\000"
 1438 0547 0D       		.byte	0xd
 1439 0548 5E01     		.2byte	0x15e
 1440 054a E0040000 		.4byte	0x4e0
 1441 054e 0C       		.byte	0xc
 1442 054f 0A       		.uleb128 0xa
 1443 0550 73323000 		.ascii	"s20\000"
 1444 0554 0D       		.byte	0xd
 1445 0555 5F01     		.2byte	0x15f
 1446 0557 E0040000 		.4byte	0x4e0
 1447 055b 10       		.byte	0x10
 1448 055c 0A       		.uleb128 0xa
 1449 055d 73323100 		.ascii	"s21\000"
 1450 0561 0D       		.byte	0xd
 1451 0562 6001     		.2byte	0x160
 1452 0564 E0040000 		.4byte	0x4e0
 1453 0568 14       		.byte	0x14
 1454 0569 0A       		.uleb128 0xa
 1455 056a 73323200 		.ascii	"s22\000"
 1456 056e 0D       		.byte	0xd
 1457 056f 6101     		.2byte	0x161
 1458 0571 E0040000 		.4byte	0x4e0
 1459 0575 18       		.byte	0x18
 1460 0576 0A       		.uleb128 0xa
 1461 0577 73323300 		.ascii	"s23\000"
 1462 057b 0D       		.byte	0xd
 1463 057c 6201     		.2byte	0x162
 1464 057e E0040000 		.4byte	0x4e0
 1465 0582 1C       		.byte	0x1c
 1466 0583 0A       		.uleb128 0xa
 1467 0584 73323400 		.ascii	"s24\000"
 1468 0588 0D       		.byte	0xd
 1469 0589 6301     		.2byte	0x163
 1470 058b E0040000 		.4byte	0x4e0
 1471 058f 20       		.byte	0x20
 1472 0590 0A       		.uleb128 0xa
 1473 0591 73323500 		.ascii	"s25\000"
 1474 0595 0D       		.byte	0xd
 1475 0596 6401     		.2byte	0x164
 1476 0598 E0040000 		.4byte	0x4e0
 1477 059c 24       		.byte	0x24
 1478 059d 0A       		.uleb128 0xa
 1479 059e 73323600 		.ascii	"s26\000"
 1480 05a2 0D       		.byte	0xd
 1481 05a3 6501     		.2byte	0x165
 1482 05a5 E0040000 		.4byte	0x4e0
ARM GAS  /tmp/cctbqtZl.s 			page 27


 1483 05a9 28       		.byte	0x28
 1484 05aa 0A       		.uleb128 0xa
 1485 05ab 73323700 		.ascii	"s27\000"
 1486 05af 0D       		.byte	0xd
 1487 05b0 6601     		.2byte	0x166
 1488 05b2 E0040000 		.4byte	0x4e0
 1489 05b6 2C       		.byte	0x2c
 1490 05b7 0A       		.uleb128 0xa
 1491 05b8 73323800 		.ascii	"s28\000"
 1492 05bc 0D       		.byte	0xd
 1493 05bd 6701     		.2byte	0x167
 1494 05bf E0040000 		.4byte	0x4e0
 1495 05c3 30       		.byte	0x30
 1496 05c4 0A       		.uleb128 0xa
 1497 05c5 73323900 		.ascii	"s29\000"
 1498 05c9 0D       		.byte	0xd
 1499 05ca 6801     		.2byte	0x168
 1500 05cc E0040000 		.4byte	0x4e0
 1501 05d0 34       		.byte	0x34
 1502 05d1 0A       		.uleb128 0xa
 1503 05d2 73333000 		.ascii	"s30\000"
 1504 05d6 0D       		.byte	0xd
 1505 05d7 6901     		.2byte	0x169
 1506 05d9 E0040000 		.4byte	0x4e0
 1507 05dd 38       		.byte	0x38
 1508 05de 0A       		.uleb128 0xa
 1509 05df 73333100 		.ascii	"s31\000"
 1510 05e3 0D       		.byte	0xd
 1511 05e4 6A01     		.2byte	0x16a
 1512 05e6 E0040000 		.4byte	0x4e0
 1513 05ea 3C       		.byte	0x3c
 1514 05eb 0A       		.uleb128 0xa
 1515 05ec 723400   		.ascii	"r4\000"
 1516 05ef 0D       		.byte	0xd
 1517 05f0 6C01     		.2byte	0x16c
 1518 05f2 E0040000 		.4byte	0x4e0
 1519 05f6 40       		.byte	0x40
 1520 05f7 0A       		.uleb128 0xa
 1521 05f8 723500   		.ascii	"r5\000"
 1522 05fb 0D       		.byte	0xd
 1523 05fc 6D01     		.2byte	0x16d
 1524 05fe E0040000 		.4byte	0x4e0
 1525 0602 44       		.byte	0x44
 1526 0603 0A       		.uleb128 0xa
 1527 0604 723600   		.ascii	"r6\000"
 1528 0607 0D       		.byte	0xd
 1529 0608 6E01     		.2byte	0x16e
 1530 060a E0040000 		.4byte	0x4e0
 1531 060e 48       		.byte	0x48
 1532 060f 0A       		.uleb128 0xa
 1533 0610 723700   		.ascii	"r7\000"
 1534 0613 0D       		.byte	0xd
 1535 0614 6F01     		.2byte	0x16f
 1536 0616 E0040000 		.4byte	0x4e0
 1537 061a 4C       		.byte	0x4c
 1538 061b 0A       		.uleb128 0xa
 1539 061c 723800   		.ascii	"r8\000"
ARM GAS  /tmp/cctbqtZl.s 			page 28


 1540 061f 0D       		.byte	0xd
 1541 0620 7001     		.2byte	0x170
 1542 0622 E0040000 		.4byte	0x4e0
 1543 0626 50       		.byte	0x50
 1544 0627 0A       		.uleb128 0xa
 1545 0628 723900   		.ascii	"r9\000"
 1546 062b 0D       		.byte	0xd
 1547 062c 7101     		.2byte	0x171
 1548 062e E0040000 		.4byte	0x4e0
 1549 0632 54       		.byte	0x54
 1550 0633 0A       		.uleb128 0xa
 1551 0634 72313000 		.ascii	"r10\000"
 1552 0638 0D       		.byte	0xd
 1553 0639 7201     		.2byte	0x172
 1554 063b E0040000 		.4byte	0x4e0
 1555 063f 58       		.byte	0x58
 1556 0640 0A       		.uleb128 0xa
 1557 0641 72313100 		.ascii	"r11\000"
 1558 0645 0D       		.byte	0xd
 1559 0646 7301     		.2byte	0x173
 1560 0648 E0040000 		.4byte	0x4e0
 1561 064c 5C       		.byte	0x5c
 1562 064d 0A       		.uleb128 0xa
 1563 064e 6C7200   		.ascii	"lr\000"
 1564 0651 0D       		.byte	0xd
 1565 0652 7401     		.2byte	0x174
 1566 0654 E0040000 		.4byte	0x4e0
 1567 0658 60       		.byte	0x60
 1568 0659 00       		.byte	0
 1569 065a 0C       		.uleb128 0xc
 1570 065b 04       		.byte	0x4
 1571 065c 0E050000 		.4byte	0x50e
 1572 0660 15       		.uleb128 0x15
 1573 0661 04       		.byte	0x4
 1574 0662 0E       		.byte	0xe
 1575 0663 38       		.byte	0x38
 1576 0664 75060000 		.4byte	0x675
 1577 0668 08       		.uleb128 0x8
 1578 0669 88060000 		.4byte	.LASF86
 1579 066d 0E       		.byte	0xe
 1580 066e 3C       		.byte	0x3c
 1581 066f 10010000 		.4byte	0x110
 1582 0673 00       		.byte	0
 1583 0674 00       		.byte	0
 1584 0675 04       		.uleb128 0x4
 1585 0676 B8040000 		.4byte	.LASF87
 1586 067a 0E       		.byte	0xe
 1587 067b 3D       		.byte	0x3d
 1588 067c 60060000 		.4byte	0x660
 1589 0680 16       		.uleb128 0x16
 1590 0681 04       		.byte	0x4
 1591 0682 08       		.byte	0x8
 1592 0683 C6       		.byte	0xc6
 1593 0684 E2060000 		.4byte	0x6e2
 1594 0688 17       		.uleb128 0x17
 1595 0689 A2050000 		.4byte	.LASF88
 1596 068d 08       		.byte	0x8
ARM GAS  /tmp/cctbqtZl.s 			page 29


 1597 068e CD       		.byte	0xcd
 1598 068f 47010000 		.4byte	0x147
 1599 0693 17       		.uleb128 0x17
 1600 0694 B3000000 		.4byte	.LASF89
 1601 0698 08       		.byte	0x8
 1602 0699 D4       		.byte	0xd4
 1603 069a 47010000 		.4byte	0x147
 1604 069e 17       		.uleb128 0x17
 1605 069f 37070000 		.4byte	.LASF90
 1606 06a3 08       		.byte	0x8
 1607 06a4 DB       		.byte	0xdb
 1608 06a5 44030000 		.4byte	0x344
 1609 06a9 17       		.uleb128 0x17
 1610 06aa 29030000 		.4byte	.LASF91
 1611 06ae 08       		.byte	0x8
 1612 06af E2       		.byte	0xe2
 1613 06b0 E2060000 		.4byte	0x6e2
 1614 06b4 17       		.uleb128 0x17
 1615 06b5 C7000000 		.4byte	.LASF92
 1616 06b9 08       		.byte	0x8
 1617 06ba E7       		.byte	0xe7
 1618 06bb 47010000 		.4byte	0x147
 1619 06bf 17       		.uleb128 0x17
 1620 06c0 22030000 		.4byte	.LASF93
 1621 06c4 08       		.byte	0x8
 1622 06c5 F0       		.byte	0xf0
 1623 06c6 0D070000 		.4byte	0x70d
 1624 06ca 17       		.uleb128 0x17
 1625 06cb F4050000 		.4byte	.LASF94
 1626 06cf 08       		.byte	0x8
 1627 06d0 F9       		.byte	0xf9
 1628 06d1 50070000 		.4byte	0x750
 1629 06d5 18       		.uleb128 0x18
 1630 06d6 82050000 		.4byte	.LASF95
 1631 06da 08       		.byte	0x8
 1632 06db 0101     		.2byte	0x101
 1633 06dd 52010000 		.4byte	0x152
 1634 06e1 00       		.byte	0
 1635 06e2 0C       		.uleb128 0xc
 1636 06e3 04       		.byte	0x4
 1637 06e4 5C020000 		.4byte	0x25c
 1638 06e8 07       		.uleb128 0x7
 1639 06e9 BA050000 		.4byte	.LASF96
 1640 06ed 0C       		.byte	0xc
 1641 06ee 0F       		.byte	0xf
 1642 06ef 34       		.byte	0x34
 1643 06f0 0D070000 		.4byte	0x70d
 1644 06f4 08       		.uleb128 0x8
 1645 06f5 86030000 		.4byte	.LASF33
 1646 06f9 0F       		.byte	0xf
 1647 06fa 35       		.byte	0x35
 1648 06fb 91020000 		.4byte	0x291
 1649 06ff 00       		.byte	0
 1650 0700 09       		.uleb128 0x9
 1651 0701 636E7400 		.ascii	"cnt\000"
 1652 0705 0F       		.byte	0xf
 1653 0706 37       		.byte	0x37
ARM GAS  /tmp/cctbqtZl.s 			page 30


 1654 0707 5D010000 		.4byte	0x15d
 1655 070b 08       		.byte	0x8
 1656 070c 00       		.byte	0
 1657 070d 0C       		.uleb128 0xc
 1658 070e 04       		.byte	0x4
 1659 070f E8060000 		.4byte	0x6e8
 1660 0713 07       		.uleb128 0x7
 1661 0714 8F060000 		.4byte	.LASF97
 1662 0718 14       		.byte	0x14
 1663 0719 10       		.byte	0x10
 1664 071a 39       		.byte	0x39
 1665 071b 50070000 		.4byte	0x750
 1666 071f 08       		.uleb128 0x8
 1667 0720 86030000 		.4byte	.LASF33
 1668 0724 10       		.byte	0x10
 1669 0725 3A       		.byte	0x3a
 1670 0726 91020000 		.4byte	0x291
 1671 072a 00       		.byte	0
 1672 072b 08       		.uleb128 0x8
 1673 072c 0B060000 		.4byte	.LASF98
 1674 0730 10       		.byte	0x10
 1675 0731 3C       		.byte	0x3c
 1676 0732 67020000 		.4byte	0x267
 1677 0736 08       		.byte	0x8
 1678 0737 08       		.uleb128 0x8
 1679 0738 00010000 		.4byte	.LASF52
 1680 073c 10       		.byte	0x10
 1681 073d 3E       		.byte	0x3e
 1682 073e B2080000 		.4byte	0x8b2
 1683 0742 0C       		.byte	0xc
 1684 0743 09       		.uleb128 0x9
 1685 0744 636E7400 		.ascii	"cnt\000"
 1686 0748 10       		.byte	0x10
 1687 0749 41       		.byte	0x41
 1688 074a 5D010000 		.4byte	0x15d
 1689 074e 10       		.byte	0x10
 1690 074f 00       		.byte	0
 1691 0750 0C       		.uleb128 0xc
 1692 0751 04       		.byte	0x4
 1693 0752 13070000 		.4byte	0x713
 1694 0756 0C       		.uleb128 0xc
 1695 0757 04       		.byte	0x4
 1696 0758 68070000 		.4byte	0x768
 1697 075c 06       		.uleb128 0x6
 1698 075d 56070000 		.4byte	0x756
 1699 0761 03       		.uleb128 0x3
 1700 0762 01       		.byte	0x1
 1701 0763 08       		.byte	0x8
 1702 0764 2A060000 		.4byte	.LASF99
 1703 0768 05       		.uleb128 0x5
 1704 0769 61070000 		.4byte	0x761
 1705 076d 0C       		.uleb128 0xc
 1706 076e 04       		.byte	0x4
 1707 076f EB040000 		.4byte	0x4eb
 1708 0773 0C       		.uleb128 0xc
 1709 0774 04       		.byte	0x4
 1710 0775 46030000 		.4byte	0x346
ARM GAS  /tmp/cctbqtZl.s 			page 31


 1711 0779 19       		.uleb128 0x19
 1712 077a 636800   		.ascii	"ch\000"
 1713 077d 08       		.byte	0x8
 1714 077e C701     		.2byte	0x1c7
 1715 0780 13040000 		.4byte	0x413
 1716 0784 13       		.uleb128 0x13
 1717 0785 EB040000 		.4byte	0x4eb
 1718 0789 8F070000 		.4byte	0x78f
 1719 078d 1A       		.uleb128 0x1a
 1720 078e 00       		.byte	0
 1721 078f 11       		.uleb128 0x11
 1722 0790 D0050000 		.4byte	.LASF100
 1723 0794 11       		.byte	0x11
 1724 0795 1701     		.2byte	0x117
 1725 0797 84070000 		.4byte	0x784
 1726 079b 15       		.uleb128 0x15
 1727 079c 16       		.byte	0x16
 1728 079d 12       		.byte	0x12
 1729 079e 34       		.byte	0x34
 1730 079f 7C080000 		.4byte	0x87c
 1731 07a3 08       		.uleb128 0x8
 1732 07a4 B5060000 		.4byte	.LASF101
 1733 07a8 12       		.byte	0x12
 1734 07a9 35       		.byte	0x35
 1735 07aa 7C080000 		.4byte	0x87c
 1736 07ae 00       		.byte	0
 1737 07af 08       		.uleb128 0x8
 1738 07b0 D5020000 		.4byte	.LASF102
 1739 07b4 12       		.byte	0x12
 1740 07b5 36       		.byte	0x36
 1741 07b6 CF000000 		.4byte	0xcf
 1742 07ba 04       		.byte	0x4
 1743 07bb 08       		.uleb128 0x8
 1744 07bc 3C010000 		.4byte	.LASF103
 1745 07c0 12       		.byte	0x12
 1746 07c1 37       		.byte	0x37
 1747 07c2 CF000000 		.4byte	0xcf
 1748 07c6 05       		.byte	0x5
 1749 07c7 08       		.uleb128 0x8
 1750 07c8 3E040000 		.4byte	.LASF104
 1751 07cc 12       		.byte	0x12
 1752 07cd 38       		.byte	0x38
 1753 07ce DF000000 		.4byte	0xdf
 1754 07d2 06       		.byte	0x6
 1755 07d3 08       		.uleb128 0x8
 1756 07d4 D4060000 		.4byte	.LASF105
 1757 07d8 12       		.byte	0x12
 1758 07d9 39       		.byte	0x39
 1759 07da CF000000 		.4byte	0xcf
 1760 07de 08       		.byte	0x8
 1761 07df 08       		.uleb128 0x8
 1762 07e0 E2050000 		.4byte	.LASF106
 1763 07e4 12       		.byte	0x12
 1764 07e5 3A       		.byte	0x3a
 1765 07e6 CF000000 		.4byte	0xcf
 1766 07ea 09       		.byte	0x9
 1767 07eb 08       		.uleb128 0x8
ARM GAS  /tmp/cctbqtZl.s 			page 32


 1768 07ec 32050000 		.4byte	.LASF107
 1769 07f0 12       		.byte	0x12
 1770 07f1 3B       		.byte	0x3b
 1771 07f2 CF000000 		.4byte	0xcf
 1772 07f6 0A       		.byte	0xa
 1773 07f7 08       		.uleb128 0x8
 1774 07f8 59050000 		.4byte	.LASF108
 1775 07fc 12       		.byte	0x12
 1776 07fd 3C       		.byte	0x3c
 1777 07fe CF000000 		.4byte	0xcf
 1778 0802 0B       		.byte	0xb
 1779 0803 08       		.uleb128 0x8
 1780 0804 DB030000 		.4byte	.LASF109
 1781 0808 12       		.byte	0x12
 1782 0809 3D       		.byte	0x3d
 1783 080a CF000000 		.4byte	0xcf
 1784 080e 0C       		.byte	0xc
 1785 080f 08       		.uleb128 0x8
 1786 0810 9C040000 		.4byte	.LASF110
 1787 0814 12       		.byte	0x12
 1788 0815 3E       		.byte	0x3e
 1789 0816 CF000000 		.4byte	0xcf
 1790 081a 0D       		.byte	0xd
 1791 081b 08       		.uleb128 0x8
 1792 081c 98060000 		.4byte	.LASF111
 1793 0820 12       		.byte	0x12
 1794 0821 3F       		.byte	0x3f
 1795 0822 CF000000 		.4byte	0xcf
 1796 0826 0E       		.byte	0xe
 1797 0827 08       		.uleb128 0x8
 1798 0828 0B070000 		.4byte	.LASF112
 1799 082c 12       		.byte	0x12
 1800 082d 40       		.byte	0x40
 1801 082e CF000000 		.4byte	0xcf
 1802 0832 0F       		.byte	0xf
 1803 0833 08       		.uleb128 0x8
 1804 0834 62050000 		.4byte	.LASF113
 1805 0838 12       		.byte	0x12
 1806 0839 41       		.byte	0x41
 1807 083a CF000000 		.4byte	0xcf
 1808 083e 10       		.byte	0x10
 1809 083f 08       		.uleb128 0x8
 1810 0840 53070000 		.4byte	.LASF114
 1811 0844 12       		.byte	0x12
 1812 0845 42       		.byte	0x42
 1813 0846 CF000000 		.4byte	0xcf
 1814 084a 11       		.byte	0x11
 1815 084b 08       		.uleb128 0x8
 1816 084c 6F070000 		.4byte	.LASF115
 1817 0850 12       		.byte	0x12
 1818 0851 43       		.byte	0x43
 1819 0852 CF000000 		.4byte	0xcf
 1820 0856 12       		.byte	0x12
 1821 0857 08       		.uleb128 0x8
 1822 0858 92030000 		.4byte	.LASF116
 1823 085c 12       		.byte	0x12
 1824 085d 44       		.byte	0x44
ARM GAS  /tmp/cctbqtZl.s 			page 33


 1825 085e CF000000 		.4byte	0xcf
 1826 0862 13       		.byte	0x13
 1827 0863 08       		.uleb128 0x8
 1828 0864 8E020000 		.4byte	.LASF117
 1829 0868 12       		.byte	0x12
 1830 0869 45       		.byte	0x45
 1831 086a CF000000 		.4byte	0xcf
 1832 086e 14       		.byte	0x14
 1833 086f 08       		.uleb128 0x8
 1834 0870 C7050000 		.4byte	.LASF118
 1835 0874 12       		.byte	0x12
 1836 0875 46       		.byte	0x46
 1837 0876 CF000000 		.4byte	0xcf
 1838 087a 15       		.byte	0x15
 1839 087b 00       		.byte	0
 1840 087c 13       		.uleb128 0x13
 1841 087d 61070000 		.4byte	0x761
 1842 0881 8C080000 		.4byte	0x88c
 1843 0885 14       		.uleb128 0x14
 1844 0886 82040000 		.4byte	0x482
 1845 088a 03       		.byte	0x3
 1846 088b 00       		.byte	0
 1847 088c 04       		.uleb128 0x4
 1848 088d 84020000 		.4byte	.LASF119
 1849 0891 12       		.byte	0x12
 1850 0892 47       		.byte	0x47
 1851 0893 9B070000 		.4byte	0x79b
 1852 0897 05       		.uleb128 0x5
 1853 0898 8C080000 		.4byte	0x88c
 1854 089c 12       		.uleb128 0x12
 1855 089d 5F030000 		.4byte	.LASF120
 1856 08a1 12       		.byte	0x12
 1857 08a2 6C       		.byte	0x6c
 1858 08a3 97080000 		.4byte	0x897
 1859 08a7 04       		.uleb128 0x4
 1860 08a8 DA020000 		.4byte	.LASF121
 1861 08ac 10       		.byte	0x10
 1862 08ad 34       		.byte	0x34
 1863 08ae 13070000 		.4byte	0x713
 1864 08b2 0C       		.uleb128 0xc
 1865 08b3 04       		.byte	0x4
 1866 08b4 A7080000 		.4byte	0x8a7
 1867 08b8 03       		.uleb128 0x3
 1868 08b9 01       		.byte	0x1
 1869 08ba 02       		.byte	0x2
 1870 08bb 3D050000 		.4byte	.LASF122
 1871 08bf 04       		.uleb128 0x4
 1872 08c0 8F000000 		.4byte	.LASF123
 1873 08c4 13       		.byte	0x13
 1874 08c5 47       		.byte	0x47
 1875 08c6 CA080000 		.4byte	0x8ca
 1876 08ca 0C       		.uleb128 0xc
 1877 08cb 04       		.byte	0x4
 1878 08cc D0080000 		.4byte	0x8d0
 1879 08d0 1B       		.uleb128 0x1b
 1880 08d1 44030000 		.4byte	0x344
 1881 08d5 E4080000 		.4byte	0x8e4
ARM GAS  /tmp/cctbqtZl.s 			page 34


 1882 08d9 0F       		.uleb128 0xf
 1883 08da 78000000 		.4byte	0x78
 1884 08de 0F       		.uleb128 0xf
 1885 08df 2C000000 		.4byte	0x2c
 1886 08e3 00       		.byte	0
 1887 08e4 15       		.uleb128 0x15
 1888 08e5 08       		.byte	0x8
 1889 08e6 13       		.byte	0x13
 1890 08e7 51       		.byte	0x51
 1891 08e8 05090000 		.4byte	0x905
 1892 08ec 08       		.uleb128 0x8
 1893 08ed 81070000 		.4byte	.LASF124
 1894 08f1 13       		.byte	0x13
 1895 08f2 55       		.byte	0x55
 1896 08f3 05090000 		.4byte	0x905
 1897 08f7 00       		.byte	0
 1898 08f8 08       		.uleb128 0x8
 1899 08f9 13040000 		.4byte	.LASF125
 1900 08fd 13       		.byte	0x13
 1901 08fe 59       		.byte	0x59
 1902 08ff 05090000 		.4byte	0x905
 1903 0903 04       		.byte	0x4
 1904 0904 00       		.byte	0
 1905 0905 0C       		.uleb128 0xc
 1906 0906 04       		.byte	0x4
 1907 0907 CF000000 		.4byte	0xcf
 1908 090b 04       		.uleb128 0x4
 1909 090c EA040000 		.4byte	.LASF126
 1910 0910 13       		.byte	0x13
 1911 0911 5A       		.byte	0x5a
 1912 0912 E4080000 		.4byte	0x8e4
 1913 0916 12       		.uleb128 0x12
 1914 0917 60060000 		.4byte	.LASF127
 1915 091b 13       		.byte	0x13
 1916 091c 65       		.byte	0x65
 1917 091d 0B090000 		.4byte	0x90b
 1918 0921 07       		.uleb128 0x7
 1919 0922 FF060000 		.4byte	.LASF128
 1920 0926 04       		.byte	0x4
 1921 0927 14       		.byte	0x14
 1922 0928 38       		.byte	0x38
 1923 0929 3A090000 		.4byte	0x93a
 1924 092d 08       		.uleb128 0x8
 1925 092e 00010000 		.4byte	.LASF52
 1926 0932 14       		.byte	0x14
 1927 0933 39       		.byte	0x39
 1928 0934 3A090000 		.4byte	0x93a
 1929 0938 00       		.byte	0
 1930 0939 00       		.byte	0
 1931 093a 0C       		.uleb128 0xc
 1932 093b 04       		.byte	0x4
 1933 093c 21090000 		.4byte	0x921
 1934 0940 15       		.uleb128 0x15
 1935 0941 10       		.byte	0x10
 1936 0942 14       		.byte	0x14
 1937 0943 40       		.byte	0x40
 1938 0944 79090000 		.4byte	0x979
ARM GAS  /tmp/cctbqtZl.s 			page 35


 1939 0948 08       		.uleb128 0x8
 1940 0949 00010000 		.4byte	.LASF52
 1941 094d 14       		.byte	0x14
 1942 094e 41       		.byte	0x41
 1943 094f 3A090000 		.4byte	0x93a
 1944 0953 00       		.byte	0
 1945 0954 08       		.uleb128 0x8
 1946 0955 C8060000 		.4byte	.LASF129
 1947 0959 14       		.byte	0x14
 1948 095a 42       		.byte	0x42
 1949 095b 78000000 		.4byte	0x78
 1950 095f 04       		.byte	0x4
 1951 0960 08       		.uleb128 0x8
 1952 0961 E2020000 		.4byte	.LASF130
 1953 0965 14       		.byte	0x14
 1954 0966 44       		.byte	0x44
 1955 0967 2C000000 		.4byte	0x2c
 1956 096b 08       		.byte	0x8
 1957 096c 08       		.uleb128 0x8
 1958 096d 7D000000 		.4byte	.LASF131
 1959 0971 14       		.byte	0x14
 1960 0972 45       		.byte	0x45
 1961 0973 BF080000 		.4byte	0x8bf
 1962 0977 0C       		.byte	0xc
 1963 0978 00       		.byte	0
 1964 0979 04       		.uleb128 0x4
 1965 097a 73030000 		.4byte	.LASF132
 1966 097e 14       		.byte	0x14
 1967 097f 47       		.byte	0x47
 1968 0980 40090000 		.4byte	0x940
 1969 0984 07       		.uleb128 0x7
 1970 0985 1B050000 		.4byte	.LASF133
 1971 0989 10       		.byte	0x10
 1972 098a 15       		.byte	0x15
 1973 098b A9       		.byte	0xa9
 1974 098c B5090000 		.4byte	0x9b5
 1975 0990 08       		.uleb128 0x8
 1976 0991 00010000 		.4byte	.LASF52
 1977 0995 15       		.byte	0x15
 1978 0996 AD       		.byte	0xad
 1979 0997 B5090000 		.4byte	0x9b5
 1980 099b 00       		.byte	0
 1981 099c 08       		.uleb128 0x8
 1982 099d 06050000 		.4byte	.LASF41
 1983 09a1 15       		.byte	0x15
 1984 09a2 B1       		.byte	0xb1
 1985 09a3 68010000 		.4byte	0x168
 1986 09a7 04       		.byte	0x4
 1987 09a8 08       		.uleb128 0x8
 1988 09a9 81030000 		.4byte	.LASF37
 1989 09ad 15       		.byte	0x15
 1990 09ae B3       		.byte	0xb3
 1991 09af BB090000 		.4byte	0x9bb
 1992 09b3 08       		.byte	0x8
 1993 09b4 00       		.byte	0
 1994 09b5 0C       		.uleb128 0xc
 1995 09b6 04       		.byte	0x4
ARM GAS  /tmp/cctbqtZl.s 			page 36


 1996 09b7 84090000 		.4byte	0x984
 1997 09bb 13       		.uleb128 0x13
 1998 09bc 61070000 		.4byte	0x761
 1999 09c0 CB090000 		.4byte	0x9cb
 2000 09c4 14       		.uleb128 0x14
 2001 09c5 82040000 		.4byte	0x482
 2002 09c9 07       		.byte	0x7
 2003 09ca 00       		.byte	0
 2004 09cb 04       		.uleb128 0x4
 2005 09cc F2000000 		.4byte	.LASF134
 2006 09d0 15       		.byte	0x15
 2007 09d1 B7       		.byte	0xb7
 2008 09d2 84090000 		.4byte	0x984
 2009 09d6 07       		.uleb128 0x7
 2010 09d7 85040000 		.4byte	.LASF135
 2011 09db 04       		.byte	0x4
 2012 09dc 15       		.byte	0x15
 2013 09dd BC       		.byte	0xbc
 2014 09de EF090000 		.4byte	0x9ef
 2015 09e2 08       		.uleb128 0x8
 2016 09e3 00010000 		.4byte	.LASF52
 2017 09e7 15       		.byte	0x15
 2018 09e8 BD       		.byte	0xbd
 2019 09e9 EF090000 		.4byte	0x9ef
 2020 09ed 00       		.byte	0
 2021 09ee 00       		.byte	0
 2022 09ef 0C       		.uleb128 0xc
 2023 09f0 04       		.byte	0x4
 2024 09f1 CB090000 		.4byte	0x9cb
 2025 09f5 04       		.uleb128 0x4
 2026 09f6 C4030000 		.4byte	.LASF136
 2027 09fa 15       		.byte	0x15
 2028 09fb BE       		.byte	0xbe
 2029 09fc D6090000 		.4byte	0x9d6
 2030 0a00 0D       		.uleb128 0xd
 2031 0a01 DC060000 		.4byte	.LASF137
 2032 0a05 48       		.byte	0x48
 2033 0a06 15       		.byte	0x15
 2034 0a07 3E01     		.2byte	0x13e
 2035 0a09 760A0000 		.4byte	0xa76
 2036 0a0d 0A       		.uleb128 0xa
 2037 0a0e 6D747800 		.ascii	"mtx\000"
 2038 0a12 15       		.byte	0x15
 2039 0a13 4301     		.2byte	0x143
 2040 0a15 A7080000 		.4byte	0x8a7
 2041 0a19 00       		.byte	0
 2042 0a1a 0B       		.uleb128 0xb
 2043 0a1b 43060000 		.4byte	.LASF138
 2044 0a1f 15       		.byte	0x15
 2045 0a20 4A01     		.2byte	0x14a
 2046 0a22 F5090000 		.4byte	0x9f5
 2047 0a26 14       		.byte	0x14
 2048 0a27 0B       		.uleb128 0xb
 2049 0a28 93050000 		.4byte	.LASF139
 2050 0a2c 15       		.byte	0x15
 2051 0a2d 4E01     		.2byte	0x14e
 2052 0a2f 79090000 		.4byte	0x979
ARM GAS  /tmp/cctbqtZl.s 			page 37


 2053 0a33 18       		.byte	0x18
 2054 0a34 0B       		.uleb128 0xb
 2055 0a35 9B030000 		.4byte	.LASF140
 2056 0a39 15       		.byte	0x15
 2057 0a3a 5301     		.2byte	0x153
 2058 0a3c F5090000 		.4byte	0x9f5
 2059 0a40 28       		.byte	0x28
 2060 0a41 0B       		.uleb128 0xb
 2061 0a42 86000000 		.4byte	.LASF141
 2062 0a46 15       		.byte	0x15
 2063 0a47 5901     		.2byte	0x159
 2064 0a49 F5090000 		.4byte	0x9f5
 2065 0a4d 2C       		.byte	0x2c
 2066 0a4e 0B       		.uleb128 0xb
 2067 0a4f CE040000 		.4byte	.LASF142
 2068 0a53 15       		.byte	0x15
 2069 0a54 5D01     		.2byte	0x15d
 2070 0a56 79090000 		.4byte	0x979
 2071 0a5a 30       		.byte	0x30
 2072 0a5b 0B       		.uleb128 0xb
 2073 0a5c AE020000 		.4byte	.LASF143
 2074 0a60 15       		.byte	0x15
 2075 0a61 6301     		.2byte	0x163
 2076 0a63 F5090000 		.4byte	0x9f5
 2077 0a67 40       		.byte	0x40
 2078 0a68 0B       		.uleb128 0xb
 2079 0a69 2D070000 		.4byte	.LASF144
 2080 0a6d 15       		.byte	0x15
 2081 0a6e 6901     		.2byte	0x169
 2082 0a70 F5090000 		.4byte	0x9f5
 2083 0a74 44       		.byte	0x44
 2084 0a75 00       		.byte	0
 2085 0a76 1C       		.uleb128 0x1c
 2086 0a77 5D070000 		.4byte	.LASF145
 2087 0a7b 15       		.byte	0x15
 2088 0a7c 7101     		.2byte	0x171
 2089 0a7e 000A0000 		.4byte	0xa00
 2090 0a82 11       		.uleb128 0x11
 2091 0a83 68030000 		.4byte	.LASF146
 2092 0a87 15       		.byte	0x15
 2093 0a88 7C01     		.2byte	0x17c
 2094 0a8a 760A0000 		.4byte	0xa76
 2095 0a8e 13       		.uleb128 0x13
 2096 0a8f 5E000000 		.4byte	0x5e
 2097 0a93 9E0A0000 		.4byte	0xa9e
 2098 0a97 14       		.uleb128 0x14
 2099 0a98 82040000 		.4byte	0x482
 2100 0a9c 7F       		.byte	0x7f
 2101 0a9d 00       		.byte	0
 2102 0a9e 05       		.uleb128 0x5
 2103 0a9f 8E0A0000 		.4byte	0xa8e
 2104 0aa3 1D       		.uleb128 0x1d
 2105 0aa4 9C050000 		.4byte	.LASF147
 2106 0aa8 01       		.byte	0x1
 2107 0aa9 EB3A     		.2byte	0x3aeb
 2108 0aab 9E0A0000 		.4byte	0xa9e
 2109 0aaf 05       		.uleb128 0x5
ARM GAS  /tmp/cctbqtZl.s 			page 38


 2110 0ab0 03       		.byte	0x3
 2111 0ab1 00000000 		.4byte	uc850
 2112 0ab5 1E       		.uleb128 0x1e
 2113 0ab6 30010000 		.4byte	.LASF150
 2114 0aba 01       		.byte	0x1
 2115 0abb 773C     		.2byte	0x3c77
 2116 0abd 53000000 		.4byte	0x53
 2117 0ac1 00000000 		.4byte	.LFB292
 2118 0ac5 84000000 		.4byte	.LFE292-.LFB292
 2119 0ac9 01       		.uleb128 0x1
 2120 0aca 9C       		.byte	0x9c
 2121 0acb 400B0000 		.4byte	0xb40
 2122 0acf 1F       		.uleb128 0x1f
 2123 0ad0 756E6900 		.ascii	"uni\000"
 2124 0ad4 01       		.byte	0x1
 2125 0ad5 783C     		.2byte	0x3c78
 2126 0ad7 53000000 		.4byte	0x53
 2127 0adb 00000000 		.4byte	.LLST5
 2128 0adf 1D       		.uleb128 0x1d
 2129 0ae0 F4040000 		.4byte	.LASF148
 2130 0ae4 01       		.byte	0x1
 2131 0ae5 7C3C     		.2byte	0x3c7c
 2132 0ae7 500B0000 		.4byte	0xb50
 2133 0aeb 05       		.uleb128 0x5
 2134 0aec 03       		.byte	0x3
 2135 0aed 00000000 		.4byte	cvt1.8363
 2136 0af1 1D       		.uleb128 0x1d
 2137 0af2 F9040000 		.4byte	.LASF149
 2138 0af6 01       		.byte	0x1
 2139 0af7 943C     		.2byte	0x3c94
 2140 0af9 650B0000 		.4byte	0xb65
 2141 0afd 05       		.uleb128 0x5
 2142 0afe 03       		.byte	0x3
 2143 0aff 00000000 		.4byte	cvt2.8364
 2144 0b03 20       		.uleb128 0x20
 2145 0b04 7000     		.ascii	"p\000"
 2146 0b06 01       		.byte	0x1
 2147 0b07 B03C     		.2byte	0x3cb0
 2148 0b09 6A0B0000 		.4byte	0xb6a
 2149 0b0d F4000000 		.4byte	.LLST6
 2150 0b11 20       		.uleb128 0x20
 2151 0b12 626300   		.ascii	"bc\000"
 2152 0b15 01       		.byte	0x1
 2153 0b16 B13C     		.2byte	0x3cb1
 2154 0b18 53000000 		.4byte	0x53
 2155 0b1c 2A010000 		.4byte	.LLST7
 2156 0b20 20       		.uleb128 0x20
 2157 0b21 6E6300   		.ascii	"nc\000"
 2158 0b24 01       		.byte	0x1
 2159 0b25 B13C     		.2byte	0x3cb1
 2160 0b27 53000000 		.4byte	0x53
 2161 0b2b 6B010000 		.4byte	.LLST8
 2162 0b2f 20       		.uleb128 0x20
 2163 0b30 636D6400 		.ascii	"cmd\000"
 2164 0b34 01       		.byte	0x1
 2165 0b35 B13C     		.2byte	0x3cb1
 2166 0b37 53000000 		.4byte	0x53
ARM GAS  /tmp/cctbqtZl.s 			page 39


 2167 0b3b 7E010000 		.4byte	.LLST9
 2168 0b3f 00       		.byte	0
 2169 0b40 13       		.uleb128 0x13
 2170 0b41 5E000000 		.4byte	0x5e
 2171 0b45 500B0000 		.4byte	0xb50
 2172 0b49 14       		.uleb128 0x14
 2173 0b4a 82040000 		.4byte	0x482
 2174 0b4e F8       		.byte	0xf8
 2175 0b4f 00       		.byte	0
 2176 0b50 05       		.uleb128 0x5
 2177 0b51 400B0000 		.4byte	0xb40
 2178 0b55 13       		.uleb128 0x13
 2179 0b56 5E000000 		.4byte	0x5e
 2180 0b5a 650B0000 		.4byte	0xb65
 2181 0b5e 14       		.uleb128 0x14
 2182 0b5f 82040000 		.4byte	0x482
 2183 0b63 5D       		.byte	0x5d
 2184 0b64 00       		.byte	0
 2185 0b65 05       		.uleb128 0x5
 2186 0b66 550B0000 		.4byte	0xb55
 2187 0b6a 0C       		.uleb128 0xc
 2188 0b6b 04       		.byte	0x4
 2189 0b6c 5E000000 		.4byte	0x5e
 2190 0b70 1E       		.uleb128 0x1e
 2191 0b71 14070000 		.4byte	.LASF151
 2192 0b75 01       		.byte	0x1
 2193 0b76 A43B     		.2byte	0x3ba4
 2194 0b78 53000000 		.4byte	0x53
 2195 0b7c 00000000 		.4byte	.LFB291
 2196 0b80 28000000 		.4byte	.LFE291-.LFB291
 2197 0b84 01       		.uleb128 0x1
 2198 0b85 9C       		.byte	0x9c
 2199 0b86 C70B0000 		.4byte	0xbc7
 2200 0b8a 1F       		.uleb128 0x1f
 2201 0b8b 6F656D00 		.ascii	"oem\000"
 2202 0b8f 01       		.byte	0x1
 2203 0b90 A53B     		.2byte	0x3ba5
 2204 0b92 53000000 		.4byte	0x53
 2205 0b96 91010000 		.4byte	.LLST3
 2206 0b9a 21       		.uleb128 0x21
 2207 0b9b 637000   		.ascii	"cp\000"
 2208 0b9e 01       		.byte	0x1
 2209 0b9f A63B     		.2byte	0x3ba6
 2210 0ba1 41000000 		.4byte	0x41
 2211 0ba5 01       		.uleb128 0x1
 2212 0ba6 51       		.byte	0x51
 2213 0ba7 20       		.uleb128 0x20
 2214 0ba8 6300     		.ascii	"c\000"
 2215 0baa 01       		.byte	0x1
 2216 0bab A93B     		.2byte	0x3ba9
 2217 0bad 53000000 		.4byte	0x53
 2218 0bb1 CB010000 		.4byte	.LLST4
 2219 0bb5 22       		.uleb128 0x22
 2220 0bb6 7000     		.ascii	"p\000"
 2221 0bb8 01       		.byte	0x1
 2222 0bb9 AA3B     		.2byte	0x3baa
 2223 0bbb 6A0B0000 		.4byte	0xb6a
ARM GAS  /tmp/cctbqtZl.s 			page 40


 2224 0bbf 06       		.uleb128 0x6
 2225 0bc0 03       		.byte	0x3
 2226 0bc1 00000000 		.4byte	uc850
 2227 0bc5 9F       		.byte	0x9f
 2228 0bc6 00       		.byte	0
 2229 0bc7 23       		.uleb128 0x23
 2230 0bc8 91040000 		.4byte	.LASF155
 2231 0bcc 01       		.byte	0x1
 2232 0bcd 8F3B     		.2byte	0x3b8f
 2233 0bcf 53000000 		.4byte	0x53
 2234 0bd3 00000000 		.4byte	.LFB290
 2235 0bd7 34000000 		.4byte	.LFE290-.LFB290
 2236 0bdb 01       		.uleb128 0x1
 2237 0bdc 9C       		.byte	0x9c
 2238 0bdd 1F       		.uleb128 0x1f
 2239 0bde 756E6900 		.ascii	"uni\000"
 2240 0be2 01       		.byte	0x1
 2241 0be3 903B     		.2byte	0x3b90
 2242 0be5 53000000 		.4byte	0x53
 2243 0be9 01020000 		.4byte	.LLST0
 2244 0bed 1F       		.uleb128 0x1f
 2245 0bee 637000   		.ascii	"cp\000"
 2246 0bf1 01       		.byte	0x1
 2247 0bf2 913B     		.2byte	0x3b91
 2248 0bf4 41000000 		.4byte	0x41
 2249 0bf8 3B020000 		.4byte	.LLST1
 2250 0bfc 20       		.uleb128 0x20
 2251 0bfd 6300     		.ascii	"c\000"
 2252 0bff 01       		.byte	0x1
 2253 0c00 943B     		.2byte	0x3b94
 2254 0c02 53000000 		.4byte	0x53
 2255 0c06 5C020000 		.4byte	.LLST2
 2256 0c0a 22       		.uleb128 0x22
 2257 0c0b 7000     		.ascii	"p\000"
 2258 0c0d 01       		.byte	0x1
 2259 0c0e 953B     		.2byte	0x3b95
 2260 0c10 6A0B0000 		.4byte	0xb6a
 2261 0c14 06       		.uleb128 0x6
 2262 0c15 03       		.byte	0x3
 2263 0c16 00000000 		.4byte	uc850
 2264 0c1a 9F       		.byte	0x9f
 2265 0c1b 00       		.byte	0
 2266 0c1c 00       		.byte	0
 2267              		.section	.debug_abbrev,"",%progbits
 2268              	.Ldebug_abbrev0:
 2269 0000 01       		.uleb128 0x1
 2270 0001 11       		.uleb128 0x11
 2271 0002 01       		.byte	0x1
 2272 0003 25       		.uleb128 0x25
 2273 0004 0E       		.uleb128 0xe
 2274 0005 13       		.uleb128 0x13
 2275 0006 0B       		.uleb128 0xb
 2276 0007 03       		.uleb128 0x3
 2277 0008 0E       		.uleb128 0xe
 2278 0009 1B       		.uleb128 0x1b
 2279 000a 0E       		.uleb128 0xe
 2280 000b 55       		.uleb128 0x55
ARM GAS  /tmp/cctbqtZl.s 			page 41


 2281 000c 17       		.uleb128 0x17
 2282 000d 11       		.uleb128 0x11
 2283 000e 01       		.uleb128 0x1
 2284 000f 10       		.uleb128 0x10
 2285 0010 17       		.uleb128 0x17
 2286 0011 00       		.byte	0
 2287 0012 00       		.byte	0
 2288 0013 02       		.uleb128 0x2
 2289 0014 24       		.uleb128 0x24
 2290 0015 00       		.byte	0
 2291 0016 0B       		.uleb128 0xb
 2292 0017 0B       		.uleb128 0xb
 2293 0018 3E       		.uleb128 0x3e
 2294 0019 0B       		.uleb128 0xb
 2295 001a 03       		.uleb128 0x3
 2296 001b 08       		.uleb128 0x8
 2297 001c 00       		.byte	0
 2298 001d 00       		.byte	0
 2299 001e 03       		.uleb128 0x3
 2300 001f 24       		.uleb128 0x24
 2301 0020 00       		.byte	0
 2302 0021 0B       		.uleb128 0xb
 2303 0022 0B       		.uleb128 0xb
 2304 0023 3E       		.uleb128 0x3e
 2305 0024 0B       		.uleb128 0xb
 2306 0025 03       		.uleb128 0x3
 2307 0026 0E       		.uleb128 0xe
 2308 0027 00       		.byte	0
 2309 0028 00       		.byte	0
 2310 0029 04       		.uleb128 0x4
 2311 002a 16       		.uleb128 0x16
 2312 002b 00       		.byte	0
 2313 002c 03       		.uleb128 0x3
 2314 002d 0E       		.uleb128 0xe
 2315 002e 3A       		.uleb128 0x3a
 2316 002f 0B       		.uleb128 0xb
 2317 0030 3B       		.uleb128 0x3b
 2318 0031 0B       		.uleb128 0xb
 2319 0032 49       		.uleb128 0x49
 2320 0033 13       		.uleb128 0x13
 2321 0034 00       		.byte	0
 2322 0035 00       		.byte	0
 2323 0036 05       		.uleb128 0x5
 2324 0037 26       		.uleb128 0x26
 2325 0038 00       		.byte	0
 2326 0039 49       		.uleb128 0x49
 2327 003a 13       		.uleb128 0x13
 2328 003b 00       		.byte	0
 2329 003c 00       		.byte	0
 2330 003d 06       		.uleb128 0x6
 2331 003e 35       		.uleb128 0x35
 2332 003f 00       		.byte	0
 2333 0040 49       		.uleb128 0x49
 2334 0041 13       		.uleb128 0x13
 2335 0042 00       		.byte	0
 2336 0043 00       		.byte	0
 2337 0044 07       		.uleb128 0x7
ARM GAS  /tmp/cctbqtZl.s 			page 42


 2338 0045 13       		.uleb128 0x13
 2339 0046 01       		.byte	0x1
 2340 0047 03       		.uleb128 0x3
 2341 0048 0E       		.uleb128 0xe
 2342 0049 0B       		.uleb128 0xb
 2343 004a 0B       		.uleb128 0xb
 2344 004b 3A       		.uleb128 0x3a
 2345 004c 0B       		.uleb128 0xb
 2346 004d 3B       		.uleb128 0x3b
 2347 004e 0B       		.uleb128 0xb
 2348 004f 01       		.uleb128 0x1
 2349 0050 13       		.uleb128 0x13
 2350 0051 00       		.byte	0
 2351 0052 00       		.byte	0
 2352 0053 08       		.uleb128 0x8
 2353 0054 0D       		.uleb128 0xd
 2354 0055 00       		.byte	0
 2355 0056 03       		.uleb128 0x3
 2356 0057 0E       		.uleb128 0xe
 2357 0058 3A       		.uleb128 0x3a
 2358 0059 0B       		.uleb128 0xb
 2359 005a 3B       		.uleb128 0x3b
 2360 005b 0B       		.uleb128 0xb
 2361 005c 49       		.uleb128 0x49
 2362 005d 13       		.uleb128 0x13
 2363 005e 38       		.uleb128 0x38
 2364 005f 0B       		.uleb128 0xb
 2365 0060 00       		.byte	0
 2366 0061 00       		.byte	0
 2367 0062 09       		.uleb128 0x9
 2368 0063 0D       		.uleb128 0xd
 2369 0064 00       		.byte	0
 2370 0065 03       		.uleb128 0x3
 2371 0066 08       		.uleb128 0x8
 2372 0067 3A       		.uleb128 0x3a
 2373 0068 0B       		.uleb128 0xb
 2374 0069 3B       		.uleb128 0x3b
 2375 006a 0B       		.uleb128 0xb
 2376 006b 49       		.uleb128 0x49
 2377 006c 13       		.uleb128 0x13
 2378 006d 38       		.uleb128 0x38
 2379 006e 0B       		.uleb128 0xb
 2380 006f 00       		.byte	0
 2381 0070 00       		.byte	0
 2382 0071 0A       		.uleb128 0xa
 2383 0072 0D       		.uleb128 0xd
 2384 0073 00       		.byte	0
 2385 0074 03       		.uleb128 0x3
 2386 0075 08       		.uleb128 0x8
 2387 0076 3A       		.uleb128 0x3a
 2388 0077 0B       		.uleb128 0xb
 2389 0078 3B       		.uleb128 0x3b
 2390 0079 05       		.uleb128 0x5
 2391 007a 49       		.uleb128 0x49
 2392 007b 13       		.uleb128 0x13
 2393 007c 38       		.uleb128 0x38
 2394 007d 0B       		.uleb128 0xb
ARM GAS  /tmp/cctbqtZl.s 			page 43


 2395 007e 00       		.byte	0
 2396 007f 00       		.byte	0
 2397 0080 0B       		.uleb128 0xb
 2398 0081 0D       		.uleb128 0xd
 2399 0082 00       		.byte	0
 2400 0083 03       		.uleb128 0x3
 2401 0084 0E       		.uleb128 0xe
 2402 0085 3A       		.uleb128 0x3a
 2403 0086 0B       		.uleb128 0xb
 2404 0087 3B       		.uleb128 0x3b
 2405 0088 05       		.uleb128 0x5
 2406 0089 49       		.uleb128 0x49
 2407 008a 13       		.uleb128 0x13
 2408 008b 38       		.uleb128 0x38
 2409 008c 0B       		.uleb128 0xb
 2410 008d 00       		.byte	0
 2411 008e 00       		.byte	0
 2412 008f 0C       		.uleb128 0xc
 2413 0090 0F       		.uleb128 0xf
 2414 0091 00       		.byte	0
 2415 0092 0B       		.uleb128 0xb
 2416 0093 0B       		.uleb128 0xb
 2417 0094 49       		.uleb128 0x49
 2418 0095 13       		.uleb128 0x13
 2419 0096 00       		.byte	0
 2420 0097 00       		.byte	0
 2421 0098 0D       		.uleb128 0xd
 2422 0099 13       		.uleb128 0x13
 2423 009a 01       		.byte	0x1
 2424 009b 03       		.uleb128 0x3
 2425 009c 0E       		.uleb128 0xe
 2426 009d 0B       		.uleb128 0xb
 2427 009e 0B       		.uleb128 0xb
 2428 009f 3A       		.uleb128 0x3a
 2429 00a0 0B       		.uleb128 0xb
 2430 00a1 3B       		.uleb128 0x3b
 2431 00a2 05       		.uleb128 0x5
 2432 00a3 01       		.uleb128 0x1
 2433 00a4 13       		.uleb128 0x13
 2434 00a5 00       		.byte	0
 2435 00a6 00       		.byte	0
 2436 00a7 0E       		.uleb128 0xe
 2437 00a8 15       		.uleb128 0x15
 2438 00a9 01       		.byte	0x1
 2439 00aa 27       		.uleb128 0x27
 2440 00ab 19       		.uleb128 0x19
 2441 00ac 01       		.uleb128 0x1
 2442 00ad 13       		.uleb128 0x13
 2443 00ae 00       		.byte	0
 2444 00af 00       		.byte	0
 2445 00b0 0F       		.uleb128 0xf
 2446 00b1 05       		.uleb128 0x5
 2447 00b2 00       		.byte	0
 2448 00b3 49       		.uleb128 0x49
 2449 00b4 13       		.uleb128 0x13
 2450 00b5 00       		.byte	0
 2451 00b6 00       		.byte	0
ARM GAS  /tmp/cctbqtZl.s 			page 44


 2452 00b7 10       		.uleb128 0x10
 2453 00b8 0F       		.uleb128 0xf
 2454 00b9 00       		.byte	0
 2455 00ba 0B       		.uleb128 0xb
 2456 00bb 0B       		.uleb128 0xb
 2457 00bc 00       		.byte	0
 2458 00bd 00       		.byte	0
 2459 00be 11       		.uleb128 0x11
 2460 00bf 34       		.uleb128 0x34
 2461 00c0 00       		.byte	0
 2462 00c1 03       		.uleb128 0x3
 2463 00c2 0E       		.uleb128 0xe
 2464 00c3 3A       		.uleb128 0x3a
 2465 00c4 0B       		.uleb128 0xb
 2466 00c5 3B       		.uleb128 0x3b
 2467 00c6 05       		.uleb128 0x5
 2468 00c7 49       		.uleb128 0x49
 2469 00c8 13       		.uleb128 0x13
 2470 00c9 3F       		.uleb128 0x3f
 2471 00ca 19       		.uleb128 0x19
 2472 00cb 3C       		.uleb128 0x3c
 2473 00cc 19       		.uleb128 0x19
 2474 00cd 00       		.byte	0
 2475 00ce 00       		.byte	0
 2476 00cf 12       		.uleb128 0x12
 2477 00d0 34       		.uleb128 0x34
 2478 00d1 00       		.byte	0
 2479 00d2 03       		.uleb128 0x3
 2480 00d3 0E       		.uleb128 0xe
 2481 00d4 3A       		.uleb128 0x3a
 2482 00d5 0B       		.uleb128 0xb
 2483 00d6 3B       		.uleb128 0x3b
 2484 00d7 0B       		.uleb128 0xb
 2485 00d8 49       		.uleb128 0x49
 2486 00d9 13       		.uleb128 0x13
 2487 00da 3F       		.uleb128 0x3f
 2488 00db 19       		.uleb128 0x19
 2489 00dc 3C       		.uleb128 0x3c
 2490 00dd 19       		.uleb128 0x19
 2491 00de 00       		.byte	0
 2492 00df 00       		.byte	0
 2493 00e0 13       		.uleb128 0x13
 2494 00e1 01       		.uleb128 0x1
 2495 00e2 01       		.byte	0x1
 2496 00e3 49       		.uleb128 0x49
 2497 00e4 13       		.uleb128 0x13
 2498 00e5 01       		.uleb128 0x1
 2499 00e6 13       		.uleb128 0x13
 2500 00e7 00       		.byte	0
 2501 00e8 00       		.byte	0
 2502 00e9 14       		.uleb128 0x14
 2503 00ea 21       		.uleb128 0x21
 2504 00eb 00       		.byte	0
 2505 00ec 49       		.uleb128 0x49
 2506 00ed 13       		.uleb128 0x13
 2507 00ee 2F       		.uleb128 0x2f
 2508 00ef 0B       		.uleb128 0xb
ARM GAS  /tmp/cctbqtZl.s 			page 45


 2509 00f0 00       		.byte	0
 2510 00f1 00       		.byte	0
 2511 00f2 15       		.uleb128 0x15
 2512 00f3 13       		.uleb128 0x13
 2513 00f4 01       		.byte	0x1
 2514 00f5 0B       		.uleb128 0xb
 2515 00f6 0B       		.uleb128 0xb
 2516 00f7 3A       		.uleb128 0x3a
 2517 00f8 0B       		.uleb128 0xb
 2518 00f9 3B       		.uleb128 0x3b
 2519 00fa 0B       		.uleb128 0xb
 2520 00fb 01       		.uleb128 0x1
 2521 00fc 13       		.uleb128 0x13
 2522 00fd 00       		.byte	0
 2523 00fe 00       		.byte	0
 2524 00ff 16       		.uleb128 0x16
 2525 0100 17       		.uleb128 0x17
 2526 0101 01       		.byte	0x1
 2527 0102 0B       		.uleb128 0xb
 2528 0103 0B       		.uleb128 0xb
 2529 0104 3A       		.uleb128 0x3a
 2530 0105 0B       		.uleb128 0xb
 2531 0106 3B       		.uleb128 0x3b
 2532 0107 0B       		.uleb128 0xb
 2533 0108 01       		.uleb128 0x1
 2534 0109 13       		.uleb128 0x13
 2535 010a 00       		.byte	0
 2536 010b 00       		.byte	0
 2537 010c 17       		.uleb128 0x17
 2538 010d 0D       		.uleb128 0xd
 2539 010e 00       		.byte	0
 2540 010f 03       		.uleb128 0x3
 2541 0110 0E       		.uleb128 0xe
 2542 0111 3A       		.uleb128 0x3a
 2543 0112 0B       		.uleb128 0xb
 2544 0113 3B       		.uleb128 0x3b
 2545 0114 0B       		.uleb128 0xb
 2546 0115 49       		.uleb128 0x49
 2547 0116 13       		.uleb128 0x13
 2548 0117 00       		.byte	0
 2549 0118 00       		.byte	0
 2550 0119 18       		.uleb128 0x18
 2551 011a 0D       		.uleb128 0xd
 2552 011b 00       		.byte	0
 2553 011c 03       		.uleb128 0x3
 2554 011d 0E       		.uleb128 0xe
 2555 011e 3A       		.uleb128 0x3a
 2556 011f 0B       		.uleb128 0xb
 2557 0120 3B       		.uleb128 0x3b
 2558 0121 05       		.uleb128 0x5
 2559 0122 49       		.uleb128 0x49
 2560 0123 13       		.uleb128 0x13
 2561 0124 00       		.byte	0
 2562 0125 00       		.byte	0
 2563 0126 19       		.uleb128 0x19
 2564 0127 34       		.uleb128 0x34
 2565 0128 00       		.byte	0
ARM GAS  /tmp/cctbqtZl.s 			page 46


 2566 0129 03       		.uleb128 0x3
 2567 012a 08       		.uleb128 0x8
 2568 012b 3A       		.uleb128 0x3a
 2569 012c 0B       		.uleb128 0xb
 2570 012d 3B       		.uleb128 0x3b
 2571 012e 05       		.uleb128 0x5
 2572 012f 49       		.uleb128 0x49
 2573 0130 13       		.uleb128 0x13
 2574 0131 3F       		.uleb128 0x3f
 2575 0132 19       		.uleb128 0x19
 2576 0133 3C       		.uleb128 0x3c
 2577 0134 19       		.uleb128 0x19
 2578 0135 00       		.byte	0
 2579 0136 00       		.byte	0
 2580 0137 1A       		.uleb128 0x1a
 2581 0138 21       		.uleb128 0x21
 2582 0139 00       		.byte	0
 2583 013a 00       		.byte	0
 2584 013b 00       		.byte	0
 2585 013c 1B       		.uleb128 0x1b
 2586 013d 15       		.uleb128 0x15
 2587 013e 01       		.byte	0x1
 2588 013f 27       		.uleb128 0x27
 2589 0140 19       		.uleb128 0x19
 2590 0141 49       		.uleb128 0x49
 2591 0142 13       		.uleb128 0x13
 2592 0143 01       		.uleb128 0x1
 2593 0144 13       		.uleb128 0x13
 2594 0145 00       		.byte	0
 2595 0146 00       		.byte	0
 2596 0147 1C       		.uleb128 0x1c
 2597 0148 16       		.uleb128 0x16
 2598 0149 00       		.byte	0
 2599 014a 03       		.uleb128 0x3
 2600 014b 0E       		.uleb128 0xe
 2601 014c 3A       		.uleb128 0x3a
 2602 014d 0B       		.uleb128 0xb
 2603 014e 3B       		.uleb128 0x3b
 2604 014f 05       		.uleb128 0x5
 2605 0150 49       		.uleb128 0x49
 2606 0151 13       		.uleb128 0x13
 2607 0152 00       		.byte	0
 2608 0153 00       		.byte	0
 2609 0154 1D       		.uleb128 0x1d
 2610 0155 34       		.uleb128 0x34
 2611 0156 00       		.byte	0
 2612 0157 03       		.uleb128 0x3
 2613 0158 0E       		.uleb128 0xe
 2614 0159 3A       		.uleb128 0x3a
 2615 015a 0B       		.uleb128 0xb
 2616 015b 3B       		.uleb128 0x3b
 2617 015c 05       		.uleb128 0x5
 2618 015d 49       		.uleb128 0x49
 2619 015e 13       		.uleb128 0x13
 2620 015f 02       		.uleb128 0x2
 2621 0160 18       		.uleb128 0x18
 2622 0161 00       		.byte	0
ARM GAS  /tmp/cctbqtZl.s 			page 47


 2623 0162 00       		.byte	0
 2624 0163 1E       		.uleb128 0x1e
 2625 0164 2E       		.uleb128 0x2e
 2626 0165 01       		.byte	0x1
 2627 0166 3F       		.uleb128 0x3f
 2628 0167 19       		.uleb128 0x19
 2629 0168 03       		.uleb128 0x3
 2630 0169 0E       		.uleb128 0xe
 2631 016a 3A       		.uleb128 0x3a
 2632 016b 0B       		.uleb128 0xb
 2633 016c 3B       		.uleb128 0x3b
 2634 016d 05       		.uleb128 0x5
 2635 016e 27       		.uleb128 0x27
 2636 016f 19       		.uleb128 0x19
 2637 0170 49       		.uleb128 0x49
 2638 0171 13       		.uleb128 0x13
 2639 0172 11       		.uleb128 0x11
 2640 0173 01       		.uleb128 0x1
 2641 0174 12       		.uleb128 0x12
 2642 0175 06       		.uleb128 0x6
 2643 0176 40       		.uleb128 0x40
 2644 0177 18       		.uleb128 0x18
 2645 0178 9742     		.uleb128 0x2117
 2646 017a 19       		.uleb128 0x19
 2647 017b 01       		.uleb128 0x1
 2648 017c 13       		.uleb128 0x13
 2649 017d 00       		.byte	0
 2650 017e 00       		.byte	0
 2651 017f 1F       		.uleb128 0x1f
 2652 0180 05       		.uleb128 0x5
 2653 0181 00       		.byte	0
 2654 0182 03       		.uleb128 0x3
 2655 0183 08       		.uleb128 0x8
 2656 0184 3A       		.uleb128 0x3a
 2657 0185 0B       		.uleb128 0xb
 2658 0186 3B       		.uleb128 0x3b
 2659 0187 05       		.uleb128 0x5
 2660 0188 49       		.uleb128 0x49
 2661 0189 13       		.uleb128 0x13
 2662 018a 02       		.uleb128 0x2
 2663 018b 17       		.uleb128 0x17
 2664 018c 00       		.byte	0
 2665 018d 00       		.byte	0
 2666 018e 20       		.uleb128 0x20
 2667 018f 34       		.uleb128 0x34
 2668 0190 00       		.byte	0
 2669 0191 03       		.uleb128 0x3
 2670 0192 08       		.uleb128 0x8
 2671 0193 3A       		.uleb128 0x3a
 2672 0194 0B       		.uleb128 0xb
 2673 0195 3B       		.uleb128 0x3b
 2674 0196 05       		.uleb128 0x5
 2675 0197 49       		.uleb128 0x49
 2676 0198 13       		.uleb128 0x13
 2677 0199 02       		.uleb128 0x2
 2678 019a 17       		.uleb128 0x17
 2679 019b 00       		.byte	0
ARM GAS  /tmp/cctbqtZl.s 			page 48


 2680 019c 00       		.byte	0
 2681 019d 21       		.uleb128 0x21
 2682 019e 05       		.uleb128 0x5
 2683 019f 00       		.byte	0
 2684 01a0 03       		.uleb128 0x3
 2685 01a1 08       		.uleb128 0x8
 2686 01a2 3A       		.uleb128 0x3a
 2687 01a3 0B       		.uleb128 0xb
 2688 01a4 3B       		.uleb128 0x3b
 2689 01a5 05       		.uleb128 0x5
 2690 01a6 49       		.uleb128 0x49
 2691 01a7 13       		.uleb128 0x13
 2692 01a8 02       		.uleb128 0x2
 2693 01a9 18       		.uleb128 0x18
 2694 01aa 00       		.byte	0
 2695 01ab 00       		.byte	0
 2696 01ac 22       		.uleb128 0x22
 2697 01ad 34       		.uleb128 0x34
 2698 01ae 00       		.byte	0
 2699 01af 03       		.uleb128 0x3
 2700 01b0 08       		.uleb128 0x8
 2701 01b1 3A       		.uleb128 0x3a
 2702 01b2 0B       		.uleb128 0xb
 2703 01b3 3B       		.uleb128 0x3b
 2704 01b4 05       		.uleb128 0x5
 2705 01b5 49       		.uleb128 0x49
 2706 01b6 13       		.uleb128 0x13
 2707 01b7 02       		.uleb128 0x2
 2708 01b8 18       		.uleb128 0x18
 2709 01b9 00       		.byte	0
 2710 01ba 00       		.byte	0
 2711 01bb 23       		.uleb128 0x23
 2712 01bc 2E       		.uleb128 0x2e
 2713 01bd 01       		.byte	0x1
 2714 01be 3F       		.uleb128 0x3f
 2715 01bf 19       		.uleb128 0x19
 2716 01c0 03       		.uleb128 0x3
 2717 01c1 0E       		.uleb128 0xe
 2718 01c2 3A       		.uleb128 0x3a
 2719 01c3 0B       		.uleb128 0xb
 2720 01c4 3B       		.uleb128 0x3b
 2721 01c5 05       		.uleb128 0x5
 2722 01c6 27       		.uleb128 0x27
 2723 01c7 19       		.uleb128 0x19
 2724 01c8 49       		.uleb128 0x49
 2725 01c9 13       		.uleb128 0x13
 2726 01ca 11       		.uleb128 0x11
 2727 01cb 01       		.uleb128 0x1
 2728 01cc 12       		.uleb128 0x12
 2729 01cd 06       		.uleb128 0x6
 2730 01ce 40       		.uleb128 0x40
 2731 01cf 18       		.uleb128 0x18
 2732 01d0 9742     		.uleb128 0x2117
 2733 01d2 19       		.uleb128 0x19
 2734 01d3 00       		.byte	0
 2735 01d4 00       		.byte	0
 2736 01d5 00       		.byte	0
ARM GAS  /tmp/cctbqtZl.s 			page 49


 2737              		.section	.debug_loc,"",%progbits
 2738              	.Ldebug_loc0:
 2739              	.LLST5:
 2740 0000 00000000 		.4byte	.LVL15
 2741 0004 3E000000 		.4byte	.LVL22
 2742 0008 0100     		.2byte	0x1
 2743 000a 50       		.byte	0x50
 2744 000b 3E000000 		.4byte	.LVL22
 2745 000f 42000000 		.4byte	.LVL23
 2746 0013 0400     		.2byte	0x4
 2747 0015 F3       		.byte	0xf3
 2748 0016 01       		.uleb128 0x1
 2749 0017 50       		.byte	0x50
 2750 0018 9F       		.byte	0x9f
 2751 0019 42000000 		.4byte	.LVL23
 2752 001d 4C000000 		.4byte	.LVL26
 2753 0021 0100     		.2byte	0x1
 2754 0023 50       		.byte	0x50
 2755 0024 4C000000 		.4byte	.LVL26
 2756 0028 4E000000 		.4byte	.LVL27
 2757 002c 0400     		.2byte	0x4
 2758 002e F3       		.byte	0xf3
 2759 002f 01       		.uleb128 0x1
 2760 0030 50       		.byte	0x50
 2761 0031 9F       		.byte	0x9f
 2762 0032 4E000000 		.4byte	.LVL27
 2763 0036 52000000 		.4byte	.LVL29
 2764 003a 0100     		.2byte	0x1
 2765 003c 50       		.byte	0x50
 2766 003d 52000000 		.4byte	.LVL29
 2767 0041 54000000 		.4byte	.LVL30
 2768 0045 0400     		.2byte	0x4
 2769 0047 F3       		.byte	0xf3
 2770 0048 01       		.uleb128 0x1
 2771 0049 50       		.byte	0x50
 2772 004a 9F       		.byte	0x9f
 2773 004b 54000000 		.4byte	.LVL30
 2774 004f 56000000 		.4byte	.LVL31
 2775 0053 0100     		.2byte	0x1
 2776 0055 50       		.byte	0x50
 2777 0056 56000000 		.4byte	.LVL31
 2778 005a 58000000 		.4byte	.LVL32
 2779 005e 0400     		.2byte	0x4
 2780 0060 F3       		.byte	0xf3
 2781 0061 01       		.uleb128 0x1
 2782 0062 50       		.byte	0x50
 2783 0063 9F       		.byte	0x9f
 2784 0064 58000000 		.4byte	.LVL32
 2785 0068 5A000000 		.4byte	.LVL33
 2786 006c 0100     		.2byte	0x1
 2787 006e 50       		.byte	0x50
 2788 006f 5A000000 		.4byte	.LVL33
 2789 0073 5C000000 		.4byte	.LVL34
 2790 0077 0400     		.2byte	0x4
 2791 0079 F3       		.byte	0xf3
 2792 007a 01       		.uleb128 0x1
 2793 007b 50       		.byte	0x50
ARM GAS  /tmp/cctbqtZl.s 			page 50


 2794 007c 9F       		.byte	0x9f
 2795 007d 5C000000 		.4byte	.LVL34
 2796 0081 5E000000 		.4byte	.LVL35
 2797 0085 0100     		.2byte	0x1
 2798 0087 50       		.byte	0x50
 2799 0088 5E000000 		.4byte	.LVL35
 2800 008c 60000000 		.4byte	.LVL36
 2801 0090 0400     		.2byte	0x4
 2802 0092 F3       		.byte	0xf3
 2803 0093 01       		.uleb128 0x1
 2804 0094 50       		.byte	0x50
 2805 0095 9F       		.byte	0x9f
 2806 0096 60000000 		.4byte	.LVL36
 2807 009a 62000000 		.4byte	.LVL37
 2808 009e 0100     		.2byte	0x1
 2809 00a0 50       		.byte	0x50
 2810 00a1 62000000 		.4byte	.LVL37
 2811 00a5 64000000 		.4byte	.LVL38
 2812 00a9 0400     		.2byte	0x4
 2813 00ab F3       		.byte	0xf3
 2814 00ac 01       		.uleb128 0x1
 2815 00ad 50       		.byte	0x50
 2816 00ae 9F       		.byte	0x9f
 2817 00af 64000000 		.4byte	.LVL38
 2818 00b3 66000000 		.4byte	.LVL39
 2819 00b7 0100     		.2byte	0x1
 2820 00b9 50       		.byte	0x50
 2821 00ba 66000000 		.4byte	.LVL39
 2822 00be 68000000 		.4byte	.LVL40
 2823 00c2 0400     		.2byte	0x4
 2824 00c4 F3       		.byte	0xf3
 2825 00c5 01       		.uleb128 0x1
 2826 00c6 50       		.byte	0x50
 2827 00c7 9F       		.byte	0x9f
 2828 00c8 68000000 		.4byte	.LVL40
 2829 00cc 6C000000 		.4byte	.LVL41
 2830 00d0 0100     		.2byte	0x1
 2831 00d2 50       		.byte	0x50
 2832 00d3 6C000000 		.4byte	.LVL41
 2833 00d7 6E000000 		.4byte	.LVL42
 2834 00db 0400     		.2byte	0x4
 2835 00dd F3       		.byte	0xf3
 2836 00de 01       		.uleb128 0x1
 2837 00df 50       		.byte	0x50
 2838 00e0 9F       		.byte	0x9f
 2839 00e1 6E000000 		.4byte	.LVL42
 2840 00e5 84000000 		.4byte	.LFE292
 2841 00e9 0100     		.2byte	0x1
 2842 00eb 50       		.byte	0x50
 2843 00ec 00000000 		.4byte	0
 2844 00f0 00000000 		.4byte	0
 2845              	.LLST6:
 2846 00f4 10000000 		.4byte	.LVL16
 2847 00f8 1C000000 		.4byte	.LVL18
 2848 00fc 0300     		.2byte	0x3
 2849 00fe 71       		.byte	0x71
 2850 00ff 7E       		.sleb128 -2
ARM GAS  /tmp/cctbqtZl.s 			page 51


 2851 0100 9F       		.byte	0x9f
 2852 0101 1C000000 		.4byte	.LVL18
 2853 0105 70000000 		.4byte	.LVL43
 2854 0109 0100     		.2byte	0x1
 2855 010b 51       		.byte	0x51
 2856 010c 70000000 		.4byte	.LVL43
 2857 0110 78000000 		.4byte	.LVL44
 2858 0114 0100     		.2byte	0x1
 2859 0116 52       		.byte	0x52
 2860 0117 78000000 		.4byte	.LVL44
 2861 011b 7A000000 		.4byte	.LVL45
 2862 011f 0100     		.2byte	0x1
 2863 0121 53       		.byte	0x53
 2864 0122 00000000 		.4byte	0
 2865 0126 00000000 		.4byte	0
 2866              	.LLST7:
 2867 012a 14000000 		.4byte	.LVL17
 2868 012e 46000000 		.4byte	.LVL25
 2869 0132 0100     		.2byte	0x1
 2870 0134 53       		.byte	0x53
 2871 0135 46000000 		.4byte	.LVL25
 2872 0139 50000000 		.4byte	.LVL28
 2873 013d 0200     		.2byte	0x2
 2874 013f 71       		.byte	0x71
 2875 0140 7C       		.sleb128 -4
 2876 0141 50000000 		.4byte	.LVL28
 2877 0145 78000000 		.4byte	.LVL44
 2878 0149 0100     		.2byte	0x1
 2879 014b 53       		.byte	0x53
 2880 014c 78000000 		.4byte	.LVL44
 2881 0150 7A000000 		.4byte	.LVL45
 2882 0154 0200     		.2byte	0x2
 2883 0156 72       		.byte	0x72
 2884 0157 7C       		.sleb128 -4
 2885 0158 7A000000 		.4byte	.LVL45
 2886 015c 84000000 		.4byte	.LFE292
 2887 0160 0100     		.2byte	0x1
 2888 0162 53       		.byte	0x53
 2889 0163 00000000 		.4byte	0
 2890 0167 00000000 		.4byte	0
 2891              	.LLST8:
 2892 016b 20000000 		.4byte	.LVL19
 2893 016f 7A000000 		.4byte	.LVL45
 2894 0173 0100     		.2byte	0x1
 2895 0175 54       		.byte	0x54
 2896 0176 00000000 		.4byte	0
 2897 017a 00000000 		.4byte	0
 2898              	.LLST9:
 2899 017e 22000000 		.4byte	.LVL20
 2900 0182 7A000000 		.4byte	.LVL45
 2901 0186 0100     		.2byte	0x1
 2902 0188 55       		.byte	0x55
 2903 0189 00000000 		.4byte	0
 2904 018d 00000000 		.4byte	0
 2905              	.LLST3:
 2906 0191 00000000 		.4byte	.LVL10
 2907 0195 14000000 		.4byte	.LVL11
ARM GAS  /tmp/cctbqtZl.s 			page 52


 2908 0199 0100     		.2byte	0x1
 2909 019b 50       		.byte	0x50
 2910 019c 14000000 		.4byte	.LVL11
 2911 01a0 1E000000 		.4byte	.LVL13
 2912 01a4 0400     		.2byte	0x4
 2913 01a6 F3       		.byte	0xf3
 2914 01a7 01       		.uleb128 0x1
 2915 01a8 50       		.byte	0x50
 2916 01a9 9F       		.byte	0x9f
 2917 01aa 1E000000 		.4byte	.LVL13
 2918 01ae 20000000 		.4byte	.LVL14
 2919 01b2 0100     		.2byte	0x1
 2920 01b4 50       		.byte	0x50
 2921 01b5 20000000 		.4byte	.LVL14
 2922 01b9 28000000 		.4byte	.LFE291
 2923 01bd 0400     		.2byte	0x4
 2924 01bf F3       		.byte	0xf3
 2925 01c0 01       		.uleb128 0x1
 2926 01c1 50       		.byte	0x50
 2927 01c2 9F       		.byte	0x9f
 2928 01c3 00000000 		.4byte	0
 2929 01c7 00000000 		.4byte	0
 2930              	.LLST4:
 2931 01cb 00000000 		.4byte	.LVL10
 2932 01cf 1C000000 		.4byte	.LVL12
 2933 01d3 0200     		.2byte	0x2
 2934 01d5 30       		.byte	0x30
 2935 01d6 9F       		.byte	0x9f
 2936 01d7 1C000000 		.4byte	.LVL12
 2937 01db 1E000000 		.4byte	.LVL13
 2938 01df 0100     		.2byte	0x1
 2939 01e1 50       		.byte	0x50
 2940 01e2 1E000000 		.4byte	.LVL13
 2941 01e6 20000000 		.4byte	.LVL14
 2942 01ea 0200     		.2byte	0x2
 2943 01ec 30       		.byte	0x30
 2944 01ed 9F       		.byte	0x9f
 2945 01ee 20000000 		.4byte	.LVL14
 2946 01f2 28000000 		.4byte	.LFE291
 2947 01f6 0100     		.2byte	0x1
 2948 01f8 50       		.byte	0x50
 2949 01f9 00000000 		.4byte	0
 2950 01fd 00000000 		.4byte	0
 2951              	.LLST0:
 2952 0201 00000000 		.4byte	.LVL0
 2953 0205 10000000 		.4byte	.LVL1
 2954 0209 0100     		.2byte	0x1
 2955 020b 50       		.byte	0x50
 2956 020c 10000000 		.4byte	.LVL1
 2957 0210 12000000 		.4byte	.LVL2
 2958 0214 0400     		.2byte	0x4
 2959 0216 F3       		.byte	0xf3
 2960 0217 01       		.uleb128 0x1
 2961 0218 50       		.byte	0x50
 2962 0219 9F       		.byte	0x9f
 2963 021a 12000000 		.4byte	.LVL2
 2964 021e 2C000000 		.4byte	.LVL8
ARM GAS  /tmp/cctbqtZl.s 			page 53


 2965 0222 0100     		.2byte	0x1
 2966 0224 50       		.byte	0x50
 2967 0225 2C000000 		.4byte	.LVL8
 2968 0229 34000000 		.4byte	.LFE290
 2969 022d 0400     		.2byte	0x4
 2970 022f F3       		.byte	0xf3
 2971 0230 01       		.uleb128 0x1
 2972 0231 50       		.byte	0x50
 2973 0232 9F       		.byte	0x9f
 2974 0233 00000000 		.4byte	0
 2975 0237 00000000 		.4byte	0
 2976              	.LLST1:
 2977 023b 00000000 		.4byte	.LVL0
 2978 023f 16000000 		.4byte	.LVL3
 2979 0243 0100     		.2byte	0x1
 2980 0245 51       		.byte	0x51
 2981 0246 16000000 		.4byte	.LVL3
 2982 024a 34000000 		.4byte	.LFE290
 2983 024e 0400     		.2byte	0x4
 2984 0250 F3       		.byte	0xf3
 2985 0251 01       		.uleb128 0x1
 2986 0252 51       		.byte	0x51
 2987 0253 9F       		.byte	0x9f
 2988 0254 00000000 		.4byte	0
 2989 0258 00000000 		.4byte	0
 2990              	.LLST2:
 2991 025c 00000000 		.4byte	.LVL0
 2992 0260 16000000 		.4byte	.LVL3
 2993 0264 0200     		.2byte	0x2
 2994 0266 30       		.byte	0x30
 2995 0267 9F       		.byte	0x9f
 2996 0268 1E000000 		.4byte	.LVL4
 2997 026c 20000000 		.4byte	.LVL5
 2998 0270 0100     		.2byte	0x1
 2999 0272 52       		.byte	0x52
 3000 0273 20000000 		.4byte	.LVL5
 3001 0277 22000000 		.4byte	.LVL6
 3002 027b 0300     		.2byte	0x3
 3003 027d 73       		.byte	0x73
 3004 027e 01       		.sleb128 1
 3005 027f 9F       		.byte	0x9f
 3006 0280 22000000 		.4byte	.LVL6
 3007 0284 28000000 		.4byte	.LVL7
 3008 0288 0300     		.2byte	0x3
 3009 028a 72       		.byte	0x72
 3010 028b 01       		.sleb128 1
 3011 028c 9F       		.byte	0x9f
 3012 028d 2E000000 		.4byte	.LVL9
 3013 0291 34000000 		.4byte	.LFE290
 3014 0295 0100     		.2byte	0x1
 3015 0297 50       		.byte	0x50
 3016 0298 00000000 		.4byte	0
 3017 029c 00000000 		.4byte	0
 3018              		.section	.debug_aranges,"",%progbits
 3019 0000 2C000000 		.4byte	0x2c
 3020 0004 0200     		.2byte	0x2
 3021 0006 00000000 		.4byte	.Ldebug_info0
ARM GAS  /tmp/cctbqtZl.s 			page 54


 3022 000a 04       		.byte	0x4
 3023 000b 00       		.byte	0
 3024 000c 0000     		.2byte	0
 3025 000e 0000     		.2byte	0
 3026 0010 00000000 		.4byte	.LFB290
 3027 0014 34000000 		.4byte	.LFE290-.LFB290
 3028 0018 00000000 		.4byte	.LFB291
 3029 001c 28000000 		.4byte	.LFE291-.LFB291
 3030 0020 00000000 		.4byte	.LFB292
 3031 0024 84000000 		.4byte	.LFE292-.LFB292
 3032 0028 00000000 		.4byte	0
 3033 002c 00000000 		.4byte	0
 3034              		.section	.debug_ranges,"",%progbits
 3035              	.Ldebug_ranges0:
 3036 0000 00000000 		.4byte	.LFB290
 3037 0004 34000000 		.4byte	.LFE290
 3038 0008 00000000 		.4byte	.LFB291
 3039 000c 28000000 		.4byte	.LFE291
 3040 0010 00000000 		.4byte	.LFB292
 3041 0014 84000000 		.4byte	.LFE292
 3042 0018 00000000 		.4byte	0
 3043 001c 00000000 		.4byte	0
 3044              		.section	.debug_line,"",%progbits
 3045              	.Ldebug_line0:
 3046 0000 D5030000 		.section	.debug_str,"MS",%progbits,1
 3046      02005103 
 3046      00000201 
 3046      FB0E0D00 
 3046      01010101 
 3047              	.LASF56:
 3048 0000 72656164 		.ascii	"ready_list_t\000"
 3048      795F6C69 
 3048      73745F74 
 3048      00
 3049              	.LASF9:
 3050 000d 73697A65 		.ascii	"size_t\000"
 3050      5F7400
 3051              	.LASF62:
 3052 0014 64656C74 		.ascii	"delta\000"
 3052      6100
 3053              	.LASF153:
 3054 001a 2E2E2F2E 		.ascii	"../../modules/ChibiOS/ext/fatfs/src/ffunicode.c\000"
 3054      2E2F6D6F 
 3054      64756C65 
 3054      732F4368 
 3054      6962694F 
 3055              	.LASF22:
 3056 004a 75696E74 		.ascii	"uint64_t\000"
 3056      36345F74 
 3056      00
 3057              	.LASF13:
 3058 0053 5F5F7569 		.ascii	"__uint8_t\000"
 3058      6E74385F 
 3058      7400
 3059              	.LASF55:
 3060 005d 70726576 		.ascii	"prev\000"
 3060      00
ARM GAS  /tmp/cctbqtZl.s 			page 55


 3061              	.LASF85:
 3062 0062 706F7274 		.ascii	"port_intctx\000"
 3062      5F696E74 
 3062      63747800 
 3063              	.LASF67:
 3064 006e 73797374 		.ascii	"system_debug_t\000"
 3064      656D5F64 
 3064      65627567 
 3064      5F7400
 3065              	.LASF131:
 3066 007d 70726F76 		.ascii	"provider\000"
 3066      69646572 
 3066      00
 3067              	.LASF141:
 3068 0086 73656D5F 		.ascii	"sem_list\000"
 3068      6C697374 
 3068      00
 3069              	.LASF123:
 3070 008f 6D656D67 		.ascii	"memgetfunc_t\000"
 3070      65746675 
 3070      6E635F74 
 3070      00
 3071              	.LASF8:
 3072 009c 6C6F6E67 		.ascii	"long long unsigned int\000"
 3072      206C6F6E 
 3072      6720756E 
 3072      7369676E 
 3072      65642069 
 3073              	.LASF89:
 3074 00b3 65786974 		.ascii	"exitcode\000"
 3074      636F6465 
 3074      00
 3075              	.LASF74:
 3076 00bc 6D61696E 		.ascii	"mainthread\000"
 3076      74687265 
 3076      616400
 3077              	.LASF92:
 3078 00c7 73656E74 		.ascii	"sentmsg\000"
 3078      6D736700 
 3079              	.LASF64:
 3080 00cf 76697274 		.ascii	"virtual_timers_list_t\000"
 3080      75616C5F 
 3080      74696D65 
 3080      72735F6C 
 3080      6973745F 
 3081              	.LASF78:
 3082 00e5 49544D5F 		.ascii	"ITM_RxBuffer\000"
 3082      52784275 
 3082      66666572 
 3082      00
 3083              	.LASF134:
 3084 00f2 64796E5F 		.ascii	"dyn_element_t\000"
 3084      656C656D 
 3084      656E745F 
 3084      7400
 3085              	.LASF52:
 3086 0100 6E657874 		.ascii	"next\000"
ARM GAS  /tmp/cctbqtZl.s 			page 56


 3086      00
 3087              	.LASF54:
 3088 0105 63685F74 		.ascii	"ch_threads_queue\000"
 3088      68726561 
 3088      64735F71 
 3088      75657565 
 3088      00
 3089              	.LASF10:
 3090 0116 6C6F6E67 		.ascii	"long long int\000"
 3090      206C6F6E 
 3090      6720696E 
 3090      7400
 3091              	.LASF12:
 3092 0124 7369676E 		.ascii	"signed char\000"
 3092      65642063 
 3092      68617200 
 3093              	.LASF150:
 3094 0130 66665F77 		.ascii	"ff_wtoupper\000"
 3094      746F7570 
 3094      70657200 
 3095              	.LASF103:
 3096 013c 73697A65 		.ascii	"size\000"
 3096      00
 3097              	.LASF152:
 3098 0141 474E5520 		.ascii	"GNU C11 6.3.1 20170620 (release) [ARM/embedded-6-br"
 3098      43313120 
 3098      362E332E 
 3098      31203230 
 3098      31373036 
 3099 0174 616E6368 		.ascii	"anch revision 249437] -mcpu=cortex-m4 -mfloat-abi=h"
 3099      20726576 
 3099      6973696F 
 3099      6E203234 
 3099      39343337 
 3100 01a7 61726420 		.ascii	"ard -mfpu=fpv4-sp-d16 -mno-thumb-interwork -mthumb "
 3100      2D6D6670 
 3100      753D6670 
 3100      76342D73 
 3100      702D6431 
 3101 01da 2D67202D 		.ascii	"-g -Os -fomit-frame-pointer -falign-functions=16 -f"
 3101      4F73202D 
 3101      666F6D69 
 3101      742D6672 
 3101      616D652D 
 3102 020d 66756E63 		.ascii	"function-sections -fdata-sections -fno-common -fsin"
 3102      74696F6E 
 3102      2D736563 
 3102      74696F6E 
 3102      73202D66 
 3103 0240 676C652D 		.ascii	"gle-precision-constant\000"
 3103      70726563 
 3103      6973696F 
 3103      6E2D636F 
 3103      6E737461 
 3104              	.LASF73:
 3105 0257 76746C69 		.ascii	"vtlist\000"
 3105      737400
ARM GAS  /tmp/cctbqtZl.s 			page 57


 3106              	.LASF43:
 3107 025e 6D736771 		.ascii	"msgqueue\000"
 3107      75657565 
 3107      00
 3108              	.LASF39:
 3109 0267 73746174 		.ascii	"state\000"
 3109      6500
 3110              	.LASF6:
 3111 026d 6C6F6E67 		.ascii	"long int\000"
 3111      20696E74 
 3111      00
 3112              	.LASF25:
 3113 0276 74737461 		.ascii	"tstate_t\000"
 3113      74655F74 
 3113      00
 3114              	.LASF63:
 3115 027f 66756E63 		.ascii	"func\000"
 3115      00
 3116              	.LASF119:
 3117 0284 63686465 		.ascii	"chdebug_t\000"
 3117      6275675F 
 3117      7400
 3118              	.LASF117:
 3119 028e 6F66665F 		.ascii	"off_preempt\000"
 3119      70726565 
 3119      6D707400 
 3120              	.LASF16:
 3121 029a 5F5F7569 		.ascii	"__uint32_t\000"
 3121      6E743332 
 3121      5F7400
 3122              	.LASF82:
 3123 02a5 72656761 		.ascii	"regarm_t\000"
 3123      726D5F74 
 3123      00
 3124              	.LASF143:
 3125 02ae 6D62785F 		.ascii	"mbx_list\000"
 3125      6C697374 
 3125      00
 3126              	.LASF68:
 3127 02b7 63685F73 		.ascii	"ch_system_debug\000"
 3127      79737465 
 3127      6D5F6465 
 3127      62756700 
 3128              	.LASF42:
 3129 02c7 77616974 		.ascii	"waiting\000"
 3129      696E6700 
 3130              	.LASF72:
 3131 02cf 726C6973 		.ascii	"rlist\000"
 3131      7400
 3132              	.LASF102:
 3133 02d5 7A65726F 		.ascii	"zero\000"
 3133      00
 3134              	.LASF121:
 3135 02da 6D757465 		.ascii	"mutex_t\000"
 3135      785F7400 
 3136              	.LASF130:
 3137 02e2 616C6967 		.ascii	"align\000"
ARM GAS  /tmp/cctbqtZl.s 			page 58


 3137      6E00
 3138              	.LASF76:
 3139 02e8 73797369 		.ascii	"sysinterval_t\000"
 3139      6E746572 
 3139      76616C5F 
 3139      7400
 3140              	.LASF30:
 3141 02f6 636E745F 		.ascii	"cnt_t\000"
 3141      7400
 3142              	.LASF0:
 3143 02fc 756E7369 		.ascii	"unsigned int\000"
 3143      676E6564 
 3143      20696E74 
 3143      00
 3144              	.LASF19:
 3145 0309 75696E74 		.ascii	"uint16_t\000"
 3145      31365F74 
 3145      00
 3146              	.LASF79:
 3147 0312 53797374 		.ascii	"SystemCoreClock\000"
 3147      656D436F 
 3147      7265436C 
 3147      6F636B00 
 3148              	.LASF93:
 3149 0322 77747365 		.ascii	"wtsemp\000"
 3149      6D7000
 3150              	.LASF91:
 3151 0329 77747472 		.ascii	"wttrp\000"
 3151      7000
 3152              	.LASF154:
 3153 032f 2F686F6D 		.ascii	"/home/alex/ArduPilot/ardupilot/build/STM32Disco\000"
 3153      652F616C 
 3153      65782F41 
 3153      72647550 
 3153      696C6F74 
 3154              	.LASF120:
 3155 035f 63685F64 		.ascii	"ch_debug\000"
 3155      65627567 
 3155      00
 3156              	.LASF146:
 3157 0368 63685F66 		.ascii	"ch_factory\000"
 3157      6163746F 
 3157      727900
 3158              	.LASF132:
 3159 0373 6D656D6F 		.ascii	"memory_pool_t\000"
 3159      72795F70 
 3159      6F6F6C5F 
 3159      7400
 3160              	.LASF37:
 3161 0381 6E616D65 		.ascii	"name\000"
 3161      00
 3162              	.LASF33:
 3163 0386 71756575 		.ascii	"queue\000"
 3163      6500
 3164              	.LASF47:
 3165 038c 6D706F6F 		.ascii	"mpool\000"
 3165      6C00
ARM GAS  /tmp/cctbqtZl.s 			page 59


 3166              	.LASF116:
 3167 0392 6F66665F 		.ascii	"off_refs\000"
 3167      72656673 
 3167      00
 3168              	.LASF140:
 3169 039b 6275665F 		.ascii	"buf_list\000"
 3169      6C697374 
 3169      00
 3170              	.LASF50:
 3171 03a4 63685F74 		.ascii	"ch_thread\000"
 3171      68726561 
 3171      6400
 3172              	.LASF28:
 3173 03ae 6D73675F 		.ascii	"msg_t\000"
 3173      7400
 3174              	.LASF31:
 3175 03b4 75636E74 		.ascii	"ucnt_t\000"
 3175      5F7400
 3176              	.LASF44:
 3177 03bb 6570656E 		.ascii	"epending\000"
 3177      64696E67 
 3177      00
 3178              	.LASF136:
 3179 03c4 64796E5F 		.ascii	"dyn_list_t\000"
 3179      6C697374 
 3179      5F7400
 3180              	.LASF70:
 3181 03cf 63685F73 		.ascii	"ch_system_t\000"
 3181      79737465 
 3181      6D5F7400 
 3182              	.LASF109:
 3183 03db 6F66665F 		.ascii	"off_ctx\000"
 3183      63747800 
 3184              	.LASF24:
 3185 03e3 746D6F64 		.ascii	"tmode_t\000"
 3185      655F7400 
 3186              	.LASF57:
 3187 03eb 63685F72 		.ascii	"ch_ready_list\000"
 3187      65616479 
 3187      5F6C6973 
 3187      7400
 3188              	.LASF29:
 3189 03f9 6576656E 		.ascii	"eventmask_t\000"
 3189      746D6173 
 3189      6B5F7400 
 3190              	.LASF80:
 3191 0405 41484250 		.ascii	"AHBPrescTable\000"
 3191      72657363 
 3191      5461626C 
 3191      6500
 3192              	.LASF125:
 3193 0413 656E646D 		.ascii	"endmem\000"
 3193      656D00
 3194              	.LASF15:
 3195 041a 5F5F696E 		.ascii	"__int32_t\000"
 3195      7433325F 
 3195      7400
ARM GAS  /tmp/cctbqtZl.s 			page 60


 3196              	.LASF83:
 3197 0424 73746B61 		.ascii	"stkalign_t\000"
 3197      6C69676E 
 3197      5F7400
 3198              	.LASF35:
 3199 042f 6E657765 		.ascii	"newer\000"
 3199      7200
 3200              	.LASF46:
 3201 0435 7265616C 		.ascii	"realprio\000"
 3201      7072696F 
 3201      00
 3202              	.LASF104:
 3203 043e 76657273 		.ascii	"version\000"
 3203      696F6E00 
 3204              	.LASF77:
 3205 0446 73697A65 		.ascii	"sizetype\000"
 3205      74797065 
 3205      00
 3206              	.LASF48:
 3207 044f 74687265 		.ascii	"thread_reference_t\000"
 3207      61645F72 
 3207      65666572 
 3207      656E6365 
 3207      5F7400
 3208              	.LASF65:
 3209 0462 63685F76 		.ascii	"ch_virtual_timers_list\000"
 3209      69727475 
 3209      616C5F74 
 3209      696D6572 
 3209      735F6C69 
 3210              	.LASF11:
 3211 0479 6C6F6E67 		.ascii	"long double\000"
 3211      20646F75 
 3211      626C6500 
 3212              	.LASF135:
 3213 0485 63685F64 		.ascii	"ch_dyn_list\000"
 3213      796E5F6C 
 3213      69737400 
 3214              	.LASF155:
 3215 0491 66665F75 		.ascii	"ff_uni2oem\000"
 3215      6E69326F 
 3215      656D00
 3216              	.LASF110:
 3217 049c 6F66665F 		.ascii	"off_newer\000"
 3217      6E657765 
 3217      7200
 3218              	.LASF4:
 3219 04a6 574F5244 		.ascii	"WORD\000"
 3219      00
 3220              	.LASF84:
 3221 04ab 706F7274 		.ascii	"port_context\000"
 3221      5F636F6E 
 3221      74657874 
 3221      00
 3222              	.LASF87:
 3223 04b8 746D5F63 		.ascii	"tm_calibration_t\000"
 3223      616C6962 
ARM GAS  /tmp/cctbqtZl.s 			page 61


 3223      72617469 
 3223      6F6E5F74 
 3223      00
 3224              	.LASF34:
 3225 04c9 7072696F 		.ascii	"prio\000"
 3225      00
 3226              	.LASF142:
 3227 04ce 73656D5F 		.ascii	"sem_pool\000"
 3227      706F6F6C 
 3227      00
 3228              	.LASF58:
 3229 04d7 63757272 		.ascii	"current\000"
 3229      656E7400 
 3230              	.LASF17:
 3231 04df 5F5F7569 		.ascii	"__uint64_t\000"
 3231      6E743634 
 3231      5F7400
 3232              	.LASF126:
 3233 04ea 6D656D63 		.ascii	"memcore_t\000"
 3233      6F72655F 
 3233      7400
 3234              	.LASF148:
 3235 04f4 63767431 		.ascii	"cvt1\000"
 3235      00
 3236              	.LASF149:
 3237 04f9 63767432 		.ascii	"cvt2\000"
 3237      00
 3238              	.LASF26:
 3239 04fe 74726566 		.ascii	"trefs_t\000"
 3239      735F7400 
 3240              	.LASF41:
 3241 0506 72656673 		.ascii	"refs\000"
 3241      00
 3242              	.LASF60:
 3243 050b 76697274 		.ascii	"virtual_timer_t\000"
 3243      75616C5F 
 3243      74696D65 
 3243      725F7400 
 3244              	.LASF133:
 3245 051b 63685F64 		.ascii	"ch_dyn_element\000"
 3245      796E5F65 
 3245      6C656D65 
 3245      6E7400
 3246              	.LASF27:
 3247 052a 74707269 		.ascii	"tprio_t\000"
 3247      6F5F7400 
 3248              	.LASF107:
 3249 0532 74687265 		.ascii	"threadsize\000"
 3249      61647369 
 3249      7A6500
 3250              	.LASF122:
 3251 053d 5F426F6F 		.ascii	"_Bool\000"
 3251      6C00
 3252              	.LASF20:
 3253 0543 696E7433 		.ascii	"int32_t\000"
 3253      325F7400 
 3254              	.LASF1:
ARM GAS  /tmp/cctbqtZl.s 			page 62


 3255 054b 756E7369 		.ascii	"unsigned char\000"
 3255      676E6564 
 3255      20636861 
 3255      7200
 3256              	.LASF108:
 3257 0559 6F66665F 		.ascii	"off_prio\000"
 3257      7072696F 
 3257      00
 3258              	.LASF113:
 3259 0562 6F66665F 		.ascii	"off_stklimit\000"
 3259      73746B6C 
 3259      696D6974 
 3259      00
 3260              	.LASF2:
 3261 056f 73686F72 		.ascii	"short int\000"
 3261      7420696E 
 3261      7400
 3262              	.LASF66:
 3263 0579 6C617374 		.ascii	"lasttime\000"
 3263      74696D65 
 3263      00
 3264              	.LASF95:
 3265 0582 65776D61 		.ascii	"ewmask\000"
 3265      736B00
 3266              	.LASF71:
 3267 0589 63685F73 		.ascii	"ch_system\000"
 3267      79737465 
 3267      6D00
 3268              	.LASF139:
 3269 0593 6F626A5F 		.ascii	"obj_pool\000"
 3269      706F6F6C 
 3269      00
 3270              	.LASF147:
 3271 059c 75633835 		.ascii	"uc850\000"
 3271      3000
 3272              	.LASF88:
 3273 05a2 7264796D 		.ascii	"rdymsg\000"
 3273      736700
 3274              	.LASF61:
 3275 05a9 63685F76 		.ascii	"ch_virtual_timer\000"
 3275      69727475 
 3275      616C5F74 
 3275      696D6572 
 3275      00
 3276              	.LASF96:
 3277 05ba 63685F73 		.ascii	"ch_semaphore\000"
 3277      656D6170 
 3277      686F7265 
 3277      00
 3278              	.LASF118:
 3279 05c7 6F66665F 		.ascii	"off_time\000"
 3279      74696D65 
 3279      00
 3280              	.LASF100:
 3281 05d0 63685F69 		.ascii	"ch_idle_thread_wa\000"
 3281      646C655F 
 3281      74687265 
ARM GAS  /tmp/cctbqtZl.s 			page 63


 3281      61645F77 
 3281      6100
 3282              	.LASF106:
 3283 05e2 74696D65 		.ascii	"timesize\000"
 3283      73697A65 
 3283      00
 3284              	.LASF21:
 3285 05eb 75696E74 		.ascii	"uint32_t\000"
 3285      33325F74 
 3285      00
 3286              	.LASF94:
 3287 05f4 77746D74 		.ascii	"wtmtxp\000"
 3287      787000
 3288              	.LASF51:
 3289 05fb 63685F74 		.ascii	"ch_threads_list\000"
 3289      68726561 
 3289      64735F6C 
 3289      69737400 
 3290              	.LASF98:
 3291 060b 6F776E65 		.ascii	"owner\000"
 3291      7200
 3292              	.LASF7:
 3293 0611 6C6F6E67 		.ascii	"long unsigned int\000"
 3293      20756E73 
 3293      69676E65 
 3293      6420696E 
 3293      7400
 3294              	.LASF38:
 3295 0623 77616261 		.ascii	"wabase\000"
 3295      736500
 3296              	.LASF99:
 3297 062a 63686172 		.ascii	"char\000"
 3297      00
 3298              	.LASF36:
 3299 062f 6F6C6465 		.ascii	"older\000"
 3299      7200
 3300              	.LASF81:
 3301 0635 41504250 		.ascii	"APBPrescTable\000"
 3301      72657363 
 3301      5461626C 
 3301      6500
 3302              	.LASF138:
 3303 0643 6F626A5F 		.ascii	"obj_list\000"
 3303      6C697374 
 3303      00
 3304              	.LASF14:
 3305 064c 5F5F7569 		.ascii	"__uint16_t\000"
 3305      6E743136 
 3305      5F7400
 3306              	.LASF32:
 3307 0657 74687265 		.ascii	"thread_t\000"
 3307      61645F74 
 3307      00
 3308              	.LASF127:
 3309 0660 63685F6D 		.ascii	"ch_memcore\000"
 3309      656D636F 
 3309      726500
ARM GAS  /tmp/cctbqtZl.s 			page 64


 3310              	.LASF75:
 3311 066b 73797374 		.ascii	"systime_t\000"
 3311      696D655F 
 3311      7400
 3312              	.LASF59:
 3313 0675 76746675 		.ascii	"vtfunc_t\000"
 3313      6E635F74 
 3313      00
 3314              	.LASF69:
 3315 067e 70616E69 		.ascii	"panic_msg\000"
 3315      635F6D73 
 3315      6700
 3316              	.LASF86:
 3317 0688 6F666673 		.ascii	"offset\000"
 3317      657400
 3318              	.LASF97:
 3319 068f 63685F6D 		.ascii	"ch_mutex\000"
 3319      75746578 
 3319      00
 3320              	.LASF111:
 3321 0698 6F66665F 		.ascii	"off_older\000"
 3321      6F6C6465 
 3321      7200
 3322              	.LASF3:
 3323 06a2 73686F72 		.ascii	"short unsigned int\000"
 3323      7420756E 
 3323      7369676E 
 3323      65642069 
 3323      6E7400
 3324              	.LASF101:
 3325 06b5 6964656E 		.ascii	"identifier\000"
 3325      74696669 
 3325      657200
 3326              	.LASF23:
 3327 06c0 7274636E 		.ascii	"rtcnt_t\000"
 3327      745F7400 
 3328              	.LASF129:
 3329 06c8 6F626A65 		.ascii	"object_size\000"
 3329      63745F73 
 3329      697A6500 
 3330              	.LASF105:
 3331 06d4 70747273 		.ascii	"ptrsize\000"
 3331      697A6500 
 3332              	.LASF137:
 3333 06dc 63685F6F 		.ascii	"ch_objects_factory\000"
 3333      626A6563 
 3333      74735F66 
 3333      6163746F 
 3333      727900
 3334              	.LASF53:
 3335 06ef 74687265 		.ascii	"threads_queue_t\000"
 3335      6164735F 
 3335      71756575 
 3335      655F7400 
 3336              	.LASF128:
 3337 06ff 706F6F6C 		.ascii	"pool_header\000"
 3337      5F686561 
ARM GAS  /tmp/cctbqtZl.s 			page 65


 3337      64657200 
 3338              	.LASF112:
 3339 070b 6F66665F 		.ascii	"off_name\000"
 3339      6E616D65 
 3339      00
 3340              	.LASF151:
 3341 0714 66665F6F 		.ascii	"ff_oem2uni\000"
 3341      656D3275 
 3341      6E6900
 3342              	.LASF18:
 3343 071f 75696E74 		.ascii	"uint8_t\000"
 3343      385F7400 
 3344              	.LASF40:
 3345 0727 666C6167 		.ascii	"flags\000"
 3345      7300
 3346              	.LASF144:
 3347 072d 6669666F 		.ascii	"fifo_list\000"
 3347      5F6C6973 
 3347      7400
 3348              	.LASF90:
 3349 0737 77746F62 		.ascii	"wtobjp\000"
 3349      6A7000
 3350              	.LASF5:
 3351 073e 57434841 		.ascii	"WCHAR\000"
 3351      5200
 3352              	.LASF49:
 3353 0744 74687265 		.ascii	"threads_list_t\000"
 3353      6164735F 
 3353      6C697374 
 3353      5F7400
 3354              	.LASF114:
 3355 0753 6F66665F 		.ascii	"off_state\000"
 3355      73746174 
 3355      6500
 3356              	.LASF145:
 3357 075d 6F626A65 		.ascii	"objects_factory_t\000"
 3357      6374735F 
 3357      66616374 
 3357      6F72795F 
 3357      7400
 3358              	.LASF115:
 3359 076f 6F66665F 		.ascii	"off_flags\000"
 3359      666C6167 
 3359      7300
 3360              	.LASF45:
 3361 0779 6D74786C 		.ascii	"mtxlist\000"
 3361      69737400 
 3362              	.LASF124:
 3363 0781 6E657874 		.ascii	"nextmem\000"
 3363      6D656D00 
 3364              		.ident	"GCC: (GNU Tools for ARM Embedded Processors 6-2017-q2-update) 6.3.1 20170620 (release) [AR
ARM GAS  /tmp/cctbqtZl.s 			page 66


DEFINED SYMBOLS
                            *ABS*:0000000000000000 ffunicode.c
     /tmp/cctbqtZl.s:18     .text.ff_uni2oem:0000000000000000 $t
     /tmp/cctbqtZl.s:25     .text.ff_uni2oem:0000000000000000 ff_uni2oem
     /tmp/cctbqtZl.s:82     .text.ff_uni2oem:0000000000000030 $d
     /tmp/cctbqtZl.s:87     .text.ff_oem2uni:0000000000000000 $t
     /tmp/cctbqtZl.s:94     .text.ff_oem2uni:0000000000000000 ff_oem2uni
     /tmp/cctbqtZl.s:131    .text.ff_oem2uni:0000000000000024 $d
     /tmp/cctbqtZl.s:136    .text.ff_wtoupper:0000000000000000 $t
     /tmp/cctbqtZl.s:143    .text.ff_wtoupper:0000000000000000 ff_wtoupper
     /tmp/cctbqtZl.s:192    .text.ff_wtoupper:0000000000000032 $d
     /tmp/cctbqtZl.s:282    .text.ff_wtoupper:000000000000007c $d
     /tmp/cctbqtZl.s:288    .rodata.cvt1.8363:0000000000000000 $d
     /tmp/cctbqtZl.s:292    .rodata.cvt1.8363:0000000000000000 cvt1.8363
     /tmp/cctbqtZl.s:543    .rodata.cvt2.8364:0000000000000000 $d
     /tmp/cctbqtZl.s:547    .rodata.cvt2.8364:0000000000000000 cvt2.8364
     /tmp/cctbqtZl.s:643    .rodata.uc850:0000000000000000 $d
     /tmp/cctbqtZl.s:647    .rodata.uc850:0000000000000000 uc850
                     .debug_frame:0000000000000010 $d
     /tmp/cctbqtZl.s:201    .text.ff_wtoupper:000000000000003b $d
     /tmp/cctbqtZl.s:201    .text.ff_wtoupper:000000000000003c $t

NO UNDEFINED SYMBOLS
