ARM GAS  /tmp/ccjRcf8c.s 			page 1


   1              		.cpu cortex-m4
   2              		.eabi_attribute 27, 1
   3              		.eabi_attribute 28, 1
   4              		.eabi_attribute 20, 1
   5              		.eabi_attribute 21, 1
   6              		.eabi_attribute 23, 3
   7              		.eabi_attribute 24, 1
   8              		.eabi_attribute 25, 1
   9              		.eabi_attribute 26, 1
  10              		.eabi_attribute 30, 4
  11              		.eabi_attribute 34, 1
  12              		.eabi_attribute 18, 4
  13              		.file	"flash.c"
  14              		.text
  15              	.Ltext0:
  16              		.cfi_sections	.debug_frame
  17              		.section	.text.stm32_flash_wait_idle,"ax",%progbits
  18              		.align	1
  19              		.syntax unified
  20              		.thumb
  21              		.thumb_func
  22              		.fpu fpv4-sp-d16
  23              		.type	stm32_flash_wait_idle, %function
  24              	stm32_flash_wait_idle:
  25              	.LFB255:
  26              		.file 1 "../../libraries/AP_HAL_ChibiOS/hwdef/common/flash.c"
  27              		.loc 1 185 0
  28              		.cfi_startproc
  29              		@ args = 0, pretend = 0, frame = 0
  30              		@ frame_needed = 0, uses_anonymous_args = 0
  31              		@ link register save eliminated.
  32              	.LBB44:
  33              	.LBB45:
  34              		.file 2 "../../modules/ChibiOS/os/common/ext/ARM/CMSIS/Core/Include/cmsis_gcc.h"
  35              		.loc 2 879 0
  36              		.syntax unified
  37              	@ 879 "../../modules/ChibiOS/os/common/ext/ARM/CMSIS/Core/Include/cmsis_gcc.h" 1
  38 0000 BFF34F8F 		dsb 0xF
  39              	@ 0 "" 2
  40              		.thumb
  41              		.syntax unified
  42              	.LBE45:
  43              	.LBE44:
  44              		.loc 1 193 0
  45 0004 024A     		ldr	r2, .L4
  46              	.L2:
  47              		.loc 1 193 0 is_stmt 0 discriminator 1
  48 0006 D368     		ldr	r3, [r2, #12]
  49 0008 DB03     		lsls	r3, r3, #15
  50 000a FCD4     		bmi	.L2
  51              		.loc 1 197 0 is_stmt 1
  52 000c 7047     		bx	lr
  53              	.L5:
  54 000e 00BF     		.align	2
  55              	.L4:
  56 0010 003C0240 		.word	1073888256
  57              		.cfi_endproc
ARM GAS  /tmp/ccjRcf8c.s 			page 2


  58              	.LFE255:
  59              		.size	stm32_flash_wait_idle, .-stm32_flash_wait_idle
  60              		.section	.text.stm32_flash_unlock,"ax",%progbits
  61              		.align	1
  62              		.syntax unified
  63              		.thumb
  64              		.thumb_func
  65              		.fpu fpv4-sp-d16
  66              		.type	stm32_flash_unlock, %function
  67              	stm32_flash_unlock:
  68              	.LFB257:
  69              		.loc 1 210 0
  70              		.cfi_startproc
  71              		@ args = 0, pretend = 0, frame = 0
  72              		@ frame_needed = 0, uses_anonymous_args = 0
  73 0000 08B5     		push	{r3, lr}
  74              		.cfi_def_cfa_offset 8
  75              		.cfi_offset 3, -8
  76              		.cfi_offset 14, -4
  77              		.loc 1 211 0
  78 0002 094B     		ldr	r3, .L9
  79 0004 1B78     		ldrb	r3, [r3]	@ zero_extendqisi2
  80 0006 73B9     		cbnz	r3, .L6
  81              	.LBB48:
  82              	.LBB49:
  83              		.loc 1 214 0
  84 0008 FFF7FEFF 		bl	stm32_flash_wait_idle
  85              	.LVL0:
  86              		.loc 1 228 0
  87 000c 074B     		ldr	r3, .L9+4
  88 000e 1A69     		ldr	r2, [r3, #16]
  89 0010 002A     		cmp	r2, #0
  90              		.loc 1 230 0
  91 0012 BFBF     		itttt	lt
  92 0014 064A     		ldrlt	r2, .L9+8
  93 0016 5A60     		strlt	r2, [r3, #4]
  94              		.loc 1 231 0
  95 0018 02F18832 		addlt	r2, r2, #-2004318072
  96 001c 5A60     		strlt	r2, [r3, #4]
  97              		.loc 1 237 0
  98 001e 1A68     		ldr	r2, [r3]
  99 0020 22F48062 		bic	r2, r2, #1024
 100 0024 1A60     		str	r2, [r3]
 101              	.L6:
 102 0026 08BD     		pop	{r3, pc}
 103              	.L10:
 104              		.align	2
 105              	.L9:
 106 0028 00000000 		.word	.LANCHOR0
 107 002c 003C0240 		.word	1073888256
 108 0030 23016745 		.word	1164378403
 109              	.LBE49:
 110              	.LBE48:
 111              		.cfi_endproc
 112              	.LFE257:
 113              		.size	stm32_flash_unlock, .-stm32_flash_unlock
 114              		.section	.text.stm32_flash_lock,"ax",%progbits
ARM GAS  /tmp/ccjRcf8c.s 			page 3


 115              		.align	1
 116              		.global	stm32_flash_lock
 117              		.syntax unified
 118              		.thumb
 119              		.thumb_func
 120              		.fpu fpv4-sp-d16
 121              		.type	stm32_flash_lock, %function
 122              	stm32_flash_lock:
 123              	.LFB258:
 124              		.loc 1 242 0
 125              		.cfi_startproc
 126              		@ args = 0, pretend = 0, frame = 0
 127              		@ frame_needed = 0, uses_anonymous_args = 0
 128 0000 08B5     		push	{r3, lr}
 129              		.cfi_def_cfa_offset 8
 130              		.cfi_offset 3, -8
 131              		.cfi_offset 14, -4
 132              		.loc 1 243 0
 133 0002 0B4B     		ldr	r3, .L13
 134 0004 1B78     		ldrb	r3, [r3]	@ zero_extendqisi2
 135 0006 93B9     		cbnz	r3, .L11
 136              	.LBB52:
 137              	.LBB53:
 138              		.loc 1 257 0
 139 0008 FFF7FEFF 		bl	stm32_flash_wait_idle
 140              	.LVL1:
 141              		.loc 1 258 0
 142 000c 094B     		ldr	r3, .L13+4
 143 000e 1A69     		ldr	r2, [r3, #16]
 144 0010 42F00042 		orr	r2, r2, #-2147483648
 145 0014 1A61     		str	r2, [r3, #16]
 146              		.loc 1 263 0
 147 0016 1A68     		ldr	r2, [r3]
 148 0018 42F48052 		orr	r2, r2, #4096
 149 001c 1A60     		str	r2, [r3]
 150              		.loc 1 264 0
 151 001e 1A68     		ldr	r2, [r3]
 152 0020 22F48052 		bic	r2, r2, #4096
 153 0024 1A60     		str	r2, [r3]
 154              		.loc 1 265 0
 155 0026 1A68     		ldr	r2, [r3]
 156 0028 42F48062 		orr	r2, r2, #1024
 157 002c 1A60     		str	r2, [r3]
 158              	.L11:
 159 002e 08BD     		pop	{r3, pc}
 160              	.L14:
 161              		.align	2
 162              	.L13:
 163 0030 00000000 		.word	.LANCHOR0
 164 0034 003C0240 		.word	1073888256
 165              	.LBE53:
 166              	.LBE52:
 167              		.cfi_endproc
 168              	.LFE258:
 169              		.size	stm32_flash_lock, .-stm32_flash_lock
 170              		.section	.text.stm32_flash_getpageaddr,"ax",%progbits
 171              		.align	1
ARM GAS  /tmp/ccjRcf8c.s 			page 4


 172              		.global	stm32_flash_getpageaddr
 173              		.syntax unified
 174              		.thumb
 175              		.thumb_func
 176              		.fpu fpv4-sp-d16
 177              		.type	stm32_flash_getpageaddr, %function
 178              	stm32_flash_getpageaddr:
 179              	.LFB259:
 180              		.loc 1 275 0
 181              		.cfi_startproc
 182              		@ args = 0, pretend = 0, frame = 0
 183              		@ frame_needed = 0, uses_anonymous_args = 0
 184              	.LVL2:
 185              		.loc 1 276 0
 186 0000 0B28     		cmp	r0, #11
 187              		.loc 1 275 0
 188 0002 70B5     		push	{r4, r5, r6, lr}
 189              		.cfi_def_cfa_offset 16
 190              		.cfi_offset 4, -16
 191              		.cfi_offset 5, -12
 192              		.cfi_offset 6, -8
 193              		.cfi_offset 14, -4
 194              		.loc 1 276 0
 195 0004 13D8     		bhi	.L19
 196              	.LVL3:
 197              	.LBB59:
 198              	.LBB60:
 199              		.loc 1 282 0
 200 0006 0B4A     		ldr	r2, .L21
 201 0008 0B4C     		ldr	r4, .L21+4
 202 000a 1378     		ldrb	r3, [r2]	@ zero_extendqisi2
 203 000c 63B9     		cbnz	r3, .L17
 204              	.LBB61:
 205              	.LBB62:
 206              	.LBB63:
 207              		.loc 1 306 0
 208 000e 0B4E     		ldr	r6, .L21+8
 209              	.LBE63:
 210              	.LBE62:
 211              	.LBE61:
 212              		.loc 1 282 0
 213 0010 4FF00061 		mov	r1, #134217728
 214              	.L18:
 215              	.LVL4:
 216              	.LBB64:
 217              		.loc 1 287 0
 218 0014 44F82310 		str	r1, [r4, r3, lsl #2]
 219              		.loc 1 288 0
 220 0018 56F82350 		ldr	r5, [r6, r3, lsl #2]
 221 001c 0133     		adds	r3, r3, #1
 222              	.LVL5:
 223              		.loc 1 286 0
 224 001e 0C2B     		cmp	r3, #12
 225              		.loc 1 288 0
 226 0020 2944     		add	r1, r1, r5
 227              	.LVL6:
 228              		.loc 1 286 0
ARM GAS  /tmp/ccjRcf8c.s 			page 5


 229 0022 F7D1     		bne	.L18
 230              		.loc 1 290 0
 231 0024 0123     		movs	r3, #1
 232 0026 1370     		strb	r3, [r2]
 233              	.LVL7:
 234              	.L17:
 235              	.LBE64:
 236              		.loc 1 293 0
 237 0028 54F82000 		ldr	r0, [r4, r0, lsl #2]
 238              	.LVL8:
 239 002c 70BD     		pop	{r4, r5, r6, pc}
 240              	.LVL9:
 241              	.L19:
 242              	.LBE60:
 243              	.LBE59:
 244              		.loc 1 277 0
 245 002e 0020     		movs	r0, #0
 246              	.LVL10:
 247              		.loc 1 295 0
 248 0030 70BD     		pop	{r4, r5, r6, pc}
 249              	.L22:
 250 0032 00BF     		.align	2
 251              	.L21:
 252 0034 00000000 		.word	.LANCHOR1
 253 0038 00000000 		.word	.LANCHOR2
 254 003c 00000000 		.word	.LANCHOR3
 255              		.cfi_endproc
 256              	.LFE259:
 257              		.size	stm32_flash_getpageaddr, .-stm32_flash_getpageaddr
 258              		.section	.text.stm32_flash_getpagesize,"ax",%progbits
 259              		.align	1
 260              		.global	stm32_flash_getpagesize
 261              		.syntax unified
 262              		.thumb
 263              		.thumb_func
 264              		.fpu fpv4-sp-d16
 265              		.type	stm32_flash_getpagesize, %function
 266              	stm32_flash_getpagesize:
 267              	.LFB260:
 268              		.loc 1 301 0
 269              		.cfi_startproc
 270              		@ args = 0, pretend = 0, frame = 0
 271              		@ frame_needed = 0, uses_anonymous_args = 0
 272              		@ link register save eliminated.
 273              	.LVL11:
 274              		.loc 1 308 0
 275 0000 014B     		ldr	r3, .L24
 276 0002 53F82000 		ldr	r0, [r3, r0, lsl #2]
 277              	.LVL12:
 278 0006 7047     		bx	lr
 279              	.L25:
 280              		.align	2
 281              	.L24:
 282 0008 00000000 		.word	.LANCHOR3
 283              		.cfi_endproc
 284              	.LFE260:
 285              		.size	stm32_flash_getpagesize, .-stm32_flash_getpagesize
ARM GAS  /tmp/ccjRcf8c.s 			page 6


 286              		.section	.text.stm32_flash_getnumpages,"ax",%progbits
 287              		.align	1
 288              		.global	stm32_flash_getnumpages
 289              		.syntax unified
 290              		.thumb
 291              		.thumb_func
 292              		.fpu fpv4-sp-d16
 293              		.type	stm32_flash_getnumpages, %function
 294              	stm32_flash_getnumpages:
 295              	.LFB261:
 296              		.loc 1 314 0
 297              		.cfi_startproc
 298              		@ args = 0, pretend = 0, frame = 0
 299              		@ frame_needed = 0, uses_anonymous_args = 0
 300              		@ link register save eliminated.
 301              		.loc 1 316 0
 302 0000 0C20     		movs	r0, #12
 303 0002 7047     		bx	lr
 304              		.cfi_endproc
 305              	.LFE261:
 306              		.size	stm32_flash_getnumpages, .-stm32_flash_getnumpages
 307              		.section	.text.stm32_flash_ispageerased,"ax",%progbits
 308              		.align	1
 309              		.global	stm32_flash_ispageerased
 310              		.syntax unified
 311              		.thumb
 312              		.thumb_func
 313              		.fpu fpv4-sp-d16
 314              		.type	stm32_flash_ispageerased, %function
 315              	stm32_flash_ispageerased:
 316              	.LFB262:
 317              		.loc 1 319 0
 318              		.cfi_startproc
 319              		@ args = 0, pretend = 0, frame = 0
 320              		@ frame_needed = 0, uses_anonymous_args = 0
 321              	.LVL13:
 322              		.loc 1 323 0
 323 0000 0B28     		cmp	r0, #11
 324              		.loc 1 319 0
 325 0002 10B5     		push	{r4, lr}
 326              		.cfi_def_cfa_offset 8
 327              		.cfi_offset 4, -8
 328              		.cfi_offset 14, -4
 329              		.loc 1 319 0
 330 0004 0446     		mov	r4, r0
 331              		.loc 1 323 0
 332 0006 01D9     		bls	.L28
 333              	.LVL14:
 334              	.L31:
 335              		.loc 1 324 0
 336 0008 0020     		movs	r0, #0
 337 000a 10BD     		pop	{r4, pc}
 338              	.LVL15:
 339              	.L28:
 340              	.LBB72:
 341              	.LBB73:
 342              		.loc 1 327 0
ARM GAS  /tmp/ccjRcf8c.s 			page 7


 343 000c FFF7FEFF 		bl	stm32_flash_getpageaddr
 344              	.LVL16:
 345              	.LBB74:
 346              	.LBB75:
 347              		.loc 1 306 0
 348 0010 064B     		ldr	r3, .L33
 349 0012 53F82430 		ldr	r3, [r3, r4, lsl #2]
 350              	.LVL17:
 351 0016 1844     		add	r0, r0, r3
 352              	.LVL18:
 353              	.L30:
 354 0018 C21A     		subs	r2, r0, r3
 355              	.LVL19:
 356              	.LBE75:
 357              	.LBE74:
 358              		.loc 1 327 0
 359 001a 0BB9     		cbnz	r3, .L32
 360              		.loc 1 335 0
 361 001c 0120     		movs	r0, #1
 362              	.LBE73:
 363              	.LBE72:
 364              		.loc 1 336 0
 365 001e 10BD     		pop	{r4, pc}
 366              	.LVL20:
 367              	.L32:
 368              	.LBB80:
 369              	.LBB79:
 370              	.LBB76:
 371              	.LBB77:
 372              	.LBB78:
 373              		.loc 1 174 0
 374              		.syntax unified
 375              	@ 174 "../../libraries/AP_HAL_ChibiOS/hwdef/common/flash.c" 1
 376 0020 1268     			ldr r2, [r2]
 377              		
 378              	@ 0 "" 2
 379              	.LVL21:
 380              		.thumb
 381              		.syntax unified
 382              	.LBE78:
 383              	.LBE77:
 384              		.loc 1 330 0
 385 0022 0132     		adds	r2, r2, #1
 386 0024 F0D1     		bne	.L31
 387              	.LBE76:
 388              		.loc 1 328 0
 389 0026 043B     		subs	r3, r3, #4
 390              	.LVL22:
 391 0028 F6E7     		b	.L30
 392              	.L34:
 393 002a 00BF     		.align	2
 394              	.L33:
 395 002c 00000000 		.word	.LANCHOR3
 396              	.LBE79:
 397              	.LBE80:
 398              		.cfi_endproc
 399              	.LFE262:
ARM GAS  /tmp/ccjRcf8c.s 			page 8


 400              		.size	stm32_flash_ispageerased, .-stm32_flash_ispageerased
 401              		.section	.text.stm32_flash_erasepage,"ax",%progbits
 402              		.align	1
 403              		.global	stm32_flash_erasepage
 404              		.syntax unified
 405              		.thumb
 406              		.thumb_func
 407              		.fpu fpv4-sp-d16
 408              		.type	stm32_flash_erasepage, %function
 409              	stm32_flash_erasepage:
 410              	.LFB263:
 411              		.loc 1 346 0
 412              		.cfi_startproc
 413              		@ args = 0, pretend = 0, frame = 0
 414              		@ frame_needed = 0, uses_anonymous_args = 0
 415              	.LVL23:
 416              		.loc 1 347 0
 417 0000 0B28     		cmp	r0, #11
 418              		.loc 1 346 0
 419 0002 10B5     		push	{r4, lr}
 420              		.cfi_def_cfa_offset 8
 421              		.cfi_offset 4, -8
 422              		.cfi_offset 14, -4
 423              		.loc 1 346 0
 424 0004 0446     		mov	r4, r0
 425              		.loc 1 347 0
 426 0006 21D8     		bhi	.L36
 427              		.loc 1 358 0
 428 0008 FFF7FEFF 		bl	stm32_flash_wait_idle
 429              	.LVL24:
 430              		.loc 1 359 0
 431 000c FFF7FEFF 		bl	stm32_flash_unlock
 432              	.LVL25:
 433              	.LBB81:
 434              	.LBB82:
 435              		.loc 1 205 0
 436 0010 0F4A     		ldr	r2, .L37
 437 0012 F323     		movs	r3, #243
 438 0014 D360     		str	r3, [r2, #12]
 439              	.LVL26:
 440              	.LBE82:
 441              	.LBE81:
 442              		.loc 1 396 0
 443 0016 C300     		lsls	r3, r0, #3
 444              		.loc 1 399 0
 445 0018 DBB2     		uxtb	r3, r3
 446 001a 43F40073 		orr	r3, r3, #512
 447 001e 43F00203 		orr	r3, r3, #2
 448 0022 1361     		str	r3, [r2, #16]
 449              		.loc 1 400 0
 450 0024 1369     		ldr	r3, [r2, #16]
 451 0026 43F48033 		orr	r3, r3, #65536
 452 002a 1361     		str	r3, [r2, #16]
 453              		.loc 1 405 0
 454 002c FFF7FEFF 		bl	stm32_flash_wait_idle
 455              	.LVL27:
 456              		.loc 1 407 0
ARM GAS  /tmp/ccjRcf8c.s 			page 9


 457 0030 FFF7FEFF 		bl	stm32_flash_getpageaddr
 458              	.LVL28:
 459              	.LBB83:
 460              	.LBB84:
 461              		.loc 1 306 0
 462 0034 074B     		ldr	r3, .L37+4
 463              	.LBE84:
 464              	.LBE83:
 465              		.loc 1 407 0
 466 0036 53F82410 		ldr	r1, [r3, r4, lsl #2]
 467 003a FFF7FEFF 		bl	stm32_cacheBufferInvalidate
 468              	.LVL29:
 469              		.loc 1 409 0
 470 003e FFF7FEFF 		bl	stm32_flash_lock
 471              	.LVL30:
 472              		.loc 1 418 0
 473 0042 2046     		mov	r0, r4
 474              		.loc 1 419 0
 475 0044 BDE81040 		pop	{r4, lr}
 476              		.cfi_remember_state
 477              		.cfi_restore 14
 478              		.cfi_restore 4
 479              		.cfi_def_cfa_offset 0
 480              	.LVL31:
 481              		.loc 1 418 0
 482 0048 FFF7FEBF 		b	stm32_flash_ispageerased
 483              	.LVL32:
 484              	.L36:
 485              		.cfi_restore_state
 486              		.loc 1 419 0
 487 004c 0020     		movs	r0, #0
 488              	.LVL33:
 489 004e 10BD     		pop	{r4, pc}
 490              	.LVL34:
 491              	.L38:
 492              		.align	2
 493              	.L37:
 494 0050 003C0240 		.word	1073888256
 495 0054 00000000 		.word	.LANCHOR3
 496              		.cfi_endproc
 497              	.LFE263:
 498              		.size	stm32_flash_erasepage, .-stm32_flash_erasepage
 499              		.section	.text.stm32_flash_write,"ax",%progbits
 500              		.align	1
 501              		.global	stm32_flash_write
 502              		.syntax unified
 503              		.thumb
 504              		.thumb_func
 505              		.fpu fpv4-sp-d16
 506              		.type	stm32_flash_write, %function
 507              	stm32_flash_write:
 508              	.LFB265:
 509              		.loc 1 649 0
 510              		.cfi_startproc
 511              		@ args = 0, pretend = 0, frame = 0
 512              		@ frame_needed = 0, uses_anonymous_args = 0
 513              	.LVL35:
ARM GAS  /tmp/ccjRcf8c.s 			page 10


 514 0000 2DE9F843 		push	{r3, r4, r5, r6, r7, r8, r9, lr}
 515              		.cfi_def_cfa_offset 32
 516              		.cfi_offset 3, -32
 517              		.cfi_offset 4, -28
 518              		.cfi_offset 5, -24
 519              		.cfi_offset 6, -20
 520              		.cfi_offset 7, -16
 521              		.cfi_offset 8, -12
 522              		.cfi_offset 9, -8
 523              		.cfi_offset 14, -4
 524              	.LBB102:
 525              	.LBB103:
 526              		.loc 1 492 0
 527 0004 12F00103 		ands	r3, r2, #1
 528              	.LBE103:
 529              	.LBE102:
 530              		.loc 1 649 0
 531 0008 1546     		mov	r5, r2
 532              	.LBB127:
 533              	.LBB125:
 534              		.loc 1 492 0
 535 000a 40D1     		bne	.L53
 536              		.loc 1 496 0
 537 000c 8218     		adds	r2, r0, r2
 538              	.LVL36:
 539 000e B2F1016F 		cmp	r2, #135266304
 540 0012 3CD2     		bcs	.L53
 541              		.loc 1 502 0
 542 0014 2C4B     		ldr	r3, .L54
 543 0016 1B68     		ldr	r3, [r3]
 544 0018 13F00103 		ands	r3, r3, #1
 545 001c 37D0     		beq	.L53
 546              	.LBB104:
 547              	.LBB105:
 548              		.loc 1 205 0
 549 001e 2B4C     		ldr	r4, .L54+4
 550              	.LBE105:
 551              	.LBE104:
 552              		.loc 1 510 0
 553 0020 FFF7FEFF 		bl	stm32_flash_unlock
 554              	.LVL37:
 555              	.LBB107:
 556              	.LBB106:
 557              		.loc 1 205 0
 558 0024 F323     		movs	r3, #243
 559 0026 E360     		str	r3, [r4, #12]
 560              	.LBE106:
 561              	.LBE107:
 562              		.loc 1 515 0
 563 0028 FFF7FEFF 		bl	stm32_flash_wait_idle
 564              	.LVL38:
 565              	.LBB108:
 566              		.loc 1 520 0
 567 002c 40F20127 		movw	r7, #513
 568              	.LVL39:
 569              	.L41:
 570              	.LBE108:
ARM GAS  /tmp/ccjRcf8c.s 			page 11


 571              		.loc 1 518 0
 572 0030 032D     		cmp	r5, #3
 573 0032 01D9     		bls	.L44
 574 0034 8307     		lsls	r3, r0, #30
 575 0036 13D0     		beq	.L45
 576              	.L44:
 577 0038 244C     		ldr	r4, .L54+4
 578              	.LBE125:
 579              	.LBE127:
 580              		.loc 1 649 0
 581 003a 0F46     		mov	r7, r1
 582 003c 401A     		subs	r0, r0, r1
 583              	.LVL40:
 584              	.LBB128:
 585              	.LBB126:
 586              		.loc 1 544 0
 587 003e 40F20118 		movw	r8, #257
 588              	.LVL41:
 589              	.L46:
 590 0042 EB1B     		subs	r3, r5, r7
 591 0044 0B44     		add	r3, r3, r1
 592              		.loc 1 542 0
 593 0046 012B     		cmp	r3, #1
 594 0048 00EB0706 		add	r6, r0, r7
 595              	.LVL42:
 596              		.loc 1 543 0
 597 004c 2369     		ldr	r3, [r4, #16]
 598              		.loc 1 542 0
 599 004e 24D8     		bhi	.L47
 600              		.loc 1 563 0
 601 0050 23F00103 		bic	r3, r3, #1
 602 0054 2361     		str	r3, [r4, #16]
 603              		.loc 1 565 0
 604 0056 FFF7FEFF 		bl	stm32_flash_lock
 605              	.LVL43:
 606              		.loc 1 569 0
 607 005a 0120     		movs	r0, #1
 608 005c BDE8F883 		pop	{r3, r4, r5, r6, r7, r8, r9, pc}
 609              	.LVL44:
 610              	.L45:
 611              	.LBB115:
 612              		.loc 1 519 0
 613 0060 2369     		ldr	r3, [r4, #16]
 614 0062 23F44073 		bic	r3, r3, #768
 615 0066 2361     		str	r3, [r4, #16]
 616              		.loc 1 520 0
 617 0068 2369     		ldr	r3, [r4, #16]
 618 006a 3B43     		orrs	r3, r3, r7
 619 006c 2361     		str	r3, [r4, #16]
 620              		.loc 1 521 0
 621 006e 51F8046B 		ldr	r6, [r1], #4
 622              	.LVL45:
 623              	.LBB109:
 624              	.LBB110:
 625              		.loc 1 181 0
 626 0072 0660     		str	r6, [r0]
 627              	.LVL46:
ARM GAS  /tmp/ccjRcf8c.s 			page 12


 628              	.LBE110:
 629              	.LBE109:
 630              	.LBB111:
 631              	.LBB112:
 632              		.loc 2 879 0
 633              		.syntax unified
 634              	@ 879 "../../modules/ChibiOS/os/common/ext/ARM/CMSIS/Core/Include/cmsis_gcc.h" 1
 635 0074 BFF34F8F 		dsb 0xF
 636              	@ 0 "" 2
 637              		.thumb
 638              		.syntax unified
 639              	.LBE112:
 640              	.LBE111:
 641              		.loc 1 528 0
 642 0078 FFF7FEFF 		bl	stm32_flash_wait_idle
 643              	.LVL47:
 644              	.LBB113:
 645              	.LBB114:
 646              		.loc 1 174 0
 647              		.syntax unified
 648              	@ 174 "../../libraries/AP_HAL_ChibiOS/hwdef/common/flash.c" 1
 649 007c 0368     			ldr r3, [r0]
 650              		
 651              	@ 0 "" 2
 652              	.LVL48:
 653              		.thumb
 654              		.syntax unified
 655              	.LBE114:
 656              	.LBE113:
 657              		.loc 1 531 0
 658 007e 9E42     		cmp	r6, r3
 659 0080 08D0     		beq	.L42
 660              	.LVL49:
 661              	.L52:
 662              	.L43:
 663              	.LBE115:
 664              		.loc 1 554 0
 665 0082 2369     		ldr	r3, [r4, #16]
 666 0084 23F00103 		bic	r3, r3, #1
 667 0088 2361     		str	r3, [r4, #16]
 668              		.loc 1 572 0
 669 008a FFF7FEFF 		bl	stm32_flash_lock
 670              	.LVL50:
 671              	.L53:
 672              		.loc 1 576 0
 673 008e 0020     		movs	r0, #0
 674 0090 BDE8F883 		pop	{r3, r4, r5, r6, r7, r8, r9, pc}
 675              	.LVL51:
 676              	.L42:
 677              	.LBB116:
 678              		.loc 1 536 0
 679 0094 043D     		subs	r5, r5, #4
 680              	.LVL52:
 681              		.loc 1 538 0
 682 0096 0430     		adds	r0, r0, #4
 683              	.LVL53:
 684 0098 CAE7     		b	.L41
ARM GAS  /tmp/ccjRcf8c.s 			page 13


 685              	.LVL54:
 686              	.L47:
 687              	.LBE116:
 688              		.loc 1 543 0
 689 009a 23F44073 		bic	r3, r3, #768
 690 009e 2361     		str	r3, [r4, #16]
 691              		.loc 1 544 0
 692 00a0 2369     		ldr	r3, [r4, #16]
 693 00a2 43EA0803 		orr	r3, r3, r8
 694 00a6 2361     		str	r3, [r4, #16]
 695 00a8 B946     		mov	r9, r7
 696              	.LVL55:
 697              	.LBB117:
 698              	.LBB118:
 699              		.loc 1 167 0
 700 00aa 37F8023B 		ldrh	r3, [r7], #2
 701              	.LVL56:
 702              		.syntax unified
 703              	@ 167 "../../libraries/AP_HAL_ChibiOS/hwdef/common/flash.c" 1
 704 00ae 3380     			strh r3, [r6]
 705              		
 706              	@ 0 "" 2
 707              	.LVL57:
 708              		.thumb
 709              		.syntax unified
 710              	.LBE118:
 711              	.LBE117:
 712              	.LBB119:
 713              	.LBB120:
 714              		.loc 2 879 0
 715              		.syntax unified
 716              	@ 879 "../../modules/ChibiOS/os/common/ext/ARM/CMSIS/Core/Include/cmsis_gcc.h" 1
 717 00b0 BFF34F8F 		dsb 0xF
 718              	@ 0 "" 2
 719              		.thumb
 720              		.syntax unified
 721              	.LBE120:
 722              	.LBE119:
 723              		.loc 1 551 0
 724 00b4 FFF7FEFF 		bl	stm32_flash_wait_idle
 725              	.LVL58:
 726              	.LBB121:
 727              	.LBB122:
 728              		.loc 1 160 0
 729              		.syntax unified
 730              	@ 160 "../../libraries/AP_HAL_ChibiOS/hwdef/common/flash.c" 1
 731 00b8 3688     			ldrh r6, [r6]
 732              		
 733              	@ 0 "" 2
 734              	.LVL59:
 735              		.thumb
 736              		.syntax unified
 737              	.LBE122:
 738              	.LBE121:
 739              		.loc 1 553 0
 740 00ba B9F80030 		ldrh	r3, [r9]
 741              	.LBB124:
ARM GAS  /tmp/ccjRcf8c.s 			page 14


 742              	.LBB123:
 743              		.loc 1 160 0
 744 00be B6B2     		uxth	r6, r6
 745              	.LVL60:
 746              	.LBE123:
 747              	.LBE124:
 748              		.loc 1 553 0
 749 00c0 B342     		cmp	r3, r6
 750 00c2 BED0     		beq	.L46
 751 00c4 DDE7     		b	.L52
 752              	.L55:
 753 00c6 00BF     		.align	2
 754              	.L54:
 755 00c8 00380240 		.word	1073887232
 756 00cc 003C0240 		.word	1073888256
 757              	.LBE126:
 758              	.LBE128:
 759              		.cfi_endproc
 760              	.LFE265:
 761              		.size	stm32_flash_write, .-stm32_flash_write
 762              		.section	.text.stm32_flash_keep_unlocked,"ax",%progbits
 763              		.align	1
 764              		.global	stm32_flash_keep_unlocked
 765              		.syntax unified
 766              		.thumb
 767              		.thumb_func
 768              		.fpu fpv4-sp-d16
 769              		.type	stm32_flash_keep_unlocked, %function
 770              	stm32_flash_keep_unlocked:
 771              	.LFB266:
 772              		.loc 1 662 0
 773              		.cfi_startproc
 774              		@ args = 0, pretend = 0, frame = 0
 775              		@ frame_needed = 0, uses_anonymous_args = 0
 776              	.LVL61:
 777 0000 0849     		ldr	r1, .L62
 778 0002 08B5     		push	{r3, lr}
 779              		.cfi_def_cfa_offset 8
 780              		.cfi_offset 3, -8
 781              		.cfi_offset 14, -4
 782              		.loc 1 663 0
 783 0004 0B78     		ldrb	r3, [r1]	@ zero_extendqisi2
 784 0006 28B1     		cbz	r0, .L57
 785              		.loc 1 663 0 is_stmt 0 discriminator 1
 786 0008 53B9     		cbnz	r3, .L56
 787              		.loc 1 664 0 is_stmt 1
 788 000a FFF7FEFF 		bl	stm32_flash_unlock
 789              	.LVL62:
 790              		.loc 1 665 0
 791 000e 0123     		movs	r3, #1
 792 0010 0B70     		strb	r3, [r1]
 793 0012 08BD     		pop	{r3, pc}
 794              	.L57:
 795              		.loc 1 666 0 discriminator 1
 796 0014 23B1     		cbz	r3, .L56
 797              		.loc 1 670 0
 798 0016 BDE80840 		pop	{r3, lr}
ARM GAS  /tmp/ccjRcf8c.s 			page 15


 799              		.cfi_remember_state
 800              		.cfi_restore 14
 801              		.cfi_restore 3
 802              		.cfi_def_cfa_offset 0
 803              		.loc 1 667 0
 804 001a 0870     		strb	r0, [r1]
 805              		.loc 1 668 0
 806 001c FFF7FEBF 		b	stm32_flash_lock
 807              	.LVL63:
 808              	.L56:
 809              		.cfi_restore_state
 810 0020 08BD     		pop	{r3, pc}
 811              	.L63:
 812 0022 00BF     		.align	2
 813              	.L62:
 814 0024 00000000 		.word	.LANCHOR0
 815              		.cfi_endproc
 816              	.LFE266:
 817              		.size	stm32_flash_keep_unlocked, .-stm32_flash_keep_unlocked
 818              		.global	_flash_fail_buf
 819              		.global	_flash_fail_count
 820              		.global	_flash_fail_addr
 821              		.global	_flash_fail_line
 822              		.section	.bss._flash_fail_addr,"aw",%nobits
 823              		.align	2
 824              		.type	_flash_fail_addr, %object
 825              		.size	_flash_fail_addr, 4
 826              	_flash_fail_addr:
 827 0000 00000000 		.space	4
 828              		.section	.bss._flash_fail_buf,"aw",%nobits
 829              		.align	2
 830              		.type	_flash_fail_buf, %object
 831              		.size	_flash_fail_buf, 4
 832              	_flash_fail_buf:
 833 0000 00000000 		.space	4
 834              		.section	.bss._flash_fail_count,"aw",%nobits
 835              		.align	2
 836              		.type	_flash_fail_count, %object
 837              		.size	_flash_fail_count, 4
 838              	_flash_fail_count:
 839 0000 00000000 		.space	4
 840              		.section	.bss._flash_fail_line,"aw",%nobits
 841              		.align	2
 842              		.type	_flash_fail_line, %object
 843              		.size	_flash_fail_line, 4
 844              	_flash_fail_line:
 845 0000 00000000 		.space	4
 846              		.section	.bss.flash_keep_unlocked,"aw",%nobits
 847              		.set	.LANCHOR0,. + 0
 848              		.type	flash_keep_unlocked, %object
 849              		.size	flash_keep_unlocked, 1
 850              	flash_keep_unlocked:
 851 0000 00       		.space	1
 852              		.section	.bss.flash_pageaddr,"aw",%nobits
 853              		.align	2
 854              		.set	.LANCHOR2,. + 0
 855              		.type	flash_pageaddr, %object
ARM GAS  /tmp/ccjRcf8c.s 			page 16


 856              		.size	flash_pageaddr, 48
 857              	flash_pageaddr:
 858 0000 00000000 		.space	48
 858      00000000 
 858      00000000 
 858      00000000 
 858      00000000 
 859              		.section	.bss.flash_pageaddr_initialised,"aw",%nobits
 860              		.set	.LANCHOR1,. + 0
 861              		.type	flash_pageaddr_initialised, %object
 862              		.size	flash_pageaddr_initialised, 1
 863              	flash_pageaddr_initialised:
 864 0000 00       		.space	1
 865              		.section	.rodata.flash_memmap,"a",%progbits
 866              		.align	2
 867              		.set	.LANCHOR3,. + 0
 868              		.type	flash_memmap, %object
 869              		.size	flash_memmap, 48
 870              	flash_memmap:
 871 0000 00400000 		.word	16384
 872 0004 00400000 		.word	16384
 873 0008 00400000 		.word	16384
 874 000c 00400000 		.word	16384
 875 0010 00000100 		.word	65536
 876 0014 00000200 		.word	131072
 877 0018 00000200 		.word	131072
 878 001c 00000200 		.word	131072
 879 0020 00000200 		.word	131072
 880 0024 00000200 		.word	131072
 881 0028 00000200 		.word	131072
 882 002c 00000200 		.word	131072
 883              		.text
 884              	.Letext0:
 885              		.file 3 "/opt/gcc-arm-none-eabi-6-2017-q2-update/lib/gcc/arm-none-eabi/6.3.1/include/stddef.h"
 886              		.file 4 "/opt/gcc-arm-none-eabi-6-2017-q2-update/arm-none-eabi/include/machine/_default_types.h"
 887              		.file 5 "/opt/gcc-arm-none-eabi-6-2017-q2-update/arm-none-eabi/include/sys/_stdint.h"
 888              		.file 6 "../../modules/ChibiOS/os/common/ports/ARMCMx/compilers/GCC/chtypes.h"
 889              		.file 7 "../../modules/ChibiOS/os/rt/include/chsystypes.h"
 890              		.file 8 "../../modules/ChibiOS/os/rt/include/chschd.h"
 891              		.file 9 "../../modules/ChibiOS/os/rt/include/chtime.h"
 892              		.file 10 "../../modules/ChibiOS/os/common/ext/ARM/CMSIS/Core/Include/core_cm4.h"
 893              		.file 11 "../../modules/ChibiOS/os/common/ext/ST/STM32F4xx/system_stm32f4xx.h"
 894              		.file 12 "../../modules/ChibiOS/os/common/ext/ST/STM32F4xx/stm32f407xx.h"
 895              		.file 13 "../../modules/ChibiOS/os/common/ports/ARMCMx/chcore.h"
 896              		.file 14 "../../modules/ChibiOS/os/common/ports/ARMCMx/chcore_v7m.h"
 897              		.file 15 "../../modules/ChibiOS/os/rt/include/chsys.h"
 898              		.file 16 "../../modules/ChibiOS/os/hal/osal/rt/osal.h"
 899              		.file 17 "../../modules/ChibiOS/os/hal/ports/STM32/LLD/DMAv2/stm32_dma.h"
 900              		.file 18 "../../modules/ChibiOS/os/hal/include/hal_queues.h"
 901              		.file 19 "../../modules/ChibiOS/os/hal/include/hal_pal.h"
 902              		.file 20 "../../modules/ChibiOS/os/hal/ports/STM32/LLD/GPIOv2/hal_pal_lld.h"
 903              		.file 21 "../../modules/ChibiOS/os/hal/include/hal_serial.h"
 904              		.file 22 "../../modules/ChibiOS/os/hal/ports/STM32/LLD/USARTv1/hal_serial_lld.h"
 905              		.file 23 "../../modules/ChibiOS/os/hal/include/hal_usb.h"
 906              		.file 24 "../../modules/ChibiOS/os/hal/ports/STM32/LLD/OTGv1/hal_usb_lld.h"
 907              		.file 25 "../../modules/ChibiOS/os/hal/ports/STM32/LLD/OTGv1/stm32_otg.h"
 908              		.file 26 "/opt/gcc-arm-none-eabi-6-2017-q2-update/arm-none-eabi/include/sys/lock.h"
ARM GAS  /tmp/ccjRcf8c.s 			page 17


 909              		.file 27 "/opt/gcc-arm-none-eabi-6-2017-q2-update/arm-none-eabi/include/sys/_types.h"
 910              		.file 28 "/opt/gcc-arm-none-eabi-6-2017-q2-update/arm-none-eabi/include/sys/reent.h"
 911              		.file 29 "../../libraries/AP_HAL_ChibiOS/hwdef/common/stm32_util.h"