ARM GAS  /tmp/ccNAawhy.s 			page 1


   1              		.cpu cortex-m4
   2              		.eabi_attribute 27, 1
   3              		.eabi_attribute 28, 1
   4              		.eabi_attribute 20, 1
   5              		.eabi_attribute 21, 1
   6              		.eabi_attribute 23, 3
   7              		.eabi_attribute 24, 1
   8              		.eabi_attribute 25, 1
   9              		.eabi_attribute 26, 1
  10              		.eabi_attribute 30, 4
  11              		.eabi_attribute 34, 1
  12              		.eabi_attribute 18, 4
  13              		.file	"hal.c"
  14              		.text
  15              	.Ltext0:
  16              		.cfi_sections	.debug_frame
  17              		.section	.text.halInit,"ax",%progbits
  18              		.align	1
  19              		.global	halInit
  20              		.syntax unified
  21              		.thumb
  22              		.thumb_func
  23              		.fpu fpv4-sp-d16
  24              		.type	halInit, %function
  25              	halInit:
  26              	.LFB251:
  27              		.file 1 "../../modules/ChibiOS/os/hal/src/hal.c"
  28              		.loc 1 56 0
  29              		.cfi_startproc
  30              		@ args = 0, pretend = 0, frame = 0
  31              		@ frame_needed = 0, uses_anonymous_args = 0
  32 0000 08B5     		push	{r3, lr}
  33              		.cfi_def_cfa_offset 8
  34              		.cfi_offset 3, -8
  35              		.cfi_offset 14, -4
  36              		.loc 1 62 0
  37 0002 FFF7FEFF 		bl	hal_lld_init
  38              	.LVL0:
  39              		.loc 1 66 0
  40 0006 FFF7FEFF 		bl	_pal_lld_init
  41              	.LVL1:
  42              		.loc 1 105 0
  43 000a FFF7FEFF 		bl	sdInit
  44              	.LVL2:
  45              		.loc 1 120 0
  46 000e FFF7FEFF 		bl	usbInit
  47              	.LVL3:
  48              		.loc 1 126 0
  49 0012 FFF7FEFF 		bl	sduInit
  50              	.LVL4:
  51              		.loc 1 146 0
  52 0016 FFF7FEFF 		bl	boardInit
  53              	.LVL5:
  54              		.loc 1 155 0
  55 001a BDE80840 		pop	{r3, lr}
  56              		.cfi_restore 14
  57              		.cfi_restore 3
ARM GAS  /tmp/ccNAawhy.s 			page 2


  58              		.cfi_def_cfa_offset 0
  59              		.loc 1 153 0
  60 001e FFF7FEBF 		b	stInit
  61              	.LVL6:
  62              		.cfi_endproc
  63              	.LFE251:
  64              		.size	halInit, .-halInit
  65              		.text
  66              	.Letext0:
  67              		.file 2 "/opt/gcc-arm-none-eabi-6-2017-q2-update/lib/gcc/arm-none-eabi/6.3.1/include/stddef.h"
  68              		.file 3 "/opt/gcc-arm-none-eabi-6-2017-q2-update/arm-none-eabi/include/machine/_default_types.h"
  69              		.file 4 "/opt/gcc-arm-none-eabi-6-2017-q2-update/arm-none-eabi/include/sys/_stdint.h"
  70              		.file 5 "../../modules/ChibiOS/os/common/ports/ARMCMx/compilers/GCC/chtypes.h"
  71              		.file 6 "../../modules/ChibiOS/os/rt/include/chsystypes.h"
  72              		.file 7 "../../modules/ChibiOS/os/rt/include/chschd.h"
  73              		.file 8 "../../modules/ChibiOS/os/rt/include/chtime.h"
  74              		.file 9 "../../modules/ChibiOS/os/common/ext/ARM/CMSIS/Core/Include/core_cm4.h"
  75              		.file 10 "../../modules/ChibiOS/os/common/ext/ST/STM32F4xx/system_stm32f4xx.h"
  76              		.file 11 "../../modules/ChibiOS/os/common/ext/ST/STM32F4xx/stm32f407xx.h"
  77              		.file 12 "../../modules/ChibiOS/os/common/ports/ARMCMx/chcore.h"
  78              		.file 13 "../../modules/ChibiOS/os/common/ports/ARMCMx/chcore_v7m.h"
  79              		.file 14 "../../modules/ChibiOS/os/rt/include/chsys.h"
  80              		.file 15 "../../modules/ChibiOS/os/hal/osal/rt/osal.h"
  81              		.file 16 "../../modules/ChibiOS/os/hal/ports/STM32/LLD/DMAv2/stm32_dma.h"
  82              		.file 17 "../../modules/ChibiOS/os/hal/include/hal_queues.h"
  83              		.file 18 "../../modules/ChibiOS/os/hal/include/hal_pal.h"
  84              		.file 19 "../../modules/ChibiOS/os/hal/ports/STM32/LLD/GPIOv2/hal_pal_lld.h"
  85              		.file 20 "../../modules/ChibiOS/os/hal/include/hal_serial.h"
  86              		.file 21 "../../modules/ChibiOS/os/hal/ports/STM32/LLD/USARTv1/hal_serial_lld.h"
  87              		.file 22 "../../modules/ChibiOS/os/hal/include/hal_usb.h"
  88              		.file 23 "../../modules/ChibiOS/os/hal/ports/STM32/LLD/OTGv1/hal_usb_lld.h"
  89              		.file 24 "../../modules/ChibiOS/os/hal/ports/STM32/LLD/OTGv1/stm32_otg.h"
  90              		.file 25 "../../modules/ChibiOS/os/hal/ports/STM32/STM32F4xx/hal_lld_type1.h"
  91              		.file 26 "../../modules/ChibiOS/os/hal/include/hal_serial_usb.h"
  92              		.file 27 "../../libraries/AP_HAL_ChibiOS/hwdef/common/board.h"
  93              		.file 28 "../../modules/ChibiOS/os/hal/include/hal_st.h"