ARM GAS  /tmp/ccSKubGB.s 			page 1


   1              		.cpu cortex-m4
   2              		.eabi_attribute 27, 1
   3              		.eabi_attribute 28, 1
   4              		.eabi_attribute 20, 1
   5              		.eabi_attribute 21, 1
   6              		.eabi_attribute 23, 3
   7              		.eabi_attribute 24, 1
   8              		.eabi_attribute 25, 1
   9              		.eabi_attribute 26, 1
  10              		.eabi_attribute 30, 4
  11              		.eabi_attribute 34, 1
  12              		.eabi_attribute 18, 4
  13              		.file	"hal_serial_usb.c"
  14              		.text
  15              	.Ltext0:
  16              		.cfi_sections	.debug_frame
  17              		.section	.text.osalEventBroadcastFlagsI,"ax",%progbits
  18              		.align	1
  19              		.syntax unified
  20              		.thumb
  21              		.thumb_func
  22              		.fpu fpv4-sp-d16
  23              		.type	osalEventBroadcastFlagsI, %function
  24              	osalEventBroadcastFlagsI:
  25              	.LFB245:
  26              		.file 1 "../../modules/ChibiOS/os/hal/osal/rt/osal.h"
  27              		.loc 1 899 0
  28              		.cfi_startproc
  29              		@ args = 0, pretend = 0, frame = 0
  30              		@ frame_needed = 0, uses_anonymous_args = 0
  31              		@ link register save eliminated.
  32              	.LVL0:
  33              		.loc 1 903 0
  34 0000 0268     		ldr	r2, [r0]
  35              		.loc 1 904 0
  36 0002 4368     		ldr	r3, [r0, #4]
  37              		.loc 1 903 0
  38 0004 1143     		orrs	r1, r1, r2
  39              	.LVL1:
  40 0006 0160     		str	r1, [r0]
  41              		.loc 1 904 0
  42 0008 03B1     		cbz	r3, .L1
  43              		.loc 1 905 0
  44 000a 1847     		bx	r3	@ indirect register sibling call
  45              	.LVL2:
  46              	.L1:
  47 000c 7047     		bx	lr
  48              		.cfi_endproc
  49              	.LFE245:
  50              		.size	osalEventBroadcastFlagsI, .-osalEventBroadcastFlagsI
  51              		.section	.text.obnotify,"ax",%progbits
  52              		.align	1
  53              		.syntax unified
  54              		.thumb
  55              		.thumb_func
  56              		.fpu fpv4-sp-d16
  57              		.type	obnotify, %function
ARM GAS  /tmp/ccSKubGB.s 			page 2


  58              	obnotify:
  59              	.LFB262:
  60              		.file 2 "../../modules/ChibiOS/os/hal/src/hal_serial_usb.c"
  61              		.loc 2 178 0
  62              		.cfi_startproc
  63              		@ args = 0, pretend = 0, frame = 8
  64              		@ frame_needed = 0, uses_anonymous_args = 0
  65              	.LVL3:
  66 0000 13B5     		push	{r0, r1, r4, lr}
  67              		.cfi_def_cfa_offset 16
  68              		.cfi_offset 4, -8
  69              		.cfi_offset 14, -4
  70              		.loc 2 180 0
  71 0002 446B     		ldr	r4, [r0, #52]
  72              	.LVL4:
  73              		.loc 2 184 0
  74 0004 D4F89434 		ldr	r3, [r4, #1172]
  75 0008 1A68     		ldr	r2, [r3]
  76 000a 1178     		ldrb	r1, [r2]	@ zero_extendqisi2
  77 000c 0429     		cmp	r1, #4
  78 000e 15D1     		bne	.L3
  79              		.loc 2 184 0 is_stmt 0 discriminator 1
  80 0010 217C     		ldrb	r1, [r4, #16]	@ zero_extendqisi2
  81 0012 0229     		cmp	r1, #2
  82 0014 12D1     		bne	.L3
  83              		.loc 2 190 0 is_stmt 1
  84 0016 1979     		ldrb	r1, [r3, #4]	@ zero_extendqisi2
  85 0018 1289     		ldrh	r2, [r2, #8]
  86 001a 0123     		movs	r3, #1
  87 001c 8B40     		lsls	r3, r3, r1
  88 001e 1342     		tst	r3, r2
  89 0020 0CD1     		bne	.L3
  90              	.LBB118:
  91              		.loc 2 193 0
  92 0022 01A9     		add	r1, sp, #4
  93 0024 04F14C00 		add	r0, r4, #76
  94              	.LVL5:
  95 0028 FFF7FEFF 		bl	obqGetFullBufferI
  96              	.LVL6:
  97              		.loc 2 195 0
  98 002c D4F89444 		ldr	r4, [r4, #1172]
  99              	.LVL7:
 100 0030 019B     		ldr	r3, [sp, #4]
 101 0032 2179     		ldrb	r1, [r4, #4]	@ zero_extendqisi2
 102 0034 0246     		mov	r2, r0
 103 0036 2068     		ldr	r0, [r4]
 104              	.LVL8:
 105 0038 FFF7FEFF 		bl	usbStartTransmitI
 106              	.LVL9:
 107              	.L3:
 108              	.LBE118:
 109              		.loc 2 197 0
 110 003c 02B0     		add	sp, sp, #8
 111              		.cfi_def_cfa_offset 8
 112              		@ sp needed
 113 003e 10BD     		pop	{r4, pc}
 114              		.cfi_endproc
ARM GAS  /tmp/ccSKubGB.s 			page 3


 115              	.LFE262:
 116              		.size	obnotify, .-obnotify
 117              		.section	.text._readt,"ax",%progbits
 118              		.align	1
 119              		.syntax unified
 120              		.thumb
 121              		.thumb_func
 122              		.fpu fpv4-sp-d16
 123              		.type	_readt, %function
 124              	_readt:
 125              	.LFB259:
 126              		.loc 2 124 0
 127              		.cfi_startproc
 128              		@ args = 0, pretend = 0, frame = 0
 129              		@ frame_needed = 0, uses_anonymous_args = 0
 130              		@ link register save eliminated.
 131              	.LVL10:
 132              		.loc 2 126 0
 133 0000 1430     		adds	r0, r0, #20
 134              	.LVL11:
 135 0002 FFF7FEBF 		b	ibqReadTimeout
 136              	.LVL12:
 137              		.cfi_endproc
 138              	.LFE259:
 139              		.size	_readt, .-_readt
 140              		.section	.text._read,"ax",%progbits
 141              		.align	1
 142              		.syntax unified
 143              		.thumb
 144              		.thumb_func
 145              		.fpu fpv4-sp-d16
 146              		.type	_read, %function
 147              	_read:
 148              	.LFB253:
 149              		.loc 2 91 0
 150              		.cfi_startproc
 151              		@ args = 0, pretend = 0, frame = 0
 152              		@ frame_needed = 0, uses_anonymous_args = 0
 153              		@ link register save eliminated.
 154              	.LVL13:
 155              		.loc 2 93 0
 156 0000 4FF0FF33 		mov	r3, #-1
 157 0004 1430     		adds	r0, r0, #20
 158              	.LVL14:
 159 0006 FFF7FEBF 		b	ibqReadTimeout
 160              	.LVL15:
 161              		.cfi_endproc
 162              	.LFE253:
 163              		.size	_read, .-_read
 164              		.section	.text._writet,"ax",%progbits
 165              		.align	1
 166              		.syntax unified
 167              		.thumb
 168              		.thumb_func
 169              		.fpu fpv4-sp-d16
 170              		.type	_writet, %function
 171              	_writet:
ARM GAS  /tmp/ccSKubGB.s 			page 4


 172              	.LFB258:
 173              		.loc 2 118 0
 174              		.cfi_startproc
 175              		@ args = 0, pretend = 0, frame = 0
 176              		@ frame_needed = 0, uses_anonymous_args = 0
 177              		@ link register save eliminated.
 178              	.LVL16:
 179              		.loc 2 120 0
 180 0000 4C30     		adds	r0, r0, #76
 181              	.LVL17:
 182 0002 FFF7FEBF 		b	obqWriteTimeout
 183              	.LVL18:
 184              		.cfi_endproc
 185              	.LFE258:
 186              		.size	_writet, .-_writet
 187              		.section	.text._write,"ax",%progbits
 188              		.align	1
 189              		.syntax unified
 190              		.thumb
 191              		.thumb_func
 192              		.fpu fpv4-sp-d16
 193              		.type	_write, %function
 194              	_write:
 195              	.LFB252:
 196              		.loc 2 85 0
 197              		.cfi_startproc
 198              		@ args = 0, pretend = 0, frame = 0
 199              		@ frame_needed = 0, uses_anonymous_args = 0
 200              		@ link register save eliminated.
 201              	.LVL19:
 202              		.loc 2 87 0
 203 0000 4FF0FF33 		mov	r3, #-1
 204 0004 4C30     		adds	r0, r0, #76
 205              	.LVL20:
 206 0006 FFF7FEBF 		b	obqWriteTimeout
 207              	.LVL21:
 208              		.cfi_endproc
 209              	.LFE252:
 210              		.size	_write, .-_write
 211              		.section	.text._gett,"ax",%progbits
 212              		.align	1
 213              		.syntax unified
 214              		.thumb
 215              		.thumb_func
 216              		.fpu fpv4-sp-d16
 217              		.type	_gett, %function
 218              	_gett:
 219              	.LFB257:
 220              		.loc 2 112 0
 221              		.cfi_startproc
 222              		@ args = 0, pretend = 0, frame = 0
 223              		@ frame_needed = 0, uses_anonymous_args = 0
 224              		@ link register save eliminated.
 225              	.LVL22:
 226              		.loc 2 114 0
 227 0000 1430     		adds	r0, r0, #20
 228              	.LVL23:
ARM GAS  /tmp/ccSKubGB.s 			page 5


 229 0002 FFF7FEBF 		b	ibqGetTimeout
 230              	.LVL24:
 231              		.cfi_endproc
 232              	.LFE257:
 233              		.size	_gett, .-_gett
 234              		.section	.text._get,"ax",%progbits
 235              		.align	1
 236              		.syntax unified
 237              		.thumb
 238              		.thumb_func
 239              		.fpu fpv4-sp-d16
 240              		.type	_get, %function
 241              	_get:
 242              	.LFB255:
 243              		.loc 2 102 0
 244              		.cfi_startproc
 245              		@ args = 0, pretend = 0, frame = 0
 246              		@ frame_needed = 0, uses_anonymous_args = 0
 247              		@ link register save eliminated.
 248              	.LVL25:
 249              		.loc 2 104 0
 250 0000 4FF0FF31 		mov	r1, #-1
 251 0004 1430     		adds	r0, r0, #20
 252              	.LVL26:
 253 0006 FFF7FEBF 		b	ibqGetTimeout
 254              	.LVL27:
 255              		.cfi_endproc
 256              	.LFE255:
 257              		.size	_get, .-_get
 258              		.section	.text._putt,"ax",%progbits
 259              		.align	1
 260              		.syntax unified
 261              		.thumb
 262              		.thumb_func
 263              		.fpu fpv4-sp-d16
 264              		.type	_putt, %function
 265              	_putt:
 266              	.LFB256:
 267              		.loc 2 107 0
 268              		.cfi_startproc
 269              		@ args = 0, pretend = 0, frame = 0
 270              		@ frame_needed = 0, uses_anonymous_args = 0
 271              		@ link register save eliminated.
 272              	.LVL28:
 273              		.loc 2 109 0
 274 0000 4C30     		adds	r0, r0, #76
 275              	.LVL29:
 276 0002 FFF7FEBF 		b	obqPutTimeout
 277              	.LVL30:
 278              		.cfi_endproc
 279              	.LFE256:
 280              		.size	_putt, .-_putt
 281              		.section	.text._put,"ax",%progbits
 282              		.align	1
 283              		.syntax unified
 284              		.thumb
 285              		.thumb_func
ARM GAS  /tmp/ccSKubGB.s 			page 6


 286              		.fpu fpv4-sp-d16
 287              		.type	_put, %function
 288              	_put:
 289              	.LFB254:
 290              		.loc 2 97 0
 291              		.cfi_startproc
 292              		@ args = 0, pretend = 0, frame = 0
 293              		@ frame_needed = 0, uses_anonymous_args = 0
 294              		@ link register save eliminated.
 295              	.LVL31:
 296              		.loc 2 99 0
 297 0000 4FF0FF32 		mov	r2, #-1
 298 0004 4C30     		adds	r0, r0, #76
 299              	.LVL32:
 300 0006 FFF7FEBF 		b	obqPutTimeout
 301              	.LVL33:
 302              		.cfi_endproc
 303              	.LFE254:
 304              		.size	_put, .-_put
 305              		.section	.text.sdu_start_receive,"ax",%progbits
 306              		.align	1
 307              		.syntax unified
 308              		.thumb
 309              		.thumb_func
 310              		.fpu fpv4-sp-d16
 311              		.type	sdu_start_receive, %function
 312              	sdu_start_receive:
 313              	.LFB251:
 314              		.loc 2 53 0
 315              		.cfi_startproc
 316              		@ args = 0, pretend = 0, frame = 0
 317              		@ frame_needed = 0, uses_anonymous_args = 0
 318              	.LVL34:
 319              		.loc 2 58 0
 320 0000 D0F89424 		ldr	r2, [r0, #1172]
 321              		.loc 2 53 0
 322 0004 38B5     		push	{r3, r4, r5, lr}
 323              		.cfi_def_cfa_offset 16
 324              		.cfi_offset 3, -16
 325              		.cfi_offset 4, -12
 326              		.cfi_offset 5, -8
 327              		.cfi_offset 14, -4
 328              		.loc 2 58 0
 329 0006 1368     		ldr	r3, [r2]
 330 0008 1978     		ldrb	r1, [r3]	@ zero_extendqisi2
 331 000a 0429     		cmp	r1, #4
 332              		.loc 2 53 0
 333 000c 0546     		mov	r5, r0
 334              		.loc 2 58 0
 335 000e 01D0     		beq	.L14
 336              	.LVL35:
 337              	.L16:
 338              		.loc 2 60 0
 339 0010 0120     		movs	r0, #1
 340 0012 38BD     		pop	{r3, r4, r5, pc}
 341              	.LVL36:
 342              	.L14:
ARM GAS  /tmp/ccSKubGB.s 			page 7


 343              		.loc 2 58 0 discriminator 1
 344 0014 017C     		ldrb	r1, [r0, #16]	@ zero_extendqisi2
 345 0016 0229     		cmp	r1, #2
 346 0018 FAD1     		bne	.L16
 347              		.loc 2 64 0
 348 001a 1279     		ldrb	r2, [r2, #4]	@ zero_extendqisi2
 349 001c 5C89     		ldrh	r4, [r3, #10]
 350 001e 0120     		movs	r0, #1
 351              	.LVL37:
 352 0020 9040     		lsls	r0, r0, r2
 353 0022 0440     		ands	r4, r0, r4
 354 0024 F4D1     		bne	.L16
 355              	.LVL38:
 356              	.LBB121:
 357              	.LBB122:
 358              		.loc 2 69 0
 359 0026 05F11400 		add	r0, r5, #20
 360 002a FFF7FEFF 		bl	ibqGetEmptyBufferI
 361              	.LVL39:
 362              		.loc 2 70 0
 363 002e 0246     		mov	r2, r0
 364 0030 0028     		cmp	r0, #0
 365 0032 EDD0     		beq	.L16
 366              		.loc 2 75 0
 367 0034 D5F89454 		ldr	r5, [r5, #1172]
 368              	.LVL40:
 369 0038 4FF48073 		mov	r3, #256
 370 003c 2868     		ldr	r0, [r5]
 371              	.LVL41:
 372 003e 6979     		ldrb	r1, [r5, #5]	@ zero_extendqisi2
 373 0040 FFF7FEFF 		bl	usbStartReceiveI
 374              	.LVL42:
 375              		.loc 2 78 0
 376 0044 2046     		mov	r0, r4
 377              	.LBE122:
 378              	.LBE121:
 379              		.loc 2 79 0
 380 0046 38BD     		pop	{r3, r4, r5, pc}
 381              		.cfi_endproc
 382              	.LFE251:
 383              		.size	sdu_start_receive, .-sdu_start_receive
 384              		.section	.text.ibnotify,"ax",%progbits
 385              		.align	1
 386              		.syntax unified
 387              		.thumb
 388              		.thumb_func
 389              		.fpu fpv4-sp-d16
 390              		.type	ibnotify, %function
 391              	ibnotify:
 392              	.LFB261:
 393              		.loc 2 168 0
 394              		.cfi_startproc
 395              		@ args = 0, pretend = 0, frame = 0
 396              		@ frame_needed = 0, uses_anonymous_args = 0
 397              		@ link register save eliminated.
 398              	.LVL43:
 399              		.loc 2 170 0
ARM GAS  /tmp/ccSKubGB.s 			page 8


 400 0000 406B     		ldr	r0, [r0, #52]
 401              	.LVL44:
 402 0002 FFF7FEBF 		b	sdu_start_receive
 403              	.LVL45:
 404              		.cfi_endproc
 405              	.LFE261:
 406              		.size	ibnotify, .-ibnotify
 407              		.section	.text._ctl,"ax",%progbits
 408              		.align	1
 409              		.syntax unified
 410              		.thumb
 411              		.thumb_func
 412              		.fpu fpv4-sp-d16
 413              		.type	_ctl, %function
 414              	_ctl:
 415              	.LFB278:
 416              		.cfi_startproc
 417              		@ args = 0, pretend = 0, frame = 0
 418              		@ frame_needed = 0, uses_anonymous_args = 0
 419              		@ link register save eliminated.
 420 0000 0020     		movs	r0, #0
 421 0002 7047     		bx	lr
 422              		.cfi_endproc
 423              	.LFE278:
 424              		.size	_ctl, .-_ctl
 425              		.section	.text.sduInit,"ax",%progbits
 426              		.align	1
 427              		.global	sduInit
 428              		.syntax unified
 429              		.thumb
 430              		.thumb_func
 431              		.fpu fpv4-sp-d16
 432              		.type	sduInit, %function
 433              	sduInit:
 434              	.LFB263:
 435              		.loc 2 210 0
 436              		.cfi_startproc
 437              		@ args = 0, pretend = 0, frame = 0
 438              		@ frame_needed = 0, uses_anonymous_args = 0
 439              		@ link register save eliminated.
 440 0000 7047     		bx	lr
 441              		.cfi_endproc
 442              	.LFE263:
 443              		.size	sduInit, .-sduInit
 444              		.section	.text.sduObjectInit,"ax",%progbits
 445              		.align	1
 446              		.global	sduObjectInit
 447              		.syntax unified
 448              		.thumb
 449              		.thumb_func
 450              		.fpu fpv4-sp-d16
 451              		.type	sduObjectInit, %function
 452              	sduObjectInit:
 453              	.LFB264:
 454              		.loc 2 222 0
 455              		.cfi_startproc
 456              		@ args = 0, pretend = 0, frame = 0
ARM GAS  /tmp/ccSKubGB.s 			page 9


 457              		@ frame_needed = 0, uses_anonymous_args = 0
 458              	.LVL46:
 459              		.loc 2 222 0
 460 0000 7FB5     		push	{r0, r1, r2, r3, r4, r5, r6, lr}
 461              		.cfi_def_cfa_offset 32
 462              		.cfi_offset 4, -16
 463              		.cfi_offset 5, -12
 464              		.cfi_offset 6, -8
 465              		.cfi_offset 14, -4
 466              		.loc 2 224 0
 467 0002 124B     		ldr	r3, .L24
 468 0004 0360     		str	r3, [r0]
 469              	.LVL47:
 470              	.LBB123:
 471              	.LBB124:
 472              		.loc 1 877 0
 473 0006 0023     		movs	r3, #0
 474 0008 4360     		str	r3, [r0, #4]
 475              		.loc 1 878 0
 476 000a 8360     		str	r3, [r0, #8]
 477              		.loc 1 879 0
 478 000c C360     		str	r3, [r0, #12]
 479              	.LVL48:
 480              	.LBE124:
 481              	.LBE123:
 482              		.loc 2 226 0
 483 000e 0125     		movs	r5, #1
 484              		.loc 2 227 0
 485 0010 0226     		movs	r6, #2
 486 0012 0F4B     		ldr	r3, .L24+4
 487              		.loc 2 226 0
 488 0014 0574     		strb	r5, [r0, #16]
 489              		.loc 2 222 0
 490 0016 0446     		mov	r4, r0
 491              		.loc 2 227 0
 492 0018 0290     		str	r0, [sp, #8]
 493 001a 0193     		str	r3, [sp, #4]
 494 001c 00F18402 		add	r2, r0, #132
 495 0020 2946     		mov	r1, r5
 496 0022 0096     		str	r6, [sp]
 497 0024 4FF48073 		mov	r3, #256
 498 0028 1430     		adds	r0, r0, #20
 499              	.LVL49:
 500 002a FFF7FEFF 		bl	ibqObjectInit
 501              	.LVL50:
 502              		.loc 2 230 0
 503 002e 094B     		ldr	r3, .L24+8
 504 0030 0193     		str	r3, [sp, #4]
 505 0032 0294     		str	r4, [sp, #8]
 506 0034 0096     		str	r6, [sp]
 507 0036 4FF48073 		mov	r3, #256
 508 003a 04F52372 		add	r2, r4, #652
 509 003e 2946     		mov	r1, r5
 510 0040 04F14C00 		add	r0, r4, #76
 511 0044 FFF7FEFF 		bl	obqObjectInit
 512              	.LVL51:
 513              		.loc 2 233 0
ARM GAS  /tmp/ccSKubGB.s 			page 10


 514 0048 04B0     		add	sp, sp, #16
 515              		.cfi_def_cfa_offset 16
 516              		@ sp needed
 517 004a 70BD     		pop	{r4, r5, r6, pc}
 518              	.LVL52:
 519              	.L25:
 520              		.align	2
 521              	.L24:
 522 004c 00000000 		.word	.LANCHOR0
 523 0050 00000000 		.word	ibnotify
 524 0054 00000000 		.word	obnotify
 525              		.cfi_endproc
 526              	.LFE264:
 527              		.size	sduObjectInit, .-sduObjectInit
 528              		.section	.text.sduStart,"ax",%progbits
 529              		.align	1
 530              		.global	sduStart
 531              		.syntax unified
 532              		.thumb
 533              		.thumb_func
 534              		.fpu fpv4-sp-d16
 535              		.type	sduStart, %function
 536              	sduStart:
 537              	.LFB265:
 538              		.loc 2 243 0
 539              		.cfi_startproc
 540              		@ args = 0, pretend = 0, frame = 0
 541              		@ frame_needed = 0, uses_anonymous_args = 0
 542              		@ link register save eliminated.
 543              	.LVL53:
 544              		.loc 2 244 0
 545 0000 0B68     		ldr	r3, [r1]
 546              	.LVL54:
 547              	.LBB125:
 548              	.LBB126:
 549              	.LBB127:
 550              	.LBB128:
 551              	.LBB129:
 552              		.file 3 "../../modules/ChibiOS/os/common/ext/ARM/CMSIS/Core/Include/cmsis_gcc.h"
 553              		.loc 3 493 0
 554 0002 2022     		movs	r2, #32
 555              		.syntax unified
 556              	@ 493 "../../modules/ChibiOS/os/common/ext/ARM/CMSIS/Core/Include/cmsis_gcc.h" 1
 557 0004 82F31188 		MSR basepri, r2
 558              	@ 0 "" 2
 559              	.LVL55:
 560              		.thumb
 561              		.syntax unified
 562              	.LBE129:
 563              	.LBE128:
 564              	.LBE127:
 565              	.LBE126:
 566              	.LBE125:
 567              		.loc 2 251 0
 568 0008 0A79     		ldrb	r2, [r1, #4]	@ zero_extendqisi2
 569 000a 03EB8202 		add	r2, r3, r2, lsl #2
 570 000e 9061     		str	r0, [r2, #24]
ARM GAS  /tmp/ccSKubGB.s 			page 11


 571              		.loc 2 252 0
 572 0010 4A79     		ldrb	r2, [r1, #5]	@ zero_extendqisi2
 573 0012 0932     		adds	r2, r2, #9
 574 0014 43F82200 		str	r0, [r3, r2, lsl #2]
 575              		.loc 2 253 0
 576 0018 8A79     		ldrb	r2, [r1, #6]	@ zero_extendqisi2
 577 001a 12B1     		cbz	r2, .L27
 578              		.loc 2 254 0
 579 001c 03EB8203 		add	r3, r3, r2, lsl #2
 580              	.LVL56:
 581 0020 9861     		str	r0, [r3, #24]
 582              	.L27:
 583              		.loc 2 257 0
 584 0022 0223     		movs	r3, #2
 585 0024 0374     		strb	r3, [r0, #16]
 586              	.LVL57:
 587              		.loc 2 256 0
 588 0026 C0F89414 		str	r1, [r0, #1172]
 589              	.LBB130:
 590              	.LBB131:
 591              	.LBB132:
 592              	.LBB133:
 593              	.LBB134:
 594              	.LBB135:
 595              		.loc 3 493 0
 596 002a 0023     		movs	r3, #0
 597              		.syntax unified
 598              	@ 493 "../../modules/ChibiOS/os/common/ext/ARM/CMSIS/Core/Include/cmsis_gcc.h" 1
 599 002c 83F31188 		MSR basepri, r3
 600              	@ 0 "" 2
 601              	.LVL58:
 602              		.thumb
 603              		.syntax unified
 604 0030 7047     		bx	lr
 605              	.LBE135:
 606              	.LBE134:
 607              	.LBE133:
 608              	.LBE132:
 609              	.LBE131:
 610              	.LBE130:
 611              		.cfi_endproc
 612              	.LFE265:
 613              		.size	sduStart, .-sduStart
 614              		.section	.text.sduStop,"ax",%progbits
 615              		.align	1
 616              		.global	sduStop
 617              		.syntax unified
 618              		.thumb
 619              		.thumb_func
 620              		.fpu fpv4-sp-d16
 621              		.type	sduStop, %function
 622              	sduStop:
 623              	.LFB266:
 624              		.loc 2 270 0
 625              		.cfi_startproc
 626              		@ args = 0, pretend = 0, frame = 0
 627              		@ frame_needed = 0, uses_anonymous_args = 0
ARM GAS  /tmp/ccSKubGB.s 			page 12


 628              	.LVL59:
 629 0000 38B5     		push	{r3, r4, r5, lr}
 630              		.cfi_def_cfa_offset 16
 631              		.cfi_offset 3, -16
 632              		.cfi_offset 4, -12
 633              		.cfi_offset 5, -8
 634              		.cfi_offset 14, -4
 635              		.loc 2 271 0
 636 0002 D0F89434 		ldr	r3, [r0, #1172]
 637              		.loc 2 270 0
 638 0006 0446     		mov	r4, r0
 639              		.loc 2 271 0
 640 0008 1B68     		ldr	r3, [r3]
 641              	.LVL60:
 642              	.LBB136:
 643              	.LBB137:
 644              	.LBB138:
 645              	.LBB139:
 646              	.LBB140:
 647              		.loc 3 493 0
 648 000a 2022     		movs	r2, #32
 649              		.syntax unified
 650              	@ 493 "../../modules/ChibiOS/os/common/ext/ARM/CMSIS/Core/Include/cmsis_gcc.h" 1
 651 000c 82F31188 		MSR basepri, r2
 652              	@ 0 "" 2
 653              	.LVL61:
 654              		.thumb
 655              		.syntax unified
 656              	.LBE140:
 657              	.LBE139:
 658              	.LBE138:
 659              	.LBE137:
 660              	.LBE136:
 661              		.loc 2 281 0
 662 0010 D0F89404 		ldr	r0, [r0, #1172]
 663              	.LVL62:
 664 0014 0279     		ldrb	r2, [r0, #4]	@ zero_extendqisi2
 665 0016 0532     		adds	r2, r2, #5
 666 0018 03EB8202 		add	r2, r3, r2, lsl #2
 667 001c 0021     		movs	r1, #0
 668 001e 5160     		str	r1, [r2, #4]
 669              		.loc 2 282 0
 670 0020 4279     		ldrb	r2, [r0, #5]	@ zero_extendqisi2
 671 0022 0932     		adds	r2, r2, #9
 672 0024 43F82210 		str	r1, [r3, r2, lsl #2]
 673              		.loc 2 283 0
 674 0028 8279     		ldrb	r2, [r0, #6]	@ zero_extendqisi2
 675 002a 1AB1     		cbz	r2, .L32
 676              		.loc 2 284 0
 677 002c 0532     		adds	r2, r2, #5
 678 002e 03EB8203 		add	r3, r3, r2, lsl #2
 679              	.LVL63:
 680 0032 5960     		str	r1, [r3, #4]
 681              	.L32:
 682              		.loc 2 287 0
 683 0034 0123     		movs	r3, #1
 684              		.loc 2 286 0
ARM GAS  /tmp/ccSKubGB.s 			page 13


 685 0036 0025     		movs	r5, #0
 686              		.loc 2 287 0
 687 0038 2374     		strb	r3, [r4, #16]
 688              		.loc 2 290 0
 689 003a 0221     		movs	r1, #2
 690 003c 201D     		adds	r0, r4, #4
 691              		.loc 2 286 0
 692 003e C4F89454 		str	r5, [r4, #1172]
 693              	.LVL64:
 694              		.loc 2 290 0
 695 0042 FFF7FEFF 		bl	osalEventBroadcastFlagsI
 696              	.LVL65:
 697              		.loc 2 291 0
 698 0046 04F11400 		add	r0, r4, #20
 699 004a FFF7FEFF 		bl	ibqResetI
 700              	.LVL66:
 701              		.loc 2 292 0
 702 004e 04F14C00 		add	r0, r4, #76
 703 0052 FFF7FEFF 		bl	obqResetI
 704              	.LVL67:
 705              	.LBB141:
 706              	.LBB142:
 707              		.loc 1 618 0
 708 0056 FFF7FEFF 		bl	chSchRescheduleS
 709              	.LVL68:
 710              	.LBE142:
 711              	.LBE141:
 712              	.LBB143:
 713              	.LBB144:
 714              	.LBB145:
 715              	.LBB146:
 716              	.LBB147:
 717              	.LBB148:
 718              		.loc 3 493 0
 719              		.syntax unified
 720              	@ 493 "../../modules/ChibiOS/os/common/ext/ARM/CMSIS/Core/Include/cmsis_gcc.h" 1
 721 005a 85F31188 		MSR basepri, r5
 722              	@ 0 "" 2
 723              	.LVL69:
 724              		.thumb
 725              		.syntax unified
 726 005e 38BD     		pop	{r3, r4, r5, pc}
 727              	.LBE148:
 728              	.LBE147:
 729              	.LBE146:
 730              	.LBE145:
 731              	.LBE144:
 732              	.LBE143:
 733              		.cfi_endproc
 734              	.LFE266:
 735              		.size	sduStop, .-sduStop
 736              		.section	.text.sduSuspendHookI,"ax",%progbits
 737              		.align	1
 738              		.global	sduSuspendHookI
 739              		.syntax unified
 740              		.thumb
 741              		.thumb_func
ARM GAS  /tmp/ccSKubGB.s 			page 14


 742              		.fpu fpv4-sp-d16
 743              		.type	sduSuspendHookI, %function
 744              	sduSuspendHookI:
 745              	.LFB267:
 746              		.loc 2 310 0
 747              		.cfi_startproc
 748              		@ args = 0, pretend = 0, frame = 0
 749              		@ frame_needed = 0, uses_anonymous_args = 0
 750              	.LVL70:
 751 0000 38B5     		push	{r3, r4, r5, lr}
 752              		.cfi_def_cfa_offset 16
 753              		.cfi_offset 3, -16
 754              		.cfi_offset 4, -12
 755              		.cfi_offset 5, -8
 756              		.cfi_offset 14, -4
 757              		.loc 2 313 0
 758 0002 037F     		ldrb	r3, [r0, #28]	@ zero_extendqisi2
 759              		.loc 2 310 0
 760 0004 0446     		mov	r4, r0
 761              		.loc 2 313 0
 762 0006 13B1     		cbz	r3, .L37
 763              		.loc 2 313 0 is_stmt 0 discriminator 1
 764 0008 90F85430 		ldrb	r3, [r0, #84]	@ zero_extendqisi2
 765 000c ABB9     		cbnz	r3, .L36
 766              	.L37:
 767              		.loc 2 316 0 is_stmt 1
 768 000e 201D     		adds	r0, r4, #4
 769              	.LVL71:
 770              		.loc 2 317 0
 771 0010 0125     		movs	r5, #1
 772              		.loc 2 316 0
 773 0012 0221     		movs	r1, #2
 774 0014 FFF7FEFF 		bl	osalEventBroadcastFlagsI
 775              	.LVL72:
 776              	.LBB149:
 777              	.LBB150:
 778              		.loc 1 857 0
 779 0018 04F11400 		add	r0, r4, #20
 780              	.LBE150:
 781              	.LBE149:
 782              		.loc 2 317 0
 783 001c 2577     		strb	r5, [r4, #28]
 784              	.LVL73:
 785              	.LBB152:
 786              	.LBB151:
 787              		.loc 1 857 0
 788 001e 6FF00101 		mvn	r1, #1
 789 0022 FFF7FEFF 		bl	chThdDequeueAllI
 790              	.LVL74:
 791              	.LBE151:
 792              	.LBE152:
 793              		.loc 2 318 0
 794 0026 84F85450 		strb	r5, [r4, #84]
 795              	.LVL75:
 796              	.LBB153:
 797              	.LBB154:
 798              		.loc 1 857 0
ARM GAS  /tmp/ccSKubGB.s 			page 15


 799 002a 04F14C00 		add	r0, r4, #76
 800              	.LVL76:
 801 002e 6FF00101 		mvn	r1, #1
 802              	.LBE154:
 803              	.LBE153:
 804              		.loc 2 319 0
 805 0032 BDE83840 		pop	{r3, r4, r5, lr}
 806              		.cfi_remember_state
 807              		.cfi_restore 14
 808              		.cfi_restore 5
 809              		.cfi_restore 4
 810              		.cfi_restore 3
 811              		.cfi_def_cfa_offset 0
 812              	.LVL77:
 813              	.LBB156:
 814              	.LBB155:
 815              		.loc 1 857 0
 816 0036 FFF7FEBF 		b	chThdDequeueAllI
 817              	.LVL78:
 818              	.L36:
 819              		.cfi_restore_state
 820 003a 38BD     		pop	{r3, r4, r5, pc}
 821              	.LBE155:
 822              	.LBE156:
 823              		.cfi_endproc
 824              	.LFE267:
 825              		.size	sduSuspendHookI, .-sduSuspendHookI
 826              		.section	.text.sduWakeupHookI,"ax",%progbits
 827              		.align	1
 828              		.global	sduWakeupHookI
 829              		.syntax unified
 830              		.thumb
 831              		.thumb_func
 832              		.fpu fpv4-sp-d16
 833              		.type	sduWakeupHookI, %function
 834              	sduWakeupHookI:
 835              	.LFB268:
 836              		.loc 2 333 0
 837              		.cfi_startproc
 838              		@ args = 0, pretend = 0, frame = 0
 839              		@ frame_needed = 0, uses_anonymous_args = 0
 840              	.LVL79:
 841 0000 10B5     		push	{r4, lr}
 842              		.cfi_def_cfa_offset 8
 843              		.cfi_offset 4, -8
 844              		.cfi_offset 14, -4
 845              		.loc 2 335 0
 846 0002 0121     		movs	r1, #1
 847              		.loc 2 333 0
 848 0004 0446     		mov	r4, r0
 849              		.loc 2 335 0
 850 0006 0430     		adds	r0, r0, #4
 851              	.LVL80:
 852 0008 FFF7FEFF 		bl	osalEventBroadcastFlagsI
 853              	.LVL81:
 854              		.loc 2 336 0
 855 000c 0023     		movs	r3, #0
ARM GAS  /tmp/ccSKubGB.s 			page 16


 856 000e 2377     		strb	r3, [r4, #28]
 857              		.loc 2 337 0
 858 0010 84F85430 		strb	r3, [r4, #84]
 859 0014 10BD     		pop	{r4, pc}
 860              		.cfi_endproc
 861              	.LFE268:
 862              		.size	sduWakeupHookI, .-sduWakeupHookI
 863              		.section	.text.sduConfigureHookI,"ax",%progbits
 864              		.align	1
 865              		.global	sduConfigureHookI
 866              		.syntax unified
 867              		.thumb
 868              		.thumb_func
 869              		.fpu fpv4-sp-d16
 870              		.type	sduConfigureHookI, %function
 871              	sduConfigureHookI:
 872              	.LFB269:
 873              		.loc 2 347 0
 874              		.cfi_startproc
 875              		@ args = 0, pretend = 0, frame = 0
 876              		@ frame_needed = 0, uses_anonymous_args = 0
 877              	.LVL82:
 878 0000 38B5     		push	{r3, r4, r5, lr}
 879              		.cfi_def_cfa_offset 16
 880              		.cfi_offset 3, -16
 881              		.cfi_offset 4, -12
 882              		.cfi_offset 5, -8
 883              		.cfi_offset 14, -4
 884              		.loc 2 347 0
 885 0002 0446     		mov	r4, r0
 886              		.loc 2 350 0
 887 0004 0025     		movs	r5, #0
 888              		.loc 2 349 0
 889 0006 1430     		adds	r0, r0, #20
 890              	.LVL83:
 891 0008 FFF7FEFF 		bl	ibqResetI
 892              	.LVL84:
 893              		.loc 2 351 0
 894 000c 04F14C00 		add	r0, r4, #76
 895              		.loc 2 350 0
 896 0010 2577     		strb	r5, [r4, #28]
 897              		.loc 2 351 0
 898 0012 FFF7FEFF 		bl	obqResetI
 899              	.LVL85:
 900              		.loc 2 353 0
 901 0016 201D     		adds	r0, r4, #4
 902              		.loc 2 352 0
 903 0018 84F85450 		strb	r5, [r4, #84]
 904              		.loc 2 353 0
 905 001c 0121     		movs	r1, #1
 906 001e FFF7FEFF 		bl	osalEventBroadcastFlagsI
 907              	.LVL86:
 908              		.loc 2 354 0
 909 0022 2046     		mov	r0, r4
 910              		.loc 2 355 0
 911 0024 BDE83840 		pop	{r3, r4, r5, lr}
 912              		.cfi_restore 14
ARM GAS  /tmp/ccSKubGB.s 			page 17


 913              		.cfi_restore 5
 914              		.cfi_restore 4
 915              		.cfi_restore 3
 916              		.cfi_def_cfa_offset 0
 917              	.LVL87:
 918              		.loc 2 354 0
 919 0028 FFF7FEBF 		b	sdu_start_receive
 920              	.LVL88:
 921              		.cfi_endproc
 922              	.LFE269:
 923              		.size	sduConfigureHookI, .-sduConfigureHookI
 924              		.section	.text.sduRequestsHook,"ax",%progbits
 925              		.align	1
 926              		.global	sduRequestsHook
 927              		.syntax unified
 928              		.thumb
 929              		.thumb_func
 930              		.fpu fpv4-sp-d16
 931              		.type	sduRequestsHook, %function
 932              	sduRequestsHook:
 933              	.LFB270:
 934              		.loc 2 372 0
 935              		.cfi_startproc
 936              		@ args = 0, pretend = 0, frame = 0
 937              		@ frame_needed = 0, uses_anonymous_args = 0
 938              		@ link register save eliminated.
 939              	.LVL89:
 940              		.loc 2 374 0
 941 0000 90F84430 		ldrb	r3, [r0, #68]	@ zero_extendqisi2
 942 0004 03F06003 		and	r3, r3, #96
 943 0008 202B     		cmp	r3, #32
 944 000a 19D1     		bne	.L49
 945              		.loc 2 375 0
 946 000c 90F84520 		ldrb	r2, [r0, #69]	@ zero_extendqisi2
 947 0010 212A     		cmp	r2, #33
 948 0012 0AD0     		beq	.L46
 949 0014 222A     		cmp	r2, #34
 950 0016 4FF00003 		mov	r3, #0
 951 001a 0ED0     		beq	.L47
 952 001c 202A     		cmp	r2, #32
 953 001e 0FD1     		bne	.L49
 954              		.loc 2 380 0
 955 0020 084A     		ldr	r2, .L53
 956 0022 8263     		str	r2, [r0, #56]
 957 0024 0722     		movs	r2, #7
 958 0026 C263     		str	r2, [r0, #60]
 959 0028 04E0     		b	.L52
 960              	.L46:
 961              		.loc 2 377 0
 962 002a 064B     		ldr	r3, .L53
 963 002c 8363     		str	r3, [r0, #56]
 964 002e 0723     		movs	r3, #7
 965 0030 C363     		str	r3, [r0, #60]
 966 0032 0023     		movs	r3, #0
 967              	.L52:
 968              		.loc 2 384 0
 969 0034 0364     		str	r3, [r0, #64]
ARM GAS  /tmp/ccSKubGB.s 			page 18


 970              		.loc 2 385 0
 971 0036 0120     		movs	r0, #1
 972              	.LVL90:
 973 0038 7047     		bx	lr
 974              	.LVL91:
 975              	.L47:
 976              		.loc 2 384 0
 977 003a 8363     		str	r3, [r0, #56]
 978 003c C363     		str	r3, [r0, #60]
 979 003e F9E7     		b	.L52
 980              	.L49:
 981              		.loc 2 390 0
 982 0040 0020     		movs	r0, #0
 983              	.LVL92:
 984 0042 7047     		bx	lr
 985              	.L54:
 986              		.align	2
 987              	.L53:
 988 0044 00000000 		.word	.LANCHOR1
 989              		.cfi_endproc
 990              	.LFE270:
 991              		.size	sduRequestsHook, .-sduRequestsHook
 992              		.section	.text.sduSOFHookI,"ax",%progbits
 993              		.align	1
 994              		.global	sduSOFHookI
 995              		.syntax unified
 996              		.thumb
 997              		.thumb_func
 998              		.fpu fpv4-sp-d16
 999              		.type	sduSOFHookI, %function
 1000              	sduSOFHookI:
 1001              	.LFB271:
 1002              		.loc 2 402 0
 1003              		.cfi_startproc
 1004              		@ args = 0, pretend = 0, frame = 8
 1005              		@ frame_needed = 0, uses_anonymous_args = 0
 1006              	.LVL93:
 1007              		.loc 2 406 0
 1008 0000 D0F89434 		ldr	r3, [r0, #1172]
 1009              		.loc 2 402 0
 1010 0004 37B5     		push	{r0, r1, r2, r4, r5, lr}
 1011              		.cfi_def_cfa_offset 24
 1012              		.cfi_offset 4, -12
 1013              		.cfi_offset 5, -8
 1014              		.cfi_offset 14, -4
 1015              		.loc 2 406 0
 1016 0006 1A68     		ldr	r2, [r3]
 1017 0008 1178     		ldrb	r1, [r2]	@ zero_extendqisi2
 1018 000a 0429     		cmp	r1, #4
 1019              		.loc 2 402 0
 1020 000c 0446     		mov	r4, r0
 1021              		.loc 2 406 0
 1022 000e 1AD1     		bne	.L55
 1023              		.loc 2 406 0 is_stmt 0 discriminator 1
 1024 0010 017C     		ldrb	r1, [r0, #16]	@ zero_extendqisi2
 1025 0012 0229     		cmp	r1, #2
 1026 0014 17D1     		bne	.L55
ARM GAS  /tmp/ccSKubGB.s 			page 19


 1027              		.loc 2 413 0 is_stmt 1
 1028 0016 1979     		ldrb	r1, [r3, #4]	@ zero_extendqisi2
 1029 0018 1289     		ldrh	r2, [r2, #8]
 1030 001a 0123     		movs	r3, #1
 1031 001c 8B40     		lsls	r3, r3, r1
 1032 001e 1342     		tst	r3, r2
 1033 0020 11D1     		bne	.L55
 1034              		.loc 2 419 0
 1035 0022 00F14C05 		add	r5, r0, #76
 1036 0026 2846     		mov	r0, r5
 1037              	.LVL94:
 1038 0028 FFF7FEFF 		bl	obqTryFlushI
 1039              	.LVL95:
 1040 002c 58B1     		cbz	r0, .L55
 1041              	.LBB157:
 1042              		.loc 2 421 0
 1043 002e 01A9     		add	r1, sp, #4
 1044 0030 2846     		mov	r0, r5
 1045 0032 FFF7FEFF 		bl	obqGetFullBufferI
 1046              	.LVL96:
 1047              		.loc 2 425 0
 1048 0036 D4F89444 		ldr	r4, [r4, #1172]
 1049              	.LVL97:
 1050 003a 019B     		ldr	r3, [sp, #4]
 1051 003c 2179     		ldrb	r1, [r4, #4]	@ zero_extendqisi2
 1052 003e 0246     		mov	r2, r0
 1053 0040 2068     		ldr	r0, [r4]
 1054              	.LVL98:
 1055 0042 FFF7FEFF 		bl	usbStartTransmitI
 1056              	.LVL99:
 1057              	.L55:
 1058              	.LBE157:
 1059              		.loc 2 427 0
 1060 0046 03B0     		add	sp, sp, #12
 1061              		.cfi_def_cfa_offset 12
 1062              		@ sp needed
 1063 0048 30BD     		pop	{r4, r5, pc}
 1064              		.cfi_endproc
 1065              	.LFE271:
 1066              		.size	sduSOFHookI, .-sduSOFHookI
 1067              		.section	.text.sduDataTransmitted,"ax",%progbits
 1068              		.align	1
 1069              		.global	sduDataTransmitted
 1070              		.syntax unified
 1071              		.thumb
 1072              		.thumb_func
 1073              		.fpu fpv4-sp-d16
 1074              		.type	sduDataTransmitted, %function
 1075              	sduDataTransmitted:
 1076              	.LFB272:
 1077              		.loc 2 437 0
 1078              		.cfi_startproc
 1079              		@ args = 0, pretend = 0, frame = 8
 1080              		@ frame_needed = 0, uses_anonymous_args = 0
 1081              	.LVL100:
 1082              		.loc 2 440 0
 1083 0000 00EB8103 		add	r3, r0, r1, lsl #2
ARM GAS  /tmp/ccSKubGB.s 			page 20


 1084              		.loc 2 437 0
 1085 0004 F7B5     		push	{r0, r1, r2, r4, r5, r6, r7, lr}
 1086              		.cfi_def_cfa_offset 32
 1087              		.cfi_offset 4, -20
 1088              		.cfi_offset 5, -16
 1089              		.cfi_offset 6, -12
 1090              		.cfi_offset 7, -8
 1091              		.cfi_offset 14, -4
 1092              		.loc 2 440 0
 1093 0006 9C69     		ldr	r4, [r3, #24]
 1094              	.LVL101:
 1095              		.loc 2 437 0
 1096 0008 0546     		mov	r5, r0
 1097 000a 0E46     		mov	r6, r1
 1098              		.loc 2 442 0
 1099 000c F4B1     		cbz	r4, .L62
 1100              	.LVL102:
 1101              	.LBB158:
 1102              	.LBB159:
 1103              	.LBB160:
 1104              	.LBB161:
 1105              	.LBB162:
 1106              	.LBB163:
 1107              		.loc 3 493 0
 1108 000e 2023     		movs	r3, #32
 1109              		.syntax unified
 1110              	@ 493 "../../modules/ChibiOS/os/common/ext/ARM/CMSIS/Core/Include/cmsis_gcc.h" 1
 1111 0010 83F31188 		MSR basepri, r3
 1112              	@ 0 "" 2
 1113              	.LVL103:
 1114              		.thumb
 1115              		.syntax unified
 1116 0014 05EB8607 		add	r7, r5, r6, lsl #2
 1117              	.LBE163:
 1118              	.LBE162:
 1119              	.LBE161:
 1120              	.LBE160:
 1121              	.LBE159:
 1122              	.LBE158:
 1123              		.loc 2 449 0
 1124 0018 201D     		adds	r0, r4, #4
 1125              	.LVL104:
 1126 001a 0821     		movs	r1, #8
 1127              	.LVL105:
 1128 001c FFF7FEFF 		bl	osalEventBroadcastFlagsI
 1129              	.LVL106:
 1130              		.loc 2 452 0
 1131 0020 FB68     		ldr	r3, [r7, #12]
 1132 0022 5B69     		ldr	r3, [r3, #20]
 1133 0024 1B68     		ldr	r3, [r3]
 1134 0026 4C34     		adds	r4, r4, #76
 1135              	.LVL107:
 1136 0028 13B1     		cbz	r3, .L64
 1137              		.loc 2 453 0
 1138 002a 2046     		mov	r0, r4
 1139 002c FFF7FEFF 		bl	obqReleaseEmptyBufferI
 1140              	.LVL108:
ARM GAS  /tmp/ccSKubGB.s 			page 21


 1141              	.L64:
 1142              		.loc 2 457 0
 1143 0030 01A9     		add	r1, sp, #4
 1144 0032 2046     		mov	r0, r4
 1145 0034 FFF7FEFF 		bl	obqGetFullBufferI
 1146              	.LVL109:
 1147              		.loc 2 459 0
 1148 0038 0246     		mov	r2, r0
 1149 003a 48B1     		cbz	r0, .L65
 1150              		.loc 2 462 0
 1151 003c 019B     		ldr	r3, [sp, #4]
 1152              	.L77:
 1153              		.loc 2 471 0
 1154 003e 3146     		mov	r1, r6
 1155 0040 2846     		mov	r0, r5
 1156              	.LVL110:
 1157 0042 FFF7FEFF 		bl	usbStartTransmitI
 1158              	.LVL111:
 1159              	.L66:
 1160              	.LBB164:
 1161              	.LBB165:
 1162              	.LBB166:
 1163              	.LBB167:
 1164              	.LBB168:
 1165              	.LBB169:
 1166              		.loc 3 493 0
 1167 0046 0023     		movs	r3, #0
 1168              		.syntax unified
 1169              	@ 493 "../../modules/ChibiOS/os/common/ext/ARM/CMSIS/Core/Include/cmsis_gcc.h" 1
 1170 0048 83F31188 		MSR basepri, r3
 1171              	@ 0 "" 2
 1172              	.LVL112:
 1173              		.thumb
 1174              		.syntax unified
 1175              	.L62:
 1176              	.LBE169:
 1177              	.LBE168:
 1178              	.LBE167:
 1179              	.LBE166:
 1180              	.LBE165:
 1181              	.LBE164:
 1182              		.loc 2 479 0
 1183 004c 03B0     		add	sp, sp, #12
 1184              		.cfi_remember_state
 1185              		.cfi_def_cfa_offset 20
 1186              		@ sp needed
 1187 004e F0BD     		pop	{r4, r5, r6, r7, pc}
 1188              	.LVL113:
 1189              	.L65:
 1190              		.cfi_restore_state
 1191              		.loc 2 464 0
 1192 0050 FB68     		ldr	r3, [r7, #12]
 1193 0052 5A69     		ldr	r2, [r3, #20]
 1194 0054 1268     		ldr	r2, [r2]
 1195 0056 002A     		cmp	r2, #0
 1196 0058 F5D0     		beq	.L66
 1197              		.loc 2 466 0 discriminator 1
ARM GAS  /tmp/ccSKubGB.s 			page 22


 1198 005a 1B8A     		ldrh	r3, [r3, #16]
 1199 005c 013B     		subs	r3, r3, #1
 1200              		.loc 2 464 0 discriminator 1
 1201 005e 1340     		ands	r3, r3, r2
 1202 0060 F1D1     		bne	.L66
 1203              		.loc 2 471 0
 1204 0062 05F14402 		add	r2, r5, #68
 1205 0066 EAE7     		b	.L77
 1206              		.cfi_endproc
 1207              	.LFE272:
 1208              		.size	sduDataTransmitted, .-sduDataTransmitted
 1209              		.section	.text.sduDataReceived,"ax",%progbits
 1210              		.align	1
 1211              		.global	sduDataReceived
 1212              		.syntax unified
 1213              		.thumb
 1214              		.thumb_func
 1215              		.fpu fpv4-sp-d16
 1216              		.type	sduDataReceived, %function
 1217              	sduDataReceived:
 1218              	.LFB273:
 1219              		.loc 2 489 0
 1220              		.cfi_startproc
 1221              		@ args = 0, pretend = 0, frame = 0
 1222              		@ frame_needed = 0, uses_anonymous_args = 0
 1223              	.LVL114:
 1224              		.loc 2 491 0
 1225 0000 0931     		adds	r1, r1, #9
 1226              	.LVL115:
 1227              		.loc 2 489 0
 1228 0002 38B5     		push	{r3, r4, r5, lr}
 1229              		.cfi_def_cfa_offset 16
 1230              		.cfi_offset 3, -16
 1231              		.cfi_offset 4, -12
 1232              		.cfi_offset 5, -8
 1233              		.cfi_offset 14, -4
 1234              		.loc 2 491 0
 1235 0004 50F82140 		ldr	r4, [r0, r1, lsl #2]
 1236              	.LVL116:
 1237              		.loc 2 493 0
 1238 0008 DCB1     		cbz	r4, .L78
 1239              	.LVL117:
 1240              	.LBB170:
 1241              	.LBB171:
 1242              	.LBB172:
 1243              	.LBB173:
 1244              	.LBB174:
 1245              	.LBB175:
 1246              		.loc 3 493 0
 1247 000a 2023     		movs	r3, #32
 1248              		.syntax unified
 1249              	@ 493 "../../modules/ChibiOS/os/common/ext/ARM/CMSIS/Core/Include/cmsis_gcc.h" 1
 1250 000c 83F31188 		MSR basepri, r3
 1251              	@ 0 "" 2
 1252              	.LVL118:
 1253              		.thumb
 1254              		.syntax unified
ARM GAS  /tmp/ccSKubGB.s 			page 23


 1255              	.LBE175:
 1256              	.LBE174:
 1257              	.LBE173:
 1258              	.LBE172:
 1259              	.LBE171:
 1260              	.LBE170:
 1261              		.loc 2 500 0
 1262 0010 D4F89424 		ldr	r2, [r4, #1172]
 1263 0014 1368     		ldr	r3, [r2]
 1264 0016 5279     		ldrb	r2, [r2, #5]	@ zero_extendqisi2
 1265 0018 03EB8203 		add	r3, r3, r2, lsl #2
 1266 001c DB68     		ldr	r3, [r3, #12]
 1267 001e 9B69     		ldr	r3, [r3, #24]
 1268 0020 5D68     		ldr	r5, [r3, #4]
 1269              	.LVL119:
 1270              		.loc 2 502 0
 1271 0022 45B1     		cbz	r5, .L80
 1272              		.loc 2 504 0
 1273 0024 0421     		movs	r1, #4
 1274 0026 6018     		adds	r0, r4, r1
 1275              	.LVL120:
 1276 0028 FFF7FEFF 		bl	osalEventBroadcastFlagsI
 1277              	.LVL121:
 1278              		.loc 2 507 0
 1279 002c 2946     		mov	r1, r5
 1280 002e 04F11400 		add	r0, r4, #20
 1281 0032 FFF7FEFF 		bl	ibqPostFullBufferI
 1282              	.LVL122:
 1283              	.L80:
 1284              		.loc 2 513 0
 1285 0036 2046     		mov	r0, r4
 1286 0038 FFF7FEFF 		bl	sdu_start_receive
 1287              	.LVL123:
 1288              	.LBB176:
 1289              	.LBB177:
 1290              	.LBB178:
 1291              	.LBB179:
 1292              	.LBB180:
 1293              	.LBB181:
 1294              		.loc 3 493 0
 1295 003c 0023     		movs	r3, #0
 1296              		.syntax unified
 1297              	@ 493 "../../modules/ChibiOS/os/common/ext/ARM/CMSIS/Core/Include/cmsis_gcc.h" 1
 1298 003e 83F31188 		MSR basepri, r3
 1299              	@ 0 "" 2
 1300              	.LVL124:
 1301              		.thumb
 1302              		.syntax unified
 1303              	.L78:
 1304 0042 38BD     		pop	{r3, r4, r5, pc}
 1305              	.LBE181:
 1306              	.LBE180:
 1307              	.LBE179:
 1308              	.LBE178:
 1309              	.LBE177:
 1310              	.LBE176:
 1311              		.cfi_endproc
ARM GAS  /tmp/ccSKubGB.s 			page 24


 1312              	.LFE273:
 1313              		.size	sduDataReceived, .-sduDataReceived
 1314              		.section	.text.sduInterruptTransmitted,"ax",%progbits
 1315              		.align	1
 1316              		.global	sduInterruptTransmitted
 1317              		.syntax unified
 1318              		.thumb
 1319              		.thumb_func
 1320              		.fpu fpv4-sp-d16
 1321              		.type	sduInterruptTransmitted, %function
 1322              	sduInterruptTransmitted:
 1323              	.LFB274:
 1324              		.loc 2 526 0
 1325              		.cfi_startproc
 1326              		@ args = 0, pretend = 0, frame = 0
 1327              		@ frame_needed = 0, uses_anonymous_args = 0
 1328              		@ link register save eliminated.
 1329              	.LVL125:
 1330 0000 7047     		bx	lr
 1331              		.cfi_endproc
 1332              	.LFE274:
 1333              		.size	sduInterruptTransmitted, .-sduInterruptTransmitted
 1334              		.section	.text.sduControl,"ax",%progbits
 1335              		.align	1
 1336              		.global	sduControl
 1337              		.syntax unified
 1338              		.thumb
 1339              		.thumb_func
 1340              		.fpu fpv4-sp-d16
 1341              		.type	sduControl, %function
 1342              	sduControl:
 1343              	.LFB275:
 1344              		.loc 2 546 0
 1345              		.cfi_startproc
 1346              		@ args = 0, pretend = 0, frame = 0
 1347              		@ frame_needed = 0, uses_anonymous_args = 0
 1348              		@ link register save eliminated.
 1349              	.LVL126:
 1350              		.loc 2 549 0
 1351 0000 0020     		movs	r0, #0
 1352              	.LVL127:
 1353 0002 7047     		bx	lr
 1354              		.cfi_endproc
 1355              	.LFE275:
 1356              		.size	sduControl, .-sduControl
 1357              		.section	.data.linecoding,"aw",%progbits
 1358              		.set	.LANCHOR1,. + 0
 1359              		.type	linecoding, %object
 1360              		.size	linecoding, 7
 1361              	linecoding:
 1362 0000 00       		.byte	0
 1363 0001 96       		.byte	-106
 1364 0002 00       		.byte	0
 1365 0003 00       		.byte	0
 1366 0004 00       		.byte	0
 1367 0005 00       		.byte	0
 1368 0006 08       		.byte	8
ARM GAS  /tmp/ccSKubGB.s 			page 25


 1369              		.section	.rodata.vmt,"a",%progbits
 1370              		.align	2
 1371              		.set	.LANCHOR0,. + 0
 1372              		.type	vmt, %object
 1373              		.size	vmt, 40
 1374              	vmt:
 1375 0000 00000000 		.word	0
 1376 0004 00000000 		.word	_write
 1377 0008 00000000 		.word	_read
 1378 000c 00000000 		.word	_put
 1379 0010 00000000 		.word	_get
 1380 0014 00000000 		.word	_putt
 1381 0018 00000000 		.word	_gett
 1382 001c 00000000 		.word	_writet
 1383 0020 00000000 		.word	_readt
 1384 0024 00000000 		.word	_ctl
 1385              		.text
 1386              	.Letext0:
 1387              		.file 4 "/opt/gcc-arm-none-eabi-6-2017-q2-update/lib/gcc/arm-none-eabi/6.3.1/include/stddef.h"
 1388              		.file 5 "/opt/gcc-arm-none-eabi-6-2017-q2-update/arm-none-eabi/include/machine/_default_types.h"
 1389              		.file 6 "/opt/gcc-arm-none-eabi-6-2017-q2-update/arm-none-eabi/include/sys/_stdint.h"
 1390              		.file 7 "../../modules/ChibiOS/os/common/ports/ARMCMx/compilers/GCC/chtypes.h"
 1391              		.file 8 "../../modules/ChibiOS/os/rt/include/chsystypes.h"
 1392              		.file 9 "../../modules/ChibiOS/os/rt/include/chschd.h"
 1393              		.file 10 "../../modules/ChibiOS/os/rt/include/chtime.h"
 1394              		.file 11 "../../modules/ChibiOS/os/common/ext/ARM/CMSIS/Core/Include/core_cm4.h"
 1395              		.file 12 "../../modules/ChibiOS/os/common/ext/ST/STM32F4xx/system_stm32f4xx.h"
 1396              		.file 13 "../../modules/ChibiOS/os/common/ext/ST/STM32F4xx/stm32f407xx.h"
 1397              		.file 14 "../../modules/ChibiOS/os/common/ports/ARMCMx/chcore.h"
 1398              		.file 15 "../../modules/ChibiOS/os/common/ports/ARMCMx/chcore_v7m.h"
 1399              		.file 16 "../../modules/ChibiOS/os/rt/include/chsys.h"
 1400              		.file 17 "../../modules/ChibiOS/os/hal/ports/STM32/LLD/DMAv2/stm32_dma.h"
 1401              		.file 18 "../../modules/ChibiOS/os/hal/include/hal_buffers.h"
 1402              		.file 19 "../../modules/ChibiOS/os/hal/include/hal_queues.h"
 1403              		.file 20 "../../modules/ChibiOS/os/hal/include/hal_pal.h"
 1404              		.file 21 "../../modules/ChibiOS/os/hal/ports/STM32/LLD/GPIOv2/hal_pal_lld.h"
 1405              		.file 22 "../../modules/ChibiOS/os/hal/include/hal_serial.h"
 1406              		.file 23 "../../modules/ChibiOS/os/hal/ports/STM32/LLD/USARTv1/hal_serial_lld.h"
 1407              		.file 24 "../../modules/ChibiOS/os/hal/include/hal_usb.h"
 1408              		.file 25 "../../modules/ChibiOS/os/hal/ports/STM32/LLD/OTGv1/hal_usb_lld.h"
 1409              		.file 26 "../../modules/ChibiOS/os/hal/ports/STM32/LLD/OTGv1/stm32_otg.h"
 1410              		.file 27 "../../modules/ChibiOS/os/hal/include/hal_usb_cdc.h"
 1411              		.file 28 "../../modules/ChibiOS/os/hal/include/hal_serial_usb.h"
 1412              		.file 29 "../../modules/ChibiOS/os/rt/include/chthreads.h"