ARM GAS  /tmp/ccl2ATzr.s 			page 1


   1              		.cpu cortex-m4
   2              		.eabi_attribute 27, 1
   3              		.eabi_attribute 28, 1
   4              		.eabi_attribute 20, 1
   5              		.eabi_attribute 21, 1
   6              		.eabi_attribute 23, 3
   7              		.eabi_attribute 24, 1
   8              		.eabi_attribute 25, 1
   9              		.eabi_attribute 26, 1
  10              		.eabi_attribute 30, 4
  11              		.eabi_attribute 34, 1
  12              		.eabi_attribute 18, 4
  13              		.file	"hal_serial.c"
  14              		.text
  15              	.Ltext0:
  16              		.cfi_sections	.debug_frame
  17              		.section	.text.osalEventBroadcastFlagsI,"ax",%progbits
  18              		.align	1
  19              		.syntax unified
  20              		.thumb
  21              		.thumb_func
  22              		.fpu fpv4-sp-d16
  23              		.type	osalEventBroadcastFlagsI, %function
  24              	osalEventBroadcastFlagsI:
  25              	.LFB245:
  26              		.file 1 "../../modules/ChibiOS/os/hal/osal/rt/osal.h"
  27              		.loc 1 899 0
  28              		.cfi_startproc
  29              		@ args = 0, pretend = 0, frame = 0
  30              		@ frame_needed = 0, uses_anonymous_args = 0
  31              		@ link register save eliminated.
  32              	.LVL0:
  33              		.loc 1 903 0
  34 0000 0268     		ldr	r2, [r0]
  35              		.loc 1 904 0
  36 0002 4368     		ldr	r3, [r0, #4]
  37              		.loc 1 903 0
  38 0004 1143     		orrs	r1, r1, r2
  39              	.LVL1:
  40 0006 0160     		str	r1, [r0]
  41              		.loc 1 904 0
  42 0008 03B1     		cbz	r3, .L1
  43              		.loc 1 905 0
  44 000a 1847     		bx	r3	@ indirect register sibling call
  45              	.LVL2:
  46              	.L1:
  47 000c 7047     		bx	lr
  48              		.cfi_endproc
  49              	.LFE245:
  50              		.size	osalEventBroadcastFlagsI, .-osalEventBroadcastFlagsI
  51              		.section	.text._readt,"ax",%progbits
  52              		.align	1
  53              		.syntax unified
  54              		.thumb
  55              		.thumb_func
  56              		.fpu fpv4-sp-d16
  57              		.type	_readt, %function
ARM GAS  /tmp/ccl2ATzr.s 			page 2


  58              	_readt:
  59              	.LFB258:
  60              		.file 2 "../../modules/ChibiOS/os/hal/src/hal_serial.c"
  61              		.loc 2 89 0
  62              		.cfi_startproc
  63              		@ args = 0, pretend = 0, frame = 0
  64              		@ frame_needed = 0, uses_anonymous_args = 0
  65              		@ link register save eliminated.
  66              	.LVL3:
  67              		.loc 2 91 0
  68 0000 1430     		adds	r0, r0, #20
  69              	.LVL4:
  70 0002 FFF7FEBF 		b	iqReadTimeout
  71              	.LVL5:
  72              		.cfi_endproc
  73              	.LFE258:
  74              		.size	_readt, .-_readt
  75              		.section	.text._read,"ax",%progbits
  76              		.align	1
  77              		.syntax unified
  78              		.thumb
  79              		.thumb_func
  80              		.fpu fpv4-sp-d16
  81              		.type	_read, %function
  82              	_read:
  83              	.LFB252:
  84              		.loc 2 56 0
  85              		.cfi_startproc
  86              		@ args = 0, pretend = 0, frame = 0
  87              		@ frame_needed = 0, uses_anonymous_args = 0
  88              		@ link register save eliminated.
  89              	.LVL6:
  90              		.loc 2 58 0
  91 0000 4FF0FF33 		mov	r3, #-1
  92 0004 1430     		adds	r0, r0, #20
  93              	.LVL7:
  94 0006 FFF7FEBF 		b	iqReadTimeout
  95              	.LVL8:
  96              		.cfi_endproc
  97              	.LFE252:
  98              		.size	_read, .-_read
  99              		.section	.text._writet,"ax",%progbits
 100              		.align	1
 101              		.syntax unified
 102              		.thumb
 103              		.thumb_func
 104              		.fpu fpv4-sp-d16
 105              		.type	_writet, %function
 106              	_writet:
 107              	.LFB257:
 108              		.loc 2 83 0
 109              		.cfi_startproc
 110              		@ args = 0, pretend = 0, frame = 0
 111              		@ frame_needed = 0, uses_anonymous_args = 0
 112              		@ link register save eliminated.
 113              	.LVL9:
 114              		.loc 2 85 0
ARM GAS  /tmp/ccl2ATzr.s 			page 3


 115 0000 3830     		adds	r0, r0, #56
 116              	.LVL10:
 117 0002 FFF7FEBF 		b	oqWriteTimeout
 118              	.LVL11:
 119              		.cfi_endproc
 120              	.LFE257:
 121              		.size	_writet, .-_writet
 122              		.section	.text._write,"ax",%progbits
 123              		.align	1
 124              		.syntax unified
 125              		.thumb
 126              		.thumb_func
 127              		.fpu fpv4-sp-d16
 128              		.type	_write, %function
 129              	_write:
 130              	.LFB251:
 131              		.loc 2 50 0
 132              		.cfi_startproc
 133              		@ args = 0, pretend = 0, frame = 0
 134              		@ frame_needed = 0, uses_anonymous_args = 0
 135              		@ link register save eliminated.
 136              	.LVL12:
 137              		.loc 2 52 0
 138 0000 4FF0FF33 		mov	r3, #-1
 139 0004 3830     		adds	r0, r0, #56
 140              	.LVL13:
 141 0006 FFF7FEBF 		b	oqWriteTimeout
 142              	.LVL14:
 143              		.cfi_endproc
 144              	.LFE251:
 145              		.size	_write, .-_write
 146              		.section	.text._gett,"ax",%progbits
 147              		.align	1
 148              		.syntax unified
 149              		.thumb
 150              		.thumb_func
 151              		.fpu fpv4-sp-d16
 152              		.type	_gett, %function
 153              	_gett:
 154              	.LFB256:
 155              		.loc 2 77 0
 156              		.cfi_startproc
 157              		@ args = 0, pretend = 0, frame = 0
 158              		@ frame_needed = 0, uses_anonymous_args = 0
 159              		@ link register save eliminated.
 160              	.LVL15:
 161              		.loc 2 79 0
 162 0000 1430     		adds	r0, r0, #20
 163              	.LVL16:
 164 0002 FFF7FEBF 		b	iqGetTimeout
 165              	.LVL17:
 166              		.cfi_endproc
 167              	.LFE256:
 168              		.size	_gett, .-_gett
 169              		.section	.text._get,"ax",%progbits
 170              		.align	1
 171              		.syntax unified
ARM GAS  /tmp/ccl2ATzr.s 			page 4


 172              		.thumb
 173              		.thumb_func
 174              		.fpu fpv4-sp-d16
 175              		.type	_get, %function
 176              	_get:
 177              	.LFB254:
 178              		.loc 2 67 0
 179              		.cfi_startproc
 180              		@ args = 0, pretend = 0, frame = 0
 181              		@ frame_needed = 0, uses_anonymous_args = 0
 182              		@ link register save eliminated.
 183              	.LVL18:
 184              		.loc 2 69 0
 185 0000 4FF0FF31 		mov	r1, #-1
 186 0004 1430     		adds	r0, r0, #20
 187              	.LVL19:
 188 0006 FFF7FEBF 		b	iqGetTimeout
 189              	.LVL20:
 190              		.cfi_endproc
 191              	.LFE254:
 192              		.size	_get, .-_get
 193              		.section	.text._putt,"ax",%progbits
 194              		.align	1
 195              		.syntax unified
 196              		.thumb
 197              		.thumb_func
 198              		.fpu fpv4-sp-d16
 199              		.type	_putt, %function
 200              	_putt:
 201              	.LFB255:
 202              		.loc 2 72 0
 203              		.cfi_startproc
 204              		@ args = 0, pretend = 0, frame = 0
 205              		@ frame_needed = 0, uses_anonymous_args = 0
 206              		@ link register save eliminated.
 207              	.LVL21:
 208              		.loc 2 74 0
 209 0000 3830     		adds	r0, r0, #56
 210              	.LVL22:
 211 0002 FFF7FEBF 		b	oqPutTimeout
 212              	.LVL23:
 213              		.cfi_endproc
 214              	.LFE255:
 215              		.size	_putt, .-_putt
 216              		.section	.text._put,"ax",%progbits
 217              		.align	1
 218              		.syntax unified
 219              		.thumb
 220              		.thumb_func
 221              		.fpu fpv4-sp-d16
 222              		.type	_put, %function
 223              	_put:
 224              	.LFB253:
 225              		.loc 2 62 0
 226              		.cfi_startproc
 227              		@ args = 0, pretend = 0, frame = 0
 228              		@ frame_needed = 0, uses_anonymous_args = 0
ARM GAS  /tmp/ccl2ATzr.s 			page 5


 229              		@ link register save eliminated.
 230              	.LVL24:
 231              		.loc 2 64 0
 232 0000 4FF0FF32 		mov	r2, #-1
 233 0004 3830     		adds	r0, r0, #56
 234              	.LVL25:
 235 0006 FFF7FEBF 		b	oqPutTimeout
 236              	.LVL26:
 237              		.cfi_endproc
 238              	.LFE253:
 239              		.size	_put, .-_put
 240              		.section	.text._ctl,"ax",%progbits
 241              		.align	1
 242              		.syntax unified
 243              		.thumb
 244              		.thumb_func
 245              		.fpu fpv4-sp-d16
 246              		.type	_ctl, %function
 247              	_ctl:
 248              	.LFB270:
 249              		.cfi_startproc
 250              		@ args = 0, pretend = 0, frame = 0
 251              		@ frame_needed = 0, uses_anonymous_args = 0
 252              		@ link register save eliminated.
 253 0000 0020     		movs	r0, #0
 254 0002 7047     		bx	lr
 255              		.cfi_endproc
 256              	.LFE270:
 257              		.size	_ctl, .-_ctl
 258              		.section	.text.sdInit,"ax",%progbits
 259              		.align	1
 260              		.global	sdInit
 261              		.syntax unified
 262              		.thumb
 263              		.thumb_func
 264              		.fpu fpv4-sp-d16
 265              		.type	sdInit, %function
 266              	sdInit:
 267              	.LFB260:
 268              		.loc 2 135 0
 269              		.cfi_startproc
 270              		@ args = 0, pretend = 0, frame = 0
 271              		@ frame_needed = 0, uses_anonymous_args = 0
 272              		@ link register save eliminated.
 273              		.loc 2 137 0
 274 0000 FFF7FEBF 		b	sd_lld_init
 275              	.LVL27:
 276              		.cfi_endproc
 277              	.LFE260:
 278              		.size	sdInit, .-sdInit
 279              		.section	.text.sdObjectInit,"ax",%progbits
 280              		.align	1
 281              		.global	sdObjectInit
 282              		.syntax unified
 283              		.thumb
 284              		.thumb_func
 285              		.fpu fpv4-sp-d16
ARM GAS  /tmp/ccl2ATzr.s 			page 6


 286              		.type	sdObjectInit, %function
 287              	sdObjectInit:
 288              	.LFB261:
 289              		.loc 2 158 0
 290              		.cfi_startproc
 291              		@ args = 0, pretend = 0, frame = 0
 292              		@ frame_needed = 0, uses_anonymous_args = 0
 293              	.LVL28:
 294 0000 37B5     		push	{r0, r1, r2, r4, r5, lr}
 295              		.cfi_def_cfa_offset 24
 296              		.cfi_offset 4, -12
 297              		.cfi_offset 5, -8
 298              		.cfi_offset 14, -4
 299              		.loc 2 160 0
 300 0002 0F4B     		ldr	r3, .L14
 301 0004 0360     		str	r3, [r0]
 302              	.LVL29:
 303              	.LBB82:
 304              	.LBB83:
 305              		.loc 1 877 0
 306 0006 0023     		movs	r3, #0
 307 0008 4360     		str	r3, [r0, #4]
 308              		.loc 1 878 0
 309 000a 8360     		str	r3, [r0, #8]
 310              		.loc 1 879 0
 311 000c C360     		str	r3, [r0, #12]
 312              	.LVL30:
 313              	.LBE83:
 314              	.LBE82:
 315              		.loc 2 162 0
 316 000e 0123     		movs	r3, #1
 317              		.loc 2 158 0
 318 0010 0446     		mov	r4, r0
 319              		.loc 2 162 0
 320 0012 0374     		strb	r3, [r0, #16]
 321              		.loc 2 158 0
 322 0014 1546     		mov	r5, r2
 323              		.loc 2 163 0
 324 0016 0090     		str	r0, [sp]
 325 0018 0B46     		mov	r3, r1
 326 001a 4FF40072 		mov	r2, #512
 327              	.LVL31:
 328 001e 00F15C01 		add	r1, r0, #92
 329              	.LVL32:
 330 0022 1430     		adds	r0, r0, #20
 331              	.LVL33:
 332 0024 FFF7FEFF 		bl	iqObjectInit
 333              	.LVL34:
 334              		.loc 2 164 0
 335 0028 0094     		str	r4, [sp]
 336 002a 2B46     		mov	r3, r5
 337 002c 4FF40072 		mov	r2, #512
 338 0030 04F51771 		add	r1, r4, #604
 339 0034 04F13800 		add	r0, r4, #56
 340 0038 FFF7FEFF 		bl	oqObjectInit
 341              	.LVL35:
 342              		.loc 2 165 0
ARM GAS  /tmp/ccl2ATzr.s 			page 7


 343 003c 03B0     		add	sp, sp, #12
 344              		.cfi_def_cfa_offset 12
 345              		@ sp needed
 346 003e 30BD     		pop	{r4, r5, pc}
 347              	.LVL36:
 348              	.L15:
 349              		.align	2
 350              	.L14:
 351 0040 00000000 		.word	.LANCHOR0
 352              		.cfi_endproc
 353              	.LFE261:
 354              		.size	sdObjectInit, .-sdObjectInit
 355              		.section	.text.sdStart,"ax",%progbits
 356              		.align	1
 357              		.global	sdStart
 358              		.syntax unified
 359              		.thumb
 360              		.thumb_func
 361              		.fpu fpv4-sp-d16
 362              		.type	sdStart, %function
 363              	sdStart:
 364              	.LFB262:
 365              		.loc 2 185 0
 366              		.cfi_startproc
 367              		@ args = 0, pretend = 0, frame = 0
 368              		@ frame_needed = 0, uses_anonymous_args = 0
 369              	.LVL37:
 370 0000 10B5     		push	{r4, lr}
 371              		.cfi_def_cfa_offset 8
 372              		.cfi_offset 4, -8
 373              		.cfi_offset 14, -4
 374              	.LBB84:
 375              	.LBB85:
 376              	.LBB86:
 377              	.LBB87:
 378              	.LBB88:
 379              		.file 3 "../../modules/ChibiOS/os/common/ext/ARM/CMSIS/Core/Include/cmsis_gcc.h"
 380              		.loc 3 493 0
 381 0002 2023     		movs	r3, #32
 382              	.LBE88:
 383              	.LBE87:
 384              	.LBE86:
 385              	.LBE85:
 386              	.LBE84:
 387              		.loc 2 185 0
 388 0004 0446     		mov	r4, r0
 389              	.LBB93:
 390              	.LBB92:
 391              	.LBB91:
 392              	.LBB90:
 393              	.LBB89:
 394              		.loc 3 493 0
 395              		.syntax unified
 396              	@ 493 "../../modules/ChibiOS/os/common/ext/ARM/CMSIS/Core/Include/cmsis_gcc.h" 1
 397 0006 83F31188 		MSR basepri, r3
 398              	@ 0 "" 2
 399              	.LVL38:
ARM GAS  /tmp/ccl2ATzr.s 			page 8


 400              		.thumb
 401              		.syntax unified
 402              	.LBE89:
 403              	.LBE90:
 404              	.LBE91:
 405              	.LBE92:
 406              	.LBE93:
 407              		.loc 2 192 0
 408 000a FFF7FEFF 		bl	sd_lld_start
 409              	.LVL39:
 410              		.loc 2 193 0
 411 000e 0223     		movs	r3, #2
 412 0010 2374     		strb	r3, [r4, #16]
 413              	.LVL40:
 414              	.LBB94:
 415              	.LBB95:
 416              	.LBB96:
 417              	.LBB97:
 418              	.LBB98:
 419              	.LBB99:
 420              		.loc 3 493 0
 421 0012 0023     		movs	r3, #0
 422              		.syntax unified
 423              	@ 493 "../../modules/ChibiOS/os/common/ext/ARM/CMSIS/Core/Include/cmsis_gcc.h" 1
 424 0014 83F31188 		MSR basepri, r3
 425              	@ 0 "" 2
 426              	.LVL41:
 427              		.thumb
 428              		.syntax unified
 429 0018 10BD     		pop	{r4, pc}
 430              	.LBE99:
 431              	.LBE98:
 432              	.LBE97:
 433              	.LBE96:
 434              	.LBE95:
 435              	.LBE94:
 436              		.cfi_endproc
 437              	.LFE262:
 438              		.size	sdStart, .-sdStart
 439              		.section	.text.sdStop,"ax",%progbits
 440              		.align	1
 441              		.global	sdStop
 442              		.syntax unified
 443              		.thumb
 444              		.thumb_func
 445              		.fpu fpv4-sp-d16
 446              		.type	sdStop, %function
 447              	sdStop:
 448              	.LFB263:
 449              		.loc 2 206 0
 450              		.cfi_startproc
 451              		@ args = 0, pretend = 0, frame = 0
 452              		@ frame_needed = 0, uses_anonymous_args = 0
 453              	.LVL42:
 454 0000 10B5     		push	{r4, lr}
 455              		.cfi_def_cfa_offset 8
 456              		.cfi_offset 4, -8
ARM GAS  /tmp/ccl2ATzr.s 			page 9


 457              		.cfi_offset 14, -4
 458              	.LBB100:
 459              	.LBB101:
 460              	.LBB102:
 461              	.LBB103:
 462              	.LBB104:
 463              		.loc 3 493 0
 464 0002 2023     		movs	r3, #32
 465              	.LBE104:
 466              	.LBE103:
 467              	.LBE102:
 468              	.LBE101:
 469              	.LBE100:
 470              		.loc 2 206 0
 471 0004 0446     		mov	r4, r0
 472              	.LBB109:
 473              	.LBB108:
 474              	.LBB107:
 475              	.LBB106:
 476              	.LBB105:
 477              		.loc 3 493 0
 478              		.syntax unified
 479              	@ 493 "../../modules/ChibiOS/os/common/ext/ARM/CMSIS/Core/Include/cmsis_gcc.h" 1
 480 0006 83F31188 		MSR basepri, r3
 481              	@ 0 "" 2
 482              	.LVL43:
 483              		.thumb
 484              		.syntax unified
 485              	.LBE105:
 486              	.LBE106:
 487              	.LBE107:
 488              	.LBE108:
 489              	.LBE109:
 490              		.loc 2 215 0
 491 000a FFF7FEFF 		bl	sd_lld_stop
 492              	.LVL44:
 493              		.loc 2 216 0
 494 000e 0123     		movs	r3, #1
 495 0010 2374     		strb	r3, [r4, #16]
 496              		.loc 2 217 0
 497 0012 04F13800 		add	r0, r4, #56
 498 0016 FFF7FEFF 		bl	oqResetI
 499              	.LVL45:
 500              		.loc 2 218 0
 501 001a 04F11400 		add	r0, r4, #20
 502 001e FFF7FEFF 		bl	iqResetI
 503              	.LVL46:
 504              	.LBB110:
 505              	.LBB111:
 506              		.loc 1 618 0
 507 0022 FFF7FEFF 		bl	chSchRescheduleS
 508              	.LVL47:
 509              	.LBE111:
 510              	.LBE110:
 511              	.LBB112:
 512              	.LBB113:
 513              	.LBB114:
ARM GAS  /tmp/ccl2ATzr.s 			page 10


 514              	.LBB115:
 515              	.LBB116:
 516              	.LBB117:
 517              		.loc 3 493 0
 518 0026 0023     		movs	r3, #0
 519              		.syntax unified
 520              	@ 493 "../../modules/ChibiOS/os/common/ext/ARM/CMSIS/Core/Include/cmsis_gcc.h" 1
 521 0028 83F31188 		MSR basepri, r3
 522              	@ 0 "" 2
 523              	.LVL48:
 524              		.thumb
 525              		.syntax unified
 526 002c 10BD     		pop	{r4, pc}
 527              	.LBE117:
 528              	.LBE116:
 529              	.LBE115:
 530              	.LBE114:
 531              	.LBE113:
 532              	.LBE112:
 533              		.cfi_endproc
 534              	.LFE263:
 535              		.size	sdStop, .-sdStop
 536              		.section	.text.sdIncomingDataI,"ax",%progbits
 537              		.align	1
 538              		.global	sdIncomingDataI
 539              		.syntax unified
 540              		.thumb
 541              		.thumb_func
 542              		.fpu fpv4-sp-d16
 543              		.type	sdIncomingDataI, %function
 544              	sdIncomingDataI:
 545              	.LFB264:
 546              		.loc 2 240 0
 547              		.cfi_startproc
 548              		@ args = 0, pretend = 0, frame = 0
 549              		@ frame_needed = 0, uses_anonymous_args = 0
 550              	.LVL49:
 551 0000 38B5     		push	{r3, r4, r5, lr}
 552              		.cfi_def_cfa_offset 16
 553              		.cfi_offset 3, -16
 554              		.cfi_offset 4, -12
 555              		.cfi_offset 5, -8
 556              		.cfi_offset 14, -4
 557              		.loc 2 245 0
 558 0002 C369     		ldr	r3, [r0, #28]
 559              		.loc 2 240 0
 560 0004 0446     		mov	r4, r0
 561 0006 0D46     		mov	r5, r1
 562              		.loc 2 245 0
 563 0008 1BB9     		cbnz	r3, .L19
 564              		.loc 2 246 0
 565 000a 0421     		movs	r1, #4
 566              	.LVL50:
 567 000c 0844     		add	r0, r0, r1
 568              	.LVL51:
 569 000e FFF7FEFF 		bl	osalEventBroadcastFlagsI
 570              	.LVL52:
ARM GAS  /tmp/ccl2ATzr.s 			page 11


 571              	.L19:
 572              		.loc 2 247 0
 573 0012 2946     		mov	r1, r5
 574 0014 04F11400 		add	r0, r4, #20
 575 0018 FFF7FEFF 		bl	iqPutI
 576              	.LVL53:
 577 001c 0028     		cmp	r0, #0
 578 001e 06DA     		bge	.L18
 579              		.loc 2 248 0
 580 0020 201D     		adds	r0, r4, #4
 581 0022 4FF48061 		mov	r1, #1024
 582              		.loc 2 249 0
 583 0026 BDE83840 		pop	{r3, r4, r5, lr}
 584              		.cfi_remember_state
 585              		.cfi_restore 14
 586              		.cfi_restore 5
 587              		.cfi_restore 4
 588              		.cfi_restore 3
 589              		.cfi_def_cfa_offset 0
 590              	.LVL54:
 591              		.loc 2 248 0
 592 002a FFF7FEBF 		b	osalEventBroadcastFlagsI
 593              	.LVL55:
 594              	.L18:
 595              		.cfi_restore_state
 596 002e 38BD     		pop	{r3, r4, r5, pc}
 597              		.cfi_endproc
 598              	.LFE264:
 599              		.size	sdIncomingDataI, .-sdIncomingDataI
 600              		.section	.text.sdRequestDataI,"ax",%progbits
 601              		.align	1
 602              		.global	sdRequestDataI
 603              		.syntax unified
 604              		.thumb
 605              		.thumb_func
 606              		.fpu fpv4-sp-d16
 607              		.type	sdRequestDataI, %function
 608              	sdRequestDataI:
 609              	.LFB265:
 610              		.loc 2 266 0
 611              		.cfi_startproc
 612              		@ args = 0, pretend = 0, frame = 0
 613              		@ frame_needed = 0, uses_anonymous_args = 0
 614              	.LVL56:
 615 0000 38B5     		push	{r3, r4, r5, lr}
 616              		.cfi_def_cfa_offset 16
 617              		.cfi_offset 3, -16
 618              		.cfi_offset 4, -12
 619              		.cfi_offset 5, -8
 620              		.cfi_offset 14, -4
 621              		.loc 2 266 0
 622 0002 0446     		mov	r4, r0
 623              		.loc 2 272 0
 624 0004 3830     		adds	r0, r0, #56
 625              	.LVL57:
 626 0006 FFF7FEFF 		bl	oqGetI
 627              	.LVL58:
ARM GAS  /tmp/ccl2ATzr.s 			page 12


 628              		.loc 2 273 0
 629 000a 051E     		subs	r5, r0, #0
 630 000c 03DA     		bge	.L21
 631              		.loc 2 274 0
 632 000e 0821     		movs	r1, #8
 633 0010 201D     		adds	r0, r4, #4
 634              	.LVL59:
 635 0012 FFF7FEFF 		bl	osalEventBroadcastFlagsI
 636              	.LVL60:
 637              	.L21:
 638              		.loc 2 276 0
 639 0016 2846     		mov	r0, r5
 640 0018 38BD     		pop	{r3, r4, r5, pc}
 641              		.cfi_endproc
 642              	.LFE265:
 643              		.size	sdRequestDataI, .-sdRequestDataI
 644              		.section	.text.sdPutWouldBlock,"ax",%progbits
 645              		.align	1
 646              		.global	sdPutWouldBlock
 647              		.syntax unified
 648              		.thumb
 649              		.thumb_func
 650              		.fpu fpv4-sp-d16
 651              		.type	sdPutWouldBlock, %function
 652              	sdPutWouldBlock:
 653              	.LFB266:
 654              		.loc 2 293 0
 655              		.cfi_startproc
 656              		@ args = 0, pretend = 0, frame = 0
 657              		@ frame_needed = 0, uses_anonymous_args = 0
 658              		@ link register save eliminated.
 659              	.LVL61:
 660              	.LBB118:
 661              	.LBB119:
 662              	.LBB120:
 663              	.LBB121:
 664              	.LBB122:
 665              		.loc 3 493 0
 666 0000 2023     		movs	r3, #32
 667              		.syntax unified
 668              	@ 493 "../../modules/ChibiOS/os/common/ext/ARM/CMSIS/Core/Include/cmsis_gcc.h" 1
 669 0002 83F31188 		MSR basepri, r3
 670              	@ 0 "" 2
 671              	.LVL62:
 672              		.thumb
 673              		.syntax unified
 674              	.LBE122:
 675              	.LBE121:
 676              	.LBE120:
 677              	.LBE119:
 678              	.LBE118:
 679              	.LBB123:
 680              	.LBB124:
 681              	.LBB125:
 682              	.LBB126:
 683              	.LBB127:
 684              	.LBB128:
ARM GAS  /tmp/ccl2ATzr.s 			page 13


 685 0006 0023     		movs	r3, #0
 686              	.LBE128:
 687              	.LBE127:
 688              	.LBE126:
 689              	.LBE125:
 690              	.LBE124:
 691              	.LBE123:
 692              		.loc 2 297 0
 693 0008 006C     		ldr	r0, [r0, #64]
 694              	.LVL63:
 695              	.LBB134:
 696              	.LBB133:
 697              	.LBB132:
 698              	.LBB131:
 699              	.LBB130:
 700              	.LBB129:
 701              		.loc 3 493 0
 702              		.syntax unified
 703              	@ 493 "../../modules/ChibiOS/os/common/ext/ARM/CMSIS/Core/Include/cmsis_gcc.h" 1
 704 000a 83F31188 		MSR basepri, r3
 705              	@ 0 "" 2
 706              	.LVL64:
 707              		.thumb
 708              		.syntax unified
 709              	.LBE129:
 710              	.LBE130:
 711              	.LBE131:
 712              	.LBE132:
 713              	.LBE133:
 714              	.LBE134:
 715              		.loc 2 301 0
 716 000e B0FA80F0 		clz	r0, r0
 717              	.LVL65:
 718 0012 4009     		lsrs	r0, r0, #5
 719 0014 7047     		bx	lr
 720              		.cfi_endproc
 721              	.LFE266:
 722              		.size	sdPutWouldBlock, .-sdPutWouldBlock
 723              		.section	.text.sdGetWouldBlock,"ax",%progbits
 724              		.align	1
 725              		.global	sdGetWouldBlock
 726              		.syntax unified
 727              		.thumb
 728              		.thumb_func
 729              		.fpu fpv4-sp-d16
 730              		.type	sdGetWouldBlock, %function
 731              	sdGetWouldBlock:
 732              	.LFB267:
 733              		.loc 2 318 0
 734              		.cfi_startproc
 735              		@ args = 0, pretend = 0, frame = 0
 736              		@ frame_needed = 0, uses_anonymous_args = 0
 737              		@ link register save eliminated.
 738              	.LVL66:
 739              	.LBB135:
 740              	.LBB136:
 741              	.LBB137:
ARM GAS  /tmp/ccl2ATzr.s 			page 14


 742              	.LBB138:
 743              	.LBB139:
 744              		.loc 3 493 0
 745 0000 2023     		movs	r3, #32
 746              		.syntax unified
 747              	@ 493 "../../modules/ChibiOS/os/common/ext/ARM/CMSIS/Core/Include/cmsis_gcc.h" 1
 748 0002 83F31188 		MSR basepri, r3
 749              	@ 0 "" 2
 750              	.LVL67:
 751              		.thumb
 752              		.syntax unified
 753              	.LBE139:
 754              	.LBE138:
 755              	.LBE137:
 756              	.LBE136:
 757              	.LBE135:
 758              	.LBB140:
 759              	.LBB141:
 760              	.LBB142:
 761              	.LBB143:
 762              	.LBB144:
 763              	.LBB145:
 764 0006 0023     		movs	r3, #0
 765              	.LBE145:
 766              	.LBE144:
 767              	.LBE143:
 768              	.LBE142:
 769              	.LBE141:
 770              	.LBE140:
 771              		.loc 2 322 0
 772 0008 C069     		ldr	r0, [r0, #28]
 773              	.LVL68:
 774              	.LBB151:
 775              	.LBB150:
 776              	.LBB149:
 777              	.LBB148:
 778              	.LBB147:
 779              	.LBB146:
 780              		.loc 3 493 0
 781              		.syntax unified
 782              	@ 493 "../../modules/ChibiOS/os/common/ext/ARM/CMSIS/Core/Include/cmsis_gcc.h" 1
 783 000a 83F31188 		MSR basepri, r3
 784              	@ 0 "" 2
 785              	.LVL69:
 786              		.thumb
 787              		.syntax unified
 788              	.LBE146:
 789              	.LBE147:
 790              	.LBE148:
 791              	.LBE149:
 792              	.LBE150:
 793              	.LBE151:
 794              		.loc 2 326 0
 795 000e B0FA80F0 		clz	r0, r0
 796              	.LVL70:
 797 0012 4009     		lsrs	r0, r0, #5
 798 0014 7047     		bx	lr
ARM GAS  /tmp/ccl2ATzr.s 			page 15


 799              		.cfi_endproc
 800              	.LFE267:
 801              		.size	sdGetWouldBlock, .-sdGetWouldBlock
 802              		.section	.text.sdControl,"ax",%progbits
 803              		.align	1
 804              		.global	sdControl
 805              		.syntax unified
 806              		.thumb
 807              		.thumb_func
 808              		.fpu fpv4-sp-d16
 809              		.type	sdControl, %function
 810              	sdControl:
 811              	.LFB268:
 812              		.loc 2 342 0
 813              		.cfi_startproc
 814              		@ args = 0, pretend = 0, frame = 0
 815              		@ frame_needed = 0, uses_anonymous_args = 0
 816              		@ link register save eliminated.
 817              	.LVL71:
 818              		.loc 2 345 0
 819 0000 0020     		movs	r0, #0
 820              	.LVL72:
 821 0002 7047     		bx	lr
 822              		.cfi_endproc
 823              	.LFE268:
 824              		.size	sdControl, .-sdControl
 825              		.section	.rodata.vmt,"a",%progbits
 826              		.align	2
 827              		.set	.LANCHOR0,. + 0
 828              		.type	vmt, %object
 829              		.size	vmt, 40
 830              	vmt:
 831 0000 00000000 		.word	0
 832 0004 00000000 		.word	_write
 833 0008 00000000 		.word	_read
 834 000c 00000000 		.word	_put
 835 0010 00000000 		.word	_get
 836 0014 00000000 		.word	_putt
 837 0018 00000000 		.word	_gett
 838 001c 00000000 		.word	_writet
 839 0020 00000000 		.word	_readt
 840 0024 00000000 		.word	_ctl
 841              		.text
 842              	.Letext0:
 843              		.file 4 "/opt/gcc-arm-none-eabi-6-2017-q2-update/lib/gcc/arm-none-eabi/6.3.1/include/stddef.h"
 844              		.file 5 "/opt/gcc-arm-none-eabi-6-2017-q2-update/arm-none-eabi/include/machine/_default_types.h"
 845              		.file 6 "/opt/gcc-arm-none-eabi-6-2017-q2-update/arm-none-eabi/include/sys/_stdint.h"
 846              		.file 7 "../../modules/ChibiOS/os/common/ports/ARMCMx/compilers/GCC/chtypes.h"
 847              		.file 8 "../../modules/ChibiOS/os/rt/include/chsystypes.h"
 848              		.file 9 "../../modules/ChibiOS/os/rt/include/chschd.h"
 849              		.file 10 "../../modules/ChibiOS/os/rt/include/chtime.h"
 850              		.file 11 "../../modules/ChibiOS/os/common/ext/ARM/CMSIS/Core/Include/core_cm4.h"
 851              		.file 12 "../../modules/ChibiOS/os/common/ext/ST/STM32F4xx/system_stm32f4xx.h"
 852              		.file 13 "../../modules/ChibiOS/os/common/ext/ST/STM32F4xx/stm32f407xx.h"
 853              		.file 14 "../../modules/ChibiOS/os/common/ports/ARMCMx/chcore.h"
 854              		.file 15 "../../modules/ChibiOS/os/common/ports/ARMCMx/chcore_v7m.h"
 855              		.file 16 "../../modules/ChibiOS/os/rt/include/chsys.h"
ARM GAS  /tmp/ccl2ATzr.s 			page 16


 856              		.file 17 "../../modules/ChibiOS/os/hal/ports/STM32/LLD/DMAv2/stm32_dma.h"
 857              		.file 18 "../../modules/ChibiOS/os/hal/include/hal_queues.h"
 858              		.file 19 "../../modules/ChibiOS/os/hal/include/hal_pal.h"
 859              		.file 20 "../../modules/ChibiOS/os/hal/ports/STM32/LLD/GPIOv2/hal_pal_lld.h"
 860              		.file 21 "../../modules/ChibiOS/os/hal/include/hal_serial.h"
 861              		.file 22 "../../modules/ChibiOS/os/hal/ports/STM32/LLD/USARTv1/hal_serial_lld.h"
 862              		.file 23 "../../modules/ChibiOS/os/hal/include/hal_usb.h"
 863              		.file 24 "../../modules/ChibiOS/os/hal/ports/STM32/LLD/OTGv1/hal_usb_lld.h"
 864              		.file 25 "../../modules/ChibiOS/os/hal/ports/STM32/LLD/OTGv1/stm32_otg.h"