ARM GAS  /tmp/cc5KGIJA.s 			page 1


   1              		.cpu cortex-m4
   2              		.eabi_attribute 27, 1
   3              		.eabi_attribute 28, 1
   4              		.eabi_attribute 20, 1
   5              		.eabi_attribute 21, 1
   6              		.eabi_attribute 23, 3
   7              		.eabi_attribute 24, 1
   8              		.eabi_attribute 25, 1
   9              		.eabi_attribute 26, 1
  10              		.eabi_attribute 30, 4
  11              		.eabi_attribute 34, 1
  12              		.eabi_attribute 18, 4
  13              		.file	"hal_spi_lld.c"
  14              		.text
  15              	.Ltext0:
  16              		.cfi_sections	.debug_frame
  17              		.section	.text.spi_lld_serve_tx_interrupt,"ax",%progbits
  18              		.align	1
  19              		.syntax unified
  20              		.thumb
  21              		.thumb_func
  22              		.fpu fpv4-sp-d16
  23              		.type	spi_lld_serve_tx_interrupt, %function
  24              	spi_lld_serve_tx_interrupt:
  25              	.LFB324:
  26              		.file 1 "../../modules/ChibiOS/os/hal/ports/STM32/LLD/SPIv1/hal_spi_lld.c"
  27              		.loc 1 170 0
  28              		.cfi_startproc
  29              		@ args = 0, pretend = 0, frame = 0
  30              		@ frame_needed = 0, uses_anonymous_args = 0
  31              		@ link register save eliminated.
  32              	.LVL0:
  33              		.loc 1 175 0
  34 0000 11F00C0F 		tst	r1, #12
  35 0004 02D0     		beq	.L1
  36              	.LVL1:
  37              	.LBB56:
  38              	.LBB57:
  39              		.file 2 "../../modules/ChibiOS/os/hal/osal/rt/osal.h"
  40              		.loc 2 480 0
  41 0006 0248     		ldr	r0, .L3
  42              	.LVL2:
  43 0008 FFF7FEBF 		b	chSysHalt
  44              	.LVL3:
  45              	.L1:
  46 000c 7047     		bx	lr
  47              	.L4:
  48 000e 00BF     		.align	2
  49              	.L3:
  50 0010 00000000 		.word	.LC0
  51              	.LBE57:
  52              	.LBE56:
  53              		.cfi_endproc
  54              	.LFE324:
  55              		.size	spi_lld_serve_tx_interrupt, .-spi_lld_serve_tx_interrupt
  56              		.section	.text.spi_lld_serve_rx_interrupt,"ax",%progbits
  57              		.align	1
ARM GAS  /tmp/cc5KGIJA.s 			page 2


  58              		.syntax unified
  59              		.thumb
  60              		.thumb_func
  61              		.fpu fpv4-sp-d16
  62              		.type	spi_lld_serve_rx_interrupt, %function
  63              	spi_lld_serve_rx_interrupt:
  64              	.LFB323:
  65              		.loc 1 132 0
  66              		.cfi_startproc
  67              		@ args = 0, pretend = 0, frame = 0
  68              		@ frame_needed = 0, uses_anonymous_args = 0
  69              	.LVL4:
  70              		.loc 1 136 0
  71 0000 11F00C0F 		tst	r1, #12
  72              		.loc 1 132 0
  73 0004 38B5     		push	{r3, r4, r5, lr}
  74              		.cfi_def_cfa_offset 16
  75              		.cfi_offset 3, -16
  76              		.cfi_offset 4, -12
  77              		.cfi_offset 5, -8
  78              		.cfi_offset 14, -4
  79              		.loc 1 132 0
  80 0006 0446     		mov	r4, r0
  81 0008 0D46     		mov	r5, r1
  82              		.loc 1 136 0
  83 000a 02D0     		beq	.L6
  84              	.LVL5:
  85              	.LBB58:
  86              	.LBB59:
  87              		.loc 2 480 0
  88 000c 2748     		ldr	r0, .L33
  89              	.LVL6:
  90 000e FFF7FEFF 		bl	chSysHalt
  91              	.LVL7:
  92              	.L6:
  93              	.LBE59:
  94              	.LBE58:
  95              		.loc 1 143 0
  96 0012 6368     		ldr	r3, [r4, #4]
  97 0014 1A78     		ldrb	r2, [r3]	@ zero_extendqisi2
  98 0016 AAB1     		cbz	r2, .L7
  99              		.loc 1 144 0
 100 0018 EA06     		lsls	r2, r5, #27
 101 001a 03D5     		bpl	.L8
 102              		.loc 1 146 0
 103 001c 5B68     		ldr	r3, [r3, #4]
 104 001e 0BB1     		cbz	r3, .L8
 105              		.loc 1 146 0 is_stmt 0 discriminator 1
 106 0020 2046     		mov	r0, r4
 107 0022 9847     		blx	r3
 108              	.LVL8:
 109              	.L8:
 110              		.loc 1 148 0 is_stmt 1
 111 0024 AB06     		lsls	r3, r5, #26
 112 0026 3FD5     		bpl	.L5
 113              		.loc 1 150 0
 114 0028 6368     		ldr	r3, [r4, #4]
ARM GAS  /tmp/cc5KGIJA.s 			page 3


 115 002a 5B68     		ldr	r3, [r3, #4]
 116 002c 002B     		cmp	r3, #0
 117 002e 3BD0     		beq	.L5
 118              		.loc 1 150 0 is_stmt 0 discriminator 1
 119 0030 0422     		movs	r2, #4
 120 0032 2270     		strb	r2, [r4]
 121 0034 2046     		mov	r0, r4
 122 0036 9847     		blx	r3
 123              	.LVL9:
 124 0038 2378     		ldrb	r3, [r4]	@ zero_extendqisi2
 125 003a 042B     		cmp	r3, #4
 126 003c 34D1     		bne	.L5
 127              		.loc 1 150 0 discriminator 2
 128 003e 0323     		movs	r3, #3
 129 0040 2370     		strb	r3, [r4]
 130 0042 38BD     		pop	{r3, r4, r5, pc}
 131              	.LVL10:
 132              	.L7:
 133              		.loc 1 155 0 is_stmt 1
 134 0044 A26A     		ldr	r2, [r4, #40]
 135 0046 1168     		ldr	r1, [r2]
 136 0048 0868     		ldr	r0, [r1]
 137 004a 20F01F00 		bic	r0, r0, #31
 138 004e 0860     		str	r0, [r1]
 139              	.LVL11:
 140              	.L12:
 141              		.loc 1 155 0 is_stmt 0 discriminator 2
 142 0050 0868     		ldr	r0, [r1]
 143 0052 C507     		lsls	r5, r0, #31
 144 0054 FCD4     		bmi	.L12
 145              		.loc 1 155 0 discriminator 3
 146 0056 507A     		ldrb	r0, [r2, #9]	@ zero_extendqisi2
 147 0058 5168     		ldr	r1, [r2, #4]
 148 005a 3D22     		movs	r2, #61
 149 005c 8240     		lsls	r2, r2, r0
 150 005e 0A60     		str	r2, [r1]
 151              		.loc 1 156 0 is_stmt 1 discriminator 3
 152 0060 626A     		ldr	r2, [r4, #36]
 153 0062 1168     		ldr	r1, [r2]
 154 0064 0868     		ldr	r0, [r1]
 155 0066 20F01F00 		bic	r0, r0, #31
 156 006a 0860     		str	r0, [r1]
 157              	.L13:
 158              		.loc 1 156 0 is_stmt 0 discriminator 2
 159 006c 0868     		ldr	r0, [r1]
 160 006e C007     		lsls	r0, r0, #31
 161 0070 FCD4     		bmi	.L13
 162              		.loc 1 156 0 discriminator 3
 163 0072 507A     		ldrb	r0, [r2, #9]	@ zero_extendqisi2
 164 0074 5168     		ldr	r1, [r2, #4]
 165              		.loc 1 160 0 is_stmt 1 discriminator 3
 166 0076 5B68     		ldr	r3, [r3, #4]
 167              		.loc 1 156 0 discriminator 3
 168 0078 3D22     		movs	r2, #61
 169 007a 8240     		lsls	r2, r2, r0
 170 007c 0A60     		str	r2, [r1]
 171              		.loc 1 160 0 discriminator 3
ARM GAS  /tmp/cc5KGIJA.s 			page 4


 172 007e 33B1     		cbz	r3, .L14
 173              		.loc 1 160 0 is_stmt 0 discriminator 1
 174 0080 0422     		movs	r2, #4
 175 0082 2270     		strb	r2, [r4]
 176 0084 2046     		mov	r0, r4
 177 0086 9847     		blx	r3
 178              	.LVL12:
 179 0088 2378     		ldrb	r3, [r4]	@ zero_extendqisi2
 180 008a 042B     		cmp	r3, #4
 181 008c 01D1     		bne	.L15
 182              	.L14:
 183              		.loc 1 160 0 discriminator 3
 184 008e 0223     		movs	r3, #2
 185 0090 2370     		strb	r3, [r4]
 186              	.L15:
 187              	.LVL13:
 188              	.LBB60:
 189              	.LBB61:
 190              	.LBB62:
 191              	.LBB63:
 192              	.LBB64:
 193              	.LBB65:
 194              		.file 3 "../../modules/ChibiOS/os/common/ext/ARM/CMSIS/Core/Include/cmsis_gcc.h"
 195              		.loc 3 493 0 is_stmt 1 discriminator 4
 196 0092 2023     		movs	r3, #32
 197              		.syntax unified
 198              	@ 493 "../../modules/ChibiOS/os/common/ext/ARM/CMSIS/Core/Include/cmsis_gcc.h" 1
 199 0094 83F31188 		MSR basepri, r3
 200              	@ 0 "" 2
 201              	.LVL14:
 202              		.thumb
 203              		.syntax unified
 204              	.LBE65:
 205              	.LBE64:
 206              	.LBE63:
 207              	.LBE62:
 208              	.LBE61:
 209              	.LBE60:
 210              	.LBB66:
 211              	.LBB67:
 212              		.loc 2 775 0 discriminator 4
 213 0098 0021     		movs	r1, #0
 214 009a 04F10800 		add	r0, r4, #8
 215              	.LVL15:
 216 009e FFF7FEFF 		bl	chThdResumeI
 217              	.LVL16:
 218              	.LBE67:
 219              	.LBE66:
 220              	.LBB68:
 221              	.LBB69:
 222              	.LBB70:
 223              	.LBB71:
 224              	.LBB72:
 225              	.LBB73:
 226              		.loc 3 493 0 discriminator 4
 227 00a2 0023     		movs	r3, #0
 228              		.syntax unified
ARM GAS  /tmp/cc5KGIJA.s 			page 5


 229              	@ 493 "../../modules/ChibiOS/os/common/ext/ARM/CMSIS/Core/Include/cmsis_gcc.h" 1
 230 00a4 83F31188 		MSR basepri, r3
 231              	@ 0 "" 2
 232              	.LVL17:
 233              		.thumb
 234              		.syntax unified
 235              	.L5:
 236 00a8 38BD     		pop	{r3, r4, r5, pc}
 237              	.LVL18:
 238              	.L34:
 239 00aa 00BF     		.align	2
 240              	.L33:
 241 00ac 00000000 		.word	.LC0
 242              	.LBE73:
 243              	.LBE72:
 244              	.LBE71:
 245              	.LBE70:
 246              	.LBE69:
 247              	.LBE68:
 248              		.cfi_endproc
 249              	.LFE323:
 250              		.size	spi_lld_serve_rx_interrupt, .-spi_lld_serve_rx_interrupt
 251              		.section	.text.spi_lld_init,"ax",%progbits
 252              		.align	1
 253              		.global	spi_lld_init
 254              		.syntax unified
 255              		.thumb
 256              		.thumb_func
 257              		.fpu fpv4-sp-d16
 258              		.type	spi_lld_init, %function
 259              	spi_lld_init:
 260              	.LFB325:
 261              		.loc 1 197 0
 262              		.cfi_startproc
 263              		@ args = 0, pretend = 0, frame = 0
 264              		@ frame_needed = 0, uses_anonymous_args = 0
 265 0000 38B5     		push	{r3, r4, r5, lr}
 266              		.cfi_def_cfa_offset 16
 267              		.cfi_offset 3, -16
 268              		.cfi_offset 4, -12
 269              		.cfi_offset 5, -8
 270              		.cfi_offset 14, -4
 271              		.loc 1 200 0
 272 0002 0D4C     		ldr	r4, .L36
 273 0004 2046     		mov	r0, r4
 274 0006 FFF7FEFF 		bl	spiObjectInit
 275              	.LVL19:
 276              		.loc 1 201 0
 277 000a 0C4B     		ldr	r3, .L36+4
 278 000c 2362     		str	r3, [r4, #32]
 279              		.loc 1 204 0
 280 000e 0C4B     		ldr	r3, .L36+8
 281 0010 E362     		str	r3, [r4, #44]
 282              		.loc 1 202 0
 283 0012 0025     		movs	r5, #0
 284              		.loc 1 210 0
 285 0014 3033     		adds	r3, r3, #48
ARM GAS  /tmp/cc5KGIJA.s 			page 6


 286 0016 2363     		str	r3, [r4, #48]
 287              		.loc 1 202 0
 288 0018 6562     		str	r5, [r4, #36]
 289              		.loc 1 203 0
 290 001a A562     		str	r5, [r4, #40]
 291              		.loc 1 218 0
 292 001c 094C     		ldr	r4, .L36+12
 293 001e 2046     		mov	r0, r4
 294 0020 FFF7FEFF 		bl	spiObjectInit
 295              	.LVL20:
 296              		.loc 1 219 0
 297 0024 084B     		ldr	r3, .L36+16
 298 0026 2362     		str	r3, [r4, #32]
 299              		.loc 1 222 0
 300 0028 084B     		ldr	r3, .L36+20
 301 002a E362     		str	r3, [r4, #44]
 302              		.loc 1 228 0
 303 002c 3033     		adds	r3, r3, #48
 304              		.loc 1 220 0
 305 002e 6562     		str	r5, [r4, #36]
 306              		.loc 1 221 0
 307 0030 A562     		str	r5, [r4, #40]
 308              		.loc 1 228 0
 309 0032 2363     		str	r3, [r4, #48]
 310 0034 38BD     		pop	{r3, r4, r5, pc}
 311              	.L37:
 312 0036 00BF     		.align	2
 313              	.L36:
 314 0038 00000000 		.word	.LANCHOR0
 315 003c 00300140 		.word	1073819648
 316 0040 16000106 		.word	100728854
 317 0044 00000000 		.word	.LANCHOR1
 318 0048 00380040 		.word	1073756160
 319 004c 16000100 		.word	65558
 320              		.cfi_endproc
 321              	.LFE325:
 322              		.size	spi_lld_init, .-spi_lld_init
 323              		.section	.text.spi_lld_start,"ax",%progbits
 324              		.align	1
 325              		.global	spi_lld_start
 326              		.syntax unified
 327              		.thumb
 328              		.thumb_func
 329              		.fpu fpv4-sp-d16
 330              		.type	spi_lld_start, %function
 331              	spi_lld_start:
 332              	.LFB326:
 333              		.loc 1 315 0
 334              		.cfi_startproc
 335              		@ args = 0, pretend = 0, frame = 0
 336              		@ frame_needed = 0, uses_anonymous_args = 0
 337              	.LVL21:
 338 0000 38B5     		push	{r3, r4, r5, lr}
 339              		.cfi_def_cfa_offset 16
 340              		.cfi_offset 3, -16
 341              		.cfi_offset 4, -12
 342              		.cfi_offset 5, -8
ARM GAS  /tmp/cc5KGIJA.s 			page 7


 343              		.cfi_offset 14, -4
 344              		.loc 1 318 0
 345 0002 0378     		ldrb	r3, [r0]	@ zero_extendqisi2
 346 0004 012B     		cmp	r3, #1
 347              		.loc 1 315 0
 348 0006 0446     		mov	r4, r0
 349              		.loc 1 318 0
 350 0008 2BD1     		bne	.L39
 351              		.loc 1 320 0
 352 000a 454B     		ldr	r3, .L48
 353 000c 9842     		cmp	r0, r3
 354 000e 5BD1     		bne	.L40
 355              		.loc 1 321 0
 356 0010 0346     		mov	r3, r0
 357 0012 444A     		ldr	r2, .L48+4
 358 0014 0A21     		movs	r1, #10
 359 0016 0820     		movs	r0, #8
 360              	.LVL22:
 361 0018 FFF7FEFF 		bl	dmaStreamAllocI
 362              	.LVL23:
 363              		.loc 1 326 0
 364 001c 2346     		mov	r3, r4
 365              		.loc 1 321 0
 366 001e 6062     		str	r0, [r4, #36]
 367              		.loc 1 326 0
 368 0020 414A     		ldr	r2, .L48+8
 369 0022 0A21     		movs	r1, #10
 370 0024 0B20     		movs	r0, #11
 371 0026 FFF7FEFF 		bl	dmaStreamAllocI
 372              	.LVL24:
 373              		.loc 1 331 0
 374 002a 404B     		ldr	r3, .L48+12
 375              		.loc 1 326 0
 376 002c A062     		str	r0, [r4, #40]
 377              		.loc 1 331 0
 378 002e 5A6A     		ldr	r2, [r3, #36]
 379 0030 42F48052 		orr	r2, r2, #4096
 380 0034 5A62     		str	r2, [r3, #36]
 381 0036 5A6A     		ldr	r2, [r3, #36]
 382 0038 22F48052 		bic	r2, r2, #4096
 383 003c 5A62     		str	r2, [r3, #36]
 384 003e 5A6A     		ldr	r2, [r3, #36]
 385              		.loc 1 332 0
 386 0040 5A6C     		ldr	r2, [r3, #68]
 387 0042 42F48052 		orr	r2, r2, #4096
 388 0046 5A64     		str	r2, [r3, #68]
 389 0048 5A6E     		ldr	r2, [r3, #100]
 390 004a 42F48052 		orr	r2, r2, #4096
 391 004e 5A66     		str	r2, [r3, #100]
 392 0050 5B6E     		ldr	r3, [r3, #100]
 393              	.L41:
 394              		.loc 1 417 0
 395 0052 636A     		ldr	r3, [r4, #36]
 396 0054 1A68     		ldr	r2, [r3]
 397 0056 236A     		ldr	r3, [r4, #32]
 398 0058 0C33     		adds	r3, r3, #12
 399 005a 9360     		str	r3, [r2, #8]
ARM GAS  /tmp/cc5KGIJA.s 			page 8


 400              		.loc 1 418 0
 401 005c A26A     		ldr	r2, [r4, #40]
 402 005e 1268     		ldr	r2, [r2]
 403 0060 9360     		str	r3, [r2, #8]
 404              	.L39:
 405              		.loc 1 422 0
 406 0062 6068     		ldr	r0, [r4, #4]
 407 0064 236B     		ldr	r3, [r4, #48]
 408 0066 018A     		ldrh	r1, [r0, #16]
 409 0068 E26A     		ldr	r2, [r4, #44]
 410              		.loc 1 437 0
 411 006a 0578     		ldrb	r5, [r0]	@ zero_extendqisi2
 412              		.loc 1 422 0
 413 006c 11F4006F 		tst	r1, #2048
 414              		.loc 1 425 0
 415 0070 22F4F042 		bic	r2, r2, #30720
 416              		.loc 1 433 0
 417 0074 17BF     		itett	ne
 418 0076 23F4F043 		bicne	r3, r3, #30720
 419              		.loc 1 427 0
 420 007a 23F4F043 		biceq	r3, r3, #30720
 421              		.loc 1 432 0
 422 007e 42F42052 		orrne	r2, r2, #10240
 423              		.loc 1 434 0
 424 0082 43F42053 		orrne	r3, r3, #10240
 425              		.loc 1 424 0
 426 0086 0CBF     		ite	eq
 427 0088 E262     		streq	r2, [r4, #44]
 428              		.loc 1 431 0
 429 008a E262     		strne	r2, [r4, #44]
 430              		.loc 1 433 0
 431 008c 2363     		str	r3, [r4, #48]
 432 008e E26A     		ldr	r2, [r4, #44]
 433 0090 236B     		ldr	r3, [r4, #48]
 434              		.loc 1 437 0
 435 0092 002D     		cmp	r5, #0
 436 0094 3DD0     		beq	.L44
 437              		.loc 1 438 0
 438 0096 42F48472 		orr	r2, r2, #264
 439 009a E262     		str	r2, [r4, #44]
 440              		.loc 1 439 0
 441 009c 43F48473 		orr	r3, r3, #264
 442              	.L47:
 443              		.loc 1 443 0
 444 00a0 2363     		str	r3, [r4, #48]
 445              		.loc 1 447 0
 446 00a2 236A     		ldr	r3, [r4, #32]
 447 00a4 1A68     		ldr	r2, [r3]
 448 00a6 22F04002 		bic	r2, r2, #64
 449 00aa 1A60     		str	r2, [r3]
 450              		.loc 1 450 0
 451 00ac 428A     		ldrh	r2, [r0, #18]
 452              		.loc 1 448 0
 453 00ae 41F44171 		orr	r1, r1, #772
 454              		.loc 1 450 0
 455 00b2 42F00702 		orr	r2, r2, #7
 456 00b6 92B2     		uxth	r2, r2
ARM GAS  /tmp/cc5KGIJA.s 			page 9


 457              		.loc 1 448 0
 458 00b8 89B2     		uxth	r1, r1
 459 00ba 1960     		str	r1, [r3]
 460              		.loc 1 450 0
 461 00bc 5A60     		str	r2, [r3, #4]
 462              		.loc 1 452 0
 463 00be 1A68     		ldr	r2, [r3]
 464 00c0 42F04002 		orr	r2, r2, #64
 465 00c4 1A60     		str	r2, [r3]
 466 00c6 38BD     		pop	{r3, r4, r5, pc}
 467              	.LVL25:
 468              	.L40:
 469              		.loc 1 336 0
 470 00c8 194B     		ldr	r3, .L48+16
 471 00ca 9842     		cmp	r0, r3
 472 00cc C1D1     		bne	.L41
 473              		.loc 1 337 0
 474 00ce 0346     		mov	r3, r0
 475 00d0 144A     		ldr	r2, .L48+4
 476 00d2 0A21     		movs	r1, #10
 477 00d4 0320     		movs	r0, #3
 478              	.LVL26:
 479 00d6 FFF7FEFF 		bl	dmaStreamAllocI
 480              	.LVL27:
 481              		.loc 1 342 0
 482 00da 2346     		mov	r3, r4
 483              		.loc 1 337 0
 484 00dc 6062     		str	r0, [r4, #36]
 485              		.loc 1 342 0
 486 00de 124A     		ldr	r2, .L48+8
 487 00e0 0A21     		movs	r1, #10
 488 00e2 0420     		movs	r0, #4
 489 00e4 FFF7FEFF 		bl	dmaStreamAllocI
 490              	.LVL28:
 491              		.loc 1 347 0
 492 00e8 104B     		ldr	r3, .L48+12
 493              		.loc 1 342 0
 494 00ea A062     		str	r0, [r4, #40]
 495              		.loc 1 347 0
 496 00ec 1A6A     		ldr	r2, [r3, #32]
 497 00ee 42F48042 		orr	r2, r2, #16384
 498 00f2 1A62     		str	r2, [r3, #32]
 499 00f4 1A6A     		ldr	r2, [r3, #32]
 500 00f6 22F48042 		bic	r2, r2, #16384
 501 00fa 1A62     		str	r2, [r3, #32]
 502 00fc 1A6A     		ldr	r2, [r3, #32]
 503              		.loc 1 348 0
 504 00fe 1A6C     		ldr	r2, [r3, #64]
 505 0100 42F48042 		orr	r2, r2, #16384
 506 0104 1A64     		str	r2, [r3, #64]
 507 0106 1A6E     		ldr	r2, [r3, #96]
 508 0108 42F48042 		orr	r2, r2, #16384
 509 010c 1A66     		str	r2, [r3, #96]
 510 010e 1B6E     		ldr	r3, [r3, #96]
 511 0110 9FE7     		b	.L41
 512              	.L44:
 513              		.loc 1 442 0
ARM GAS  /tmp/cc5KGIJA.s 			page 10


 514 0112 22F48472 		bic	r2, r2, #264
 515 0116 E262     		str	r2, [r4, #44]
 516              		.loc 1 443 0
 517 0118 23F48473 		bic	r3, r3, #264
 518 011c C0E7     		b	.L47
 519              	.L49:
 520 011e 00BF     		.align	2
 521              	.L48:
 522 0120 00000000 		.word	.LANCHOR0
 523 0124 00000000 		.word	spi_lld_serve_rx_interrupt
 524 0128 00000000 		.word	spi_lld_serve_tx_interrupt
 525 012c 00380240 		.word	1073887232
 526 0130 00000000 		.word	.LANCHOR1
 527              		.cfi_endproc
 528              	.LFE326:
 529              		.size	spi_lld_start, .-spi_lld_start
 530              		.section	.text.spi_lld_stop,"ax",%progbits
 531              		.align	1
 532              		.global	spi_lld_stop
 533              		.syntax unified
 534              		.thumb
 535              		.thumb_func
 536              		.fpu fpv4-sp-d16
 537              		.type	spi_lld_stop, %function
 538              	spi_lld_stop:
 539              	.LFB327:
 540              		.loc 1 462 0
 541              		.cfi_startproc
 542              		@ args = 0, pretend = 0, frame = 0
 543              		@ frame_needed = 0, uses_anonymous_args = 0
 544              	.LVL29:
 545 0000 38B5     		push	{r3, r4, r5, lr}
 546              		.cfi_def_cfa_offset 16
 547              		.cfi_offset 3, -16
 548              		.cfi_offset 4, -12
 549              		.cfi_offset 5, -8
 550              		.cfi_offset 14, -4
 551              		.loc 1 465 0
 552 0002 0378     		ldrb	r3, [r0]	@ zero_extendqisi2
 553 0004 022B     		cmp	r3, #2
 554              		.loc 1 462 0
 555 0006 0446     		mov	r4, r0
 556              		.loc 1 465 0
 557 0008 2AD1     		bne	.L50
 558              		.loc 1 468 0
 559 000a 036A     		ldr	r3, [r0, #32]
 560              		.loc 1 471 0
 561 000c 406A     		ldr	r0, [r0, #36]
 562              	.LVL30:
 563              		.loc 1 468 0
 564 000e 1A68     		ldr	r2, [r3]
 565              		.loc 1 469 0
 566 0010 0025     		movs	r5, #0
 567              		.loc 1 468 0
 568 0012 22F04002 		bic	r2, r2, #64
 569 0016 1A60     		str	r2, [r3]
 570              		.loc 1 469 0
ARM GAS  /tmp/cc5KGIJA.s 			page 11


 571 0018 1D60     		str	r5, [r3]
 572              		.loc 1 470 0
 573 001a 5D60     		str	r5, [r3, #4]
 574              		.loc 1 471 0
 575 001c FFF7FEFF 		bl	dmaStreamFreeI
 576              	.LVL31:
 577              		.loc 1 472 0
 578 0020 A06A     		ldr	r0, [r4, #40]
 579 0022 FFF7FEFF 		bl	dmaStreamFreeI
 580              	.LVL32:
 581              		.loc 1 477 0
 582 0026 0F4B     		ldr	r3, .L55
 583              		.loc 1 473 0
 584 0028 6562     		str	r5, [r4, #36]
 585              		.loc 1 477 0
 586 002a 9C42     		cmp	r4, r3
 587              		.loc 1 474 0
 588 002c A562     		str	r5, [r4, #40]
 589              		.loc 1 477 0
 590 002e 0AD1     		bne	.L53
 591              		.loc 1 478 0
 592 0030 0D4B     		ldr	r3, .L55+4
 593 0032 5A6C     		ldr	r2, [r3, #68]
 594 0034 22F48052 		bic	r2, r2, #4096
 595 0038 5A64     		str	r2, [r3, #68]
 596 003a 5A6E     		ldr	r2, [r3, #100]
 597 003c 22F48052 		bic	r2, r2, #4096
 598 0040 5A66     		str	r2, [r3, #100]
 599 0042 5B6E     		ldr	r3, [r3, #100]
 600 0044 38BD     		pop	{r3, r4, r5, pc}
 601              	.LVL33:
 602              	.L53:
 603              		.loc 1 481 0
 604 0046 094B     		ldr	r3, .L55+8
 605 0048 9C42     		cmp	r4, r3
 606 004a 09D1     		bne	.L50
 607              		.loc 1 482 0
 608 004c 064B     		ldr	r3, .L55+4
 609 004e 1A6C     		ldr	r2, [r3, #64]
 610 0050 22F48042 		bic	r2, r2, #16384
 611 0054 1A64     		str	r2, [r3, #64]
 612 0056 1A6E     		ldr	r2, [r3, #96]
 613 0058 22F48042 		bic	r2, r2, #16384
 614 005c 1A66     		str	r2, [r3, #96]
 615 005e 1B6E     		ldr	r3, [r3, #96]
 616              	.L50:
 617 0060 38BD     		pop	{r3, r4, r5, pc}
 618              	.LVL34:
 619              	.L56:
 620 0062 00BF     		.align	2
 621              	.L55:
 622 0064 00000000 		.word	.LANCHOR0
 623 0068 00380240 		.word	1073887232
 624 006c 00000000 		.word	.LANCHOR1
 625              		.cfi_endproc
 626              	.LFE327:
 627              		.size	spi_lld_stop, .-spi_lld_stop
ARM GAS  /tmp/cc5KGIJA.s 			page 12


 628              		.section	.text.spi_lld_ignore,"ax",%progbits
 629              		.align	1
 630              		.global	spi_lld_ignore
 631              		.syntax unified
 632              		.thumb
 633              		.thumb_func
 634              		.fpu fpv4-sp-d16
 635              		.type	spi_lld_ignore, %function
 636              	spi_lld_ignore:
 637              	.LFB328:
 638              		.loc 1 541 0
 639              		.cfi_startproc
 640              		@ args = 0, pretend = 0, frame = 0
 641              		@ frame_needed = 0, uses_anonymous_args = 0
 642              	.LVL35:
 643              		.loc 1 545 0
 644 0000 436A     		ldr	r3, [r0, #36]
 645 0002 1A68     		ldr	r2, [r3]
 646 0004 0A4B     		ldr	r3, .L58
 647              		.loc 1 541 0
 648 0006 10B5     		push	{r4, lr}
 649              		.cfi_def_cfa_offset 8
 650              		.cfi_offset 4, -8
 651              		.cfi_offset 14, -4
 652              		.loc 1 545 0
 653 0008 D360     		str	r3, [r2, #12]
 654              		.loc 1 547 0
 655 000a C36A     		ldr	r3, [r0, #44]
 656              		.loc 1 546 0
 657 000c 5160     		str	r1, [r2, #4]
 658              		.loc 1 547 0
 659 000e 1360     		str	r3, [r2]
 660              		.loc 1 549 0
 661 0010 836A     		ldr	r3, [r0, #40]
 662 0012 084C     		ldr	r4, .L58+4
 663 0014 1B68     		ldr	r3, [r3]
 664 0016 DC60     		str	r4, [r3, #12]
 665              		.loc 1 550 0
 666 0018 5960     		str	r1, [r3, #4]
 667              		.loc 1 551 0
 668 001a 016B     		ldr	r1, [r0, #48]
 669              	.LVL36:
 670 001c 1960     		str	r1, [r3]
 671              	.LVL37:
 672              		.loc 1 553 0
 673 001e 1168     		ldr	r1, [r2]
 674 0020 41F00101 		orr	r1, r1, #1
 675 0024 1160     		str	r1, [r2]
 676              		.loc 1 554 0
 677 0026 1A68     		ldr	r2, [r3]
 678 0028 42F00102 		orr	r2, r2, #1
 679 002c 1A60     		str	r2, [r3]
 680 002e 10BD     		pop	{r4, pc}
 681              	.L59:
 682              		.align	2
 683              	.L58:
 684 0030 00000000 		.word	.LANCHOR2
ARM GAS  /tmp/cc5KGIJA.s 			page 13


 685 0034 00000000 		.word	.LANCHOR3
 686              		.cfi_endproc
 687              	.LFE328:
 688              		.size	spi_lld_ignore, .-spi_lld_ignore
 689              		.section	.text.spi_lld_exchange,"ax",%progbits
 690              		.align	1
 691              		.global	spi_lld_exchange
 692              		.syntax unified
 693              		.thumb
 694              		.thumb_func
 695              		.fpu fpv4-sp-d16
 696              		.type	spi_lld_exchange, %function
 697              	spi_lld_exchange:
 698              	.LFB329:
 699              		.loc 1 573 0
 700              		.cfi_startproc
 701              		@ args = 0, pretend = 0, frame = 0
 702              		@ frame_needed = 0, uses_anonymous_args = 0
 703              	.LVL38:
 704 0000 10B5     		push	{r4, lr}
 705              		.cfi_def_cfa_offset 8
 706              		.cfi_offset 4, -8
 707              		.cfi_offset 14, -4
 708              		.loc 1 577 0
 709 0002 446A     		ldr	r4, [r0, #36]
 710 0004 2468     		ldr	r4, [r4]
 711 0006 E360     		str	r3, [r4, #12]
 712              		.loc 1 579 0
 713 0008 C36A     		ldr	r3, [r0, #44]
 714              	.LVL39:
 715              		.loc 1 578 0
 716 000a 6160     		str	r1, [r4, #4]
 717              	.LVL40:
 718              		.loc 1 579 0
 719 000c 43F48063 		orr	r3, r3, #1024
 720 0010 2360     		str	r3, [r4]
 721              		.loc 1 581 0
 722 0012 836A     		ldr	r3, [r0, #40]
 723 0014 1B68     		ldr	r3, [r3]
 724 0016 DA60     		str	r2, [r3, #12]
 725              		.loc 1 583 0
 726 0018 026B     		ldr	r2, [r0, #48]
 727              	.LVL41:
 728              		.loc 1 582 0
 729 001a 5960     		str	r1, [r3, #4]
 730              	.LVL42:
 731              		.loc 1 583 0
 732 001c 42F48062 		orr	r2, r2, #1024
 733 0020 1A60     		str	r2, [r3]
 734              		.loc 1 585 0
 735 0022 2268     		ldr	r2, [r4]
 736 0024 42F00102 		orr	r2, r2, #1
 737 0028 2260     		str	r2, [r4]
 738              		.loc 1 586 0
 739 002a 1A68     		ldr	r2, [r3]
 740 002c 42F00102 		orr	r2, r2, #1
 741 0030 1A60     		str	r2, [r3]
ARM GAS  /tmp/cc5KGIJA.s 			page 14


 742 0032 10BD     		pop	{r4, pc}
 743              		.cfi_endproc
 744              	.LFE329:
 745              		.size	spi_lld_exchange, .-spi_lld_exchange
 746              		.section	.text.spi_lld_send,"ax",%progbits
 747              		.align	1
 748              		.global	spi_lld_send
 749              		.syntax unified
 750              		.thumb
 751              		.thumb_func
 752              		.fpu fpv4-sp-d16
 753              		.type	spi_lld_send, %function
 754              	spi_lld_send:
 755              	.LFB330:
 756              		.loc 1 602 0
 757              		.cfi_startproc
 758              		@ args = 0, pretend = 0, frame = 0
 759              		@ frame_needed = 0, uses_anonymous_args = 0
 760              	.LVL43:
 761              		.loc 1 606 0
 762 0000 436A     		ldr	r3, [r0, #36]
 763              		.loc 1 602 0
 764 0002 10B5     		push	{r4, lr}
 765              		.cfi_def_cfa_offset 8
 766              		.cfi_offset 4, -8
 767              		.cfi_offset 14, -4
 768              		.loc 1 606 0
 769 0004 1C68     		ldr	r4, [r3]
 770 0006 0B4B     		ldr	r3, .L62
 771 0008 E360     		str	r3, [r4, #12]
 772              		.loc 1 608 0
 773 000a C36A     		ldr	r3, [r0, #44]
 774              		.loc 1 607 0
 775 000c 6160     		str	r1, [r4, #4]
 776              		.loc 1 608 0
 777 000e 2360     		str	r3, [r4]
 778              		.loc 1 610 0
 779 0010 836A     		ldr	r3, [r0, #40]
 780 0012 1B68     		ldr	r3, [r3]
 781 0014 DA60     		str	r2, [r3, #12]
 782              		.loc 1 612 0
 783 0016 026B     		ldr	r2, [r0, #48]
 784              	.LVL44:
 785              		.loc 1 611 0
 786 0018 5960     		str	r1, [r3, #4]
 787              	.LVL45:
 788              		.loc 1 612 0
 789 001a 42F48062 		orr	r2, r2, #1024
 790 001e 1A60     		str	r2, [r3]
 791              		.loc 1 614 0
 792 0020 2268     		ldr	r2, [r4]
 793 0022 42F00102 		orr	r2, r2, #1
 794 0026 2260     		str	r2, [r4]
 795              		.loc 1 615 0
 796 0028 1A68     		ldr	r2, [r3]
 797 002a 42F00102 		orr	r2, r2, #1
 798 002e 1A60     		str	r2, [r3]
ARM GAS  /tmp/cc5KGIJA.s 			page 15


 799 0030 10BD     		pop	{r4, pc}
 800              	.L63:
 801 0032 00BF     		.align	2
 802              	.L62:
 803 0034 00000000 		.word	.LANCHOR2
 804              		.cfi_endproc
 805              	.LFE330:
 806              		.size	spi_lld_send, .-spi_lld_send
 807              		.section	.text.spi_lld_receive,"ax",%progbits
 808              		.align	1
 809              		.global	spi_lld_receive
 810              		.syntax unified
 811              		.thumb
 812              		.thumb_func
 813              		.fpu fpv4-sp-d16
 814              		.type	spi_lld_receive, %function
 815              	spi_lld_receive:
 816              	.LFB331:
 817              		.loc 1 631 0
 818              		.cfi_startproc
 819              		@ args = 0, pretend = 0, frame = 0
 820              		@ frame_needed = 0, uses_anonymous_args = 0
 821              	.LVL46:
 822              		.loc 1 635 0
 823 0000 436A     		ldr	r3, [r0, #36]
 824              		.loc 1 631 0
 825 0002 10B5     		push	{r4, lr}
 826              		.cfi_def_cfa_offset 8
 827              		.cfi_offset 4, -8
 828              		.cfi_offset 14, -4
 829              		.loc 1 635 0
 830 0004 1C68     		ldr	r4, [r3]
 831              		.loc 1 637 0
 832 0006 C36A     		ldr	r3, [r0, #44]
 833              		.loc 1 635 0
 834 0008 E260     		str	r2, [r4, #12]
 835              		.loc 1 637 0
 836 000a 43F48063 		orr	r3, r3, #1024
 837              		.loc 1 636 0
 838 000e 6160     		str	r1, [r4, #4]
 839              		.loc 1 637 0
 840 0010 2360     		str	r3, [r4]
 841              		.loc 1 639 0
 842 0012 836A     		ldr	r3, [r0, #40]
 843 0014 074A     		ldr	r2, .L65
 844              	.LVL47:
 845 0016 1B68     		ldr	r3, [r3]
 846 0018 DA60     		str	r2, [r3, #12]
 847              		.loc 1 641 0
 848 001a 026B     		ldr	r2, [r0, #48]
 849              		.loc 1 640 0
 850 001c 5960     		str	r1, [r3, #4]
 851              		.loc 1 641 0
 852 001e 1A60     		str	r2, [r3]
 853              		.loc 1 643 0
 854 0020 2268     		ldr	r2, [r4]
 855 0022 42F00102 		orr	r2, r2, #1
ARM GAS  /tmp/cc5KGIJA.s 			page 16


 856 0026 2260     		str	r2, [r4]
 857              		.loc 1 644 0
 858 0028 1A68     		ldr	r2, [r3]
 859 002a 42F00102 		orr	r2, r2, #1
 860 002e 1A60     		str	r2, [r3]
 861 0030 10BD     		pop	{r4, pc}
 862              	.L66:
 863 0032 00BF     		.align	2
 864              	.L65:
 865 0034 00000000 		.word	.LANCHOR3
 866              		.cfi_endproc
 867              	.LFE331:
 868              		.size	spi_lld_receive, .-spi_lld_receive
 869              		.section	.text.spi_lld_abort,"ax",%progbits
 870              		.align	1
 871              		.global	spi_lld_abort
 872              		.syntax unified
 873              		.thumb
 874              		.thumb_func
 875              		.fpu fpv4-sp-d16
 876              		.type	spi_lld_abort, %function
 877              	spi_lld_abort:
 878              	.LFB332:
 879              		.loc 1 655 0
 880              		.cfi_startproc
 881              		@ args = 0, pretend = 0, frame = 0
 882              		@ frame_needed = 0, uses_anonymous_args = 0
 883              		@ link register save eliminated.
 884              	.LVL48:
 885              		.loc 1 658 0
 886 0000 836A     		ldr	r3, [r0, #40]
 887 0002 1A68     		ldr	r2, [r3]
 888 0004 1168     		ldr	r1, [r2]
 889 0006 21F01F01 		bic	r1, r1, #31
 890 000a 1160     		str	r1, [r2]
 891              	.L68:
 892              		.loc 1 658 0 is_stmt 0 discriminator 2
 893 000c 1168     		ldr	r1, [r2]
 894 000e C907     		lsls	r1, r1, #31
 895 0010 FCD4     		bmi	.L68
 896              		.loc 1 658 0 discriminator 3
 897 0012 597A     		ldrb	r1, [r3, #9]	@ zero_extendqisi2
 898 0014 5A68     		ldr	r2, [r3, #4]
 899 0016 3D23     		movs	r3, #61
 900 0018 8B40     		lsls	r3, r3, r1
 901 001a 1360     		str	r3, [r2]
 902              		.loc 1 659 0 is_stmt 1 discriminator 3
 903 001c 436A     		ldr	r3, [r0, #36]
 904 001e 1A68     		ldr	r2, [r3]
 905 0020 1168     		ldr	r1, [r2]
 906 0022 21F01F01 		bic	r1, r1, #31
 907 0026 1160     		str	r1, [r2]
 908              	.L69:
 909              		.loc 1 659 0 is_stmt 0 discriminator 2
 910 0028 1168     		ldr	r1, [r2]
 911 002a C907     		lsls	r1, r1, #31
 912 002c FCD4     		bmi	.L69
ARM GAS  /tmp/cc5KGIJA.s 			page 17


 913              		.loc 1 659 0 discriminator 3
 914 002e 597A     		ldrb	r1, [r3, #9]	@ zero_extendqisi2
 915 0030 5A68     		ldr	r2, [r3, #4]
 916 0032 3D23     		movs	r3, #61
 917 0034 8B40     		lsls	r3, r3, r1
 918 0036 1360     		str	r3, [r2]
 919 0038 7047     		bx	lr
 920              		.cfi_endproc
 921              	.LFE332:
 922              		.size	spi_lld_abort, .-spi_lld_abort
 923              		.section	.text.spi_lld_polled_exchange,"ax",%progbits
 924              		.align	1
 925              		.global	spi_lld_polled_exchange
 926              		.syntax unified
 927              		.thumb
 928              		.thumb_func
 929              		.fpu fpv4-sp-d16
 930              		.type	spi_lld_polled_exchange, %function
 931              	spi_lld_polled_exchange:
 932              	.LFB333:
 933              		.loc 1 675 0 is_stmt 1
 934              		.cfi_startproc
 935              		@ args = 0, pretend = 0, frame = 0
 936              		@ frame_needed = 0, uses_anonymous_args = 0
 937              		@ link register save eliminated.
 938              	.LVL49:
 939              		.loc 1 677 0
 940 0000 036A     		ldr	r3, [r0, #32]
 941 0002 D960     		str	r1, [r3, #12]
 942              	.L73:
 943              		.loc 1 678 0 discriminator 1
 944 0004 9A68     		ldr	r2, [r3, #8]
 945 0006 D207     		lsls	r2, r2, #31
 946 0008 FCD5     		bpl	.L73
 947              		.loc 1 680 0
 948 000a D868     		ldr	r0, [r3, #12]
 949              	.LVL50:
 950              		.loc 1 681 0
 951 000c 80B2     		uxth	r0, r0
 952 000e 7047     		bx	lr
 953              		.cfi_endproc
 954              	.LFE333:
 955              		.size	spi_lld_polled_exchange, .-spi_lld_polled_exchange
 956              		.global	SPID2
 957              		.global	SPID1
 958              		.section	.bss.SPID1,"aw",%nobits
 959              		.align	2
 960              		.set	.LANCHOR0,. + 0
 961              		.type	SPID1, %object
 962              		.size	SPID1, 52
 963              	SPID1:
 964 0000 00000000 		.space	52
 964      00000000 
 964      00000000 
 964      00000000 
 964      00000000 
 965              		.section	.bss.SPID2,"aw",%nobits
ARM GAS  /tmp/cc5KGIJA.s 			page 18


 966              		.align	2
 967              		.set	.LANCHOR1,. + 0
 968              		.type	SPID2, %object
 969              		.size	SPID2, 52
 970              	SPID2:
 971 0000 00000000 		.space	52
 971      00000000 
 971      00000000 
 971      00000000 
 971      00000000 
 972              		.section	.bss.dummyrx,"aw",%nobits
 973              		.align	1
 974              		.set	.LANCHOR2,. + 0
 975              		.type	dummyrx, %object
 976              		.size	dummyrx, 2
 977              	dummyrx:
 978 0000 0000     		.space	2
 979              		.section	.rodata.dummytx,"a",%progbits
 980              		.align	1
 981              		.set	.LANCHOR3,. + 0
 982              		.type	dummytx, %object
 983              		.size	dummytx, 2
 984              	dummytx:
 985 0000 FFFF     		.short	-1
 986              		.section	.rodata.spi_lld_serve_tx_interrupt.str1.1,"aMS",%progbits,1
 987              	.LC0:
 988 0000 444D4120 		.ascii	"DMA failure\000"
 988      6661696C 
 988      75726500 
 989              		.text
 990              	.Letext0:
 991              		.file 4 "/opt/gcc-arm-none-eabi-6-2017-q2-update/lib/gcc/arm-none-eabi/6.3.1/include/stddef.h"
 992              		.file 5 "/opt/gcc-arm-none-eabi-6-2017-q2-update/arm-none-eabi/include/machine/_default_types.h"
 993              		.file 6 "/opt/gcc-arm-none-eabi-6-2017-q2-update/arm-none-eabi/include/sys/_stdint.h"
 994              		.file 7 "/opt/gcc-arm-none-eabi-6-2017-q2-update/arm-none-eabi/include/stdint.h"
 995              		.file 8 "../../modules/ChibiOS/os/common/ports/ARMCMx/compilers/GCC/chtypes.h"
 996              		.file 9 "../../modules/ChibiOS/os/rt/include/chsystypes.h"
 997              		.file 10 "../../modules/ChibiOS/os/rt/include/chschd.h"
 998              		.file 11 "../../modules/ChibiOS/os/rt/include/chtime.h"
 999              		.file 12 "../../modules/ChibiOS/os/common/ext/ARM/CMSIS/Core/Include/core_cm4.h"
 1000              		.file 13 "../../modules/ChibiOS/os/common/ext/ST/STM32F4xx/system_stm32f4xx.h"
 1001              		.file 14 "../../modules/ChibiOS/os/common/ext/ST/STM32F4xx/stm32f407xx.h"
 1002              		.file 15 "../../modules/ChibiOS/os/common/ports/ARMCMx/chcore.h"
 1003              		.file 16 "../../modules/ChibiOS/os/common/ports/ARMCMx/chcore_v7m.h"
 1004              		.file 17 "../../modules/ChibiOS/os/hal/ports/STM32/LLD/TIMv1/stm32_tim.h"
 1005              		.file 18 "../../modules/ChibiOS/os/rt/include/chtm.h"
 1006              		.file 19 "../../modules/ChibiOS/os/rt/include/chsem.h"
 1007              		.file 20 "../../modules/ChibiOS/os/rt/include/chmtx.h"
 1008              		.file 21 "../../modules/ChibiOS/os/rt/include/chsys.h"
 1009              		.file 22 "../../modules/ChibiOS/os/rt/include/chregistry.h"
 1010              		.file 23 "../../modules/ChibiOS/os/rt/include/chevents.h"
 1011              		.file 24 "../../modules/ChibiOS/os/oslib/include/chmemcore.h"
 1012              		.file 25 "../../modules/ChibiOS/os/oslib/include/chmempools.h"
 1013              		.file 26 "../../modules/ChibiOS/os/oslib/include/chfactory.h"
 1014              		.file 27 "../../modules/ChibiOS/os/hal/ports/STM32/LLD/DMAv2/stm32_dma.h"
 1015              		.file 28 "../../modules/ChibiOS/os/hal/include/hal_queues.h"
 1016              		.file 29 "../../modules/ChibiOS/os/hal/include/hal_pal.h"
ARM GAS  /tmp/cc5KGIJA.s 			page 19


 1017              		.file 30 "../../modules/ChibiOS/os/hal/ports/STM32/LLD/GPIOv2/stm32_gpio.h"
 1018              		.file 31 "../../modules/ChibiOS/os/hal/ports/STM32/LLD/GPIOv2/hal_pal_lld.h"
 1019              		.file 32 "../../modules/ChibiOS/os/hal/include/hal_adc.h"
 1020              		.file 33 "../../modules/ChibiOS/os/hal/ports/STM32/LLD/ADCv2/hal_adc_lld.h"
 1021              		.file 34 "../../modules/ChibiOS/os/hal/include/hal_i2c.h"
 1022              		.file 35 "../../modules/ChibiOS/os/hal/ports/STM32/LLD/I2Cv1/hal_i2c_lld.h"
 1023              		.file 36 "../../modules/ChibiOS/os/hal/include/hal_icu.h"
 1024              		.file 37 "../../modules/ChibiOS/os/hal/ports/STM32/LLD/TIMv1/hal_icu_lld.h"
 1025              		.file 38 "../../modules/ChibiOS/os/hal/include/hal_pwm.h"
 1026              		.file 39 "../../modules/ChibiOS/os/hal/ports/STM32/LLD/TIMv1/hal_pwm_lld.h"
 1027              		.file 40 "../../modules/ChibiOS/os/hal/include/hal_serial.h"
 1028              		.file 41 "../../modules/ChibiOS/os/hal/ports/STM32/LLD/USARTv1/hal_serial_lld.h"
 1029              		.file 42 "../../modules/ChibiOS/os/hal/include/hal_spi.h"
 1030              		.file 43 "../../modules/ChibiOS/os/hal/ports/STM32/LLD/SPIv1/hal_spi_lld.h"
 1031              		.file 44 "../../modules/ChibiOS/os/hal/include/hal_usb.h"
 1032              		.file 45 "../../modules/ChibiOS/os/hal/ports/STM32/LLD/OTGv1/hal_usb_lld.h"
 1033              		.file 46 "../../modules/ChibiOS/os/hal/ports/STM32/LLD/OTGv1/stm32_otg.h"
 1034              		.file 47 "../../modules/ChibiOS/os/rt/include/ch.h"
 1035              		.file 48 "../../modules/ChibiOS/os/rt/include/chthreads.h"