ARM GAS  /tmp/cciE2C8M.s 			page 1


   1              		.cpu cortex-m4
   2              		.eabi_attribute 27, 1
   3              		.eabi_attribute 28, 1
   4              		.eabi_attribute 20, 1
   5              		.eabi_attribute 21, 1
   6              		.eabi_attribute 23, 3
   7              		.eabi_attribute 24, 1
   8              		.eabi_attribute 25, 1
   9              		.eabi_attribute 26, 1
  10              		.eabi_attribute 30, 4
  11              		.eabi_attribute 34, 1
  12              		.eabi_attribute 18, 4
  13              		.file	"hal_usb.c"
  14              		.text
  15              	.Ltext0:
  16              		.cfi_sections	.debug_frame
  17              		.section	.text.usbInit,"ax",%progbits
  18              		.align	1
  19              		.global	usbInit
  20              		.syntax unified
  21              		.thumb
  22              		.thumb_func
  23              		.fpu fpv4-sp-d16
  24              		.type	usbInit, %function
  25              	usbInit:
  26              	.LFB254:
  27              		.file 1 "../../modules/ChibiOS/os/hal/src/hal_usb.c"
  28              		.loc 1 270 0
  29              		.cfi_startproc
  30              		@ args = 0, pretend = 0, frame = 0
  31              		@ frame_needed = 0, uses_anonymous_args = 0
  32              		@ link register save eliminated.
  33              		.loc 1 272 0
  34 0000 FFF7FEBF 		b	usb_lld_init
  35              	.LVL0:
  36              		.cfi_endproc
  37              	.LFE254:
  38              		.size	usbInit, .-usbInit
  39              		.section	.text.usbObjectInit,"ax",%progbits
  40              		.align	1
  41              		.global	usbObjectInit
  42              		.syntax unified
  43              		.thumb
  44              		.thumb_func
  45              		.fpu fpv4-sp-d16
  46              		.type	usbObjectInit, %function
  47              	usbObjectInit:
  48              	.LFB255:
  49              		.loc 1 282 0
  50              		.cfi_startproc
  51              		@ args = 0, pretend = 0, frame = 0
  52              		@ frame_needed = 0, uses_anonymous_args = 0
  53              		@ link register save eliminated.
  54              	.LVL1:
  55              		.loc 1 285 0
  56 0000 0123     		movs	r3, #1
  57 0002 0370     		strb	r3, [r0]
ARM GAS  /tmp/cciE2C8M.s 			page 2


  58              		.loc 1 286 0
  59 0004 0023     		movs	r3, #0
  60 0006 4360     		str	r3, [r0, #4]
  61              	.LVL2:
  62              		.loc 1 288 0
  63 0008 C361     		str	r3, [r0, #28]
  64              		.loc 1 289 0
  65 000a 8362     		str	r3, [r0, #40]
  66              	.LVL3:
  67              		.loc 1 288 0
  68 000c 0362     		str	r3, [r0, #32]
  69              		.loc 1 289 0
  70 000e C362     		str	r3, [r0, #44]
  71              	.LVL4:
  72              		.loc 1 288 0
  73 0010 4362     		str	r3, [r0, #36]
  74              		.loc 1 289 0
  75 0012 0363     		str	r3, [r0, #48]
  76              	.LVL5:
  77              		.loc 1 291 0
  78 0014 0381     		strh	r3, [r0, #8]	@ movhi
  79              		.loc 1 292 0
  80 0016 4381     		strh	r3, [r0, #10]	@ movhi
  81 0018 7047     		bx	lr
  82              		.cfi_endproc
  83              	.LFE255:
  84              		.size	usbObjectInit, .-usbObjectInit
  85              		.section	.text.usbStart,"ax",%progbits
  86              		.align	1
  87              		.global	usbStart
  88              		.syntax unified
  89              		.thumb
  90              		.thumb_func
  91              		.fpu fpv4-sp-d16
  92              		.type	usbStart, %function
  93              	usbStart:
  94              	.LFB256:
  95              		.loc 1 303 0
  96              		.cfi_startproc
  97              		@ args = 0, pretend = 0, frame = 0
  98              		@ frame_needed = 0, uses_anonymous_args = 0
  99              	.LVL6:
 100 0000 38B5     		push	{r3, r4, r5, lr}
 101              		.cfi_def_cfa_offset 16
 102              		.cfi_offset 3, -16
 103              		.cfi_offset 4, -12
 104              		.cfi_offset 5, -8
 105              		.cfi_offset 14, -4
 106              		.loc 1 303 0
 107 0002 0446     		mov	r4, r0
 108              	.LBB202:
 109              	.LBB203:
 110              	.LBB204:
 111              	.LBB205:
 112              	.LBB206:
 113              		.file 2 "../../modules/ChibiOS/os/common/ext/ARM/CMSIS/Core/Include/cmsis_gcc.h"
 114              		.loc 2 493 0
ARM GAS  /tmp/cciE2C8M.s 			page 3


 115 0004 2023     		movs	r3, #32
 116              		.syntax unified
 117              	@ 493 "../../modules/ChibiOS/os/common/ext/ARM/CMSIS/Core/Include/cmsis_gcc.h" 1
 118 0006 83F31188 		MSR basepri, r3
 119              	@ 0 "" 2
 120              	.LVL7:
 121              		.thumb
 122              		.syntax unified
 123              	.LBE206:
 124              	.LBE205:
 125              	.LBE204:
 126              	.LBE203:
 127              	.LBE202:
 128              		.loc 1 313 0
 129 000a 0025     		movs	r5, #0
 130              		.loc 1 311 0
 131 000c 4160     		str	r1, [r0, #4]
 132              	.LVL8:
 133              		.loc 1 313 0
 134 000e C560     		str	r5, [r0, #12]
 135              	.LVL9:
 136 0010 0561     		str	r5, [r0, #16]
 137              	.LVL10:
 138 0012 4561     		str	r5, [r0, #20]
 139              	.LVL11:
 140 0014 8561     		str	r5, [r0, #24]
 141              	.LVL12:
 142              		.loc 1 315 0
 143 0016 FFF7FEFF 		bl	usb_lld_start
 144              	.LVL13:
 145              		.loc 1 316 0
 146 001a 0223     		movs	r3, #2
 147 001c 2370     		strb	r3, [r4]
 148              	.LVL14:
 149              	.LBB207:
 150              	.LBB208:
 151              	.LBB209:
 152              	.LBB210:
 153              	.LBB211:
 154              	.LBB212:
 155              		.loc 2 493 0
 156              		.syntax unified
 157              	@ 493 "../../modules/ChibiOS/os/common/ext/ARM/CMSIS/Core/Include/cmsis_gcc.h" 1
 158 001e 85F31188 		MSR basepri, r5
 159              	@ 0 "" 2
 160              	.LVL15:
 161              		.thumb
 162              		.syntax unified
 163 0022 38BD     		pop	{r3, r4, r5, pc}
 164              	.LBE212:
 165              	.LBE211:
 166              	.LBE210:
 167              	.LBE209:
 168              	.LBE208:
 169              	.LBE207:
 170              		.cfi_endproc
 171              	.LFE256:
ARM GAS  /tmp/cciE2C8M.s 			page 4


 172              		.size	usbStart, .-usbStart
 173              		.section	.text.usbStop,"ax",%progbits
 174              		.align	1
 175              		.global	usbStop
 176              		.syntax unified
 177              		.thumb
 178              		.thumb_func
 179              		.fpu fpv4-sp-d16
 180              		.type	usbStop, %function
 181              	usbStop:
 182              	.LFB257:
 183              		.loc 1 327 0
 184              		.cfi_startproc
 185              		@ args = 0, pretend = 0, frame = 0
 186              		@ frame_needed = 0, uses_anonymous_args = 0
 187              	.LVL16:
 188 0000 38B5     		push	{r3, r4, r5, lr}
 189              		.cfi_def_cfa_offset 16
 190              		.cfi_offset 3, -16
 191              		.cfi_offset 4, -12
 192              		.cfi_offset 5, -8
 193              		.cfi_offset 14, -4
 194              		.loc 1 327 0
 195 0002 0546     		mov	r5, r0
 196              	.LBB213:
 197              	.LBB214:
 198              	.LBB215:
 199              	.LBB216:
 200              	.LBB217:
 201              		.loc 2 493 0
 202 0004 2023     		movs	r3, #32
 203              		.syntax unified
 204              	@ 493 "../../modules/ChibiOS/os/common/ext/ARM/CMSIS/Core/Include/cmsis_gcc.h" 1
 205 0006 83F31188 		MSR basepri, r3
 206              	@ 0 "" 2
 207              	.LVL17:
 208              		.thumb
 209              		.syntax unified
 210              	.LBE217:
 211              	.LBE216:
 212              	.LBE215:
 213              	.LBE214:
 214              	.LBE213:
 215              		.loc 1 339 0
 216 000a FFF7FEFF 		bl	usb_lld_stop
 217              	.LVL18:
 218              		.loc 1 340 0
 219 000e 0024     		movs	r4, #0
 220              		.loc 1 341 0
 221 0010 0123     		movs	r3, #1
 222              		.loc 1 340 0
 223 0012 6C60     		str	r4, [r5, #4]
 224              		.loc 1 341 0
 225 0014 2B70     		strb	r3, [r5]
 226              	.LVL19:
 227              		.loc 1 355 0
 228 0016 EC60     		str	r4, [r5, #12]
ARM GAS  /tmp/cciE2C8M.s 			page 5


 229              	.LVL20:
 230 0018 2C61     		str	r4, [r5, #16]
 231              	.LVL21:
 232 001a 6C61     		str	r4, [r5, #20]
 233              	.LVL22:
 234 001c AC61     		str	r4, [r5, #24]
 235              	.LVL23:
 236              	.LBB218:
 237              	.LBB219:
 238              		.file 3 "../../modules/ChibiOS/os/hal/osal/rt/osal.h"
 239              		.loc 3 618 0
 240 001e FFF7FEFF 		bl	chSchRescheduleS
 241              	.LVL24:
 242              	.LBE219:
 243              	.LBE218:
 244              	.LBB220:
 245              	.LBB221:
 246              	.LBB222:
 247              	.LBB223:
 248              	.LBB224:
 249              	.LBB225:
 250              		.loc 2 493 0
 251              		.syntax unified
 252              	@ 493 "../../modules/ChibiOS/os/common/ext/ARM/CMSIS/Core/Include/cmsis_gcc.h" 1
 253 0022 84F31188 		MSR basepri, r4
 254              	@ 0 "" 2
 255              	.LVL25:
 256              		.thumb
 257              		.syntax unified
 258 0026 38BD     		pop	{r3, r4, r5, pc}
 259              	.LBE225:
 260              	.LBE224:
 261              	.LBE223:
 262              	.LBE222:
 263              	.LBE221:
 264              	.LBE220:
 265              		.cfi_endproc
 266              	.LFE257:
 267              		.size	usbStop, .-usbStop
 268              		.section	.text.usbInitEndpointI,"ax",%progbits
 269              		.align	1
 270              		.global	usbInitEndpointI
 271              		.syntax unified
 272              		.thumb
 273              		.thumb_func
 274              		.fpu fpv4-sp-d16
 275              		.type	usbInitEndpointI, %function
 276              	usbInitEndpointI:
 277              	.LFB258:
 278              		.loc 1 376 0
 279              		.cfi_startproc
 280              		@ args = 0, pretend = 0, frame = 0
 281              		@ frame_needed = 0, uses_anonymous_args = 0
 282              	.LVL26:
 283 0000 70B5     		push	{r4, r5, r6, lr}
 284              		.cfi_def_cfa_offset 16
 285              		.cfi_offset 4, -16
ARM GAS  /tmp/cciE2C8M.s 			page 6


 286              		.cfi_offset 5, -12
 287              		.cfi_offset 6, -8
 288              		.cfi_offset 14, -4
 289              		.loc 1 385 0
 290 0002 00EB8103 		add	r3, r0, r1, lsl #2
 291              		.loc 1 376 0
 292 0006 0546     		mov	r5, r0
 293              		.loc 1 388 0
 294 0008 5069     		ldr	r0, [r2, #20]
 295              	.LVL27:
 296              		.loc 1 385 0
 297 000a DA60     		str	r2, [r3, #12]
 298              		.loc 1 376 0
 299 000c 0E46     		mov	r6, r1
 300 000e 1446     		mov	r4, r2
 301              		.loc 1 388 0
 302 0010 18B1     		cbz	r0, .L6
 303              		.loc 1 389 0
 304 0012 1022     		movs	r2, #16
 305              	.LVL28:
 306 0014 0021     		movs	r1, #0
 307              	.LVL29:
 308 0016 FFF7FEFF 		bl	memset
 309              	.LVL30:
 310              	.L6:
 311              		.loc 1 391 0
 312 001a A069     		ldr	r0, [r4, #24]
 313 001c 18B1     		cbz	r0, .L7
 314              		.loc 1 392 0
 315 001e 1022     		movs	r2, #16
 316 0020 0021     		movs	r1, #0
 317 0022 FFF7FEFF 		bl	memset
 318              	.LVL31:
 319              	.L7:
 320              		.loc 1 396 0
 321 0026 3146     		mov	r1, r6
 322 0028 2846     		mov	r0, r5
 323              		.loc 1 397 0
 324 002a BDE87040 		pop	{r4, r5, r6, lr}
 325              		.cfi_restore 14
 326              		.cfi_restore 6
 327              		.cfi_restore 5
 328              		.cfi_restore 4
 329              		.cfi_def_cfa_offset 0
 330              	.LVL32:
 331              		.loc 1 396 0
 332 002e FFF7FEBF 		b	usb_lld_init_endpoint
 333              	.LVL33:
 334              		.cfi_endproc
 335              	.LFE258:
 336              		.size	usbInitEndpointI, .-usbInitEndpointI
 337              		.section	.text.usbDisableEndpointsI,"ax",%progbits
 338              		.align	1
 339              		.global	usbDisableEndpointsI
 340              		.syntax unified
 341              		.thumb
 342              		.thumb_func
ARM GAS  /tmp/cciE2C8M.s 			page 7


 343              		.fpu fpv4-sp-d16
 344              		.type	usbDisableEndpointsI, %function
 345              	usbDisableEndpointsI:
 346              	.LFB259:
 347              		.loc 1 410 0
 348              		.cfi_startproc
 349              		@ args = 0, pretend = 0, frame = 0
 350              		@ frame_needed = 0, uses_anonymous_args = 0
 351              		@ link register save eliminated.
 352              	.LVL34:
 353              		.loc 1 417 0
 354 0000 0289     		ldrh	r2, [r0, #8]
 355 0002 02F00102 		and	r2, r2, #1
 356 0006 0281     		strh	r2, [r0, #8]	@ movhi
 357              		.loc 1 418 0
 358 0008 4289     		ldrh	r2, [r0, #10]
 359 000a 02F00102 		and	r2, r2, #1
 360 000e 4281     		strh	r2, [r0, #10]	@ movhi
 361              	.LVL35:
 362              		.loc 1 432 0
 363 0010 0022     		movs	r2, #0
 364 0012 0261     		str	r2, [r0, #16]
 365              	.LVL36:
 366 0014 4261     		str	r2, [r0, #20]
 367              	.LVL37:
 368 0016 8261     		str	r2, [r0, #24]
 369              	.LVL38:
 370              		.loc 1 436 0
 371 0018 FFF7FEBF 		b	usb_lld_disable_endpoints
 372              	.LVL39:
 373              		.cfi_endproc
 374              	.LFE259:
 375              		.size	usbDisableEndpointsI, .-usbDisableEndpointsI
 376              		.section	.text.usbStartReceiveI,"ax",%progbits
 377              		.align	1
 378              		.global	usbStartReceiveI
 379              		.syntax unified
 380              		.thumb
 381              		.thumb_func
 382              		.fpu fpv4-sp-d16
 383              		.type	usbStartReceiveI, %function
 384              	usbStartReceiveI:
 385              	.LFB260:
 386              		.loc 1 454 0
 387              		.cfi_startproc
 388              		@ args = 0, pretend = 0, frame = 0
 389              		@ frame_needed = 0, uses_anonymous_args = 0
 390              		@ link register save eliminated.
 391              	.LVL40:
 392 0000 F0B4     		push	{r4, r5, r6, r7}
 393              		.cfi_def_cfa_offset 16
 394              		.cfi_offset 4, -16
 395              		.cfi_offset 5, -12
 396              		.cfi_offset 6, -8
 397              		.cfi_offset 7, -4
 398              		.loc 1 466 0
 399 0002 00EB8104 		add	r4, r0, r1, lsl #2
ARM GAS  /tmp/cciE2C8M.s 			page 8


 400              		.loc 1 462 0
 401 0006 4789     		ldrh	r7, [r0, #10]
 402              		.loc 1 466 0
 403 0008 E468     		ldr	r4, [r4, #12]
 404              		.loc 1 462 0
 405 000a 0125     		movs	r5, #1
 406              		.loc 1 466 0
 407 000c A469     		ldr	r4, [r4, #24]
 408              	.LVL41:
 409              		.loc 1 462 0
 410 000e 8D40     		lsls	r5, r5, r1
 411 0010 3D43     		orrs	r5, r5, r7
 412 0012 4581     		strh	r5, [r0, #10]	@ movhi
 413              		.loc 1 469 0
 414 0014 2360     		str	r3, [r4]
 415              		.loc 1 470 0
 416 0016 0023     		movs	r3, #0
 417              	.LVL42:
 418              		.loc 1 468 0
 419 0018 A260     		str	r2, [r4, #8]
 420              		.loc 1 470 0
 421 001a 6360     		str	r3, [r4, #4]
 422              		.loc 1 477 0
 423 001c F0BC     		pop	{r4, r5, r6, r7}
 424              		.cfi_restore 7
 425              		.cfi_restore 6
 426              		.cfi_restore 5
 427              		.cfi_restore 4
 428              		.cfi_def_cfa_offset 0
 429              	.LVL43:
 430              		.loc 1 476 0
 431 001e FFF7FEBF 		b	usb_lld_start_out
 432              	.LVL44:
 433              		.cfi_endproc
 434              	.LFE260:
 435              		.size	usbStartReceiveI, .-usbStartReceiveI
 436              		.section	.text.usbStartTransmitI,"ax",%progbits
 437              		.align	1
 438              		.global	usbStartTransmitI
 439              		.syntax unified
 440              		.thumb
 441              		.thumb_func
 442              		.fpu fpv4-sp-d16
 443              		.type	usbStartTransmitI, %function
 444              	usbStartTransmitI:
 445              	.LFB261:
 446              		.loc 1 493 0
 447              		.cfi_startproc
 448              		@ args = 0, pretend = 0, frame = 0
 449              		@ frame_needed = 0, uses_anonymous_args = 0
 450              		@ link register save eliminated.
 451              	.LVL45:
 452 0000 F0B4     		push	{r4, r5, r6, r7}
 453              		.cfi_def_cfa_offset 16
 454              		.cfi_offset 4, -16
 455              		.cfi_offset 5, -12
 456              		.cfi_offset 6, -8
ARM GAS  /tmp/cciE2C8M.s 			page 9


 457              		.cfi_offset 7, -4
 458              		.loc 1 505 0
 459 0002 00EB8104 		add	r4, r0, r1, lsl #2
 460              		.loc 1 501 0
 461 0006 0789     		ldrh	r7, [r0, #8]
 462              		.loc 1 505 0
 463 0008 E468     		ldr	r4, [r4, #12]
 464              		.loc 1 501 0
 465 000a 0125     		movs	r5, #1
 466              		.loc 1 505 0
 467 000c 6469     		ldr	r4, [r4, #20]
 468              	.LVL46:
 469              		.loc 1 501 0
 470 000e 8D40     		lsls	r5, r5, r1
 471 0010 3D43     		orrs	r5, r5, r7
 472 0012 0581     		strh	r5, [r0, #8]	@ movhi
 473              		.loc 1 508 0
 474 0014 2360     		str	r3, [r4]
 475              		.loc 1 509 0
 476 0016 0023     		movs	r3, #0
 477              	.LVL47:
 478              		.loc 1 507 0
 479 0018 A260     		str	r2, [r4, #8]
 480              		.loc 1 509 0
 481 001a 6360     		str	r3, [r4, #4]
 482              		.loc 1 516 0
 483 001c F0BC     		pop	{r4, r5, r6, r7}
 484              		.cfi_restore 7
 485              		.cfi_restore 6
 486              		.cfi_restore 5
 487              		.cfi_restore 4
 488              		.cfi_def_cfa_offset 0
 489              	.LVL48:
 490              		.loc 1 515 0
 491 001e FFF7FEBF 		b	usb_lld_start_in
 492              	.LVL49:
 493              		.cfi_endproc
 494              	.LFE261:
 495              		.size	usbStartTransmitI, .-usbStartTransmitI
 496              		.section	.text.usbStallReceiveI,"ax",%progbits
 497              		.align	1
 498              		.global	usbStallReceiveI
 499              		.syntax unified
 500              		.thumb
 501              		.thumb_func
 502              		.fpu fpv4-sp-d16
 503              		.type	usbStallReceiveI, %function
 504              	usbStallReceiveI:
 505              	.LFB262:
 506              		.loc 1 599 0
 507              		.cfi_startproc
 508              		@ args = 0, pretend = 0, frame = 0
 509              		@ frame_needed = 0, uses_anonymous_args = 0
 510              	.LVL50:
 511 0000 10B5     		push	{r4, lr}
 512              		.cfi_def_cfa_offset 8
 513              		.cfi_offset 4, -8
ARM GAS  /tmp/cciE2C8M.s 			page 10


 514              		.cfi_offset 14, -4
 515              		.loc 1 604 0
 516 0002 0123     		movs	r3, #1
 517 0004 4489     		ldrh	r4, [r0, #10]
 518 0006 03FA01F2 		lsl	r2, r3, r1
 519 000a 1440     		ands	r4, r2, r4
 520 000c 03D1     		bne	.L19
 521              		.loc 1 608 0
 522 000e FFF7FEFF 		bl	usb_lld_stall_out
 523              	.LVL51:
 524              		.loc 1 609 0
 525 0012 2046     		mov	r0, r4
 526 0014 10BD     		pop	{r4, pc}
 527              	.LVL52:
 528              	.L19:
 529              		.loc 1 605 0
 530 0016 1846     		mov	r0, r3
 531              	.LVL53:
 532              		.loc 1 610 0
 533 0018 10BD     		pop	{r4, pc}
 534              		.cfi_endproc
 535              	.LFE262:
 536              		.size	usbStallReceiveI, .-usbStallReceiveI
 537              		.section	.text.usbStallTransmitI,"ax",%progbits
 538              		.align	1
 539              		.global	usbStallTransmitI
 540              		.syntax unified
 541              		.thumb
 542              		.thumb_func
 543              		.fpu fpv4-sp-d16
 544              		.type	usbStallTransmitI, %function
 545              	usbStallTransmitI:
 546              	.LFB263:
 547              		.loc 1 624 0
 548              		.cfi_startproc
 549              		@ args = 0, pretend = 0, frame = 0
 550              		@ frame_needed = 0, uses_anonymous_args = 0
 551              	.LVL54:
 552 0000 10B5     		push	{r4, lr}
 553              		.cfi_def_cfa_offset 8
 554              		.cfi_offset 4, -8
 555              		.cfi_offset 14, -4
 556              		.loc 1 629 0
 557 0002 0123     		movs	r3, #1
 558 0004 0489     		ldrh	r4, [r0, #8]
 559 0006 03FA01F2 		lsl	r2, r3, r1
 560 000a 1440     		ands	r4, r2, r4
 561 000c 03D1     		bne	.L22
 562              		.loc 1 633 0
 563 000e FFF7FEFF 		bl	usb_lld_stall_in
 564              	.LVL55:
 565              		.loc 1 634 0
 566 0012 2046     		mov	r0, r4
 567 0014 10BD     		pop	{r4, pc}
 568              	.LVL56:
 569              	.L22:
 570              		.loc 1 630 0
ARM GAS  /tmp/cciE2C8M.s 			page 11


 571 0016 1846     		mov	r0, r3
 572              	.LVL57:
 573              		.loc 1 635 0
 574 0018 10BD     		pop	{r4, pc}
 575              		.cfi_endproc
 576              	.LFE263:
 577              		.size	usbStallTransmitI, .-usbStallTransmitI
 578              		.section	.text.usbWakeupHost,"ax",%progbits
 579              		.align	1
 580              		.global	usbWakeupHost
 581              		.syntax unified
 582              		.thumb
 583              		.thumb_func
 584              		.fpu fpv4-sp-d16
 585              		.type	usbWakeupHost, %function
 586              	usbWakeupHost:
 587              	.LFB264:
 588              		.loc 1 646 0
 589              		.cfi_startproc
 590              		@ args = 0, pretend = 0, frame = 0
 591              		@ frame_needed = 0, uses_anonymous_args = 0
 592              	.LVL58:
 593              		.loc 1 648 0
 594 0000 0378     		ldrb	r3, [r0]	@ zero_extendqisi2
 595 0002 052B     		cmp	r3, #5
 596              		.loc 1 646 0
 597 0004 10B5     		push	{r4, lr}
 598              		.cfi_def_cfa_offset 8
 599              		.cfi_offset 4, -8
 600              		.cfi_offset 14, -4
 601              		.loc 1 646 0
 602 0006 0446     		mov	r4, r0
 603              		.loc 1 648 0
 604 0008 11D1     		bne	.L23
 605              		.loc 1 650 0
 606 000a 426D     		ldr	r2, [r0, #84]
 607 000c D2F80438 		ldr	r3, [r2, #2052]
 608 0010 43F00103 		orr	r3, r3, #1
 609 0014 C2F80438 		str	r3, [r2, #2052]
 610              	.LVL59:
 611              	.LBB226:
 612              	.LBB227:
 613              		.loc 3 720 0
 614 0018 4FF4FA60 		mov	r0, #2000
 615              	.LVL60:
 616 001c FFF7FEFF 		bl	chThdSleep
 617              	.LVL61:
 618              	.LBE227:
 619              	.LBE226:
 620              		.loc 1 650 0
 621 0020 626D     		ldr	r2, [r4, #84]
 622 0022 D2F80438 		ldr	r3, [r2, #2052]
 623 0026 23F00103 		bic	r3, r3, #1
 624 002a C2F80438 		str	r3, [r2, #2052]
 625              	.L23:
 626 002e 10BD     		pop	{r4, pc}
 627              		.cfi_endproc
ARM GAS  /tmp/cciE2C8M.s 			page 12


 628              	.LFE264:
 629              		.size	usbWakeupHost, .-usbWakeupHost
 630              		.section	.text._usb_reset,"ax",%progbits
 631              		.align	1
 632              		.global	_usb_reset
 633              		.syntax unified
 634              		.thumb
 635              		.thumb_func
 636              		.fpu fpv4-sp-d16
 637              		.type	_usb_reset, %function
 638              	_usb_reset:
 639              	.LFB265:
 640              		.loc 1 663 0
 641              		.cfi_startproc
 642              		@ args = 0, pretend = 0, frame = 0
 643              		@ frame_needed = 0, uses_anonymous_args = 0
 644              	.LVL62:
 645 0000 70B5     		push	{r4, r5, r6, lr}
 646              		.cfi_def_cfa_offset 16
 647              		.cfi_offset 4, -16
 648              		.cfi_offset 5, -12
 649              		.cfi_offset 6, -8
 650              		.cfi_offset 14, -4
 651              		.loc 1 667 0
 652 0002 0223     		movs	r3, #2
 653              		.loc 1 670 0
 654 0004 0025     		movs	r5, #0
 655              		.loc 1 663 0
 656 0006 0446     		mov	r4, r0
 657              		.loc 1 667 0
 658 0008 0370     		strb	r3, [r0]
 659              		.loc 1 670 0
 660 000a A0F84C50 		strh	r5, [r0, #76]	@ movhi
 661              		.loc 1 671 0
 662 000e 80F84E50 		strb	r5, [r0, #78]
 663              		.loc 1 672 0
 664 0012 80F84F50 		strb	r5, [r0, #79]
 665              		.loc 1 673 0
 666 0016 0581     		strh	r5, [r0, #8]	@ movhi
 667              		.loc 1 674 0
 668 0018 4581     		strh	r5, [r0, #10]	@ movhi
 669              	.LVL63:
 670              		.loc 1 691 0
 671 001a C560     		str	r5, [r0, #12]
 672              	.LVL64:
 673 001c 0561     		str	r5, [r0, #16]
 674              	.LVL65:
 675 001e 4561     		str	r5, [r0, #20]
 676              	.LVL66:
 677 0020 8561     		str	r5, [r0, #24]
 678              	.LVL67:
 679              		.loc 1 695 0
 680 0022 80F83450 		strb	r5, [r0, #52]
 681              		.loc 1 698 0
 682 0026 FFF7FEFF 		bl	usb_lld_reset
 683              	.LVL68:
 684              		.loc 1 701 0
ARM GAS  /tmp/cciE2C8M.s 			page 13


 685 002a 6368     		ldr	r3, [r4, #4]
 686 002c 1B68     		ldr	r3, [r3]
 687 002e 23B1     		cbz	r3, .L25
 688              		.loc 1 701 0 is_stmt 0 discriminator 1
 689 0030 2946     		mov	r1, r5
 690 0032 2046     		mov	r0, r4
 691              		.loc 1 702 0 is_stmt 1 discriminator 1
 692 0034 BDE87040 		pop	{r4, r5, r6, lr}
 693              		.cfi_remember_state
 694              		.cfi_restore 14
 695              		.cfi_restore 6
 696              		.cfi_restore 5
 697              		.cfi_restore 4
 698              		.cfi_def_cfa_offset 0
 699              	.LVL69:
 700              		.loc 1 701 0 discriminator 1
 701 0038 1847     		bx	r3	@ indirect register sibling call
 702              	.LVL70:
 703              	.L25:
 704              		.cfi_restore_state
 705 003a 70BD     		pop	{r4, r5, r6, pc}
 706              		.cfi_endproc
 707              	.LFE265:
 708              		.size	_usb_reset, .-_usb_reset
 709              		.section	.text._usb_suspend,"ax",%progbits
 710              		.align	1
 711              		.global	_usb_suspend
 712              		.syntax unified
 713              		.thumb
 714              		.thumb_func
 715              		.fpu fpv4-sp-d16
 716              		.type	_usb_suspend, %function
 717              	_usb_suspend:
 718              	.LFB266:
 719              		.loc 1 713 0
 720              		.cfi_startproc
 721              		@ args = 0, pretend = 0, frame = 0
 722              		@ frame_needed = 0, uses_anonymous_args = 0
 723              		@ link register save eliminated.
 724              	.LVL71:
 725              		.loc 1 721 0
 726 0000 4368     		ldr	r3, [r0, #4]
 727              		.loc 1 717 0
 728 0002 0278     		ldrb	r2, [r0]	@ zero_extendqisi2
 729              		.loc 1 721 0
 730 0004 1B68     		ldr	r3, [r3]
 731              		.loc 1 717 0
 732 0006 80F85020 		strb	r2, [r0, #80]
 733              		.loc 1 718 0
 734 000a 0522     		movs	r2, #5
 735 000c 0270     		strb	r2, [r0]
 736              		.loc 1 721 0
 737 000e 0BB1     		cbz	r3, .L27
 738              		.loc 1 721 0 is_stmt 0 discriminator 1
 739 0010 0421     		movs	r1, #4
 740 0012 1847     		bx	r3	@ indirect register sibling call
 741              	.LVL72:
ARM GAS  /tmp/cciE2C8M.s 			page 14


 742              	.L27:
 743 0014 7047     		bx	lr
 744              		.cfi_endproc
 745              	.LFE266:
 746              		.size	_usb_suspend, .-_usb_suspend
 747              		.section	.text._usb_wakeup,"ax",%progbits
 748              		.align	1
 749              		.global	_usb_wakeup
 750              		.syntax unified
 751              		.thumb
 752              		.thumb_func
 753              		.fpu fpv4-sp-d16
 754              		.type	_usb_wakeup, %function
 755              	_usb_wakeup:
 756              	.LFB267:
 757              		.loc 1 753 0 is_stmt 1
 758              		.cfi_startproc
 759              		@ args = 0, pretend = 0, frame = 0
 760              		@ frame_needed = 0, uses_anonymous_args = 0
 761              		@ link register save eliminated.
 762              	.LVL73:
 763              		.loc 1 759 0
 764 0000 4368     		ldr	r3, [r0, #4]
 765              		.loc 1 756 0
 766 0002 90F85020 		ldrb	r2, [r0, #80]	@ zero_extendqisi2
 767              		.loc 1 759 0
 768 0006 1B68     		ldr	r3, [r3]
 769              		.loc 1 756 0
 770 0008 0270     		strb	r2, [r0]
 771              		.loc 1 759 0
 772 000a 0BB1     		cbz	r3, .L29
 773              		.loc 1 759 0 is_stmt 0 discriminator 1
 774 000c 0521     		movs	r1, #5
 775 000e 1847     		bx	r3	@ indirect register sibling call
 776              	.LVL74:
 777              	.L29:
 778 0010 7047     		bx	lr
 779              		.cfi_endproc
 780              	.LFE267:
 781              		.size	_usb_wakeup, .-_usb_wakeup
 782              		.section	.text._usb_ep0setup,"ax",%progbits
 783              		.align	1
 784              		.global	_usb_ep0setup
 785              		.syntax unified
 786              		.thumb
 787              		.thumb_func
 788              		.fpu fpv4-sp-d16
 789              		.type	_usb_ep0setup, %function
 790              	_usb_ep0setup:
 791              	.LFB268:
 792              		.loc 1 772 0 is_stmt 1
 793              		.cfi_startproc
 794              		@ args = 0, pretend = 0, frame = 0
 795              		@ frame_needed = 0, uses_anonymous_args = 0
 796              	.LVL75:
 797              		.loc 1 777 0
 798 0000 90F83430 		ldrb	r3, [r0, #52]	@ zero_extendqisi2
ARM GAS  /tmp/cciE2C8M.s 			page 15


 799              		.loc 1 772 0
 800 0004 70B5     		push	{r4, r5, r6, lr}
 801              		.cfi_def_cfa_offset 16
 802              		.cfi_offset 4, -16
 803              		.cfi_offset 5, -12
 804              		.cfi_offset 6, -8
 805              		.cfi_offset 14, -4
 806              		.loc 1 772 0
 807 0006 0446     		mov	r4, r0
 808              		.loc 1 777 0
 809 0008 13B1     		cbz	r3, .L32
 810              		.loc 1 782 0
 811 000a 0023     		movs	r3, #0
 812 000c 80F83430 		strb	r3, [r0, #52]
 813              	.L32:
 814              		.loc 1 786 0
 815 0010 04F14402 		add	r2, r4, #68
 816 0014 2046     		mov	r0, r4
 817              	.LVL76:
 818 0016 FFF7FEFF 		bl	usb_lld_read_setup
 819              	.LVL77:
 820              		.loc 1 791 0
 821 001a 6368     		ldr	r3, [r4, #4]
 822 001c 9B68     		ldr	r3, [r3, #8]
 823 001e 63BB     		cbnz	r3, .L33
 824              	.L37:
 825              		.loc 1 797 0
 826 0020 94F84450 		ldrb	r5, [r4, #68]	@ zero_extendqisi2
 827 0024 15F06006 		ands	r6, r5, #96
 828 0028 15D1     		bne	.L38
 829              	.LVL78:
 830              	.LBB296:
 831              	.LBB297:
 832              		.loc 1 90 0
 833 002a 94F84530 		ldrb	r3, [r4, #69]	@ zero_extendqisi2
 834              		.loc 1 88 0
 835 002e 05F07F05 		and	r5, r5, #127
 836              		.loc 1 89 0
 837 0032 45EA0325 		orr	r5, r5, r3, lsl #8
 838              		.loc 1 88 0
 839 0036 40F20233 		movw	r3, #770
 840 003a 9D42     		cmp	r5, r3
 841 003c 00F00E81 		beq	.L39
 842 0040 5BD8     		bhi	.L40
 843 0042 022D     		cmp	r5, #2
 844 0044 00F0DC80 		beq	.L41
 845 0048 3FD8     		bhi	.L42
 846 004a 002D     		cmp	r5, #0
 847 004c 00F08780 		beq	.L43
 848 0050 012D     		cmp	r5, #1
 849 0052 00F0CF80 		beq	.L44
 850              	.LVL79:
 851              	.L38:
 852              	.LBE297:
 853              	.LBE296:
 854              		.loc 1 803 0
 855 0056 0021     		movs	r1, #0
ARM GAS  /tmp/cciE2C8M.s 			page 16


 856 0058 2046     		mov	r0, r4
 857 005a FFF7FEFF 		bl	usb_lld_stall_in
 858              	.LVL80:
 859              		.loc 1 804 0
 860 005e 0021     		movs	r1, #0
 861 0060 2046     		mov	r0, r4
 862 0062 FFF7FEFF 		bl	usb_lld_stall_out
 863              	.LVL81:
 864              		.loc 1 805 0
 865 0066 6368     		ldr	r3, [r4, #4]
 866 0068 1B68     		ldr	r3, [r3]
 867 006a 13B1     		cbz	r3, .L67
 868              		.loc 1 805 0 is_stmt 0 discriminator 1
 869 006c 0621     		movs	r1, #6
 870 006e 2046     		mov	r0, r4
 871 0070 9847     		blx	r3
 872              	.LVL82:
 873              	.L67:
 874              		.loc 1 806 0 is_stmt 1
 875 0072 0623     		movs	r3, #6
 876 0074 84F83430 		strb	r3, [r4, #52]
 877              		.loc 1 807 0
 878 0078 70BD     		pop	{r4, r5, r6, pc}
 879              	.LVL83:
 880              	.L33:
 881              		.loc 1 792 0 discriminator 1
 882 007a 2046     		mov	r0, r4
 883 007c 9847     		blx	r3
 884              	.LVL84:
 885              		.loc 1 791 0 discriminator 1
 886 007e 0028     		cmp	r0, #0
 887 0080 CED0     		beq	.L37
 888              	.L36:
 889              	.LBB317:
 890              	.LBB318:
 891              		.loc 1 55 0
 892 0082 94F84B20 		ldrb	r2, [r4, #75]	@ zero_extendqisi2
 893 0086 94F84A30 		ldrb	r3, [r4, #74]	@ zero_extendqisi2
 894              	.LBE318:
 895              	.LBE317:
 896              		.loc 1 819 0
 897 008a 43EA0223 		orr	r3, r3, r2, lsl #8
 898              	.LVL85:
 899              		.loc 1 821 0
 900 008e E26B     		ldr	r2, [r4, #60]
 901 0090 9342     		cmp	r3, r2
 902              		.loc 1 822 0
 903 0092 38BF     		it	cc
 904 0094 E363     		strcc	r3, [r4, #60]
 905              		.loc 1 824 0
 906 0096 94F94430 		ldrsb	r3, [r4, #68]
 907              	.LVL86:
 908 009a E56B     		ldr	r5, [r4, #60]
 909 009c 002B     		cmp	r3, #0
 910 009e 4FF02003 		mov	r3, #32
 911 00a2 80F2FD80 		bge	.L70
 912              		.loc 1 826 0
ARM GAS  /tmp/cciE2C8M.s 			page 17


 913 00a6 002D     		cmp	r5, #0
 914 00a8 00F0EC80 		beq	.L71
 915              		.loc 1 828 0
 916 00ac 0922     		movs	r2, #9
 917 00ae 84F83420 		strb	r2, [r4, #52]
 918              	.LVL87:
 919              	.LBB319:
 920              	.LBB320:
 921              	.LBB321:
 922              	.LBB322:
 923              	.LBB323:
 924              	.LBB324:
 925              		.loc 2 493 0
 926              		.syntax unified
 927              	@ 493 "../../modules/ChibiOS/os/common/ext/ARM/CMSIS/Core/Include/cmsis_gcc.h" 1
 928 00b2 83F31188 		MSR basepri, r3
 929              	@ 0 "" 2
 930              	.LVL88:
 931              		.thumb
 932              		.syntax unified
 933              	.LBE324:
 934              	.LBE323:
 935              	.LBE322:
 936              	.LBE321:
 937              	.LBE320:
 938              	.LBE319:
 939              		.loc 1 830 0
 940 00b6 0021     		movs	r1, #0
 941 00b8 E36B     		ldr	r3, [r4, #60]
 942 00ba A26B     		ldr	r2, [r4, #56]
 943 00bc 2046     		mov	r0, r4
 944 00be FFF7FEFF 		bl	usbStartTransmitI
 945              	.LVL89:
 946              	.L108:
 947              	.LBB325:
 948              	.LBB326:
 949              	.LBB327:
 950              	.LBB328:
 951              	.LBB329:
 952              	.LBB330:
 953              		.loc 2 493 0
 954 00c2 0023     		movs	r3, #0
 955              		.syntax unified
 956              	@ 493 "../../modules/ChibiOS/os/common/ext/ARM/CMSIS/Core/Include/cmsis_gcc.h" 1
 957 00c4 83F31188 		MSR basepri, r3
 958              	@ 0 "" 2
 959              	.LVL90:
 960              		.thumb
 961              		.syntax unified
 962 00c8 70BD     		pop	{r4, r5, r6, pc}
 963              	.LVL91:
 964              	.L42:
 965              	.LBE330:
 966              	.LBE329:
 967              	.LBE328:
 968              	.LBE327:
 969              	.LBE326:
ARM GAS  /tmp/cciE2C8M.s 			page 18


 970              	.LBE325:
 971              	.LBB331:
 972              	.LBB316:
 973              		.loc 1 88 0
 974 00ca B5F5817F 		cmp	r5, #258
 975 00ce 00F0B180 		beq	.L45
 976 00d2 B5F5407F 		cmp	r5, #768
 977 00d6 49D0     		beq	.L46
 978 00d8 B5F5807F 		cmp	r5, #256
 979 00dc BBD1     		bne	.L38
 980              		.loc 1 98 0
 981 00de 94F84630 		ldrb	r3, [r4, #70]	@ zero_extendqisi2
 982 00e2 012B     		cmp	r3, #1
 983 00e4 B7D1     		bne	.L38
 984              		.loc 1 99 0
 985 00e6 B4F84C30 		ldrh	r3, [r4, #76]
 986 00ea 23F00203 		bic	r3, r3, #2
 987              	.L110:
 988              		.loc 1 108 0
 989 00ee A4F84C30 		strh	r3, [r4, #76]	@ movhi
 990              		.loc 1 109 0
 991 00f2 A663     		str	r6, [r4, #56]
 992 00f4 E663     		str	r6, [r4, #60]
 993              	.L105:
 994              		.loc 1 185 0
 995 00f6 2664     		str	r6, [r4, #64]
 996 00f8 C3E7     		b	.L36
 997              	.L40:
 998              		.loc 1 88 0
 999 00fa 40F20163 		movw	r3, #1537
 1000 00fe 9D42     		cmp	r5, r3
 1001 0100 1ED8     		bhi	.L48
 1002 0102 B5F5C06F 		cmp	r5, #1536
 1003 0106 3BD2     		bcs	.L49
 1004 0108 B5F5A06F 		cmp	r5, #1280
 1005 010c A3D1     		bne	.L38
 1006              		.loc 1 118 0
 1007 010e B4F84430 		ldrh	r3, [r4, #68]
 1008 0112 B3F5A06F 		cmp	r3, #1280
 1009 0116 0ED1     		bne	.L54
 1010              	.LVL92:
 1011              	.LBB298:
 1012              	.LBB299:
 1013              		.loc 1 66 0
 1014 0118 94F84630 		ldrb	r3, [r4, #70]	@ zero_extendqisi2
 1015 011c 84F84E30 		strb	r3, [r4, #78]
 1016              		.loc 1 67 0
 1017 0120 2046     		mov	r0, r4
 1018 0122 FFF7FEFF 		bl	usb_lld_set_address
 1019              	.LVL93:
 1020              		.loc 1 68 0
 1021 0126 6368     		ldr	r3, [r4, #4]
 1022 0128 1B68     		ldr	r3, [r3]
 1023 012a 13B1     		cbz	r3, .L55
 1024 012c 0121     		movs	r1, #1
 1025 012e 2046     		mov	r0, r4
 1026 0130 9847     		blx	r3
ARM GAS  /tmp/cciE2C8M.s 			page 19


 1027              	.LVL94:
 1028              	.L55:
 1029              		.loc 1 69 0
 1030 0132 0323     		movs	r3, #3
 1031 0134 2370     		strb	r3, [r4]
 1032              	.LVL95:
 1033              	.L54:
 1034              	.LBE299:
 1035              	.LBE298:
 1036              		.loc 1 122 0
 1037 0136 0023     		movs	r3, #0
 1038 0138 A363     		str	r3, [r4, #56]
 1039 013a E363     		str	r3, [r4, #60]
 1040              	.L106:
 1041              		.loc 1 176 0
 1042 013c 2364     		str	r3, [r4, #64]
 1043 013e A0E7     		b	.L36
 1044              	.L48:
 1045              		.loc 1 88 0
 1046 0140 B5F5106F 		cmp	r5, #2304
 1047 0144 32D0     		beq	.L51
 1048 0146 40F60243 		movw	r3, #3074
 1049 014a 9D42     		cmp	r5, r3
 1050 014c 52D0     		beq	.L44
 1051 014e B5F5006F 		cmp	r5, #2048
 1052 0152 80D1     		bne	.L38
 1053              		.loc 1 142 0
 1054 0154 04F14F03 		add	r3, r4, #79
 1055 0158 A363     		str	r3, [r4, #56]
 1056 015a 0123     		movs	r3, #1
 1057 015c 24E0     		b	.L109
 1058              	.L43:
 1059              		.loc 1 93 0
 1060 015e 04F14C03 		add	r3, r4, #76
 1061 0162 A363     		str	r3, [r4, #56]
 1062 0164 0223     		movs	r3, #2
 1063 0166 E363     		str	r3, [r4, #60]
 1064 0168 2564     		str	r5, [r4, #64]
 1065 016a 8AE7     		b	.L36
 1066              	.L46:
 1067              		.loc 1 107 0
 1068 016c 94F84630 		ldrb	r3, [r4, #70]	@ zero_extendqisi2
 1069 0170 012B     		cmp	r3, #1
 1070 0172 7FF470AF 		bne	.L38
 1071              		.loc 1 108 0
 1072 0176 B4F84C30 		ldrh	r3, [r4, #76]
 1073 017a 43F00203 		orr	r3, r3, #2
 1074 017e B6E7     		b	.L110
 1075              	.L49:
 1076              	.LBB300:
 1077              	.LBB301:
 1078              		.loc 1 55 0
 1079 0180 94F84920 		ldrb	r2, [r4, #73]	@ zero_extendqisi2
 1080              	.LBE301:
 1081              	.LBE300:
 1082              		.loc 1 130 0
 1083 0184 6168     		ldr	r1, [r4, #4]
ARM GAS  /tmp/cciE2C8M.s 			page 20


 1084              	.LBB303:
 1085              	.LBB302:
 1086              		.loc 1 55 0
 1087 0186 94F84830 		ldrb	r3, [r4, #72]	@ zero_extendqisi2
 1088              	.LBE302:
 1089              	.LBE303:
 1090              		.loc 1 130 0
 1091 018a 4D68     		ldr	r5, [r1, #4]
 1092 018c 94F84710 		ldrb	r1, [r4, #71]	@ zero_extendqisi2
 1093 0190 43EA0223 		orr	r3, r3, r2, lsl #8
 1094 0194 2046     		mov	r0, r4
 1095 0196 94F84620 		ldrb	r2, [r4, #70]	@ zero_extendqisi2
 1096 019a A847     		blx	r5
 1097              	.LVL96:
 1098              		.loc 1 133 0
 1099 019c 0028     		cmp	r0, #0
 1100 019e 3FF45AAF 		beq	.L38
 1101              		.loc 1 137 0
 1102 01a2 4368     		ldr	r3, [r0, #4]
 1103 01a4 A363     		str	r3, [r4, #56]
 1104 01a6 0368     		ldr	r3, [r0]
 1105              	.LVL97:
 1106              	.L109:
 1107              		.loc 1 142 0
 1108 01a8 E363     		str	r3, [r4, #60]
 1109 01aa A4E7     		b	.L105
 1110              	.L51:
 1111              		.loc 1 153 0
 1112 01ac 2378     		ldrb	r3, [r4]	@ zero_extendqisi2
 1113 01ae 042B     		cmp	r3, #4
 1114 01b0 10D1     		bne	.L57
 1115              	.LVL98:
 1116              	.LBB304:
 1117              	.LBB305:
 1118              	.LBB306:
 1119              	.LBB307:
 1120              	.LBB308:
 1121              	.LBB309:
 1122              		.loc 2 493 0
 1123 01b2 2023     		movs	r3, #32
 1124              		.syntax unified
 1125              	@ 493 "../../modules/ChibiOS/os/common/ext/ARM/CMSIS/Core/Include/cmsis_gcc.h" 1
 1126 01b4 83F31188 		MSR basepri, r3
 1127              	@ 0 "" 2
 1128              	.LVL99:
 1129              		.thumb
 1130              		.syntax unified
 1131              	.LBE309:
 1132              	.LBE308:
 1133              	.LBE307:
 1134              	.LBE306:
 1135              	.LBE305:
 1136              	.LBE304:
 1137              		.loc 1 156 0
 1138 01b8 2046     		mov	r0, r4
 1139 01ba FFF7FEFF 		bl	usbDisableEndpointsI
 1140              	.LVL100:
ARM GAS  /tmp/cciE2C8M.s 			page 21


 1141              	.LBB310:
 1142              	.LBB311:
 1143              	.LBB312:
 1144              	.LBB313:
 1145              	.LBB314:
 1146              	.LBB315:
 1147              		.loc 2 493 0
 1148              		.syntax unified
 1149              	@ 493 "../../modules/ChibiOS/os/common/ext/ARM/CMSIS/Core/Include/cmsis_gcc.h" 1
 1150 01be 86F31188 		MSR basepri, r6
 1151              	@ 0 "" 2
 1152              	.LVL101:
 1153              		.thumb
 1154              		.syntax unified
 1155              	.LBE315:
 1156              	.LBE314:
 1157              	.LBE313:
 1158              	.LBE312:
 1159              	.LBE311:
 1160              	.LBE310:
 1161              		.loc 1 160 0
 1162 01c2 6368     		ldr	r3, [r4, #4]
 1163              		.loc 1 158 0
 1164 01c4 84F84F60 		strb	r6, [r4, #79]
 1165              		.loc 1 160 0
 1166 01c8 1B68     		ldr	r3, [r3]
 1167              		.loc 1 159 0
 1168 01ca 0321     		movs	r1, #3
 1169 01cc 2170     		strb	r1, [r4]
 1170              		.loc 1 160 0
 1171 01ce 0BB1     		cbz	r3, .L57
 1172 01d0 2046     		mov	r0, r4
 1173 01d2 9847     		blx	r3
 1174              	.LVL102:
 1175              	.L57:
 1176              		.loc 1 162 0
 1177 01d4 94F84630 		ldrb	r3, [r4, #70]	@ zero_extendqisi2
 1178 01d8 002B     		cmp	r3, #0
 1179 01da ACD0     		beq	.L54
 1180              		.loc 1 164 0
 1181 01dc 84F84F30 		strb	r3, [r4, #79]
 1182              		.loc 1 165 0
 1183 01e0 0423     		movs	r3, #4
 1184 01e2 2370     		strb	r3, [r4]
 1185              		.loc 1 166 0
 1186 01e4 6368     		ldr	r3, [r4, #4]
 1187 01e6 1B68     		ldr	r3, [r3]
 1188 01e8 002B     		cmp	r3, #0
 1189 01ea A4D0     		beq	.L54
 1190 01ec 0221     		movs	r1, #2
 1191 01ee 2046     		mov	r0, r4
 1192 01f0 9847     		blx	r3
 1193              	.LVL103:
 1194 01f2 A0E7     		b	.L54
 1195              	.L44:
 1196              		.loc 1 176 0
 1197 01f4 374B     		ldr	r3, .L113
ARM GAS  /tmp/cciE2C8M.s 			page 22


 1198 01f6 A363     		str	r3, [r4, #56]
 1199 01f8 0223     		movs	r3, #2
 1200 01fa E363     		str	r3, [r4, #60]
 1201 01fc 0023     		movs	r3, #0
 1202 01fe 9DE7     		b	.L106
 1203              	.L41:
 1204              		.loc 1 181 0
 1205 0200 94F84810 		ldrb	r1, [r4, #72]	@ zero_extendqisi2
 1206 0204 11F0800F 		tst	r1, #128
 1207              		.loc 1 182 0
 1208 0208 2046     		mov	r0, r4
 1209 020a 01F00F01 		and	r1, r1, #15
 1210              		.loc 1 181 0
 1211 020e 0ED0     		beq	.L60
 1212              	.LVL104:
 1213              		.loc 1 182 0
 1214 0210 FFF7FEFF 		bl	usb_lld_get_status_in
 1215              	.LVL105:
 1216              	.L112:
 1217              		.loc 1 199 0
 1218 0214 0128     		cmp	r0, #1
 1219 0216 06D0     		beq	.L61
 1220 0218 0228     		cmp	r0, #2
 1221 021a 7FF41CAF 		bne	.L38
 1222              		.loc 1 207 0
 1223 021e 2E4B     		ldr	r3, .L113+4
 1224 0220 A363     		str	r3, [r4, #56]
 1225 0222 E063     		str	r0, [r4, #60]
 1226 0224 67E7     		b	.L105
 1227              	.L61:
 1228              		.loc 1 185 0
 1229 0226 2D4B     		ldr	r3, .L113+8
 1230 0228 A363     		str	r3, [r4, #56]
 1231 022a E563     		str	r5, [r4, #60]
 1232 022c 63E7     		b	.L105
 1233              	.LVL106:
 1234              	.L60:
 1235              		.loc 1 199 0
 1236 022e FFF7FEFF 		bl	usb_lld_get_status_out
 1237              	.LVL107:
 1238 0232 EFE7     		b	.L112
 1239              	.L45:
 1240              		.loc 1 217 0
 1241 0234 94F84630 		ldrb	r3, [r4, #70]	@ zero_extendqisi2
 1242 0238 002B     		cmp	r3, #0
 1243 023a 7FF40CAF 		bne	.L38
 1244              		.loc 1 221 0
 1245 023e 94F84830 		ldrb	r3, [r4, #72]	@ zero_extendqisi2
 1246 0242 13F00F01 		ands	r1, r3, #15
 1247 0246 3FF476AF 		beq	.L54
 1248              		.loc 1 222 0
 1249 024a 1A06     		lsls	r2, r3, #24
 1250              		.loc 1 223 0
 1251 024c 2046     		mov	r0, r4
 1252              		.loc 1 222 0
 1253 024e 02D5     		bpl	.L65
 1254              	.LVL108:
ARM GAS  /tmp/cciE2C8M.s 			page 23


 1255              		.loc 1 223 0
 1256 0250 FFF7FEFF 		bl	usb_lld_clear_in
 1257              	.LVL109:
 1258 0254 6FE7     		b	.L54
 1259              	.LVL110:
 1260              	.L65:
 1261              		.loc 1 226 0
 1262 0256 FFF7FEFF 		bl	usb_lld_clear_out
 1263              	.LVL111:
 1264 025a 6CE7     		b	.L54
 1265              	.L39:
 1266              		.loc 1 233 0
 1267 025c 94F84630 		ldrb	r3, [r4, #70]	@ zero_extendqisi2
 1268 0260 002B     		cmp	r3, #0
 1269 0262 7FF4F8AE 		bne	.L38
 1270              		.loc 1 237 0
 1271 0266 94F84830 		ldrb	r3, [r4, #72]	@ zero_extendqisi2
 1272 026a 13F00F01 		ands	r1, r3, #15
 1273 026e 3FF462AF 		beq	.L54
 1274              		.loc 1 238 0
 1275 0272 1B06     		lsls	r3, r3, #24
 1276              		.loc 1 239 0
 1277 0274 2046     		mov	r0, r4
 1278              		.loc 1 238 0
 1279 0276 02D5     		bpl	.L66
 1280              	.LVL112:
 1281              		.loc 1 239 0
 1282 0278 FFF7FEFF 		bl	usb_lld_stall_in
 1283              	.LVL113:
 1284 027c 5BE7     		b	.L54
 1285              	.LVL114:
 1286              	.L66:
 1287              		.loc 1 242 0
 1288 027e FFF7FEFF 		bl	usb_lld_stall_out
 1289              	.LVL115:
 1290 0282 58E7     		b	.L54
 1291              	.LVL116:
 1292              	.L71:
 1293              	.LBE316:
 1294              	.LBE331:
 1295              		.loc 1 836 0
 1296 0284 1422     		movs	r2, #20
 1297 0286 84F83420 		strb	r2, [r4, #52]
 1298              	.LVL117:
 1299              	.LBB332:
 1300              	.LBB333:
 1301              	.LBB334:
 1302              	.LBB335:
 1303              	.LBB336:
 1304              	.LBB337:
 1305              		.loc 2 493 0
 1306              		.syntax unified
 1307              	@ 493 "../../modules/ChibiOS/os/common/ext/ARM/CMSIS/Core/Include/cmsis_gcc.h" 1
 1308 028a 83F31188 		MSR basepri, r3
 1309              	@ 0 "" 2
 1310              	.LVL118:
 1311              		.thumb
ARM GAS  /tmp/cciE2C8M.s 			page 24


 1312              		.syntax unified
 1313              	.LBE337:
 1314              	.LBE336:
 1315              	.LBE335:
 1316              	.LBE334:
 1317              	.LBE333:
 1318              	.LBE332:
 1319              		.loc 1 839 0
 1320 028e 2B46     		mov	r3, r5
 1321 0290 2A46     		mov	r2, r5
 1322 0292 2946     		mov	r1, r5
 1323 0294 2046     		mov	r0, r4
 1324 0296 FFF7FEFF 		bl	usbStartReceiveI
 1325              	.LVL119:
 1326              	.L107:
 1327              	.LBB338:
 1328              	.LBB339:
 1329              	.LBB340:
 1330              	.LBB341:
 1331              	.LBB342:
 1332              	.LBB343:
 1333              		.loc 2 493 0
 1334              		.syntax unified
 1335              	@ 493 "../../modules/ChibiOS/os/common/ext/ARM/CMSIS/Core/Include/cmsis_gcc.h" 1
 1336 029a 85F31188 		MSR basepri, r5
 1337              	@ 0 "" 2
 1338              	.LVL120:
 1339              		.thumb
 1340              		.syntax unified
 1341 029e 70BD     		pop	{r4, r5, r6, pc}
 1342              	.LVL121:
 1343              	.L70:
 1344              	.LBE343:
 1345              	.LBE342:
 1346              	.LBE341:
 1347              	.LBE340:
 1348              	.LBE339:
 1349              	.LBE338:
 1350              		.loc 1 848 0
 1351 02a0 5DB1     		cbz	r5, .L72
 1352              		.loc 1 850 0
 1353 02a2 1522     		movs	r2, #21
 1354 02a4 84F83420 		strb	r2, [r4, #52]
 1355              	.LVL122:
 1356              	.LBB344:
 1357              	.LBB345:
 1358              	.LBB346:
 1359              	.LBB347:
 1360              	.LBB348:
 1361              	.LBB349:
 1362              		.loc 2 493 0
 1363              		.syntax unified
 1364              	@ 493 "../../modules/ChibiOS/os/common/ext/ARM/CMSIS/Core/Include/cmsis_gcc.h" 1
 1365 02a8 83F31188 		MSR basepri, r3
 1366              	@ 0 "" 2
 1367              	.LVL123:
 1368              		.thumb
ARM GAS  /tmp/cciE2C8M.s 			page 25


 1369              		.syntax unified
 1370              	.LBE349:
 1371              	.LBE348:
 1372              	.LBE347:
 1373              	.LBE346:
 1374              	.LBE345:
 1375              	.LBE344:
 1376              		.loc 1 852 0
 1377 02ac 0021     		movs	r1, #0
 1378 02ae E36B     		ldr	r3, [r4, #60]
 1379 02b0 A26B     		ldr	r2, [r4, #56]
 1380 02b2 2046     		mov	r0, r4
 1381 02b4 FFF7FEFF 		bl	usbStartReceiveI
 1382              	.LVL124:
 1383 02b8 03E7     		b	.L108
 1384              	.LVL125:
 1385              	.L72:
 1386              		.loc 1 858 0
 1387 02ba 0B22     		movs	r2, #11
 1388 02bc 84F83420 		strb	r2, [r4, #52]
 1389              	.LVL126:
 1390              	.LBB350:
 1391              	.LBB351:
 1392              	.LBB352:
 1393              	.LBB353:
 1394              	.LBB354:
 1395              	.LBB355:
 1396              		.loc 2 493 0
 1397              		.syntax unified
 1398              	@ 493 "../../modules/ChibiOS/os/common/ext/ARM/CMSIS/Core/Include/cmsis_gcc.h" 1
 1399 02c0 83F31188 		MSR basepri, r3
 1400              	@ 0 "" 2
 1401              	.LVL127:
 1402              		.thumb
 1403              		.syntax unified
 1404              	.LBE355:
 1405              	.LBE354:
 1406              	.LBE353:
 1407              	.LBE352:
 1408              	.LBE351:
 1409              	.LBE350:
 1410              		.loc 1 861 0
 1411 02c4 2B46     		mov	r3, r5
 1412 02c6 2A46     		mov	r2, r5
 1413 02c8 2946     		mov	r1, r5
 1414 02ca 2046     		mov	r0, r4
 1415 02cc FFF7FEFF 		bl	usbStartTransmitI
 1416              	.LVL128:
 1417 02d0 E3E7     		b	.L107
 1418              	.L114:
 1419 02d2 00BF     		.align	2
 1420              	.L113:
 1421 02d4 00000000 		.word	.LANCHOR0
 1422 02d8 00000000 		.word	.LANCHOR2
 1423 02dc 00000000 		.word	.LANCHOR1
 1424              		.cfi_endproc
 1425              	.LFE268:
ARM GAS  /tmp/cciE2C8M.s 			page 26


 1426              		.size	_usb_ep0setup, .-_usb_ep0setup
 1427              		.section	.text._usb_ep0in,"ax",%progbits
 1428              		.align	1
 1429              		.global	_usb_ep0in
 1430              		.syntax unified
 1431              		.thumb
 1432              		.thumb_func
 1433              		.fpu fpv4-sp-d16
 1434              		.type	_usb_ep0in, %function
 1435              	_usb_ep0in:
 1436              	.LFB269:
 1437              		.loc 1 880 0
 1438              		.cfi_startproc
 1439              		@ args = 0, pretend = 0, frame = 0
 1440              		@ frame_needed = 0, uses_anonymous_args = 0
 1441              	.LVL129:
 1442 0000 38B5     		push	{r3, r4, r5, lr}
 1443              		.cfi_def_cfa_offset 16
 1444              		.cfi_offset 3, -16
 1445              		.cfi_offset 4, -12
 1446              		.cfi_offset 5, -8
 1447              		.cfi_offset 14, -4
 1448              		.loc 1 884 0
 1449 0002 90F83430 		ldrb	r3, [r0, #52]	@ zero_extendqisi2
 1450              		.loc 1 880 0
 1451 0006 0446     		mov	r4, r0
 1452              		.loc 1 884 0
 1453 0008 152B     		cmp	r3, #21
 1454 000a 29D8     		bhi	.L115
 1455 000c DFE803F0 		tbb	[pc, r3]
 1456              	.L118:
 1457 0010 3E       		.byte	(.L117-.L118)/2
 1458 0011 28       		.byte	(.L115-.L118)/2
 1459 0012 28       		.byte	(.L115-.L118)/2
 1460 0013 28       		.byte	(.L115-.L118)/2
 1461 0014 28       		.byte	(.L115-.L118)/2
 1462 0015 28       		.byte	(.L115-.L118)/2
 1463 0016 3E       		.byte	(.L117-.L118)/2
 1464 0017 28       		.byte	(.L115-.L118)/2
 1465 0018 28       		.byte	(.L115-.L118)/2
 1466 0019 0B       		.byte	(.L119-.L118)/2
 1467 001a 29       		.byte	(.L120-.L118)/2
 1468 001b 39       		.byte	(.L121-.L118)/2
 1469 001c 28       		.byte	(.L115-.L118)/2
 1470 001d 28       		.byte	(.L115-.L118)/2
 1471 001e 28       		.byte	(.L115-.L118)/2
 1472 001f 28       		.byte	(.L115-.L118)/2
 1473 0020 28       		.byte	(.L115-.L118)/2
 1474 0021 28       		.byte	(.L115-.L118)/2
 1475 0022 28       		.byte	(.L115-.L118)/2
 1476 0023 28       		.byte	(.L115-.L118)/2
 1477 0024 3E       		.byte	(.L117-.L118)/2
 1478 0025 3E       		.byte	(.L117-.L118)/2
 1479              		.p2align 1
 1480              	.L119:
 1481              	.LVL130:
 1482              	.LBB356:
ARM GAS  /tmp/cciE2C8M.s 			page 27


 1483              	.LBB357:
 1484              		.loc 1 55 0
 1485 0026 90F84B10 		ldrb	r1, [r0, #75]	@ zero_extendqisi2
 1486              	.LVL131:
 1487 002a 90F84A20 		ldrb	r2, [r0, #74]	@ zero_extendqisi2
 1488              	.LBE357:
 1489              	.LBE356:
 1490              		.loc 1 890 0
 1491 002e C36B     		ldr	r3, [r0, #60]
 1492              		.loc 1 886 0
 1493 0030 42EA0122 		orr	r2, r2, r1, lsl #8
 1494              		.loc 1 890 0
 1495 0034 9A42     		cmp	r2, r3
 1496 0036 14D9     		bls	.L120
 1497              		.loc 1 891 0 discriminator 1
 1498 0038 C268     		ldr	r2, [r0, #12]
 1499 003a 128A     		ldrh	r2, [r2, #16]
 1500 003c B3FBF2F5 		udiv	r5, r3, r2
 1501 0040 02FB1535 		mls	r5, r2, r5, r3
 1502              		.loc 1 890 0 discriminator 1
 1503 0044 6DB9     		cbnz	r5, .L120
 1504              	.LVL132:
 1505              	.LBB358:
 1506              	.LBB359:
 1507              	.LBB360:
 1508              	.LBB361:
 1509              	.LBB362:
 1510              	.LBB363:
 1511              		.loc 2 493 0
 1512 0046 2023     		movs	r3, #32
 1513              		.syntax unified
 1514              	@ 493 "../../modules/ChibiOS/os/common/ext/ARM/CMSIS/Core/Include/cmsis_gcc.h" 1
 1515 0048 83F31188 		MSR basepri, r3
 1516              	@ 0 "" 2
 1517              	.LVL133:
 1518              		.thumb
 1519              		.syntax unified
 1520              	.LBE363:
 1521              	.LBE362:
 1522              	.LBE361:
 1523              	.LBE360:
 1524              	.LBE359:
 1525              	.LBE358:
 1526              		.loc 1 893 0
 1527 004c 2B46     		mov	r3, r5
 1528 004e 2A46     		mov	r2, r5
 1529 0050 2946     		mov	r1, r5
 1530              	.LVL134:
 1531 0052 FFF7FEFF 		bl	usbStartTransmitI
 1532              	.LVL135:
 1533              	.LBB364:
 1534              	.LBB365:
 1535              	.LBB366:
 1536              	.LBB367:
 1537              	.LBB368:
 1538              	.LBB369:
 1539              		.loc 2 493 0
ARM GAS  /tmp/cciE2C8M.s 			page 28


 1540              		.syntax unified
 1541              	@ 493 "../../modules/ChibiOS/os/common/ext/ARM/CMSIS/Core/Include/cmsis_gcc.h" 1
 1542 0056 85F31188 		MSR basepri, r5
 1543              	@ 0 "" 2
 1544              	.LVL136:
 1545              		.thumb
 1546              		.syntax unified
 1547              	.LBE369:
 1548              	.LBE368:
 1549              	.LBE367:
 1550              	.LBE366:
 1551              	.LBE365:
 1552              	.LBE364:
 1553              		.loc 1 895 0
 1554 005a 0A23     		movs	r3, #10
 1555              	.L130:
 1556              		.loc 1 930 0
 1557 005c 84F83430 		strb	r3, [r4, #52]
 1558              	.L115:
 1559 0060 38BD     		pop	{r3, r4, r5, pc}
 1560              	.LVL137:
 1561              	.L120:
 1562              		.loc 1 901 0
 1563 0062 1423     		movs	r3, #20
 1564 0064 84F83430 		strb	r3, [r4, #52]
 1565              	.LVL138:
 1566              	.LBB370:
 1567              	.LBB371:
 1568              	.LBB372:
 1569              	.LBB373:
 1570              	.LBB374:
 1571              	.LBB375:
 1572              		.loc 2 493 0
 1573 0068 2023     		movs	r3, #32
 1574              		.syntax unified
 1575              	@ 493 "../../modules/ChibiOS/os/common/ext/ARM/CMSIS/Core/Include/cmsis_gcc.h" 1
 1576 006a 83F31188 		MSR basepri, r3
 1577              	@ 0 "" 2
 1578              	.LVL139:
 1579              		.thumb
 1580              		.syntax unified
 1581              	.LBE375:
 1582              	.LBE374:
 1583              	.LBE373:
 1584              	.LBE372:
 1585              	.LBE371:
 1586              	.LBE370:
 1587              		.loc 1 904 0
 1588 006e 0023     		movs	r3, #0
 1589 0070 1A46     		mov	r2, r3
 1590 0072 1946     		mov	r1, r3
 1591 0074 2046     		mov	r0, r4
 1592              	.LVL140:
 1593 0076 FFF7FEFF 		bl	usbStartReceiveI
 1594              	.LVL141:
 1595              	.LBB376:
 1596              	.LBB377:
ARM GAS  /tmp/cciE2C8M.s 			page 29


 1597              	.LBB378:
 1598              	.LBB379:
 1599              	.LBB380:
 1600              	.LBB381:
 1601              		.loc 2 493 0
 1602 007a 0023     		movs	r3, #0
 1603              		.syntax unified
 1604              	@ 493 "../../modules/ChibiOS/os/common/ext/ARM/CMSIS/Core/Include/cmsis_gcc.h" 1
 1605 007c 83F31188 		MSR basepri, r3
 1606              	@ 0 "" 2
 1607              	.LVL142:
 1608              		.thumb
 1609              		.syntax unified
 1610 0080 38BD     		pop	{r3, r4, r5, pc}
 1611              	.LVL143:
 1612              	.L121:
 1613              	.LBE381:
 1614              	.LBE380:
 1615              	.LBE379:
 1616              	.LBE378:
 1617              	.LBE377:
 1618              	.LBE376:
 1619              		.loc 1 912 0
 1620 0082 036C     		ldr	r3, [r0, #64]
 1621 0084 03B1     		cbz	r3, .L122
 1622              		.loc 1 913 0
 1623 0086 9847     		blx	r3
 1624              	.LVL144:
 1625              	.L122:
 1626              		.loc 1 915 0
 1627 0088 0023     		movs	r3, #0
 1628 008a E7E7     		b	.L130
 1629              	.LVL145:
 1630              	.L117:
 1631              		.loc 1 927 0
 1632 008c 0021     		movs	r1, #0
 1633              	.LVL146:
 1634 008e FFF7FEFF 		bl	usb_lld_stall_in
 1635              	.LVL147:
 1636              		.loc 1 928 0
 1637 0092 0021     		movs	r1, #0
 1638 0094 2046     		mov	r0, r4
 1639 0096 FFF7FEFF 		bl	usb_lld_stall_out
 1640              	.LVL148:
 1641              		.loc 1 929 0
 1642 009a 6368     		ldr	r3, [r4, #4]
 1643 009c 1B68     		ldr	r3, [r3]
 1644 009e 13B1     		cbz	r3, .L123
 1645              		.loc 1 929 0 is_stmt 0 discriminator 1
 1646 00a0 0621     		movs	r1, #6
 1647 00a2 2046     		mov	r0, r4
 1648 00a4 9847     		blx	r3
 1649              	.LVL149:
 1650              	.L123:
 1651              		.loc 1 930 0 is_stmt 1
 1652 00a6 0623     		movs	r3, #6
 1653 00a8 D8E7     		b	.L130
ARM GAS  /tmp/cciE2C8M.s 			page 30


 1654              		.cfi_endproc
 1655              	.LFE269:
 1656              		.size	_usb_ep0in, .-_usb_ep0in
 1657              		.section	.text._usb_ep0out,"ax",%progbits
 1658              		.align	1
 1659              		.global	_usb_ep0out
 1660              		.syntax unified
 1661              		.thumb
 1662              		.thumb_func
 1663              		.fpu fpv4-sp-d16
 1664              		.type	_usb_ep0out, %function
 1665              	_usb_ep0out:
 1666              	.LFB270:
 1667              		.loc 1 947 0
 1668              		.cfi_startproc
 1669              		@ args = 0, pretend = 0, frame = 0
 1670              		@ frame_needed = 0, uses_anonymous_args = 0
 1671              	.LVL150:
 1672              		.loc 1 950 0
 1673 0000 90F83420 		ldrb	r2, [r0, #52]	@ zero_extendqisi2
 1674 0004 152A     		cmp	r2, #21
 1675              		.loc 1 947 0
 1676 0006 38B5     		push	{r3, r4, r5, lr}
 1677              		.cfi_def_cfa_offset 16
 1678              		.cfi_offset 3, -16
 1679              		.cfi_offset 4, -12
 1680              		.cfi_offset 5, -8
 1681              		.cfi_offset 14, -4
 1682              		.loc 1 947 0
 1683 0008 0446     		mov	r4, r0
 1684 000a 22D8     		bhi	.L131
 1685 000c 0123     		movs	r3, #1
 1686 000e 9340     		lsls	r3, r3, r2
 1687 0010 40F64162 		movw	r2, #3649
 1688 0014 1342     		tst	r3, r2
 1689 0016 1DD1     		bne	.L133
 1690 0018 13F48015 		ands	r5, r3, #1048576
 1691 001c 0FD1     		bne	.L134
 1692 001e 9B02     		lsls	r3, r3, #10
 1693 0020 17D5     		bpl	.L131
 1694              		.loc 1 953 0
 1695 0022 0B23     		movs	r3, #11
 1696 0024 80F83430 		strb	r3, [r0, #52]
 1697              	.LVL151:
 1698              	.LBB382:
 1699              	.LBB383:
 1700              	.LBB384:
 1701              	.LBB385:
 1702              	.LBB386:
 1703              	.LBB387:
 1704              		.loc 2 493 0
 1705 0028 2023     		movs	r3, #32
 1706              		.syntax unified
 1707              	@ 493 "../../modules/ChibiOS/os/common/ext/ARM/CMSIS/Core/Include/cmsis_gcc.h" 1
 1708 002a 83F31188 		MSR basepri, r3
 1709              	@ 0 "" 2
 1710              	.LVL152:
ARM GAS  /tmp/cciE2C8M.s 			page 31


 1711              		.thumb
 1712              		.syntax unified
 1713              	.LBE387:
 1714              	.LBE386:
 1715              	.LBE385:
 1716              	.LBE384:
 1717              	.LBE383:
 1718              	.LBE382:
 1719              		.loc 1 956 0
 1720 002e 2B46     		mov	r3, r5
 1721 0030 2A46     		mov	r2, r5
 1722 0032 2946     		mov	r1, r5
 1723              	.LVL153:
 1724 0034 FFF7FEFF 		bl	usbStartTransmitI
 1725              	.LVL154:
 1726              	.LBB388:
 1727              	.LBB389:
 1728              	.LBB390:
 1729              	.LBB391:
 1730              	.LBB392:
 1731              	.LBB393:
 1732              		.loc 2 493 0
 1733              		.syntax unified
 1734              	@ 493 "../../modules/ChibiOS/os/common/ext/ARM/CMSIS/Core/Include/cmsis_gcc.h" 1
 1735 0038 85F31188 		MSR basepri, r5
 1736              	@ 0 "" 2
 1737              	.LVL155:
 1738              		.thumb
 1739              		.syntax unified
 1740 003c 38BD     		pop	{r3, r4, r5, pc}
 1741              	.LVL156:
 1742              	.L134:
 1743              	.LBE393:
 1744              	.LBE392:
 1745              	.LBE391:
 1746              	.LBE390:
 1747              	.LBE389:
 1748              	.LBE388:
 1749              		.loc 1 966 0
 1750 003e C368     		ldr	r3, [r0, #12]
 1751 0040 9B69     		ldr	r3, [r3, #24]
 1752 0042 5B68     		ldr	r3, [r3, #4]
 1753 0044 2BB9     		cbnz	r3, .L131
 1754              		.loc 1 970 0
 1755 0046 036C     		ldr	r3, [r0, #64]
 1756 0048 03B1     		cbz	r3, .L135
 1757              		.loc 1 971 0
 1758 004a 9847     		blx	r3
 1759              	.LVL157:
 1760              	.L135:
 1761              		.loc 1 973 0
 1762 004c 0023     		movs	r3, #0
 1763              	.L146:
 1764              		.loc 1 989 0
 1765 004e 84F83430 		strb	r3, [r4, #52]
 1766              	.L131:
 1767 0052 38BD     		pop	{r3, r4, r5, pc}
ARM GAS  /tmp/cciE2C8M.s 			page 32


 1768              	.LVL158:
 1769              	.L133:
 1770              		.loc 1 986 0
 1771 0054 0021     		movs	r1, #0
 1772              	.LVL159:
 1773 0056 FFF7FEFF 		bl	usb_lld_stall_in
 1774              	.LVL160:
 1775              		.loc 1 987 0
 1776 005a 0021     		movs	r1, #0
 1777 005c 2046     		mov	r0, r4
 1778 005e FFF7FEFF 		bl	usb_lld_stall_out
 1779              	.LVL161:
 1780              		.loc 1 988 0
 1781 0062 6368     		ldr	r3, [r4, #4]
 1782 0064 1B68     		ldr	r3, [r3]
 1783 0066 13B1     		cbz	r3, .L136
 1784              		.loc 1 988 0 is_stmt 0 discriminator 1
 1785 0068 0621     		movs	r1, #6
 1786 006a 2046     		mov	r0, r4
 1787 006c 9847     		blx	r3
 1788              	.LVL162:
 1789              	.L136:
 1790              		.loc 1 989 0 is_stmt 1
 1791 006e 0623     		movs	r3, #6
 1792 0070 EDE7     		b	.L146
 1793              		.cfi_endproc
 1794              	.LFE270:
 1795              		.size	_usb_ep0out, .-_usb_ep0out
 1796              		.section	.rodata.active_status,"a",%progbits
 1797              		.set	.LANCHOR2,. + 0
 1798              		.type	active_status, %object
 1799              		.size	active_status, 2
 1800              	active_status:
 1801 0000 0000     		.space	2
 1802              		.section	.rodata.halted_status,"a",%progbits
 1803              		.set	.LANCHOR1,. + 0
 1804              		.type	halted_status, %object
 1805              		.size	halted_status, 2
 1806              	halted_status:
 1807 0000 01       		.byte	1
 1808 0001 00       		.byte	0
 1809              		.section	.rodata.zero_status,"a",%progbits
 1810              		.set	.LANCHOR0,. + 0
 1811              		.type	zero_status, %object
 1812              		.size	zero_status, 2
 1813              	zero_status:
 1814 0000 0000     		.space	2
 1815              		.text
 1816              	.Letext0:
 1817              		.file 4 "/opt/gcc-arm-none-eabi-6-2017-q2-update/lib/gcc/arm-none-eabi/6.3.1/include/stddef.h"
 1818              		.file 5 "/opt/gcc-arm-none-eabi-6-2017-q2-update/arm-none-eabi/include/machine/_default_types.h"
 1819              		.file 6 "/opt/gcc-arm-none-eabi-6-2017-q2-update/arm-none-eabi/include/sys/lock.h"
 1820              		.file 7 "/opt/gcc-arm-none-eabi-6-2017-q2-update/arm-none-eabi/include/sys/_types.h"
 1821              		.file 8 "/opt/gcc-arm-none-eabi-6-2017-q2-update/arm-none-eabi/include/sys/reent.h"
 1822              		.file 9 "/opt/gcc-arm-none-eabi-6-2017-q2-update/arm-none-eabi/include/sys/_stdint.h"
 1823              		.file 10 "../../modules/ChibiOS/os/common/ports/ARMCMx/compilers/GCC/chtypes.h"
 1824              		.file 11 "../../modules/ChibiOS/os/rt/include/chsystypes.h"
ARM GAS  /tmp/cciE2C8M.s 			page 33


 1825              		.file 12 "../../modules/ChibiOS/os/rt/include/chschd.h"
 1826              		.file 13 "../../modules/ChibiOS/os/rt/include/chtime.h"
 1827              		.file 14 "../../modules/ChibiOS/os/common/ext/ARM/CMSIS/Core/Include/core_cm4.h"
 1828              		.file 15 "../../modules/ChibiOS/os/common/ext/ST/STM32F4xx/system_stm32f4xx.h"
 1829              		.file 16 "../../modules/ChibiOS/os/common/ext/ST/STM32F4xx/stm32f407xx.h"
 1830              		.file 17 "../../modules/ChibiOS/os/common/ports/ARMCMx/chcore.h"
 1831              		.file 18 "../../modules/ChibiOS/os/common/ports/ARMCMx/chcore_v7m.h"
 1832              		.file 19 "../../modules/ChibiOS/os/rt/include/chsys.h"
 1833              		.file 20 "../../modules/ChibiOS/os/hal/ports/STM32/LLD/DMAv2/stm32_dma.h"
 1834              		.file 21 "../../modules/ChibiOS/os/hal/include/hal_queues.h"
 1835              		.file 22 "../../modules/ChibiOS/os/hal/include/hal_pal.h"
 1836              		.file 23 "../../modules/ChibiOS/os/hal/ports/STM32/LLD/GPIOv2/hal_pal_lld.h"
 1837              		.file 24 "../../modules/ChibiOS/os/hal/include/hal_serial.h"
 1838              		.file 25 "../../modules/ChibiOS/os/hal/ports/STM32/LLD/USARTv1/hal_serial_lld.h"
 1839              		.file 26 "../../modules/ChibiOS/os/hal/include/hal_usb.h"
 1840              		.file 27 "../../modules/ChibiOS/os/hal/ports/STM32/LLD/OTGv1/hal_usb_lld.h"
 1841              		.file 28 "../../modules/ChibiOS/os/hal/ports/STM32/LLD/OTGv1/stm32_otg.h"
 1842              		.file 29 "../../modules/ChibiOS/os/rt/include/chthreads.h"