ARM GAS  /tmp/ccYw1oFI.s 			page 1


   1              		.cpu cortex-m4
   2              		.eabi_attribute 27, 1
   3              		.eabi_attribute 28, 1
   4              		.eabi_attribute 20, 1
   5              		.eabi_attribute 21, 1
   6              		.eabi_attribute 23, 3
   7              		.eabi_attribute 24, 1
   8              		.eabi_attribute 25, 1
   9              		.eabi_attribute 26, 1
  10              		.eabi_attribute 30, 4
  11              		.eabi_attribute 34, 1
  12              		.eabi_attribute 18, 4
  13              		.file	"hal_st_lld.c"
  14              		.text
  15              	.Ltext0:
  16              		.cfi_sections	.debug_frame
  17              		.section	.text.Vector108,"ax",%progbits
  18              		.align	1
  19              		.global	Vector108
  20              		.syntax unified
  21              		.thumb
  22              		.thumb_func
  23              		.fpu fpv4-sp-d16
  24              		.type	Vector108, %function
  25              	Vector108:
  26              	.LFB323:
  27              		.file 1 "../../modules/ChibiOS/os/hal/ports/STM32/LLD/TIMv1/hal_st_lld.c"
  28              		.loc 1 328 0
  29              		.cfi_startproc
  30              		@ args = 0, pretend = 0, frame = 0
  31              		@ frame_needed = 0, uses_anonymous_args = 0
  32              		.loc 1 335 0
  33 0000 084B     		ldr	r3, .L6
  34 0002 1A69     		ldr	r2, [r3, #16]
  35 0004 9207     		lsls	r2, r2, #30
  36              		.loc 1 328 0
  37 0006 10B5     		push	{r4, lr}
  38              		.cfi_def_cfa_offset 8
  39              		.cfi_offset 4, -8
  40              		.cfi_offset 14, -4
  41              		.loc 1 335 0
  42 0008 08D5     		bpl	.L2
  43              		.loc 1 336 0
  44 000a 0024     		movs	r4, #0
  45 000c 1C61     		str	r4, [r3, #16]
  46              	.LVL0:
  47              	.LBB52:
  48              	.LBB53:
  49              	.LBB54:
  50              	.LBB55:
  51              	.LBB56:
  52              	.LBB57:
  53              		.file 2 "../../modules/ChibiOS/os/common/ext/ARM/CMSIS/Core/Include/cmsis_gcc.h"
  54              		.loc 2 493 0
  55 000e 2023     		movs	r3, #32
  56              		.syntax unified
  57              	@ 493 "../../modules/ChibiOS/os/common/ext/ARM/CMSIS/Core/Include/cmsis_gcc.h" 1
ARM GAS  /tmp/ccYw1oFI.s 			page 2


  58 0010 83F31188 		MSR basepri, r3
  59              	@ 0 "" 2
  60              	.LVL1:
  61              		.thumb
  62              		.syntax unified
  63              	.LBE57:
  64              	.LBE56:
  65              	.LBE55:
  66              	.LBE54:
  67              	.LBE53:
  68              	.LBE52:
  69              	.LBB58:
  70              	.LBB59:
  71              		.file 3 "../../modules/ChibiOS/os/hal/osal/rt/osal.h"
  72              		.loc 3 603 0
  73 0014 FFF7FEFF 		bl	chSysTimerHandlerI
  74              	.LVL2:
  75              	.LBE59:
  76              	.LBE58:
  77              	.LBB60:
  78              	.LBB61:
  79              	.LBB62:
  80              	.LBB63:
  81              	.LBB64:
  82              	.LBB65:
  83              		.loc 2 493 0
  84              		.syntax unified
  85              	@ 493 "../../modules/ChibiOS/os/common/ext/ARM/CMSIS/Core/Include/cmsis_gcc.h" 1
  86 0018 84F31188 		MSR basepri, r4
  87              	@ 0 "" 2
  88              	.LVL3:
  89              		.thumb
  90              		.syntax unified
  91              	.L2:
  92              	.LBE65:
  93              	.LBE64:
  94              	.LBE63:
  95              	.LBE62:
  96              	.LBE61:
  97              	.LBE60:
  98              		.loc 1 344 0
  99 001c BDE81040 		pop	{r4, lr}
 100              		.cfi_restore 14
 101              		.cfi_restore 4
 102              		.cfi_def_cfa_offset 0
 103              		.loc 1 343 0
 104 0020 FFF7FEBF 		b	_port_irq_epilogue
 105              	.LVL4:
 106              	.L7:
 107              		.align	2
 108              	.L6:
 109 0024 000C0040 		.word	1073744896
 110              		.cfi_endproc
 111              	.LFE323:
 112              		.size	Vector108, .-Vector108
 113              		.section	.text.st_lld_init,"ax",%progbits
 114              		.align	1
ARM GAS  /tmp/ccYw1oFI.s 			page 3


 115              		.global	st_lld_init
 116              		.syntax unified
 117              		.thumb
 118              		.thumb_func
 119              		.fpu fpv4-sp-d16
 120              		.type	st_lld_init, %function
 121              	st_lld_init:
 122              	.LFB324:
 123              		.loc 1 356 0
 124              		.cfi_startproc
 125              		@ args = 0, pretend = 0, frame = 0
 126              		@ frame_needed = 0, uses_anonymous_args = 0
 127              		@ link register save eliminated.
 128              		.loc 1 362 0
 129 0000 104B     		ldr	r3, .L9
 130 0002 1A6C     		ldr	r2, [r3, #64]
 131 0004 42F00802 		orr	r2, r2, #8
 132 0008 1A64     		str	r2, [r3, #64]
 133 000a 1A6E     		ldr	r2, [r3, #96]
 134 000c 42F00802 		orr	r2, r2, #8
 135 0010 1A66     		str	r2, [r3, #96]
 136              		.loc 1 365 0
 137 0012 0D4A     		ldr	r2, .L9+4
 138              		.loc 1 362 0
 139 0014 1B6E     		ldr	r3, [r3, #96]
 140              		.loc 1 365 0
 141 0016 9368     		ldr	r3, [r2, #8]
 142 0018 43F00803 		orr	r3, r3, #8
 143 001c 9360     		str	r3, [r2, #8]
 144              		.loc 1 368 0
 145 001e 0B4B     		ldr	r3, .L9+8
 146 0020 5322     		movs	r2, #83
 147 0022 9A62     		str	r2, [r3, #40]
 148              		.loc 1 369 0
 149 0024 4FF0FF32 		mov	r2, #-1
 150 0028 DA62     		str	r2, [r3, #44]
 151              		.loc 1 370 0
 152 002a 0022     		movs	r2, #0
 153 002c 9A61     		str	r2, [r3, #24]
 154              		.loc 1 371 0
 155 002e 5A63     		str	r2, [r3, #52]
 156              		.loc 1 372 0
 157 0030 DA60     		str	r2, [r3, #12]
 158              		.loc 1 373 0
 159 0032 5A60     		str	r2, [r3, #4]
 160              		.loc 1 374 0
 161 0034 0122     		movs	r2, #1
 162 0036 5A61     		str	r2, [r3, #20]
 163              		.loc 1 378 0
 164 0038 0821     		movs	r1, #8
 165              		.loc 1 375 0
 166 003a 1A60     		str	r2, [r3]
 167              		.loc 1 378 0
 168 003c 3220     		movs	r0, #50
 169 003e FFF7FEBF 		b	nvicEnableVector
 170              	.LVL5:
 171              	.L10:
ARM GAS  /tmp/ccYw1oFI.s 			page 4


 172 0042 00BF     		.align	2
 173              	.L9:
 174 0044 00380240 		.word	1073887232
 175 0048 002004E0 		.word	-536600576
 176 004c 000C0040 		.word	1073744896
 177              		.cfi_endproc
 178              	.LFE324:
 179              		.size	st_lld_init, .-st_lld_init
 180              		.text
 181              	.Letext0:
 182              		.file 4 "/opt/gcc-arm-none-eabi-6-2017-q2-update/lib/gcc/arm-none-eabi/6.3.1/include/stddef.h"
 183              		.file 5 "/opt/gcc-arm-none-eabi-6-2017-q2-update/arm-none-eabi/include/machine/_default_types.h"
 184              		.file 6 "/opt/gcc-arm-none-eabi-6-2017-q2-update/arm-none-eabi/include/sys/_stdint.h"
 185              		.file 7 "/opt/gcc-arm-none-eabi-6-2017-q2-update/arm-none-eabi/include/stdint.h"
 186              		.file 8 "../../modules/ChibiOS/os/common/ports/ARMCMx/compilers/GCC/chtypes.h"
 187              		.file 9 "../../modules/ChibiOS/os/rt/include/chsystypes.h"
 188              		.file 10 "../../modules/ChibiOS/os/rt/include/chschd.h"
 189              		.file 11 "../../modules/ChibiOS/os/rt/include/chtime.h"
 190              		.file 12 "../../modules/ChibiOS/os/common/ext/ARM/CMSIS/Core/Include/core_cm4.h"
 191              		.file 13 "../../modules/ChibiOS/os/common/ext/ST/STM32F4xx/system_stm32f4xx.h"
 192              		.file 14 "../../modules/ChibiOS/os/common/ext/ST/STM32F4xx/stm32f407xx.h"
 193              		.file 15 "../../modules/ChibiOS/os/common/ports/ARMCMx/chcore.h"
 194              		.file 16 "../../modules/ChibiOS/os/common/ports/ARMCMx/chcore_v7m.h"
 195              		.file 17 "../../modules/ChibiOS/os/hal/ports/STM32/LLD/TIMv1/stm32_tim.h"
 196              		.file 18 "../../modules/ChibiOS/os/rt/include/chtm.h"
 197              		.file 19 "../../modules/ChibiOS/os/rt/include/chsem.h"
 198              		.file 20 "../../modules/ChibiOS/os/rt/include/chmtx.h"
 199              		.file 21 "../../modules/ChibiOS/os/rt/include/chsys.h"
 200              		.file 22 "../../modules/ChibiOS/os/rt/include/chregistry.h"
 201              		.file 23 "../../modules/ChibiOS/os/rt/include/chevents.h"
 202              		.file 24 "../../modules/ChibiOS/os/oslib/include/chmemcore.h"
 203              		.file 25 "../../modules/ChibiOS/os/oslib/include/chmempools.h"
 204              		.file 26 "../../modules/ChibiOS/os/oslib/include/chfactory.h"
 205              		.file 27 "../../modules/ChibiOS/os/hal/ports/STM32/LLD/DMAv2/stm32_dma.h"
 206              		.file 28 "../../modules/ChibiOS/os/hal/include/hal_queues.h"
 207              		.file 29 "../../modules/ChibiOS/os/hal/include/hal_pal.h"
 208              		.file 30 "../../modules/ChibiOS/os/hal/ports/STM32/LLD/GPIOv2/stm32_gpio.h"
 209              		.file 31 "../../modules/ChibiOS/os/hal/ports/STM32/LLD/GPIOv2/hal_pal_lld.h"
 210              		.file 32 "../../modules/ChibiOS/os/hal/include/hal_adc.h"
 211              		.file 33 "../../modules/ChibiOS/os/hal/ports/STM32/LLD/ADCv2/hal_adc_lld.h"
 212              		.file 34 "../../modules/ChibiOS/os/hal/include/hal_i2c.h"
 213              		.file 35 "../../modules/ChibiOS/os/hal/ports/STM32/LLD/I2Cv1/hal_i2c_lld.h"
 214              		.file 36 "../../modules/ChibiOS/os/hal/include/hal_icu.h"
 215              		.file 37 "../../modules/ChibiOS/os/hal/ports/STM32/LLD/TIMv1/hal_icu_lld.h"
 216              		.file 38 "../../modules/ChibiOS/os/hal/include/hal_pwm.h"
 217              		.file 39 "../../modules/ChibiOS/os/hal/ports/STM32/LLD/TIMv1/hal_pwm_lld.h"
 218              		.file 40 "../../modules/ChibiOS/os/hal/include/hal_serial.h"
 219              		.file 41 "../../modules/ChibiOS/os/hal/ports/STM32/LLD/USARTv1/hal_serial_lld.h"
 220              		.file 42 "../../modules/ChibiOS/os/hal/include/hal_spi.h"
 221              		.file 43 "../../modules/ChibiOS/os/hal/ports/STM32/LLD/SPIv1/hal_spi_lld.h"
 222              		.file 44 "../../modules/ChibiOS/os/hal/include/hal_usb.h"
 223              		.file 45 "../../modules/ChibiOS/os/hal/ports/STM32/LLD/OTGv1/hal_usb_lld.h"
 224              		.file 46 "../../modules/ChibiOS/os/hal/ports/STM32/LLD/OTGv1/stm32_otg.h"
 225              		.file 47 "../../modules/ChibiOS/os/hal/ports/common/ARMCMx/nvic.h"