ARM GAS  /tmp/ccEcHKKd.s 			page 1


   1              		.cpu cortex-m4
   2              		.eabi_attribute 27, 1
   3              		.eabi_attribute 28, 1
   4              		.eabi_attribute 20, 1
   5              		.eabi_attribute 21, 1
   6              		.eabi_attribute 23, 3
   7              		.eabi_attribute 24, 1
   8              		.eabi_attribute 25, 1
   9              		.eabi_attribute 26, 1
  10              		.eabi_attribute 30, 4
  11              		.eabi_attribute 34, 1
  12              		.eabi_attribute 18, 4
  13              		.file	"hal_pal.c"
  14              		.text
  15              	.Ltext0:
  16              		.cfi_sections	.debug_frame
  17              		.section	.text.palReadBus,"ax",%progbits
  18              		.align	1
  19              		.global	palReadBus
  20              		.syntax unified
  21              		.thumb
  22              		.thumb_func
  23              		.fpu fpv4-sp-d16
  24              		.type	palReadBus, %function
  25              	palReadBus:
  26              	.LFB251:
  27              		.file 1 "../../modules/ChibiOS/os/hal/src/hal_pal.c"
  28              		.loc 1 65 0
  29              		.cfi_startproc
  30              		@ args = 0, pretend = 0, frame = 0
  31              		@ frame_needed = 0, uses_anonymous_args = 0
  32              		@ link register save eliminated.
  33              	.LVL0:
  34              		.loc 1 69 0
  35 0000 0368     		ldr	r3, [r0]
  36 0002 8268     		ldr	r2, [r0, #8]
  37 0004 1B69     		ldr	r3, [r3, #16]
  38 0006 4068     		ldr	r0, [r0, #4]
  39              	.LVL1:
  40 0008 D340     		lsrs	r3, r3, r2
  41              		.loc 1 70 0
  42 000a 1840     		ands	r0, r0, r3
  43 000c 7047     		bx	lr
  44              		.cfi_endproc
  45              	.LFE251:
  46              		.size	palReadBus, .-palReadBus
  47              		.section	.text.palWriteBus,"ax",%progbits
  48              		.align	1
  49              		.global	palWriteBus
  50              		.syntax unified
  51              		.thumb
  52              		.thumb_func
  53              		.fpu fpv4-sp-d16
  54              		.type	palWriteBus, %function
  55              	palWriteBus:
  56              	.LFB252:
  57              		.loc 1 90 0
ARM GAS  /tmp/ccEcHKKd.s 			page 2


  58              		.cfi_startproc
  59              		@ args = 0, pretend = 0, frame = 0
  60              		@ frame_needed = 0, uses_anonymous_args = 0
  61              	.LVL2:
  62 0000 30B5     		push	{r4, r5, lr}
  63              		.cfi_def_cfa_offset 12
  64              		.cfi_offset 4, -12
  65              		.cfi_offset 5, -8
  66              		.cfi_offset 14, -4
  67              	.LBB2:
  68              		.loc 1 94 0
  69 0002 8268     		ldr	r2, [r0, #8]
  70 0004 4468     		ldr	r4, [r0, #4]
  71 0006 02F11005 		add	r5, r2, #16
  72 000a 24EA0103 		bic	r3, r4, r1
  73 000e 2140     		ands	r1, r1, r4
  74              	.LVL3:
  75 0010 AB40     		lsls	r3, r3, r5
  76 0012 9140     		lsls	r1, r1, r2
  77 0014 1943     		orrs	r1, r1, r3
  78              	.LVL4:
  79 0016 0368     		ldr	r3, [r0]
  80 0018 9961     		str	r1, [r3, #24]
  81 001a 30BD     		pop	{r4, r5, pc}
  82              	.LBE2:
  83              		.cfi_endproc
  84              	.LFE252:
  85              		.size	palWriteBus, .-palWriteBus
  86              		.section	.text.palSetBusMode,"ax",%progbits
  87              		.align	1
  88              		.global	palSetBusMode
  89              		.syntax unified
  90              		.thumb
  91              		.thumb_func
  92              		.fpu fpv4-sp-d16
  93              		.type	palSetBusMode, %function
  94              	palSetBusMode:
  95              	.LFB253:
  96              		.loc 1 113 0
  97              		.cfi_startproc
  98              		@ args = 0, pretend = 0, frame = 0
  99              		@ frame_needed = 0, uses_anonymous_args = 0
 100              		@ link register save eliminated.
 101              	.LVL5:
 102 0000 10B4     		push	{r4}
 103              		.cfi_def_cfa_offset 4
 104              		.cfi_offset 4, -4
 105              		.loc 1 117 0
 106 0002 8368     		ldr	r3, [r0, #8]
 107 0004 4468     		ldr	r4, [r0, #4]
 108 0006 0068     		ldr	r0, [r0]
 109              	.LVL6:
 110 0008 0A46     		mov	r2, r1
 111 000a 04FA03F1 		lsl	r1, r4, r3
 112              	.LVL7:
 113              		.loc 1 118 0
 114 000e 5DF8044B 		ldr	r4, [sp], #4
ARM GAS  /tmp/ccEcHKKd.s 			page 3


 115              		.cfi_restore 4
 116              		.cfi_def_cfa_offset 0
 117              		.loc 1 117 0
 118 0012 FFF7FEBF 		b	_pal_lld_setgroupmode
 119              	.LVL8:
 120              		.cfi_endproc
 121              	.LFE253:
 122              		.size	palSetBusMode, .-palSetBusMode
 123              		.section	.text.palSetPadCallbackI,"ax",%progbits
 124              		.align	1
 125              		.global	palSetPadCallbackI
 126              		.syntax unified
 127              		.thumb
 128              		.thumb_func
 129              		.fpu fpv4-sp-d16
 130              		.type	palSetPadCallbackI, %function
 131              	palSetPadCallbackI:
 132              	.LFB254:
 133              		.loc 1 132 0
 134              		.cfi_startproc
 135              		@ args = 0, pretend = 0, frame = 0
 136              		@ frame_needed = 0, uses_anonymous_args = 0
 137              		@ link register save eliminated.
 138              	.LVL9:
 139              		.loc 1 135 0
 140 0000 0348     		ldr	r0, .L5
 141              	.LVL10:
 142 0002 40F83120 		str	r2, [r0, r1, lsl #3]
 143              		.loc 1 136 0
 144 0006 00EBC100 		add	r0, r0, r1, lsl #3
 145              	.LVL11:
 146 000a 4360     		str	r3, [r0, #4]
 147 000c 7047     		bx	lr
 148              	.L6:
 149 000e 00BF     		.align	2
 150              	.L5:
 151 0010 00000000 		.word	_pal_events
 152              		.cfi_endproc
 153              	.LFE254:
 154              		.size	palSetPadCallbackI, .-palSetPadCallbackI
 155              		.section	.text.palSetLineCallbackI,"ax",%progbits
 156              		.align	1
 157              		.global	palSetLineCallbackI
 158              		.syntax unified
 159              		.thumb
 160              		.thumb_func
 161              		.fpu fpv4-sp-d16
 162              		.type	palSetLineCallbackI, %function
 163              	palSetLineCallbackI:
 164              	.LFB255:
 165              		.loc 1 148 0
 166              		.cfi_startproc
 167              		@ args = 0, pretend = 0, frame = 0
 168              		@ frame_needed = 0, uses_anonymous_args = 0
 169              		@ link register save eliminated.
 170              	.LVL12:
 171              		.loc 1 150 0
ARM GAS  /tmp/ccEcHKKd.s 			page 4


 172 0000 00F00F00 		and	r0, r0, #15
 173              	.LVL13:
 174              		.loc 1 151 0
 175 0004 034B     		ldr	r3, .L8
 176 0006 43F83010 		str	r1, [r3, r0, lsl #3]
 177              		.loc 1 152 0
 178 000a 03EBC003 		add	r3, r3, r0, lsl #3
 179              	.LVL14:
 180 000e 5A60     		str	r2, [r3, #4]
 181 0010 7047     		bx	lr
 182              	.L9:
 183 0012 00BF     		.align	2
 184              	.L8:
 185 0014 00000000 		.word	_pal_events
 186              		.cfi_endproc
 187              	.LFE255:
 188              		.size	palSetLineCallbackI, .-palSetLineCallbackI
 189              		.text
 190              	.Letext0:
 191              		.file 2 "/opt/gcc-arm-none-eabi-6-2017-q2-update/lib/gcc/arm-none-eabi/6.3.1/include/stddef.h"
 192              		.file 3 "/opt/gcc-arm-none-eabi-6-2017-q2-update/arm-none-eabi/include/machine/_default_types.h"
 193              		.file 4 "/opt/gcc-arm-none-eabi-6-2017-q2-update/arm-none-eabi/include/sys/_stdint.h"
 194              		.file 5 "/opt/gcc-arm-none-eabi-6-2017-q2-update/arm-none-eabi/include/stdint.h"
 195              		.file 6 "../../modules/ChibiOS/os/common/ports/ARMCMx/compilers/GCC/chtypes.h"
 196              		.file 7 "../../modules/ChibiOS/os/rt/include/chsystypes.h"
 197              		.file 8 "../../modules/ChibiOS/os/rt/include/chschd.h"
 198              		.file 9 "../../modules/ChibiOS/os/rt/include/chtime.h"
 199              		.file 10 "../../modules/ChibiOS/os/common/ext/ARM/CMSIS/Core/Include/core_cm4.h"
 200              		.file 11 "../../modules/ChibiOS/os/common/ext/ST/STM32F4xx/system_stm32f4xx.h"
 201              		.file 12 "../../modules/ChibiOS/os/common/ext/ST/STM32F4xx/stm32f407xx.h"
 202              		.file 13 "../../modules/ChibiOS/os/common/ports/ARMCMx/chcore.h"
 203              		.file 14 "../../modules/ChibiOS/os/common/ports/ARMCMx/chcore_v7m.h"
 204              		.file 15 "../../modules/ChibiOS/os/rt/include/chsys.h"
 205              		.file 16 "../../modules/ChibiOS/os/hal/osal/rt/osal.h"
 206              		.file 17 "../../modules/ChibiOS/os/hal/ports/STM32/LLD/DMAv2/stm32_dma.h"
 207              		.file 18 "../../modules/ChibiOS/os/hal/include/hal_queues.h"
 208              		.file 19 "../../modules/ChibiOS/os/hal/include/hal_pal.h"
 209              		.file 20 "../../modules/ChibiOS/os/hal/ports/STM32/LLD/GPIOv2/stm32_gpio.h"
 210              		.file 21 "../../modules/ChibiOS/os/hal/ports/STM32/LLD/GPIOv2/hal_pal_lld.h"
 211              		.file 22 "../../modules/ChibiOS/os/hal/include/hal_serial.h"
 212              		.file 23 "../../modules/ChibiOS/os/hal/ports/STM32/LLD/USARTv1/hal_serial_lld.h"
 213              		.file 24 "../../modules/ChibiOS/os/hal/include/hal_usb.h"
 214              		.file 25 "../../modules/ChibiOS/os/hal/ports/STM32/LLD/OTGv1/hal_usb_lld.h"
 215              		.file 26 "../../modules/ChibiOS/os/hal/ports/STM32/LLD/OTGv1/stm32_otg.h"