ARM GAS  /tmp/ccfImWue.s 			page 1


   1              		.cpu cortex-m4
   2              		.eabi_attribute 27, 1
   3              		.eabi_attribute 28, 1
   4              		.eabi_attribute 20, 1
   5              		.eabi_attribute 21, 1
   6              		.eabi_attribute 23, 3
   7              		.eabi_attribute 24, 1
   8              		.eabi_attribute 25, 1
   9              		.eabi_attribute 26, 1
  10              		.eabi_attribute 30, 4
  11              		.eabi_attribute 34, 1
  12              		.eabi_attribute 18, 4
  13              		.file	"hal_serial_lld.c"
  14              		.text
  15              	.Ltext0:
  16              		.cfi_sections	.debug_frame
  17              		.section	.text.osalEventBroadcastFlagsI,"ax",%progbits
  18              		.align	1
  19              		.syntax unified
  20              		.thumb
  21              		.thumb_func
  22              		.fpu fpv4-sp-d16
  23              		.type	osalEventBroadcastFlagsI, %function
  24              	osalEventBroadcastFlagsI:
  25              	.LFB245:
  26              		.file 1 "../../modules/ChibiOS/os/hal/osal/rt/osal.h"
  27              		.loc 1 899 0
  28              		.cfi_startproc
  29              		@ args = 0, pretend = 0, frame = 0
  30              		@ frame_needed = 0, uses_anonymous_args = 0
  31              		@ link register save eliminated.
  32              	.LVL0:
  33              		.loc 1 903 0
  34 0000 0268     		ldr	r2, [r0]
  35              		.loc 1 904 0
  36 0002 4368     		ldr	r3, [r0, #4]
  37              		.loc 1 903 0
  38 0004 1143     		orrs	r1, r1, r2
  39              	.LVL1:
  40 0006 0160     		str	r1, [r0]
  41              		.loc 1 904 0
  42 0008 03B1     		cbz	r3, .L1
  43              		.loc 1 905 0
  44 000a 1847     		bx	r3	@ indirect register sibling call
  45              	.LVL2:
  46              	.L1:
  47 000c 7047     		bx	lr
  48              		.cfi_endproc
  49              	.LFE245:
  50              		.size	osalEventBroadcastFlagsI, .-osalEventBroadcastFlagsI
  51              		.section	.text.notify2,"ax",%progbits
  52              		.align	1
  53              		.syntax unified
  54              		.thumb
  55              		.thumb_func
  56              		.fpu fpv4-sp-d16
  57              		.type	notify2, %function
ARM GAS  /tmp/ccfImWue.s 			page 2


  58              	notify2:
  59              	.LFB255:
  60              		.file 2 "../../modules/ChibiOS/os/hal/ports/STM32/LLD/USARTv1/hal_serial_lld.c"
  61              		.loc 2 248 0
  62              		.cfi_startproc
  63              		@ args = 0, pretend = 0, frame = 0
  64              		@ frame_needed = 0, uses_anonymous_args = 0
  65              		@ link register save eliminated.
  66              	.LVL3:
  67              		.loc 2 251 0
  68 0000 024A     		ldr	r2, .L4
  69 0002 D368     		ldr	r3, [r2, #12]
  70 0004 43F0C003 		orr	r3, r3, #192
  71 0008 D360     		str	r3, [r2, #12]
  72 000a 7047     		bx	lr
  73              	.L5:
  74              		.align	2
  75              	.L4:
  76 000c 00440040 		.word	1073759232
  77              		.cfi_endproc
  78              	.LFE255:
  79              		.size	notify2, .-notify2
  80              		.section	.text.notify3,"ax",%progbits
  81              		.align	1
  82              		.syntax unified
  83              		.thumb
  84              		.thumb_func
  85              		.fpu fpv4-sp-d16
  86              		.type	notify3, %function
  87              	notify3:
  88              	.LFB256:
  89              		.loc 2 256 0
  90              		.cfi_startproc
  91              		@ args = 0, pretend = 0, frame = 0
  92              		@ frame_needed = 0, uses_anonymous_args = 0
  93              		@ link register save eliminated.
  94              	.LVL4:
  95              		.loc 2 259 0
  96 0000 024A     		ldr	r2, .L7
  97 0002 D368     		ldr	r3, [r2, #12]
  98 0004 43F0C003 		orr	r3, r3, #192
  99 0008 D360     		str	r3, [r2, #12]
 100 000a 7047     		bx	lr
 101              	.L8:
 102              		.align	2
 103              	.L7:
 104 000c 00480040 		.word	1073760256
 105              		.cfi_endproc
 106              	.LFE256:
 107              		.size	notify3, .-notify3
 108              		.section	.text.serve_interrupt,"ax",%progbits
 109              		.align	1
 110              		.syntax unified
 111              		.thumb
 112              		.thumb_func
 113              		.fpu fpv4-sp-d16
 114              		.type	serve_interrupt, %function
ARM GAS  /tmp/ccfImWue.s 			page 3


 115              	serve_interrupt:
 116              	.LFB254:
 117              		.loc 2 184 0
 118              		.cfi_startproc
 119              		@ args = 0, pretend = 0, frame = 0
 120              		@ frame_needed = 0, uses_anonymous_args = 0
 121              	.LVL5:
 122 0000 2DE9F041 		push	{r4, r5, r6, r7, r8, lr}
 123              		.cfi_def_cfa_offset 24
 124              		.cfi_offset 4, -24
 125              		.cfi_offset 5, -20
 126              		.cfi_offset 6, -16
 127              		.cfi_offset 7, -12
 128              		.cfi_offset 8, -8
 129              		.cfi_offset 14, -4
 130              		.loc 2 185 0
 131 0004 D0F85C64 		ldr	r6, [r0, #1116]
 132              	.LVL6:
 133              		.loc 2 186 0
 134 0008 F768     		ldr	r7, [r6, #12]
 135              	.LVL7:
 136              		.loc 2 187 0
 137 000a 3368     		ldr	r3, [r6]
 138              		.loc 2 190 0
 139 000c DA05     		lsls	r2, r3, #23
 140              		.loc 2 184 0
 141 000e 0546     		mov	r5, r0
 142              		.loc 2 187 0
 143 0010 9CB2     		uxth	r4, r3
 144              	.LVL8:
 145              		.loc 2 190 0
 146 0012 0DD5     		bpl	.L10
 147              	.LVL9:
 148              	.LBB148:
 149              	.LBB149:
 150              	.LBB150:
 151              	.LBB151:
 152              	.LBB152:
 153              	.LBB153:
 154              		.file 3 "../../modules/ChibiOS/os/common/ext/ARM/CMSIS/Core/Include/cmsis_gcc.h"
 155              		.loc 3 493 0
 156 0014 2023     		movs	r3, #32
 157              		.syntax unified
 158              	@ 493 "../../modules/ChibiOS/os/common/ext/ARM/CMSIS/Core/Include/cmsis_gcc.h" 1
 159 0016 83F31188 		MSR basepri, r3
 160              	@ 0 "" 2
 161              	.LVL10:
 162              		.thumb
 163              		.syntax unified
 164              	.LBE153:
 165              	.LBE152:
 166              	.LBE151:
 167              	.LBE150:
 168              	.LBE149:
 169              	.LBE148:
 170              		.loc 2 192 0
 171 001a 4FF40071 		mov	r1, #512
ARM GAS  /tmp/ccfImWue.s 			page 4


 172 001e 0430     		adds	r0, r0, #4
 173              	.LVL11:
 174 0020 FFF7FEFF 		bl	osalEventBroadcastFlagsI
 175              	.LVL12:
 176              		.loc 2 193 0
 177 0024 6FF48073 		mvn	r3, #256
 178 0028 3360     		str	r3, [r6]
 179              	.LVL13:
 180              	.LBB154:
 181              	.LBB155:
 182              	.LBB156:
 183              	.LBB157:
 184              	.LBB158:
 185              	.LBB159:
 186              		.loc 3 493 0
 187 002a 0023     		movs	r3, #0
 188              		.syntax unified
 189              	@ 493 "../../modules/ChibiOS/os/common/ext/ARM/CMSIS/Core/Include/cmsis_gcc.h" 1
 190 002c 83F31188 		MSR basepri, r3
 191              	@ 0 "" 2
 192              	.LVL14:
 193              		.thumb
 194              		.syntax unified
 195              	.L10:
 196              	.LBE159:
 197              	.LBE158:
 198              	.LBE157:
 199              	.LBE156:
 200              	.LBE155:
 201              	.LBE154:
 202              	.LBB160:
 203              	.LBB161:
 204              	.LBB162:
 205              	.LBB163:
 206              	.LBB164:
 207              	.LBB165:
 208 0030 2023     		movs	r3, #32
 209              		.syntax unified
 210              	@ 493 "../../modules/ChibiOS/os/common/ext/ARM/CMSIS/Core/Include/cmsis_gcc.h" 1
 211 0032 83F31188 		MSR basepri, r3
 212              	@ 0 "" 2
 213              	.LVL15:
 214              		.thumb
 215              		.syntax unified
 216              	.LBE165:
 217              	.LBE164:
 218              	.LBE163:
 219              	.LBE162:
 220              	.LBE161:
 221              	.LBE160:
 222              	.LBB166:
 223              	.LBB167:
 224              	.LBB168:
 225              		.loc 2 176 0
 226 0036 05F10408 		add	r8, r5, #4
 227              	.L11:
 228              	.LBE168:
ARM GAS  /tmp/ccfImWue.s 			page 5


 229              	.LBE167:
 230              	.LBE166:
 231              		.loc 2 199 0
 232 003a 14F02F03 		ands	r3, r4, #47
 233 003e 33D1     		bne	.L18
 234              	.LVL16:
 235              	.LBB171:
 236              	.LBB172:
 237              	.LBB173:
 238              	.LBB174:
 239              	.LBB175:
 240              	.LBB176:
 241              		.loc 3 493 0
 242              		.syntax unified
 243              	@ 493 "../../modules/ChibiOS/os/common/ext/ARM/CMSIS/Core/Include/cmsis_gcc.h" 1
 244 0040 83F31188 		MSR basepri, r3
 245              	@ 0 "" 2
 246              	.LVL17:
 247              		.thumb
 248              		.syntax unified
 249              	.LBE176:
 250              	.LBE175:
 251              	.LBE174:
 252              	.LBE173:
 253              	.LBE172:
 254              	.LBE171:
 255              		.loc 2 214 0
 256 0044 3806     		lsls	r0, r7, #24
 257 0046 15D5     		bpl	.L19
 258              		.loc 2 214 0 is_stmt 0 discriminator 1
 259 0048 2106     		lsls	r1, r4, #24
 260 004a 13D5     		bpl	.L19
 261              	.LVL18:
 262              	.LBB177:
 263              	.LBB178:
 264              	.LBB179:
 265              	.LBB180:
 266              	.LBB181:
 267              	.LBB182:
 268              	.LBB183:
 269              		.loc 3 493 0 is_stmt 1
 270 004c 2023     		movs	r3, #32
 271              		.syntax unified
 272              	@ 493 "../../modules/ChibiOS/os/common/ext/ARM/CMSIS/Core/Include/cmsis_gcc.h" 1
 273 004e 83F31188 		MSR basepri, r3
 274              	@ 0 "" 2
 275              	.LVL19:
 276              		.thumb
 277              		.syntax unified
 278              	.LBE183:
 279              	.LBE182:
 280              	.LBE181:
 281              	.LBE180:
 282              	.LBE179:
 283              	.LBE178:
 284              		.loc 2 217 0
 285 0052 05F13800 		add	r0, r5, #56
ARM GAS  /tmp/ccfImWue.s 			page 6


 286 0056 FFF7FEFF 		bl	oqGetI
 287              	.LVL20:
 288              		.loc 2 218 0
 289 005a 0028     		cmp	r0, #0
 290 005c 46DA     		bge	.L20
 291              		.loc 2 219 0
 292 005e 0821     		movs	r1, #8
 293 0060 281D     		adds	r0, r5, #4
 294              	.LVL21:
 295 0062 FFF7FEFF 		bl	osalEventBroadcastFlagsI
 296              	.LVL22:
 297              		.loc 2 220 0
 298 0066 4FF67F73 		movw	r3, #65407
 299 006a 3B40     		ands	r3, r3, r7
 300 006c F360     		str	r3, [r6, #12]
 301              	.L21:
 302              	.LVL23:
 303              	.LBB184:
 304              	.LBB185:
 305              	.LBB186:
 306              	.LBB187:
 307              	.LBB188:
 308              	.LBB189:
 309              		.loc 3 493 0
 310 006e 0023     		movs	r3, #0
 311              		.syntax unified
 312              	@ 493 "../../modules/ChibiOS/os/common/ext/ARM/CMSIS/Core/Include/cmsis_gcc.h" 1
 313 0070 83F31188 		MSR basepri, r3
 314              	@ 0 "" 2
 315              	.LVL24:
 316              		.thumb
 317              		.syntax unified
 318              	.L19:
 319              	.LBE189:
 320              	.LBE188:
 321              	.LBE187:
 322              	.LBE186:
 323              	.LBE185:
 324              	.LBE184:
 325              	.LBE177:
 326              		.loc 2 228 0
 327 0074 7A06     		lsls	r2, r7, #25
 328 0076 0ED5     		bpl	.L22
 329              		.loc 2 228 0 is_stmt 0 discriminator 1
 330 0078 6306     		lsls	r3, r4, #25
 331 007a 0CD5     		bpl	.L22
 332              	.LVL25:
 333              	.LBB190:
 334              	.LBB191:
 335              	.LBB192:
 336              	.LBB193:
 337              	.LBB194:
 338              	.LBB195:
 339              		.loc 3 493 0 is_stmt 1
 340 007c 2023     		movs	r3, #32
 341              		.syntax unified
 342              	@ 493 "../../modules/ChibiOS/os/common/ext/ARM/CMSIS/Core/Include/cmsis_gcc.h" 1
ARM GAS  /tmp/ccfImWue.s 			page 7


 343 007e 83F31188 		MSR basepri, r3
 344              	@ 0 "" 2
 345              	.LVL26:
 346              		.thumb
 347              		.syntax unified
 348              	.LBE195:
 349              	.LBE194:
 350              	.LBE193:
 351              	.LBE192:
 352              	.LBE191:
 353              	.LBE190:
 354              		.loc 2 230 0
 355 0082 EA6C     		ldr	r2, [r5, #76]
 356 0084 2B6D     		ldr	r3, [r5, #80]
 357 0086 9A42     		cmp	r2, r3
 358 0088 02D1     		bne	.L23
 359              		.loc 2 230 0 is_stmt 0 discriminator 1
 360 008a 2B6C     		ldr	r3, [r5, #64]
 361 008c 002B     		cmp	r3, #0
 362 008e 2FD1     		bne	.L24
 363              	.LVL27:
 364              	.L23:
 365              	.LBB196:
 366              	.LBB197:
 367              	.LBB198:
 368              	.LBB199:
 369              	.LBB200:
 370              	.LBB201:
 371              		.loc 3 493 0 is_stmt 1
 372 0090 0023     		movs	r3, #0
 373              		.syntax unified
 374              	@ 493 "../../modules/ChibiOS/os/common/ext/ARM/CMSIS/Core/Include/cmsis_gcc.h" 1
 375 0092 83F31188 		MSR basepri, r3
 376              	@ 0 "" 2
 377              	.LVL28:
 378              		.thumb
 379              		.syntax unified
 380              	.L22:
 381              	.LBE201:
 382              	.LBE200:
 383              	.LBE199:
 384              	.LBE198:
 385              	.LBE197:
 386              	.LBE196:
 387              		.loc 2 236 0
 388 0096 D5F86424 		ldr	r2, [r5, #1124]
 389 009a D368     		ldr	r3, [r2, #12]
 390 009c 002B     		cmp	r3, #0
 391 009e 31D0     		beq	.L9
 392              		.loc 2 236 0 is_stmt 0 discriminator 1
 393 00a0 1069     		ldr	r0, [r2, #16]
 394              		.loc 2 237 0 is_stmt 1 discriminator 1
 395 00a2 BDE8F041 		pop	{r4, r5, r6, r7, r8, lr}
 396              		.cfi_remember_state
 397              		.cfi_restore 14
 398              		.cfi_restore 8
 399              		.cfi_restore 7
ARM GAS  /tmp/ccfImWue.s 			page 8


 400              		.cfi_restore 6
 401              		.cfi_restore 5
 402              		.cfi_restore 4
 403              		.cfi_def_cfa_offset 0
 404              	.LVL29:
 405              		.loc 2 236 0 discriminator 1
 406 00a6 1847     		bx	r3	@ indirect register sibling call
 407              	.LVL30:
 408              	.L18:
 409              		.cfi_restore_state
 410              	.LBB202:
 411              		.loc 2 204 0
 412 00a8 2307     		lsls	r3, r4, #28
 413 00aa 13D0     		beq	.L12
 414              	.LVL31:
 415              	.LBB170:
 416              	.LBB169:
 417              		.loc 2 169 0
 418 00ac 14F0080F 		tst	r4, #8
 419 00b0 0CBF     		ite	eq
 420 00b2 0021     		moveq	r1, #0
 421 00b4 8021     		movne	r1, #128
 422              	.LVL32:
 423              		.loc 2 170 0
 424 00b6 E007     		lsls	r0, r4, #31
 425              		.loc 2 171 0
 426 00b8 48BF     		it	mi
 427 00ba 41F02001 		orrmi	r1, r1, #32
 428              	.LVL33:
 429              		.loc 2 172 0
 430 00be A207     		lsls	r2, r4, #30
 431              		.loc 2 173 0
 432 00c0 48BF     		it	mi
 433 00c2 41F04001 		orrmi	r1, r1, #64
 434              	.LVL34:
 435              		.loc 2 174 0
 436 00c6 6307     		lsls	r3, r4, #29
 437              		.loc 2 175 0
 438 00c8 48BF     		it	mi
 439 00ca 41F48071 		orrmi	r1, r1, #256
 440              	.LVL35:
 441              		.loc 2 176 0
 442 00ce 4046     		mov	r0, r8
 443 00d0 FFF7FEFF 		bl	osalEventBroadcastFlagsI
 444              	.LVL36:
 445              	.L12:
 446              	.LBE169:
 447              	.LBE170:
 448              		.loc 2 207 0
 449 00d4 A406     		lsls	r4, r4, #26
 450              	.LVL37:
 451              		.loc 2 206 0
 452 00d6 7368     		ldr	r3, [r6, #4]
 453              	.LVL38:
 454              		.loc 2 207 0
 455 00d8 05D5     		bpl	.L17
 456              		.loc 2 206 0
ARM GAS  /tmp/ccfImWue.s 			page 9


 457 00da 95F86014 		ldrb	r1, [r5, #1120]	@ zero_extendqisi2
 458              		.loc 2 208 0
 459 00de 2846     		mov	r0, r5
 460 00e0 1940     		ands	r1, r1, r3
 461 00e2 FFF7FEFF 		bl	sdIncomingDataI
 462              	.LVL39:
 463              	.L17:
 464              		.loc 2 209 0
 465 00e6 3468     		ldr	r4, [r6]
 466 00e8 A4B2     		uxth	r4, r4
 467              	.LVL40:
 468 00ea A6E7     		b	.L11
 469              	.LVL41:
 470              	.L20:
 471              	.LBE202:
 472              	.LBB203:
 473              		.loc 2 223 0
 474 00ec 7060     		str	r0, [r6, #4]
 475 00ee BEE7     		b	.L21
 476              	.LVL42:
 477              	.L24:
 478              	.LBE203:
 479              		.loc 2 232 0
 480 00f0 27F04007 		bic	r7, r7, #64
 481              	.LVL43:
 482 00f4 3F04     		lsls	r7, r7, #16
 483              		.loc 2 231 0
 484 00f6 1021     		movs	r1, #16
 485 00f8 281D     		adds	r0, r5, #4
 486              		.loc 2 232 0
 487 00fa 3F0C     		lsrs	r7, r7, #16
 488              		.loc 2 231 0
 489 00fc FFF7FEFF 		bl	osalEventBroadcastFlagsI
 490              	.LVL44:
 491              		.loc 2 232 0
 492 0100 F760     		str	r7, [r6, #12]
 493 0102 C5E7     		b	.L23
 494              	.L9:
 495 0104 BDE8F081 		pop	{r4, r5, r6, r7, r8, pc}
 496              		.cfi_endproc
 497              	.LFE254:
 498              		.size	serve_interrupt, .-serve_interrupt
 499              		.section	.text.VectorD8,"ax",%progbits
 500              		.align	1
 501              		.global	VectorD8
 502              		.syntax unified
 503              		.thumb
 504              		.thumb_func
 505              		.fpu fpv4-sp-d16
 506              		.type	VectorD8, %function
 507              	VectorD8:
 508              	.LFB257:
 509              		.loc 2 335 0
 510              		.cfi_startproc
 511              		@ args = 0, pretend = 0, frame = 0
 512              		@ frame_needed = 0, uses_anonymous_args = 0
 513 0000 08B5     		push	{r3, lr}
ARM GAS  /tmp/ccfImWue.s 			page 10


 514              		.cfi_def_cfa_offset 8
 515              		.cfi_offset 3, -8
 516              		.cfi_offset 14, -4
 517              		.loc 2 339 0
 518 0002 0348     		ldr	r0, .L58
 519 0004 FFF7FEFF 		bl	serve_interrupt
 520              	.LVL45:
 521              		.loc 2 342 0
 522 0008 BDE80840 		pop	{r3, lr}
 523              		.cfi_restore 14
 524              		.cfi_restore 3
 525              		.cfi_def_cfa_offset 0
 526              		.loc 2 341 0
 527 000c FFF7FEBF 		b	_port_irq_epilogue
 528              	.LVL46:
 529              	.L59:
 530              		.align	2
 531              	.L58:
 532 0010 00000000 		.word	.LANCHOR0
 533              		.cfi_endproc
 534              	.LFE257:
 535              		.size	VectorD8, .-VectorD8
 536              		.section	.text.VectorDC,"ax",%progbits
 537              		.align	1
 538              		.global	VectorDC
 539              		.syntax unified
 540              		.thumb
 541              		.thumb_func
 542              		.fpu fpv4-sp-d16
 543              		.type	VectorDC, %function
 544              	VectorDC:
 545              	.LFB258:
 546              		.loc 2 354 0
 547              		.cfi_startproc
 548              		@ args = 0, pretend = 0, frame = 0
 549              		@ frame_needed = 0, uses_anonymous_args = 0
 550 0000 08B5     		push	{r3, lr}
 551              		.cfi_def_cfa_offset 8
 552              		.cfi_offset 3, -8
 553              		.cfi_offset 14, -4
 554              		.loc 2 358 0
 555 0002 0348     		ldr	r0, .L61
 556 0004 FFF7FEFF 		bl	serve_interrupt
 557              	.LVL47:
 558              		.loc 2 361 0
 559 0008 BDE80840 		pop	{r3, lr}
 560              		.cfi_restore 14
 561              		.cfi_restore 3
 562              		.cfi_def_cfa_offset 0
 563              		.loc 2 360 0
 564 000c FFF7FEBF 		b	_port_irq_epilogue
 565              	.LVL48:
 566              	.L62:
 567              		.align	2
 568              	.L61:
 569 0010 00000000 		.word	.LANCHOR1
 570              		.cfi_endproc
ARM GAS  /tmp/ccfImWue.s 			page 11


 571              	.LFE258:
 572              		.size	VectorDC, .-VectorDC
 573              		.section	.text.sd_lld_init,"ax",%progbits
 574              		.align	1
 575              		.global	sd_lld_init
 576              		.syntax unified
 577              		.thumb
 578              		.thumb_func
 579              		.fpu fpv4-sp-d16
 580              		.type	sd_lld_init, %function
 581              	sd_lld_init:
 582              	.LFB259:
 583              		.loc 2 468 0
 584              		.cfi_startproc
 585              		@ args = 0, pretend = 0, frame = 0
 586              		@ frame_needed = 0, uses_anonymous_args = 0
 587 0000 10B5     		push	{r4, lr}
 588              		.cfi_def_cfa_offset 8
 589              		.cfi_offset 4, -8
 590              		.cfi_offset 14, -4
 591              		.loc 2 476 0
 592 0002 094C     		ldr	r4, .L64
 593 0004 094A     		ldr	r2, .L64+4
 594 0006 2046     		mov	r0, r4
 595 0008 0021     		movs	r1, #0
 596 000a FFF7FEFF 		bl	sdObjectInit
 597              	.LVL49:
 598              		.loc 2 477 0
 599 000e 084B     		ldr	r3, .L64+8
 600 0010 C4F85C34 		str	r3, [r4, #1116]
 601              		.loc 2 481 0
 602 0014 074C     		ldr	r4, .L64+12
 603 0016 084A     		ldr	r2, .L64+16
 604 0018 0021     		movs	r1, #0
 605 001a 2046     		mov	r0, r4
 606 001c FFF7FEFF 		bl	sdObjectInit
 607              	.LVL50:
 608              		.loc 2 482 0
 609 0020 064B     		ldr	r3, .L64+20
 610 0022 C4F85C34 		str	r3, [r4, #1116]
 611 0026 10BD     		pop	{r4, pc}
 612              	.L65:
 613              		.align	2
 614              	.L64:
 615 0028 00000000 		.word	.LANCHOR0
 616 002c 00000000 		.word	notify2
 617 0030 00440040 		.word	1073759232
 618 0034 00000000 		.word	.LANCHOR1
 619 0038 00000000 		.word	notify3
 620 003c 00480040 		.word	1073760256
 621              		.cfi_endproc
 622              	.LFE259:
 623              		.size	sd_lld_init, .-sd_lld_init
 624              		.section	.text.sd_lld_start,"ax",%progbits
 625              		.align	1
 626              		.global	sd_lld_start
 627              		.syntax unified
ARM GAS  /tmp/ccfImWue.s 			page 12


 628              		.thumb
 629              		.thumb_func
 630              		.fpu fpv4-sp-d16
 631              		.type	sd_lld_start, %function
 632              	sd_lld_start:
 633              	.LFB260:
 634              		.loc 2 521 0
 635              		.cfi_startproc
 636              		@ args = 0, pretend = 0, frame = 0
 637              		@ frame_needed = 0, uses_anonymous_args = 0
 638              	.LVL51:
 639 0000 38B5     		push	{r3, r4, r5, lr}
 640              		.cfi_def_cfa_offset 16
 641              		.cfi_offset 3, -16
 642              		.cfi_offset 4, -12
 643              		.cfi_offset 5, -8
 644              		.cfi_offset 14, -4
 645              		.loc 2 524 0
 646 0002 314D     		ldr	r5, .L79
 647              		.loc 2 528 0
 648 0004 037C     		ldrb	r3, [r0, #16]	@ zero_extendqisi2
 649              		.loc 2 524 0
 650 0006 0029     		cmp	r1, #0
 651 0008 18BF     		it	ne
 652 000a 0D46     		movne	r5, r1
 653              	.LVL52:
 654              		.loc 2 528 0
 655 000c 012B     		cmp	r3, #1
 656              		.loc 2 521 0
 657 000e 0446     		mov	r4, r0
 658              		.loc 2 526 0
 659 0010 C0F86454 		str	r5, [r0, #1124]
 660              		.loc 2 528 0
 661 0014 10D1     		bne	.L68
 662              		.loc 2 536 0
 663 0016 2D4B     		ldr	r3, .L79+4
 664 0018 9842     		cmp	r0, r3
 665 001a 42D1     		bne	.L69
 666              		.loc 2 537 0
 667 001c 2C4B     		ldr	r3, .L79+8
 668 001e 1A6C     		ldr	r2, [r3, #64]
 669 0020 42F40032 		orr	r2, r2, #131072
 670 0024 1A64     		str	r2, [r3, #64]
 671 0026 1A6E     		ldr	r2, [r3, #96]
 672 0028 42F40032 		orr	r2, r2, #131072
 673 002c 1A66     		str	r2, [r3, #96]
 674 002e 1B6E     		ldr	r3, [r3, #96]
 675              		.loc 2 538 0
 676 0030 0B21     		movs	r1, #11
 677 0032 2620     		movs	r0, #38
 678              	.LVL53:
 679              	.L76:
 680              		.loc 2 544 0
 681 0034 FFF7FEFF 		bl	nvicEnableVector
 682              	.LVL54:
 683              	.L68:
 684              	.LBB206:
ARM GAS  /tmp/ccfImWue.s 			page 13


 685              	.LBB207:
 686              		.loc 2 109 0
 687 0038 264B     		ldr	r3, .L79+12
 688              		.loc 2 105 0
 689 003a D4F85C24 		ldr	r2, [r4, #1116]
 690              	.LVL55:
 691              		.loc 2 109 0
 692 003e 9A42     		cmp	r2, r3
 693 0040 2B68     		ldr	r3, [r5]
 694 0042 02D0     		beq	.L70
 695 0044 2449     		ldr	r1, .L79+16
 696 0046 8A42     		cmp	r2, r1
 697 0048 3BD1     		bne	.L71
 698              	.L70:
 699              		.loc 2 113 0
 700 004a 2449     		ldr	r1, .L79+20
 701              	.L77:
 702              		.loc 2 115 0
 703 004c 01EB5301 		add	r1, r1, r3, lsr #1
 704 0050 B1FBF3F3 		udiv	r3, r1, r3
 705              	.LVL56:
 706              		.loc 2 121 0
 707 0054 A988     		ldrh	r1, [r5, #4]
 708 0056 0804     		lsls	r0, r1, #16
 709              		.loc 2 122 0
 710 0058 42BF     		ittt	mi
 711 005a 23F00700 		bicmi	r0, r3, #7
 712 005e 03F00703 		andmi	r3, r3, #7
 713              	.LVL57:
 714 0062 43EA4003 		orrmi	r3, r3, r0, lsl #1
 715              	.LVL58:
 716              		.loc 2 124 0
 717 0066 9360     		str	r3, [r2, #8]
 718              		.loc 2 127 0
 719 0068 EB88     		ldrh	r3, [r5, #6]
 720              	.LVL59:
 721 006a 43F04003 		orr	r3, r3, #64
 722 006e 9BB2     		uxth	r3, r3
 723 0070 1361     		str	r3, [r2, #16]
 724              	.LVL60:
 725              		.loc 2 128 0
 726 0072 2B89     		ldrh	r3, [r5, #8]
 727 0074 43F00103 		orr	r3, r3, #1
 728 0078 9BB2     		uxth	r3, r3
 729 007a 5361     		str	r3, [r2, #20]
 730              		.loc 2 130 0
 731 007c 41F40453 		orr	r3, r1, #8448
 732 0080 43F02C03 		orr	r3, r3, #44
 733              		.loc 2 129 0
 734 0084 D360     		str	r3, [r2, #12]
 735              		.loc 2 138 0
 736 0086 01F4A051 		and	r1, r1, #5120
 737              		.loc 2 132 0
 738 008a 0023     		movs	r3, #0
 739 008c 1360     		str	r3, [r2]
 740              		.loc 2 138 0
 741 008e B1F5806F 		cmp	r1, #1024
ARM GAS  /tmp/ccfImWue.s 			page 14


 742              		.loc 2 133 0
 743 0092 1368     		ldr	r3, [r2]
 744              		.loc 2 134 0
 745 0094 5368     		ldr	r3, [r2, #4]
 746              		.loc 2 139 0
 747 0096 0CBF     		ite	eq
 748 0098 7F23     		moveq	r3, #127
 749              		.loc 2 142 0
 750 009a FF23     		movne	r3, #255
 751 009c 84F86034 		strb	r3, [r4, #1120]
 752              	.LVL61:
 753 00a0 38BD     		pop	{r3, r4, r5, pc}
 754              	.LVL62:
 755              	.L69:
 756              	.LBE207:
 757              	.LBE206:
 758              		.loc 2 542 0
 759 00a2 0F4B     		ldr	r3, .L79+24
 760 00a4 9842     		cmp	r0, r3
 761 00a6 C7D1     		bne	.L68
 762              		.loc 2 543 0
 763 00a8 094B     		ldr	r3, .L79+8
 764 00aa 1A6C     		ldr	r2, [r3, #64]
 765 00ac 42F48022 		orr	r2, r2, #262144
 766 00b0 1A64     		str	r2, [r3, #64]
 767 00b2 1A6E     		ldr	r2, [r3, #96]
 768 00b4 42F48022 		orr	r2, r2, #262144
 769 00b8 1A66     		str	r2, [r3, #96]
 770 00ba 1B6E     		ldr	r3, [r3, #96]
 771              		.loc 2 544 0
 772 00bc 0B21     		movs	r1, #11
 773 00be 2720     		movs	r0, #39
 774              	.LVL63:
 775 00c0 B8E7     		b	.L76
 776              	.LVL64:
 777              	.L71:
 778              	.LBB209:
 779              	.LBB208:
 780              		.loc 2 115 0
 781 00c2 0849     		ldr	r1, .L79+28
 782 00c4 C2E7     		b	.L77
 783              	.L80:
 784 00c6 00BF     		.align	2
 785              	.L79:
 786 00c8 00000000 		.word	.LANCHOR2
 787 00cc 00000000 		.word	.LANCHOR0
 788 00d0 00380240 		.word	1073887232
 789 00d4 00100140 		.word	1073811456
 790 00d8 00140140 		.word	1073812480
 791 00dc 00BD0105 		.word	84000000
 792 00e0 00000000 		.word	.LANCHOR1
 793 00e4 80DE8002 		.word	42000000
 794              	.LBE208:
 795              	.LBE209:
 796              		.cfi_endproc
 797              	.LFE260:
 798              		.size	sd_lld_start, .-sd_lld_start
ARM GAS  /tmp/ccfImWue.s 			page 15


 799              		.section	.text.sd_lld_stop,"ax",%progbits
 800              		.align	1
 801              		.global	sd_lld_stop
 802              		.syntax unified
 803              		.thumb
 804              		.thumb_func
 805              		.fpu fpv4-sp-d16
 806              		.type	sd_lld_stop, %function
 807              	sd_lld_stop:
 808              	.LFB261:
 809              		.loc 2 590 0
 810              		.cfi_startproc
 811              		@ args = 0, pretend = 0, frame = 0
 812              		@ frame_needed = 0, uses_anonymous_args = 0
 813              		@ link register save eliminated.
 814              	.LVL65:
 815              		.loc 2 592 0
 816 0000 037C     		ldrb	r3, [r0, #16]	@ zero_extendqisi2
 817 0002 022B     		cmp	r3, #2
 818 0004 24D1     		bne	.L81
 819              		.loc 2 593 0
 820 0006 D0F85C34 		ldr	r3, [r0, #1116]
 821              	.LVL66:
 822              	.LBB210:
 823              	.LBB211:
 824              		.loc 2 154 0
 825 000a 0022     		movs	r2, #0
 826 000c DA60     		str	r2, [r3, #12]
 827              		.loc 2 155 0
 828 000e 1A61     		str	r2, [r3, #16]
 829              		.loc 2 156 0
 830 0010 5A61     		str	r2, [r3, #20]
 831              	.LVL67:
 832              	.LBE211:
 833              	.LBE210:
 834              		.loc 2 602 0
 835 0012 104B     		ldr	r3, .L87
 836 0014 9842     		cmp	r0, r3
 837 0016 0CD1     		bne	.L84
 838              		.loc 2 603 0
 839 0018 0F4B     		ldr	r3, .L87+4
 840 001a 1A6C     		ldr	r2, [r3, #64]
 841 001c 22F40032 		bic	r2, r2, #131072
 842 0020 1A64     		str	r2, [r3, #64]
 843 0022 1A6E     		ldr	r2, [r3, #96]
 844 0024 22F40032 		bic	r2, r2, #131072
 845 0028 1A66     		str	r2, [r3, #96]
 846 002a 1B6E     		ldr	r3, [r3, #96]
 847              		.loc 2 604 0
 848 002c 2620     		movs	r0, #38
 849              	.LVL68:
 850              	.L86:
 851              		.loc 2 611 0
 852 002e FFF7FEBF 		b	nvicDisableVector
 853              	.LVL69:
 854              	.L84:
 855              		.loc 2 609 0
ARM GAS  /tmp/ccfImWue.s 			page 16


 856 0032 0A4B     		ldr	r3, .L87+8
 857 0034 9842     		cmp	r0, r3
 858 0036 0BD1     		bne	.L81
 859              		.loc 2 610 0
 860 0038 074B     		ldr	r3, .L87+4
 861 003a 1A6C     		ldr	r2, [r3, #64]
 862 003c 22F48022 		bic	r2, r2, #262144
 863 0040 1A64     		str	r2, [r3, #64]
 864 0042 1A6E     		ldr	r2, [r3, #96]
 865 0044 22F48022 		bic	r2, r2, #262144
 866 0048 1A66     		str	r2, [r3, #96]
 867 004a 1B6E     		ldr	r3, [r3, #96]
 868              		.loc 2 611 0
 869 004c 2720     		movs	r0, #39
 870              	.LVL70:
 871 004e EEE7     		b	.L86
 872              	.LVL71:
 873              	.L81:
 874 0050 7047     		bx	lr
 875              	.L88:
 876 0052 00BF     		.align	2
 877              	.L87:
 878 0054 00000000 		.word	.LANCHOR0
 879 0058 00380240 		.word	1073887232
 880 005c 00000000 		.word	.LANCHOR1
 881              		.cfi_endproc
 882              	.LFE261:
 883              		.size	sd_lld_stop, .-sd_lld_stop
 884              		.global	SD3
 885              		.global	SD2
 886              		.section	.bss.SD2,"aw",%nobits
 887              		.align	2
 888              		.set	.LANCHOR0,. + 0
 889              		.type	SD2, %object
 890              		.size	SD2, 1128
 891              	SD2:
 892 0000 00000000 		.space	1128
 892      00000000 
 892      00000000 
 892      00000000 
 892      00000000 
 893              		.section	.bss.SD3,"aw",%nobits
 894              		.align	2
 895              		.set	.LANCHOR1,. + 0
 896              		.type	SD3, %object
 897              		.size	SD3, 1128
 898              	SD3:
 899 0000 00000000 		.space	1128
 899      00000000 
 899      00000000 
 899      00000000 
 899      00000000 
 900              		.section	.rodata.default_config,"a",%progbits
 901              		.align	2
 902              		.set	.LANCHOR2,. + 0
 903              		.type	default_config, %object
 904              		.size	default_config, 20
ARM GAS  /tmp/ccfImWue.s 			page 17


 905              	default_config:
 906 0000 00960000 		.word	38400
 907 0004 0000     		.short	0
 908 0006 0000     		.short	0
 909 0008 0000     		.short	0
 910 000a 0000     		.space	2
 911 000c 00000000 		.word	0
 912 0010 00000000 		.word	0
 913              		.text
 914              	.Letext0:
 915              		.file 4 "/opt/gcc-arm-none-eabi-6-2017-q2-update/lib/gcc/arm-none-eabi/6.3.1/include/stddef.h"
 916              		.file 5 "/opt/gcc-arm-none-eabi-6-2017-q2-update/arm-none-eabi/include/machine/_default_types.h"
 917              		.file 6 "/opt/gcc-arm-none-eabi-6-2017-q2-update/arm-none-eabi/include/sys/_stdint.h"
 918              		.file 7 "../../modules/ChibiOS/os/common/ports/ARMCMx/compilers/GCC/chtypes.h"
 919              		.file 8 "../../modules/ChibiOS/os/rt/include/chsystypes.h"
 920              		.file 9 "../../modules/ChibiOS/os/rt/include/chschd.h"
 921              		.file 10 "../../modules/ChibiOS/os/rt/include/chtime.h"
 922              		.file 11 "../../modules/ChibiOS/os/common/ext/ARM/CMSIS/Core/Include/core_cm4.h"
 923              		.file 12 "../../modules/ChibiOS/os/common/ext/ST/STM32F4xx/system_stm32f4xx.h"
 924              		.file 13 "../../modules/ChibiOS/os/common/ext/ST/STM32F4xx/stm32f407xx.h"
 925              		.file 14 "../../modules/ChibiOS/os/common/ports/ARMCMx/chcore.h"
 926              		.file 15 "../../modules/ChibiOS/os/common/ports/ARMCMx/chcore_v7m.h"
 927              		.file 16 "../../modules/ChibiOS/os/rt/include/chsys.h"
 928              		.file 17 "../../modules/ChibiOS/os/hal/ports/STM32/LLD/DMAv2/stm32_dma.h"
 929              		.file 18 "../../modules/ChibiOS/os/hal/include/hal_queues.h"
 930              		.file 19 "../../modules/ChibiOS/os/hal/include/hal_pal.h"
 931              		.file 20 "../../modules/ChibiOS/os/hal/ports/STM32/LLD/GPIOv2/hal_pal_lld.h"
 932              		.file 21 "../../modules/ChibiOS/os/hal/include/hal_serial.h"
 933              		.file 22 "../../modules/ChibiOS/os/hal/ports/STM32/LLD/USARTv1/hal_serial_lld.h"
 934              		.file 23 "../../modules/ChibiOS/os/hal/include/hal_usb.h"
 935              		.file 24 "../../modules/ChibiOS/os/hal/ports/STM32/LLD/OTGv1/hal_usb_lld.h"
 936              		.file 25 "../../modules/ChibiOS/os/hal/ports/STM32/LLD/OTGv1/stm32_otg.h"
 937              		.file 26 "../../modules/ChibiOS/os/hal/ports/common/ARMCMx/nvic.h"