ARM GAS  /tmp/ccOyYqHr.s 			page 1


   1              		.cpu cortex-m4
   2              		.eabi_attribute 27, 1
   3              		.eabi_attribute 28, 1
   4              		.eabi_attribute 20, 1
   5              		.eabi_attribute 21, 1
   6              		.eabi_attribute 23, 3
   7              		.eabi_attribute 24, 1
   8              		.eabi_attribute 25, 1
   9              		.eabi_attribute 26, 1
  10              		.eabi_attribute 30, 4
  11              		.eabi_attribute 34, 1
  12              		.eabi_attribute 18, 4
  13              		.file	"hal_icu.c"
  14              		.text
  15              	.Ltext0:
  16              		.cfi_sections	.debug_frame
  17              		.section	.text.icuInit,"ax",%progbits
  18              		.align	1
  19              		.global	icuInit
  20              		.syntax unified
  21              		.thumb
  22              		.thumb_func
  23              		.fpu fpv4-sp-d16
  24              		.type	icuInit, %function
  25              	icuInit:
  26              	.LFB323:
  27              		.file 1 "../../modules/ChibiOS/os/hal/src/hal_icu.c"
  28              		.loc 1 56 0
  29              		.cfi_startproc
  30              		@ args = 0, pretend = 0, frame = 0
  31              		@ frame_needed = 0, uses_anonymous_args = 0
  32              		@ link register save eliminated.
  33              		.loc 1 58 0
  34 0000 FFF7FEBF 		b	icu_lld_init
  35              	.LVL0:
  36              		.cfi_endproc
  37              	.LFE323:
  38              		.size	icuInit, .-icuInit
  39              		.section	.text.icuObjectInit,"ax",%progbits
  40              		.align	1
  41              		.global	icuObjectInit
  42              		.syntax unified
  43              		.thumb
  44              		.thumb_func
  45              		.fpu fpv4-sp-d16
  46              		.type	icuObjectInit, %function
  47              	icuObjectInit:
  48              	.LFB324:
  49              		.loc 1 68 0
  50              		.cfi_startproc
  51              		@ args = 0, pretend = 0, frame = 0
  52              		@ frame_needed = 0, uses_anonymous_args = 0
  53              		@ link register save eliminated.
  54              	.LVL1:
  55              		.loc 1 70 0
  56 0000 0123     		movs	r3, #1
  57 0002 0370     		strb	r3, [r0]
ARM GAS  /tmp/ccOyYqHr.s 			page 2


  58              		.loc 1 71 0
  59 0004 0023     		movs	r3, #0
  60 0006 4360     		str	r3, [r0, #4]
  61 0008 7047     		bx	lr
  62              		.cfi_endproc
  63              	.LFE324:
  64              		.size	icuObjectInit, .-icuObjectInit
  65              		.section	.text.icuStart,"ax",%progbits
  66              		.align	1
  67              		.global	icuStart
  68              		.syntax unified
  69              		.thumb
  70              		.thumb_func
  71              		.fpu fpv4-sp-d16
  72              		.type	icuStart, %function
  73              	icuStart:
  74              	.LFB325:
  75              		.loc 1 82 0
  76              		.cfi_startproc
  77              		@ args = 0, pretend = 0, frame = 0
  78              		@ frame_needed = 0, uses_anonymous_args = 0
  79              	.LVL2:
  80 0000 10B5     		push	{r4, lr}
  81              		.cfi_def_cfa_offset 8
  82              		.cfi_offset 4, -8
  83              		.cfi_offset 14, -4
  84              	.LBB115:
  85              	.LBB116:
  86              	.LBB117:
  87              	.LBB118:
  88              	.LBB119:
  89              		.file 2 "../../modules/ChibiOS/os/common/ext/ARM/CMSIS/Core/Include/cmsis_gcc.h"
  90              		.loc 2 493 0
  91 0002 2023     		movs	r3, #32
  92              	.LBE119:
  93              	.LBE118:
  94              	.LBE117:
  95              	.LBE116:
  96              	.LBE115:
  97              		.loc 1 82 0
  98 0004 0446     		mov	r4, r0
  99              	.LBB124:
 100              	.LBB123:
 101              	.LBB122:
 102              	.LBB121:
 103              	.LBB120:
 104              		.loc 2 493 0
 105              		.syntax unified
 106              	@ 493 "../../modules/ChibiOS/os/common/ext/ARM/CMSIS/Core/Include/cmsis_gcc.h" 1
 107 0006 83F31188 		MSR basepri, r3
 108              	@ 0 "" 2
 109              	.LVL3:
 110              		.thumb
 111              		.syntax unified
 112              	.LBE120:
 113              	.LBE121:
 114              	.LBE122:
ARM GAS  /tmp/ccOyYqHr.s 			page 3


 115              	.LBE123:
 116              	.LBE124:
 117              		.loc 1 89 0
 118 000a 4160     		str	r1, [r0, #4]
 119              		.loc 1 90 0
 120 000c FFF7FEFF 		bl	icu_lld_start
 121              	.LVL4:
 122              		.loc 1 91 0
 123 0010 0223     		movs	r3, #2
 124 0012 2370     		strb	r3, [r4]
 125              	.LVL5:
 126              	.LBB125:
 127              	.LBB126:
 128              	.LBB127:
 129              	.LBB128:
 130              	.LBB129:
 131              	.LBB130:
 132              		.loc 2 493 0
 133 0014 0023     		movs	r3, #0
 134              		.syntax unified
 135              	@ 493 "../../modules/ChibiOS/os/common/ext/ARM/CMSIS/Core/Include/cmsis_gcc.h" 1
 136 0016 83F31188 		MSR basepri, r3
 137              	@ 0 "" 2
 138              	.LVL6:
 139              		.thumb
 140              		.syntax unified
 141 001a 10BD     		pop	{r4, pc}
 142              	.LBE130:
 143              	.LBE129:
 144              	.LBE128:
 145              	.LBE127:
 146              	.LBE126:
 147              	.LBE125:
 148              		.cfi_endproc
 149              	.LFE325:
 150              		.size	icuStart, .-icuStart
 151              		.section	.text.icuStop,"ax",%progbits
 152              		.align	1
 153              		.global	icuStop
 154              		.syntax unified
 155              		.thumb
 156              		.thumb_func
 157              		.fpu fpv4-sp-d16
 158              		.type	icuStop, %function
 159              	icuStop:
 160              	.LFB326:
 161              		.loc 1 102 0
 162              		.cfi_startproc
 163              		@ args = 0, pretend = 0, frame = 0
 164              		@ frame_needed = 0, uses_anonymous_args = 0
 165              	.LVL7:
 166 0000 10B5     		push	{r4, lr}
 167              		.cfi_def_cfa_offset 8
 168              		.cfi_offset 4, -8
 169              		.cfi_offset 14, -4
 170              	.LBB131:
 171              	.LBB132:
ARM GAS  /tmp/ccOyYqHr.s 			page 4


 172              	.LBB133:
 173              	.LBB134:
 174              	.LBB135:
 175              		.loc 2 493 0
 176 0002 2023     		movs	r3, #32
 177              	.LBE135:
 178              	.LBE134:
 179              	.LBE133:
 180              	.LBE132:
 181              	.LBE131:
 182              		.loc 1 102 0
 183 0004 0446     		mov	r4, r0
 184              	.LBB140:
 185              	.LBB139:
 186              	.LBB138:
 187              	.LBB137:
 188              	.LBB136:
 189              		.loc 2 493 0
 190              		.syntax unified
 191              	@ 493 "../../modules/ChibiOS/os/common/ext/ARM/CMSIS/Core/Include/cmsis_gcc.h" 1
 192 0006 83F31188 		MSR basepri, r3
 193              	@ 0 "" 2
 194              	.LVL8:
 195              		.thumb
 196              		.syntax unified
 197              	.LBE136:
 198              	.LBE137:
 199              	.LBE138:
 200              	.LBE139:
 201              	.LBE140:
 202              		.loc 1 111 0
 203 000a FFF7FEFF 		bl	icu_lld_stop
 204              	.LVL9:
 205              		.loc 1 112 0
 206 000e 0023     		movs	r3, #0
 207              		.loc 1 113 0
 208 0010 0122     		movs	r2, #1
 209              		.loc 1 112 0
 210 0012 6360     		str	r3, [r4, #4]
 211              		.loc 1 113 0
 212 0014 2270     		strb	r2, [r4]
 213              	.LVL10:
 214              	.LBB141:
 215              	.LBB142:
 216              	.LBB143:
 217              	.LBB144:
 218              	.LBB145:
 219              	.LBB146:
 220              		.loc 2 493 0
 221              		.syntax unified
 222              	@ 493 "../../modules/ChibiOS/os/common/ext/ARM/CMSIS/Core/Include/cmsis_gcc.h" 1
 223 0016 83F31188 		MSR basepri, r3
 224              	@ 0 "" 2
 225              	.LVL11:
 226              		.thumb
 227              		.syntax unified
 228 001a 10BD     		pop	{r4, pc}
ARM GAS  /tmp/ccOyYqHr.s 			page 5


 229              	.LBE146:
 230              	.LBE145:
 231              	.LBE144:
 232              	.LBE143:
 233              	.LBE142:
 234              	.LBE141:
 235              		.cfi_endproc
 236              	.LFE326:
 237              		.size	icuStop, .-icuStop
 238              		.section	.text.icuStartCapture,"ax",%progbits
 239              		.align	1
 240              		.global	icuStartCapture
 241              		.syntax unified
 242              		.thumb
 243              		.thumb_func
 244              		.fpu fpv4-sp-d16
 245              		.type	icuStartCapture, %function
 246              	icuStartCapture:
 247              	.LFB327:
 248              		.loc 1 125 0
 249              		.cfi_startproc
 250              		@ args = 0, pretend = 0, frame = 0
 251              		@ frame_needed = 0, uses_anonymous_args = 0
 252              	.LVL12:
 253 0000 10B5     		push	{r4, lr}
 254              		.cfi_def_cfa_offset 8
 255              		.cfi_offset 4, -8
 256              		.cfi_offset 14, -4
 257              	.LBB147:
 258              	.LBB148:
 259              	.LBB149:
 260              	.LBB150:
 261              	.LBB151:
 262              		.loc 2 493 0
 263 0002 2023     		movs	r3, #32
 264              	.LBE151:
 265              	.LBE150:
 266              	.LBE149:
 267              	.LBE148:
 268              	.LBE147:
 269              		.loc 1 125 0
 270 0004 0446     		mov	r4, r0
 271              	.LBB156:
 272              	.LBB155:
 273              	.LBB154:
 274              	.LBB153:
 275              	.LBB152:
 276              		.loc 2 493 0
 277              		.syntax unified
 278              	@ 493 "../../modules/ChibiOS/os/common/ext/ARM/CMSIS/Core/Include/cmsis_gcc.h" 1
 279 0006 83F31188 		MSR basepri, r3
 280              	@ 0 "" 2
 281              	.LVL13:
 282              		.thumb
 283              		.syntax unified
 284              	.LBE152:
 285              	.LBE153:
ARM GAS  /tmp/ccOyYqHr.s 			page 6


 286              	.LBE154:
 287              	.LBE155:
 288              	.LBE156:
 289              		.loc 1 131 0
 290 000a FFF7FEFF 		bl	icu_lld_start_capture
 291              	.LVL14:
 292 000e 0323     		movs	r3, #3
 293 0010 2370     		strb	r3, [r4]
 294              	.LVL15:
 295              	.LBB157:
 296              	.LBB158:
 297              	.LBB159:
 298              	.LBB160:
 299              	.LBB161:
 300              	.LBB162:
 301              		.loc 2 493 0
 302 0012 0023     		movs	r3, #0
 303              		.syntax unified
 304              	@ 493 "../../modules/ChibiOS/os/common/ext/ARM/CMSIS/Core/Include/cmsis_gcc.h" 1
 305 0014 83F31188 		MSR basepri, r3
 306              	@ 0 "" 2
 307              	.LVL16:
 308              		.thumb
 309              		.syntax unified
 310 0018 10BD     		pop	{r4, pc}
 311              	.LBE162:
 312              	.LBE161:
 313              	.LBE160:
 314              	.LBE159:
 315              	.LBE158:
 316              	.LBE157:
 317              		.cfi_endproc
 318              	.LFE327:
 319              		.size	icuStartCapture, .-icuStartCapture
 320              		.section	.text.icuWaitCapture,"ax",%progbits
 321              		.align	1
 322              		.global	icuWaitCapture
 323              		.syntax unified
 324              		.thumb
 325              		.thumb_func
 326              		.fpu fpv4-sp-d16
 327              		.type	icuWaitCapture, %function
 328              	icuWaitCapture:
 329              	.LFB328:
 330              		.loc 1 151 0
 331              		.cfi_startproc
 332              		@ args = 0, pretend = 0, frame = 0
 333              		@ frame_needed = 0, uses_anonymous_args = 0
 334              	.LVL17:
 335 0000 10B5     		push	{r4, lr}
 336              		.cfi_def_cfa_offset 8
 337              		.cfi_offset 4, -8
 338              		.cfi_offset 14, -4
 339              	.LBB163:
 340              	.LBB164:
 341              	.LBB165:
 342              	.LBB166:
ARM GAS  /tmp/ccOyYqHr.s 			page 7


 343              	.LBB167:
 344              		.loc 2 493 0
 345 0002 2023     		movs	r3, #32
 346              	.LBE167:
 347              	.LBE166:
 348              	.LBE165:
 349              	.LBE164:
 350              	.LBE163:
 351              		.loc 1 151 0
 352 0004 0446     		mov	r4, r0
 353              	.LBB172:
 354              	.LBB171:
 355              	.LBB170:
 356              	.LBB169:
 357              	.LBB168:
 358              		.loc 2 493 0
 359              		.syntax unified
 360              	@ 493 "../../modules/ChibiOS/os/common/ext/ARM/CMSIS/Core/Include/cmsis_gcc.h" 1
 361 0006 83F31188 		MSR basepri, r3
 362              	@ 0 "" 2
 363              	.LVL18:
 364              		.thumb
 365              		.syntax unified
 366              	.LBE168:
 367              	.LBE169:
 368              	.LBE170:
 369              	.LBE171:
 370              	.LBE172:
 371              		.loc 1 161 0
 372 000a FFF7FEFF 		bl	icu_lld_wait_capture
 373              	.LVL19:
 374              		.loc 1 162 0
 375 000e 0028     		cmp	r0, #0
 376 0010 14BF     		ite	ne
 377 0012 0323     		movne	r3, #3
 378 0014 0423     		moveq	r3, #4
 379 0016 2370     		strb	r3, [r4]
 380              	.LVL20:
 381              	.LBB173:
 382              	.LBB174:
 383              	.LBB175:
 384              	.LBB176:
 385              	.LBB177:
 386              	.LBB178:
 387              		.loc 2 493 0
 388 0018 0023     		movs	r3, #0
 389              		.syntax unified
 390              	@ 493 "../../modules/ChibiOS/os/common/ext/ARM/CMSIS/Core/Include/cmsis_gcc.h" 1
 391 001a 83F31188 		MSR basepri, r3
 392              	@ 0 "" 2
 393              	.LVL21:
 394              		.thumb
 395              		.syntax unified
 396              	.LBE178:
 397              	.LBE177:
 398              	.LBE176:
 399              	.LBE175:
ARM GAS  /tmp/ccOyYqHr.s 			page 8


 400              	.LBE174:
 401              	.LBE173:
 402              		.loc 1 166 0
 403 001e 10BD     		pop	{r4, pc}
 404              		.cfi_endproc
 405              	.LFE328:
 406              		.size	icuWaitCapture, .-icuWaitCapture
 407              		.section	.text.icuStopCapture,"ax",%progbits
 408              		.align	1
 409              		.global	icuStopCapture
 410              		.syntax unified
 411              		.thumb
 412              		.thumb_func
 413              		.fpu fpv4-sp-d16
 414              		.type	icuStopCapture, %function
 415              	icuStopCapture:
 416              	.LFB329:
 417              		.loc 1 175 0
 418              		.cfi_startproc
 419              		@ args = 0, pretend = 0, frame = 0
 420              		@ frame_needed = 0, uses_anonymous_args = 0
 421              	.LVL22:
 422 0000 10B5     		push	{r4, lr}
 423              		.cfi_def_cfa_offset 8
 424              		.cfi_offset 4, -8
 425              		.cfi_offset 14, -4
 426              	.LBB179:
 427              	.LBB180:
 428              	.LBB181:
 429              	.LBB182:
 430              	.LBB183:
 431              		.loc 2 493 0
 432 0002 2023     		movs	r3, #32
 433              	.LBE183:
 434              	.LBE182:
 435              	.LBE181:
 436              	.LBE180:
 437              	.LBE179:
 438              		.loc 1 175 0
 439 0004 0446     		mov	r4, r0
 440              	.LBB188:
 441              	.LBB187:
 442              	.LBB186:
 443              	.LBB185:
 444              	.LBB184:
 445              		.loc 2 493 0
 446              		.syntax unified
 447              	@ 493 "../../modules/ChibiOS/os/common/ext/ARM/CMSIS/Core/Include/cmsis_gcc.h" 1
 448 0006 83F31188 		MSR basepri, r3
 449              	@ 0 "" 2
 450              	.LVL23:
 451              		.thumb
 452              		.syntax unified
 453              	.LBE184:
 454              	.LBE185:
 455              	.LBE186:
 456              	.LBE187:
ARM GAS  /tmp/ccOyYqHr.s 			page 9


 457              	.LBE188:
 458              		.loc 1 183 0
 459 000a FFF7FEFF 		bl	icu_lld_stop_capture
 460              	.LVL24:
 461 000e 0223     		movs	r3, #2
 462 0010 2370     		strb	r3, [r4]
 463              	.LVL25:
 464              	.LBB189:
 465              	.LBB190:
 466              	.LBB191:
 467              	.LBB192:
 468              	.LBB193:
 469              	.LBB194:
 470              		.loc 2 493 0
 471 0012 0023     		movs	r3, #0
 472              		.syntax unified
 473              	@ 493 "../../modules/ChibiOS/os/common/ext/ARM/CMSIS/Core/Include/cmsis_gcc.h" 1
 474 0014 83F31188 		MSR basepri, r3
 475              	@ 0 "" 2
 476              	.LVL26:
 477              		.thumb
 478              		.syntax unified
 479 0018 10BD     		pop	{r4, pc}
 480              	.LBE194:
 481              	.LBE193:
 482              	.LBE192:
 483              	.LBE191:
 484              	.LBE190:
 485              	.LBE189:
 486              		.cfi_endproc
 487              	.LFE329:
 488              		.size	icuStopCapture, .-icuStopCapture
 489              		.section	.text.icuEnableNotifications,"ax",%progbits
 490              		.align	1
 491              		.global	icuEnableNotifications
 492              		.syntax unified
 493              		.thumb
 494              		.thumb_func
 495              		.fpu fpv4-sp-d16
 496              		.type	icuEnableNotifications, %function
 497              	icuEnableNotifications:
 498              	.LFB330:
 499              		.loc 1 197 0
 500              		.cfi_startproc
 501              		@ args = 0, pretend = 0, frame = 0
 502              		@ frame_needed = 0, uses_anonymous_args = 0
 503              	.LVL27:
 504 0000 08B5     		push	{r3, lr}
 505              		.cfi_def_cfa_offset 8
 506              		.cfi_offset 3, -8
 507              		.cfi_offset 14, -4
 508              	.LBB195:
 509              	.LBB196:
 510              	.LBB197:
 511              	.LBB198:
 512              	.LBB199:
 513              		.loc 2 493 0
ARM GAS  /tmp/ccOyYqHr.s 			page 10


 514 0002 2023     		movs	r3, #32
 515              		.syntax unified
 516              	@ 493 "../../modules/ChibiOS/os/common/ext/ARM/CMSIS/Core/Include/cmsis_gcc.h" 1
 517 0004 83F31188 		MSR basepri, r3
 518              	@ 0 "" 2
 519              	.LVL28:
 520              		.thumb
 521              		.syntax unified
 522              	.LBE199:
 523              	.LBE198:
 524              	.LBE197:
 525              	.LBE196:
 526              	.LBE195:
 527              		.loc 1 204 0
 528 0008 FFF7FEFF 		bl	icu_lld_enable_notifications
 529              	.LVL29:
 530              	.LBB200:
 531              	.LBB201:
 532              	.LBB202:
 533              	.LBB203:
 534              	.LBB204:
 535              	.LBB205:
 536              		.loc 2 493 0
 537 000c 0023     		movs	r3, #0
 538              		.syntax unified
 539              	@ 493 "../../modules/ChibiOS/os/common/ext/ARM/CMSIS/Core/Include/cmsis_gcc.h" 1
 540 000e 83F31188 		MSR basepri, r3
 541              	@ 0 "" 2
 542              	.LVL30:
 543              		.thumb
 544              		.syntax unified
 545 0012 08BD     		pop	{r3, pc}
 546              	.LBE205:
 547              	.LBE204:
 548              	.LBE203:
 549              	.LBE202:
 550              	.LBE201:
 551              	.LBE200:
 552              		.cfi_endproc
 553              	.LFE330:
 554              		.size	icuEnableNotifications, .-icuEnableNotifications
 555              		.section	.text.icuDisableNotifications,"ax",%progbits
 556              		.align	1
 557              		.global	icuDisableNotifications
 558              		.syntax unified
 559              		.thumb
 560              		.thumb_func
 561              		.fpu fpv4-sp-d16
 562              		.type	icuDisableNotifications, %function
 563              	icuDisableNotifications:
 564              	.LFB331:
 565              		.loc 1 218 0
 566              		.cfi_startproc
 567              		@ args = 0, pretend = 0, frame = 0
 568              		@ frame_needed = 0, uses_anonymous_args = 0
 569              	.LVL31:
 570 0000 08B5     		push	{r3, lr}
ARM GAS  /tmp/ccOyYqHr.s 			page 11


 571              		.cfi_def_cfa_offset 8
 572              		.cfi_offset 3, -8
 573              		.cfi_offset 14, -4
 574              	.LBB206:
 575              	.LBB207:
 576              	.LBB208:
 577              	.LBB209:
 578              	.LBB210:
 579              		.loc 2 493 0
 580 0002 2023     		movs	r3, #32
 581              		.syntax unified
 582              	@ 493 "../../modules/ChibiOS/os/common/ext/ARM/CMSIS/Core/Include/cmsis_gcc.h" 1
 583 0004 83F31188 		MSR basepri, r3
 584              	@ 0 "" 2
 585              	.LVL32:
 586              		.thumb
 587              		.syntax unified
 588              	.LBE210:
 589              	.LBE209:
 590              	.LBE208:
 591              	.LBE207:
 592              	.LBE206:
 593              		.loc 1 225 0
 594 0008 FFF7FEFF 		bl	icu_lld_disable_notifications
 595              	.LVL33:
 596              	.LBB211:
 597              	.LBB212:
 598              	.LBB213:
 599              	.LBB214:
 600              	.LBB215:
 601              	.LBB216:
 602              		.loc 2 493 0
 603 000c 0023     		movs	r3, #0
 604              		.syntax unified
 605              	@ 493 "../../modules/ChibiOS/os/common/ext/ARM/CMSIS/Core/Include/cmsis_gcc.h" 1
 606 000e 83F31188 		MSR basepri, r3
 607              	@ 0 "" 2
 608              	.LVL34:
 609              		.thumb
 610              		.syntax unified
 611 0012 08BD     		pop	{r3, pc}
 612              	.LBE216:
 613              	.LBE215:
 614              	.LBE214:
 615              	.LBE213:
 616              	.LBE212:
 617              	.LBE211:
 618              		.cfi_endproc
 619              	.LFE331:
 620              		.size	icuDisableNotifications, .-icuDisableNotifications
 621              		.text
 622              	.Letext0:
 623              		.file 3 "/opt/gcc-arm-none-eabi-6-2017-q2-update/lib/gcc/arm-none-eabi/6.3.1/include/stddef.h"
 624              		.file 4 "/opt/gcc-arm-none-eabi-6-2017-q2-update/arm-none-eabi/include/machine/_default_types.h"
 625              		.file 5 "/opt/gcc-arm-none-eabi-6-2017-q2-update/arm-none-eabi/include/sys/_stdint.h"
 626              		.file 6 "/opt/gcc-arm-none-eabi-6-2017-q2-update/arm-none-eabi/include/stdint.h"
 627              		.file 7 "../../modules/ChibiOS/os/common/ports/ARMCMx/compilers/GCC/chtypes.h"
ARM GAS  /tmp/ccOyYqHr.s 			page 12


 628              		.file 8 "../../modules/ChibiOS/os/rt/include/chsystypes.h"
 629              		.file 9 "../../modules/ChibiOS/os/rt/include/chschd.h"
 630              		.file 10 "../../modules/ChibiOS/os/rt/include/chtime.h"
 631              		.file 11 "../../modules/ChibiOS/os/common/ext/ARM/CMSIS/Core/Include/core_cm4.h"
 632              		.file 12 "../../modules/ChibiOS/os/common/ext/ST/STM32F4xx/system_stm32f4xx.h"
 633              		.file 13 "../../modules/ChibiOS/os/common/ext/ST/STM32F4xx/stm32f407xx.h"
 634              		.file 14 "../../modules/ChibiOS/os/common/ports/ARMCMx/chcore.h"
 635              		.file 15 "../../modules/ChibiOS/os/common/ports/ARMCMx/chcore_v7m.h"
 636              		.file 16 "../../modules/ChibiOS/os/hal/ports/STM32/LLD/TIMv1/stm32_tim.h"
 637              		.file 17 "../../modules/ChibiOS/os/rt/include/chtm.h"
 638              		.file 18 "../../modules/ChibiOS/os/rt/include/chsem.h"
 639              		.file 19 "../../modules/ChibiOS/os/rt/include/chmtx.h"
 640              		.file 20 "../../modules/ChibiOS/os/rt/include/chsys.h"
 641              		.file 21 "../../modules/ChibiOS/os/rt/include/chregistry.h"
 642              		.file 22 "../../modules/ChibiOS/os/rt/include/chevents.h"
 643              		.file 23 "../../modules/ChibiOS/os/oslib/include/chmemcore.h"
 644              		.file 24 "../../modules/ChibiOS/os/oslib/include/chmempools.h"
 645              		.file 25 "../../modules/ChibiOS/os/oslib/include/chfactory.h"
 646              		.file 26 "../../modules/ChibiOS/os/hal/ports/STM32/LLD/DMAv2/stm32_dma.h"
 647              		.file 27 "../../modules/ChibiOS/os/hal/include/hal_queues.h"
 648              		.file 28 "../../modules/ChibiOS/os/hal/include/hal_pal.h"
 649              		.file 29 "../../modules/ChibiOS/os/hal/ports/STM32/LLD/GPIOv2/stm32_gpio.h"
 650              		.file 30 "../../modules/ChibiOS/os/hal/ports/STM32/LLD/GPIOv2/hal_pal_lld.h"
 651              		.file 31 "../../modules/ChibiOS/os/hal/include/hal_adc.h"
 652              		.file 32 "../../modules/ChibiOS/os/hal/ports/STM32/LLD/ADCv2/hal_adc_lld.h"
 653              		.file 33 "../../modules/ChibiOS/os/hal/include/hal_i2c.h"
 654              		.file 34 "../../modules/ChibiOS/os/hal/ports/STM32/LLD/I2Cv1/hal_i2c_lld.h"
 655              		.file 35 "../../modules/ChibiOS/os/hal/include/hal_icu.h"
 656              		.file 36 "../../modules/ChibiOS/os/hal/ports/STM32/LLD/TIMv1/hal_icu_lld.h"
 657              		.file 37 "../../modules/ChibiOS/os/hal/include/hal_pwm.h"
 658              		.file 38 "../../modules/ChibiOS/os/hal/ports/STM32/LLD/TIMv1/hal_pwm_lld.h"
 659              		.file 39 "../../modules/ChibiOS/os/hal/include/hal_serial.h"
 660              		.file 40 "../../modules/ChibiOS/os/hal/ports/STM32/LLD/USARTv1/hal_serial_lld.h"
 661              		.file 41 "../../modules/ChibiOS/os/hal/include/hal_spi.h"
 662              		.file 42 "../../modules/ChibiOS/os/hal/ports/STM32/LLD/SPIv1/hal_spi_lld.h"
 663              		.file 43 "../../modules/ChibiOS/os/hal/include/hal_usb.h"
 664              		.file 44 "../../modules/ChibiOS/os/hal/ports/STM32/LLD/OTGv1/hal_usb_lld.h"
 665              		.file 45 "../../modules/ChibiOS/os/hal/ports/STM32/LLD/OTGv1/stm32_otg.h"
 666              		.file 46 "../../modules/ChibiOS/os/hal/osal/rt/osal.h"