ARM GAS  /tmp/ccRz3nbZ.s 			page 1


   1              		.cpu cortex-m4
   2              		.eabi_attribute 27, 1
   3              		.eabi_attribute 28, 1
   4              		.eabi_attribute 20, 1
   5              		.eabi_attribute 21, 1
   6              		.eabi_attribute 23, 3
   7              		.eabi_attribute 24, 1
   8              		.eabi_attribute 25, 1
   9              		.eabi_attribute 26, 1
  10              		.eabi_attribute 30, 4
  11              		.eabi_attribute 34, 1
  12              		.eabi_attribute 18, 4
  13              		.file	"hal_st.c"
  14              		.text
  15              	.Ltext0:
  16              		.cfi_sections	.debug_frame
  17              		.section	.text.stInit,"ax",%progbits
  18              		.align	1
  19              		.global	stInit
  20              		.syntax unified
  21              		.thumb
  22              		.thumb_func
  23              		.fpu fpv4-sp-d16
  24              		.type	stInit, %function
  25              	stInit:
  26              	.LFB323:
  27              		.file 1 "../../modules/ChibiOS/os/hal/src/hal_st.c"
  28              		.loc 1 60 0
  29              		.cfi_startproc
  30              		@ args = 0, pretend = 0, frame = 0
  31              		@ frame_needed = 0, uses_anonymous_args = 0
  32              		@ link register save eliminated.
  33              		.loc 1 62 0
  34 0000 FFF7FEBF 		b	st_lld_init
  35              	.LVL0:
  36              		.cfi_endproc
  37              	.LFE323:
  38              		.size	stInit, .-stInit
  39              		.section	.text.stStartAlarm,"ax",%progbits
  40              		.align	1
  41              		.global	stStartAlarm
  42              		.syntax unified
  43              		.thumb
  44              		.thumb_func
  45              		.fpu fpv4-sp-d16
  46              		.type	stStartAlarm, %function
  47              	stStartAlarm:
  48              	.LFB324:
  49              		.loc 1 77 0
  50              		.cfi_startproc
  51              		@ args = 0, pretend = 0, frame = 0
  52              		@ frame_needed = 0, uses_anonymous_args = 0
  53              		@ link register save eliminated.
  54              	.LVL1:
  55              	.LBB10:
  56              	.LBB11:
  57              		.file 2 "../../modules/ChibiOS/os/hal/ports/STM32/LLD/TIMv1/hal_st_lld.h"
ARM GAS  /tmp/ccRz3nbZ.s 			page 2


  58              		.loc 2 182 0
  59 0000 034B     		ldr	r3, .L3
  60              		.loc 2 183 0
  61 0002 0022     		movs	r2, #0
  62              		.loc 2 182 0
  63 0004 5863     		str	r0, [r3, #52]
  64              		.loc 2 183 0
  65 0006 1A61     		str	r2, [r3, #16]
  66              		.loc 2 184 0
  67 0008 0222     		movs	r2, #2
  68 000a DA60     		str	r2, [r3, #12]
  69              	.LVL2:
  70 000c 7047     		bx	lr
  71              	.L4:
  72 000e 00BF     		.align	2
  73              	.L3:
  74 0010 000C0040 		.word	1073744896
  75              	.LBE11:
  76              	.LBE10:
  77              		.cfi_endproc
  78              	.LFE324:
  79              		.size	stStartAlarm, .-stStartAlarm
  80              		.section	.text.stStopAlarm,"ax",%progbits
  81              		.align	1
  82              		.global	stStopAlarm
  83              		.syntax unified
  84              		.thumb
  85              		.thumb_func
  86              		.fpu fpv4-sp-d16
  87              		.type	stStopAlarm, %function
  88              	stStopAlarm:
  89              	.LFB325:
  90              		.loc 1 91 0
  91              		.cfi_startproc
  92              		@ args = 0, pretend = 0, frame = 0
  93              		@ frame_needed = 0, uses_anonymous_args = 0
  94              		@ link register save eliminated.
  95              	.LBB12:
  96              	.LBB13:
  97              		.loc 2 194 0
  98 0000 014B     		ldr	r3, .L6
  99 0002 0022     		movs	r2, #0
 100 0004 DA60     		str	r2, [r3, #12]
 101 0006 7047     		bx	lr
 102              	.L7:
 103              		.align	2
 104              	.L6:
 105 0008 000C0040 		.word	1073744896
 106              	.LBE13:
 107              	.LBE12:
 108              		.cfi_endproc
 109              	.LFE325:
 110              		.size	stStopAlarm, .-stStopAlarm
 111              		.section	.text.stSetAlarm,"ax",%progbits
 112              		.align	1
 113              		.global	stSetAlarm
 114              		.syntax unified
ARM GAS  /tmp/ccRz3nbZ.s 			page 3


 115              		.thumb
 116              		.thumb_func
 117              		.fpu fpv4-sp-d16
 118              		.type	stSetAlarm, %function
 119              	stSetAlarm:
 120              	.LFB326:
 121              		.loc 1 105 0
 122              		.cfi_startproc
 123              		@ args = 0, pretend = 0, frame = 0
 124              		@ frame_needed = 0, uses_anonymous_args = 0
 125              		@ link register save eliminated.
 126              	.LVL3:
 127              	.LBB14:
 128              	.LBB15:
 129              		.loc 2 206 0
 130 0000 014B     		ldr	r3, .L9
 131 0002 5863     		str	r0, [r3, #52]
 132              	.LVL4:
 133 0004 7047     		bx	lr
 134              	.L10:
 135 0006 00BF     		.align	2
 136              	.L9:
 137 0008 000C0040 		.word	1073744896
 138              	.LBE15:
 139              	.LBE14:
 140              		.cfi_endproc
 141              	.LFE326:
 142              		.size	stSetAlarm, .-stSetAlarm
 143              		.section	.text.stGetAlarm,"ax",%progbits
 144              		.align	1
 145              		.global	stGetAlarm
 146              		.syntax unified
 147              		.thumb
 148              		.thumb_func
 149              		.fpu fpv4-sp-d16
 150              		.type	stGetAlarm, %function
 151              	stGetAlarm:
 152              	.LFB327:
 153              		.loc 1 121 0
 154              		.cfi_startproc
 155              		@ args = 0, pretend = 0, frame = 0
 156              		@ frame_needed = 0, uses_anonymous_args = 0
 157              		@ link register save eliminated.
 158              	.LBB16:
 159              	.LBB17:
 160              		.loc 2 218 0
 161 0000 014B     		ldr	r3, .L12
 162 0002 586B     		ldr	r0, [r3, #52]
 163              	.LBE17:
 164              	.LBE16:
 165              		.loc 1 126 0
 166 0004 7047     		bx	lr
 167              	.L13:
 168 0006 00BF     		.align	2
 169              	.L12:
 170 0008 000C0040 		.word	1073744896
 171              		.cfi_endproc
ARM GAS  /tmp/ccRz3nbZ.s 			page 4


 172              	.LFE327:
 173              		.size	stGetAlarm, .-stGetAlarm
 174              		.text
 175              	.Letext0:
 176              		.file 3 "/opt/gcc-arm-none-eabi-6-2017-q2-update/lib/gcc/arm-none-eabi/6.3.1/include/stddef.h"
 177              		.file 4 "/opt/gcc-arm-none-eabi-6-2017-q2-update/arm-none-eabi/include/machine/_default_types.h"
 178              		.file 5 "/opt/gcc-arm-none-eabi-6-2017-q2-update/arm-none-eabi/include/sys/_stdint.h"
 179              		.file 6 "/opt/gcc-arm-none-eabi-6-2017-q2-update/arm-none-eabi/include/stdint.h"
 180              		.file 7 "../../modules/ChibiOS/os/common/ports/ARMCMx/compilers/GCC/chtypes.h"
 181              		.file 8 "../../modules/ChibiOS/os/rt/include/chsystypes.h"
 182              		.file 9 "../../modules/ChibiOS/os/rt/include/chschd.h"
 183              		.file 10 "../../modules/ChibiOS/os/rt/include/chtime.h"
 184              		.file 11 "../../modules/ChibiOS/os/common/ext/ARM/CMSIS/Core/Include/core_cm4.h"
 185              		.file 12 "../../modules/ChibiOS/os/common/ext/ST/STM32F4xx/system_stm32f4xx.h"
 186              		.file 13 "../../modules/ChibiOS/os/common/ext/ST/STM32F4xx/stm32f407xx.h"
 187              		.file 14 "../../modules/ChibiOS/os/common/ports/ARMCMx/chcore.h"
 188              		.file 15 "../../modules/ChibiOS/os/common/ports/ARMCMx/chcore_v7m.h"
 189              		.file 16 "../../modules/ChibiOS/os/hal/ports/STM32/LLD/TIMv1/stm32_tim.h"
 190              		.file 17 "../../modules/ChibiOS/os/rt/include/chtm.h"
 191              		.file 18 "../../modules/ChibiOS/os/rt/include/chsem.h"
 192              		.file 19 "../../modules/ChibiOS/os/rt/include/chmtx.h"
 193              		.file 20 "../../modules/ChibiOS/os/rt/include/chsys.h"
 194              		.file 21 "../../modules/ChibiOS/os/rt/include/chregistry.h"
 195              		.file 22 "../../modules/ChibiOS/os/rt/include/chevents.h"
 196              		.file 23 "../../modules/ChibiOS/os/oslib/include/chmemcore.h"
 197              		.file 24 "../../modules/ChibiOS/os/oslib/include/chmempools.h"
 198              		.file 25 "../../modules/ChibiOS/os/oslib/include/chfactory.h"
 199              		.file 26 "../../modules/ChibiOS/os/hal/ports/STM32/LLD/DMAv2/stm32_dma.h"
 200              		.file 27 "../../modules/ChibiOS/os/hal/include/hal_queues.h"
 201              		.file 28 "../../modules/ChibiOS/os/hal/include/hal_pal.h"
 202              		.file 29 "../../modules/ChibiOS/os/hal/ports/STM32/LLD/GPIOv2/stm32_gpio.h"
 203              		.file 30 "../../modules/ChibiOS/os/hal/ports/STM32/LLD/GPIOv2/hal_pal_lld.h"
 204              		.file 31 "../../modules/ChibiOS/os/hal/include/hal_adc.h"
 205              		.file 32 "../../modules/ChibiOS/os/hal/ports/STM32/LLD/ADCv2/hal_adc_lld.h"
 206              		.file 33 "../../modules/ChibiOS/os/hal/include/hal_i2c.h"
 207              		.file 34 "../../modules/ChibiOS/os/hal/ports/STM32/LLD/I2Cv1/hal_i2c_lld.h"
 208              		.file 35 "../../modules/ChibiOS/os/hal/include/hal_icu.h"
 209              		.file 36 "../../modules/ChibiOS/os/hal/ports/STM32/LLD/TIMv1/hal_icu_lld.h"
 210              		.file 37 "../../modules/ChibiOS/os/hal/include/hal_pwm.h"
 211              		.file 38 "../../modules/ChibiOS/os/hal/ports/STM32/LLD/TIMv1/hal_pwm_lld.h"
 212              		.file 39 "../../modules/ChibiOS/os/hal/include/hal_serial.h"
 213              		.file 40 "../../modules/ChibiOS/os/hal/ports/STM32/LLD/USARTv1/hal_serial_lld.h"
 214              		.file 41 "../../modules/ChibiOS/os/hal/include/hal_spi.h"
 215              		.file 42 "../../modules/ChibiOS/os/hal/ports/STM32/LLD/SPIv1/hal_spi_lld.h"
 216              		.file 43 "../../modules/ChibiOS/os/hal/include/hal_usb.h"
 217              		.file 44 "../../modules/ChibiOS/os/hal/ports/STM32/LLD/OTGv1/hal_usb_lld.h"
 218              		.file 45 "../../modules/ChibiOS/os/hal/ports/STM32/LLD/OTGv1/stm32_otg.h"