ARM GAS  /tmp/ccm60nXI.s 			page 1


   1              		.cpu cortex-m4
   2              		.eabi_attribute 27, 1
   3              		.eabi_attribute 28, 1
   4              		.eabi_attribute 20, 1
   5              		.eabi_attribute 21, 1
   6              		.eabi_attribute 23, 3
   7              		.eabi_attribute 24, 1
   8              		.eabi_attribute 25, 1
   9              		.eabi_attribute 26, 1
  10              		.eabi_attribute 30, 4
  11              		.eabi_attribute 34, 1
  12              		.eabi_attribute 18, 4
  13              		.file	"hal_pwm_lld.c"
  14              		.text
  15              	.Ltext0:
  16              		.cfi_sections	.debug_frame
  17              		.section	.text.pwm_lld_init,"ax",%progbits
  18              		.align	1
  19              		.global	pwm_lld_init
  20              		.syntax unified
  21              		.thumb
  22              		.thumb_func
  23              		.fpu fpv4-sp-d16
  24              		.type	pwm_lld_init, %function
  25              	pwm_lld_init:
  26              	.LFB323:
  27              		.file 1 "../../modules/ChibiOS/os/hal/ports/STM32/LLD/TIMv1/hal_pwm_lld.c"
  28              		.loc 1 391 0
  29              		.cfi_startproc
  30              		@ args = 0, pretend = 0, frame = 0
  31              		@ frame_needed = 0, uses_anonymous_args = 0
  32 0000 38B5     		push	{r3, r4, r5, lr}
  33              		.cfi_def_cfa_offset 16
  34              		.cfi_offset 3, -16
  35              		.cfi_offset 4, -12
  36              		.cfi_offset 5, -8
  37              		.cfi_offset 14, -4
  38              		.loc 1 395 0
  39 0002 104C     		ldr	r4, .L2
  40 0004 2046     		mov	r0, r4
  41 0006 FFF7FEFF 		bl	pwmObjectInit
  42              	.LVL0:
  43              		.loc 1 396 0
  44 000a 0425     		movs	r5, #4
  45              		.loc 1 397 0
  46 000c 0E4B     		ldr	r3, .L2+4
  47 000e A361     		str	r3, [r4, #24]
  48              		.loc 1 396 0
  49 0010 2574     		strb	r5, [r4, #16]
  50              		.loc 1 402 0
  51 0012 0E4C     		ldr	r4, .L2+8
  52 0014 2046     		mov	r0, r4
  53 0016 FFF7FEFF 		bl	pwmObjectInit
  54              	.LVL1:
  55              		.loc 1 404 0
  56 001a 4FF08043 		mov	r3, #1073741824
  57 001e A361     		str	r3, [r4, #24]
ARM GAS  /tmp/ccm60nXI.s 			page 2


  58              		.loc 1 403 0
  59 0020 2574     		strb	r5, [r4, #16]
  60              		.loc 1 416 0
  61 0022 0B4C     		ldr	r4, .L2+12
  62 0024 2046     		mov	r0, r4
  63 0026 FFF7FEFF 		bl	pwmObjectInit
  64              	.LVL2:
  65              		.loc 1 418 0
  66 002a 0A4B     		ldr	r3, .L2+16
  67 002c A361     		str	r3, [r4, #24]
  68              		.loc 1 417 0
  69 002e 2574     		strb	r5, [r4, #16]
  70              		.loc 1 437 0
  71 0030 094C     		ldr	r4, .L2+20
  72 0032 2046     		mov	r0, r4
  73 0034 FFF7FEFF 		bl	pwmObjectInit
  74              	.LVL3:
  75              		.loc 1 438 0
  76 0038 0223     		movs	r3, #2
  77 003a 2374     		strb	r3, [r4, #16]
  78              		.loc 1 439 0
  79 003c 074B     		ldr	r3, .L2+24
  80 003e A361     		str	r3, [r4, #24]
  81 0040 38BD     		pop	{r3, r4, r5, pc}
  82              	.L3:
  83 0042 00BF     		.align	2
  84              	.L2:
  85 0044 00000000 		.word	.LANCHOR0
  86 0048 00000140 		.word	1073807360
  87 004c 00000000 		.word	.LANCHOR1
  88 0050 00000000 		.word	.LANCHOR2
  89 0054 00080040 		.word	1073743872
  90 0058 00000000 		.word	.LANCHOR3
  91 005c 00400140 		.word	1073823744
  92              		.cfi_endproc
  93              	.LFE323:
  94              		.size	pwm_lld_init, .-pwm_lld_init
  95              		.section	.text.pwm_lld_start,"ax",%progbits
  96              		.align	1
  97              		.global	pwm_lld_start
  98              		.syntax unified
  99              		.thumb
 100              		.thumb_func
 101              		.fpu fpv4-sp-d16
 102              		.type	pwm_lld_start, %function
 103              	pwm_lld_start:
 104              	.LFB324:
 105              		.loc 1 494 0
 106              		.cfi_startproc
 107              		@ args = 0, pretend = 0, frame = 0
 108              		@ frame_needed = 0, uses_anonymous_args = 0
 109              	.LVL4:
 110              		.loc 1 498 0
 111 0000 0378     		ldrb	r3, [r0]	@ zero_extendqisi2
 112 0002 8269     		ldr	r2, [r0, #24]
 113 0004 012B     		cmp	r3, #1
 114              		.loc 1 494 0
ARM GAS  /tmp/ccm60nXI.s 			page 3


 115 0006 10B5     		push	{r4, lr}
 116              		.cfi_def_cfa_offset 8
 117              		.cfi_offset 4, -8
 118              		.cfi_offset 14, -4
 119              		.loc 1 498 0
 120 0008 40F0A380 		bne	.L5
 121              		.loc 1 501 0
 122 000c 574B     		ldr	r3, .L38
 123 000e 9842     		cmp	r0, r3
 124 0010 14D1     		bne	.L6
 125              		.loc 1 502 0
 126 0012 574B     		ldr	r3, .L38+4
 127 0014 596C     		ldr	r1, [r3, #68]
 128 0016 41F00101 		orr	r1, r1, #1
 129 001a 5964     		str	r1, [r3, #68]
 130 001c 596E     		ldr	r1, [r3, #100]
 131 001e 41F00101 		orr	r1, r1, #1
 132 0022 5966     		str	r1, [r3, #100]
 133 0024 596E     		ldr	r1, [r3, #100]
 134              		.loc 1 503 0
 135 0026 596A     		ldr	r1, [r3, #36]
 136 0028 41F00101 		orr	r1, r1, #1
 137 002c 5962     		str	r1, [r3, #36]
 138 002e 596A     		ldr	r1, [r3, #36]
 139 0030 21F00101 		bic	r1, r1, #1
 140              	.L36:
 141              		.loc 1 595 0
 142 0034 5962     		str	r1, [r3, #36]
 143 0036 5B6A     		ldr	r3, [r3, #36]
 144              		.loc 1 602 0
 145 0038 4E4B     		ldr	r3, .L38+8
 146 003a 16E0     		b	.L35
 147              	.L6:
 148              		.loc 1 517 0
 149 003c 4E4B     		ldr	r3, .L38+12
 150 003e 9842     		cmp	r0, r3
 151 0040 5DD1     		bne	.L8
 152              		.loc 1 518 0
 153 0042 4B4B     		ldr	r3, .L38+4
 154 0044 196C     		ldr	r1, [r3, #64]
 155 0046 41F00101 		orr	r1, r1, #1
 156 004a 1964     		str	r1, [r3, #64]
 157 004c 196E     		ldr	r1, [r3, #96]
 158 004e 41F00101 		orr	r1, r1, #1
 159 0052 1966     		str	r1, [r3, #96]
 160 0054 196E     		ldr	r1, [r3, #96]
 161              		.loc 1 519 0
 162 0056 196A     		ldr	r1, [r3, #32]
 163 0058 41F00101 		orr	r1, r1, #1
 164 005c 1962     		str	r1, [r3, #32]
 165 005e 196A     		ldr	r1, [r3, #32]
 166 0060 21F00101 		bic	r1, r1, #1
 167              	.L37:
 168              		.loc 1 549 0
 169 0064 1962     		str	r1, [r3, #32]
 170 0066 1B6A     		ldr	r3, [r3, #32]
 171              		.loc 1 556 0
ARM GAS  /tmp/ccm60nXI.s 			page 4


 172 0068 444B     		ldr	r3, .L38+16
 173              	.L35:
 174              		.loc 1 602 0
 175 006a 4361     		str	r3, [r0, #20]
 176              	.L7:
 177              		.loc 1 681 0
 178 006c 46F66803 		movw	r3, #26728
 179 0070 9361     		str	r3, [r2, #24]
 180              		.loc 1 683 0
 181 0072 D361     		str	r3, [r2, #28]
 182              	.L10:
 183              		.loc 1 707 0
 184 0074 4168     		ldr	r1, [r0, #4]
 185 0076 4369     		ldr	r3, [r0, #20]
 186 0078 0C68     		ldr	r4, [r1]
 187 007a B3FBF4F3 		udiv	r3, r3, r4
 188 007e 013B     		subs	r3, r3, #1
 189              	.LVL5:
 190              		.loc 1 709 0
 191 0080 9362     		str	r3, [r2, #40]
 192              		.loc 1 710 0
 193 0082 8368     		ldr	r3, [r0, #8]
 194              	.LVL6:
 195 0084 013B     		subs	r3, r3, #1
 196 0086 D362     		str	r3, [r2, #44]
 197              	.LVL7:
 198              		.loc 1 711 0
 199 0088 CB6A     		ldr	r3, [r1, #44]
 200 008a 5360     		str	r3, [r2, #4]
 201              	.LVL8:
 202              		.loc 1 715 0
 203 008c CB68     		ldr	r3, [r1, #12]
 204 008e 03F00F03 		and	r3, r3, #15
 205 0092 012B     		cmp	r3, #1
 206 0094 65D0     		beq	.L24
 207 0096 022B     		cmp	r3, #2
 208 0098 65D1     		bne	.L34
 209              	.L12:
 210              	.LVL9:
 211              		.loc 1 720 0
 212 009a 43F00103 		orr	r3, r3, #1
 213              	.LVL10:
 214              	.L11:
 215              		.loc 1 725 0
 216 009e 4869     		ldr	r0, [r1, #20]
 217              	.LVL11:
 218 00a0 00F00F00 		and	r0, r0, #15
 219 00a4 0128     		cmp	r0, #1
 220 00a6 03D0     		beq	.L15
 221 00a8 0228     		cmp	r0, #2
 222 00aa 03D1     		bne	.L14
 223              		.loc 1 727 0
 224 00ac 43F02003 		orr	r3, r3, #32
 225              	.LVL12:
 226              	.L15:
 227              		.loc 1 730 0
 228 00b0 43F01003 		orr	r3, r3, #16
ARM GAS  /tmp/ccm60nXI.s 			page 5


 229              	.LVL13:
 230              	.L14:
 231              		.loc 1 735 0
 232 00b4 C869     		ldr	r0, [r1, #28]
 233 00b6 00F00F00 		and	r0, r0, #15
 234 00ba 0128     		cmp	r0, #1
 235 00bc 03D0     		beq	.L18
 236 00be 0228     		cmp	r0, #2
 237 00c0 03D1     		bne	.L17
 238              		.loc 1 737 0
 239 00c2 43F40073 		orr	r3, r3, #512
 240              	.LVL14:
 241              	.L18:
 242              		.loc 1 740 0
 243 00c6 43F48073 		orr	r3, r3, #256
 244              	.LVL15:
 245              	.L17:
 246              		.loc 1 745 0
 247 00ca 486A     		ldr	r0, [r1, #36]
 248 00cc 00F00F00 		and	r0, r0, #15
 249 00d0 0128     		cmp	r0, #1
 250 00d2 03D0     		beq	.L21
 251 00d4 0228     		cmp	r0, #2
 252 00d6 03D1     		bne	.L20
 253              		.loc 1 747 0
 254 00d8 43F40053 		orr	r3, r3, #8192
 255              	.LVL16:
 256              	.L21:
 257              		.loc 1 750 0
 258 00dc 43F48053 		orr	r3, r3, #4096
 259              	.LVL17:
 260              	.L20:
 261              		.loc 1 798 0
 262 00e0 1362     		str	r3, [r2, #32]
 263              		.loc 1 799 0
 264 00e2 0123     		movs	r3, #1
 265              	.LVL18:
 266 00e4 5361     		str	r3, [r2, #20]
 267              	.LVL19:
 268              		.loc 1 800 0
 269 00e6 0023     		movs	r3, #0
 270 00e8 1361     		str	r3, [r2, #16]
 271              		.loc 1 801 0
 272 00ea 0B6B     		ldr	r3, [r1, #48]
 273 00ec 23F0FF03 		bic	r3, r3, #255
 274 00f0 D360     		str	r3, [r2, #12]
 275              		.loc 1 807 0
 276 00f2 4FF40043 		mov	r3, #32768
 277 00f6 5364     		str	r3, [r2, #68]
 278              		.loc 1 811 0
 279 00f8 8523     		movs	r3, #133
 280 00fa 1360     		str	r3, [r2]
 281 00fc 10BD     		pop	{r4, pc}
 282              	.LVL20:
 283              	.L8:
 284              		.loc 1 547 0
 285 00fe 204B     		ldr	r3, .L38+20
ARM GAS  /tmp/ccm60nXI.s 			page 6


 286 0100 9842     		cmp	r0, r3
 287 0102 11D1     		bne	.L9
 288              		.loc 1 548 0
 289 0104 1A4B     		ldr	r3, .L38+4
 290 0106 196C     		ldr	r1, [r3, #64]
 291 0108 41F00401 		orr	r1, r1, #4
 292 010c 1964     		str	r1, [r3, #64]
 293 010e 196E     		ldr	r1, [r3, #96]
 294 0110 41F00401 		orr	r1, r1, #4
 295 0114 1966     		str	r1, [r3, #96]
 296 0116 196E     		ldr	r1, [r3, #96]
 297              		.loc 1 549 0
 298 0118 196A     		ldr	r1, [r3, #32]
 299 011a 41F00401 		orr	r1, r1, #4
 300 011e 1962     		str	r1, [r3, #32]
 301 0120 196A     		ldr	r1, [r3, #32]
 302 0122 21F00401 		bic	r1, r1, #4
 303 0126 9DE7     		b	.L37
 304              	.L9:
 305              		.loc 1 593 0
 306 0128 164B     		ldr	r3, .L38+24
 307 012a 9842     		cmp	r0, r3
 308 012c 9ED1     		bne	.L7
 309              		.loc 1 594 0
 310 012e 104B     		ldr	r3, .L38+4
 311 0130 596C     		ldr	r1, [r3, #68]
 312 0132 41F48031 		orr	r1, r1, #65536
 313 0136 5964     		str	r1, [r3, #68]
 314 0138 596E     		ldr	r1, [r3, #100]
 315 013a 41F48031 		orr	r1, r1, #65536
 316 013e 5966     		str	r1, [r3, #100]
 317 0140 596E     		ldr	r1, [r3, #100]
 318              		.loc 1 595 0
 319 0142 596A     		ldr	r1, [r3, #36]
 320 0144 41F48031 		orr	r1, r1, #65536
 321 0148 5962     		str	r1, [r3, #36]
 322 014a 596A     		ldr	r1, [r3, #36]
 323 014c 21F48031 		bic	r1, r1, #65536
 324 0150 70E7     		b	.L36
 325              	.L5:
 326              		.loc 1 692 0
 327 0152 0023     		movs	r3, #0
 328 0154 1360     		str	r3, [r2]
 329              		.loc 1 693 0
 330 0156 5363     		str	r3, [r2, #52]
 331              		.loc 1 694 0
 332 0158 9363     		str	r3, [r2, #56]
 333              		.loc 1 695 0
 334 015a D363     		str	r3, [r2, #60]
 335              		.loc 1 696 0
 336 015c 1364     		str	r3, [r2, #64]
 337              		.loc 1 703 0
 338 015e 5362     		str	r3, [r2, #36]
 339 0160 88E7     		b	.L10
 340              	.LVL21:
 341              	.L24:
 342              		.loc 1 714 0
ARM GAS  /tmp/ccm60nXI.s 			page 7


 343 0162 0023     		movs	r3, #0
 344 0164 99E7     		b	.L12
 345              	.L34:
 346 0166 0023     		movs	r3, #0
 347 0168 99E7     		b	.L11
 348              	.L39:
 349 016a 00BF     		.align	2
 350              	.L38:
 351 016c 00000000 		.word	.LANCHOR0
 352 0170 00380240 		.word	1073887232
 353 0174 007A030A 		.word	168000000
 354 0178 00000000 		.word	.LANCHOR1
 355 017c 00BD0105 		.word	84000000
 356 0180 00000000 		.word	.LANCHOR2
 357 0184 00000000 		.word	.LANCHOR3
 358              		.cfi_endproc
 359              	.LFE324:
 360              		.size	pwm_lld_start, .-pwm_lld_start
 361              		.section	.text.pwm_lld_stop,"ax",%progbits
 362              		.align	1
 363              		.global	pwm_lld_stop
 364              		.syntax unified
 365              		.thumb
 366              		.thumb_func
 367              		.fpu fpv4-sp-d16
 368              		.type	pwm_lld_stop, %function
 369              	pwm_lld_stop:
 370              	.LFB325:
 371              		.loc 1 822 0
 372              		.cfi_startproc
 373              		@ args = 0, pretend = 0, frame = 0
 374              		@ frame_needed = 0, uses_anonymous_args = 0
 375              		@ link register save eliminated.
 376              	.LVL22:
 377              		.loc 1 825 0
 378 0000 0378     		ldrb	r3, [r0]	@ zero_extendqisi2
 379 0002 022B     		cmp	r3, #2
 380 0004 12D1     		bne	.L40
 381              		.loc 1 826 0
 382 0006 8369     		ldr	r3, [r0, #24]
 383 0008 0022     		movs	r2, #0
 384 000a 1A60     		str	r2, [r3]
 385              		.loc 1 827 0
 386 000c DA60     		str	r2, [r3, #12]
 387              		.loc 1 828 0
 388 000e 1A61     		str	r2, [r3, #16]
 389              		.loc 1 830 0
 390 0010 5A64     		str	r2, [r3, #68]
 391              		.loc 1 834 0
 392 0012 1A4B     		ldr	r3, .L49
 393 0014 9842     		cmp	r0, r3
 394 0016 0AD1     		bne	.L43
 395              		.loc 1 839 0
 396 0018 194B     		ldr	r3, .L49+4
 397 001a 5A6C     		ldr	r2, [r3, #68]
 398 001c 22F00102 		bic	r2, r2, #1
 399 0020 5A64     		str	r2, [r3, #68]
ARM GAS  /tmp/ccm60nXI.s 			page 8


 400 0022 5A6E     		ldr	r2, [r3, #100]
 401 0024 22F00102 		bic	r2, r2, #1
 402              	.L47:
 403              		.loc 1 894 0
 404 0028 5A66     		str	r2, [r3, #100]
 405 002a 5B6E     		ldr	r3, [r3, #100]
 406              	.L40:
 407 002c 7047     		bx	lr
 408              	.L43:
 409              		.loc 1 844 0
 410 002e 154B     		ldr	r3, .L49+8
 411 0030 9842     		cmp	r0, r3
 412 0032 0AD1     		bne	.L45
 413              		.loc 1 848 0
 414 0034 124B     		ldr	r3, .L49+4
 415 0036 1A6C     		ldr	r2, [r3, #64]
 416 0038 22F00102 		bic	r2, r2, #1
 417 003c 1A64     		str	r2, [r3, #64]
 418 003e 1A6E     		ldr	r2, [r3, #96]
 419 0040 22F00102 		bic	r2, r2, #1
 420              	.L48:
 421              		.loc 1 866 0
 422 0044 1A66     		str	r2, [r3, #96]
 423 0046 1B6E     		ldr	r3, [r3, #96]
 424 0048 7047     		bx	lr
 425              	.L45:
 426              		.loc 1 862 0
 427 004a 0F4B     		ldr	r3, .L49+12
 428 004c 9842     		cmp	r0, r3
 429 004e 08D1     		bne	.L46
 430              		.loc 1 866 0
 431 0050 0B4B     		ldr	r3, .L49+4
 432 0052 1A6C     		ldr	r2, [r3, #64]
 433 0054 22F00402 		bic	r2, r2, #4
 434 0058 1A64     		str	r2, [r3, #64]
 435 005a 1A6E     		ldr	r2, [r3, #96]
 436 005c 22F00402 		bic	r2, r2, #4
 437 0060 F0E7     		b	.L48
 438              	.L46:
 439              		.loc 1 890 0
 440 0062 0A4B     		ldr	r3, .L49+16
 441 0064 9842     		cmp	r0, r3
 442 0066 E1D1     		bne	.L40
 443              		.loc 1 894 0
 444 0068 054B     		ldr	r3, .L49+4
 445 006a 5A6C     		ldr	r2, [r3, #68]
 446 006c 22F48032 		bic	r2, r2, #65536
 447 0070 5A64     		str	r2, [r3, #68]
 448 0072 5A6E     		ldr	r2, [r3, #100]
 449 0074 22F48032 		bic	r2, r2, #65536
 450 0078 D6E7     		b	.L47
 451              	.L50:
 452 007a 00BF     		.align	2
 453              	.L49:
 454 007c 00000000 		.word	.LANCHOR0
 455 0080 00380240 		.word	1073887232
 456 0084 00000000 		.word	.LANCHOR1
ARM GAS  /tmp/ccm60nXI.s 			page 9


 457 0088 00000000 		.word	.LANCHOR2
 458 008c 00000000 		.word	.LANCHOR3
 459              		.cfi_endproc
 460              	.LFE325:
 461              		.size	pwm_lld_stop, .-pwm_lld_stop
 462              		.section	.text.pwm_lld_enable_channel,"ax",%progbits
 463              		.align	1
 464              		.global	pwm_lld_enable_channel
 465              		.syntax unified
 466              		.thumb
 467              		.thumb_func
 468              		.fpu fpv4-sp-d16
 469              		.type	pwm_lld_enable_channel, %function
 470              	pwm_lld_enable_channel:
 471              	.LFB326:
 472              		.loc 1 951 0
 473              		.cfi_startproc
 474              		@ args = 0, pretend = 0, frame = 0
 475              		@ frame_needed = 0, uses_anonymous_args = 0
 476              		@ link register save eliminated.
 477              	.LVL23:
 478              		.loc 1 955 0
 479 0000 8369     		ldr	r3, [r0, #24]
 480 0002 0C31     		adds	r1, r1, #12
 481              	.LVL24:
 482 0004 03EB8103 		add	r3, r3, r1, lsl #2
 483 0008 5A60     		str	r2, [r3, #4]
 484 000a 7047     		bx	lr
 485              		.cfi_endproc
 486              	.LFE326:
 487              		.size	pwm_lld_enable_channel, .-pwm_lld_enable_channel
 488              		.section	.text.pwm_lld_disable_channel,"ax",%progbits
 489              		.align	1
 490              		.global	pwm_lld_disable_channel
 491              		.syntax unified
 492              		.thumb
 493              		.thumb_func
 494              		.fpu fpv4-sp-d16
 495              		.type	pwm_lld_disable_channel, %function
 496              	pwm_lld_disable_channel:
 497              	.LFB327:
 498              		.loc 1 976 0
 499              		.cfi_startproc
 500              		@ args = 0, pretend = 0, frame = 0
 501              		@ frame_needed = 0, uses_anonymous_args = 0
 502              		@ link register save eliminated.
 503              	.LVL25:
 504              		.loc 1 979 0
 505 0000 8369     		ldr	r3, [r0, #24]
 506 0002 01F10C02 		add	r2, r1, #12
 507 0006 03EB8202 		add	r2, r3, r2, lsl #2
 508 000a 0020     		movs	r0, #0
 509              	.LVL26:
 510 000c 5060     		str	r0, [r2, #4]
 511              		.loc 1 980 0
 512 000e DA68     		ldr	r2, [r3, #12]
 513 0010 0220     		movs	r0, #2
ARM GAS  /tmp/ccm60nXI.s 			page 10


 514 0012 00FA01F1 		lsl	r1, r0, r1
 515              	.LVL27:
 516 0016 22EA0101 		bic	r1, r2, r1
 517 001a D960     		str	r1, [r3, #12]
 518 001c 7047     		bx	lr
 519              		.cfi_endproc
 520              	.LFE327:
 521              		.size	pwm_lld_disable_channel, .-pwm_lld_disable_channel
 522              		.section	.text.pwm_lld_enable_periodic_notification,"ax",%progbits
 523              		.align	1
 524              		.global	pwm_lld_enable_periodic_notification
 525              		.syntax unified
 526              		.thumb
 527              		.thumb_func
 528              		.fpu fpv4-sp-d16
 529              		.type	pwm_lld_enable_periodic_notification, %function
 530              	pwm_lld_enable_periodic_notification:
 531              	.LFB328:
 532              		.loc 1 1000 0
 533              		.cfi_startproc
 534              		@ args = 0, pretend = 0, frame = 0
 535              		@ frame_needed = 0, uses_anonymous_args = 0
 536              		@ link register save eliminated.
 537              	.LVL28:
 538              		.loc 1 1001 0
 539 0000 8269     		ldr	r2, [r0, #24]
 540 0002 D368     		ldr	r3, [r2, #12]
 541              	.LVL29:
 542              		.loc 1 1005 0
 543 0004 D907     		lsls	r1, r3, #31
 544              		.loc 1 1006 0
 545 0006 5FBF     		itttt	pl
 546 0008 6FF00101 		mvnpl	r1, #1
 547              		.loc 1 1007 0
 548 000c 43F00103 		orrpl	r3, r3, #1
 549              	.LVL30:
 550              		.loc 1 1006 0
 551 0010 1161     		strpl	r1, [r2, #16]
 552              		.loc 1 1007 0
 553 0012 D360     		strpl	r3, [r2, #12]
 554 0014 7047     		bx	lr
 555              		.cfi_endproc
 556              	.LFE328:
 557              		.size	pwm_lld_enable_periodic_notification, .-pwm_lld_enable_periodic_notification
 558              		.section	.text.pwm_lld_disable_periodic_notification,"ax",%progbits
 559              		.align	1
 560              		.global	pwm_lld_disable_periodic_notification
 561              		.syntax unified
 562              		.thumb
 563              		.thumb_func
 564              		.fpu fpv4-sp-d16
 565              		.type	pwm_lld_disable_periodic_notification, %function
 566              	pwm_lld_disable_periodic_notification:
 567              	.LFB329:
 568              		.loc 1 1020 0
 569              		.cfi_startproc
 570              		@ args = 0, pretend = 0, frame = 0
ARM GAS  /tmp/ccm60nXI.s 			page 11


 571              		@ frame_needed = 0, uses_anonymous_args = 0
 572              		@ link register save eliminated.
 573              	.LVL31:
 574              		.loc 1 1022 0
 575 0000 8269     		ldr	r2, [r0, #24]
 576 0002 D368     		ldr	r3, [r2, #12]
 577 0004 23F00103 		bic	r3, r3, #1
 578 0008 D360     		str	r3, [r2, #12]
 579 000a 7047     		bx	lr
 580              		.cfi_endproc
 581              	.LFE329:
 582              		.size	pwm_lld_disable_periodic_notification, .-pwm_lld_disable_periodic_notification
 583              		.section	.text.pwm_lld_enable_channel_notification,"ax",%progbits
 584              		.align	1
 585              		.global	pwm_lld_enable_channel_notification
 586              		.syntax unified
 587              		.thumb
 588              		.thumb_func
 589              		.fpu fpv4-sp-d16
 590              		.type	pwm_lld_enable_channel_notification, %function
 591              	pwm_lld_enable_channel_notification:
 592              	.LFB330:
 593              		.loc 1 1037 0
 594              		.cfi_startproc
 595              		@ args = 0, pretend = 0, frame = 0
 596              		@ frame_needed = 0, uses_anonymous_args = 0
 597              		@ link register save eliminated.
 598              	.LVL32:
 599              		.loc 1 1038 0
 600 0000 8069     		ldr	r0, [r0, #24]
 601              	.LVL33:
 602              		.loc 1 1047 0
 603 0002 0223     		movs	r3, #2
 604              		.loc 1 1038 0
 605 0004 C268     		ldr	r2, [r0, #12]
 606              	.LVL34:
 607              		.loc 1 1047 0
 608 0006 03FA01F1 		lsl	r1, r3, r1
 609              	.LVL35:
 610 000a 0A42     		tst	r2, r1
 611              		.loc 1 1048 0
 612 000c 01BF     		itttt	eq
 613 000e CB43     		mvneq	r3, r1
 614              		.loc 1 1049 0
 615 0010 1143     		orreq	r1, r1, r2
 616              		.loc 1 1048 0
 617 0012 0361     		streq	r3, [r0, #16]
 618              		.loc 1 1049 0
 619 0014 C160     		streq	r1, [r0, #12]
 620 0016 7047     		bx	lr
 621              		.cfi_endproc
 622              	.LFE330:
 623              		.size	pwm_lld_enable_channel_notification, .-pwm_lld_enable_channel_notification
 624              		.section	.text.pwm_lld_disable_channel_notification,"ax",%progbits
 625              		.align	1
 626              		.global	pwm_lld_disable_channel_notification
 627              		.syntax unified
ARM GAS  /tmp/ccm60nXI.s 			page 12


 628              		.thumb
 629              		.thumb_func
 630              		.fpu fpv4-sp-d16
 631              		.type	pwm_lld_disable_channel_notification, %function
 632              	pwm_lld_disable_channel_notification:
 633              	.LFB331:
 634              		.loc 1 1065 0
 635              		.cfi_startproc
 636              		@ args = 0, pretend = 0, frame = 0
 637              		@ frame_needed = 0, uses_anonymous_args = 0
 638              		@ link register save eliminated.
 639              	.LVL36:
 640              		.loc 1 1067 0
 641 0000 8069     		ldr	r0, [r0, #24]
 642              	.LVL37:
 643 0002 0222     		movs	r2, #2
 644 0004 C368     		ldr	r3, [r0, #12]
 645 0006 02FA01F1 		lsl	r1, r2, r1
 646              	.LVL38:
 647 000a 23EA0103 		bic	r3, r3, r1
 648 000e C360     		str	r3, [r0, #12]
 649 0010 7047     		bx	lr
 650              		.cfi_endproc
 651              	.LFE331:
 652              		.size	pwm_lld_disable_channel_notification, .-pwm_lld_disable_channel_notification
 653              		.section	.text.pwm_lld_serve_interrupt,"ax",%progbits
 654              		.align	1
 655              		.global	pwm_lld_serve_interrupt
 656              		.syntax unified
 657              		.thumb
 658              		.thumb_func
 659              		.fpu fpv4-sp-d16
 660              		.type	pwm_lld_serve_interrupt, %function
 661              	pwm_lld_serve_interrupt:
 662              	.LFB332:
 663              		.loc 1 1080 0
 664              		.cfi_startproc
 665              		@ args = 0, pretend = 0, frame = 0
 666              		@ frame_needed = 0, uses_anonymous_args = 0
 667              	.LVL39:
 668              		.loc 1 1083 0
 669 0000 8369     		ldr	r3, [r0, #24]
 670              		.loc 1 1080 0
 671 0002 70B5     		push	{r4, r5, r6, lr}
 672              		.cfi_def_cfa_offset 16
 673              		.cfi_offset 4, -16
 674              		.cfi_offset 5, -12
 675              		.cfi_offset 6, -8
 676              		.cfi_offset 14, -4
 677              		.loc 1 1083 0
 678 0004 1D69     		ldr	r5, [r3, #16]
 679              	.LVL40:
 680              		.loc 1 1084 0
 681 0006 DA68     		ldr	r2, [r3, #12]
 682 0008 1540     		ands	r5, r5, r2
 683              	.LVL41:
 684 000a EAB2     		uxtb	r2, r5
ARM GAS  /tmp/ccm60nXI.s 			page 13


 685              		.loc 1 1085 0
 686 000c D243     		mvns	r2, r2
 687              		.loc 1 1086 0
 688 000e AE07     		lsls	r6, r5, #30
 689              		.loc 1 1080 0
 690 0010 0446     		mov	r4, r0
 691              		.loc 1 1085 0
 692 0012 1A61     		str	r2, [r3, #16]
 693              		.loc 1 1086 0
 694 0014 03D5     		bpl	.L60
 695              		.loc 1 1087 0 discriminator 1
 696 0016 4368     		ldr	r3, [r0, #4]
 697 0018 1B69     		ldr	r3, [r3, #16]
 698              		.loc 1 1086 0 discriminator 1
 699 001a 03B1     		cbz	r3, .L60
 700              		.loc 1 1088 0
 701 001c 9847     		blx	r3
 702              	.LVL42:
 703              	.L60:
 704              		.loc 1 1089 0
 705 001e 6807     		lsls	r0, r5, #29
 706 0020 04D5     		bpl	.L61
 707              		.loc 1 1090 0 discriminator 1
 708 0022 6368     		ldr	r3, [r4, #4]
 709 0024 9B69     		ldr	r3, [r3, #24]
 710              		.loc 1 1089 0 discriminator 1
 711 0026 0BB1     		cbz	r3, .L61
 712              		.loc 1 1091 0
 713 0028 2046     		mov	r0, r4
 714 002a 9847     		blx	r3
 715              	.LVL43:
 716              	.L61:
 717              		.loc 1 1092 0
 718 002c 2907     		lsls	r1, r5, #28
 719 002e 04D5     		bpl	.L62
 720              		.loc 1 1093 0 discriminator 1
 721 0030 6368     		ldr	r3, [r4, #4]
 722 0032 1B6A     		ldr	r3, [r3, #32]
 723              		.loc 1 1092 0 discriminator 1
 724 0034 0BB1     		cbz	r3, .L62
 725              		.loc 1 1094 0
 726 0036 2046     		mov	r0, r4
 727 0038 9847     		blx	r3
 728              	.LVL44:
 729              	.L62:
 730              		.loc 1 1095 0
 731 003a EA06     		lsls	r2, r5, #27
 732 003c 04D5     		bpl	.L63
 733              		.loc 1 1096 0 discriminator 1
 734 003e 6368     		ldr	r3, [r4, #4]
 735 0040 9B6A     		ldr	r3, [r3, #40]
 736              		.loc 1 1095 0 discriminator 1
 737 0042 0BB1     		cbz	r3, .L63
 738              		.loc 1 1097 0
 739 0044 2046     		mov	r0, r4
 740 0046 9847     		blx	r3
 741              	.LVL45:
ARM GAS  /tmp/ccm60nXI.s 			page 14


 742              	.L63:
 743              		.loc 1 1098 0
 744 0048 EB07     		lsls	r3, r5, #31
 745 004a 06D5     		bpl	.L59
 746              		.loc 1 1098 0 is_stmt 0 discriminator 1
 747 004c 6368     		ldr	r3, [r4, #4]
 748 004e 9B68     		ldr	r3, [r3, #8]
 749 0050 1BB1     		cbz	r3, .L59
 750              		.loc 1 1099 0 is_stmt 1
 751 0052 2046     		mov	r0, r4
 752              		.loc 1 1100 0
 753 0054 BDE87040 		pop	{r4, r5, r6, lr}
 754              		.cfi_remember_state
 755              		.cfi_restore 14
 756              		.cfi_restore 6
 757              		.cfi_restore 5
 758              		.cfi_restore 4
 759              		.cfi_def_cfa_offset 0
 760              	.LVL46:
 761              		.loc 1 1099 0
 762 0058 1847     		bx	r3	@ indirect register sibling call
 763              	.LVL47:
 764              	.L59:
 765              		.cfi_restore_state
 766 005a 70BD     		pop	{r4, r5, r6, pc}
 767              		.cfi_endproc
 768              	.LFE332:
 769              		.size	pwm_lld_serve_interrupt, .-pwm_lld_serve_interrupt
 770              		.global	PWMD9
 771              		.global	PWMD4
 772              		.global	PWMD2
 773              		.global	PWMD1
 774              		.section	.bss.PWMD1,"aw",%nobits
 775              		.align	2
 776              		.set	.LANCHOR0,. + 0
 777              		.type	PWMD1, %object
 778              		.size	PWMD1, 28
 779              	PWMD1:
 780 0000 00000000 		.space	28
 780      00000000 
 780      00000000 
 780      00000000 
 780      00000000 
 781              		.section	.bss.PWMD2,"aw",%nobits
 782              		.align	2
 783              		.set	.LANCHOR1,. + 0
 784              		.type	PWMD2, %object
 785              		.size	PWMD2, 28
 786              	PWMD2:
 787 0000 00000000 		.space	28
 787      00000000 
 787      00000000 
 787      00000000 
 787      00000000 
 788              		.section	.bss.PWMD4,"aw",%nobits
 789              		.align	2
 790              		.set	.LANCHOR2,. + 0
ARM GAS  /tmp/ccm60nXI.s 			page 15


 791              		.type	PWMD4, %object
 792              		.size	PWMD4, 28
 793              	PWMD4:
 794 0000 00000000 		.space	28
 794      00000000 
 794      00000000 
 794      00000000 
 794      00000000 
 795              		.section	.bss.PWMD9,"aw",%nobits
 796              		.align	2
 797              		.set	.LANCHOR3,. + 0
 798              		.type	PWMD9, %object
 799              		.size	PWMD9, 28
 800              	PWMD9:
 801 0000 00000000 		.space	28
 801      00000000 
 801      00000000 
 801      00000000 
 801      00000000 
 802              		.text
 803              	.Letext0:
 804              		.file 2 "/opt/gcc-arm-none-eabi-6-2017-q2-update/lib/gcc/arm-none-eabi/6.3.1/include/stddef.h"
 805              		.file 3 "/opt/gcc-arm-none-eabi-6-2017-q2-update/arm-none-eabi/include/machine/_default_types.h"
 806              		.file 4 "/opt/gcc-arm-none-eabi-6-2017-q2-update/arm-none-eabi/include/sys/_stdint.h"
 807              		.file 5 "/opt/gcc-arm-none-eabi-6-2017-q2-update/arm-none-eabi/include/stdint.h"
 808              		.file 6 "../../modules/ChibiOS/os/common/ports/ARMCMx/compilers/GCC/chtypes.h"
 809              		.file 7 "../../modules/ChibiOS/os/rt/include/chsystypes.h"
 810              		.file 8 "../../modules/ChibiOS/os/rt/include/chschd.h"
 811              		.file 9 "../../modules/ChibiOS/os/rt/include/chtime.h"
 812              		.file 10 "../../modules/ChibiOS/os/common/ext/ARM/CMSIS/Core/Include/core_cm4.h"
 813              		.file 11 "../../modules/ChibiOS/os/common/ext/ST/STM32F4xx/system_stm32f4xx.h"
 814              		.file 12 "../../modules/ChibiOS/os/common/ext/ST/STM32F4xx/stm32f407xx.h"
 815              		.file 13 "../../modules/ChibiOS/os/common/ports/ARMCMx/chcore.h"
 816              		.file 14 "../../modules/ChibiOS/os/common/ports/ARMCMx/chcore_v7m.h"
 817              		.file 15 "../../modules/ChibiOS/os/hal/ports/STM32/LLD/TIMv1/stm32_tim.h"
 818              		.file 16 "../../modules/ChibiOS/os/rt/include/chtm.h"
 819              		.file 17 "../../modules/ChibiOS/os/rt/include/chsem.h"
 820              		.file 18 "../../modules/ChibiOS/os/rt/include/chmtx.h"
 821              		.file 19 "../../modules/ChibiOS/os/rt/include/chsys.h"
 822              		.file 20 "../../modules/ChibiOS/os/rt/include/chregistry.h"
 823              		.file 21 "../../modules/ChibiOS/os/rt/include/chevents.h"
 824              		.file 22 "../../modules/ChibiOS/os/oslib/include/chmemcore.h"
 825              		.file 23 "../../modules/ChibiOS/os/oslib/include/chmempools.h"
 826              		.file 24 "../../modules/ChibiOS/os/oslib/include/chfactory.h"
 827              		.file 25 "../../modules/ChibiOS/os/hal/ports/STM32/LLD/DMAv2/stm32_dma.h"
 828              		.file 26 "../../modules/ChibiOS/os/hal/include/hal_queues.h"
 829              		.file 27 "../../modules/ChibiOS/os/hal/include/hal_pal.h"
 830              		.file 28 "../../modules/ChibiOS/os/hal/ports/STM32/LLD/GPIOv2/stm32_gpio.h"
 831              		.file 29 "../../modules/ChibiOS/os/hal/ports/STM32/LLD/GPIOv2/hal_pal_lld.h"
 832              		.file 30 "../../modules/ChibiOS/os/hal/include/hal_adc.h"
 833              		.file 31 "../../modules/ChibiOS/os/hal/ports/STM32/LLD/ADCv2/hal_adc_lld.h"
 834              		.file 32 "../../modules/ChibiOS/os/hal/include/hal_i2c.h"
 835              		.file 33 "../../modules/ChibiOS/os/hal/ports/STM32/LLD/I2Cv1/hal_i2c_lld.h"
 836              		.file 34 "../../modules/ChibiOS/os/hal/include/hal_icu.h"
 837              		.file 35 "../../modules/ChibiOS/os/hal/ports/STM32/LLD/TIMv1/hal_icu_lld.h"
 838              		.file 36 "../../modules/ChibiOS/os/hal/include/hal_pwm.h"
 839              		.file 37 "../../modules/ChibiOS/os/hal/ports/STM32/LLD/TIMv1/hal_pwm_lld.h"
ARM GAS  /tmp/ccm60nXI.s 			page 16


 840              		.file 38 "../../modules/ChibiOS/os/hal/include/hal_serial.h"
 841              		.file 39 "../../modules/ChibiOS/os/hal/ports/STM32/LLD/USARTv1/hal_serial_lld.h"
 842              		.file 40 "../../modules/ChibiOS/os/hal/include/hal_spi.h"
 843              		.file 41 "../../modules/ChibiOS/os/hal/ports/STM32/LLD/SPIv1/hal_spi_lld.h"
 844              		.file 42 "../../modules/ChibiOS/os/hal/include/hal_usb.h"
 845              		.file 43 "../../modules/ChibiOS/os/hal/ports/STM32/LLD/OTGv1/hal_usb_lld.h"
 846              		.file 44 "../../modules/ChibiOS/os/hal/ports/STM32/LLD/OTGv1/stm32_otg.h"