ARM GAS  /tmp/ccCHJBAq.s 			page 1


   1              		.cpu cortex-m4
   2              		.eabi_attribute 27, 1
   3              		.eabi_attribute 28, 1
   4              		.eabi_attribute 20, 1
   5              		.eabi_attribute 21, 1
   6              		.eabi_attribute 23, 3
   7              		.eabi_attribute 24, 1
   8              		.eabi_attribute 25, 1
   9              		.eabi_attribute 26, 1
  10              		.eabi_attribute 30, 4
  11              		.eabi_attribute 34, 1
  12              		.eabi_attribute 18, 4
  13              		.file	"hal_i2c.c"
  14              		.text
  15              	.Ltext0:
  16              		.cfi_sections	.debug_frame
  17              		.section	.text.i2cInit,"ax",%progbits
  18              		.align	1
  19              		.global	i2cInit
  20              		.syntax unified
  21              		.thumb
  22              		.thumb_func
  23              		.fpu fpv4-sp-d16
  24              		.type	i2cInit, %function
  25              	i2cInit:
  26              	.LFB323:
  27              		.file 1 "../../modules/ChibiOS/os/hal/src/hal_i2c.c"
  28              		.loc 1 59 0
  29              		.cfi_startproc
  30              		@ args = 0, pretend = 0, frame = 0
  31              		@ frame_needed = 0, uses_anonymous_args = 0
  32              		@ link register save eliminated.
  33              		.loc 1 61 0
  34 0000 FFF7FEBF 		b	i2c_lld_init
  35              	.LVL0:
  36              		.cfi_endproc
  37              	.LFE323:
  38              		.size	i2cInit, .-i2cInit
  39              		.section	.text.i2cObjectInit,"ax",%progbits
  40              		.align	1
  41              		.global	i2cObjectInit
  42              		.syntax unified
  43              		.thumb
  44              		.thumb_func
  45              		.fpu fpv4-sp-d16
  46              		.type	i2cObjectInit, %function
  47              	i2cObjectInit:
  48              	.LFB324:
  49              		.loc 1 71 0
  50              		.cfi_startproc
  51              		@ args = 0, pretend = 0, frame = 0
  52              		@ frame_needed = 0, uses_anonymous_args = 0
  53              		@ link register save eliminated.
  54              	.LVL1:
  55              		.loc 1 73 0
  56 0000 0123     		movs	r3, #1
  57 0002 0370     		strb	r3, [r0]
ARM GAS  /tmp/ccCHJBAq.s 			page 2


  58              		.loc 1 74 0
  59 0004 0023     		movs	r3, #0
  60 0006 4360     		str	r3, [r0, #4]
  61              	.LVL2:
  62              	.LBB95:
  63              	.LBB96:
  64              		.file 2 "../../modules/ChibiOS/os/hal/osal/rt/osal.h"
  65              		.loc 2 974 0
  66 0008 0C30     		adds	r0, r0, #12
  67              	.LVL3:
  68 000a FFF7FEBF 		b	chMtxObjectInit
  69              	.LVL4:
  70              	.LBE96:
  71              	.LBE95:
  72              		.cfi_endproc
  73              	.LFE324:
  74              		.size	i2cObjectInit, .-i2cObjectInit
  75              		.section	.text.i2cStart,"ax",%progbits
  76              		.align	1
  77              		.global	i2cStart
  78              		.syntax unified
  79              		.thumb
  80              		.thumb_func
  81              		.fpu fpv4-sp-d16
  82              		.type	i2cStart, %function
  83              	i2cStart:
  84              	.LFB325:
  85              		.loc 1 93 0
  86              		.cfi_startproc
  87              		@ args = 0, pretend = 0, frame = 0
  88              		@ frame_needed = 0, uses_anonymous_args = 0
  89              	.LVL5:
  90 0000 10B5     		push	{r4, lr}
  91              		.cfi_def_cfa_offset 8
  92              		.cfi_offset 4, -8
  93              		.cfi_offset 14, -4
  94              	.LBB97:
  95              	.LBB98:
  96              	.LBB99:
  97              	.LBB100:
  98              	.LBB101:
  99              		.file 3 "../../modules/ChibiOS/os/common/ext/ARM/CMSIS/Core/Include/cmsis_gcc.h"
 100              		.loc 3 493 0
 101 0002 2023     		movs	r3, #32
 102              	.LBE101:
 103              	.LBE100:
 104              	.LBE99:
 105              	.LBE98:
 106              	.LBE97:
 107              		.loc 1 93 0
 108 0004 0446     		mov	r4, r0
 109              	.LBB106:
 110              	.LBB105:
 111              	.LBB104:
 112              	.LBB103:
 113              	.LBB102:
 114              		.loc 3 493 0
ARM GAS  /tmp/ccCHJBAq.s 			page 3


 115              		.syntax unified
 116              	@ 493 "../../modules/ChibiOS/os/common/ext/ARM/CMSIS/Core/Include/cmsis_gcc.h" 1
 117 0006 83F31188 		MSR basepri, r3
 118              	@ 0 "" 2
 119              	.LVL6:
 120              		.thumb
 121              		.syntax unified
 122              	.LBE102:
 123              	.LBE103:
 124              	.LBE104:
 125              	.LBE105:
 126              	.LBE106:
 127              		.loc 1 100 0
 128 000a 4160     		str	r1, [r0, #4]
 129              		.loc 1 101 0
 130 000c FFF7FEFF 		bl	i2c_lld_start
 131              	.LVL7:
 132              		.loc 1 102 0
 133 0010 0223     		movs	r3, #2
 134 0012 2370     		strb	r3, [r4]
 135              	.LVL8:
 136              	.LBB107:
 137              	.LBB108:
 138              	.LBB109:
 139              	.LBB110:
 140              	.LBB111:
 141              	.LBB112:
 142              		.loc 3 493 0
 143 0014 0023     		movs	r3, #0
 144              		.syntax unified
 145              	@ 493 "../../modules/ChibiOS/os/common/ext/ARM/CMSIS/Core/Include/cmsis_gcc.h" 1
 146 0016 83F31188 		MSR basepri, r3
 147              	@ 0 "" 2
 148              	.LVL9:
 149              		.thumb
 150              		.syntax unified
 151 001a 10BD     		pop	{r4, pc}
 152              	.LBE112:
 153              	.LBE111:
 154              	.LBE110:
 155              	.LBE109:
 156              	.LBE108:
 157              	.LBE107:
 158              		.cfi_endproc
 159              	.LFE325:
 160              		.size	i2cStart, .-i2cStart
 161              		.section	.text.i2cSoftStop,"ax",%progbits
 162              		.align	1
 163              		.global	i2cSoftStop
 164              		.syntax unified
 165              		.thumb
 166              		.thumb_func
 167              		.fpu fpv4-sp-d16
 168              		.type	i2cSoftStop, %function
 169              	i2cSoftStop:
 170              	.LFB326:
 171              		.loc 1 113 0
ARM GAS  /tmp/ccCHJBAq.s 			page 4


 172              		.cfi_startproc
 173              		@ args = 0, pretend = 0, frame = 0
 174              		@ frame_needed = 0, uses_anonymous_args = 0
 175              	.LVL10:
 176 0000 10B5     		push	{r4, lr}
 177              		.cfi_def_cfa_offset 8
 178              		.cfi_offset 4, -8
 179              		.cfi_offset 14, -4
 180              	.LBB113:
 181              	.LBB114:
 182              	.LBB115:
 183              	.LBB116:
 184              	.LBB117:
 185              		.loc 3 493 0
 186 0002 2023     		movs	r3, #32
 187              	.LBE117:
 188              	.LBE116:
 189              	.LBE115:
 190              	.LBE114:
 191              	.LBE113:
 192              		.loc 1 113 0
 193 0004 0446     		mov	r4, r0
 194              	.LBB122:
 195              	.LBB121:
 196              	.LBB120:
 197              	.LBB119:
 198              	.LBB118:
 199              		.loc 3 493 0
 200              		.syntax unified
 201              	@ 493 "../../modules/ChibiOS/os/common/ext/ARM/CMSIS/Core/Include/cmsis_gcc.h" 1
 202 0006 83F31188 		MSR basepri, r3
 203              	@ 0 "" 2
 204              	.LVL11:
 205              		.thumb
 206              		.syntax unified
 207              	.LBE118:
 208              	.LBE119:
 209              	.LBE120:
 210              	.LBE121:
 211              	.LBE122:
 212              		.loc 1 122 0
 213 000a FFF7FEFF 		bl	i2c_lld_soft_stop
 214              	.LVL12:
 215              		.loc 1 123 0
 216 000e 0023     		movs	r3, #0
 217              		.loc 1 124 0
 218 0010 0122     		movs	r2, #1
 219              		.loc 1 123 0
 220 0012 6360     		str	r3, [r4, #4]
 221              		.loc 1 124 0
 222 0014 2270     		strb	r2, [r4]
 223              	.LVL13:
 224              	.LBB123:
 225              	.LBB124:
 226              	.LBB125:
 227              	.LBB126:
 228              	.LBB127:
ARM GAS  /tmp/ccCHJBAq.s 			page 5


 229              	.LBB128:
 230              		.loc 3 493 0
 231              		.syntax unified
 232              	@ 493 "../../modules/ChibiOS/os/common/ext/ARM/CMSIS/Core/Include/cmsis_gcc.h" 1
 233 0016 83F31188 		MSR basepri, r3
 234              	@ 0 "" 2
 235              	.LVL14:
 236              		.thumb
 237              		.syntax unified
 238 001a 10BD     		pop	{r4, pc}
 239              	.LBE128:
 240              	.LBE127:
 241              	.LBE126:
 242              	.LBE125:
 243              	.LBE124:
 244              	.LBE123:
 245              		.cfi_endproc
 246              	.LFE326:
 247              		.size	i2cSoftStop, .-i2cSoftStop
 248              		.section	.text.i2cStop,"ax",%progbits
 249              		.align	1
 250              		.global	i2cStop
 251              		.syntax unified
 252              		.thumb
 253              		.thumb_func
 254              		.fpu fpv4-sp-d16
 255              		.type	i2cStop, %function
 256              	i2cStop:
 257              	.LFB327:
 258              		.loc 1 136 0
 259              		.cfi_startproc
 260              		@ args = 0, pretend = 0, frame = 0
 261              		@ frame_needed = 0, uses_anonymous_args = 0
 262              	.LVL15:
 263 0000 10B5     		push	{r4, lr}
 264              		.cfi_def_cfa_offset 8
 265              		.cfi_offset 4, -8
 266              		.cfi_offset 14, -4
 267              	.LBB129:
 268              	.LBB130:
 269              	.LBB131:
 270              	.LBB132:
 271              	.LBB133:
 272              		.loc 3 493 0
 273 0002 2023     		movs	r3, #32
 274              	.LBE133:
 275              	.LBE132:
 276              	.LBE131:
 277              	.LBE130:
 278              	.LBE129:
 279              		.loc 1 136 0
 280 0004 0446     		mov	r4, r0
 281              	.LBB138:
 282              	.LBB137:
 283              	.LBB136:
 284              	.LBB135:
 285              	.LBB134:
ARM GAS  /tmp/ccCHJBAq.s 			page 6


 286              		.loc 3 493 0
 287              		.syntax unified
 288              	@ 493 "../../modules/ChibiOS/os/common/ext/ARM/CMSIS/Core/Include/cmsis_gcc.h" 1
 289 0006 83F31188 		MSR basepri, r3
 290              	@ 0 "" 2
 291              	.LVL16:
 292              		.thumb
 293              		.syntax unified
 294              	.LBE134:
 295              	.LBE135:
 296              	.LBE136:
 297              	.LBE137:
 298              	.LBE138:
 299              		.loc 1 145 0
 300 000a FFF7FEFF 		bl	i2c_lld_stop
 301              	.LVL17:
 302              		.loc 1 146 0
 303 000e 0023     		movs	r3, #0
 304              		.loc 1 147 0
 305 0010 0122     		movs	r2, #1
 306              		.loc 1 146 0
 307 0012 6360     		str	r3, [r4, #4]
 308              		.loc 1 147 0
 309 0014 2270     		strb	r2, [r4]
 310              	.LVL18:
 311              	.LBB139:
 312              	.LBB140:
 313              	.LBB141:
 314              	.LBB142:
 315              	.LBB143:
 316              	.LBB144:
 317              		.loc 3 493 0
 318              		.syntax unified
 319              	@ 493 "../../modules/ChibiOS/os/common/ext/ARM/CMSIS/Core/Include/cmsis_gcc.h" 1
 320 0016 83F31188 		MSR basepri, r3
 321              	@ 0 "" 2
 322              	.LVL19:
 323              		.thumb
 324              		.syntax unified
 325 001a 10BD     		pop	{r4, pc}
 326              	.LBE144:
 327              	.LBE143:
 328              	.LBE142:
 329              	.LBE141:
 330              	.LBE140:
 331              	.LBE139:
 332              		.cfi_endproc
 333              	.LFE327:
 334              		.size	i2cStop, .-i2cStop
 335              		.section	.text.i2cGetErrors,"ax",%progbits
 336              		.align	1
 337              		.global	i2cGetErrors
 338              		.syntax unified
 339              		.thumb
 340              		.thumb_func
 341              		.fpu fpv4-sp-d16
 342              		.type	i2cGetErrors, %function
ARM GAS  /tmp/ccCHJBAq.s 			page 7


 343              	i2cGetErrors:
 344              	.LFB328:
 345              		.loc 1 160 0
 346              		.cfi_startproc
 347              		@ args = 0, pretend = 0, frame = 0
 348              		@ frame_needed = 0, uses_anonymous_args = 0
 349              		@ link register save eliminated.
 350              	.LVL20:
 351              		.loc 1 165 0
 352 0000 8068     		ldr	r0, [r0, #8]
 353              	.LVL21:
 354 0002 7047     		bx	lr
 355              		.cfi_endproc
 356              	.LFE328:
 357              		.size	i2cGetErrors, .-i2cGetErrors
 358              		.section	.text.i2cMasterTransmitTimeout,"ax",%progbits
 359              		.align	1
 360              		.global	i2cMasterTransmitTimeout
 361              		.syntax unified
 362              		.thumb
 363              		.thumb_func
 364              		.fpu fpv4-sp-d16
 365              		.type	i2cMasterTransmitTimeout, %function
 366              	i2cMasterTransmitTimeout:
 367              	.LFB329:
 368              		.loc 1 199 0
 369              		.cfi_startproc
 370              		@ args = 12, pretend = 0, frame = 0
 371              		@ frame_needed = 0, uses_anonymous_args = 0
 372              	.LVL22:
 373 0000 7FB5     		push	{r0, r1, r2, r3, r4, r5, r6, lr}
 374              		.cfi_def_cfa_offset 32
 375              		.cfi_offset 4, -16
 376              		.cfi_offset 5, -12
 377              		.cfi_offset 6, -8
 378              		.cfi_offset 14, -4
 379              		.loc 1 199 0
 380 0002 0546     		mov	r5, r0
 381              	.LBB145:
 382              	.LBB146:
 383              	.LBB147:
 384              	.LBB148:
 385              	.LBB149:
 386              		.loc 3 493 0
 387 0004 2024     		movs	r4, #32
 388              		.syntax unified
 389              	@ 493 "../../modules/ChibiOS/os/common/ext/ARM/CMSIS/Core/Include/cmsis_gcc.h" 1
 390 0006 84F31188 		MSR basepri, r4
 391              	@ 0 "" 2
 392              	.LVL23:
 393              		.thumb
 394              		.syntax unified
 395              	.LBE149:
 396              	.LBE148:
 397              	.LBE147:
 398              	.LBE146:
 399              	.LBE145:
ARM GAS  /tmp/ccCHJBAq.s 			page 8


 400              		.loc 1 211 0
 401 000a 0326     		movs	r6, #3
 402 000c 0670     		strb	r6, [r0]
 403              		.loc 1 210 0
 404 000e 0024     		movs	r4, #0
 405              		.loc 1 212 0
 406 0010 0A9E     		ldr	r6, [sp, #40]
 407              		.loc 1 210 0
 408 0012 8460     		str	r4, [r0, #8]
 409              		.loc 1 212 0
 410 0014 0296     		str	r6, [sp, #8]
 411 0016 099E     		ldr	r6, [sp, #36]
 412 0018 0196     		str	r6, [sp, #4]
 413 001a 089E     		ldr	r6, [sp, #32]
 414 001c 0096     		str	r6, [sp]
 415 001e FFF7FEFF 		bl	i2c_lld_master_transmit_timeout
 416              	.LVL24:
 417              		.loc 1 214 0
 418 0022 431C     		adds	r3, r0, #1
 419              		.loc 1 215 0
 420 0024 0CBF     		ite	eq
 421 0026 0523     		moveq	r3, #5
 422              		.loc 1 218 0
 423 0028 0223     		movne	r3, #2
 424 002a 2B70     		strb	r3, [r5]
 425              	.LVL25:
 426              	.LBB150:
 427              	.LBB151:
 428              	.LBB152:
 429              	.LBB153:
 430              	.LBB154:
 431              	.LBB155:
 432              		.loc 3 493 0
 433              		.syntax unified
 434              	@ 493 "../../modules/ChibiOS/os/common/ext/ARM/CMSIS/Core/Include/cmsis_gcc.h" 1
 435 002c 84F31188 		MSR basepri, r4
 436              	@ 0 "" 2
 437              	.LVL26:
 438              		.thumb
 439              		.syntax unified
 440              	.LBE155:
 441              	.LBE154:
 442              	.LBE153:
 443              	.LBE152:
 444              	.LBE151:
 445              	.LBE150:
 446              		.loc 1 222 0
 447 0030 04B0     		add	sp, sp, #16
 448              		.cfi_def_cfa_offset 16
 449              		@ sp needed
 450 0032 70BD     		pop	{r4, r5, r6, pc}
 451              		.cfi_endproc
 452              	.LFE329:
 453              		.size	i2cMasterTransmitTimeout, .-i2cMasterTransmitTimeout
 454              		.section	.text.i2cMasterReceiveTimeout,"ax",%progbits
 455              		.align	1
 456              		.global	i2cMasterReceiveTimeout
ARM GAS  /tmp/ccCHJBAq.s 			page 9


 457              		.syntax unified
 458              		.thumb
 459              		.thumb_func
 460              		.fpu fpv4-sp-d16
 461              		.type	i2cMasterReceiveTimeout, %function
 462              	i2cMasterReceiveTimeout:
 463              	.LFB330:
 464              		.loc 1 248 0
 465              		.cfi_startproc
 466              		@ args = 4, pretend = 0, frame = 0
 467              		@ frame_needed = 0, uses_anonymous_args = 0
 468              	.LVL27:
 469 0000 73B5     		push	{r0, r1, r4, r5, r6, lr}
 470              		.cfi_def_cfa_offset 24
 471              		.cfi_offset 4, -16
 472              		.cfi_offset 5, -12
 473              		.cfi_offset 6, -8
 474              		.cfi_offset 14, -4
 475              		.loc 1 248 0
 476 0002 0546     		mov	r5, r0
 477              	.LBB156:
 478              	.LBB157:
 479              	.LBB158:
 480              	.LBB159:
 481              	.LBB160:
 482              		.loc 3 493 0
 483 0004 2024     		movs	r4, #32
 484              		.syntax unified
 485              	@ 493 "../../modules/ChibiOS/os/common/ext/ARM/CMSIS/Core/Include/cmsis_gcc.h" 1
 486 0006 84F31188 		MSR basepri, r4
 487              	@ 0 "" 2
 488              	.LVL28:
 489              		.thumb
 490              		.syntax unified
 491              	.LBE160:
 492              	.LBE159:
 493              	.LBE158:
 494              	.LBE157:
 495              	.LBE156:
 496              		.loc 1 260 0
 497 000a 0426     		movs	r6, #4
 498 000c 0670     		strb	r6, [r0]
 499              		.loc 1 259 0
 500 000e 0024     		movs	r4, #0
 501              		.loc 1 261 0
 502 0010 069E     		ldr	r6, [sp, #24]
 503              		.loc 1 259 0
 504 0012 8460     		str	r4, [r0, #8]
 505              		.loc 1 261 0
 506 0014 0096     		str	r6, [sp]
 507 0016 FFF7FEFF 		bl	i2c_lld_master_receive_timeout
 508              	.LVL29:
 509              		.loc 1 262 0
 510 001a 431C     		adds	r3, r0, #1
 511              		.loc 1 263 0
 512 001c 0CBF     		ite	eq
 513 001e 0523     		moveq	r3, #5
ARM GAS  /tmp/ccCHJBAq.s 			page 10


 514              		.loc 1 266 0
 515 0020 0223     		movne	r3, #2
 516 0022 2B70     		strb	r3, [r5]
 517              	.LVL30:
 518              	.LBB161:
 519              	.LBB162:
 520              	.LBB163:
 521              	.LBB164:
 522              	.LBB165:
 523              	.LBB166:
 524              		.loc 3 493 0
 525              		.syntax unified
 526              	@ 493 "../../modules/ChibiOS/os/common/ext/ARM/CMSIS/Core/Include/cmsis_gcc.h" 1
 527 0024 84F31188 		MSR basepri, r4
 528              	@ 0 "" 2
 529              	.LVL31:
 530              		.thumb
 531              		.syntax unified
 532              	.LBE166:
 533              	.LBE165:
 534              	.LBE164:
 535              	.LBE163:
 536              	.LBE162:
 537              	.LBE161:
 538              		.loc 1 270 0
 539 0028 02B0     		add	sp, sp, #8
 540              		.cfi_def_cfa_offset 16
 541              		@ sp needed
 542 002a 70BD     		pop	{r4, r5, r6, pc}
 543              		.cfi_endproc
 544              	.LFE330:
 545              		.size	i2cMasterReceiveTimeout, .-i2cMasterReceiveTimeout
 546              		.section	.text.i2cAcquireBus,"ax",%progbits
 547              		.align	1
 548              		.global	i2cAcquireBus
 549              		.syntax unified
 550              		.thumb
 551              		.thumb_func
 552              		.fpu fpv4-sp-d16
 553              		.type	i2cAcquireBus, %function
 554              	i2cAcquireBus:
 555              	.LFB331:
 556              		.loc 1 284 0
 557              		.cfi_startproc
 558              		@ args = 0, pretend = 0, frame = 0
 559              		@ frame_needed = 0, uses_anonymous_args = 0
 560              		@ link register save eliminated.
 561              	.LVL32:
 562              	.LBB167:
 563              	.LBB168:
 564              		.loc 2 994 0
 565 0000 0C30     		adds	r0, r0, #12
 566              	.LVL33:
 567 0002 FFF7FEBF 		b	chMtxLock
 568              	.LVL34:
 569              	.LBE168:
 570              	.LBE167:
ARM GAS  /tmp/ccCHJBAq.s 			page 11


 571              		.cfi_endproc
 572              	.LFE331:
 573              		.size	i2cAcquireBus, .-i2cAcquireBus
 574              		.section	.text.i2cReleaseBus,"ax",%progbits
 575              		.align	1
 576              		.global	i2cReleaseBus
 577              		.syntax unified
 578              		.thumb
 579              		.thumb_func
 580              		.fpu fpv4-sp-d16
 581              		.type	i2cReleaseBus, %function
 582              	i2cReleaseBus:
 583              	.LFB332:
 584              		.loc 1 300 0
 585              		.cfi_startproc
 586              		@ args = 0, pretend = 0, frame = 0
 587              		@ frame_needed = 0, uses_anonymous_args = 0
 588              		@ link register save eliminated.
 589              	.LVL35:
 590              	.LBB169:
 591              	.LBB170:
 592              		.loc 2 1018 0
 593 0000 0C30     		adds	r0, r0, #12
 594              	.LVL36:
 595 0002 FFF7FEBF 		b	chMtxUnlock
 596              	.LVL37:
 597              	.LBE170:
 598              	.LBE169:
 599              		.cfi_endproc
 600              	.LFE332:
 601              		.size	i2cReleaseBus, .-i2cReleaseBus
 602              		.text
 603              	.Letext0:
 604              		.file 4 "/opt/gcc-arm-none-eabi-6-2017-q2-update/lib/gcc/arm-none-eabi/6.3.1/include/stddef.h"
 605              		.file 5 "/opt/gcc-arm-none-eabi-6-2017-q2-update/arm-none-eabi/include/machine/_default_types.h"
 606              		.file 6 "/opt/gcc-arm-none-eabi-6-2017-q2-update/arm-none-eabi/include/sys/_stdint.h"
 607              		.file 7 "/opt/gcc-arm-none-eabi-6-2017-q2-update/arm-none-eabi/include/stdint.h"
 608              		.file 8 "../../modules/ChibiOS/os/common/ports/ARMCMx/compilers/GCC/chtypes.h"
 609              		.file 9 "../../modules/ChibiOS/os/rt/include/chsystypes.h"
 610              		.file 10 "../../modules/ChibiOS/os/rt/include/chschd.h"
 611              		.file 11 "../../modules/ChibiOS/os/rt/include/chtime.h"
 612              		.file 12 "../../modules/ChibiOS/os/common/ext/ARM/CMSIS/Core/Include/core_cm4.h"
 613              		.file 13 "../../modules/ChibiOS/os/common/ext/ST/STM32F4xx/system_stm32f4xx.h"
 614              		.file 14 "../../modules/ChibiOS/os/common/ext/ST/STM32F4xx/stm32f407xx.h"
 615              		.file 15 "../../modules/ChibiOS/os/common/ports/ARMCMx/chcore.h"
 616              		.file 16 "../../modules/ChibiOS/os/common/ports/ARMCMx/chcore_v7m.h"
 617              		.file 17 "../../modules/ChibiOS/os/hal/ports/STM32/LLD/TIMv1/stm32_tim.h"
 618              		.file 18 "../../modules/ChibiOS/os/rt/include/chtm.h"
 619              		.file 19 "../../modules/ChibiOS/os/rt/include/chsem.h"
 620              		.file 20 "../../modules/ChibiOS/os/rt/include/chmtx.h"
 621              		.file 21 "../../modules/ChibiOS/os/rt/include/chsys.h"
 622              		.file 22 "../../modules/ChibiOS/os/rt/include/chregistry.h"
 623              		.file 23 "../../modules/ChibiOS/os/rt/include/chevents.h"
 624              		.file 24 "../../modules/ChibiOS/os/oslib/include/chmemcore.h"
 625              		.file 25 "../../modules/ChibiOS/os/oslib/include/chmempools.h"
 626              		.file 26 "../../modules/ChibiOS/os/oslib/include/chfactory.h"
 627              		.file 27 "../../modules/ChibiOS/os/hal/ports/STM32/LLD/DMAv2/stm32_dma.h"
ARM GAS  /tmp/ccCHJBAq.s 			page 12


 628              		.file 28 "../../modules/ChibiOS/os/hal/include/hal_queues.h"
 629              		.file 29 "../../modules/ChibiOS/os/hal/include/hal_pal.h"
 630              		.file 30 "../../modules/ChibiOS/os/hal/ports/STM32/LLD/GPIOv2/stm32_gpio.h"
 631              		.file 31 "../../modules/ChibiOS/os/hal/ports/STM32/LLD/GPIOv2/hal_pal_lld.h"
 632              		.file 32 "../../modules/ChibiOS/os/hal/include/hal_adc.h"
 633              		.file 33 "../../modules/ChibiOS/os/hal/ports/STM32/LLD/ADCv2/hal_adc_lld.h"
 634              		.file 34 "../../modules/ChibiOS/os/hal/include/hal_i2c.h"
 635              		.file 35 "../../modules/ChibiOS/os/hal/ports/STM32/LLD/I2Cv1/hal_i2c_lld.h"
 636              		.file 36 "../../modules/ChibiOS/os/hal/include/hal_icu.h"
 637              		.file 37 "../../modules/ChibiOS/os/hal/ports/STM32/LLD/TIMv1/hal_icu_lld.h"
 638              		.file 38 "../../modules/ChibiOS/os/hal/include/hal_pwm.h"
 639              		.file 39 "../../modules/ChibiOS/os/hal/ports/STM32/LLD/TIMv1/hal_pwm_lld.h"
 640              		.file 40 "../../modules/ChibiOS/os/hal/include/hal_serial.h"
 641              		.file 41 "../../modules/ChibiOS/os/hal/ports/STM32/LLD/USARTv1/hal_serial_lld.h"
 642              		.file 42 "../../modules/ChibiOS/os/hal/include/hal_spi.h"
 643              		.file 43 "../../modules/ChibiOS/os/hal/ports/STM32/LLD/SPIv1/hal_spi_lld.h"
 644              		.file 44 "../../modules/ChibiOS/os/hal/include/hal_usb.h"
 645              		.file 45 "../../modules/ChibiOS/os/hal/ports/STM32/LLD/OTGv1/hal_usb_lld.h"
 646              		.file 46 "../../modules/ChibiOS/os/hal/ports/STM32/LLD/OTGv1/stm32_otg.h"