ARM GAS  /tmp/ccEcHKKd.s 			page 1


   1              		.cpu cortex-m4
   2              		.eabi_attribute 27, 1
   3              		.eabi_attribute 28, 1
   4              		.eabi_attribute 20, 1
   5              		.eabi_attribute 21, 1
   6              		.eabi_attribute 23, 3
   7              		.eabi_attribute 24, 1
   8              		.eabi_attribute 25, 1
   9              		.eabi_attribute 26, 1
  10              		.eabi_attribute 30, 4
  11              		.eabi_attribute 34, 1
  12              		.eabi_attribute 18, 4
  13              		.file	"hal_pal.c"
  14              		.text
  15              	.Ltext0:
  16              		.cfi_sections	.debug_frame
  17              		.section	.text.palReadBus,"ax",%progbits
  18              		.align	1
  19              		.global	palReadBus
  20              		.syntax unified
  21              		.thumb
  22              		.thumb_func
  23              		.fpu fpv4-sp-d16
  24              		.type	palReadBus, %function
  25              	palReadBus:
  26              	.LFB251:
  27              		.file 1 "../../modules/ChibiOS/os/hal/src/hal_pal.c"
  28              		.loc 1 65 0
  29              		.cfi_startproc
  30              		@ args = 0, pretend = 0, frame = 0
  31              		@ frame_needed = 0, uses_anonymous_args = 0
  32              		@ link register save eliminated.
  33              	.LVL0:
  34              		.loc 1 69 0
  35 0000 0368     		ldr	r3, [r0]
  36 0002 8268     		ldr	r2, [r0, #8]
  37 0004 1B69     		ldr	r3, [r3, #16]
  38 0006 4068     		ldr	r0, [r0, #4]
  39              	.LVL1:
  40 0008 D340     		lsrs	r3, r3, r2
  41              		.loc 1 70 0
  42 000a 1840     		ands	r0, r0, r3
  43 000c 7047     		bx	lr
  44              		.cfi_endproc
  45              	.LFE251:
  46              		.size	palReadBus, .-palReadBus
  47              		.section	.text.palWriteBus,"ax",%progbits
  48              		.align	1
  49              		.global	palWriteBus
  50              		.syntax unified
  51              		.thumb
  52              		.thumb_func
  53              		.fpu fpv4-sp-d16
  54              		.type	palWriteBus, %function
  55              	palWriteBus:
  56              	.LFB252:
  57              		.loc 1 90 0
ARM GAS  /tmp/ccEcHKKd.s 			page 2


  58              		.cfi_startproc
  59              		@ args = 0, pretend = 0, frame = 0
  60              		@ frame_needed = 0, uses_anonymous_args = 0
  61              	.LVL2:
  62 0000 30B5     		push	{r4, r5, lr}
  63              		.cfi_def_cfa_offset 12
  64              		.cfi_offset 4, -12
  65              		.cfi_offset 5, -8
  66              		.cfi_offset 14, -4
  67              	.LBB2:
  68              		.loc 1 94 0
  69 0002 8268     		ldr	r2, [r0, #8]
  70 0004 4468     		ldr	r4, [r0, #4]
  71 0006 02F11005 		add	r5, r2, #16
  72 000a 24EA0103 		bic	r3, r4, r1
  73 000e 2140     		ands	r1, r1, r4
  74              	.LVL3:
  75 0010 AB40     		lsls	r3, r3, r5
  76 0012 9140     		lsls	r1, r1, r2
  77 0014 1943     		orrs	r1, r1, r3
  78              	.LVL4:
  79 0016 0368     		ldr	r3, [r0]
  80 0018 9961     		str	r1, [r3, #24]
  81 001a 30BD     		pop	{r4, r5, pc}
  82              	.LBE2:
  83              		.cfi_endproc
  84              	.LFE252:
  85              		.size	palWriteBus, .-palWriteBus
  86              		.section	.text.palSetBusMode,"ax",%progbits
  87              		.align	1
  88              		.global	palSetBusMode
  89              		.syntax unified
  90              		.thumb
  91              		.thumb_func
  92              		.fpu fpv4-sp-d16
  93              		.type	palSetBusMode, %function
  94              	palSetBusMode:
  95              	.LFB253:
  96              		.loc 1 113 0
  97              		.cfi_startproc
  98              		@ args = 0, pretend = 0, frame = 0
  99              		@ frame_needed = 0, uses_anonymous_args = 0
 100              		@ link register save eliminated.
 101              	.LVL5:
 102 0000 10B4     		push	{r4}
 103              		.cfi_def_cfa_offset 4
 104              		.cfi_offset 4, -4
 105              		.loc 1 117 0
 106 0002 8368     		ldr	r3, [r0, #8]
 107 0004 4468     		ldr	r4, [r0, #4]
 108 0006 0068     		ldr	r0, [r0]
 109              	.LVL6:
 110 0008 0A46     		mov	r2, r1
 111 000a 04FA03F1 		lsl	r1, r4, r3
 112              	.LVL7:
 113              		.loc 1 118 0
 114 000e 5DF8044B 		ldr	r4, [sp], #4
ARM GAS  /tmp/ccEcHKKd.s 			page 3


 115              		.cfi_restore 4
 116              		.cfi_def_cfa_offset 0
 117              		.loc 1 117 0
 118 0012 FFF7FEBF 		b	_pal_lld_setgroupmode
 119              	.LVL8:
 120              		.cfi_endproc
 121              	.LFE253:
 122              		.size	palSetBusMode, .-palSetBusMode
 123              		.section	.text.palSetPadCallbackI,"ax",%progbits
 124              		.align	1
 125              		.global	palSetPadCallbackI
 126              		.syntax unified
 127              		.thumb
 128              		.thumb_func
 129              		.fpu fpv4-sp-d16
 130              		.type	palSetPadCallbackI, %function
 131              	palSetPadCallbackI:
 132              	.LFB254:
 133              		.loc 1 132 0
 134              		.cfi_startproc
 135              		@ args = 0, pretend = 0, frame = 0
 136              		@ frame_needed = 0, uses_anonymous_args = 0
 137              		@ link register save eliminated.
 138              	.LVL9:
 139              		.loc 1 135 0
 140 0000 0348     		ldr	r0, .L5
 141              	.LVL10:
 142 0002 40F83120 		str	r2, [r0, r1, lsl #3]
 143              		.loc 1 136 0
 144 0006 00EBC100 		add	r0, r0, r1, lsl #3
 145              	.LVL11:
 146 000a 4360     		str	r3, [r0, #4]
 147 000c 7047     		bx	lr
 148              	.L6:
 149 000e 00BF     		.align	2
 150              	.L5:
 151 0010 00000000 		.word	_pal_events
 152              		.cfi_endproc
 153              	.LFE254:
 154              		.size	palSetPadCallbackI, .-palSetPadCallbackI
 155              		.section	.text.palSetLineCallbackI,"ax",%progbits
 156              		.align	1
 157              		.global	palSetLineCallbackI
 158              		.syntax unified
 159              		.thumb
 160              		.thumb_func
 161              		.fpu fpv4-sp-d16
 162              		.type	palSetLineCallbackI, %function
 163              	palSetLineCallbackI:
 164              	.LFB255:
 165              		.loc 1 148 0
 166              		.cfi_startproc
 167              		@ args = 0, pretend = 0, frame = 0
 168              		@ frame_needed = 0, uses_anonymous_args = 0
 169              		@ link register save eliminated.
 170              	.LVL12:
 171              		.loc 1 150 0
ARM GAS  /tmp/ccEcHKKd.s 			page 4


 172 0000 00F00F00 		and	r0, r0, #15
 173              	.LVL13:
 174              		.loc 1 151 0
 175 0004 034B     		ldr	r3, .L8
 176 0006 43F83010 		str	r1, [r3, r0, lsl #3]
 177              		.loc 1 152 0
 178 000a 03EBC003 		add	r3, r3, r0, lsl #3
 179              	.LVL14:
 180 000e 5A60     		str	r2, [r3, #4]
 181 0010 7047     		bx	lr
 182              	.L9:
 183 0012 00BF     		.align	2
 184              	.L8:
 185 0014 00000000 		.word	_pal_events
 186              		.cfi_endproc
 187              	.LFE255:
 188              		.size	palSetLineCallbackI, .-palSetLineCallbackI
 189              		.text
 190              	.Letext0:
 191              		.file 2 "/opt/gcc-arm-none-eabi-6-2017-q2-update/lib/gcc/arm-none-eabi/6.3.1/include/stddef.h"
 192              		.file 3 "/opt/gcc-arm-none-eabi-6-2017-q2-update/arm-none-eabi/include/machine/_default_types.h"
 193              		.file 4 "/opt/gcc-arm-none-eabi-6-2017-q2-update/arm-none-eabi/include/sys/_stdint.h"
 194              		.file 5 "/opt/gcc-arm-none-eabi-6-2017-q2-update/arm-none-eabi/include/stdint.h"
 195              		.file 6 "../../modules/ChibiOS/os/common/ports/ARMCMx/compilers/GCC/chtypes.h"
 196              		.file 7 "../../modules/ChibiOS/os/rt/include/chsystypes.h"
 197              		.file 8 "../../modules/ChibiOS/os/rt/include/chschd.h"
 198              		.file 9 "../../modules/ChibiOS/os/rt/include/chtime.h"
 199              		.file 10 "../../modules/ChibiOS/os/common/ext/ARM/CMSIS/Core/Include/core_cm4.h"
 200              		.file 11 "../../modules/ChibiOS/os/common/ext/ST/STM32F4xx/system_stm32f4xx.h"
 201              		.file 12 "../../modules/ChibiOS/os/common/ext/ST/STM32F4xx/stm32f407xx.h"
 202              		.file 13 "../../modules/ChibiOS/os/common/ports/ARMCMx/chcore.h"
 203              		.file 14 "../../modules/ChibiOS/os/common/ports/ARMCMx/chcore_v7m.h"
 204              		.file 15 "../../modules/ChibiOS/os/rt/include/chsys.h"
 205              		.file 16 "../../modules/ChibiOS/os/hal/osal/rt/osal.h"
 206              		.file 17 "../../modules/ChibiOS/os/hal/ports/STM32/LLD/DMAv2/stm32_dma.h"
 207              		.file 18 "../../modules/ChibiOS/os/hal/include/hal_queues.h"
 208              		.file 19 "../../modules/ChibiOS/os/hal/include/hal_pal.h"
 209              		.file 20 "../../modules/ChibiOS/os/hal/ports/STM32/LLD/GPIOv2/stm32_gpio.h"
 210              		.file 21 "../../modules/ChibiOS/os/hal/ports/STM32/LLD/GPIOv2/hal_pal_lld.h"
 211              		.file 22 "../../modules/ChibiOS/os/hal/include/hal_serial.h"
 212              		.file 23 "../../modules/ChibiOS/os/hal/ports/STM32/LLD/USARTv1/hal_serial_lld.h"
 213              		.file 24 "../../modules/ChibiOS/os/hal/include/hal_usb.h"
 214              		.file 25 "../../modules/ChibiOS/os/hal/ports/STM32/LLD/OTGv1/hal_usb_lld.h"
 215              		.file 26 "../../modules/ChibiOS/os/hal/ports/STM32/LLD/OTGv1/stm32_otg.h"
 216              		.section	.debug_info,"",%progbits
 217              	.Ldebug_info0:
 218 0000 F9180000 		.4byte	0x18f9
 219 0004 0400     		.2byte	0x4
 220 0006 00000000 		.4byte	.Ldebug_abbrev0
 221 000a 04       		.byte	0x4
 222 000b 01       		.uleb128 0x1
 223 000c 76030000 		.4byte	.LASF313
 224 0010 0C       		.byte	0xc
 225 0011 DB010000 		.4byte	.LASF314
 226 0015 7C0A0000 		.4byte	.LASF315
 227 0019 00000000 		.4byte	.Ldebug_ranges0+0
 228 001d 00000000 		.4byte	0
ARM GAS  /tmp/ccEcHKKd.s 			page 5


 229 0021 00000000 		.4byte	.Ldebug_line0
 230 0025 02       		.uleb128 0x2
 231 0026 04       		.byte	0x4
 232 0027 05       		.byte	0x5
 233 0028 696E7400 		.ascii	"int\000"
 234 002c 03       		.uleb128 0x3
 235 002d 18000000 		.4byte	.LASF4
 236 0031 02       		.byte	0x2
 237 0032 D8       		.byte	0xd8
 238 0033 3C000000 		.4byte	0x3c
 239 0037 04       		.uleb128 0x4
 240 0038 2C000000 		.4byte	0x2c
 241 003c 05       		.uleb128 0x5
 242 003d 04       		.byte	0x4
 243 003e 07       		.byte	0x7
 244 003f 9E080000 		.4byte	.LASF0
 245 0043 05       		.uleb128 0x5
 246 0044 08       		.byte	0x8
 247 0045 05       		.byte	0x5
 248 0046 C6070000 		.4byte	.LASF1
 249 004a 05       		.uleb128 0x5
 250 004b 08       		.byte	0x8
 251 004c 04       		.byte	0x4
 252 004d 56090000 		.4byte	.LASF2
 253 0051 05       		.uleb128 0x5
 254 0052 01       		.byte	0x1
 255 0053 06       		.byte	0x6
 256 0054 2B020000 		.4byte	.LASF3
 257 0058 03       		.uleb128 0x3
 258 0059 1B010000 		.4byte	.LASF5
 259 005d 03       		.byte	0x3
 260 005e 2B       		.byte	0x2b
 261 005f 63000000 		.4byte	0x63
 262 0063 05       		.uleb128 0x5
 263 0064 01       		.byte	0x1
 264 0065 08       		.byte	0x8
 265 0066 6D020000 		.4byte	.LASF6
 266 006a 05       		.uleb128 0x5
 267 006b 02       		.byte	0x2
 268 006c 05       		.byte	0x5
 269 006d D00B0000 		.4byte	.LASF7
 270 0071 03       		.uleb128 0x3
 271 0072 4F030000 		.4byte	.LASF8
 272 0076 03       		.byte	0x3
 273 0077 39       		.byte	0x39
 274 0078 7C000000 		.4byte	0x7c
 275 007c 05       		.uleb128 0x5
 276 007d 02       		.byte	0x2
 277 007e 07       		.byte	0x7
 278 007f 630D0000 		.4byte	.LASF9
 279 0083 03       		.uleb128 0x3
 280 0084 C50D0000 		.4byte	.LASF10
 281 0088 03       		.byte	0x3
 282 0089 4D       		.byte	0x4d
 283 008a 8E000000 		.4byte	0x8e
 284 008e 05       		.uleb128 0x5
 285 008f 04       		.byte	0x4
ARM GAS  /tmp/ccEcHKKd.s 			page 6


 286 0090 05       		.byte	0x5
 287 0091 6E010000 		.4byte	.LASF11
 288 0095 03       		.uleb128 0x3
 289 0096 AA070000 		.4byte	.LASF12
 290 009a 03       		.byte	0x3
 291 009b 4F       		.byte	0x4f
 292 009c A0000000 		.4byte	0xa0
 293 00a0 05       		.uleb128 0x5
 294 00a1 04       		.byte	0x4
 295 00a2 07       		.byte	0x7
 296 00a3 2D060000 		.4byte	.LASF13
 297 00a7 03       		.uleb128 0x3
 298 00a8 12060000 		.4byte	.LASF14
 299 00ac 03       		.byte	0x3
 300 00ad 69       		.byte	0x69
 301 00ae B2000000 		.4byte	0xb2
 302 00b2 05       		.uleb128 0x5
 303 00b3 08       		.byte	0x8
 304 00b4 07       		.byte	0x7
 305 00b5 D2090000 		.4byte	.LASF15
 306 00b9 03       		.uleb128 0x3
 307 00ba 37020000 		.4byte	.LASF16
 308 00be 04       		.byte	0x4
 309 00bf 18       		.byte	0x18
 310 00c0 58000000 		.4byte	0x58
 311 00c4 06       		.uleb128 0x6
 312 00c5 B9000000 		.4byte	0xb9
 313 00c9 03       		.uleb128 0x3
 314 00ca F2090000 		.4byte	.LASF17
 315 00ce 04       		.byte	0x4
 316 00cf 24       		.byte	0x24
 317 00d0 71000000 		.4byte	0x71
 318 00d4 03       		.uleb128 0x3
 319 00d5 4F000000 		.4byte	.LASF18
 320 00d9 04       		.byte	0x4
 321 00da 2C       		.byte	0x2c
 322 00db 83000000 		.4byte	0x83
 323 00df 04       		.uleb128 0x4
 324 00e0 D4000000 		.4byte	0xd4
 325 00e4 03       		.uleb128 0x3
 326 00e5 2D0D0000 		.4byte	.LASF19
 327 00e9 04       		.byte	0x4
 328 00ea 30       		.byte	0x30
 329 00eb 95000000 		.4byte	0x95
 330 00ef 04       		.uleb128 0x4
 331 00f0 E4000000 		.4byte	0xe4
 332 00f4 03       		.uleb128 0x3
 333 00f5 E70B0000 		.4byte	.LASF20
 334 00f9 04       		.byte	0x4
 335 00fa 3C       		.byte	0x3c
 336 00fb A7000000 		.4byte	0xa7
 337 00ff 03       		.uleb128 0x3
 338 0100 BA0B0000 		.4byte	.LASF21
 339 0104 05       		.byte	0x5
 340 0105 34       		.byte	0x34
 341 0106 3C000000 		.4byte	0x3c
 342 010a 03       		.uleb128 0x3
ARM GAS  /tmp/ccEcHKKd.s 			page 7


 343 010b 6E0B0000 		.4byte	.LASF22
 344 010f 06       		.byte	0x6
 345 0110 2A       		.byte	0x2a
 346 0111 B9000000 		.4byte	0xb9
 347 0115 03       		.uleb128 0x3
 348 0116 8A010000 		.4byte	.LASF23
 349 011a 06       		.byte	0x6
 350 011b 2B       		.byte	0x2b
 351 011c B9000000 		.4byte	0xb9
 352 0120 03       		.uleb128 0x3
 353 0121 32000000 		.4byte	.LASF24
 354 0125 06       		.byte	0x6
 355 0126 2E       		.byte	0x2e
 356 0127 E4000000 		.4byte	0xe4
 357 012b 03       		.uleb128 0x3
 358 012c 010A0000 		.4byte	.LASF25
 359 0130 06       		.byte	0x6
 360 0131 2F       		.byte	0x2f
 361 0132 D4000000 		.4byte	0xd4
 362 0136 03       		.uleb128 0x3
 363 0137 2F0A0000 		.4byte	.LASF26
 364 013b 06       		.byte	0x6
 365 013c 32       		.byte	0x32
 366 013d E4000000 		.4byte	0xe4
 367 0141 04       		.uleb128 0x4
 368 0142 36010000 		.4byte	0x136
 369 0146 03       		.uleb128 0x3
 370 0147 4D090000 		.4byte	.LASF27
 371 014b 07       		.byte	0x7
 372 014c 34       		.byte	0x34
 373 014d 51010000 		.4byte	0x151
 374 0151 07       		.uleb128 0x7
 375 0152 73060000 		.4byte	.LASF34
 376 0156 18       		.byte	0x18
 377 0157 08       		.byte	0x8
 378 0158 8E       		.byte	0x8e
 379 0159 A5010000 		.4byte	0x1a5
 380 015d 08       		.uleb128 0x8
 381 015e 6F0A0000 		.4byte	.LASF28
 382 0162 08       		.byte	0x8
 383 0163 8F       		.byte	0x8f
 384 0164 B6010000 		.4byte	0x1b6
 385 0168 00       		.byte	0
 386 0169 08       		.uleb128 0x8
 387 016a EE000000 		.4byte	.LASF29
 388 016e 08       		.byte	0x8
 389 016f 90       		.byte	0x90
 390 0170 20010000 		.4byte	0x120
 391 0174 08       		.byte	0x8
 392 0175 09       		.uleb128 0x9
 393 0176 63747800 		.ascii	"ctx\000"
 394 017a 08       		.byte	0x8
 395 017b 91       		.byte	0x91
 396 017c DC040000 		.4byte	0x4dc
 397 0180 0C       		.byte	0xc
 398 0181 08       		.uleb128 0x8
 399 0182 D0000000 		.4byte	.LASF30
ARM GAS  /tmp/ccEcHKKd.s 			page 8


 400 0186 08       		.byte	0x8
 401 0187 A9       		.byte	0xa9
 402 0188 15010000 		.4byte	0x115
 403 018c 10       		.byte	0x10
 404 018d 08       		.uleb128 0x8
 405 018e 8C040000 		.4byte	.LASF31
 406 0192 08       		.byte	0x8
 407 0193 AD       		.byte	0xad
 408 0194 0A010000 		.4byte	0x10a
 409 0198 11       		.byte	0x11
 410 0199 0A       		.uleb128 0xa
 411 019a 7500     		.ascii	"u\000"
 412 019c 08       		.byte	0x8
 413 019d 0301     		.2byte	0x103
 414 019f 46060000 		.4byte	0x646
 415 01a3 14       		.byte	0x14
 416 01a4 00       		.byte	0
 417 01a5 03       		.uleb128 0x3
 418 01a6 62090000 		.4byte	.LASF32
 419 01aa 07       		.byte	0x7
 420 01ab 39       		.byte	0x39
 421 01ac B0010000 		.4byte	0x1b0
 422 01b0 0B       		.uleb128 0xb
 423 01b1 04       		.byte	0x4
 424 01b2 46010000 		.4byte	0x146
 425 01b6 03       		.uleb128 0x3
 426 01b7 A7010000 		.4byte	.LASF33
 427 01bb 07       		.byte	0x7
 428 01bc 45       		.byte	0x45
 429 01bd C1010000 		.4byte	0x1c1
 430 01c1 07       		.uleb128 0x7
 431 01c2 0C0A0000 		.4byte	.LASF35
 432 01c6 08       		.byte	0x8
 433 01c7 08       		.byte	0x8
 434 01c8 83       		.byte	0x83
 435 01c9 E6010000 		.4byte	0x1e6
 436 01cd 08       		.uleb128 0x8
 437 01ce EE0D0000 		.4byte	.LASF36
 438 01d2 08       		.byte	0x8
 439 01d3 84       		.byte	0x84
 440 01d4 B0010000 		.4byte	0x1b0
 441 01d8 00       		.byte	0
 442 01d9 08       		.uleb128 0x8
 443 01da FA0D0000 		.4byte	.LASF37
 444 01de 08       		.byte	0x8
 445 01df 85       		.byte	0x85
 446 01e0 B0010000 		.4byte	0x1b0
 447 01e4 04       		.byte	0x4
 448 01e5 00       		.byte	0
 449 01e6 03       		.uleb128 0x3
 450 01e7 FB060000 		.4byte	.LASF38
 451 01eb 07       		.byte	0x7
 452 01ec 4C       		.byte	0x4c
 453 01ed F1010000 		.4byte	0x1f1
 454 01f1 0C       		.uleb128 0xc
 455 01f2 96050000 		.4byte	.LASF39
 456 01f6 14       		.byte	0x14
ARM GAS  /tmp/ccEcHKKd.s 			page 9


 457 01f7 08       		.byte	0x8
 458 01f8 5E01     		.2byte	0x15e
 459 01fa 33020000 		.4byte	0x233
 460 01fe 0D       		.uleb128 0xd
 461 01ff 6F0A0000 		.4byte	.LASF28
 462 0203 08       		.byte	0x8
 463 0204 5F01     		.2byte	0x15f
 464 0206 B6010000 		.4byte	0x1b6
 465 020a 00       		.byte	0
 466 020b 0D       		.uleb128 0xd
 467 020c EE000000 		.4byte	.LASF29
 468 0210 08       		.byte	0x8
 469 0211 6001     		.2byte	0x160
 470 0213 20010000 		.4byte	0x120
 471 0217 08       		.byte	0x8
 472 0218 0A       		.uleb128 0xa
 473 0219 63747800 		.ascii	"ctx\000"
 474 021d 08       		.byte	0x8
 475 021e 6201     		.2byte	0x162
 476 0220 DC040000 		.4byte	0x4dc
 477 0224 0C       		.byte	0xc
 478 0225 0D       		.uleb128 0xd
 479 0226 F2080000 		.4byte	.LASF40
 480 022a 08       		.byte	0x8
 481 022b 6901     		.2byte	0x169
 482 022d B0010000 		.4byte	0x1b0
 483 0231 10       		.byte	0x10
 484 0232 00       		.byte	0
 485 0233 03       		.uleb128 0x3
 486 0234 79000000 		.4byte	.LASF41
 487 0238 07       		.byte	0x7
 488 0239 51       		.byte	0x51
 489 023a 3E020000 		.4byte	0x23e
 490 023e 0B       		.uleb128 0xb
 491 023f 04       		.byte	0x4
 492 0240 44020000 		.4byte	0x244
 493 0244 0E       		.uleb128 0xe
 494 0245 4F020000 		.4byte	0x24f
 495 0249 0F       		.uleb128 0xf
 496 024a 4F020000 		.4byte	0x24f
 497 024e 00       		.byte	0
 498 024f 10       		.uleb128 0x10
 499 0250 04       		.byte	0x4
 500 0251 03       		.uleb128 0x3
 501 0252 EB060000 		.4byte	.LASF42
 502 0256 07       		.byte	0x7
 503 0257 56       		.byte	0x56
 504 0258 5C020000 		.4byte	0x25c
 505 025c 0C       		.uleb128 0xc
 506 025d A4090000 		.4byte	.LASF43
 507 0261 14       		.byte	0x14
 508 0262 08       		.byte	0x8
 509 0263 3901     		.2byte	0x139
 510 0265 AB020000 		.4byte	0x2ab
 511 0269 0D       		.uleb128 0xd
 512 026a EE0D0000 		.4byte	.LASF36
 513 026e 08       		.byte	0x8
ARM GAS  /tmp/ccEcHKKd.s 			page 10


 514 026f 3A01     		.2byte	0x13a
 515 0271 81060000 		.4byte	0x681
 516 0275 00       		.byte	0
 517 0276 0D       		.uleb128 0xd
 518 0277 FA0D0000 		.4byte	.LASF37
 519 027b 08       		.byte	0x8
 520 027c 3B01     		.2byte	0x13b
 521 027e 81060000 		.4byte	0x681
 522 0282 04       		.byte	0x4
 523 0283 0D       		.uleb128 0xd
 524 0284 510A0000 		.4byte	.LASF44
 525 0288 08       		.byte	0x8
 526 0289 3C01     		.2byte	0x13c
 527 028b 76030000 		.4byte	0x376
 528 028f 08       		.byte	0x8
 529 0290 0D       		.uleb128 0xd
 530 0291 F50B0000 		.4byte	.LASF45
 531 0295 08       		.byte	0x8
 532 0296 3D01     		.2byte	0x13d
 533 0298 33020000 		.4byte	0x233
 534 029c 0C       		.byte	0xc
 535 029d 0A       		.uleb128 0xa
 536 029e 70617200 		.ascii	"par\000"
 537 02a2 08       		.byte	0x8
 538 02a3 3F01     		.2byte	0x13f
 539 02a5 4F020000 		.4byte	0x24f
 540 02a9 10       		.byte	0x10
 541 02aa 00       		.byte	0
 542 02ab 03       		.uleb128 0x3
 543 02ac 8F060000 		.4byte	.LASF46
 544 02b0 07       		.byte	0x7
 545 02b1 5B       		.byte	0x5b
 546 02b2 B6020000 		.4byte	0x2b6
 547 02b6 0C       		.uleb128 0xc
 548 02b7 89000000 		.4byte	.LASF47
 549 02bb 10       		.byte	0x10
 550 02bc 08       		.byte	0x8
 551 02bd 4901     		.2byte	0x149
 552 02bf F8020000 		.4byte	0x2f8
 553 02c3 0D       		.uleb128 0xd
 554 02c4 EE0D0000 		.4byte	.LASF36
 555 02c8 08       		.byte	0x8
 556 02c9 4A01     		.2byte	0x14a
 557 02cb 81060000 		.4byte	0x681
 558 02cf 00       		.byte	0
 559 02d0 0D       		.uleb128 0xd
 560 02d1 FA0D0000 		.4byte	.LASF37
 561 02d5 08       		.byte	0x8
 562 02d6 4C01     		.2byte	0x14c
 563 02d8 81060000 		.4byte	0x681
 564 02dc 04       		.byte	0x4
 565 02dd 0D       		.uleb128 0xd
 566 02de 510A0000 		.4byte	.LASF44
 567 02e2 08       		.byte	0x8
 568 02e3 4E01     		.2byte	0x14e
 569 02e5 76030000 		.4byte	0x376
 570 02e9 08       		.byte	0x8
ARM GAS  /tmp/ccEcHKKd.s 			page 11


 571 02ea 0D       		.uleb128 0xd
 572 02eb 90020000 		.4byte	.LASF48
 573 02ef 08       		.byte	0x8
 574 02f0 5601     		.2byte	0x156
 575 02f2 6B030000 		.4byte	0x36b
 576 02f6 0C       		.byte	0xc
 577 02f7 00       		.byte	0
 578 02f8 03       		.uleb128 0x3
 579 02f9 CD020000 		.4byte	.LASF49
 580 02fd 07       		.byte	0x7
 581 02fe 60       		.byte	0x60
 582 02ff 03030000 		.4byte	0x303
 583 0303 0C       		.uleb128 0xc
 584 0304 3C0C0000 		.4byte	.LASF50
 585 0308 04       		.byte	0x4
 586 0309 08       		.byte	0x8
 587 030a 7001     		.2byte	0x170
 588 030c 1E030000 		.4byte	0x31e
 589 0310 0D       		.uleb128 0xd
 590 0311 A6020000 		.4byte	.LASF51
 591 0315 08       		.byte	0x8
 592 0316 7801     		.2byte	0x178
 593 0318 8D060000 		.4byte	0x68d
 594 031c 00       		.byte	0
 595 031d 00       		.byte	0
 596 031e 03       		.uleb128 0x3
 597 031f 8D0D0000 		.4byte	.LASF52
 598 0323 07       		.byte	0x7
 599 0324 65       		.byte	0x65
 600 0325 29030000 		.4byte	0x329
 601 0329 0C       		.uleb128 0xc
 602 032a 1B0D0000 		.4byte	.LASF53
 603 032e 40       		.byte	0x40
 604 032f 08       		.byte	0x8
 605 0330 9001     		.2byte	0x190
 606 0332 6B030000 		.4byte	0x36b
 607 0336 0D       		.uleb128 0xd
 608 0337 510B0000 		.4byte	.LASF54
 609 033b 08       		.byte	0x8
 610 033c 9401     		.2byte	0x194
 611 033e E6010000 		.4byte	0x1e6
 612 0342 00       		.byte	0
 613 0343 0D       		.uleb128 0xd
 614 0344 910C0000 		.4byte	.LASF55
 615 0348 08       		.byte	0x8
 616 0349 9801     		.2byte	0x198
 617 034b AB020000 		.4byte	0x2ab
 618 034f 14       		.byte	0x14
 619 0350 0A       		.uleb128 0xa
 620 0351 64626700 		.ascii	"dbg\000"
 621 0355 08       		.byte	0x8
 622 0356 9C01     		.2byte	0x19c
 623 0358 F8020000 		.4byte	0x2f8
 624 035c 24       		.byte	0x24
 625 035d 0D       		.uleb128 0xd
 626 035e AC0A0000 		.4byte	.LASF56
 627 0362 08       		.byte	0x8
ARM GAS  /tmp/ccEcHKKd.s 			page 12


 628 0363 A001     		.2byte	0x1a0
 629 0365 46010000 		.4byte	0x146
 630 0369 28       		.byte	0x28
 631 036a 00       		.byte	0
 632 036b 03       		.uleb128 0x3
 633 036c 28000000 		.4byte	.LASF57
 634 0370 09       		.byte	0x9
 635 0371 6D       		.byte	0x6d
 636 0372 E4000000 		.4byte	0xe4
 637 0376 03       		.uleb128 0x3
 638 0377 E6070000 		.4byte	.LASF58
 639 037b 09       		.byte	0x9
 640 037c 79       		.byte	0x79
 641 037d E4000000 		.4byte	0xe4
 642 0381 05       		.uleb128 0x5
 643 0382 04       		.byte	0x4
 644 0383 07       		.byte	0x7
 645 0384 1F000000 		.4byte	.LASF59
 646 0388 11       		.uleb128 0x11
 647 0389 4F080000 		.4byte	.LASF60
 648 038d 0A       		.byte	0xa
 649 038e 0408     		.2byte	0x804
 650 0390 DF000000 		.4byte	0xdf
 651 0394 12       		.uleb128 0x12
 652 0395 54060000 		.4byte	.LASF61
 653 0399 0B       		.byte	0xb
 654 039a 4C       		.byte	0x4c
 655 039b E4000000 		.4byte	0xe4
 656 039f 13       		.uleb128 0x13
 657 03a0 C4000000 		.4byte	0xc4
 658 03a4 AF030000 		.4byte	0x3af
 659 03a8 14       		.uleb128 0x14
 660 03a9 81030000 		.4byte	0x381
 661 03ad 0F       		.byte	0xf
 662 03ae 00       		.byte	0
 663 03af 06       		.uleb128 0x6
 664 03b0 9F030000 		.4byte	0x39f
 665 03b4 12       		.uleb128 0x12
 666 03b5 96090000 		.4byte	.LASF62
 667 03b9 0B       		.byte	0xb
 668 03ba 4E       		.byte	0x4e
 669 03bb AF030000 		.4byte	0x3af
 670 03bf 13       		.uleb128 0x13
 671 03c0 C4000000 		.4byte	0xc4
 672 03c4 CF030000 		.4byte	0x3cf
 673 03c8 14       		.uleb128 0x14
 674 03c9 81030000 		.4byte	0x381
 675 03cd 07       		.byte	0x7
 676 03ce 00       		.byte	0
 677 03cf 06       		.uleb128 0x6
 678 03d0 BF030000 		.4byte	0x3bf
 679 03d4 12       		.uleb128 0x12
 680 03d5 AC0B0000 		.4byte	.LASF63
 681 03d9 0B       		.byte	0xb
 682 03da 4F       		.byte	0x4f
 683 03db CF030000 		.4byte	0x3cf
 684 03df 15       		.uleb128 0x15
ARM GAS  /tmp/ccEcHKKd.s 			page 13


 685 03e0 18       		.byte	0x18
 686 03e1 0C       		.byte	0xc
 687 03e2 6A01     		.2byte	0x16a
 688 03e4 36040000 		.4byte	0x436
 689 03e8 0A       		.uleb128 0xa
 690 03e9 435200   		.ascii	"CR\000"
 691 03ec 0C       		.byte	0xc
 692 03ed 6C01     		.2byte	0x16c
 693 03ef EF000000 		.4byte	0xef
 694 03f3 00       		.byte	0
 695 03f4 0D       		.uleb128 0xd
 696 03f5 D70D0000 		.4byte	.LASF64
 697 03f9 0C       		.byte	0xc
 698 03fa 6D01     		.2byte	0x16d
 699 03fc EF000000 		.4byte	0xef
 700 0400 04       		.byte	0x4
 701 0401 0A       		.uleb128 0xa
 702 0402 50415200 		.ascii	"PAR\000"
 703 0406 0C       		.byte	0xc
 704 0407 6E01     		.2byte	0x16e
 705 0409 EF000000 		.4byte	0xef
 706 040d 08       		.byte	0x8
 707 040e 0D       		.uleb128 0xd
 708 040f A20B0000 		.4byte	.LASF65
 709 0413 0C       		.byte	0xc
 710 0414 6F01     		.2byte	0x16f
 711 0416 EF000000 		.4byte	0xef
 712 041a 0C       		.byte	0xc
 713 041b 0D       		.uleb128 0xd
 714 041c 00000000 		.4byte	.LASF66
 715 0420 0C       		.byte	0xc
 716 0421 7001     		.2byte	0x170
 717 0423 EF000000 		.4byte	0xef
 718 0427 10       		.byte	0x10
 719 0428 0A       		.uleb128 0xa
 720 0429 46435200 		.ascii	"FCR\000"
 721 042d 0C       		.byte	0xc
 722 042e 7101     		.2byte	0x171
 723 0430 EF000000 		.4byte	0xef
 724 0434 14       		.byte	0x14
 725 0435 00       		.byte	0
 726 0436 16       		.uleb128 0x16
 727 0437 24090000 		.4byte	.LASF67
 728 043b 0C       		.byte	0xc
 729 043c 7201     		.2byte	0x172
 730 043e DF030000 		.4byte	0x3df
 731 0442 15       		.uleb128 0x15
 732 0443 1C       		.byte	0x1c
 733 0444 0C       		.byte	0xc
 734 0445 0703     		.2byte	0x307
 735 0447 A5040000 		.4byte	0x4a5
 736 044b 0A       		.uleb128 0xa
 737 044c 535200   		.ascii	"SR\000"
 738 044f 0C       		.byte	0xc
 739 0450 0903     		.2byte	0x309
 740 0452 EF000000 		.4byte	0xef
 741 0456 00       		.byte	0
ARM GAS  /tmp/ccEcHKKd.s 			page 14


 742 0457 0A       		.uleb128 0xa
 743 0458 445200   		.ascii	"DR\000"
 744 045b 0C       		.byte	0xc
 745 045c 0A03     		.2byte	0x30a
 746 045e EF000000 		.4byte	0xef
 747 0462 04       		.byte	0x4
 748 0463 0A       		.uleb128 0xa
 749 0464 42525200 		.ascii	"BRR\000"
 750 0468 0C       		.byte	0xc
 751 0469 0B03     		.2byte	0x30b
 752 046b EF000000 		.4byte	0xef
 753 046f 08       		.byte	0x8
 754 0470 0A       		.uleb128 0xa
 755 0471 43523100 		.ascii	"CR1\000"
 756 0475 0C       		.byte	0xc
 757 0476 0C03     		.2byte	0x30c
 758 0478 EF000000 		.4byte	0xef
 759 047c 0C       		.byte	0xc
 760 047d 0A       		.uleb128 0xa
 761 047e 43523200 		.ascii	"CR2\000"
 762 0482 0C       		.byte	0xc
 763 0483 0D03     		.2byte	0x30d
 764 0485 EF000000 		.4byte	0xef
 765 0489 10       		.byte	0x10
 766 048a 0A       		.uleb128 0xa
 767 048b 43523300 		.ascii	"CR3\000"
 768 048f 0C       		.byte	0xc
 769 0490 0E03     		.2byte	0x30e
 770 0492 EF000000 		.4byte	0xef
 771 0496 14       		.byte	0x14
 772 0497 0D       		.uleb128 0xd
 773 0498 0B080000 		.4byte	.LASF68
 774 049c 0C       		.byte	0xc
 775 049d 0F03     		.2byte	0x30f
 776 049f EF000000 		.4byte	0xef
 777 04a3 18       		.byte	0x18
 778 04a4 00       		.byte	0
 779 04a5 16       		.uleb128 0x16
 780 04a6 A8040000 		.4byte	.LASF69
 781 04aa 0C       		.byte	0xc
 782 04ab 1003     		.2byte	0x310
 783 04ad 42040000 		.4byte	0x442
 784 04b1 13       		.uleb128 0x13
 785 04b2 EF000000 		.4byte	0xef
 786 04b6 C1040000 		.4byte	0x4c1
 787 04ba 14       		.uleb128 0x14
 788 04bb 81030000 		.4byte	0x381
 789 04bf 0E       		.byte	0xe
 790 04c0 00       		.byte	0
 791 04c1 04       		.uleb128 0x4
 792 04c2 B1040000 		.4byte	0x4b1
 793 04c6 03       		.uleb128 0x3
 794 04c7 C4010000 		.4byte	.LASF70
 795 04cb 0D       		.byte	0xd
 796 04cc 65       		.byte	0x65
 797 04cd 4F020000 		.4byte	0x24f
 798 04d1 03       		.uleb128 0x3
ARM GAS  /tmp/ccEcHKKd.s 			page 15


 799 04d2 9D040000 		.4byte	.LASF71
 800 04d6 0D       		.byte	0xd
 801 04d7 6D       		.byte	0x6d
 802 04d8 F4000000 		.4byte	0xf4
 803 04dc 07       		.uleb128 0x7
 804 04dd EA0C0000 		.4byte	.LASF72
 805 04e1 04       		.byte	0x4
 806 04e2 0D       		.byte	0xd
 807 04e3 89       		.byte	0x89
 808 04e4 F4040000 		.4byte	0x4f4
 809 04e8 09       		.uleb128 0x9
 810 04e9 737000   		.ascii	"sp\000"
 811 04ec 0D       		.byte	0xd
 812 04ed 8A       		.byte	0x8a
 813 04ee 40060000 		.4byte	0x640
 814 04f2 00       		.byte	0
 815 04f3 00       		.byte	0
 816 04f4 0C       		.uleb128 0xc
 817 04f5 7F090000 		.4byte	.LASF73
 818 04f9 64       		.byte	0x64
 819 04fa 0E       		.byte	0xe
 820 04fb 5901     		.2byte	0x159
 821 04fd 40060000 		.4byte	0x640
 822 0501 0A       		.uleb128 0xa
 823 0502 73313600 		.ascii	"s16\000"
 824 0506 0E       		.byte	0xe
 825 0507 5B01     		.2byte	0x15b
 826 0509 C6040000 		.4byte	0x4c6
 827 050d 00       		.byte	0
 828 050e 0A       		.uleb128 0xa
 829 050f 73313700 		.ascii	"s17\000"
 830 0513 0E       		.byte	0xe
 831 0514 5C01     		.2byte	0x15c
 832 0516 C6040000 		.4byte	0x4c6
 833 051a 04       		.byte	0x4
 834 051b 0A       		.uleb128 0xa
 835 051c 73313800 		.ascii	"s18\000"
 836 0520 0E       		.byte	0xe
 837 0521 5D01     		.2byte	0x15d
 838 0523 C6040000 		.4byte	0x4c6
 839 0527 08       		.byte	0x8
 840 0528 0A       		.uleb128 0xa
 841 0529 73313900 		.ascii	"s19\000"
 842 052d 0E       		.byte	0xe
 843 052e 5E01     		.2byte	0x15e
 844 0530 C6040000 		.4byte	0x4c6
 845 0534 0C       		.byte	0xc
 846 0535 0A       		.uleb128 0xa
 847 0536 73323000 		.ascii	"s20\000"
 848 053a 0E       		.byte	0xe
 849 053b 5F01     		.2byte	0x15f
 850 053d C6040000 		.4byte	0x4c6
 851 0541 10       		.byte	0x10
 852 0542 0A       		.uleb128 0xa
 853 0543 73323100 		.ascii	"s21\000"
 854 0547 0E       		.byte	0xe
 855 0548 6001     		.2byte	0x160
ARM GAS  /tmp/ccEcHKKd.s 			page 16


 856 054a C6040000 		.4byte	0x4c6
 857 054e 14       		.byte	0x14
 858 054f 0A       		.uleb128 0xa
 859 0550 73323200 		.ascii	"s22\000"
 860 0554 0E       		.byte	0xe
 861 0555 6101     		.2byte	0x161
 862 0557 C6040000 		.4byte	0x4c6
 863 055b 18       		.byte	0x18
 864 055c 0A       		.uleb128 0xa
 865 055d 73323300 		.ascii	"s23\000"
 866 0561 0E       		.byte	0xe
 867 0562 6201     		.2byte	0x162
 868 0564 C6040000 		.4byte	0x4c6
 869 0568 1C       		.byte	0x1c
 870 0569 0A       		.uleb128 0xa
 871 056a 73323400 		.ascii	"s24\000"
 872 056e 0E       		.byte	0xe
 873 056f 6301     		.2byte	0x163
 874 0571 C6040000 		.4byte	0x4c6
 875 0575 20       		.byte	0x20
 876 0576 0A       		.uleb128 0xa
 877 0577 73323500 		.ascii	"s25\000"
 878 057b 0E       		.byte	0xe
 879 057c 6401     		.2byte	0x164
 880 057e C6040000 		.4byte	0x4c6
 881 0582 24       		.byte	0x24
 882 0583 0A       		.uleb128 0xa
 883 0584 73323600 		.ascii	"s26\000"
 884 0588 0E       		.byte	0xe
 885 0589 6501     		.2byte	0x165
 886 058b C6040000 		.4byte	0x4c6
 887 058f 28       		.byte	0x28
 888 0590 0A       		.uleb128 0xa
 889 0591 73323700 		.ascii	"s27\000"
 890 0595 0E       		.byte	0xe
 891 0596 6601     		.2byte	0x166
 892 0598 C6040000 		.4byte	0x4c6
 893 059c 2C       		.byte	0x2c
 894 059d 0A       		.uleb128 0xa
 895 059e 73323800 		.ascii	"s28\000"
 896 05a2 0E       		.byte	0xe
 897 05a3 6701     		.2byte	0x167
 898 05a5 C6040000 		.4byte	0x4c6
 899 05a9 30       		.byte	0x30
 900 05aa 0A       		.uleb128 0xa
 901 05ab 73323900 		.ascii	"s29\000"
 902 05af 0E       		.byte	0xe
 903 05b0 6801     		.2byte	0x168
 904 05b2 C6040000 		.4byte	0x4c6
 905 05b6 34       		.byte	0x34
 906 05b7 0A       		.uleb128 0xa
 907 05b8 73333000 		.ascii	"s30\000"
 908 05bc 0E       		.byte	0xe
 909 05bd 6901     		.2byte	0x169
 910 05bf C6040000 		.4byte	0x4c6
 911 05c3 38       		.byte	0x38
 912 05c4 0A       		.uleb128 0xa
ARM GAS  /tmp/ccEcHKKd.s 			page 17


 913 05c5 73333100 		.ascii	"s31\000"
 914 05c9 0E       		.byte	0xe
 915 05ca 6A01     		.2byte	0x16a
 916 05cc C6040000 		.4byte	0x4c6
 917 05d0 3C       		.byte	0x3c
 918 05d1 0A       		.uleb128 0xa
 919 05d2 723400   		.ascii	"r4\000"
 920 05d5 0E       		.byte	0xe
 921 05d6 6C01     		.2byte	0x16c
 922 05d8 C6040000 		.4byte	0x4c6
 923 05dc 40       		.byte	0x40
 924 05dd 0A       		.uleb128 0xa
 925 05de 723500   		.ascii	"r5\000"
 926 05e1 0E       		.byte	0xe
 927 05e2 6D01     		.2byte	0x16d
 928 05e4 C6040000 		.4byte	0x4c6
 929 05e8 44       		.byte	0x44
 930 05e9 0A       		.uleb128 0xa
 931 05ea 723600   		.ascii	"r6\000"
 932 05ed 0E       		.byte	0xe
 933 05ee 6E01     		.2byte	0x16e
 934 05f0 C6040000 		.4byte	0x4c6
 935 05f4 48       		.byte	0x48
 936 05f5 0A       		.uleb128 0xa
 937 05f6 723700   		.ascii	"r7\000"
 938 05f9 0E       		.byte	0xe
 939 05fa 6F01     		.2byte	0x16f
 940 05fc C6040000 		.4byte	0x4c6
 941 0600 4C       		.byte	0x4c
 942 0601 0A       		.uleb128 0xa
 943 0602 723800   		.ascii	"r8\000"
 944 0605 0E       		.byte	0xe
 945 0606 7001     		.2byte	0x170
 946 0608 C6040000 		.4byte	0x4c6
 947 060c 50       		.byte	0x50
 948 060d 0A       		.uleb128 0xa
 949 060e 723900   		.ascii	"r9\000"
 950 0611 0E       		.byte	0xe
 951 0612 7101     		.2byte	0x171
 952 0614 C6040000 		.4byte	0x4c6
 953 0618 54       		.byte	0x54
 954 0619 0A       		.uleb128 0xa
 955 061a 72313000 		.ascii	"r10\000"
 956 061e 0E       		.byte	0xe
 957 061f 7201     		.2byte	0x172
 958 0621 C6040000 		.4byte	0x4c6
 959 0625 58       		.byte	0x58
 960 0626 0A       		.uleb128 0xa
 961 0627 72313100 		.ascii	"r11\000"
 962 062b 0E       		.byte	0xe
 963 062c 7301     		.2byte	0x173
 964 062e C6040000 		.4byte	0x4c6
 965 0632 5C       		.byte	0x5c
 966 0633 0A       		.uleb128 0xa
 967 0634 6C7200   		.ascii	"lr\000"
 968 0637 0E       		.byte	0xe
 969 0638 7401     		.2byte	0x174
ARM GAS  /tmp/ccEcHKKd.s 			page 18


 970 063a C6040000 		.4byte	0x4c6
 971 063e 60       		.byte	0x60
 972 063f 00       		.byte	0
 973 0640 0B       		.uleb128 0xb
 974 0641 04       		.byte	0x4
 975 0642 F4040000 		.4byte	0x4f4
 976 0646 17       		.uleb128 0x17
 977 0647 04       		.byte	0x4
 978 0648 08       		.byte	0x8
 979 0649 C6       		.byte	0xc6
 980 064a 7B060000 		.4byte	0x67b
 981 064e 18       		.uleb128 0x18
 982 064f 5C0D0000 		.4byte	.LASF74
 983 0653 08       		.byte	0x8
 984 0654 CD       		.byte	0xcd
 985 0655 2B010000 		.4byte	0x12b
 986 0659 18       		.uleb128 0x18
 987 065a 12010000 		.4byte	.LASF75
 988 065e 08       		.byte	0x8
 989 065f D4       		.byte	0xd4
 990 0660 2B010000 		.4byte	0x12b
 991 0664 18       		.uleb128 0x18
 992 0665 64030000 		.4byte	.LASF76
 993 0669 08       		.byte	0x8
 994 066a DB       		.byte	0xdb
 995 066b 4F020000 		.4byte	0x24f
 996 066f 18       		.uleb128 0x18
 997 0670 67020000 		.4byte	.LASF77
 998 0674 08       		.byte	0x8
 999 0675 E2       		.byte	0xe2
 1000 0676 7B060000 		.4byte	0x67b
 1001 067a 00       		.byte	0
 1002 067b 0B       		.uleb128 0xb
 1003 067c 04       		.byte	0x4
 1004 067d A5010000 		.4byte	0x1a5
 1005 0681 0B       		.uleb128 0xb
 1006 0682 04       		.byte	0x4
 1007 0683 51020000 		.4byte	0x251
 1008 0687 0B       		.uleb128 0xb
 1009 0688 04       		.byte	0x4
 1010 0689 99060000 		.4byte	0x699
 1011 068d 04       		.uleb128 0x4
 1012 068e 87060000 		.4byte	0x687
 1013 0692 05       		.uleb128 0x5
 1014 0693 01       		.byte	0x1
 1015 0694 08       		.byte	0x8
 1016 0695 25030000 		.4byte	.LASF78
 1017 0699 06       		.uleb128 0x6
 1018 069a 92060000 		.4byte	0x692
 1019 069e 19       		.uleb128 0x19
 1020 069f 636800   		.ascii	"ch\000"
 1021 06a2 08       		.byte	0x8
 1022 06a3 C701     		.2byte	0x1c7
 1023 06a5 1E030000 		.4byte	0x31e
 1024 06a9 13       		.uleb128 0x13
 1025 06aa D1040000 		.4byte	0x4d1
 1026 06ae B4060000 		.4byte	0x6b4
ARM GAS  /tmp/ccEcHKKd.s 			page 19


 1027 06b2 1A       		.uleb128 0x1a
 1028 06b3 00       		.byte	0
 1029 06b4 11       		.uleb128 0x11
 1030 06b5 AA060000 		.4byte	.LASF79
 1031 06b9 0F       		.byte	0xf
 1032 06ba 1701     		.2byte	0x117
 1033 06bc A9060000 		.4byte	0x6a9
 1034 06c0 03       		.uleb128 0x3
 1035 06c1 10080000 		.4byte	.LASF80
 1036 06c5 10       		.byte	0x10
 1037 06c6 BC       		.byte	0xbc
 1038 06c7 CB060000 		.4byte	0x6cb
 1039 06cb 07       		.uleb128 0x7
 1040 06cc DA0B0000 		.4byte	.LASF81
 1041 06d0 0C       		.byte	0xc
 1042 06d1 10       		.byte	0x10
 1043 06d2 CD       		.byte	0xcd
 1044 06d3 FB060000 		.4byte	0x6fb
 1045 06d7 08       		.uleb128 0x8
 1046 06d8 8C040000 		.4byte	.LASF31
 1047 06dc 10       		.byte	0x10
 1048 06dd CE       		.byte	0xce
 1049 06de 41010000 		.4byte	0x141
 1050 06e2 00       		.byte	0
 1051 06e3 09       		.uleb128 0x9
 1052 06e4 636200   		.ascii	"cb\000"
 1053 06e7 10       		.byte	0x10
 1054 06e8 CF       		.byte	0xcf
 1055 06e9 FB060000 		.4byte	0x6fb
 1056 06ed 04       		.byte	0x4
 1057 06ee 08       		.uleb128 0x8
 1058 06ef 46060000 		.4byte	.LASF82
 1059 06f3 10       		.byte	0x10
 1060 06f4 D0       		.byte	0xd0
 1061 06f5 4F020000 		.4byte	0x24f
 1062 06f9 08       		.byte	0x8
 1063 06fa 00       		.byte	0
 1064 06fb 03       		.uleb128 0x3
 1065 06fc 3A010000 		.4byte	.LASF83
 1066 0700 10       		.byte	0x10
 1067 0701 C3       		.byte	0xc3
 1068 0702 06070000 		.4byte	0x706
 1069 0706 0B       		.uleb128 0xb
 1070 0707 04       		.byte	0x4
 1071 0708 0C070000 		.4byte	0x70c
 1072 070c 0E       		.uleb128 0xe
 1073 070d 17070000 		.4byte	0x717
 1074 0711 0F       		.uleb128 0xf
 1075 0712 17070000 		.4byte	0x717
 1076 0716 00       		.byte	0
 1077 0717 0B       		.uleb128 0xb
 1078 0718 04       		.byte	0x4
 1079 0719 C0060000 		.4byte	0x6c0
 1080 071d 15       		.uleb128 0x15
 1081 071e 0C       		.byte	0xc
 1082 071f 11       		.byte	0x11
 1083 0720 A201     		.2byte	0x1a2
ARM GAS  /tmp/ccEcHKKd.s 			page 20


 1084 0722 75070000 		.4byte	0x775
 1085 0726 0D       		.uleb128 0xd
 1086 0727 C9040000 		.4byte	.LASF84
 1087 072b 11       		.byte	0x11
 1088 072c A301     		.2byte	0x1a3
 1089 072e 75070000 		.4byte	0x775
 1090 0732 00       		.byte	0
 1091 0733 0D       		.uleb128 0xd
 1092 0734 DC0D0000 		.4byte	.LASF85
 1093 0738 11       		.byte	0x11
 1094 0739 A401     		.2byte	0x1a4
 1095 073b 7B070000 		.4byte	0x77b
 1096 073f 04       		.byte	0x4
 1097 0740 0D       		.uleb128 0xd
 1098 0741 760B0000 		.4byte	.LASF86
 1099 0745 11       		.byte	0x11
 1100 0746 A801     		.2byte	0x1a8
 1101 0748 B9000000 		.4byte	0xb9
 1102 074c 08       		.byte	0x8
 1103 074d 0D       		.uleb128 0xd
 1104 074e 64060000 		.4byte	.LASF87
 1105 0752 11       		.byte	0x11
 1106 0753 AA01     		.2byte	0x1aa
 1107 0755 B9000000 		.4byte	0xb9
 1108 0759 09       		.byte	0x9
 1109 075a 0D       		.uleb128 0xd
 1110 075b 8E080000 		.4byte	.LASF88
 1111 075f 11       		.byte	0x11
 1112 0760 AC01     		.2byte	0x1ac
 1113 0762 B9000000 		.4byte	0xb9
 1114 0766 0A       		.byte	0xa
 1115 0767 0D       		.uleb128 0xd
 1116 0768 750A0000 		.4byte	.LASF89
 1117 076c 11       		.byte	0x11
 1118 076d AD01     		.2byte	0x1ad
 1119 076f B9000000 		.4byte	0xb9
 1120 0773 0B       		.byte	0xb
 1121 0774 00       		.byte	0
 1122 0775 0B       		.uleb128 0xb
 1123 0776 04       		.byte	0x4
 1124 0777 36040000 		.4byte	0x436
 1125 077b 0B       		.uleb128 0xb
 1126 077c 04       		.byte	0x4
 1127 077d EF000000 		.4byte	0xef
 1128 0781 16       		.uleb128 0x16
 1129 0782 05000000 		.4byte	.LASF90
 1130 0786 11       		.byte	0x11
 1131 0787 AE01     		.2byte	0x1ae
 1132 0789 1D070000 		.4byte	0x71d
 1133 078d 06       		.uleb128 0x6
 1134 078e 81070000 		.4byte	0x781
 1135 0792 13       		.uleb128 0x13
 1136 0793 8D070000 		.4byte	0x78d
 1137 0797 A2070000 		.4byte	0x7a2
 1138 079b 14       		.uleb128 0x14
 1139 079c 81030000 		.4byte	0x381
 1140 07a0 0F       		.byte	0xf
ARM GAS  /tmp/ccEcHKKd.s 			page 21


 1141 07a1 00       		.byte	0
 1142 07a2 06       		.uleb128 0x6
 1143 07a3 92070000 		.4byte	0x792
 1144 07a7 11       		.uleb128 0x11
 1145 07a8 CA060000 		.4byte	.LASF91
 1146 07ac 11       		.byte	0x11
 1147 07ad 9002     		.2byte	0x290
 1148 07af A2070000 		.4byte	0x7a2
 1149 07b3 1B       		.uleb128 0x1b
 1150 07b4 2C000000 		.4byte	0x2c
 1151 07b8 CC070000 		.4byte	0x7cc
 1152 07bc 0F       		.uleb128 0xf
 1153 07bd 4F020000 		.4byte	0x24f
 1154 07c1 0F       		.uleb128 0xf
 1155 07c2 CC070000 		.4byte	0x7cc
 1156 07c6 0F       		.uleb128 0xf
 1157 07c7 2C000000 		.4byte	0x2c
 1158 07cb 00       		.byte	0
 1159 07cc 0B       		.uleb128 0xb
 1160 07cd 04       		.byte	0x4
 1161 07ce C4000000 		.4byte	0xc4
 1162 07d2 0B       		.uleb128 0xb
 1163 07d3 04       		.byte	0x4
 1164 07d4 B3070000 		.4byte	0x7b3
 1165 07d8 1B       		.uleb128 0x1b
 1166 07d9 2C000000 		.4byte	0x2c
 1167 07dd F1070000 		.4byte	0x7f1
 1168 07e1 0F       		.uleb128 0xf
 1169 07e2 4F020000 		.4byte	0x24f
 1170 07e6 0F       		.uleb128 0xf
 1171 07e7 F1070000 		.4byte	0x7f1
 1172 07eb 0F       		.uleb128 0xf
 1173 07ec 2C000000 		.4byte	0x2c
 1174 07f0 00       		.byte	0
 1175 07f1 0B       		.uleb128 0xb
 1176 07f2 04       		.byte	0x4
 1177 07f3 B9000000 		.4byte	0xb9
 1178 07f7 0B       		.uleb128 0xb
 1179 07f8 04       		.byte	0x4
 1180 07f9 D8070000 		.4byte	0x7d8
 1181 07fd 1B       		.uleb128 0x1b
 1182 07fe 2B010000 		.4byte	0x12b
 1183 0802 11080000 		.4byte	0x811
 1184 0806 0F       		.uleb128 0xf
 1185 0807 4F020000 		.4byte	0x24f
 1186 080b 0F       		.uleb128 0xf
 1187 080c B9000000 		.4byte	0xb9
 1188 0810 00       		.byte	0
 1189 0811 0B       		.uleb128 0xb
 1190 0812 04       		.byte	0x4
 1191 0813 FD070000 		.4byte	0x7fd
 1192 0817 1B       		.uleb128 0x1b
 1193 0818 2B010000 		.4byte	0x12b
 1194 081c 26080000 		.4byte	0x826
 1195 0820 0F       		.uleb128 0xf
 1196 0821 4F020000 		.4byte	0x24f
 1197 0825 00       		.byte	0
ARM GAS  /tmp/ccEcHKKd.s 			page 22


 1198 0826 0B       		.uleb128 0xb
 1199 0827 04       		.byte	0x4
 1200 0828 17080000 		.4byte	0x817
 1201 082c 1B       		.uleb128 0x1b
 1202 082d 2B010000 		.4byte	0x12b
 1203 0831 45080000 		.4byte	0x845
 1204 0835 0F       		.uleb128 0xf
 1205 0836 4F020000 		.4byte	0x24f
 1206 083a 0F       		.uleb128 0xf
 1207 083b B9000000 		.4byte	0xb9
 1208 083f 0F       		.uleb128 0xf
 1209 0840 76030000 		.4byte	0x376
 1210 0844 00       		.byte	0
 1211 0845 0B       		.uleb128 0xb
 1212 0846 04       		.byte	0x4
 1213 0847 2C080000 		.4byte	0x82c
 1214 084b 1B       		.uleb128 0x1b
 1215 084c 2B010000 		.4byte	0x12b
 1216 0850 5F080000 		.4byte	0x85f
 1217 0854 0F       		.uleb128 0xf
 1218 0855 4F020000 		.4byte	0x24f
 1219 0859 0F       		.uleb128 0xf
 1220 085a 76030000 		.4byte	0x376
 1221 085e 00       		.byte	0
 1222 085f 0B       		.uleb128 0xb
 1223 0860 04       		.byte	0x4
 1224 0861 4B080000 		.4byte	0x84b
 1225 0865 1B       		.uleb128 0x1b
 1226 0866 2C000000 		.4byte	0x2c
 1227 086a 83080000 		.4byte	0x883
 1228 086e 0F       		.uleb128 0xf
 1229 086f 4F020000 		.4byte	0x24f
 1230 0873 0F       		.uleb128 0xf
 1231 0874 CC070000 		.4byte	0x7cc
 1232 0878 0F       		.uleb128 0xf
 1233 0879 2C000000 		.4byte	0x2c
 1234 087d 0F       		.uleb128 0xf
 1235 087e 76030000 		.4byte	0x376
 1236 0882 00       		.byte	0
 1237 0883 0B       		.uleb128 0xb
 1238 0884 04       		.byte	0x4
 1239 0885 65080000 		.4byte	0x865
 1240 0889 1B       		.uleb128 0x1b
 1241 088a 2C000000 		.4byte	0x2c
 1242 088e A7080000 		.4byte	0x8a7
 1243 0892 0F       		.uleb128 0xf
 1244 0893 4F020000 		.4byte	0x24f
 1245 0897 0F       		.uleb128 0xf
 1246 0898 F1070000 		.4byte	0x7f1
 1247 089c 0F       		.uleb128 0xf
 1248 089d 2C000000 		.4byte	0x2c
 1249 08a1 0F       		.uleb128 0xf
 1250 08a2 76030000 		.4byte	0x376
 1251 08a6 00       		.byte	0
 1252 08a7 0B       		.uleb128 0xb
 1253 08a8 04       		.byte	0x4
 1254 08a9 89080000 		.4byte	0x889
ARM GAS  /tmp/ccEcHKKd.s 			page 23


 1255 08ad 1B       		.uleb128 0x1b
 1256 08ae 2B010000 		.4byte	0x12b
 1257 08b2 C6080000 		.4byte	0x8c6
 1258 08b6 0F       		.uleb128 0xf
 1259 08b7 4F020000 		.4byte	0x24f
 1260 08bb 0F       		.uleb128 0xf
 1261 08bc 3C000000 		.4byte	0x3c
 1262 08c0 0F       		.uleb128 0xf
 1263 08c1 4F020000 		.4byte	0x24f
 1264 08c5 00       		.byte	0
 1265 08c6 0B       		.uleb128 0xb
 1266 08c7 04       		.byte	0x4
 1267 08c8 AD080000 		.4byte	0x8ad
 1268 08cc 05       		.uleb128 0x5
 1269 08cd 01       		.byte	0x1
 1270 08ce 02       		.byte	0x2
 1271 08cf 00030000 		.4byte	.LASF92
 1272 08d3 03       		.uleb128 0x3
 1273 08d4 540C0000 		.4byte	.LASF93
 1274 08d8 12       		.byte	0x12
 1275 08d9 3A       		.byte	0x3a
 1276 08da DE080000 		.4byte	0x8de
 1277 08de 07       		.uleb128 0x7
 1278 08df 06020000 		.4byte	.LASF94
 1279 08e3 24       		.byte	0x24
 1280 08e4 12       		.byte	0x12
 1281 08e5 4B       		.byte	0x4b
 1282 08e6 4B090000 		.4byte	0x94b
 1283 08ea 08       		.uleb128 0x8
 1284 08eb 470B0000 		.4byte	.LASF95
 1285 08ef 12       		.byte	0x12
 1286 08f0 4C       		.byte	0x4c
 1287 08f1 B6010000 		.4byte	0x1b6
 1288 08f5 00       		.byte	0
 1289 08f6 08       		.uleb128 0x8
 1290 08f7 F1050000 		.4byte	.LASF96
 1291 08fb 12       		.byte	0x12
 1292 08fc 4D       		.byte	0x4d
 1293 08fd 37000000 		.4byte	0x37
 1294 0901 08       		.byte	0x8
 1295 0902 08       		.uleb128 0x8
 1296 0903 31010000 		.4byte	.LASF97
 1297 0907 12       		.byte	0x12
 1298 0908 4E       		.byte	0x4e
 1299 0909 F1070000 		.4byte	0x7f1
 1300 090d 0C       		.byte	0xc
 1301 090e 08       		.uleb128 0x8
 1302 090f 25010000 		.4byte	.LASF98
 1303 0913 12       		.byte	0x12
 1304 0914 4F       		.byte	0x4f
 1305 0915 F1070000 		.4byte	0x7f1
 1306 0919 10       		.byte	0x10
 1307 091a 08       		.uleb128 0x8
 1308 091b 08070000 		.4byte	.LASF99
 1309 091f 12       		.byte	0x12
 1310 0920 51       		.byte	0x51
 1311 0921 F1070000 		.4byte	0x7f1
ARM GAS  /tmp/ccEcHKKd.s 			page 24


 1312 0925 14       		.byte	0x14
 1313 0926 08       		.uleb128 0x8
 1314 0927 77010000 		.4byte	.LASF100
 1315 092b 12       		.byte	0x12
 1316 092c 52       		.byte	0x52
 1317 092d F1070000 		.4byte	0x7f1
 1318 0931 18       		.byte	0x18
 1319 0932 08       		.uleb128 0x8
 1320 0933 65010000 		.4byte	.LASF101
 1321 0937 12       		.byte	0x12
 1322 0938 53       		.byte	0x53
 1323 0939 4B090000 		.4byte	0x94b
 1324 093d 1C       		.byte	0x1c
 1325 093e 08       		.uleb128 0x8
 1326 093f 89020000 		.4byte	.LASF102
 1327 0943 12       		.byte	0x12
 1328 0944 54       		.byte	0x54
 1329 0945 4F020000 		.4byte	0x24f
 1330 0949 20       		.byte	0x20
 1331 094a 00       		.byte	0
 1332 094b 03       		.uleb128 0x3
 1333 094c 65080000 		.4byte	.LASF103
 1334 0950 12       		.byte	0x12
 1335 0951 41       		.byte	0x41
 1336 0952 56090000 		.4byte	0x956
 1337 0956 0B       		.uleb128 0xb
 1338 0957 04       		.byte	0x4
 1339 0958 5C090000 		.4byte	0x95c
 1340 095c 0E       		.uleb128 0xe
 1341 095d 67090000 		.4byte	0x967
 1342 0961 0F       		.uleb128 0xf
 1343 0962 67090000 		.4byte	0x967
 1344 0966 00       		.byte	0
 1345 0967 0B       		.uleb128 0xb
 1346 0968 04       		.byte	0x4
 1347 0969 D3080000 		.4byte	0x8d3
 1348 096d 03       		.uleb128 0x3
 1349 096e 4E0D0000 		.4byte	.LASF104
 1350 0972 12       		.byte	0x12
 1351 0973 61       		.byte	0x61
 1352 0974 D3080000 		.4byte	0x8d3
 1353 0978 03       		.uleb128 0x3
 1354 0979 AB0D0000 		.4byte	.LASF105
 1355 097d 12       		.byte	0x12
 1356 097e 6D       		.byte	0x6d
 1357 097f D3080000 		.4byte	0x8d3
 1358 0983 03       		.uleb128 0x3
 1359 0984 04060000 		.4byte	.LASF106
 1360 0988 13       		.byte	0x13
 1361 0989 94       		.byte	0x94
 1362 098a 3E020000 		.4byte	0x23e
 1363 098e 1C       		.uleb128 0x1c
 1364 098f 08       		.byte	0x8
 1365 0990 13       		.byte	0x13
 1366 0991 9A       		.byte	0x9a
 1367 0992 AE090000 		.4byte	0x9ae
 1368 0996 09       		.uleb128 0x9
ARM GAS  /tmp/ccEcHKKd.s 			page 25


 1369 0997 636200   		.ascii	"cb\000"
 1370 099a 13       		.byte	0x13
 1371 099b A5       		.byte	0xa5
 1372 099c 83090000 		.4byte	0x983
 1373 09a0 00       		.byte	0
 1374 09a1 09       		.uleb128 0x9
 1375 09a2 61726700 		.ascii	"arg\000"
 1376 09a6 13       		.byte	0x13
 1377 09a7 A9       		.byte	0xa9
 1378 09a8 4F020000 		.4byte	0x24f
 1379 09ac 04       		.byte	0x4
 1380 09ad 00       		.byte	0
 1381 09ae 03       		.uleb128 0x3
 1382 09af 6B030000 		.4byte	.LASF107
 1383 09b3 13       		.byte	0x13
 1384 09b4 AB       		.byte	0xab
 1385 09b5 8E090000 		.4byte	0x98e
 1386 09b9 1C       		.uleb128 0x1c
 1387 09ba 04       		.byte	0x4
 1388 09bb 14       		.byte	0x14
 1389 09bc 5B       		.byte	0x5b
 1390 09bd DA090000 		.4byte	0x9da
 1391 09c1 09       		.uleb128 0x9
 1392 09c2 73657400 		.ascii	"set\000"
 1393 09c6 14       		.byte	0x14
 1394 09c7 5C       		.byte	0x5c
 1395 09c8 C9000000 		.4byte	0xc9
 1396 09cc 00       		.byte	0
 1397 09cd 08       		.uleb128 0x8
 1398 09ce BA050000 		.4byte	.LASF108
 1399 09d2 14       		.byte	0x14
 1400 09d3 5D       		.byte	0x5d
 1401 09d4 C9000000 		.4byte	0xc9
 1402 09d8 02       		.byte	0x2
 1403 09d9 00       		.byte	0
 1404 09da 17       		.uleb128 0x17
 1405 09db 04       		.byte	0x4
 1406 09dc 14       		.byte	0x14
 1407 09dd 59       		.byte	0x59
 1408 09de F5090000 		.4byte	0x9f5
 1409 09e2 1D       		.uleb128 0x1d
 1410 09e3 5700     		.ascii	"W\000"
 1411 09e5 14       		.byte	0x14
 1412 09e6 5A       		.byte	0x5a
 1413 09e7 E4000000 		.4byte	0xe4
 1414 09eb 1D       		.uleb128 0x1d
 1415 09ec 4800     		.ascii	"H\000"
 1416 09ee 14       		.byte	0x14
 1417 09ef 5E       		.byte	0x5e
 1418 09f0 B9090000 		.4byte	0x9b9
 1419 09f4 00       		.byte	0
 1420 09f5 04       		.uleb128 0x4
 1421 09f6 DA090000 		.4byte	0x9da
 1422 09fa 1C       		.uleb128 0x1c
 1423 09fb 28       		.byte	0x28
 1424 09fc 14       		.byte	0x14
 1425 09fd 51       		.byte	0x51
ARM GAS  /tmp/ccEcHKKd.s 			page 26


 1426 09fe 7B0A0000 		.4byte	0xa7b
 1427 0a02 08       		.uleb128 0x8
 1428 0a03 75080000 		.4byte	.LASF109
 1429 0a07 14       		.byte	0x14
 1430 0a08 53       		.byte	0x53
 1431 0a09 EF000000 		.4byte	0xef
 1432 0a0d 00       		.byte	0
 1433 0a0e 08       		.uleb128 0x8
 1434 0a0f 400B0000 		.4byte	.LASF110
 1435 0a13 14       		.byte	0x14
 1436 0a14 54       		.byte	0x54
 1437 0a15 EF000000 		.4byte	0xef
 1438 0a19 04       		.byte	0x4
 1439 0a1a 08       		.uleb128 0x8
 1440 0a1b 61070000 		.4byte	.LASF111
 1441 0a1f 14       		.byte	0x14
 1442 0a20 55       		.byte	0x55
 1443 0a21 EF000000 		.4byte	0xef
 1444 0a25 08       		.byte	0x8
 1445 0a26 08       		.uleb128 0x8
 1446 0a27 F4070000 		.4byte	.LASF112
 1447 0a2b 14       		.byte	0x14
 1448 0a2c 56       		.byte	0x56
 1449 0a2d EF000000 		.4byte	0xef
 1450 0a31 0C       		.byte	0xc
 1451 0a32 09       		.uleb128 0x9
 1452 0a33 49445200 		.ascii	"IDR\000"
 1453 0a37 14       		.byte	0x14
 1454 0a38 57       		.byte	0x57
 1455 0a39 EF000000 		.4byte	0xef
 1456 0a3d 10       		.byte	0x10
 1457 0a3e 09       		.uleb128 0x9
 1458 0a3f 4F445200 		.ascii	"ODR\000"
 1459 0a43 14       		.byte	0x14
 1460 0a44 58       		.byte	0x58
 1461 0a45 EF000000 		.4byte	0xef
 1462 0a49 14       		.byte	0x14
 1463 0a4a 08       		.uleb128 0x8
 1464 0a4b 760C0000 		.4byte	.LASF113
 1465 0a4f 14       		.byte	0x14
 1466 0a50 5F       		.byte	0x5f
 1467 0a51 F5090000 		.4byte	0x9f5
 1468 0a55 18       		.byte	0x18
 1469 0a56 08       		.uleb128 0x8
 1470 0a57 FB090000 		.4byte	.LASF114
 1471 0a5b 14       		.byte	0x14
 1472 0a5c 60       		.byte	0x60
 1473 0a5d EF000000 		.4byte	0xef
 1474 0a61 1C       		.byte	0x1c
 1475 0a62 08       		.uleb128 0x8
 1476 0a63 89080000 		.4byte	.LASF115
 1477 0a67 14       		.byte	0x14
 1478 0a68 61       		.byte	0x61
 1479 0a69 EF000000 		.4byte	0xef
 1480 0a6d 20       		.byte	0x20
 1481 0a6e 08       		.uleb128 0x8
 1482 0a6f 6A0A0000 		.4byte	.LASF116
ARM GAS  /tmp/ccEcHKKd.s 			page 27


 1483 0a73 14       		.byte	0x14
 1484 0a74 62       		.byte	0x62
 1485 0a75 EF000000 		.4byte	0xef
 1486 0a79 24       		.byte	0x24
 1487 0a7a 00       		.byte	0
 1488 0a7b 03       		.uleb128 0x3
 1489 0a7c 99020000 		.4byte	.LASF117
 1490 0a80 14       		.byte	0x14
 1491 0a81 63       		.byte	0x63
 1492 0a82 FA090000 		.4byte	0x9fa
 1493 0a86 03       		.uleb128 0x3
 1494 0a87 05050000 		.4byte	.LASF118
 1495 0a8b 15       		.byte	0x15
 1496 0a8c C2       		.byte	0xc2
 1497 0a8d E4000000 		.4byte	0xe4
 1498 0a91 03       		.uleb128 0x3
 1499 0a92 F3000000 		.4byte	.LASF119
 1500 0a96 15       		.byte	0x15
 1501 0a97 C7       		.byte	0xc7
 1502 0a98 E4000000 		.4byte	0xe4
 1503 0a9c 03       		.uleb128 0x3
 1504 0a9d 71070000 		.4byte	.LASF120
 1505 0aa1 15       		.byte	0x15
 1506 0aa2 CC       		.byte	0xcc
 1507 0aa3 E4000000 		.4byte	0xe4
 1508 0aa7 03       		.uleb128 0x3
 1509 0aa8 7F010000 		.4byte	.LASF121
 1510 0aac 15       		.byte	0x15
 1511 0aad D9       		.byte	0xd9
 1512 0aae B20A0000 		.4byte	0xab2
 1513 0ab2 0B       		.uleb128 0xb
 1514 0ab3 04       		.byte	0x4
 1515 0ab4 7B0A0000 		.4byte	0xa7b
 1516 0ab8 03       		.uleb128 0x3
 1517 0ab9 DA0C0000 		.4byte	.LASF122
 1518 0abd 15       		.byte	0x15
 1519 0abe DE       		.byte	0xde
 1520 0abf E4000000 		.4byte	0xe4
 1521 0ac3 13       		.uleb128 0x13
 1522 0ac4 AE090000 		.4byte	0x9ae
 1523 0ac8 D30A0000 		.4byte	0xad3
 1524 0acc 14       		.uleb128 0x14
 1525 0acd 81030000 		.4byte	0x381
 1526 0ad1 0F       		.byte	0xf
 1527 0ad2 00       		.byte	0
 1528 0ad3 11       		.uleb128 0x11
 1529 0ad4 41090000 		.4byte	.LASF123
 1530 0ad8 15       		.byte	0x15
 1531 0ad9 EB01     		.2byte	0x1eb
 1532 0adb C30A0000 		.4byte	0xac3
 1533 0adf 1C       		.uleb128 0x1c
 1534 0ae0 0C       		.byte	0xc
 1535 0ae1 13       		.byte	0x13
 1536 0ae2 B7       		.byte	0xb7
 1537 0ae3 0C0B0000 		.4byte	0xb0c
 1538 0ae7 08       		.uleb128 0x8
 1539 0ae8 51020000 		.4byte	.LASF124
ARM GAS  /tmp/ccEcHKKd.s 			page 28


 1540 0aec 13       		.byte	0x13
 1541 0aed BB       		.byte	0xbb
 1542 0aee A70A0000 		.4byte	0xaa7
 1543 0af2 00       		.byte	0
 1544 0af3 08       		.uleb128 0x8
 1545 0af4 28080000 		.4byte	.LASF125
 1546 0af8 13       		.byte	0x13
 1547 0af9 C1       		.byte	0xc1
 1548 0afa 860A0000 		.4byte	0xa86
 1549 0afe 04       		.byte	0x4
 1550 0aff 08       		.uleb128 0x8
 1551 0b00 01090000 		.4byte	.LASF126
 1552 0b04 13       		.byte	0x13
 1553 0b05 C5       		.byte	0xc5
 1554 0b06 FF000000 		.4byte	0xff
 1555 0b0a 08       		.byte	0x8
 1556 0b0b 00       		.byte	0
 1557 0b0c 03       		.uleb128 0x3
 1558 0b0d 5E050000 		.4byte	.LASF127
 1559 0b11 13       		.byte	0x13
 1560 0b12 C6       		.byte	0xc6
 1561 0b13 DF0A0000 		.4byte	0xadf
 1562 0b17 06       		.uleb128 0x6
 1563 0b18 0C0B0000 		.4byte	0xb0c
 1564 0b1c 1E       		.uleb128 0x1e
 1565 0b1d 01       		.byte	0x1
 1566 0b1e 63000000 		.4byte	0x63
 1567 0b22 16       		.byte	0x16
 1568 0b23 58       		.byte	0x58
 1569 0b24 3B0B0000 		.4byte	0xb3b
 1570 0b28 1F       		.uleb128 0x1f
 1571 0b29 DC020000 		.4byte	.LASF128
 1572 0b2d 00       		.byte	0
 1573 0b2e 1F       		.uleb128 0x1f
 1574 0b2f CF0D0000 		.4byte	.LASF129
 1575 0b33 01       		.byte	0x1
 1576 0b34 1F       		.uleb128 0x1f
 1577 0b35 990B0000 		.4byte	.LASF130
 1578 0b39 02       		.byte	0x2
 1579 0b3a 00       		.byte	0
 1580 0b3b 03       		.uleb128 0x3
 1581 0b3c 7C0B0000 		.4byte	.LASF131
 1582 0b40 16       		.byte	0x16
 1583 0b41 5C       		.byte	0x5c
 1584 0b42 1C0B0000 		.4byte	0xb1c
 1585 0b46 03       		.uleb128 0x3
 1586 0b47 190B0000 		.4byte	.LASF132
 1587 0b4b 16       		.byte	0x16
 1588 0b4c 61       		.byte	0x61
 1589 0b4d 510B0000 		.4byte	0xb51
 1590 0b51 20       		.uleb128 0x20
 1591 0b52 190B0000 		.4byte	.LASF132
 1592 0b56 6804     		.2byte	0x468
 1593 0b58 16       		.byte	0x16
 1594 0b59 7B       		.byte	0x7b
 1595 0b5a D90B0000 		.4byte	0xbd9
 1596 0b5e 09       		.uleb128 0x9
ARM GAS  /tmp/ccEcHKKd.s 			page 29


 1597 0b5f 766D7400 		.ascii	"vmt\000"
 1598 0b63 16       		.byte	0x16
 1599 0b64 7D       		.byte	0x7d
 1600 0b65 F00C0000 		.4byte	0xcf0
 1601 0b69 00       		.byte	0
 1602 0b6a 08       		.uleb128 0x8
 1603 0b6b 6F080000 		.4byte	.LASF133
 1604 0b6f 16       		.byte	0x16
 1605 0b70 7E       		.byte	0x7e
 1606 0b71 C0060000 		.4byte	0x6c0
 1607 0b75 04       		.byte	0x4
 1608 0b76 08       		.uleb128 0x8
 1609 0b77 D0000000 		.4byte	.LASF30
 1610 0b7b 16       		.byte	0x16
 1611 0b7c 7E       		.byte	0x7e
 1612 0b7d 3B0B0000 		.4byte	0xb3b
 1613 0b81 10       		.byte	0x10
 1614 0b82 08       		.uleb128 0x8
 1615 0b83 120C0000 		.4byte	.LASF134
 1616 0b87 16       		.byte	0x16
 1617 0b88 7E       		.byte	0x7e
 1618 0b89 6D090000 		.4byte	0x96d
 1619 0b8d 14       		.byte	0x14
 1620 0b8e 08       		.uleb128 0x8
 1621 0b8f B7010000 		.4byte	.LASF135
 1622 0b93 16       		.byte	0x16
 1623 0b94 7E       		.byte	0x7e
 1624 0b95 78090000 		.4byte	0x978
 1625 0b99 38       		.byte	0x38
 1626 0b9a 09       		.uleb128 0x9
 1627 0b9b 696200   		.ascii	"ib\000"
 1628 0b9e 16       		.byte	0x16
 1629 0b9f 7E       		.byte	0x7e
 1630 0ba0 F60C0000 		.4byte	0xcf6
 1631 0ba4 5C       		.byte	0x5c
 1632 0ba5 21       		.uleb128 0x21
 1633 0ba6 6F6200   		.ascii	"ob\000"
 1634 0ba9 16       		.byte	0x16
 1635 0baa 7E       		.byte	0x7e
 1636 0bab F60C0000 		.4byte	0xcf6
 1637 0baf 5C02     		.2byte	0x25c
 1638 0bb1 22       		.uleb128 0x22
 1639 0bb2 25020000 		.4byte	.LASF136
 1640 0bb6 16       		.byte	0x16
 1641 0bb7 7E       		.byte	0x7e
 1642 0bb8 070D0000 		.4byte	0xd07
 1643 0bbc 5C04     		.2byte	0x45c
 1644 0bbe 22       		.uleb128 0x22
 1645 0bbf 3E050000 		.4byte	.LASF137
 1646 0bc3 16       		.byte	0x16
 1647 0bc4 7E       		.byte	0x7e
 1648 0bc5 B9000000 		.4byte	0xb9
 1649 0bc9 6004     		.2byte	0x460
 1650 0bcb 22       		.uleb128 0x22
 1651 0bcc C9000000 		.4byte	.LASF138
 1652 0bd0 16       		.byte	0x16
 1653 0bd1 7E       		.byte	0x7e
ARM GAS  /tmp/ccEcHKKd.s 			page 30


 1654 0bd2 0D0D0000 		.4byte	0xd0d
 1655 0bd6 6404     		.2byte	0x464
 1656 0bd8 00       		.byte	0
 1657 0bd9 16       		.uleb128 0x16
 1658 0bda 85060000 		.4byte	.LASF139
 1659 0bde 17       		.byte	0x17
 1660 0bdf 0201     		.2byte	0x102
 1661 0be1 3E020000 		.4byte	0x23e
 1662 0be5 15       		.uleb128 0x15
 1663 0be6 14       		.byte	0x14
 1664 0be7 17       		.byte	0x17
 1665 0be8 1001     		.2byte	0x110
 1666 0bea 3D0C0000 		.4byte	0xc3d
 1667 0bee 0D       		.uleb128 0xd
 1668 0bef 7D050000 		.4byte	.LASF140
 1669 0bf3 17       		.byte	0x17
 1670 0bf4 1401     		.2byte	0x114
 1671 0bf6 E4000000 		.4byte	0xe4
 1672 0bfa 00       		.byte	0
 1673 0bfb 0A       		.uleb128 0xa
 1674 0bfc 63723100 		.ascii	"cr1\000"
 1675 0c00 17       		.byte	0x17
 1676 0c01 1901     		.2byte	0x119
 1677 0c03 C9000000 		.4byte	0xc9
 1678 0c07 04       		.byte	0x4
 1679 0c08 0A       		.uleb128 0xa
 1680 0c09 63723200 		.ascii	"cr2\000"
 1681 0c0d 17       		.byte	0x17
 1682 0c0e 1D01     		.2byte	0x11d
 1683 0c10 C9000000 		.4byte	0xc9
 1684 0c14 06       		.byte	0x6
 1685 0c15 0A       		.uleb128 0xa
 1686 0c16 63723300 		.ascii	"cr3\000"
 1687 0c1a 17       		.byte	0x17
 1688 0c1b 2101     		.2byte	0x121
 1689 0c1d C9000000 		.4byte	0xc9
 1690 0c21 08       		.byte	0x8
 1691 0c22 0D       		.uleb128 0xd
 1692 0c23 5F0C0000 		.4byte	.LASF141
 1693 0c27 17       		.byte	0x17
 1694 0c28 2501     		.2byte	0x125
 1695 0c2a D90B0000 		.4byte	0xbd9
 1696 0c2e 0C       		.byte	0xc
 1697 0c2f 0A       		.uleb128 0xa
 1698 0c30 63747800 		.ascii	"ctx\000"
 1699 0c34 17       		.byte	0x17
 1700 0c35 2901     		.2byte	0x129
 1701 0c37 4F020000 		.4byte	0x24f
 1702 0c3b 10       		.byte	0x10
 1703 0c3c 00       		.byte	0
 1704 0c3d 16       		.uleb128 0x16
 1705 0c3e 57000000 		.4byte	.LASF142
 1706 0c42 17       		.byte	0x17
 1707 0c43 2A01     		.2byte	0x12a
 1708 0c45 E50B0000 		.4byte	0xbe5
 1709 0c49 06       		.uleb128 0x6
 1710 0c4a 3D0C0000 		.4byte	0xc3d
ARM GAS  /tmp/ccEcHKKd.s 			page 31


 1711 0c4e 19       		.uleb128 0x19
 1712 0c4f 53443200 		.ascii	"SD2\000"
 1713 0c53 17       		.byte	0x17
 1714 0c54 5601     		.2byte	0x156
 1715 0c56 460B0000 		.4byte	0xb46
 1716 0c5a 19       		.uleb128 0x19
 1717 0c5b 53443300 		.ascii	"SD3\000"
 1718 0c5f 17       		.byte	0x17
 1719 0c60 5901     		.2byte	0x159
 1720 0c62 460B0000 		.4byte	0xb46
 1721 0c66 07       		.uleb128 0x7
 1722 0c67 27070000 		.4byte	.LASF143
 1723 0c6b 28       		.byte	0x28
 1724 0c6c 16       		.byte	0x16
 1725 0c6d 70       		.byte	0x70
 1726 0c6e EB0C0000 		.4byte	0xceb
 1727 0c72 08       		.uleb128 0x8
 1728 0c73 3E0D0000 		.4byte	.LASF144
 1729 0c77 16       		.byte	0x16
 1730 0c78 71       		.byte	0x71
 1731 0c79 2C000000 		.4byte	0x2c
 1732 0c7d 00       		.byte	0
 1733 0c7e 08       		.uleb128 0x8
 1734 0c7f B3000000 		.4byte	.LASF145
 1735 0c83 16       		.byte	0x16
 1736 0c84 71       		.byte	0x71
 1737 0c85 D2070000 		.4byte	0x7d2
 1738 0c89 04       		.byte	0x4
 1739 0c8a 08       		.uleb128 0x8
 1740 0c8b 84080000 		.4byte	.LASF146
 1741 0c8f 16       		.byte	0x16
 1742 0c90 71       		.byte	0x71
 1743 0c91 F7070000 		.4byte	0x7f7
 1744 0c95 08       		.byte	0x8
 1745 0c96 09       		.uleb128 0x9
 1746 0c97 70757400 		.ascii	"put\000"
 1747 0c9b 16       		.byte	0x16
 1748 0c9c 71       		.byte	0x71
 1749 0c9d 11080000 		.4byte	0x811
 1750 0ca1 0C       		.byte	0xc
 1751 0ca2 09       		.uleb128 0x9
 1752 0ca3 67657400 		.ascii	"get\000"
 1753 0ca7 16       		.byte	0x16
 1754 0ca8 71       		.byte	0x71
 1755 0ca9 26080000 		.4byte	0x826
 1756 0cad 10       		.byte	0x10
 1757 0cae 08       		.uleb128 0x8
 1758 0caf DE000000 		.4byte	.LASF147
 1759 0cb3 16       		.byte	0x16
 1760 0cb4 71       		.byte	0x71
 1761 0cb5 45080000 		.4byte	0x845
 1762 0cb9 14       		.byte	0x14
 1763 0cba 08       		.uleb128 0x8
 1764 0cbb 98040000 		.4byte	.LASF148
 1765 0cbf 16       		.byte	0x16
 1766 0cc0 71       		.byte	0x71
 1767 0cc1 5F080000 		.4byte	0x85f
ARM GAS  /tmp/ccEcHKKd.s 			page 32


 1768 0cc5 18       		.byte	0x18
 1769 0cc6 08       		.uleb128 0x8
 1770 0cc7 64000000 		.4byte	.LASF149
 1771 0ccb 16       		.byte	0x16
 1772 0ccc 71       		.byte	0x71
 1773 0ccd 83080000 		.4byte	0x883
 1774 0cd1 1C       		.byte	0x1c
 1775 0cd2 08       		.uleb128 0x8
 1776 0cd3 2B010000 		.4byte	.LASF150
 1777 0cd7 16       		.byte	0x16
 1778 0cd8 71       		.byte	0x71
 1779 0cd9 A7080000 		.4byte	0x8a7
 1780 0cdd 20       		.byte	0x20
 1781 0cde 09       		.uleb128 0x9
 1782 0cdf 63746C00 		.ascii	"ctl\000"
 1783 0ce3 16       		.byte	0x16
 1784 0ce4 71       		.byte	0x71
 1785 0ce5 C6080000 		.4byte	0x8c6
 1786 0ce9 24       		.byte	0x24
 1787 0cea 00       		.byte	0
 1788 0ceb 06       		.uleb128 0x6
 1789 0cec 660C0000 		.4byte	0xc66
 1790 0cf0 0B       		.uleb128 0xb
 1791 0cf1 04       		.byte	0x4
 1792 0cf2 EB0C0000 		.4byte	0xceb
 1793 0cf6 13       		.uleb128 0x13
 1794 0cf7 B9000000 		.4byte	0xb9
 1795 0cfb 070D0000 		.4byte	0xd07
 1796 0cff 23       		.uleb128 0x23
 1797 0d00 81030000 		.4byte	0x381
 1798 0d04 FF01     		.2byte	0x1ff
 1799 0d06 00       		.byte	0
 1800 0d07 0B       		.uleb128 0xb
 1801 0d08 04       		.byte	0x4
 1802 0d09 A5040000 		.4byte	0x4a5
 1803 0d0d 0B       		.uleb128 0xb
 1804 0d0e 04       		.byte	0x4
 1805 0d0f 490C0000 		.4byte	0xc49
 1806 0d13 16       		.uleb128 0x16
 1807 0d14 5A030000 		.4byte	.LASF151
 1808 0d18 18       		.byte	0x18
 1809 0d19 0301     		.2byte	0x103
 1810 0d1b 1F0D0000 		.4byte	0xd1f
 1811 0d1f 0C       		.uleb128 0xc
 1812 0d20 5A030000 		.4byte	.LASF151
 1813 0d24 60       		.byte	0x60
 1814 0d25 19       		.byte	0x19
 1815 0d26 A401     		.2byte	0x1a4
 1816 0d28 240E0000 		.4byte	0xe24
 1817 0d2c 0D       		.uleb128 0xd
 1818 0d2d D0000000 		.4byte	.LASF30
 1819 0d31 19       		.byte	0x19
 1820 0d32 A801     		.2byte	0x1a8
 1821 0d34 620E0000 		.4byte	0xe62
 1822 0d38 00       		.byte	0
 1823 0d39 0D       		.uleb128 0xd
 1824 0d3a C9000000 		.4byte	.LASF138
ARM GAS  /tmp/ccEcHKKd.s 			page 33


 1825 0d3e 19       		.byte	0x19
 1826 0d3f AC01     		.2byte	0x1ac
 1827 0d41 DA160000 		.4byte	0x16da
 1828 0d45 04       		.byte	0x4
 1829 0d46 0D       		.uleb128 0xd
 1830 0d47 E5040000 		.4byte	.LASF152
 1831 0d4b 19       		.byte	0x19
 1832 0d4c B001     		.2byte	0x1b0
 1833 0d4e C9000000 		.4byte	0xc9
 1834 0d52 08       		.byte	0x8
 1835 0d53 0D       		.uleb128 0xd
 1836 0d54 45030000 		.4byte	.LASF153
 1837 0d58 19       		.byte	0x19
 1838 0d59 B401     		.2byte	0x1b4
 1839 0d5b C9000000 		.4byte	0xc9
 1840 0d5f 0A       		.byte	0xa
 1841 0d60 0A       		.uleb128 0xa
 1842 0d61 65706300 		.ascii	"epc\000"
 1843 0d65 19       		.byte	0x19
 1844 0d66 B801     		.2byte	0x1b8
 1845 0d68 E0160000 		.4byte	0x16e0
 1846 0d6c 0C       		.byte	0xc
 1847 0d6d 0D       		.uleb128 0xd
 1848 0d6e A0000000 		.4byte	.LASF154
 1849 0d72 19       		.byte	0x19
 1850 0d73 BF01     		.2byte	0x1bf
 1851 0d75 F6160000 		.4byte	0x16f6
 1852 0d79 1C       		.byte	0x1c
 1853 0d7a 0D       		.uleb128 0xd
 1854 0d7b BA0D0000 		.4byte	.LASF155
 1855 0d7f 19       		.byte	0x19
 1856 0d80 C601     		.2byte	0x1c6
 1857 0d82 F6160000 		.4byte	0x16f6
 1858 0d86 28       		.byte	0x28
 1859 0d87 0D       		.uleb128 0xd
 1860 0d88 C4020000 		.4byte	.LASF156
 1861 0d8c 19       		.byte	0x19
 1862 0d8d CA01     		.2byte	0x1ca
 1863 0d8f A60E0000 		.4byte	0xea6
 1864 0d93 34       		.byte	0x34
 1865 0d94 0D       		.uleb128 0xd
 1866 0d95 03080000 		.4byte	.LASF157
 1867 0d99 19       		.byte	0x19
 1868 0d9a CE01     		.2byte	0x1ce
 1869 0d9c F1070000 		.4byte	0x7f1
 1870 0da0 38       		.byte	0x38
 1871 0da1 0D       		.uleb128 0xd
 1872 0da2 32030000 		.4byte	.LASF158
 1873 0da6 19       		.byte	0x19
 1874 0da7 D201     		.2byte	0x1d2
 1875 0da9 2C000000 		.4byte	0x2c
 1876 0dad 3C       		.byte	0x3c
 1877 0dae 0D       		.uleb128 0xd
 1878 0daf 6A060000 		.4byte	.LASF159
 1879 0db3 19       		.byte	0x19
 1880 0db4 D601     		.2byte	0x1d6
 1881 0db6 2B0F0000 		.4byte	0xf2b
ARM GAS  /tmp/ccEcHKKd.s 			page 34


 1882 0dba 40       		.byte	0x40
 1883 0dbb 0D       		.uleb128 0xd
 1884 0dbc 77050000 		.4byte	.LASF160
 1885 0dc0 19       		.byte	0x19
 1886 0dc1 DA01     		.2byte	0x1da
 1887 0dc3 06170000 		.4byte	0x1706
 1888 0dc7 44       		.byte	0x44
 1889 0dc8 0D       		.uleb128 0xd
 1890 0dc9 3F060000 		.4byte	.LASF161
 1891 0dcd 19       		.byte	0x19
 1892 0dce DE01     		.2byte	0x1de
 1893 0dd0 C9000000 		.4byte	0xc9
 1894 0dd4 4C       		.byte	0x4c
 1895 0dd5 0D       		.uleb128 0xd
 1896 0dd6 4C060000 		.4byte	.LASF162
 1897 0dda 19       		.byte	0x19
 1898 0ddb E201     		.2byte	0x1e2
 1899 0ddd B9000000 		.4byte	0xb9
 1900 0de1 4E       		.byte	0x4e
 1901 0de2 0D       		.uleb128 0xd
 1902 0de3 CD050000 		.4byte	.LASF163
 1903 0de7 19       		.byte	0x19
 1904 0de8 E601     		.2byte	0x1e6
 1905 0dea B9000000 		.4byte	0xb9
 1906 0dee 4F       		.byte	0x4f
 1907 0def 0D       		.uleb128 0xd
 1908 0df0 450A0000 		.4byte	.LASF164
 1909 0df4 19       		.byte	0x19
 1910 0df5 EA01     		.2byte	0x1ea
 1911 0df7 620E0000 		.4byte	0xe62
 1912 0dfb 50       		.byte	0x50
 1913 0dfc 0A       		.uleb128 0xa
 1914 0dfd 6F746700 		.ascii	"otg\000"
 1915 0e01 19       		.byte	0x19
 1916 0e02 F201     		.2byte	0x1f2
 1917 0e04 16170000 		.4byte	0x1716
 1918 0e08 54       		.byte	0x54
 1919 0e09 0D       		.uleb128 0xd
 1920 0e0a DA080000 		.4byte	.LASF165
 1921 0e0e 19       		.byte	0x19
 1922 0e0f F601     		.2byte	0x1f6
 1923 0e11 1C170000 		.4byte	0x171c
 1924 0e15 58       		.byte	0x58
 1925 0e16 0D       		.uleb128 0xd
 1926 0e17 F30D0000 		.4byte	.LASF166
 1927 0e1b 19       		.byte	0x19
 1928 0e1c FA01     		.2byte	0x1fa
 1929 0e1e E4000000 		.4byte	0xe4
 1930 0e22 5C       		.byte	0x5c
 1931 0e23 00       		.byte	0
 1932 0e24 16       		.uleb128 0x16
 1933 0e25 360D0000 		.4byte	.LASF167
 1934 0e29 18       		.byte	0x18
 1935 0e2a 0801     		.2byte	0x108
 1936 0e2c B9000000 		.4byte	0xb9
 1937 0e30 24       		.uleb128 0x24
 1938 0e31 01       		.byte	0x1
ARM GAS  /tmp/ccEcHKKd.s 			page 35


 1939 0e32 63000000 		.4byte	0x63
 1940 0e36 18       		.byte	0x18
 1941 0e37 0D01     		.2byte	0x10d
 1942 0e39 620E0000 		.4byte	0xe62
 1943 0e3d 1F       		.uleb128 0x1f
 1944 0e3e 8B090000 		.4byte	.LASF168
 1945 0e42 00       		.byte	0
 1946 0e43 1F       		.uleb128 0x1f
 1947 0e44 37070000 		.4byte	.LASF169
 1948 0e48 01       		.byte	0x1
 1949 0e49 1F       		.uleb128 0x1f
 1950 0e4a D4070000 		.4byte	.LASF170
 1951 0e4e 02       		.byte	0x2
 1952 0e4f 1F       		.uleb128 0x1f
 1953 0e50 C0050000 		.4byte	.LASF171
 1954 0e54 03       		.byte	0x3
 1955 0e55 1F       		.uleb128 0x1f
 1956 0e56 E3000000 		.4byte	.LASF172
 1957 0e5a 04       		.byte	0x4
 1958 0e5b 1F       		.uleb128 0x1f
 1959 0e5c 0F020000 		.4byte	.LASF173
 1960 0e60 05       		.byte	0x5
 1961 0e61 00       		.byte	0
 1962 0e62 16       		.uleb128 0x16
 1963 0e63 46070000 		.4byte	.LASF174
 1964 0e67 18       		.byte	0x18
 1965 0e68 1401     		.2byte	0x114
 1966 0e6a 300E0000 		.4byte	0xe30
 1967 0e6e 24       		.uleb128 0x24
 1968 0e6f 01       		.byte	0x1
 1969 0e70 63000000 		.4byte	0x63
 1970 0e74 18       		.byte	0x18
 1971 0e75 2201     		.2byte	0x122
 1972 0e77 A60E0000 		.4byte	0xea6
 1973 0e7b 1F       		.uleb128 0x1f
 1974 0e7c 93010000 		.4byte	.LASF175
 1975 0e80 00       		.byte	0
 1976 0e81 1F       		.uleb128 0x1f
 1977 0e82 A4050000 		.4byte	.LASF176
 1978 0e86 09       		.byte	0x9
 1979 0e87 1F       		.uleb128 0x1f
 1980 0e88 570B0000 		.4byte	.LASF177
 1981 0e8c 0A       		.byte	0xa
 1982 0e8d 1F       		.uleb128 0x1f
 1983 0e8e 10070000 		.4byte	.LASF178
 1984 0e92 0B       		.byte	0xb
 1985 0e93 1F       		.uleb128 0x1f
 1986 0e94 26050000 		.4byte	.LASF179
 1987 0e98 14       		.byte	0x14
 1988 0e99 1F       		.uleb128 0x1f
 1989 0e9a CB0C0000 		.4byte	.LASF180
 1990 0e9e 15       		.byte	0x15
 1991 0e9f 1F       		.uleb128 0x1f
 1992 0ea0 7B020000 		.4byte	.LASF181
 1993 0ea4 06       		.byte	0x6
 1994 0ea5 00       		.byte	0
 1995 0ea6 16       		.uleb128 0x16
ARM GAS  /tmp/ccEcHKKd.s 			page 36


 1996 0ea7 0B0B0000 		.4byte	.LASF182
 1997 0eab 18       		.byte	0x18
 1998 0eac 2A01     		.2byte	0x12a
 1999 0eae 6E0E0000 		.4byte	0xe6e
 2000 0eb2 24       		.uleb128 0x24
 2001 0eb3 01       		.byte	0x1
 2002 0eb4 63000000 		.4byte	0x63
 2003 0eb8 18       		.byte	0x18
 2004 0eb9 2F01     		.2byte	0x12f
 2005 0ebb EA0E0000 		.4byte	0xeea
 2006 0ebf 1F       		.uleb128 0x1f
 2007 0ec0 FA0B0000 		.4byte	.LASF183
 2008 0ec4 00       		.byte	0
 2009 0ec5 1F       		.uleb128 0x1f
 2010 0ec6 4A010000 		.4byte	.LASF184
 2011 0eca 01       		.byte	0x1
 2012 0ecb 1F       		.uleb128 0x1f
 2013 0ecc 260B0000 		.4byte	.LASF185
 2014 0ed0 02       		.byte	0x2
 2015 0ed1 1F       		.uleb128 0x1f
 2016 0ed2 E80A0000 		.4byte	.LASF186
 2017 0ed6 03       		.byte	0x3
 2018 0ed7 1F       		.uleb128 0x1f
 2019 0ed8 990D0000 		.4byte	.LASF187
 2020 0edc 04       		.byte	0x4
 2021 0edd 1F       		.uleb128 0x1f
 2022 0ede 91070000 		.4byte	.LASF188
 2023 0ee2 05       		.byte	0x5
 2024 0ee3 1F       		.uleb128 0x1f
 2025 0ee4 3F020000 		.4byte	.LASF189
 2026 0ee8 06       		.byte	0x6
 2027 0ee9 00       		.byte	0
 2028 0eea 16       		.uleb128 0x16
 2029 0eeb 8B050000 		.4byte	.LASF190
 2030 0eef 18       		.byte	0x18
 2031 0ef0 3701     		.2byte	0x137
 2032 0ef2 B20E0000 		.4byte	0xeb2
 2033 0ef6 15       		.uleb128 0x15
 2034 0ef7 08       		.byte	0x8
 2035 0ef8 18       		.byte	0x18
 2036 0ef9 3C01     		.2byte	0x13c
 2037 0efb 1A0F0000 		.4byte	0xf1a
 2038 0eff 0D       		.uleb128 0xd
 2039 0f00 B2050000 		.4byte	.LASF191
 2040 0f04 18       		.byte	0x18
 2041 0f05 4001     		.2byte	0x140
 2042 0f07 2C000000 		.4byte	0x2c
 2043 0f0b 00       		.byte	0
 2044 0f0c 0D       		.uleb128 0xd
 2045 0f0d 75090000 		.4byte	.LASF192
 2046 0f11 18       		.byte	0x18
 2047 0f12 4401     		.2byte	0x144
 2048 0f14 CC070000 		.4byte	0x7cc
 2049 0f18 04       		.byte	0x4
 2050 0f19 00       		.byte	0
 2051 0f1a 16       		.uleb128 0x16
 2052 0f1b 50050000 		.4byte	.LASF193
ARM GAS  /tmp/ccEcHKKd.s 			page 37


 2053 0f1f 18       		.byte	0x18
 2054 0f20 4501     		.2byte	0x145
 2055 0f22 F60E0000 		.4byte	0xef6
 2056 0f26 06       		.uleb128 0x6
 2057 0f27 1A0F0000 		.4byte	0xf1a
 2058 0f2b 16       		.uleb128 0x16
 2059 0f2c 7B0C0000 		.4byte	.LASF194
 2060 0f30 18       		.byte	0x18
 2061 0f31 4D01     		.2byte	0x14d
 2062 0f33 370F0000 		.4byte	0xf37
 2063 0f37 0B       		.uleb128 0xb
 2064 0f38 04       		.byte	0x4
 2065 0f39 3D0F0000 		.4byte	0xf3d
 2066 0f3d 0E       		.uleb128 0xe
 2067 0f3e 480F0000 		.4byte	0xf48
 2068 0f42 0F       		.uleb128 0xf
 2069 0f43 480F0000 		.4byte	0xf48
 2070 0f47 00       		.byte	0
 2071 0f48 0B       		.uleb128 0xb
 2072 0f49 04       		.byte	0x4
 2073 0f4a 130D0000 		.4byte	0xd13
 2074 0f4e 16       		.uleb128 0x16
 2075 0f4f 2D080000 		.4byte	.LASF195
 2076 0f53 18       		.byte	0x18
 2077 0f54 5601     		.2byte	0x156
 2078 0f56 5A0F0000 		.4byte	0xf5a
 2079 0f5a 0B       		.uleb128 0xb
 2080 0f5b 04       		.byte	0x4
 2081 0f5c 600F0000 		.4byte	0xf60
 2082 0f60 0E       		.uleb128 0xe
 2083 0f61 700F0000 		.4byte	0xf70
 2084 0f65 0F       		.uleb128 0xf
 2085 0f66 480F0000 		.4byte	0xf48
 2086 0f6a 0F       		.uleb128 0xf
 2087 0f6b 240E0000 		.4byte	0xe24
 2088 0f6f 00       		.byte	0
 2089 0f70 16       		.uleb128 0x16
 2090 0f71 BC040000 		.4byte	.LASF196
 2091 0f75 18       		.byte	0x18
 2092 0f76 5F01     		.2byte	0x15f
 2093 0f78 7C0F0000 		.4byte	0xf7c
 2094 0f7c 0B       		.uleb128 0xb
 2095 0f7d 04       		.byte	0x4
 2096 0f7e 820F0000 		.4byte	0xf82
 2097 0f82 0E       		.uleb128 0xe
 2098 0f83 920F0000 		.4byte	0xf92
 2099 0f87 0F       		.uleb128 0xf
 2100 0f88 480F0000 		.4byte	0xf48
 2101 0f8c 0F       		.uleb128 0xf
 2102 0f8d EA0E0000 		.4byte	0xeea
 2103 0f91 00       		.byte	0
 2104 0f92 16       		.uleb128 0x16
 2105 0f93 660C0000 		.4byte	.LASF197
 2106 0f97 18       		.byte	0x18
 2107 0f98 6B01     		.2byte	0x16b
 2108 0f9a 9E0F0000 		.4byte	0xf9e
 2109 0f9e 0B       		.uleb128 0xb
ARM GAS  /tmp/ccEcHKKd.s 			page 38


 2110 0f9f 04       		.byte	0x4
 2111 0fa0 A40F0000 		.4byte	0xfa4
 2112 0fa4 1B       		.uleb128 0x1b
 2113 0fa5 CC080000 		.4byte	0x8cc
 2114 0fa9 B30F0000 		.4byte	0xfb3
 2115 0fad 0F       		.uleb128 0xf
 2116 0fae 480F0000 		.4byte	0xf48
 2117 0fb2 00       		.byte	0
 2118 0fb3 16       		.uleb128 0x16
 2119 0fb4 860B0000 		.4byte	.LASF198
 2120 0fb8 18       		.byte	0x18
 2121 0fb9 7001     		.2byte	0x170
 2122 0fbb BF0F0000 		.4byte	0xfbf
 2123 0fbf 0B       		.uleb128 0xb
 2124 0fc0 04       		.byte	0x4
 2125 0fc1 C50F0000 		.4byte	0xfc5
 2126 0fc5 1B       		.uleb128 0x1b
 2127 0fc6 E30F0000 		.4byte	0xfe3
 2128 0fca E30F0000 		.4byte	0xfe3
 2129 0fce 0F       		.uleb128 0xf
 2130 0fcf 480F0000 		.4byte	0xf48
 2131 0fd3 0F       		.uleb128 0xf
 2132 0fd4 B9000000 		.4byte	0xb9
 2133 0fd8 0F       		.uleb128 0xf
 2134 0fd9 B9000000 		.4byte	0xb9
 2135 0fdd 0F       		.uleb128 0xf
 2136 0fde C9000000 		.4byte	0xc9
 2137 0fe2 00       		.byte	0
 2138 0fe3 0B       		.uleb128 0xb
 2139 0fe4 04       		.byte	0x4
 2140 0fe5 260F0000 		.4byte	0xf26
 2141 0fe9 1C       		.uleb128 0x1c
 2142 0fea 20       		.byte	0x20
 2143 0feb 1A       		.byte	0x1a
 2144 0fec 29       		.byte	0x29
 2145 0fed 52100000 		.4byte	0x1052
 2146 0ff1 08       		.uleb128 0x8
 2147 0ff2 0B030000 		.4byte	.LASF199
 2148 0ff6 1A       		.byte	0x1a
 2149 0ff7 2A       		.byte	0x2a
 2150 0ff8 EF000000 		.4byte	0xef
 2151 0ffc 00       		.byte	0
 2152 0ffd 08       		.uleb128 0x8
 2153 0ffe 72000000 		.4byte	.LASF200
 2154 1002 1A       		.byte	0x1a
 2155 1003 2C       		.byte	0x2c
 2156 1004 EF000000 		.4byte	0xef
 2157 1008 04       		.byte	0x4
 2158 1009 08       		.uleb128 0x8
 2159 100a BE080000 		.4byte	.LASF201
 2160 100e 1A       		.byte	0x1a
 2161 100f 2D       		.byte	0x2d
 2162 1010 EF000000 		.4byte	0xef
 2163 1014 08       		.byte	0x8
 2164 1015 08       		.uleb128 0x8
 2165 1016 3C0A0000 		.4byte	.LASF202
 2166 101a 1A       		.byte	0x1a
ARM GAS  /tmp/ccEcHKKd.s 			page 39


 2167 101b 2E       		.byte	0x2e
 2168 101c EF000000 		.4byte	0xef
 2169 1020 0C       		.byte	0xc
 2170 1021 08       		.uleb128 0x8
 2171 1022 B9000000 		.4byte	.LASF203
 2172 1026 1A       		.byte	0x1a
 2173 1027 30       		.byte	0x30
 2174 1028 EF000000 		.4byte	0xef
 2175 102c 10       		.byte	0x10
 2176 102d 08       		.uleb128 0x8
 2177 102e 0A0C0000 		.4byte	.LASF204
 2178 1032 1A       		.byte	0x1a
 2179 1033 32       		.byte	0x32
 2180 1034 EF000000 		.4byte	0xef
 2181 1038 14       		.byte	0x14
 2182 1039 08       		.uleb128 0x8
 2183 103a 47000000 		.4byte	.LASF205
 2184 103e 1A       		.byte	0x1a
 2185 103f 33       		.byte	0x33
 2186 1040 EF000000 		.4byte	0xef
 2187 1044 18       		.byte	0x18
 2188 1045 08       		.uleb128 0x8
 2189 1046 4C0C0000 		.4byte	.LASF206
 2190 104a 1A       		.byte	0x1a
 2191 104b 34       		.byte	0x34
 2192 104c EF000000 		.4byte	0xef
 2193 1050 1C       		.byte	0x1c
 2194 1051 00       		.byte	0
 2195 1052 03       		.uleb128 0x3
 2196 1053 D0040000 		.4byte	.LASF207
 2197 1057 1A       		.byte	0x1a
 2198 1058 35       		.byte	0x35
 2199 1059 E90F0000 		.4byte	0xfe9
 2200 105d 1C       		.uleb128 0x1c
 2201 105e 20       		.byte	0x20
 2202 105f 1A       		.byte	0x1a
 2203 1060 3A       		.byte	0x3a
 2204 1061 C6100000 		.4byte	0x10c6
 2205 1065 08       		.uleb128 0x8
 2206 1066 2A030000 		.4byte	.LASF208
 2207 106a 1A       		.byte	0x1a
 2208 106b 3B       		.byte	0x3b
 2209 106c EF000000 		.4byte	0xef
 2210 1070 00       		.byte	0
 2211 1071 08       		.uleb128 0x8
 2212 1072 6B000000 		.4byte	.LASF209
 2213 1076 1A       		.byte	0x1a
 2214 1077 3D       		.byte	0x3d
 2215 1078 EF000000 		.4byte	0xef
 2216 107c 04       		.byte	0x4
 2217 107d 08       		.uleb128 0x8
 2218 107e BA0C0000 		.4byte	.LASF210
 2219 1082 1A       		.byte	0x1a
 2220 1083 3E       		.byte	0x3e
 2221 1084 EF000000 		.4byte	0xef
 2222 1088 08       		.byte	0x8
 2223 1089 08       		.uleb128 0x8
ARM GAS  /tmp/ccEcHKKd.s 			page 40


 2224 108a 82000000 		.4byte	.LASF211
 2225 108e 1A       		.byte	0x1a
 2226 108f 40       		.byte	0x40
 2227 1090 EF000000 		.4byte	0xef
 2228 1094 0C       		.byte	0xc
 2229 1095 08       		.uleb128 0x8
 2230 1096 E6020000 		.4byte	.LASF212
 2231 109a 1A       		.byte	0x1a
 2232 109b 41       		.byte	0x41
 2233 109c EF000000 		.4byte	0xef
 2234 10a0 10       		.byte	0x10
 2235 10a1 08       		.uleb128 0x8
 2236 10a2 0A0C0000 		.4byte	.LASF204
 2237 10a6 1A       		.byte	0x1a
 2238 10a7 43       		.byte	0x43
 2239 10a8 EF000000 		.4byte	0xef
 2240 10ac 14       		.byte	0x14
 2241 10ad 08       		.uleb128 0x8
 2242 10ae 240C0000 		.4byte	.LASF213
 2243 10b2 1A       		.byte	0x1a
 2244 10b3 44       		.byte	0x44
 2245 10b4 EF000000 		.4byte	0xef
 2246 10b8 18       		.byte	0x18
 2247 10b9 08       		.uleb128 0x8
 2248 10ba 2C0C0000 		.4byte	.LASF214
 2249 10be 1A       		.byte	0x1a
 2250 10bf 46       		.byte	0x46
 2251 10c0 EF000000 		.4byte	0xef
 2252 10c4 1C       		.byte	0x1c
 2253 10c5 00       		.byte	0
 2254 10c6 03       		.uleb128 0x3
 2255 10c7 C90A0000 		.4byte	.LASF215
 2256 10cb 1A       		.byte	0x1a
 2257 10cc 47       		.byte	0x47
 2258 10cd 5D100000 		.4byte	0x105d
 2259 10d1 1C       		.uleb128 0x1c
 2260 10d2 20       		.byte	0x20
 2261 10d3 1A       		.byte	0x1a
 2262 10d4 4C       		.byte	0x4c
 2263 10d5 3A110000 		.4byte	0x113a
 2264 10d9 08       		.uleb128 0x8
 2265 10da 1D020000 		.4byte	.LASF216
 2266 10de 1A       		.byte	0x1a
 2267 10df 4D       		.byte	0x4d
 2268 10e0 EF000000 		.4byte	0xef
 2269 10e4 00       		.byte	0
 2270 10e5 08       		.uleb128 0x8
 2271 10e6 6B000000 		.4byte	.LASF209
 2272 10ea 1A       		.byte	0x1a
 2273 10eb 4F       		.byte	0x4f
 2274 10ec EF000000 		.4byte	0xef
 2275 10f0 04       		.byte	0x4
 2276 10f1 08       		.uleb128 0x8
 2277 10f2 58020000 		.4byte	.LASF217
 2278 10f6 1A       		.byte	0x1a
 2279 10f7 50       		.byte	0x50
 2280 10f8 EF000000 		.4byte	0xef
ARM GAS  /tmp/ccEcHKKd.s 			page 41


 2281 10fc 08       		.byte	0x8
 2282 10fd 08       		.uleb128 0x8
 2283 10fe 82000000 		.4byte	.LASF211
 2284 1102 1A       		.byte	0x1a
 2285 1103 52       		.byte	0x52
 2286 1104 EF000000 		.4byte	0xef
 2287 1108 0C       		.byte	0xc
 2288 1109 08       		.uleb128 0x8
 2289 110a 7B080000 		.4byte	.LASF218
 2290 110e 1A       		.byte	0x1a
 2291 110f 53       		.byte	0x53
 2292 1110 EF000000 		.4byte	0xef
 2293 1114 10       		.byte	0x10
 2294 1115 08       		.uleb128 0x8
 2295 1116 0A0C0000 		.4byte	.LASF204
 2296 111a 1A       		.byte	0x1a
 2297 111b 55       		.byte	0x55
 2298 111c EF000000 		.4byte	0xef
 2299 1120 14       		.byte	0x14
 2300 1121 08       		.uleb128 0x8
 2301 1122 47000000 		.4byte	.LASF205
 2302 1126 1A       		.byte	0x1a
 2303 1127 56       		.byte	0x56
 2304 1128 EF000000 		.4byte	0xef
 2305 112c 18       		.byte	0x18
 2306 112d 08       		.uleb128 0x8
 2307 112e 2C0C0000 		.4byte	.LASF214
 2308 1132 1A       		.byte	0x1a
 2309 1133 57       		.byte	0x57
 2310 1134 EF000000 		.4byte	0xef
 2311 1138 1C       		.byte	0x1c
 2312 1139 00       		.byte	0
 2313 113a 03       		.uleb128 0x3
 2314 113b 12030000 		.4byte	.LASF219
 2315 113f 1A       		.byte	0x1a
 2316 1140 58       		.byte	0x58
 2317 1141 D1100000 		.4byte	0x10d1
 2318 1145 25       		.uleb128 0x25
 2319 1146 00100100 		.4byte	0x11000
 2320 114a 1A       		.byte	0x1a
 2321 114b 5D       		.byte	0x5d
 2322 114c 22140000 		.4byte	0x1422
 2323 1150 08       		.uleb128 0x8
 2324 1151 69070000 		.4byte	.LASF220
 2325 1155 1A       		.byte	0x1a
 2326 1156 5E       		.byte	0x5e
 2327 1157 EF000000 		.4byte	0xef
 2328 115b 00       		.byte	0
 2329 115c 08       		.uleb128 0x8
 2330 115d BE070000 		.4byte	.LASF221
 2331 1161 1A       		.byte	0x1a
 2332 1162 5F       		.byte	0x5f
 2333 1163 EF000000 		.4byte	0xef
 2334 1167 04       		.byte	0x4
 2335 1168 08       		.uleb128 0x8
 2336 1169 7D060000 		.4byte	.LASF222
 2337 116d 1A       		.byte	0x1a
ARM GAS  /tmp/ccEcHKKd.s 			page 42


 2338 116e 60       		.byte	0x60
 2339 116f EF000000 		.4byte	0xef
 2340 1173 08       		.byte	0x8
 2341 1174 08       		.uleb128 0x8
 2342 1175 FF0D0000 		.4byte	.LASF223
 2343 1179 1A       		.byte	0x1a
 2344 117a 61       		.byte	0x61
 2345 117b EF000000 		.4byte	0xef
 2346 117f 0C       		.byte	0xc
 2347 1180 08       		.uleb128 0x8
 2348 1181 83050000 		.4byte	.LASF224
 2349 1185 1A       		.byte	0x1a
 2350 1186 62       		.byte	0x62
 2351 1187 EF000000 		.4byte	0xef
 2352 118b 10       		.byte	0x10
 2353 118c 08       		.uleb128 0x8
 2354 118d 890C0000 		.4byte	.LASF225
 2355 1191 1A       		.byte	0x1a
 2356 1192 63       		.byte	0x63
 2357 1193 EF000000 		.4byte	0xef
 2358 1197 14       		.byte	0x14
 2359 1198 08       		.uleb128 0x8
 2360 1199 1C090000 		.4byte	.LASF226
 2361 119d 1A       		.byte	0x1a
 2362 119e 64       		.byte	0x64
 2363 119f EF000000 		.4byte	0xef
 2364 11a3 18       		.byte	0x18
 2365 11a4 08       		.uleb128 0x8
 2366 11a5 89070000 		.4byte	.LASF227
 2367 11a9 1A       		.byte	0x1a
 2368 11aa 65       		.byte	0x65
 2369 11ab EF000000 		.4byte	0xef
 2370 11af 1C       		.byte	0x1c
 2371 11b0 08       		.uleb128 0x8
 2372 11b1 DE070000 		.4byte	.LASF228
 2373 11b5 1A       		.byte	0x1a
 2374 11b6 67       		.byte	0x67
 2375 11b7 EF000000 		.4byte	0xef
 2376 11bb 20       		.byte	0x20
 2377 11bc 08       		.uleb128 0x8
 2378 11bd E3050000 		.4byte	.LASF229
 2379 11c1 1A       		.byte	0x1a
 2380 11c2 69       		.byte	0x69
 2381 11c3 EF000000 		.4byte	0xef
 2382 11c7 24       		.byte	0x24
 2383 11c8 08       		.uleb128 0x8
 2384 11c9 5C010000 		.4byte	.LASF230
 2385 11cd 1A       		.byte	0x1a
 2386 11ce 6A       		.byte	0x6a
 2387 11cf EF000000 		.4byte	0xef
 2388 11d3 28       		.byte	0x28
 2389 11d4 08       		.uleb128 0x8
 2390 11d5 C20C0000 		.4byte	.LASF231
 2391 11d9 1A       		.byte	0x1a
 2392 11da 6C       		.byte	0x6c
 2393 11db EF000000 		.4byte	0xef
 2394 11df 2C       		.byte	0x2c
ARM GAS  /tmp/ccEcHKKd.s 			page 43


 2395 11e0 08       		.uleb128 0x8
 2396 11e1 070D0000 		.4byte	.LASF232
 2397 11e5 1A       		.byte	0x1a
 2398 11e6 6E       		.byte	0x6e
 2399 11e7 EF000000 		.4byte	0xef
 2400 11eb 30       		.byte	0x30
 2401 11ec 08       		.uleb128 0x8
 2402 11ed 250D0000 		.4byte	.LASF233
 2403 11f1 1A       		.byte	0x1a
 2404 11f2 6F       		.byte	0x6f
 2405 11f3 EF000000 		.4byte	0xef
 2406 11f7 34       		.byte	0x34
 2407 11f8 08       		.uleb128 0x8
 2408 11f9 BE020000 		.4byte	.LASF234
 2409 11fd 1A       		.byte	0x1a
 2410 11fe 70       		.byte	0x70
 2411 11ff EF000000 		.4byte	0xef
 2412 1203 38       		.byte	0x38
 2413 1204 09       		.uleb128 0x9
 2414 1205 43494400 		.ascii	"CID\000"
 2415 1209 1A       		.byte	0x1a
 2416 120a 71       		.byte	0x71
 2417 120b EF000000 		.4byte	0xef
 2418 120f 3C       		.byte	0x3c
 2419 1210 08       		.uleb128 0x8
 2420 1211 E10D0000 		.4byte	.LASF235
 2421 1215 1A       		.byte	0x1a
 2422 1216 72       		.byte	0x72
 2423 1217 32140000 		.4byte	0x1432
 2424 121b 40       		.byte	0x40
 2425 121c 22       		.uleb128 0x22
 2426 121d E9090000 		.4byte	.LASF236
 2427 1221 1A       		.byte	0x1a
 2428 1222 73       		.byte	0x73
 2429 1223 EF000000 		.4byte	0xef
 2430 1227 0001     		.2byte	0x100
 2431 1229 22       		.uleb128 0x22
 2432 122a 1D060000 		.4byte	.LASF237
 2433 122e 1A       		.byte	0x1a
 2434 122f 75       		.byte	0x75
 2435 1230 C1040000 		.4byte	0x4c1
 2436 1234 0401     		.2byte	0x104
 2437 1236 22       		.uleb128 0x22
 2438 1237 070E0000 		.4byte	.LASF238
 2439 123b 1A       		.byte	0x1a
 2440 123c 77       		.byte	0x77
 2441 123d 47140000 		.4byte	0x1447
 2442 1241 4001     		.2byte	0x140
 2443 1243 22       		.uleb128 0x22
 2444 1244 06030000 		.4byte	.LASF239
 2445 1248 1A       		.byte	0x1a
 2446 1249 78       		.byte	0x78
 2447 124a EF000000 		.4byte	0xef
 2448 124e 0004     		.2byte	0x400
 2449 1250 22       		.uleb128 0x22
 2450 1251 E90D0000 		.4byte	.LASF240
 2451 1255 1A       		.byte	0x1a
ARM GAS  /tmp/ccEcHKKd.s 			page 44


 2452 1256 79       		.byte	0x79
 2453 1257 EF000000 		.4byte	0xef
 2454 125b 0404     		.2byte	0x404
 2455 125d 22       		.uleb128 0x22
 2456 125e B6040000 		.4byte	.LASF241
 2457 1262 1A       		.byte	0x1a
 2458 1263 7A       		.byte	0x7a
 2459 1264 EF000000 		.4byte	0xef
 2460 1268 0804     		.2byte	0x408
 2461 126a 22       		.uleb128 0x22
 2462 126b 58070000 		.4byte	.LASF242
 2463 126f 1A       		.byte	0x1a
 2464 1270 7C       		.byte	0x7c
 2465 1271 EF000000 		.4byte	0xef
 2466 1275 0C04     		.2byte	0x40c
 2467 1277 22       		.uleb128 0x22
 2468 1278 25060000 		.4byte	.LASF243
 2469 127c 1A       		.byte	0x1a
 2470 127d 7D       		.byte	0x7d
 2471 127e EF000000 		.4byte	0xef
 2472 1282 1004     		.2byte	0x410
 2473 1284 22       		.uleb128 0x22
 2474 1285 98080000 		.4byte	.LASF244
 2475 1289 1A       		.byte	0x1a
 2476 128a 7F       		.byte	0x7f
 2477 128b EF000000 		.4byte	0xef
 2478 128f 1404     		.2byte	0x414
 2479 1291 22       		.uleb128 0x22
 2480 1292 08090000 		.4byte	.LASF245
 2481 1296 1A       		.byte	0x1a
 2482 1297 81       		.byte	0x81
 2483 1298 EF000000 		.4byte	0xef
 2484 129c 1804     		.2byte	0x418
 2485 129e 22       		.uleb128 0x22
 2486 129f FA070000 		.4byte	.LASF246
 2487 12a3 1A       		.byte	0x1a
 2488 12a4 83       		.byte	0x83
 2489 12a5 5C140000 		.4byte	0x145c
 2490 12a9 1C04     		.2byte	0x41c
 2491 12ab 22       		.uleb128 0x22
 2492 12ac 40030000 		.4byte	.LASF247
 2493 12b0 1A       		.byte	0x1a
 2494 12b1 84       		.byte	0x84
 2495 12b2 EF000000 		.4byte	0xef
 2496 12b6 4004     		.2byte	0x440
 2497 12b8 22       		.uleb128 0x22
 2498 12b9 E9080000 		.4byte	.LASF248
 2499 12bd 1A       		.byte	0x1a
 2500 12be 86       		.byte	0x86
 2501 12bf 71140000 		.4byte	0x1471
 2502 12c3 4404     		.2byte	0x444
 2503 12c5 21       		.uleb128 0x21
 2504 12c6 686300   		.ascii	"hc\000"
 2505 12c9 1A       		.byte	0x1a
 2506 12ca 87       		.byte	0x87
 2507 12cb 76140000 		.4byte	0x1476
 2508 12cf 0005     		.2byte	0x500
ARM GAS  /tmp/ccEcHKKd.s 			page 45


 2509 12d1 22       		.uleb128 0x22
 2510 12d2 C0000000 		.4byte	.LASF249
 2511 12d6 1A       		.byte	0x1a
 2512 12d7 88       		.byte	0x88
 2513 12d8 96140000 		.4byte	0x1496
 2514 12dc 0007     		.2byte	0x700
 2515 12de 22       		.uleb128 0x22
 2516 12df B0020000 		.4byte	.LASF250
 2517 12e3 1A       		.byte	0x1a
 2518 12e4 89       		.byte	0x89
 2519 12e5 EF000000 		.4byte	0xef
 2520 12e9 0008     		.2byte	0x800
 2521 12eb 22       		.uleb128 0x22
 2522 12ec 070A0000 		.4byte	.LASF251
 2523 12f0 1A       		.byte	0x1a
 2524 12f1 8A       		.byte	0x8a
 2525 12f2 EF000000 		.4byte	0xef
 2526 12f6 0408     		.2byte	0x804
 2527 12f8 22       		.uleb128 0x22
 2528 12f9 760D0000 		.4byte	.LASF252
 2529 12fd 1A       		.byte	0x1a
 2530 12fe 8B       		.byte	0x8b
 2531 12ff EF000000 		.4byte	0xef
 2532 1303 0808     		.2byte	0x808
 2533 1305 22       		.uleb128 0x22
 2534 1306 37030000 		.4byte	.LASF253
 2535 130a 1A       		.byte	0x1a
 2536 130b 8C       		.byte	0x8c
 2537 130c EF000000 		.4byte	0xef
 2538 1310 0C08     		.2byte	0x80c
 2539 1312 22       		.uleb128 0x22
 2540 1313 340C0000 		.4byte	.LASF254
 2541 1317 1A       		.byte	0x1a
 2542 1318 8D       		.byte	0x8d
 2543 1319 EF000000 		.4byte	0xef
 2544 131d 1008     		.2byte	0x810
 2545 131f 22       		.uleb128 0x22
 2546 1320 D3010000 		.4byte	.LASF255
 2547 1324 1A       		.byte	0x1a
 2548 1325 8F       		.byte	0x8f
 2549 1326 EF000000 		.4byte	0xef
 2550 132a 1408     		.2byte	0x814
 2551 132c 22       		.uleb128 0x22
 2552 132d CD010000 		.4byte	.LASF256
 2553 1331 1A       		.byte	0x1a
 2554 1332 91       		.byte	0x91
 2555 1333 EF000000 		.4byte	0xef
 2556 1337 1808     		.2byte	0x818
 2557 1339 22       		.uleb128 0x22
 2558 133a B70A0000 		.4byte	.LASF257
 2559 133e 1A       		.byte	0x1a
 2560 133f 93       		.byte	0x93
 2561 1340 EF000000 		.4byte	0xef
 2562 1344 1C08     		.2byte	0x81c
 2563 1346 22       		.uleb128 0x22
 2564 1347 B5080000 		.4byte	.LASF258
 2565 134b 1A       		.byte	0x1a
ARM GAS  /tmp/ccEcHKKd.s 			page 46


 2566 134c 95       		.byte	0x95
 2567 134d EF000000 		.4byte	0xef
 2568 1351 2008     		.2byte	0x820
 2569 1353 22       		.uleb128 0x22
 2570 1354 12050000 		.4byte	.LASF259
 2571 1358 1A       		.byte	0x1a
 2572 1359 96       		.byte	0x96
 2573 135a EF000000 		.4byte	0xef
 2574 135e 2408     		.2byte	0x824
 2575 1360 22       		.uleb128 0x22
 2576 1361 C00A0000 		.4byte	.LASF260
 2577 1365 1A       		.byte	0x1a
 2578 1366 97       		.byte	0x97
 2579 1367 EF000000 		.4byte	0xef
 2580 136b 2808     		.2byte	0x828
 2581 136d 22       		.uleb128 0x22
 2582 136e 1B050000 		.4byte	.LASF261
 2583 1372 1A       		.byte	0x1a
 2584 1373 99       		.byte	0x99
 2585 1374 EF000000 		.4byte	0xef
 2586 1378 2C08     		.2byte	0x82c
 2587 137a 22       		.uleb128 0x22
 2588 137b C70B0000 		.4byte	.LASF262
 2589 137f 1A       		.byte	0x1a
 2590 1380 9B       		.byte	0x9b
 2591 1381 EF000000 		.4byte	0xef
 2592 1385 3008     		.2byte	0x830
 2593 1387 22       		.uleb128 0x22
 2594 1388 45050000 		.4byte	.LASF263
 2595 138c 1A       		.byte	0x1a
 2596 138d 9C       		.byte	0x9c
 2597 138e EF000000 		.4byte	0xef
 2598 1392 3408     		.2byte	0x834
 2599 1394 22       		.uleb128 0x22
 2600 1395 1F080000 		.4byte	.LASF264
 2601 1399 1A       		.byte	0x1a
 2602 139a 9E       		.byte	0x9e
 2603 139b EF000000 		.4byte	0xef
 2604 139f 3808     		.2byte	0x838
 2605 13a1 22       		.uleb128 0x22
 2606 13a2 5C080000 		.4byte	.LASF265
 2607 13a6 1A       		.byte	0x1a
 2608 13a7 9F       		.byte	0x9f
 2609 13a8 EF000000 		.4byte	0xef
 2610 13ac 3C08     		.2byte	0x83c
 2611 13ae 22       		.uleb128 0x22
 2612 13af FB050000 		.4byte	.LASF266
 2613 13b3 1A       		.byte	0x1a
 2614 13b4 A0       		.byte	0xa0
 2615 13b5 AB140000 		.4byte	0x14ab
 2616 13b9 4008     		.2byte	0x840
 2617 13bb 22       		.uleb128 0x22
 2618 13bc 46080000 		.4byte	.LASF267
 2619 13c0 1A       		.byte	0x1a
 2620 13c1 A1       		.byte	0xa1
 2621 13c2 AB140000 		.4byte	0x14ab
 2622 13c6 8008     		.2byte	0x880
ARM GAS  /tmp/ccEcHKKd.s 			page 47


 2623 13c8 22       		.uleb128 0x22
 2624 13c9 B5020000 		.4byte	.LASF268
 2625 13cd 1A       		.byte	0x1a
 2626 13ce A2       		.byte	0xa2
 2627 13cf AB140000 		.4byte	0x14ab
 2628 13d3 C008     		.2byte	0x8c0
 2629 13d5 21       		.uleb128 0x21
 2630 13d6 696500   		.ascii	"ie\000"
 2631 13d9 1A       		.byte	0x1a
 2632 13da A3       		.byte	0xa3
 2633 13db B0140000 		.4byte	0x14b0
 2634 13df 0009     		.2byte	0x900
 2635 13e1 21       		.uleb128 0x21
 2636 13e2 6F6500   		.ascii	"oe\000"
 2637 13e5 1A       		.byte	0x1a
 2638 13e6 A4       		.byte	0xa4
 2639 13e7 C0140000 		.4byte	0x14c0
 2640 13eb 000B     		.2byte	0xb00
 2641 13ed 22       		.uleb128 0x22
 2642 13ee C9090000 		.4byte	.LASF269
 2643 13f2 1A       		.byte	0x1a
 2644 13f3 A5       		.byte	0xa5
 2645 13f4 96140000 		.4byte	0x1496
 2646 13f8 000D     		.2byte	0xd00
 2647 13fa 22       		.uleb128 0x22
 2648 13fb A2070000 		.4byte	.LASF270
 2649 13ff 1A       		.byte	0x1a
 2650 1400 A6       		.byte	0xa6
 2651 1401 EF000000 		.4byte	0xef
 2652 1405 000E     		.2byte	0xe00
 2653 1407 22       		.uleb128 0x22
 2654 1408 FE0C0000 		.4byte	.LASF271
 2655 140c 1A       		.byte	0x1a
 2656 140d A8       		.byte	0xa8
 2657 140e E0140000 		.4byte	0x14e0
 2658 1412 040E     		.2byte	0xe04
 2659 1414 22       		.uleb128 0x22
 2660 1415 3B0B0000 		.4byte	.LASF272
 2661 1419 1A       		.byte	0x1a
 2662 141a A9       		.byte	0xa9
 2663 141b FC140000 		.4byte	0x14fc
 2664 141f 0010     		.2byte	0x1000
 2665 1421 00       		.byte	0
 2666 1422 13       		.uleb128 0x13
 2667 1423 EF000000 		.4byte	0xef
 2668 1427 32140000 		.4byte	0x1432
 2669 142b 14       		.uleb128 0x14
 2670 142c 81030000 		.4byte	0x381
 2671 1430 2F       		.byte	0x2f
 2672 1431 00       		.byte	0
 2673 1432 04       		.uleb128 0x4
 2674 1433 22140000 		.4byte	0x1422
 2675 1437 13       		.uleb128 0x13
 2676 1438 EF000000 		.4byte	0xef
 2677 143c 47140000 		.4byte	0x1447
 2678 1440 14       		.uleb128 0x14
 2679 1441 81030000 		.4byte	0x381
ARM GAS  /tmp/ccEcHKKd.s 			page 48


 2680 1445 AF       		.byte	0xaf
 2681 1446 00       		.byte	0
 2682 1447 04       		.uleb128 0x4
 2683 1448 37140000 		.4byte	0x1437
 2684 144c 13       		.uleb128 0x13
 2685 144d EF000000 		.4byte	0xef
 2686 1451 5C140000 		.4byte	0x145c
 2687 1455 14       		.uleb128 0x14
 2688 1456 81030000 		.4byte	0x381
 2689 145a 08       		.byte	0x8
 2690 145b 00       		.byte	0
 2691 145c 04       		.uleb128 0x4
 2692 145d 4C140000 		.4byte	0x144c
 2693 1461 13       		.uleb128 0x13
 2694 1462 EF000000 		.4byte	0xef
 2695 1466 71140000 		.4byte	0x1471
 2696 146a 14       		.uleb128 0x14
 2697 146b 81030000 		.4byte	0x381
 2698 146f 2E       		.byte	0x2e
 2699 1470 00       		.byte	0
 2700 1471 04       		.uleb128 0x4
 2701 1472 61140000 		.4byte	0x1461
 2702 1476 13       		.uleb128 0x13
 2703 1477 52100000 		.4byte	0x1052
 2704 147b 86140000 		.4byte	0x1486
 2705 147f 14       		.uleb128 0x14
 2706 1480 81030000 		.4byte	0x381
 2707 1484 0F       		.byte	0xf
 2708 1485 00       		.byte	0
 2709 1486 13       		.uleb128 0x13
 2710 1487 EF000000 		.4byte	0xef
 2711 148b 96140000 		.4byte	0x1496
 2712 148f 14       		.uleb128 0x14
 2713 1490 81030000 		.4byte	0x381
 2714 1494 3F       		.byte	0x3f
 2715 1495 00       		.byte	0
 2716 1496 04       		.uleb128 0x4
 2717 1497 86140000 		.4byte	0x1486
 2718 149b 13       		.uleb128 0x13
 2719 149c EF000000 		.4byte	0xef
 2720 14a0 AB140000 		.4byte	0x14ab
 2721 14a4 14       		.uleb128 0x14
 2722 14a5 81030000 		.4byte	0x381
 2723 14a9 0F       		.byte	0xf
 2724 14aa 00       		.byte	0
 2725 14ab 04       		.uleb128 0x4
 2726 14ac 9B140000 		.4byte	0x149b
 2727 14b0 13       		.uleb128 0x13
 2728 14b1 C6100000 		.4byte	0x10c6
 2729 14b5 C0140000 		.4byte	0x14c0
 2730 14b9 14       		.uleb128 0x14
 2731 14ba 81030000 		.4byte	0x381
 2732 14be 0F       		.byte	0xf
 2733 14bf 00       		.byte	0
 2734 14c0 13       		.uleb128 0x13
 2735 14c1 3A110000 		.4byte	0x113a
 2736 14c5 D0140000 		.4byte	0x14d0
ARM GAS  /tmp/ccEcHKKd.s 			page 49


 2737 14c9 14       		.uleb128 0x14
 2738 14ca 81030000 		.4byte	0x381
 2739 14ce 0F       		.byte	0xf
 2740 14cf 00       		.byte	0
 2741 14d0 13       		.uleb128 0x13
 2742 14d1 EF000000 		.4byte	0xef
 2743 14d5 E0140000 		.4byte	0x14e0
 2744 14d9 14       		.uleb128 0x14
 2745 14da 81030000 		.4byte	0x381
 2746 14de 7E       		.byte	0x7e
 2747 14df 00       		.byte	0
 2748 14e0 04       		.uleb128 0x4
 2749 14e1 D0140000 		.4byte	0x14d0
 2750 14e5 13       		.uleb128 0x13
 2751 14e6 EF000000 		.4byte	0xef
 2752 14ea FC140000 		.4byte	0x14fc
 2753 14ee 14       		.uleb128 0x14
 2754 14ef 81030000 		.4byte	0x381
 2755 14f3 0F       		.byte	0xf
 2756 14f4 23       		.uleb128 0x23
 2757 14f5 81030000 		.4byte	0x381
 2758 14f9 FF03     		.2byte	0x3ff
 2759 14fb 00       		.byte	0
 2760 14fc 04       		.uleb128 0x4
 2761 14fd E5140000 		.4byte	0x14e5
 2762 1501 03       		.uleb128 0x3
 2763 1502 C4080000 		.4byte	.LASF273
 2764 1506 1A       		.byte	0x1a
 2765 1507 AA       		.byte	0xaa
 2766 1508 45110000 		.4byte	0x1145
 2767 150c 15       		.uleb128 0x15
 2768 150d 0C       		.byte	0xc
 2769 150e 19       		.byte	0x19
 2770 150f 0301     		.2byte	0x103
 2771 1511 3D150000 		.4byte	0x153d
 2772 1515 0D       		.uleb128 0xd
 2773 1516 3A000000 		.4byte	.LASF274
 2774 151a 19       		.byte	0x19
 2775 151b 0401     		.2byte	0x104
 2776 151d E4000000 		.4byte	0xe4
 2777 1521 00       		.byte	0
 2778 1522 0D       		.uleb128 0xd
 2779 1523 DB0A0000 		.4byte	.LASF275
 2780 1527 19       		.byte	0x19
 2781 1528 0501     		.2byte	0x105
 2782 152a E4000000 		.4byte	0xe4
 2783 152e 04       		.byte	0x4
 2784 152f 0D       		.uleb128 0xd
 2785 1530 DD060000 		.4byte	.LASF276
 2786 1534 19       		.byte	0x19
 2787 1535 0601     		.2byte	0x106
 2788 1537 E4000000 		.4byte	0xe4
 2789 153b 08       		.byte	0x8
 2790 153c 00       		.byte	0
 2791 153d 16       		.uleb128 0x16
 2792 153e 64050000 		.4byte	.LASF277
 2793 1542 19       		.byte	0x19
ARM GAS  /tmp/ccEcHKKd.s 			page 50


 2794 1543 0701     		.2byte	0x107
 2795 1545 0C150000 		.4byte	0x150c
 2796 1549 06       		.uleb128 0x6
 2797 154a 3D150000 		.4byte	0x153d
 2798 154e 15       		.uleb128 0x15
 2799 154f 10       		.byte	0x10
 2800 1550 19       		.byte	0x19
 2801 1551 0C01     		.2byte	0x10c
 2802 1553 8C150000 		.4byte	0x158c
 2803 1557 0D       		.uleb128 0xd
 2804 1558 51070000 		.4byte	.LASF278
 2805 155c 19       		.byte	0x19
 2806 155d 1001     		.2byte	0x110
 2807 155f 2C000000 		.4byte	0x2c
 2808 1563 00       		.byte	0
 2809 1564 0D       		.uleb128 0xd
 2810 1565 EB050000 		.4byte	.LASF279
 2811 1569 19       		.byte	0x19
 2812 156a 1401     		.2byte	0x114
 2813 156c 2C000000 		.4byte	0x2c
 2814 1570 04       		.byte	0x4
 2815 1571 0D       		.uleb128 0xd
 2816 1572 BE010000 		.4byte	.LASF280
 2817 1576 19       		.byte	0x19
 2818 1577 1801     		.2byte	0x118
 2819 1579 CC070000 		.4byte	0x7cc
 2820 157d 08       		.byte	0x8
 2821 157e 0D       		.uleb128 0xd
 2822 157f DB050000 		.4byte	.LASF281
 2823 1583 19       		.byte	0x19
 2824 1584 2301     		.2byte	0x123
 2825 1586 2C000000 		.4byte	0x2c
 2826 158a 0C       		.byte	0xc
 2827 158b 00       		.byte	0
 2828 158c 16       		.uleb128 0x16
 2829 158d F2040000 		.4byte	.LASF282
 2830 1591 19       		.byte	0x19
 2831 1592 2401     		.2byte	0x124
 2832 1594 4E150000 		.4byte	0x154e
 2833 1598 15       		.uleb128 0x15
 2834 1599 10       		.byte	0x10
 2835 159a 19       		.byte	0x19
 2836 159b 2901     		.2byte	0x129
 2837 159d D6150000 		.4byte	0x15d6
 2838 15a1 0D       		.uleb128 0xd
 2839 15a2 60020000 		.4byte	.LASF283
 2840 15a6 19       		.byte	0x19
 2841 15a7 2D01     		.2byte	0x12d
 2842 15a9 2C000000 		.4byte	0x2c
 2843 15ad 00       		.byte	0
 2844 15ae 0D       		.uleb128 0xd
 2845 15af 40070000 		.4byte	.LASF284
 2846 15b3 19       		.byte	0x19
 2847 15b4 3101     		.2byte	0x131
 2848 15b6 2C000000 		.4byte	0x2c
 2849 15ba 04       		.byte	0x4
 2850 15bb 0D       		.uleb128 0xd
ARM GAS  /tmp/ccEcHKKd.s 			page 51


 2851 15bc 7A070000 		.4byte	.LASF285
 2852 15c0 19       		.byte	0x19
 2853 15c1 3501     		.2byte	0x135
 2854 15c3 F1070000 		.4byte	0x7f1
 2855 15c7 08       		.byte	0x8
 2856 15c8 0D       		.uleb128 0xd
 2857 15c9 DB050000 		.4byte	.LASF281
 2858 15cd 19       		.byte	0x19
 2859 15ce 4001     		.2byte	0x140
 2860 15d0 2C000000 		.4byte	0x2c
 2861 15d4 0C       		.byte	0xc
 2862 15d5 00       		.byte	0
 2863 15d6 16       		.uleb128 0x16
 2864 15d7 B5090000 		.4byte	.LASF286
 2865 15db 19       		.byte	0x19
 2866 15dc 4101     		.2byte	0x141
 2867 15de 98150000 		.4byte	0x1598
 2868 15e2 15       		.uleb128 0x15
 2869 15e3 24       		.byte	0x24
 2870 15e4 19       		.byte	0x19
 2871 15e5 4701     		.2byte	0x147
 2872 15e7 6E160000 		.4byte	0x166e
 2873 15eb 0D       		.uleb128 0xd
 2874 15ec D6000000 		.4byte	.LASF287
 2875 15f0 19       		.byte	0x19
 2876 15f1 4B01     		.2byte	0x14b
 2877 15f3 E4000000 		.4byte	0xe4
 2878 15f7 00       		.byte	0
 2879 15f8 0D       		.uleb128 0xd
 2880 15f9 3D080000 		.4byte	.LASF288
 2881 15fd 19       		.byte	0x19
 2882 15fe 5601     		.2byte	0x156
 2883 1600 4E0F0000 		.4byte	0xf4e
 2884 1604 04       		.byte	0x4
 2885 1605 0D       		.uleb128 0xd
 2886 1606 92040000 		.4byte	.LASF289
 2887 160a 19       		.byte	0x19
 2888 160b 5B01     		.2byte	0x15b
 2889 160d 4E0F0000 		.4byte	0xf4e
 2890 1611 08       		.byte	0x8
 2891 1612 0D       		.uleb128 0xd
 2892 1613 FA080000 		.4byte	.LASF290
 2893 1617 19       		.byte	0x19
 2894 1618 6001     		.2byte	0x160
 2895 161a 4E0F0000 		.4byte	0xf4e
 2896 161e 0C       		.byte	0xc
 2897 161f 0D       		.uleb128 0xd
 2898 1620 11090000 		.4byte	.LASF291
 2899 1624 19       		.byte	0x19
 2900 1625 6501     		.2byte	0x165
 2901 1627 C9000000 		.4byte	0xc9
 2902 162b 10       		.byte	0x10
 2903 162c 0D       		.uleb128 0xd
 2904 162d FF0A0000 		.4byte	.LASF292
 2905 1631 19       		.byte	0x19
 2906 1632 6A01     		.2byte	0x16a
 2907 1634 C9000000 		.4byte	0xc9
ARM GAS  /tmp/ccEcHKKd.s 			page 52


 2908 1638 12       		.byte	0x12
 2909 1639 0D       		.uleb128 0xd
 2910 163a 80070000 		.4byte	.LASF293
 2911 163e 19       		.byte	0x19
 2912 163f 7001     		.2byte	0x170
 2913 1641 6E160000 		.4byte	0x166e
 2914 1645 14       		.byte	0x14
 2915 1646 0D       		.uleb128 0xd
 2916 1647 37090000 		.4byte	.LASF294
 2917 164b 19       		.byte	0x19
 2918 164c 7601     		.2byte	0x176
 2919 164e 74160000 		.4byte	0x1674
 2920 1652 18       		.byte	0x18
 2921 1653 0D       		.uleb128 0xd
 2922 1654 BC060000 		.4byte	.LASF295
 2923 1658 19       		.byte	0x19
 2924 1659 7D01     		.2byte	0x17d
 2925 165b C9000000 		.4byte	0xc9
 2926 165f 1C       		.byte	0x1c
 2927 1660 0D       		.uleb128 0xd
 2928 1661 D0080000 		.4byte	.LASF296
 2929 1665 19       		.byte	0x19
 2930 1666 8301     		.2byte	0x183
 2931 1668 F1070000 		.4byte	0x7f1
 2932 166c 20       		.byte	0x20
 2933 166d 00       		.byte	0
 2934 166e 0B       		.uleb128 0xb
 2935 166f 04       		.byte	0x4
 2936 1670 8C150000 		.4byte	0x158c
 2937 1674 0B       		.uleb128 0xb
 2938 1675 04       		.byte	0x4
 2939 1676 D6150000 		.4byte	0x15d6
 2940 167a 16       		.uleb128 0x16
 2941 167b 1D0A0000 		.4byte	.LASF297
 2942 167f 19       		.byte	0x19
 2943 1680 8401     		.2byte	0x184
 2944 1682 E2150000 		.4byte	0x15e2
 2945 1686 06       		.uleb128 0x6
 2946 1687 7A160000 		.4byte	0x167a
 2947 168b 15       		.uleb128 0x15
 2948 168c 10       		.byte	0x10
 2949 168d 19       		.byte	0x19
 2950 168e 8901     		.2byte	0x189
 2951 1690 C9160000 		.4byte	0x16c9
 2952 1694 0D       		.uleb128 0xd
 2953 1695 B5070000 		.4byte	.LASF298
 2954 1699 19       		.byte	0x19
 2955 169a 8E01     		.2byte	0x18e
 2956 169c 700F0000 		.4byte	0xf70
 2957 16a0 00       		.byte	0
 2958 16a1 0D       		.uleb128 0xd
 2959 16a2 7B0D0000 		.4byte	.LASF299
 2960 16a6 19       		.byte	0x19
 2961 16a7 9301     		.2byte	0x193
 2962 16a9 B30F0000 		.4byte	0xfb3
 2963 16ad 04       		.byte	0x4
 2964 16ae 0D       		.uleb128 0xd
ARM GAS  /tmp/ccEcHKKd.s 			page 53


 2965 16af EF020000 		.4byte	.LASF300
 2966 16b3 19       		.byte	0x19
 2967 16b4 9901     		.2byte	0x199
 2968 16b6 920F0000 		.4byte	0xf92
 2969 16ba 08       		.byte	0x8
 2970 16bb 0D       		.uleb128 0xd
 2971 16bc F70C0000 		.4byte	.LASF301
 2972 16c0 19       		.byte	0x19
 2973 16c1 9D01     		.2byte	0x19d
 2974 16c3 2B0F0000 		.4byte	0xf2b
 2975 16c7 0C       		.byte	0xc
 2976 16c8 00       		.byte	0
 2977 16c9 16       		.uleb128 0x16
 2978 16ca AB080000 		.4byte	.LASF302
 2979 16ce 19       		.byte	0x19
 2980 16cf 9F01     		.2byte	0x19f
 2981 16d1 8B160000 		.4byte	0x168b
 2982 16d5 06       		.uleb128 0x6
 2983 16d6 C9160000 		.4byte	0x16c9
 2984 16da 0B       		.uleb128 0xb
 2985 16db 04       		.byte	0x4
 2986 16dc D5160000 		.4byte	0x16d5
 2987 16e0 13       		.uleb128 0x13
 2988 16e1 F0160000 		.4byte	0x16f0
 2989 16e5 F0160000 		.4byte	0x16f0
 2990 16e9 14       		.uleb128 0x14
 2991 16ea 81030000 		.4byte	0x381
 2992 16ee 03       		.byte	0x3
 2993 16ef 00       		.byte	0
 2994 16f0 0B       		.uleb128 0xb
 2995 16f1 04       		.byte	0x4
 2996 16f2 86160000 		.4byte	0x1686
 2997 16f6 13       		.uleb128 0x13
 2998 16f7 4F020000 		.4byte	0x24f
 2999 16fb 06170000 		.4byte	0x1706
 3000 16ff 14       		.uleb128 0x14
 3001 1700 81030000 		.4byte	0x381
 3002 1704 02       		.byte	0x2
 3003 1705 00       		.byte	0
 3004 1706 13       		.uleb128 0x13
 3005 1707 B9000000 		.4byte	0xb9
 3006 170b 16170000 		.4byte	0x1716
 3007 170f 14       		.uleb128 0x14
 3008 1710 81030000 		.4byte	0x381
 3009 1714 07       		.byte	0x7
 3010 1715 00       		.byte	0
 3011 1716 0B       		.uleb128 0xb
 3012 1717 04       		.byte	0x4
 3013 1718 01150000 		.4byte	0x1501
 3014 171c 0B       		.uleb128 0xb
 3015 171d 04       		.byte	0x4
 3016 171e 49150000 		.4byte	0x1549
 3017 1722 11       		.uleb128 0x11
 3018 1723 E40C0000 		.4byte	.LASF303
 3019 1727 19       		.byte	0x19
 3020 1728 3902     		.2byte	0x239
 3021 172a 130D0000 		.4byte	0xd13
ARM GAS  /tmp/ccEcHKKd.s 			page 54


 3022 172e 26       		.uleb128 0x26
 3023 172f A60C0000 		.4byte	.LASF305
 3024 1733 01       		.byte	0x1
 3025 1734 94       		.byte	0x94
 3026 1735 00000000 		.4byte	.LFB255
 3027 1739 18000000 		.4byte	.LFE255-.LFB255
 3028 173d 01       		.uleb128 0x1
 3029 173e 9C       		.byte	0x9c
 3030 173f 7B170000 		.4byte	0x177b
 3031 1743 27       		.uleb128 0x27
 3032 1744 A5060000 		.4byte	.LASF304
 3033 1748 01       		.byte	0x1
 3034 1749 94       		.byte	0x94
 3035 174a 9C0A0000 		.4byte	0xa9c
 3036 174e 00000000 		.4byte	.LLST6
 3037 1752 28       		.uleb128 0x28
 3038 1753 636200   		.ascii	"cb\000"
 3039 1756 01       		.byte	0x1
 3040 1757 94       		.byte	0x94
 3041 1758 83090000 		.4byte	0x983
 3042 175c 01       		.uleb128 0x1
 3043 175d 51       		.byte	0x51
 3044 175e 28       		.uleb128 0x28
 3045 175f 61726700 		.ascii	"arg\000"
 3046 1763 01       		.byte	0x1
 3047 1764 94       		.byte	0x94
 3048 1765 4F020000 		.4byte	0x24f
 3049 1769 01       		.uleb128 0x1
 3050 176a 52       		.byte	0x52
 3051 176b 29       		.uleb128 0x29
 3052 176c 70657000 		.ascii	"pep\000"
 3053 1770 01       		.byte	0x1
 3054 1771 96       		.byte	0x96
 3055 1772 7B170000 		.4byte	0x177b
 3056 1776 21000000 		.4byte	.LLST7
 3057 177a 00       		.byte	0
 3058 177b 0B       		.uleb128 0xb
 3059 177c 04       		.byte	0x4
 3060 177d AE090000 		.4byte	0x9ae
 3061 1781 26       		.uleb128 0x26
 3062 1782 570A0000 		.4byte	.LASF306
 3063 1786 01       		.byte	0x1
 3064 1787 83       		.byte	0x83
 3065 1788 00000000 		.4byte	.LFB254
 3066 178c 14000000 		.4byte	.LFE254-.LFB254
 3067 1790 01       		.uleb128 0x1
 3068 1791 9C       		.byte	0x9c
 3069 1792 DB170000 		.4byte	0x17db
 3070 1796 27       		.uleb128 0x27
 3071 1797 A70B0000 		.4byte	.LASF307
 3072 179b 01       		.byte	0x1
 3073 179c 83       		.byte	0x83
 3074 179d A70A0000 		.4byte	0xaa7
 3075 17a1 34000000 		.4byte	.LLST4
 3076 17a5 28       		.uleb128 0x28
 3077 17a6 70616400 		.ascii	"pad\000"
 3078 17aa 01       		.byte	0x1
ARM GAS  /tmp/ccEcHKKd.s 			page 55


 3079 17ab 83       		.byte	0x83
 3080 17ac B80A0000 		.4byte	0xab8
 3081 17b0 01       		.uleb128 0x1
 3082 17b1 51       		.byte	0x51
 3083 17b2 28       		.uleb128 0x28
 3084 17b3 636200   		.ascii	"cb\000"
 3085 17b6 01       		.byte	0x1
 3086 17b7 84       		.byte	0x84
 3087 17b8 83090000 		.4byte	0x983
 3088 17bc 01       		.uleb128 0x1
 3089 17bd 52       		.byte	0x52
 3090 17be 28       		.uleb128 0x28
 3091 17bf 61726700 		.ascii	"arg\000"
 3092 17c3 01       		.byte	0x1
 3093 17c4 84       		.byte	0x84
 3094 17c5 4F020000 		.4byte	0x24f
 3095 17c9 01       		.uleb128 0x1
 3096 17ca 53       		.byte	0x53
 3097 17cb 29       		.uleb128 0x29
 3098 17cc 70657000 		.ascii	"pep\000"
 3099 17d0 01       		.byte	0x1
 3100 17d1 86       		.byte	0x86
 3101 17d2 7B170000 		.4byte	0x177b
 3102 17d6 55000000 		.4byte	.LLST5
 3103 17da 00       		.byte	0
 3104 17db 26       		.uleb128 0x26
 3105 17dc 980C0000 		.4byte	.LASF308
 3106 17e0 01       		.byte	0x1
 3107 17e1 71       		.byte	0x71
 3108 17e2 00000000 		.4byte	.LFB253
 3109 17e6 16000000 		.4byte	.LFE253-.LFB253
 3110 17ea 01       		.uleb128 0x1
 3111 17eb 9C       		.byte	0x9c
 3112 17ec 29180000 		.4byte	0x1829
 3113 17f0 2A       		.uleb128 0x2a
 3114 17f1 62757300 		.ascii	"bus\000"
 3115 17f5 01       		.byte	0x1
 3116 17f6 71       		.byte	0x71
 3117 17f7 29180000 		.4byte	0x1829
 3118 17fb 68000000 		.4byte	.LLST2
 3119 17ff 27       		.uleb128 0x27
 3120 1800 F00B0000 		.4byte	.LASF309
 3121 1804 01       		.byte	0x1
 3122 1805 71       		.byte	0x71
 3123 1806 910A0000 		.4byte	0xa91
 3124 180a 89000000 		.4byte	.LLST3
 3125 180e 2B       		.uleb128 0x2b
 3126 180f AA000000 		.4byte	.LASF312
 3127 1813 3F180000 		.4byte	0x183f
 3128 1817 2C       		.uleb128 0x2c
 3129 1818 16000000 		.4byte	.LVL8
 3130 181c F0180000 		.4byte	0x18f0
 3131 1820 2D       		.uleb128 0x2d
 3132 1821 01       		.uleb128 0x1
 3133 1822 52       		.byte	0x52
 3134 1823 03       		.uleb128 0x3
 3135 1824 F3       		.byte	0xf3
ARM GAS  /tmp/ccEcHKKd.s 			page 56


 3136 1825 01       		.uleb128 0x1
 3137 1826 51       		.byte	0x51
 3138 1827 00       		.byte	0
 3139 1828 00       		.byte	0
 3140 1829 0B       		.uleb128 0xb
 3141 182a 04       		.byte	0x4
 3142 182b 170B0000 		.4byte	0xb17
 3143 182f 13       		.uleb128 0x13
 3144 1830 99060000 		.4byte	0x699
 3145 1834 3F180000 		.4byte	0x183f
 3146 1838 14       		.uleb128 0x14
 3147 1839 81030000 		.4byte	0x381
 3148 183d 0D       		.byte	0xd
 3149 183e 00       		.byte	0
 3150 183f 06       		.uleb128 0x6
 3151 1840 2F180000 		.4byte	0x182f
 3152 1844 26       		.uleb128 0x26
 3153 1845 0F0D0000 		.4byte	.LASF310
 3154 1849 01       		.byte	0x1
 3155 184a 5A       		.byte	0x5a
 3156 184b 00000000 		.4byte	.LFB252
 3157 184f 1C000000 		.4byte	.LFE252-.LFB252
 3158 1853 01       		.uleb128 0x1
 3159 1854 9C       		.byte	0x9c
 3160 1855 94180000 		.4byte	0x1894
 3161 1859 28       		.uleb128 0x28
 3162 185a 62757300 		.ascii	"bus\000"
 3163 185e 01       		.byte	0x1
 3164 185f 5A       		.byte	0x5a
 3165 1860 29180000 		.4byte	0x1829
 3166 1864 01       		.uleb128 0x1
 3167 1865 50       		.byte	0x50
 3168 1866 27       		.uleb128 0x27
 3169 1867 E4080000 		.4byte	.LASF311
 3170 186b 01       		.byte	0x1
 3171 186c 5A       		.byte	0x5a
 3172 186d 860A0000 		.4byte	0xa86
 3173 1871 B5000000 		.4byte	.LLST1
 3174 1875 2B       		.uleb128 0x2b
 3175 1876 AA000000 		.4byte	.LASF312
 3176 187a A4180000 		.4byte	0x18a4
 3177 187e 2E       		.uleb128 0x2e
 3178 187f 02000000 		.4byte	.LBB2
 3179 1883 1A000000 		.4byte	.LBE2-.LBB2
 3180 1887 2F       		.uleb128 0x2f
 3181 1888 7700     		.ascii	"w\000"
 3182 188a 01       		.byte	0x1
 3183 188b 5E       		.byte	0x5e
 3184 188c E4000000 		.4byte	0xe4
 3185 1890 01       		.uleb128 0x1
 3186 1891 51       		.byte	0x51
 3187 1892 00       		.byte	0
 3188 1893 00       		.byte	0
 3189 1894 13       		.uleb128 0x13
 3190 1895 99060000 		.4byte	0x699
 3191 1899 A4180000 		.4byte	0x18a4
 3192 189d 14       		.uleb128 0x14
ARM GAS  /tmp/ccEcHKKd.s 			page 57


 3193 189e 81030000 		.4byte	0x381
 3194 18a2 0B       		.byte	0xb
 3195 18a3 00       		.byte	0
 3196 18a4 06       		.uleb128 0x6
 3197 18a5 94180000 		.4byte	0x1894
 3198 18a9 30       		.uleb128 0x30
 3199 18aa 190C0000 		.4byte	.LASF316
 3200 18ae 01       		.byte	0x1
 3201 18af 41       		.byte	0x41
 3202 18b0 860A0000 		.4byte	0xa86
 3203 18b4 00000000 		.4byte	.LFB251
 3204 18b8 0E000000 		.4byte	.LFE251-.LFB251
 3205 18bc 01       		.uleb128 0x1
 3206 18bd 9C       		.byte	0x9c
 3207 18be DB180000 		.4byte	0x18db
 3208 18c2 2A       		.uleb128 0x2a
 3209 18c3 62757300 		.ascii	"bus\000"
 3210 18c7 01       		.byte	0x1
 3211 18c8 41       		.byte	0x41
 3212 18c9 29180000 		.4byte	0x1829
 3213 18cd D6000000 		.4byte	.LLST0
 3214 18d1 2B       		.uleb128 0x2b
 3215 18d2 AA000000 		.4byte	.LASF312
 3216 18d6 EB180000 		.4byte	0x18eb
 3217 18da 00       		.byte	0
 3218 18db 13       		.uleb128 0x13
 3219 18dc 99060000 		.4byte	0x699
 3220 18e0 EB180000 		.4byte	0x18eb
 3221 18e4 14       		.uleb128 0x14
 3222 18e5 81030000 		.4byte	0x381
 3223 18e9 0A       		.byte	0xa
 3224 18ea 00       		.byte	0
 3225 18eb 06       		.uleb128 0x6
 3226 18ec DB180000 		.4byte	0x18db
 3227 18f0 31       		.uleb128 0x31
 3228 18f1 FC000000 		.4byte	.LASF317
 3229 18f5 FC000000 		.4byte	.LASF317
 3230 18f9 15       		.byte	0x15
 3231 18fa F301     		.2byte	0x1f3
 3232 18fc 00       		.byte	0
 3233              		.section	.debug_abbrev,"",%progbits
 3234              	.Ldebug_abbrev0:
 3235 0000 01       		.uleb128 0x1
 3236 0001 11       		.uleb128 0x11
 3237 0002 01       		.byte	0x1
 3238 0003 25       		.uleb128 0x25
 3239 0004 0E       		.uleb128 0xe
 3240 0005 13       		.uleb128 0x13
 3241 0006 0B       		.uleb128 0xb
 3242 0007 03       		.uleb128 0x3
 3243 0008 0E       		.uleb128 0xe
 3244 0009 1B       		.uleb128 0x1b
 3245 000a 0E       		.uleb128 0xe
 3246 000b 55       		.uleb128 0x55
 3247 000c 17       		.uleb128 0x17
 3248 000d 11       		.uleb128 0x11
 3249 000e 01       		.uleb128 0x1
ARM GAS  /tmp/ccEcHKKd.s 			page 58


 3250 000f 10       		.uleb128 0x10
 3251 0010 17       		.uleb128 0x17
 3252 0011 00       		.byte	0
 3253 0012 00       		.byte	0
 3254 0013 02       		.uleb128 0x2
 3255 0014 24       		.uleb128 0x24
 3256 0015 00       		.byte	0
 3257 0016 0B       		.uleb128 0xb
 3258 0017 0B       		.uleb128 0xb
 3259 0018 3E       		.uleb128 0x3e
 3260 0019 0B       		.uleb128 0xb
 3261 001a 03       		.uleb128 0x3
 3262 001b 08       		.uleb128 0x8
 3263 001c 00       		.byte	0
 3264 001d 00       		.byte	0
 3265 001e 03       		.uleb128 0x3
 3266 001f 16       		.uleb128 0x16
 3267 0020 00       		.byte	0
 3268 0021 03       		.uleb128 0x3
 3269 0022 0E       		.uleb128 0xe
 3270 0023 3A       		.uleb128 0x3a
 3271 0024 0B       		.uleb128 0xb
 3272 0025 3B       		.uleb128 0x3b
 3273 0026 0B       		.uleb128 0xb
 3274 0027 49       		.uleb128 0x49
 3275 0028 13       		.uleb128 0x13
 3276 0029 00       		.byte	0
 3277 002a 00       		.byte	0
 3278 002b 04       		.uleb128 0x4
 3279 002c 35       		.uleb128 0x35
 3280 002d 00       		.byte	0
 3281 002e 49       		.uleb128 0x49
 3282 002f 13       		.uleb128 0x13
 3283 0030 00       		.byte	0
 3284 0031 00       		.byte	0
 3285 0032 05       		.uleb128 0x5
 3286 0033 24       		.uleb128 0x24
 3287 0034 00       		.byte	0
 3288 0035 0B       		.uleb128 0xb
 3289 0036 0B       		.uleb128 0xb
 3290 0037 3E       		.uleb128 0x3e
 3291 0038 0B       		.uleb128 0xb
 3292 0039 03       		.uleb128 0x3
 3293 003a 0E       		.uleb128 0xe
 3294 003b 00       		.byte	0
 3295 003c 00       		.byte	0
 3296 003d 06       		.uleb128 0x6
 3297 003e 26       		.uleb128 0x26
 3298 003f 00       		.byte	0
 3299 0040 49       		.uleb128 0x49
 3300 0041 13       		.uleb128 0x13
 3301 0042 00       		.byte	0
 3302 0043 00       		.byte	0
 3303 0044 07       		.uleb128 0x7
 3304 0045 13       		.uleb128 0x13
 3305 0046 01       		.byte	0x1
 3306 0047 03       		.uleb128 0x3
ARM GAS  /tmp/ccEcHKKd.s 			page 59


 3307 0048 0E       		.uleb128 0xe
 3308 0049 0B       		.uleb128 0xb
 3309 004a 0B       		.uleb128 0xb
 3310 004b 3A       		.uleb128 0x3a
 3311 004c 0B       		.uleb128 0xb
 3312 004d 3B       		.uleb128 0x3b
 3313 004e 0B       		.uleb128 0xb
 3314 004f 01       		.uleb128 0x1
 3315 0050 13       		.uleb128 0x13
 3316 0051 00       		.byte	0
 3317 0052 00       		.byte	0
 3318 0053 08       		.uleb128 0x8
 3319 0054 0D       		.uleb128 0xd
 3320 0055 00       		.byte	0
 3321 0056 03       		.uleb128 0x3
 3322 0057 0E       		.uleb128 0xe
 3323 0058 3A       		.uleb128 0x3a
 3324 0059 0B       		.uleb128 0xb
 3325 005a 3B       		.uleb128 0x3b
 3326 005b 0B       		.uleb128 0xb
 3327 005c 49       		.uleb128 0x49
 3328 005d 13       		.uleb128 0x13
 3329 005e 38       		.uleb128 0x38
 3330 005f 0B       		.uleb128 0xb
 3331 0060 00       		.byte	0
 3332 0061 00       		.byte	0
 3333 0062 09       		.uleb128 0x9
 3334 0063 0D       		.uleb128 0xd
 3335 0064 00       		.byte	0
 3336 0065 03       		.uleb128 0x3
 3337 0066 08       		.uleb128 0x8
 3338 0067 3A       		.uleb128 0x3a
 3339 0068 0B       		.uleb128 0xb
 3340 0069 3B       		.uleb128 0x3b
 3341 006a 0B       		.uleb128 0xb
 3342 006b 49       		.uleb128 0x49
 3343 006c 13       		.uleb128 0x13
 3344 006d 38       		.uleb128 0x38
 3345 006e 0B       		.uleb128 0xb
 3346 006f 00       		.byte	0
 3347 0070 00       		.byte	0
 3348 0071 0A       		.uleb128 0xa
 3349 0072 0D       		.uleb128 0xd
 3350 0073 00       		.byte	0
 3351 0074 03       		.uleb128 0x3
 3352 0075 08       		.uleb128 0x8
 3353 0076 3A       		.uleb128 0x3a
 3354 0077 0B       		.uleb128 0xb
 3355 0078 3B       		.uleb128 0x3b
 3356 0079 05       		.uleb128 0x5
 3357 007a 49       		.uleb128 0x49
 3358 007b 13       		.uleb128 0x13
 3359 007c 38       		.uleb128 0x38
 3360 007d 0B       		.uleb128 0xb
 3361 007e 00       		.byte	0
 3362 007f 00       		.byte	0
 3363 0080 0B       		.uleb128 0xb
ARM GAS  /tmp/ccEcHKKd.s 			page 60


 3364 0081 0F       		.uleb128 0xf
 3365 0082 00       		.byte	0
 3366 0083 0B       		.uleb128 0xb
 3367 0084 0B       		.uleb128 0xb
 3368 0085 49       		.uleb128 0x49
 3369 0086 13       		.uleb128 0x13
 3370 0087 00       		.byte	0
 3371 0088 00       		.byte	0
 3372 0089 0C       		.uleb128 0xc
 3373 008a 13       		.uleb128 0x13
 3374 008b 01       		.byte	0x1
 3375 008c 03       		.uleb128 0x3
 3376 008d 0E       		.uleb128 0xe
 3377 008e 0B       		.uleb128 0xb
 3378 008f 0B       		.uleb128 0xb
 3379 0090 3A       		.uleb128 0x3a
 3380 0091 0B       		.uleb128 0xb
 3381 0092 3B       		.uleb128 0x3b
 3382 0093 05       		.uleb128 0x5
 3383 0094 01       		.uleb128 0x1
 3384 0095 13       		.uleb128 0x13
 3385 0096 00       		.byte	0
 3386 0097 00       		.byte	0
 3387 0098 0D       		.uleb128 0xd
 3388 0099 0D       		.uleb128 0xd
 3389 009a 00       		.byte	0
 3390 009b 03       		.uleb128 0x3
 3391 009c 0E       		.uleb128 0xe
 3392 009d 3A       		.uleb128 0x3a
 3393 009e 0B       		.uleb128 0xb
 3394 009f 3B       		.uleb128 0x3b
 3395 00a0 05       		.uleb128 0x5
 3396 00a1 49       		.uleb128 0x49
 3397 00a2 13       		.uleb128 0x13
 3398 00a3 38       		.uleb128 0x38
 3399 00a4 0B       		.uleb128 0xb
 3400 00a5 00       		.byte	0
 3401 00a6 00       		.byte	0
 3402 00a7 0E       		.uleb128 0xe
 3403 00a8 15       		.uleb128 0x15
 3404 00a9 01       		.byte	0x1
 3405 00aa 27       		.uleb128 0x27
 3406 00ab 19       		.uleb128 0x19
 3407 00ac 01       		.uleb128 0x1
 3408 00ad 13       		.uleb128 0x13
 3409 00ae 00       		.byte	0
 3410 00af 00       		.byte	0
 3411 00b0 0F       		.uleb128 0xf
 3412 00b1 05       		.uleb128 0x5
 3413 00b2 00       		.byte	0
 3414 00b3 49       		.uleb128 0x49
 3415 00b4 13       		.uleb128 0x13
 3416 00b5 00       		.byte	0
 3417 00b6 00       		.byte	0
 3418 00b7 10       		.uleb128 0x10
 3419 00b8 0F       		.uleb128 0xf
 3420 00b9 00       		.byte	0
ARM GAS  /tmp/ccEcHKKd.s 			page 61


 3421 00ba 0B       		.uleb128 0xb
 3422 00bb 0B       		.uleb128 0xb
 3423 00bc 00       		.byte	0
 3424 00bd 00       		.byte	0
 3425 00be 11       		.uleb128 0x11
 3426 00bf 34       		.uleb128 0x34
 3427 00c0 00       		.byte	0
 3428 00c1 03       		.uleb128 0x3
 3429 00c2 0E       		.uleb128 0xe
 3430 00c3 3A       		.uleb128 0x3a
 3431 00c4 0B       		.uleb128 0xb
 3432 00c5 3B       		.uleb128 0x3b
 3433 00c6 05       		.uleb128 0x5
 3434 00c7 49       		.uleb128 0x49
 3435 00c8 13       		.uleb128 0x13
 3436 00c9 3F       		.uleb128 0x3f
 3437 00ca 19       		.uleb128 0x19
 3438 00cb 3C       		.uleb128 0x3c
 3439 00cc 19       		.uleb128 0x19
 3440 00cd 00       		.byte	0
 3441 00ce 00       		.byte	0
 3442 00cf 12       		.uleb128 0x12
 3443 00d0 34       		.uleb128 0x34
 3444 00d1 00       		.byte	0
 3445 00d2 03       		.uleb128 0x3
 3446 00d3 0E       		.uleb128 0xe
 3447 00d4 3A       		.uleb128 0x3a
 3448 00d5 0B       		.uleb128 0xb
 3449 00d6 3B       		.uleb128 0x3b
 3450 00d7 0B       		.uleb128 0xb
 3451 00d8 49       		.uleb128 0x49
 3452 00d9 13       		.uleb128 0x13
 3453 00da 3F       		.uleb128 0x3f
 3454 00db 19       		.uleb128 0x19
 3455 00dc 3C       		.uleb128 0x3c
 3456 00dd 19       		.uleb128 0x19
 3457 00de 00       		.byte	0
 3458 00df 00       		.byte	0
 3459 00e0 13       		.uleb128 0x13
 3460 00e1 01       		.uleb128 0x1
 3461 00e2 01       		.byte	0x1
 3462 00e3 49       		.uleb128 0x49
 3463 00e4 13       		.uleb128 0x13
 3464 00e5 01       		.uleb128 0x1
 3465 00e6 13       		.uleb128 0x13
 3466 00e7 00       		.byte	0
 3467 00e8 00       		.byte	0
 3468 00e9 14       		.uleb128 0x14
 3469 00ea 21       		.uleb128 0x21
 3470 00eb 00       		.byte	0
 3471 00ec 49       		.uleb128 0x49
 3472 00ed 13       		.uleb128 0x13
 3473 00ee 2F       		.uleb128 0x2f
 3474 00ef 0B       		.uleb128 0xb
 3475 00f0 00       		.byte	0
 3476 00f1 00       		.byte	0
 3477 00f2 15       		.uleb128 0x15
ARM GAS  /tmp/ccEcHKKd.s 			page 62


 3478 00f3 13       		.uleb128 0x13
 3479 00f4 01       		.byte	0x1
 3480 00f5 0B       		.uleb128 0xb
 3481 00f6 0B       		.uleb128 0xb
 3482 00f7 3A       		.uleb128 0x3a
 3483 00f8 0B       		.uleb128 0xb
 3484 00f9 3B       		.uleb128 0x3b
 3485 00fa 05       		.uleb128 0x5
 3486 00fb 01       		.uleb128 0x1
 3487 00fc 13       		.uleb128 0x13
 3488 00fd 00       		.byte	0
 3489 00fe 00       		.byte	0
 3490 00ff 16       		.uleb128 0x16
 3491 0100 16       		.uleb128 0x16
 3492 0101 00       		.byte	0
 3493 0102 03       		.uleb128 0x3
 3494 0103 0E       		.uleb128 0xe
 3495 0104 3A       		.uleb128 0x3a
 3496 0105 0B       		.uleb128 0xb
 3497 0106 3B       		.uleb128 0x3b
 3498 0107 05       		.uleb128 0x5
 3499 0108 49       		.uleb128 0x49
 3500 0109 13       		.uleb128 0x13
 3501 010a 00       		.byte	0
 3502 010b 00       		.byte	0
 3503 010c 17       		.uleb128 0x17
 3504 010d 17       		.uleb128 0x17
 3505 010e 01       		.byte	0x1
 3506 010f 0B       		.uleb128 0xb
 3507 0110 0B       		.uleb128 0xb
 3508 0111 3A       		.uleb128 0x3a
 3509 0112 0B       		.uleb128 0xb
 3510 0113 3B       		.uleb128 0x3b
 3511 0114 0B       		.uleb128 0xb
 3512 0115 01       		.uleb128 0x1
 3513 0116 13       		.uleb128 0x13
 3514 0117 00       		.byte	0
 3515 0118 00       		.byte	0
 3516 0119 18       		.uleb128 0x18
 3517 011a 0D       		.uleb128 0xd
 3518 011b 00       		.byte	0
 3519 011c 03       		.uleb128 0x3
 3520 011d 0E       		.uleb128 0xe
 3521 011e 3A       		.uleb128 0x3a
 3522 011f 0B       		.uleb128 0xb
 3523 0120 3B       		.uleb128 0x3b
 3524 0121 0B       		.uleb128 0xb
 3525 0122 49       		.uleb128 0x49
 3526 0123 13       		.uleb128 0x13
 3527 0124 00       		.byte	0
 3528 0125 00       		.byte	0
 3529 0126 19       		.uleb128 0x19
 3530 0127 34       		.uleb128 0x34
 3531 0128 00       		.byte	0
 3532 0129 03       		.uleb128 0x3
 3533 012a 08       		.uleb128 0x8
 3534 012b 3A       		.uleb128 0x3a
ARM GAS  /tmp/ccEcHKKd.s 			page 63


 3535 012c 0B       		.uleb128 0xb
 3536 012d 3B       		.uleb128 0x3b
 3537 012e 05       		.uleb128 0x5
 3538 012f 49       		.uleb128 0x49
 3539 0130 13       		.uleb128 0x13
 3540 0131 3F       		.uleb128 0x3f
 3541 0132 19       		.uleb128 0x19
 3542 0133 3C       		.uleb128 0x3c
 3543 0134 19       		.uleb128 0x19
 3544 0135 00       		.byte	0
 3545 0136 00       		.byte	0
 3546 0137 1A       		.uleb128 0x1a
 3547 0138 21       		.uleb128 0x21
 3548 0139 00       		.byte	0
 3549 013a 00       		.byte	0
 3550 013b 00       		.byte	0
 3551 013c 1B       		.uleb128 0x1b
 3552 013d 15       		.uleb128 0x15
 3553 013e 01       		.byte	0x1
 3554 013f 27       		.uleb128 0x27
 3555 0140 19       		.uleb128 0x19
 3556 0141 49       		.uleb128 0x49
 3557 0142 13       		.uleb128 0x13
 3558 0143 01       		.uleb128 0x1
 3559 0144 13       		.uleb128 0x13
 3560 0145 00       		.byte	0
 3561 0146 00       		.byte	0
 3562 0147 1C       		.uleb128 0x1c
 3563 0148 13       		.uleb128 0x13
 3564 0149 01       		.byte	0x1
 3565 014a 0B       		.uleb128 0xb
 3566 014b 0B       		.uleb128 0xb
 3567 014c 3A       		.uleb128 0x3a
 3568 014d 0B       		.uleb128 0xb
 3569 014e 3B       		.uleb128 0x3b
 3570 014f 0B       		.uleb128 0xb
 3571 0150 01       		.uleb128 0x1
 3572 0151 13       		.uleb128 0x13
 3573 0152 00       		.byte	0
 3574 0153 00       		.byte	0
 3575 0154 1D       		.uleb128 0x1d
 3576 0155 0D       		.uleb128 0xd
 3577 0156 00       		.byte	0
 3578 0157 03       		.uleb128 0x3
 3579 0158 08       		.uleb128 0x8
 3580 0159 3A       		.uleb128 0x3a
 3581 015a 0B       		.uleb128 0xb
 3582 015b 3B       		.uleb128 0x3b
 3583 015c 0B       		.uleb128 0xb
 3584 015d 49       		.uleb128 0x49
 3585 015e 13       		.uleb128 0x13
 3586 015f 00       		.byte	0
 3587 0160 00       		.byte	0
 3588 0161 1E       		.uleb128 0x1e
 3589 0162 04       		.uleb128 0x4
 3590 0163 01       		.byte	0x1
 3591 0164 0B       		.uleb128 0xb
ARM GAS  /tmp/ccEcHKKd.s 			page 64


 3592 0165 0B       		.uleb128 0xb
 3593 0166 49       		.uleb128 0x49
 3594 0167 13       		.uleb128 0x13
 3595 0168 3A       		.uleb128 0x3a
 3596 0169 0B       		.uleb128 0xb
 3597 016a 3B       		.uleb128 0x3b
 3598 016b 0B       		.uleb128 0xb
 3599 016c 01       		.uleb128 0x1
 3600 016d 13       		.uleb128 0x13
 3601 016e 00       		.byte	0
 3602 016f 00       		.byte	0
 3603 0170 1F       		.uleb128 0x1f
 3604 0171 28       		.uleb128 0x28
 3605 0172 00       		.byte	0
 3606 0173 03       		.uleb128 0x3
 3607 0174 0E       		.uleb128 0xe
 3608 0175 1C       		.uleb128 0x1c
 3609 0176 0B       		.uleb128 0xb
 3610 0177 00       		.byte	0
 3611 0178 00       		.byte	0
 3612 0179 20       		.uleb128 0x20
 3613 017a 13       		.uleb128 0x13
 3614 017b 01       		.byte	0x1
 3615 017c 03       		.uleb128 0x3
 3616 017d 0E       		.uleb128 0xe
 3617 017e 0B       		.uleb128 0xb
 3618 017f 05       		.uleb128 0x5
 3619 0180 3A       		.uleb128 0x3a
 3620 0181 0B       		.uleb128 0xb
 3621 0182 3B       		.uleb128 0x3b
 3622 0183 0B       		.uleb128 0xb
 3623 0184 01       		.uleb128 0x1
 3624 0185 13       		.uleb128 0x13
 3625 0186 00       		.byte	0
 3626 0187 00       		.byte	0
 3627 0188 21       		.uleb128 0x21
 3628 0189 0D       		.uleb128 0xd
 3629 018a 00       		.byte	0
 3630 018b 03       		.uleb128 0x3
 3631 018c 08       		.uleb128 0x8
 3632 018d 3A       		.uleb128 0x3a
 3633 018e 0B       		.uleb128 0xb
 3634 018f 3B       		.uleb128 0x3b
 3635 0190 0B       		.uleb128 0xb
 3636 0191 49       		.uleb128 0x49
 3637 0192 13       		.uleb128 0x13
 3638 0193 38       		.uleb128 0x38
 3639 0194 05       		.uleb128 0x5
 3640 0195 00       		.byte	0
 3641 0196 00       		.byte	0
 3642 0197 22       		.uleb128 0x22
 3643 0198 0D       		.uleb128 0xd
 3644 0199 00       		.byte	0
 3645 019a 03       		.uleb128 0x3
 3646 019b 0E       		.uleb128 0xe
 3647 019c 3A       		.uleb128 0x3a
 3648 019d 0B       		.uleb128 0xb
ARM GAS  /tmp/ccEcHKKd.s 			page 65


 3649 019e 3B       		.uleb128 0x3b
 3650 019f 0B       		.uleb128 0xb
 3651 01a0 49       		.uleb128 0x49
 3652 01a1 13       		.uleb128 0x13
 3653 01a2 38       		.uleb128 0x38
 3654 01a3 05       		.uleb128 0x5
 3655 01a4 00       		.byte	0
 3656 01a5 00       		.byte	0
 3657 01a6 23       		.uleb128 0x23
 3658 01a7 21       		.uleb128 0x21
 3659 01a8 00       		.byte	0
 3660 01a9 49       		.uleb128 0x49
 3661 01aa 13       		.uleb128 0x13
 3662 01ab 2F       		.uleb128 0x2f
 3663 01ac 05       		.uleb128 0x5
 3664 01ad 00       		.byte	0
 3665 01ae 00       		.byte	0
 3666 01af 24       		.uleb128 0x24
 3667 01b0 04       		.uleb128 0x4
 3668 01b1 01       		.byte	0x1
 3669 01b2 0B       		.uleb128 0xb
 3670 01b3 0B       		.uleb128 0xb
 3671 01b4 49       		.uleb128 0x49
 3672 01b5 13       		.uleb128 0x13
 3673 01b6 3A       		.uleb128 0x3a
 3674 01b7 0B       		.uleb128 0xb
 3675 01b8 3B       		.uleb128 0x3b
 3676 01b9 05       		.uleb128 0x5
 3677 01ba 01       		.uleb128 0x1
 3678 01bb 13       		.uleb128 0x13
 3679 01bc 00       		.byte	0
 3680 01bd 00       		.byte	0
 3681 01be 25       		.uleb128 0x25
 3682 01bf 13       		.uleb128 0x13
 3683 01c0 01       		.byte	0x1
 3684 01c1 0B       		.uleb128 0xb
 3685 01c2 06       		.uleb128 0x6
 3686 01c3 3A       		.uleb128 0x3a
 3687 01c4 0B       		.uleb128 0xb
 3688 01c5 3B       		.uleb128 0x3b
 3689 01c6 0B       		.uleb128 0xb
 3690 01c7 01       		.uleb128 0x1
 3691 01c8 13       		.uleb128 0x13
 3692 01c9 00       		.byte	0
 3693 01ca 00       		.byte	0
 3694 01cb 26       		.uleb128 0x26
 3695 01cc 2E       		.uleb128 0x2e
 3696 01cd 01       		.byte	0x1
 3697 01ce 3F       		.uleb128 0x3f
 3698 01cf 19       		.uleb128 0x19
 3699 01d0 03       		.uleb128 0x3
 3700 01d1 0E       		.uleb128 0xe
 3701 01d2 3A       		.uleb128 0x3a
 3702 01d3 0B       		.uleb128 0xb
 3703 01d4 3B       		.uleb128 0x3b
 3704 01d5 0B       		.uleb128 0xb
 3705 01d6 27       		.uleb128 0x27
ARM GAS  /tmp/ccEcHKKd.s 			page 66


 3706 01d7 19       		.uleb128 0x19
 3707 01d8 11       		.uleb128 0x11
 3708 01d9 01       		.uleb128 0x1
 3709 01da 12       		.uleb128 0x12
 3710 01db 06       		.uleb128 0x6
 3711 01dc 40       		.uleb128 0x40
 3712 01dd 18       		.uleb128 0x18
 3713 01de 9742     		.uleb128 0x2117
 3714 01e0 19       		.uleb128 0x19
 3715 01e1 01       		.uleb128 0x1
 3716 01e2 13       		.uleb128 0x13
 3717 01e3 00       		.byte	0
 3718 01e4 00       		.byte	0
 3719 01e5 27       		.uleb128 0x27
 3720 01e6 05       		.uleb128 0x5
 3721 01e7 00       		.byte	0
 3722 01e8 03       		.uleb128 0x3
 3723 01e9 0E       		.uleb128 0xe
 3724 01ea 3A       		.uleb128 0x3a
 3725 01eb 0B       		.uleb128 0xb
 3726 01ec 3B       		.uleb128 0x3b
 3727 01ed 0B       		.uleb128 0xb
 3728 01ee 49       		.uleb128 0x49
 3729 01ef 13       		.uleb128 0x13
 3730 01f0 02       		.uleb128 0x2
 3731 01f1 17       		.uleb128 0x17
 3732 01f2 00       		.byte	0
 3733 01f3 00       		.byte	0
 3734 01f4 28       		.uleb128 0x28
 3735 01f5 05       		.uleb128 0x5
 3736 01f6 00       		.byte	0
 3737 01f7 03       		.uleb128 0x3
 3738 01f8 08       		.uleb128 0x8
 3739 01f9 3A       		.uleb128 0x3a
 3740 01fa 0B       		.uleb128 0xb
 3741 01fb 3B       		.uleb128 0x3b
 3742 01fc 0B       		.uleb128 0xb
 3743 01fd 49       		.uleb128 0x49
 3744 01fe 13       		.uleb128 0x13
 3745 01ff 02       		.uleb128 0x2
 3746 0200 18       		.uleb128 0x18
 3747 0201 00       		.byte	0
 3748 0202 00       		.byte	0
 3749 0203 29       		.uleb128 0x29
 3750 0204 34       		.uleb128 0x34
 3751 0205 00       		.byte	0
 3752 0206 03       		.uleb128 0x3
 3753 0207 08       		.uleb128 0x8
 3754 0208 3A       		.uleb128 0x3a
 3755 0209 0B       		.uleb128 0xb
 3756 020a 3B       		.uleb128 0x3b
 3757 020b 0B       		.uleb128 0xb
 3758 020c 49       		.uleb128 0x49
 3759 020d 13       		.uleb128 0x13
 3760 020e 02       		.uleb128 0x2
 3761 020f 17       		.uleb128 0x17
 3762 0210 00       		.byte	0
ARM GAS  /tmp/ccEcHKKd.s 			page 67


 3763 0211 00       		.byte	0
 3764 0212 2A       		.uleb128 0x2a
 3765 0213 05       		.uleb128 0x5
 3766 0214 00       		.byte	0
 3767 0215 03       		.uleb128 0x3
 3768 0216 08       		.uleb128 0x8
 3769 0217 3A       		.uleb128 0x3a
 3770 0218 0B       		.uleb128 0xb
 3771 0219 3B       		.uleb128 0x3b
 3772 021a 0B       		.uleb128 0xb
 3773 021b 49       		.uleb128 0x49
 3774 021c 13       		.uleb128 0x13
 3775 021d 02       		.uleb128 0x2
 3776 021e 17       		.uleb128 0x17
 3777 021f 00       		.byte	0
 3778 0220 00       		.byte	0
 3779 0221 2B       		.uleb128 0x2b
 3780 0222 34       		.uleb128 0x34
 3781 0223 00       		.byte	0
 3782 0224 03       		.uleb128 0x3
 3783 0225 0E       		.uleb128 0xe
 3784 0226 49       		.uleb128 0x49
 3785 0227 13       		.uleb128 0x13
 3786 0228 34       		.uleb128 0x34
 3787 0229 19       		.uleb128 0x19
 3788 022a 00       		.byte	0
 3789 022b 00       		.byte	0
 3790 022c 2C       		.uleb128 0x2c
 3791 022d 898201   		.uleb128 0x4109
 3792 0230 01       		.byte	0x1
 3793 0231 11       		.uleb128 0x11
 3794 0232 01       		.uleb128 0x1
 3795 0233 9542     		.uleb128 0x2115
 3796 0235 19       		.uleb128 0x19
 3797 0236 31       		.uleb128 0x31
 3798 0237 13       		.uleb128 0x13
 3799 0238 00       		.byte	0
 3800 0239 00       		.byte	0
 3801 023a 2D       		.uleb128 0x2d
 3802 023b 8A8201   		.uleb128 0x410a
 3803 023e 00       		.byte	0
 3804 023f 02       		.uleb128 0x2
 3805 0240 18       		.uleb128 0x18
 3806 0241 9142     		.uleb128 0x2111
 3807 0243 18       		.uleb128 0x18
 3808 0244 00       		.byte	0
 3809 0245 00       		.byte	0
 3810 0246 2E       		.uleb128 0x2e
 3811 0247 0B       		.uleb128 0xb
 3812 0248 01       		.byte	0x1
 3813 0249 11       		.uleb128 0x11
 3814 024a 01       		.uleb128 0x1
 3815 024b 12       		.uleb128 0x12
 3816 024c 06       		.uleb128 0x6
 3817 024d 00       		.byte	0
 3818 024e 00       		.byte	0
 3819 024f 2F       		.uleb128 0x2f
ARM GAS  /tmp/ccEcHKKd.s 			page 68


 3820 0250 34       		.uleb128 0x34
 3821 0251 00       		.byte	0
 3822 0252 03       		.uleb128 0x3
 3823 0253 08       		.uleb128 0x8
 3824 0254 3A       		.uleb128 0x3a
 3825 0255 0B       		.uleb128 0xb
 3826 0256 3B       		.uleb128 0x3b
 3827 0257 0B       		.uleb128 0xb
 3828 0258 49       		.uleb128 0x49
 3829 0259 13       		.uleb128 0x13
 3830 025a 02       		.uleb128 0x2
 3831 025b 18       		.uleb128 0x18
 3832 025c 00       		.byte	0
 3833 025d 00       		.byte	0
 3834 025e 30       		.uleb128 0x30
 3835 025f 2E       		.uleb128 0x2e
 3836 0260 01       		.byte	0x1
 3837 0261 3F       		.uleb128 0x3f
 3838 0262 19       		.uleb128 0x19
 3839 0263 03       		.uleb128 0x3
 3840 0264 0E       		.uleb128 0xe
 3841 0265 3A       		.uleb128 0x3a
 3842 0266 0B       		.uleb128 0xb
 3843 0267 3B       		.uleb128 0x3b
 3844 0268 0B       		.uleb128 0xb
 3845 0269 27       		.uleb128 0x27
 3846 026a 19       		.uleb128 0x19
 3847 026b 49       		.uleb128 0x49
 3848 026c 13       		.uleb128 0x13
 3849 026d 11       		.uleb128 0x11
 3850 026e 01       		.uleb128 0x1
 3851 026f 12       		.uleb128 0x12
 3852 0270 06       		.uleb128 0x6
 3853 0271 40       		.uleb128 0x40
 3854 0272 18       		.uleb128 0x18
 3855 0273 9742     		.uleb128 0x2117
 3856 0275 19       		.uleb128 0x19
 3857 0276 01       		.uleb128 0x1
 3858 0277 13       		.uleb128 0x13
 3859 0278 00       		.byte	0
 3860 0279 00       		.byte	0
 3861 027a 31       		.uleb128 0x31
 3862 027b 2E       		.uleb128 0x2e
 3863 027c 00       		.byte	0
 3864 027d 3F       		.uleb128 0x3f
 3865 027e 19       		.uleb128 0x19
 3866 027f 3C       		.uleb128 0x3c
 3867 0280 19       		.uleb128 0x19
 3868 0281 6E       		.uleb128 0x6e
 3869 0282 0E       		.uleb128 0xe
 3870 0283 03       		.uleb128 0x3
 3871 0284 0E       		.uleb128 0xe
 3872 0285 3A       		.uleb128 0x3a
 3873 0286 0B       		.uleb128 0xb
 3874 0287 3B       		.uleb128 0x3b
 3875 0288 05       		.uleb128 0x5
 3876 0289 00       		.byte	0
ARM GAS  /tmp/ccEcHKKd.s 			page 69


 3877 028a 00       		.byte	0
 3878 028b 00       		.byte	0
 3879              		.section	.debug_loc,"",%progbits
 3880              	.Ldebug_loc0:
 3881              	.LLST6:
 3882 0000 00000000 		.4byte	.LVL12
 3883 0004 04000000 		.4byte	.LVL13
 3884 0008 0100     		.2byte	0x1
 3885 000a 50       		.byte	0x50
 3886 000b 04000000 		.4byte	.LVL13
 3887 000f 18000000 		.4byte	.LFE255
 3888 0013 0400     		.2byte	0x4
 3889 0015 F3       		.byte	0xf3
 3890 0016 01       		.uleb128 0x1
 3891 0017 50       		.byte	0x50
 3892 0018 9F       		.byte	0x9f
 3893 0019 00000000 		.4byte	0
 3894 001d 00000000 		.4byte	0
 3895              	.LLST7:
 3896 0021 0E000000 		.4byte	.LVL14
 3897 0025 18000000 		.4byte	.LFE255
 3898 0029 0100     		.2byte	0x1
 3899 002b 53       		.byte	0x53
 3900 002c 00000000 		.4byte	0
 3901 0030 00000000 		.4byte	0
 3902              	.LLST4:
 3903 0034 00000000 		.4byte	.LVL9
 3904 0038 02000000 		.4byte	.LVL10
 3905 003c 0100     		.2byte	0x1
 3906 003e 50       		.byte	0x50
 3907 003f 02000000 		.4byte	.LVL10
 3908 0043 14000000 		.4byte	.LFE254
 3909 0047 0400     		.2byte	0x4
 3910 0049 F3       		.byte	0xf3
 3911 004a 01       		.uleb128 0x1
 3912 004b 50       		.byte	0x50
 3913 004c 9F       		.byte	0x9f
 3914 004d 00000000 		.4byte	0
 3915 0051 00000000 		.4byte	0
 3916              	.LLST5:
 3917 0055 0A000000 		.4byte	.LVL11
 3918 0059 14000000 		.4byte	.LFE254
 3919 005d 0100     		.2byte	0x1
 3920 005f 50       		.byte	0x50
 3921 0060 00000000 		.4byte	0
 3922 0064 00000000 		.4byte	0
 3923              	.LLST2:
 3924 0068 00000000 		.4byte	.LVL5
 3925 006c 08000000 		.4byte	.LVL6
 3926 0070 0100     		.2byte	0x1
 3927 0072 50       		.byte	0x50
 3928 0073 08000000 		.4byte	.LVL6
 3929 0077 16000000 		.4byte	.LFE253
 3930 007b 0400     		.2byte	0x4
 3931 007d F3       		.byte	0xf3
 3932 007e 01       		.uleb128 0x1
 3933 007f 50       		.byte	0x50
ARM GAS  /tmp/ccEcHKKd.s 			page 70


 3934 0080 9F       		.byte	0x9f
 3935 0081 00000000 		.4byte	0
 3936 0085 00000000 		.4byte	0
 3937              	.LLST3:
 3938 0089 00000000 		.4byte	.LVL5
 3939 008d 0E000000 		.4byte	.LVL7
 3940 0091 0100     		.2byte	0x1
 3941 0093 51       		.byte	0x51
 3942 0094 0E000000 		.4byte	.LVL7
 3943 0098 15000000 		.4byte	.LVL8-1
 3944 009c 0100     		.2byte	0x1
 3945 009e 52       		.byte	0x52
 3946 009f 15000000 		.4byte	.LVL8-1
 3947 00a3 16000000 		.4byte	.LFE253
 3948 00a7 0400     		.2byte	0x4
 3949 00a9 F3       		.byte	0xf3
 3950 00aa 01       		.uleb128 0x1
 3951 00ab 51       		.byte	0x51
 3952 00ac 9F       		.byte	0x9f
 3953 00ad 00000000 		.4byte	0
 3954 00b1 00000000 		.4byte	0
 3955              	.LLST1:
 3956 00b5 00000000 		.4byte	.LVL2
 3957 00b9 10000000 		.4byte	.LVL3
 3958 00bd 0100     		.2byte	0x1
 3959 00bf 51       		.byte	0x51
 3960 00c0 10000000 		.4byte	.LVL3
 3961 00c4 1C000000 		.4byte	.LFE252
 3962 00c8 0400     		.2byte	0x4
 3963 00ca F3       		.byte	0xf3
 3964 00cb 01       		.uleb128 0x1
 3965 00cc 51       		.byte	0x51
 3966 00cd 9F       		.byte	0x9f
 3967 00ce 00000000 		.4byte	0
 3968 00d2 00000000 		.4byte	0
 3969              	.LLST0:
 3970 00d6 00000000 		.4byte	.LVL0
 3971 00da 08000000 		.4byte	.LVL1
 3972 00de 0100     		.2byte	0x1
 3973 00e0 50       		.byte	0x50
 3974 00e1 08000000 		.4byte	.LVL1
 3975 00e5 0E000000 		.4byte	.LFE251
 3976 00e9 0400     		.2byte	0x4
 3977 00eb F3       		.byte	0xf3
 3978 00ec 01       		.uleb128 0x1
 3979 00ed 50       		.byte	0x50
 3980 00ee 9F       		.byte	0x9f
 3981 00ef 00000000 		.4byte	0
 3982 00f3 00000000 		.4byte	0
 3983              		.section	.debug_aranges,"",%progbits
 3984 0000 3C000000 		.4byte	0x3c
 3985 0004 0200     		.2byte	0x2
 3986 0006 00000000 		.4byte	.Ldebug_info0
 3987 000a 04       		.byte	0x4
 3988 000b 00       		.byte	0
 3989 000c 0000     		.2byte	0
 3990 000e 0000     		.2byte	0
ARM GAS  /tmp/ccEcHKKd.s 			page 71


 3991 0010 00000000 		.4byte	.LFB251
 3992 0014 0E000000 		.4byte	.LFE251-.LFB251
 3993 0018 00000000 		.4byte	.LFB252
 3994 001c 1C000000 		.4byte	.LFE252-.LFB252
 3995 0020 00000000 		.4byte	.LFB253
 3996 0024 16000000 		.4byte	.LFE253-.LFB253
 3997 0028 00000000 		.4byte	.LFB254
 3998 002c 14000000 		.4byte	.LFE254-.LFB254
 3999 0030 00000000 		.4byte	.LFB255
 4000 0034 18000000 		.4byte	.LFE255-.LFB255
 4001 0038 00000000 		.4byte	0
 4002 003c 00000000 		.4byte	0
 4003              		.section	.debug_ranges,"",%progbits
 4004              	.Ldebug_ranges0:
 4005 0000 00000000 		.4byte	.LFB251
 4006 0004 0E000000 		.4byte	.LFE251
 4007 0008 00000000 		.4byte	.LFB252
 4008 000c 1C000000 		.4byte	.LFE252
 4009 0010 00000000 		.4byte	.LFB253
 4010 0014 16000000 		.4byte	.LFE253
 4011 0018 00000000 		.4byte	.LFB254
 4012 001c 14000000 		.4byte	.LFE254
 4013 0020 00000000 		.4byte	.LFB255
 4014 0024 18000000 		.4byte	.LFE255
 4015 0028 00000000 		.4byte	0
 4016 002c 00000000 		.4byte	0
 4017              		.section	.debug_line,"",%progbits
 4018              	.Ldebug_line0:
 4019 0000 37050000 		.section	.debug_str,"MS",%progbits,1
 4019      0200D604 
 4019      00000201 
 4019      FB0E0D00 
 4019      01010101 
 4020              	.LASF66:
 4021 0000 4D314152 		.ascii	"M1AR\000"
 4021      00
 4022              	.LASF90:
 4023 0005 73746D33 		.ascii	"stm32_dma_stream_t\000"
 4023      325F646D 
 4023      615F7374 
 4023      7265616D 
 4023      5F7400
 4024              	.LASF4:
 4025 0018 73697A65 		.ascii	"size_t\000"
 4025      5F7400
 4026              	.LASF59:
 4027 001f 73697A65 		.ascii	"sizetype\000"
 4027      74797065 
 4027      00
 4028              	.LASF57:
 4029 0028 73797374 		.ascii	"systime_t\000"
 4029      696D655F 
 4029      7400
 4030              	.LASF24:
 4031 0032 74707269 		.ascii	"tprio_t\000"
 4031      6F5F7400 
 4032              	.LASF274:
ARM GAS  /tmp/ccEcHKKd.s 			page 72


 4033 003a 72785F66 		.ascii	"rx_fifo_size\000"
 4033      69666F5F 
 4033      73697A65 
 4033      00
 4034              	.LASF205:
 4035 0047 72657376 		.ascii	"resvd18\000"
 4035      64313800 
 4036              	.LASF18:
 4037 004f 696E7433 		.ascii	"int32_t\000"
 4037      325F7400 
 4038              	.LASF142:
 4039 0057 53657269 		.ascii	"SerialConfig\000"
 4039      616C436F 
 4039      6E666967 
 4039      00
 4040              	.LASF149:
 4041 0064 77726974 		.ascii	"writet\000"
 4041      657400
 4042              	.LASF209:
 4043 006b 72657376 		.ascii	"resvd4\000"
 4043      643400
 4044              	.LASF200:
 4045 0072 72657376 		.ascii	"resvd8\000"
 4045      643800
 4046              	.LASF41:
 4047 0079 76746675 		.ascii	"vtfunc_t\000"
 4047      6E635F74 
 4047      00
 4048              	.LASF211:
 4049 0082 72657376 		.ascii	"resvdC\000"
 4049      644300
 4050              	.LASF47:
 4051 0089 63685F76 		.ascii	"ch_virtual_timers_list\000"
 4051      69727475 
 4051      616C5F74 
 4051      696D6572 
 4051      735F6C69 
 4052              	.LASF154:
 4053 00a0 696E5F70 		.ascii	"in_params\000"
 4053      6172616D 
 4053      7300
 4054              	.LASF312:
 4055 00aa 5F5F6675 		.ascii	"__func__\000"
 4055      6E635F5F 
 4055      00
 4056              	.LASF145:
 4057 00b3 77726974 		.ascii	"write\000"
 4057      6500
 4058              	.LASF203:
 4059 00b9 48435453 		.ascii	"HCTSIZ\000"
 4059      495A00
 4060              	.LASF249:
 4061 00c0 72657376 		.ascii	"resvd700\000"
 4061      64373030 
 4061      00
 4062              	.LASF138:
 4063 00c9 636F6E66 		.ascii	"config\000"
ARM GAS  /tmp/ccEcHKKd.s 			page 73


 4063      696700
 4064              	.LASF30:
 4065 00d0 73746174 		.ascii	"state\000"
 4065      6500
 4066              	.LASF287:
 4067 00d6 65705F6D 		.ascii	"ep_mode\000"
 4067      6F646500 
 4068              	.LASF147:
 4069 00de 70757474 		.ascii	"putt\000"
 4069      00
 4070              	.LASF172:
 4071 00e3 5553425F 		.ascii	"USB_ACTIVE\000"
 4071      41435449 
 4071      564500
 4072              	.LASF29:
 4073 00ee 7072696F 		.ascii	"prio\000"
 4073      00
 4074              	.LASF119:
 4075 00f3 696F6D6F 		.ascii	"iomode_t\000"
 4075      64655F74 
 4075      00
 4076              	.LASF317:
 4077 00fc 5F70616C 		.ascii	"_pal_lld_setgroupmode\000"
 4077      5F6C6C64 
 4077      5F736574 
 4077      67726F75 
 4077      706D6F64 
 4078              	.LASF75:
 4079 0112 65786974 		.ascii	"exitcode\000"
 4079      636F6465 
 4079      00
 4080              	.LASF5:
 4081 011b 5F5F7569 		.ascii	"__uint8_t\000"
 4081      6E74385F 
 4081      7400
 4082              	.LASF98:
 4083 0125 715F746F 		.ascii	"q_top\000"
 4083      7000
 4084              	.LASF150:
 4085 012b 72656164 		.ascii	"readt\000"
 4085      7400
 4086              	.LASF97:
 4087 0131 715F6275 		.ascii	"q_buffer\000"
 4087      66666572 
 4087      00
 4088              	.LASF83:
 4089 013a 6576656E 		.ascii	"eventcallback_t\000"
 4089      7463616C 
 4089      6C626163 
 4089      6B5F7400 
 4090              	.LASF184:
 4091 014a 5553425F 		.ascii	"USB_EVENT_ADDRESS\000"
 4091      4556454E 
 4091      545F4144 
 4091      44524553 
 4091      5300
 4092              	.LASF230:
ARM GAS  /tmp/ccEcHKKd.s 			page 74


 4093 015c 44494550 		.ascii	"DIEPTXF0\000"
 4093      54584630 
 4093      00
 4094              	.LASF101:
 4095 0165 715F6E6F 		.ascii	"q_notify\000"
 4095      74696679 
 4095      00
 4096              	.LASF11:
 4097 016e 6C6F6E67 		.ascii	"long int\000"
 4097      20696E74 
 4097      00
 4098              	.LASF100:
 4099 0177 715F7264 		.ascii	"q_rdptr\000"
 4099      70747200 
 4100              	.LASF121:
 4101 017f 696F706F 		.ascii	"ioportid_t\000"
 4101      72746964 
 4101      5F7400
 4102              	.LASF23:
 4103 018a 74737461 		.ascii	"tstate_t\000"
 4103      74655F74 
 4103      00
 4104              	.LASF175:
 4105 0193 5553425F 		.ascii	"USB_EP0_STP_WAITING\000"
 4105      4550305F 
 4105      5354505F 
 4105      57414954 
 4105      494E4700 
 4106              	.LASF33:
 4107 01a7 74687265 		.ascii	"threads_queue_t\000"
 4107      6164735F 
 4107      71756575 
 4107      655F7400 
 4108              	.LASF135:
 4109 01b7 6F717565 		.ascii	"oqueue\000"
 4109      756500
 4110              	.LASF280:
 4111 01be 74786275 		.ascii	"txbuf\000"
 4111      6600
 4112              	.LASF70:
 4113 01c4 72656761 		.ascii	"regarm_t\000"
 4113      726D5F74 
 4113      00
 4114              	.LASF256:
 4115 01cd 4441494E 		.ascii	"DAINT\000"
 4115      5400
 4116              	.LASF255:
 4117 01d3 444F4550 		.ascii	"DOEPMSK\000"
 4117      4D534B00 
 4118              	.LASF314:
 4119 01db 2E2E2F2E 		.ascii	"../../modules/ChibiOS/os/hal/src/hal_pal.c\000"
 4119      2E2F6D6F 
 4119      64756C65 
 4119      732F4368 
 4119      6962694F 
 4120              	.LASF94:
 4121 0206 696F5F71 		.ascii	"io_queue\000"
ARM GAS  /tmp/ccEcHKKd.s 			page 75


 4121      75657565 
 4121      00
 4122              	.LASF173:
 4123 020f 5553425F 		.ascii	"USB_SUSPENDED\000"
 4123      53555350 
 4123      454E4445 
 4123      4400
 4124              	.LASF216:
 4125 021d 444F4550 		.ascii	"DOEPCTL\000"
 4125      43544C00 
 4126              	.LASF136:
 4127 0225 75736172 		.ascii	"usart\000"
 4127      7400
 4128              	.LASF3:
 4129 022b 7369676E 		.ascii	"signed char\000"
 4129      65642063 
 4129      68617200 
 4130              	.LASF16:
 4131 0237 75696E74 		.ascii	"uint8_t\000"
 4131      385F7400 
 4132              	.LASF189:
 4133 023f 5553425F 		.ascii	"USB_EVENT_STALLED\000"
 4133      4556454E 
 4133      545F5354 
 4133      414C4C45 
 4133      4400
 4134              	.LASF124:
 4135 0251 706F7274 		.ascii	"portid\000"
 4135      696400
 4136              	.LASF217:
 4137 0258 444F4550 		.ascii	"DOEPINT\000"
 4137      494E5400 
 4138              	.LASF283:
 4139 0260 72787369 		.ascii	"rxsize\000"
 4139      7A6500
 4140              	.LASF77:
 4141 0267 77747472 		.ascii	"wttrp\000"
 4141      7000
 4142              	.LASF6:
 4143 026d 756E7369 		.ascii	"unsigned char\000"
 4143      676E6564 
 4143      20636861 
 4143      7200
 4144              	.LASF181:
 4145 027b 5553425F 		.ascii	"USB_EP0_ERROR\000"
 4145      4550305F 
 4145      4552524F 
 4145      5200
 4146              	.LASF102:
 4147 0289 715F6C69 		.ascii	"q_link\000"
 4147      6E6B00
 4148              	.LASF48:
 4149 0290 6C617374 		.ascii	"lasttime\000"
 4149      74696D65 
 4149      00
 4150              	.LASF117:
 4151 0299 73746D33 		.ascii	"stm32_gpio_t\000"
ARM GAS  /tmp/ccEcHKKd.s 			page 76


 4151      325F6770 
 4151      696F5F74 
 4151      00
 4152              	.LASF51:
 4153 02a6 70616E69 		.ascii	"panic_msg\000"
 4153      635F6D73 
 4153      6700
 4154              	.LASF250:
 4155 02b0 44434647 		.ascii	"DCFG\000"
 4155      00
 4156              	.LASF268:
 4157 02b5 72657376 		.ascii	"resvd8C0\000"
 4157      64384330 
 4157      00
 4158              	.LASF234:
 4159 02be 47434346 		.ascii	"GCCFG\000"
 4159      4700
 4160              	.LASF156:
 4161 02c4 65703073 		.ascii	"ep0state\000"
 4161      74617465 
 4161      00
 4162              	.LASF49:
 4163 02cd 73797374 		.ascii	"system_debug_t\000"
 4163      656D5F64 
 4163      65627567 
 4163      5F7400
 4164              	.LASF128:
 4165 02dc 53445F55 		.ascii	"SD_UNINIT\000"
 4165      4E494E49 
 4165      5400
 4166              	.LASF212:
 4167 02e6 44494550 		.ascii	"DIEPTSIZ\000"
 4167      5453495A 
 4167      00
 4168              	.LASF300:
 4169 02ef 72657175 		.ascii	"requests_hook_cb\000"
 4169      65737473 
 4169      5F686F6F 
 4169      6B5F6362 
 4169      00
 4170              	.LASF92:
 4171 0300 5F426F6F 		.ascii	"_Bool\000"
 4171      6C00
 4172              	.LASF239:
 4173 0306 48434647 		.ascii	"HCFG\000"
 4173      00
 4174              	.LASF199:
 4175 030b 48434348 		.ascii	"HCCHAR\000"
 4175      415200
 4176              	.LASF219:
 4177 0312 73746D33 		.ascii	"stm32_otg_out_ep_t\000"
 4177      325F6F74 
 4177      675F6F75 
 4177      745F6570 
 4177      5F7400
 4178              	.LASF78:
 4179 0325 63686172 		.ascii	"char\000"
ARM GAS  /tmp/ccEcHKKd.s 			page 77


 4179      00
 4180              	.LASF208:
 4181 032a 44494550 		.ascii	"DIEPCTL\000"
 4181      43544C00 
 4182              	.LASF158:
 4183 0332 6570306E 		.ascii	"ep0n\000"
 4183      00
 4184              	.LASF253:
 4185 0337 72657376 		.ascii	"resvd80C\000"
 4185      64383043 
 4185      00
 4186              	.LASF247:
 4187 0340 48505254 		.ascii	"HPRT\000"
 4187      00
 4188              	.LASF153:
 4189 0345 72656365 		.ascii	"receiving\000"
 4189      6976696E 
 4189      6700
 4190              	.LASF8:
 4191 034f 5F5F7569 		.ascii	"__uint16_t\000"
 4191      6E743136 
 4191      5F7400
 4192              	.LASF151:
 4193 035a 55534244 		.ascii	"USBDriver\000"
 4193      72697665 
 4193      7200
 4194              	.LASF76:
 4195 0364 77746F62 		.ascii	"wtobjp\000"
 4195      6A7000
 4196              	.LASF107:
 4197 036b 70616C65 		.ascii	"palevent_t\000"
 4197      76656E74 
 4197      5F7400
 4198              	.LASF313:
 4199 0376 474E5520 		.ascii	"GNU C11 6.3.1 20170620 (release) [ARM/embedded-6-br"
 4199      43313120 
 4199      362E332E 
 4199      31203230 
 4199      31373036 
 4200 03a9 616E6368 		.ascii	"anch revision 249437] -mcpu=cortex-m4 -mfloat-abi=h"
 4200      20726576 
 4200      6973696F 
 4200      6E203234 
 4200      39343337 
 4201 03dc 61726420 		.ascii	"ard -mfpu=fpv4-sp-d16 -mno-thumb-interwork -mthumb "
 4201      2D6D6670 
 4201      753D6670 
 4201      76342D73 
 4201      702D6431 
 4202 040f 2D67202D 		.ascii	"-g -Os -fomit-frame-pointer -falign-functions=16 -f"
 4202      4F73202D 
 4202      666F6D69 
 4202      742D6672 
 4202      616D652D 
 4203 0442 66756E63 		.ascii	"function-sections -fdata-sections -fno-common -fsin"
 4203      74696F6E 
 4203      2D736563 
ARM GAS  /tmp/ccEcHKKd.s 			page 78


 4203      74696F6E 
 4203      73202D66 
 4204 0475 676C652D 		.ascii	"gle-precision-constant\000"
 4204      70726563 
 4204      6973696F 
 4204      6E2D636F 
 4204      6E737461 
 4205              	.LASF31:
 4206 048c 666C6167 		.ascii	"flags\000"
 4206      7300
 4207              	.LASF289:
 4208 0492 696E5F63 		.ascii	"in_cb\000"
 4208      6200
 4209              	.LASF148:
 4210 0498 67657474 		.ascii	"gett\000"
 4210      00
 4211              	.LASF71:
 4212 049d 73746B61 		.ascii	"stkalign_t\000"
 4212      6C69676E 
 4212      5F7400
 4213              	.LASF69:
 4214 04a8 55534152 		.ascii	"USART_TypeDef\000"
 4214      545F5479 
 4214      70654465 
 4214      6600
 4215              	.LASF241:
 4216 04b6 48464E55 		.ascii	"HFNUM\000"
 4216      4D00
 4217              	.LASF196:
 4218 04bc 75736265 		.ascii	"usbeventcb_t\000"
 4218      76656E74 
 4218      63625F74 
 4218      00
 4219              	.LASF84:
 4220 04c9 73747265 		.ascii	"stream\000"
 4220      616D00
 4221              	.LASF207:
 4222 04d0 73746D33 		.ascii	"stm32_otg_host_chn_t\000"
 4222      325F6F74 
 4222      675F686F 
 4222      73745F63 
 4222      686E5F74 
 4223              	.LASF152:
 4224 04e5 7472616E 		.ascii	"transmitting\000"
 4224      736D6974 
 4224      74696E67 
 4224      00
 4225              	.LASF282:
 4226 04f2 55534249 		.ascii	"USBInEndpointState\000"
 4226      6E456E64 
 4226      706F696E 
 4226      74537461 
 4226      746500
 4227              	.LASF118:
 4228 0505 696F706F 		.ascii	"ioportmask_t\000"
 4228      72746D61 
 4228      736B5F74 
ARM GAS  /tmp/ccEcHKKd.s 			page 79


 4228      00
 4229              	.LASF259:
 4230 0512 72657376 		.ascii	"resvd824\000"
 4230      64383234 
 4230      00
 4231              	.LASF261:
 4232 051b 44564255 		.ascii	"DVBUSPULSE\000"
 4232      5350554C 
 4232      534500
 4233              	.LASF179:
 4234 0526 5553425F 		.ascii	"USB_EP0_OUT_WAITING_STS\000"
 4234      4550305F 
 4234      4F55545F 
 4234      57414954 
 4234      494E475F 
 4235              	.LASF137:
 4236 053e 72786D61 		.ascii	"rxmask\000"
 4236      736B00
 4237              	.LASF263:
 4238 0545 44494550 		.ascii	"DIEPEMPMSK\000"
 4238      454D504D 
 4238      534B00
 4239              	.LASF193:
 4240 0550 55534244 		.ascii	"USBDescriptor\000"
 4240      65736372 
 4240      6970746F 
 4240      7200
 4241              	.LASF127:
 4242 055e 494F4275 		.ascii	"IOBus\000"
 4242      7300
 4243              	.LASF277:
 4244 0564 73746D33 		.ascii	"stm32_otg_params_t\000"
 4244      325F6F74 
 4244      675F7061 
 4244      72616D73 
 4244      5F7400
 4245              	.LASF160:
 4246 0577 73657475 		.ascii	"setup\000"
 4246      7000
 4247              	.LASF140:
 4248 057d 73706565 		.ascii	"speed\000"
 4248      6400
 4249              	.LASF224:
 4250 0583 47525354 		.ascii	"GRSTCTL\000"
 4250      43544C00 
 4251              	.LASF190:
 4252 058b 75736265 		.ascii	"usbevent_t\000"
 4252      76656E74 
 4252      5F7400
 4253              	.LASF39:
 4254 0596 63685F72 		.ascii	"ch_ready_list\000"
 4254      65616479 
 4254      5F6C6973 
 4254      7400
 4255              	.LASF176:
 4256 05a4 5553425F 		.ascii	"USB_EP0_IN_TX\000"
 4256      4550305F 
ARM GAS  /tmp/ccEcHKKd.s 			page 80


 4256      494E5F54 
 4256      5800
 4257              	.LASF191:
 4258 05b2 75645F73 		.ascii	"ud_size\000"
 4258      697A6500 
 4259              	.LASF108:
 4260 05ba 636C6561 		.ascii	"clear\000"
 4260      7200
 4261              	.LASF171:
 4262 05c0 5553425F 		.ascii	"USB_SELECTED\000"
 4262      53454C45 
 4262      43544544 
 4262      00
 4263              	.LASF163:
 4264 05cd 636F6E66 		.ascii	"configuration\000"
 4264      69677572 
 4264      6174696F 
 4264      6E00
 4265              	.LASF281:
 4266 05db 746F7473 		.ascii	"totsize\000"
 4266      697A6500 
 4267              	.LASF229:
 4268 05e3 47525846 		.ascii	"GRXFSIZ\000"
 4268      53495A00 
 4269              	.LASF279:
 4270 05eb 7478636E 		.ascii	"txcnt\000"
 4270      7400
 4271              	.LASF96:
 4272 05f1 715F636F 		.ascii	"q_counter\000"
 4272      756E7465 
 4272      7200
 4273              	.LASF266:
 4274 05fb 72657376 		.ascii	"resvd840\000"
 4274      64383430 
 4274      00
 4275              	.LASF106:
 4276 0604 70616C63 		.ascii	"palcallback_t\000"
 4276      616C6C62 
 4276      61636B5F 
 4276      7400
 4277              	.LASF14:
 4278 0612 5F5F7569 		.ascii	"__uint64_t\000"
 4278      6E743634 
 4278      5F7400
 4279              	.LASF237:
 4280 061d 44494550 		.ascii	"DIEPTXF\000"
 4280      54584600 
 4281              	.LASF243:
 4282 0625 48505458 		.ascii	"HPTXSTS\000"
 4282      53545300 
 4283              	.LASF13:
 4284 062d 6C6F6E67 		.ascii	"long unsigned int\000"
 4284      20756E73 
 4284      69676E65 
 4284      6420696E 
 4284      7400
 4285              	.LASF161:
ARM GAS  /tmp/ccEcHKKd.s 			page 81


 4286 063f 73746174 		.ascii	"status\000"
 4286      757300
 4287              	.LASF82:
 4288 0646 70617261 		.ascii	"param\000"
 4288      6D00
 4289              	.LASF162:
 4290 064c 61646472 		.ascii	"address\000"
 4290      65737300 
 4291              	.LASF61:
 4292 0654 53797374 		.ascii	"SystemCoreClock\000"
 4292      656D436F 
 4292      7265436C 
 4292      6F636B00 
 4293              	.LASF87:
 4294 0664 73686966 		.ascii	"shift\000"
 4294      7400
 4295              	.LASF159:
 4296 066a 65703065 		.ascii	"ep0endcb\000"
 4296      6E646362 
 4296      00
 4297              	.LASF34:
 4298 0673 63685F74 		.ascii	"ch_thread\000"
 4298      68726561 
 4298      6400
 4299              	.LASF222:
 4300 067d 47414842 		.ascii	"GAHBCFG\000"
 4300      43464700 
 4301              	.LASF139:
 4302 0685 75617274 		.ascii	"uartirq_t\000"
 4302      6972715F 
 4302      7400
 4303              	.LASF46:
 4304 068f 76697274 		.ascii	"virtual_timers_list_t\000"
 4304      75616C5F 
 4304      74696D65 
 4304      72735F6C 
 4304      6973745F 
 4305              	.LASF304:
 4306 06a5 6C696E65 		.ascii	"line\000"
 4306      00
 4307              	.LASF79:
 4308 06aa 63685F69 		.ascii	"ch_idle_thread_wa\000"
 4308      646C655F 
 4308      74687265 
 4308      61645F77 
 4308      6100
 4309              	.LASF295:
 4310 06bc 696E5F6D 		.ascii	"in_multiplier\000"
 4310      756C7469 
 4310      706C6965 
 4310      7200
 4311              	.LASF91:
 4312 06ca 5F73746D 		.ascii	"_stm32_dma_streams\000"
 4312      33325F64 
 4312      6D615F73 
 4312      74726561 
 4312      6D7300
ARM GAS  /tmp/ccEcHKKd.s 			page 82


 4313              	.LASF276:
 4314 06dd 6E756D5F 		.ascii	"num_endpoints\000"
 4314      656E6470 
 4314      6F696E74 
 4314      7300
 4315              	.LASF42:
 4316 06eb 76697274 		.ascii	"virtual_timer_t\000"
 4316      75616C5F 
 4316      74696D65 
 4316      725F7400 
 4317              	.LASF38:
 4318 06fb 72656164 		.ascii	"ready_list_t\000"
 4318      795F6C69 
 4318      73745F74 
 4318      00
 4319              	.LASF99:
 4320 0708 715F7772 		.ascii	"q_wrptr\000"
 4320      70747200 
 4321              	.LASF178:
 4322 0710 5553425F 		.ascii	"USB_EP0_IN_SENDING_STS\000"
 4322      4550305F 
 4322      494E5F53 
 4322      454E4449 
 4322      4E475F53 
 4323              	.LASF143:
 4324 0727 53657269 		.ascii	"SerialDriverVMT\000"
 4324      616C4472 
 4324      69766572 
 4324      564D5400 
 4325              	.LASF169:
 4326 0737 5553425F 		.ascii	"USB_STOP\000"
 4326      53544F50 
 4326      00
 4327              	.LASF284:
 4328 0740 7278636E 		.ascii	"rxcnt\000"
 4328      7400
 4329              	.LASF174:
 4330 0746 75736273 		.ascii	"usbstate_t\000"
 4330      74617465 
 4330      5F7400
 4331              	.LASF278:
 4332 0751 74787369 		.ascii	"txsize\000"
 4332      7A6500
 4333              	.LASF242:
 4334 0758 72657376 		.ascii	"resvd40C\000"
 4334      64343043 
 4334      00
 4335              	.LASF111:
 4336 0761 4F535045 		.ascii	"OSPEEDR\000"
 4336      45445200 
 4337              	.LASF220:
 4338 0769 474F5447 		.ascii	"GOTGCTL\000"
 4338      43544C00 
 4339              	.LASF120:
 4340 0771 696F6C69 		.ascii	"ioline_t\000"
 4340      6E655F74 
 4340      00
ARM GAS  /tmp/ccEcHKKd.s 			page 83


 4341              	.LASF285:
 4342 077a 72786275 		.ascii	"rxbuf\000"
 4342      6600
 4343              	.LASF293:
 4344 0780 696E5F73 		.ascii	"in_state\000"
 4344      74617465 
 4344      00
 4345              	.LASF227:
 4346 0789 47525853 		.ascii	"GRXSTSR\000"
 4346      54535200 
 4347              	.LASF188:
 4348 0791 5553425F 		.ascii	"USB_EVENT_WAKEUP\000"
 4348      4556454E 
 4348      545F5741 
 4348      4B455550 
 4348      00
 4349              	.LASF270:
 4350 07a2 50434743 		.ascii	"PCGCCTL\000"
 4350      43544C00 
 4351              	.LASF12:
 4352 07aa 5F5F7569 		.ascii	"__uint32_t\000"
 4352      6E743332 
 4352      5F7400
 4353              	.LASF298:
 4354 07b5 6576656E 		.ascii	"event_cb\000"
 4354      745F6362 
 4354      00
 4355              	.LASF221:
 4356 07be 474F5447 		.ascii	"GOTGINT\000"
 4356      494E5400 
 4357              	.LASF1:
 4358 07c6 6C6F6E67 		.ascii	"long long int\000"
 4358      206C6F6E 
 4358      6720696E 
 4358      7400
 4359              	.LASF170:
 4360 07d4 5553425F 		.ascii	"USB_READY\000"
 4360      52454144 
 4360      5900
 4361              	.LASF228:
 4362 07de 47525853 		.ascii	"GRXSTSP\000"
 4362      54535000 
 4363              	.LASF58:
 4364 07e6 73797369 		.ascii	"sysinterval_t\000"
 4364      6E746572 
 4364      76616C5F 
 4364      7400
 4365              	.LASF112:
 4366 07f4 50555044 		.ascii	"PUPDR\000"
 4366      5200
 4367              	.LASF246:
 4368 07fa 72657376 		.ascii	"resvd41C\000"
 4368      64343143 
 4368      00
 4369              	.LASF157:
 4370 0803 6570306E 		.ascii	"ep0next\000"
 4370      65787400 
ARM GAS  /tmp/ccEcHKKd.s 			page 84


 4371              	.LASF68:
 4372 080b 47545052 		.ascii	"GTPR\000"
 4372      00
 4373              	.LASF80:
 4374 0810 6576656E 		.ascii	"event_source_t\000"
 4374      745F736F 
 4374      75726365 
 4374      5F7400
 4375              	.LASF264:
 4376 081f 72657376 		.ascii	"resvd838\000"
 4376      64383338 
 4376      00
 4377              	.LASF125:
 4378 0828 6D61736B 		.ascii	"mask\000"
 4378      00
 4379              	.LASF195:
 4380 082d 75736265 		.ascii	"usbepcallback_t\000"
 4380      7063616C 
 4380      6C626163 
 4380      6B5F7400 
 4381              	.LASF288:
 4382 083d 73657475 		.ascii	"setup_cb\000"
 4382      705F6362 
 4382      00
 4383              	.LASF267:
 4384 0846 72657376 		.ascii	"resvd880\000"
 4384      64383830 
 4384      00
 4385              	.LASF60:
 4386 084f 49544D5F 		.ascii	"ITM_RxBuffer\000"
 4386      52784275 
 4386      66666572 
 4386      00
 4387              	.LASF265:
 4388 085c 72657376 		.ascii	"resvd83C\000"
 4388      64383343 
 4388      00
 4389              	.LASF103:
 4390 0865 716E6F74 		.ascii	"qnotify_t\000"
 4390      6966795F 
 4390      7400
 4391              	.LASF133:
 4392 086f 6576656E 		.ascii	"event\000"
 4392      7400
 4393              	.LASF109:
 4394 0875 4D4F4445 		.ascii	"MODER\000"
 4394      5200
 4395              	.LASF218:
 4396 087b 444F4550 		.ascii	"DOEPTSIZ\000"
 4396      5453495A 
 4396      00
 4397              	.LASF146:
 4398 0884 72656164 		.ascii	"read\000"
 4398      00
 4399              	.LASF115:
 4400 0889 4146524C 		.ascii	"AFRL\000"
 4400      00
ARM GAS  /tmp/ccEcHKKd.s 			page 85


 4401              	.LASF88:
 4402 088e 73656C66 		.ascii	"selfindex\000"
 4402      696E6465 
 4402      7800
 4403              	.LASF244:
 4404 0898 4841494E 		.ascii	"HAINT\000"
 4404      5400
 4405              	.LASF0:
 4406 089e 756E7369 		.ascii	"unsigned int\000"
 4406      676E6564 
 4406      20696E74 
 4406      00
 4407              	.LASF302:
 4408 08ab 55534243 		.ascii	"USBConfig\000"
 4408      6F6E6669 
 4408      6700
 4409              	.LASF258:
 4410 08b5 72657376 		.ascii	"resvd820\000"
 4410      64383230 
 4410      00
 4411              	.LASF201:
 4412 08be 4843494E 		.ascii	"HCINT\000"
 4412      5400
 4413              	.LASF273:
 4414 08c4 73746D33 		.ascii	"stm32_otg_t\000"
 4414      325F6F74 
 4414      675F7400 
 4415              	.LASF296:
 4416 08d0 73657475 		.ascii	"setup_buf\000"
 4416      705F6275 
 4416      6600
 4417              	.LASF165:
 4418 08da 6F746770 		.ascii	"otgparams\000"
 4418      6172616D 
 4418      7300
 4419              	.LASF311:
 4420 08e4 62697473 		.ascii	"bits\000"
 4420      00
 4421              	.LASF248:
 4422 08e9 72657376 		.ascii	"resvd444\000"
 4422      64343434 
 4422      00
 4423              	.LASF40:
 4424 08f2 63757272 		.ascii	"current\000"
 4424      656E7400 
 4425              	.LASF290:
 4426 08fa 6F75745F 		.ascii	"out_cb\000"
 4426      636200
 4427              	.LASF126:
 4428 0901 6F666673 		.ascii	"offset\000"
 4428      657400
 4429              	.LASF245:
 4430 0908 4841494E 		.ascii	"HAINTMSK\000"
 4430      544D534B 
 4430      00
 4431              	.LASF291:
 4432 0911 696E5F6D 		.ascii	"in_maxsize\000"
ARM GAS  /tmp/ccEcHKKd.s 			page 86


 4432      61787369 
 4432      7A6500
 4433              	.LASF226:
 4434 091c 47494E54 		.ascii	"GINTMSK\000"
 4434      4D534B00 
 4435              	.LASF67:
 4436 0924 444D415F 		.ascii	"DMA_Stream_TypeDef\000"
 4436      53747265 
 4436      616D5F54 
 4436      79706544 
 4436      656600
 4437              	.LASF294:
 4438 0937 6F75745F 		.ascii	"out_state\000"
 4438      73746174 
 4438      6500
 4439              	.LASF123:
 4440 0941 5F70616C 		.ascii	"_pal_events\000"
 4440      5F657665 
 4440      6E747300 
 4441              	.LASF27:
 4442 094d 74687265 		.ascii	"thread_t\000"
 4442      61645F74 
 4442      00
 4443              	.LASF2:
 4444 0956 6C6F6E67 		.ascii	"long double\000"
 4444      20646F75 
 4444      626C6500 
 4445              	.LASF32:
 4446 0962 74687265 		.ascii	"thread_reference_t\000"
 4446      61645F72 
 4446      65666572 
 4446      656E6365 
 4446      5F7400
 4447              	.LASF192:
 4448 0975 75645F73 		.ascii	"ud_string\000"
 4448      7472696E 
 4448      6700
 4449              	.LASF73:
 4450 097f 706F7274 		.ascii	"port_intctx\000"
 4450      5F696E74 
 4450      63747800 
 4451              	.LASF168:
 4452 098b 5553425F 		.ascii	"USB_UNINIT\000"
 4452      554E494E 
 4452      495400
 4453              	.LASF62:
 4454 0996 41484250 		.ascii	"AHBPrescTable\000"
 4454      72657363 
 4454      5461626C 
 4454      6500
 4455              	.LASF43:
 4456 09a4 63685F76 		.ascii	"ch_virtual_timer\000"
 4456      69727475 
 4456      616C5F74 
 4456      696D6572 
 4456      00
 4457              	.LASF286:
ARM GAS  /tmp/ccEcHKKd.s 			page 87


 4458 09b5 5553424F 		.ascii	"USBOutEndpointState\000"
 4458      7574456E 
 4458      64706F69 
 4458      6E745374 
 4458      61746500 
 4459              	.LASF269:
 4460 09c9 72657376 		.ascii	"resvdD00\000"
 4460      64443030 
 4460      00
 4461              	.LASF15:
 4462 09d2 6C6F6E67 		.ascii	"long long unsigned int\000"
 4462      206C6F6E 
 4462      6720756E 
 4462      7369676E 
 4462      65642069 
 4463              	.LASF236:
 4464 09e9 48505458 		.ascii	"HPTXFSIZ\000"
 4464      4653495A 
 4464      00
 4465              	.LASF17:
 4466 09f2 75696E74 		.ascii	"uint16_t\000"
 4466      31365F74 
 4466      00
 4467              	.LASF114:
 4468 09fb 4C4F434B 		.ascii	"LOCKR\000"
 4468      5200
 4469              	.LASF25:
 4470 0a01 6D73675F 		.ascii	"msg_t\000"
 4470      7400
 4471              	.LASF251:
 4472 0a07 4443544C 		.ascii	"DCTL\000"
 4472      00
 4473              	.LASF35:
 4474 0a0c 63685F74 		.ascii	"ch_threads_queue\000"
 4474      68726561 
 4474      64735F71 
 4474      75657565 
 4474      00
 4475              	.LASF297:
 4476 0a1d 55534245 		.ascii	"USBEndpointConfig\000"
 4476      6E64706F 
 4476      696E7443 
 4476      6F6E6669 
 4476      6700
 4477              	.LASF26:
 4478 0a2f 6576656E 		.ascii	"eventflags_t\000"
 4478      74666C61 
 4478      67735F74 
 4478      00
 4479              	.LASF202:
 4480 0a3c 4843494E 		.ascii	"HCINTMSK\000"
 4480      544D534B 
 4480      00
 4481              	.LASF164:
 4482 0a45 73617665 		.ascii	"saved_state\000"
 4482      645F7374 
 4482      61746500 
ARM GAS  /tmp/ccEcHKKd.s 			page 88


 4483              	.LASF44:
 4484 0a51 64656C74 		.ascii	"delta\000"
 4484      6100
 4485              	.LASF306:
 4486 0a57 70616C53 		.ascii	"palSetPadCallbackI\000"
 4486      65745061 
 4486      6443616C 
 4486      6C626163 
 4486      6B4900
 4487              	.LASF116:
 4488 0a6a 41465248 		.ascii	"AFRH\000"
 4488      00
 4489              	.LASF28:
 4490 0a6f 71756575 		.ascii	"queue\000"
 4490      6500
 4491              	.LASF89:
 4492 0a75 76656374 		.ascii	"vector\000"
 4492      6F7200
 4493              	.LASF315:
 4494 0a7c 2F686F6D 		.ascii	"/home/alex/ArduPilot/ardupilot/build/STM32Disco\000"
 4494      652F616C 
 4494      65782F41 
 4494      72647550 
 4494      696C6F74 
 4495              	.LASF56:
 4496 0aac 6D61696E 		.ascii	"mainthread\000"
 4496      74687265 
 4496      616400
 4497              	.LASF257:
 4498 0ab7 4441494E 		.ascii	"DAINTMSK\000"
 4498      544D534B 
 4498      00
 4499              	.LASF260:
 4500 0ac0 44564255 		.ascii	"DVBUSDIS\000"
 4500      53444953 
 4500      00
 4501              	.LASF215:
 4502 0ac9 73746D33 		.ascii	"stm32_otg_in_ep_t\000"
 4502      325F6F74 
 4502      675F696E 
 4502      5F65705F 
 4502      7400
 4503              	.LASF275:
 4504 0adb 6F74675F 		.ascii	"otg_ram_size\000"
 4504      72616D5F 
 4504      73697A65 
 4504      00
 4505              	.LASF186:
 4506 0ae8 5553425F 		.ascii	"USB_EVENT_UNCONFIGURED\000"
 4506      4556454E 
 4506      545F554E 
 4506      434F4E46 
 4506      49475552 
 4507              	.LASF292:
 4508 0aff 6F75745F 		.ascii	"out_maxsize\000"
 4508      6D617873 
 4508      697A6500 
ARM GAS  /tmp/ccEcHKKd.s 			page 89


 4509              	.LASF182:
 4510 0b0b 75736265 		.ascii	"usbep0state_t\000"
 4510      70307374 
 4510      6174655F 
 4510      7400
 4511              	.LASF132:
 4512 0b19 53657269 		.ascii	"SerialDriver\000"
 4512      616C4472 
 4512      69766572 
 4512      00
 4513              	.LASF185:
 4514 0b26 5553425F 		.ascii	"USB_EVENT_CONFIGURED\000"
 4514      4556454E 
 4514      545F434F 
 4514      4E464947 
 4514      55524544 
 4515              	.LASF272:
 4516 0b3b 4649464F 		.ascii	"FIFO\000"
 4516      00
 4517              	.LASF110:
 4518 0b40 4F545950 		.ascii	"OTYPER\000"
 4518      455200
 4519              	.LASF95:
 4520 0b47 715F7761 		.ascii	"q_waiting\000"
 4520      6974696E 
 4520      6700
 4521              	.LASF54:
 4522 0b51 726C6973 		.ascii	"rlist\000"
 4522      7400
 4523              	.LASF177:
 4524 0b57 5553425F 		.ascii	"USB_EP0_IN_WAITING_TX0\000"
 4524      4550305F 
 4524      494E5F57 
 4524      41495449 
 4524      4E475F54 
 4525              	.LASF22:
 4526 0b6e 746D6F64 		.ascii	"tmode_t\000"
 4526      655F7400 
 4527              	.LASF86:
 4528 0b76 64756D6D 		.ascii	"dummy\000"
 4528      7900
 4529              	.LASF131:
 4530 0b7c 73647374 		.ascii	"sdstate_t\000"
 4530      6174655F 
 4530      7400
 4531              	.LASF198:
 4532 0b86 75736267 		.ascii	"usbgetdescriptor_t\000"
 4532      65746465 
 4532      73637269 
 4532      70746F72 
 4532      5F7400
 4533              	.LASF130:
 4534 0b99 53445F52 		.ascii	"SD_READY\000"
 4534      45414459 
 4534      00
 4535              	.LASF65:
 4536 0ba2 4D304152 		.ascii	"M0AR\000"
ARM GAS  /tmp/ccEcHKKd.s 			page 90


 4536      00
 4537              	.LASF307:
 4538 0ba7 706F7274 		.ascii	"port\000"
 4538      00
 4539              	.LASF63:
 4540 0bac 41504250 		.ascii	"APBPrescTable\000"
 4540      72657363 
 4540      5461626C 
 4540      6500
 4541              	.LASF21:
 4542 0bba 75696E74 		.ascii	"uint_fast8_t\000"
 4542      5F666173 
 4542      74385F74 
 4542      00
 4543              	.LASF262:
 4544 0bc7 72657376 		.ascii	"resvd830\000"
 4544      64383330 
 4544      00
 4545              	.LASF7:
 4546 0bd0 73686F72 		.ascii	"short int\000"
 4546      7420696E 
 4546      7400
 4547              	.LASF81:
 4548 0bda 6576656E 		.ascii	"event_source\000"
 4548      745F736F 
 4548      75726365 
 4548      00
 4549              	.LASF20:
 4550 0be7 75696E74 		.ascii	"uint64_t\000"
 4550      36345F74 
 4550      00
 4551              	.LASF309:
 4552 0bf0 6D6F6465 		.ascii	"mode\000"
 4552      00
 4553              	.LASF45:
 4554 0bf5 66756E63 		.ascii	"func\000"
 4554      00
 4555              	.LASF183:
 4556 0bfa 5553425F 		.ascii	"USB_EVENT_RESET\000"
 4556      4556454E 
 4556      545F5245 
 4556      53455400 
 4557              	.LASF204:
 4558 0c0a 72657376 		.ascii	"resvd14\000"
 4558      64313400 
 4559              	.LASF134:
 4560 0c12 69717565 		.ascii	"iqueue\000"
 4560      756500
 4561              	.LASF316:
 4562 0c19 70616C52 		.ascii	"palReadBus\000"
 4562      65616442 
 4562      757300
 4563              	.LASF213:
 4564 0c24 44545846 		.ascii	"DTXFSTS\000"
 4564      53545300 
 4565              	.LASF214:
 4566 0c2c 72657376 		.ascii	"resvd1C\000"
ARM GAS  /tmp/ccEcHKKd.s 			page 91


 4566      64314300 
 4567              	.LASF254:
 4568 0c34 44494550 		.ascii	"DIEPMSK\000"
 4568      4D534B00 
 4569              	.LASF50:
 4570 0c3c 63685F73 		.ascii	"ch_system_debug\000"
 4570      79737465 
 4570      6D5F6465 
 4570      62756700 
 4571              	.LASF206:
 4572 0c4c 72657376 		.ascii	"resvd1c\000"
 4572      64316300 
 4573              	.LASF93:
 4574 0c54 696F5F71 		.ascii	"io_queue_t\000"
 4574      75657565 
 4574      5F7400
 4575              	.LASF141:
 4576 0c5f 6972715F 		.ascii	"irq_cb\000"
 4576      636200
 4577              	.LASF197:
 4578 0c66 75736272 		.ascii	"usbreqhandler_t\000"
 4578      65716861 
 4578      6E646C65 
 4578      725F7400 
 4579              	.LASF113:
 4580 0c76 42535252 		.ascii	"BSRR\000"
 4580      00
 4581              	.LASF194:
 4582 0c7b 75736263 		.ascii	"usbcallback_t\000"
 4582      616C6C62 
 4582      61636B5F 
 4582      7400
 4583              	.LASF225:
 4584 0c89 47494E54 		.ascii	"GINTSTS\000"
 4584      53545300 
 4585              	.LASF55:
 4586 0c91 76746C69 		.ascii	"vtlist\000"
 4586      737400
 4587              	.LASF308:
 4588 0c98 70616C53 		.ascii	"palSetBusMode\000"
 4588      65744275 
 4588      734D6F64 
 4588      6500
 4589              	.LASF305:
 4590 0ca6 70616C53 		.ascii	"palSetLineCallbackI\000"
 4590      65744C69 
 4590      6E654361 
 4590      6C6C6261 
 4590      636B4900 
 4591              	.LASF210:
 4592 0cba 44494550 		.ascii	"DIEPINT\000"
 4592      494E5400 
 4593              	.LASF231:
 4594 0cc2 484E5054 		.ascii	"HNPTXSTS\000"
 4594      58535453 
 4594      00
 4595              	.LASF180:
ARM GAS  /tmp/ccEcHKKd.s 			page 92


 4596 0ccb 5553425F 		.ascii	"USB_EP0_OUT_RX\000"
 4596      4550305F 
 4596      4F55545F 
 4596      525800
 4597              	.LASF122:
 4598 0cda 696F7061 		.ascii	"iopadid_t\000"
 4598      6469645F 
 4598      7400
 4599              	.LASF303:
 4600 0ce4 55534244 		.ascii	"USBD1\000"
 4600      3100
 4601              	.LASF72:
 4602 0cea 706F7274 		.ascii	"port_context\000"
 4602      5F636F6E 
 4602      74657874 
 4602      00
 4603              	.LASF301:
 4604 0cf7 736F665F 		.ascii	"sof_cb\000"
 4604      636200
 4605              	.LASF271:
 4606 0cfe 72657376 		.ascii	"resvdE04\000"
 4606      64453034 
 4606      00
 4607              	.LASF232:
 4608 0d07 72657376 		.ascii	"resvd30\000"
 4608      64333000 
 4609              	.LASF310:
 4610 0d0f 70616C57 		.ascii	"palWriteBus\000"
 4610      72697465 
 4610      42757300 
 4611              	.LASF53:
 4612 0d1b 63685F73 		.ascii	"ch_system\000"
 4612      79737465 
 4612      6D00
 4613              	.LASF233:
 4614 0d25 72657376 		.ascii	"resvd34\000"
 4614      64333400 
 4615              	.LASF19:
 4616 0d2d 75696E74 		.ascii	"uint32_t\000"
 4616      33325F74 
 4616      00
 4617              	.LASF167:
 4618 0d36 75736265 		.ascii	"usbep_t\000"
 4618      705F7400 
 4619              	.LASF144:
 4620 0d3e 696E7374 		.ascii	"instance_offset\000"
 4620      616E6365 
 4620      5F6F6666 
 4620      73657400 
 4621              	.LASF104:
 4622 0d4e 696E7075 		.ascii	"input_queue_t\000"
 4622      745F7175 
 4622      6575655F 
 4622      7400
 4623              	.LASF74:
 4624 0d5c 7264796D 		.ascii	"rdymsg\000"
 4624      736700
ARM GAS  /tmp/ccEcHKKd.s 			page 93


 4625              	.LASF9:
 4626 0d63 73686F72 		.ascii	"short unsigned int\000"
 4626      7420756E 
 4626      7369676E 
 4626      65642069 
 4626      6E7400
 4627              	.LASF252:
 4628 0d76 44535453 		.ascii	"DSTS\000"
 4628      00
 4629              	.LASF299:
 4630 0d7b 6765745F 		.ascii	"get_descriptor_cb\000"
 4630      64657363 
 4630      72697074 
 4630      6F725F63 
 4630      6200
 4631              	.LASF52:
 4632 0d8d 63685F73 		.ascii	"ch_system_t\000"
 4632      79737465 
 4632      6D5F7400 
 4633              	.LASF187:
 4634 0d99 5553425F 		.ascii	"USB_EVENT_SUSPEND\000"
 4634      4556454E 
 4634      545F5355 
 4634      5350454E 
 4634      4400
 4635              	.LASF105:
 4636 0dab 6F757470 		.ascii	"output_queue_t\000"
 4636      75745F71 
 4636      75657565 
 4636      5F7400
 4637              	.LASF155:
 4638 0dba 6F75745F 		.ascii	"out_params\000"
 4638      70617261 
 4638      6D7300
 4639              	.LASF10:
 4640 0dc5 5F5F696E 		.ascii	"__int32_t\000"
 4640      7433325F 
 4640      7400
 4641              	.LASF129:
 4642 0dcf 53445F53 		.ascii	"SD_STOP\000"
 4642      544F5000 
 4643              	.LASF64:
 4644 0dd7 4E445452 		.ascii	"NDTR\000"
 4644      00
 4645              	.LASF85:
 4646 0ddc 69666372 		.ascii	"ifcr\000"
 4646      00
 4647              	.LASF235:
 4648 0de1 72657376 		.ascii	"resvd58\000"
 4648      64353800 
 4649              	.LASF240:
 4650 0de9 48464952 		.ascii	"HFIR\000"
 4650      00
 4651              	.LASF36:
 4652 0dee 6E657874 		.ascii	"next\000"
 4652      00
 4653              	.LASF166:
ARM GAS  /tmp/ccEcHKKd.s 			page 94


 4654 0df3 706D6E65 		.ascii	"pmnext\000"
 4654      787400
 4655              	.LASF37:
 4656 0dfa 70726576 		.ascii	"prev\000"
 4656      00
 4657              	.LASF223:
 4658 0dff 47555342 		.ascii	"GUSBCFG\000"
 4658      43464700 
 4659              	.LASF238:
 4660 0e07 72657376 		.ascii	"resvd140\000"
 4660      64313430 
 4660      00
 4661              		.ident	"GCC: (GNU Tools for ARM Embedded Processors 6-2017-q2-update) 6.3.1 20170620 (release) [AR
ARM GAS  /tmp/ccEcHKKd.s 			page 95


DEFINED SYMBOLS
                            *ABS*:0000000000000000 hal_pal.c
     /tmp/ccEcHKKd.s:18     .text.palReadBus:0000000000000000 $t
     /tmp/ccEcHKKd.s:25     .text.palReadBus:0000000000000000 palReadBus
     /tmp/ccEcHKKd.s:48     .text.palWriteBus:0000000000000000 $t
     /tmp/ccEcHKKd.s:55     .text.palWriteBus:0000000000000000 palWriteBus
     /tmp/ccEcHKKd.s:87     .text.palSetBusMode:0000000000000000 $t
     /tmp/ccEcHKKd.s:94     .text.palSetBusMode:0000000000000000 palSetBusMode
     /tmp/ccEcHKKd.s:124    .text.palSetPadCallbackI:0000000000000000 $t
     /tmp/ccEcHKKd.s:131    .text.palSetPadCallbackI:0000000000000000 palSetPadCallbackI
     /tmp/ccEcHKKd.s:151    .text.palSetPadCallbackI:0000000000000010 $d
     /tmp/ccEcHKKd.s:156    .text.palSetLineCallbackI:0000000000000000 $t
     /tmp/ccEcHKKd.s:163    .text.palSetLineCallbackI:0000000000000000 palSetLineCallbackI
     /tmp/ccEcHKKd.s:185    .text.palSetLineCallbackI:0000000000000014 $d
                     .debug_frame:0000000000000010 $d

UNDEFINED SYMBOLS
_pal_lld_setgroupmode
_pal_events
