ARM GAS  /tmp/ccdzy0Jo.s 			page 1


   1              		.cpu cortex-m4
   2              		.eabi_attribute 27, 1
   3              		.eabi_attribute 28, 1
   4              		.eabi_attribute 20, 1
   5              		.eabi_attribute 21, 1
   6              		.eabi_attribute 23, 3
   7              		.eabi_attribute 24, 1
   8              		.eabi_attribute 25, 1
   9              		.eabi_attribute 26, 1
  10              		.eabi_attribute 30, 4
  11              		.eabi_attribute 34, 1
  12              		.eabi_attribute 18, 4
  13              		.file	"hrt.c"
  14              		.text
  15              	.Ltext0:
  16              		.cfi_sections	.debug_frame
  17              		.section	.text.hrt_micros64,"ax",%progbits
  18              		.align	1
  19              		.p2align 2,,3
  20              		.global	hrt_micros64
  21              		.syntax unified
  22              		.thumb
  23              		.thumb_func
  24              		.fpu fpv4-sp-d16
  25              		.type	hrt_micros64, %function
  26              	hrt_micros64:
  27              	.LFB325:
  28              		.file 1 "../../libraries/AP_HAL_ChibiOS/hwdef/common/hrt.c"
  29              		.loc 1 93 0
  30              		.cfi_startproc
  31              		@ args = 0, pretend = 0, frame = 0
  32              		@ frame_needed = 0, uses_anonymous_args = 0
  33 0000 70B5     		push	{r4, r5, r6, lr}
  34              		.cfi_def_cfa_offset 16
  35              		.cfi_offset 4, -16
  36              		.cfi_offset 5, -12
  37              		.cfi_offset 6, -8
  38              		.cfi_offset 14, -4
  39              		.loc 1 94 0
  40 0002 FFF7FEFF 		bl	chSysGetStatusAndLockX
  41              	.LVL0:
  42              	.LBB38:
  43              	.LBB39:
  44              		.loc 1 78 0
  45 0006 0D4E     		ldr	r6, .L7
  46              	.LBB40:
  47              	.LBB41:
  48              	.LBB42:
  49              	.LBB43:
  50              	.LBB44:
  51              	.LBB45:
  52              		.file 2 "../../modules/ChibiOS/os/hal/ports/STM32/LLD/TIMv1/hal_st_lld.h"
  53              		.loc 2 168 0
  54 0008 0D4B     		ldr	r3, .L7+4
  55 000a 596A     		ldr	r1, [r3, #36]
  56              	.LBE45:
  57              	.LBE44:
ARM GAS  /tmp/ccdzy0Jo.s 			page 2


  58              	.LBE43:
  59              	.LBE42:
  60              	.LBE41:
  61              	.LBE40:
  62              		.loc 1 78 0
  63 000c 3368     		ldr	r3, [r6]
  64 000e 9942     		cmp	r1, r3
  65 0010 10D2     		bcs	.L6
  66              	.LVL1:
  67              	.LBB46:
  68              		.loc 1 80 0
  69 0012 0C4C     		ldr	r4, .L7+8
  70 0014 D4E90023 		ldrd	r2, [r4]
  71 0018 0032     		adds	r2, r2, #0
  72 001a 43F10103 		adc	r3, r3, #1
  73 001e C4E90023 		strd	r2, [r4]
  74              	.LVL2:
  75              	.L3:
  76              	.LBE46:
  77              	.LBE39:
  78              	.LBE38:
  79              		.loc 1 96 0
  80 0022 5418     		adds	r4, r2, r1
  81 0024 43F10005 		adc	r5, r3, #0
  82              	.LBB48:
  83              	.LBB47:
  84              		.loc 1 82 0
  85 0028 3160     		str	r1, [r6]
  86              	.LVL3:
  87              	.LBE47:
  88              	.LBE48:
  89              		.loc 1 97 0
  90 002a FFF7FEFF 		bl	chSysRestoreStatusX
  91              	.LVL4:
  92              		.loc 1 99 0
  93 002e 2046     		mov	r0, r4
  94 0030 2946     		mov	r1, r5
  95 0032 70BD     		pop	{r4, r5, r6, pc}
  96              	.LVL5:
  97              	.L6:
  98 0034 034B     		ldr	r3, .L7+8
  99 0036 D3E90023 		ldrd	r2, [r3]
 100 003a F2E7     		b	.L3
 101              	.L8:
 102              		.align	2
 103              	.L7:
 104 003c 00000000 		.word	.LANCHOR0
 105 0040 000C0040 		.word	1073744896
 106 0044 00000000 		.word	.LANCHOR1
 107              		.cfi_endproc
 108              	.LFE325:
 109              		.size	hrt_micros64, .-hrt_micros64
 110              		.section	.text.hrt_micros32,"ax",%progbits
 111              		.align	1
 112              		.p2align 2,,3
 113              		.global	hrt_micros32
 114              		.syntax unified
ARM GAS  /tmp/ccdzy0Jo.s 			page 3


 115              		.thumb
 116              		.thumb_func
 117              		.fpu fpv4-sp-d16
 118              		.type	hrt_micros32, %function
 119              	hrt_micros32:
 120              	.LFB326:
 121              		.loc 1 102 0
 122              		.cfi_startproc
 123              		@ args = 0, pretend = 0, frame = 0
 124              		@ frame_needed = 0, uses_anonymous_args = 0
 125 0000 D0B5     		push	{r4, r6, r7, lr}
 126              		.cfi_def_cfa_offset 16
 127              		.cfi_offset 4, -16
 128              		.cfi_offset 6, -12
 129              		.cfi_offset 7, -8
 130              		.cfi_offset 14, -4
 131              		.loc 1 103 0
 132 0002 FFF7FEFF 		bl	chSysGetStatusAndLockX
 133              	.LVL6:
 134              	.LBB49:
 135              	.LBB50:
 136              	.LBB51:
 137              	.LBB52:
 138              	.LBB53:
 139              	.LBB54:
 140              	.LBB55:
 141              	.LBB56:
 142              		.loc 2 168 0
 143 0006 094A     		ldr	r2, .L12
 144              	.LBE56:
 145              	.LBE55:
 146              	.LBE54:
 147              	.LBE53:
 148              	.LBE52:
 149              	.LBE51:
 150              		.loc 1 78 0
 151 0008 094B     		ldr	r3, .L12+4
 152              	.LBB62:
 153              	.LBB61:
 154              	.LBB60:
 155              	.LBB59:
 156              	.LBB58:
 157              	.LBB57:
 158              		.loc 2 168 0
 159 000a 546A     		ldr	r4, [r2, #36]
 160              	.LBE57:
 161              	.LBE58:
 162              	.LBE59:
 163              	.LBE60:
 164              	.LBE61:
 165              	.LBE62:
 166              		.loc 1 78 0
 167 000c 1A68     		ldr	r2, [r3]
 168 000e 9442     		cmp	r4, r2
 169 0010 07D2     		bcs	.L10
 170              	.LVL7:
 171              	.LBB63:
ARM GAS  /tmp/ccdzy0Jo.s 			page 4


 172              		.loc 1 80 0
 173 0012 084A     		ldr	r2, .L12+8
 174 0014 D2E90067 		ldrd	r6, [r2]
 175 0018 0036     		adds	r6, r6, #0
 176 001a 47F10107 		adc	r7, r7, #1
 177 001e C2E90067 		strd	r6, [r2]
 178              	.LVL8:
 179              	.L10:
 180              	.LBE63:
 181              		.loc 1 82 0
 182 0022 1C60     		str	r4, [r3]
 183              	.LBE50:
 184              	.LBE49:
 185              		.loc 1 105 0
 186 0024 FFF7FEFF 		bl	chSysRestoreStatusX
 187              	.LVL9:
 188              		.loc 1 107 0
 189 0028 2046     		mov	r0, r4
 190 002a D0BD     		pop	{r4, r6, r7, pc}
 191              	.L13:
 192              		.align	2
 193              	.L12:
 194 002c 000C0040 		.word	1073744896
 195 0030 00000000 		.word	.LANCHOR0
 196 0034 00000000 		.word	.LANCHOR1
 197              		.cfi_endproc
 198              	.LFE326:
 199              		.size	hrt_micros32, .-hrt_micros32
 200              		.global	__aeabi_uldivmod
 201              		.section	.text.hrt_millis32,"ax",%progbits
 202              		.align	1
 203              		.p2align 2,,3
 204              		.global	hrt_millis32
 205              		.syntax unified
 206              		.thumb
 207              		.thumb_func
 208              		.fpu fpv4-sp-d16
 209              		.type	hrt_millis32, %function
 210              	hrt_millis32:
 211              	.LFB327:
 212              		.loc 1 110 0
 213              		.cfi_startproc
 214              		@ args = 0, pretend = 0, frame = 0
 215              		@ frame_needed = 0, uses_anonymous_args = 0
 216 0000 08B5     		push	{r3, lr}
 217              		.cfi_def_cfa_offset 8
 218              		.cfi_offset 3, -8
 219              		.cfi_offset 14, -4
 220              		.loc 1 111 0
 221 0002 FFF7FEFF 		bl	hrt_micros64
 222              	.LVL10:
 223 0006 4FF47A72 		mov	r2, #1000
 224 000a 0023     		movs	r3, #0
 225 000c FFF7FEFF 		bl	__aeabi_uldivmod
 226              	.LVL11:
 227              		.loc 1 112 0
 228 0010 08BD     		pop	{r3, pc}
ARM GAS  /tmp/ccdzy0Jo.s 			page 5


 229              		.cfi_endproc
 230              	.LFE327:
 231              		.size	hrt_millis32, .-hrt_millis32
 232 0012 00BF     		.section	.bss.last_us32.9932,"aw",%nobits
 233              		.align	2
 234              		.set	.LANCHOR0,. + 0
 235              		.type	last_us32.9932, %object
 236              		.size	last_us32.9932, 4
 237              	last_us32.9932:
 238 0000 00000000 		.space	4
 239              		.section	.bss.timer_base_us64,"aw",%nobits
 240              		.align	3
 241              		.set	.LANCHOR1,. + 0
 242              		.type	timer_base_us64, %object
 243              		.size	timer_base_us64, 8
 244              	timer_base_us64:
 245 0000 00000000 		.space	8
 245      00000000 
 246              		.text
 247              	.Letext0:
 248              		.file 3 "/opt/gcc-arm-none-eabi-6-2017-q2-update/lib/gcc/arm-none-eabi/6.3.1/include/stddef.h"
 249              		.file 4 "/opt/gcc-arm-none-eabi-6-2017-q2-update/arm-none-eabi/include/machine/_default_types.h"
 250              		.file 5 "/opt/gcc-arm-none-eabi-6-2017-q2-update/arm-none-eabi/include/sys/_stdint.h"
 251              		.file 6 "/opt/gcc-arm-none-eabi-6-2017-q2-update/arm-none-eabi/include/stdint.h"
 252              		.file 7 "../../modules/ChibiOS/os/common/ports/ARMCMx/compilers/GCC/chtypes.h"
 253              		.file 8 "../../modules/ChibiOS/os/rt/include/chsystypes.h"
 254              		.file 9 "../../modules/ChibiOS/os/rt/include/chschd.h"
 255              		.file 10 "../../modules/ChibiOS/os/rt/include/chtime.h"
 256              		.file 11 "../../modules/ChibiOS/os/common/ext/ARM/CMSIS/Core/Include/core_cm4.h"
 257              		.file 12 "../../modules/ChibiOS/os/common/ext/ST/STM32F4xx/system_stm32f4xx.h"
 258              		.file 13 "../../modules/ChibiOS/os/common/ext/ST/STM32F4xx/stm32f407xx.h"
 259              		.file 14 "../../modules/ChibiOS/os/common/ports/ARMCMx/chcore.h"
 260              		.file 15 "../../modules/ChibiOS/os/common/ports/ARMCMx/chcore_v7m.h"
 261              		.file 16 "../../modules/ChibiOS/os/hal/ports/STM32/LLD/TIMv1/stm32_tim.h"
 262              		.file 17 "../../modules/ChibiOS/os/rt/include/chtm.h"
 263              		.file 18 "../../modules/ChibiOS/os/rt/include/chsem.h"
 264              		.file 19 "../../modules/ChibiOS/os/rt/include/chmtx.h"
 265              		.file 20 "../../modules/ChibiOS/os/rt/include/chsys.h"
 266              		.file 21 "../../modules/ChibiOS/os/rt/include/chregistry.h"
 267              		.file 22 "../../modules/ChibiOS/os/rt/include/chevents.h"
 268              		.file 23 "../../modules/ChibiOS/os/oslib/include/chmemcore.h"
 269              		.file 24 "../../modules/ChibiOS/os/oslib/include/chmempools.h"
 270              		.file 25 "../../modules/ChibiOS/os/oslib/include/chfactory.h"
 271              		.file 26 "../../modules/ChibiOS/os/hal/ports/STM32/LLD/DMAv2/stm32_dma.h"
 272              		.file 27 "../../modules/ChibiOS/os/hal/include/hal_queues.h"
 273              		.file 28 "../../modules/ChibiOS/os/hal/include/hal_pal.h"
 274              		.file 29 "../../modules/ChibiOS/os/hal/ports/STM32/LLD/GPIOv2/stm32_gpio.h"
 275              		.file 30 "../../modules/ChibiOS/os/hal/ports/STM32/LLD/GPIOv2/hal_pal_lld.h"
 276              		.file 31 "../../modules/ChibiOS/os/hal/include/hal_adc.h"
 277              		.file 32 "../../modules/ChibiOS/os/hal/ports/STM32/LLD/ADCv2/hal_adc_lld.h"
 278              		.file 33 "../../modules/ChibiOS/os/hal/include/hal_i2c.h"
 279              		.file 34 "../../modules/ChibiOS/os/hal/ports/STM32/LLD/I2Cv1/hal_i2c_lld.h"
 280              		.file 35 "../../modules/ChibiOS/os/hal/include/hal_icu.h"
 281              		.file 36 "../../modules/ChibiOS/os/hal/ports/STM32/LLD/TIMv1/hal_icu_lld.h"
 282              		.file 37 "../../modules/ChibiOS/os/hal/include/hal_pwm.h"
 283              		.file 38 "../../modules/ChibiOS/os/hal/ports/STM32/LLD/TIMv1/hal_pwm_lld.h"
 284              		.file 39 "../../modules/ChibiOS/os/hal/include/hal_serial.h"
ARM GAS  /tmp/ccdzy0Jo.s 			page 6


 285              		.file 40 "../../modules/ChibiOS/os/hal/ports/STM32/LLD/USARTv1/hal_serial_lld.h"
 286              		.file 41 "../../modules/ChibiOS/os/hal/include/hal_spi.h"
 287              		.file 42 "../../modules/ChibiOS/os/hal/ports/STM32/LLD/SPIv1/hal_spi_lld.h"
 288              		.file 43 "../../modules/ChibiOS/os/hal/include/hal_usb.h"
 289              		.file 44 "../../modules/ChibiOS/os/hal/ports/STM32/LLD/OTGv1/hal_usb_lld.h"
 290              		.file 45 "../../modules/ChibiOS/os/hal/ports/STM32/LLD/OTGv1/stm32_otg.h"
 291              		.file 46 "../../modules/ChibiOS/os/rt/include/chvt.h"
 292              		.file 47 "../../modules/ChibiOS/os/common/ports/ARMCMx/chcore_timer.h"