ARM GAS  /tmp/cc2BUCQy.s 			page 1


   1              		.cpu cortex-m4
   2              		.eabi_attribute 27, 1
   3              		.eabi_attribute 28, 1
   4              		.eabi_attribute 20, 1
   5              		.eabi_attribute 21, 1
   6              		.eabi_attribute 23, 3
   7              		.eabi_attribute 24, 1
   8              		.eabi_attribute 25, 1
   9              		.eabi_attribute 26, 1
  10              		.eabi_attribute 30, 4
  11              		.eabi_attribute 34, 1
  12              		.eabi_attribute 18, 4
  13              		.file	"memstreams.c"
  14              		.text
  15              	.Ltext0:
  16              		.cfi_sections	.debug_frame
  17              		.section	.text._put,"ax",%progbits
  18              		.align	1
  19              		.syntax unified
  20              		.thumb
  21              		.thumb_func
  22              		.fpu fpv4-sp-d16
  23              		.type	_put, %function
  24              	_put:
  25              	.LFB325:
  26              		.file 1 "../../modules/ChibiOS/os/hal/lib/streams/memstreams.c"
  27              		.loc 1 67 0
  28              		.cfi_startproc
  29              		@ args = 0, pretend = 0, frame = 0
  30              		@ frame_needed = 0, uses_anonymous_args = 0
  31              		@ link register save eliminated.
  32              	.LVL0:
  33              		.loc 1 70 0
  34 0000 C368     		ldr	r3, [r0, #12]
  35 0002 8268     		ldr	r2, [r0, #8]
  36 0004 9A42     		cmp	r2, r3
  37              		.loc 1 72 0
  38 0006 1FBF     		itttt	ne
  39 0008 4268     		ldrne	r2, [r0, #4]
  40 000a D154     		strbne	r1, [r2, r3]
  41              		.loc 1 73 0
  42 000c C368     		ldrne	r3, [r0, #12]
  43 000e 0133     		addne	r3, r3, #1
  44 0010 1ABF     		itte	ne
  45 0012 C360     		strne	r3, [r0, #12]
  46              		.loc 1 74 0
  47 0014 0020     		movne	r0, #0
  48              	.LVL1:
  49              		.loc 1 71 0
  50 0016 6FF00100 		mvneq	r0, #1
  51              		.loc 1 75 0
  52 001a 7047     		bx	lr
  53              		.cfi_endproc
  54              	.LFE325:
  55              		.size	_put, .-_put
  56              		.section	.text._get,"ax",%progbits
  57              		.align	1
ARM GAS  /tmp/cc2BUCQy.s 			page 2


  58              		.syntax unified
  59              		.thumb
  60              		.thumb_func
  61              		.fpu fpv4-sp-d16
  62              		.type	_get, %function
  63              	_get:
  64              	.LFB326:
  65              		.loc 1 77 0
  66              		.cfi_startproc
  67              		@ args = 0, pretend = 0, frame = 0
  68              		@ frame_needed = 0, uses_anonymous_args = 0
  69              		@ link register save eliminated.
  70              	.LVL2:
  71              		.loc 1 81 0
  72 0000 0369     		ldr	r3, [r0, #16]
  73 0002 C268     		ldr	r2, [r0, #12]
  74 0004 9A42     		cmp	r2, r3
  75              		.loc 1 83 0
  76 0006 1FBF     		itttt	ne
  77 0008 4268     		ldrne	r2, [r0, #4]
  78 000a D25C     		ldrbne	r2, [r2, r3]	@ zero_extendqisi2
  79              	.LVL3:
  80              		.loc 1 84 0
  81 000c 0133     		addne	r3, r3, #1
  82 000e 0361     		strne	r3, [r0, #16]
  83              		.loc 1 85 0
  84 0010 14BF     		ite	ne
  85 0012 1046     		movne	r0, r2
  86              	.LVL4:
  87              		.loc 1 82 0
  88 0014 6FF00100 		mvneq	r0, #1
  89              		.loc 1 86 0
  90 0018 7047     		bx	lr
  91              		.cfi_endproc
  92              	.LFE326:
  93              		.size	_get, .-_get
  94              		.section	.text._reads,"ax",%progbits
  95              		.align	1
  96              		.syntax unified
  97              		.thumb
  98              		.thumb_func
  99              		.fpu fpv4-sp-d16
 100              		.type	_reads, %function
 101              	_reads:
 102              	.LFB324:
 103              		.loc 1 57 0
 104              		.cfi_startproc
 105              		@ args = 0, pretend = 0, frame = 0
 106              		@ frame_needed = 0, uses_anonymous_args = 0
 107              	.LVL5:
 108 0000 38B5     		push	{r3, r4, r5, lr}
 109              		.cfi_def_cfa_offset 16
 110              		.cfi_offset 3, -16
 111              		.cfi_offset 4, -12
 112              		.cfi_offset 5, -8
 113              		.cfi_offset 14, -4
 114              		.loc 1 57 0
ARM GAS  /tmp/cc2BUCQy.s 			page 3


 115 0002 0546     		mov	r5, r0
 116              	.LVL6:
 117 0004 0846     		mov	r0, r1
 118              	.LVL7:
 119              		.loc 1 60 0
 120 0006 2B69     		ldr	r3, [r5, #16]
 121 0008 EC68     		ldr	r4, [r5, #12]
 122              		.loc 1 62 0
 123 000a 6968     		ldr	r1, [r5, #4]
 124              	.LVL8:
 125              		.loc 1 60 0
 126 000c E41A     		subs	r4, r4, r3
 127 000e 9442     		cmp	r4, r2
 128 0010 28BF     		it	cs
 129 0012 1446     		movcs	r4, r2
 130              	.LVL9:
 131              		.loc 1 62 0
 132 0014 1944     		add	r1, r1, r3
 133 0016 2246     		mov	r2, r4
 134 0018 FFF7FEFF 		bl	memcpy
 135              	.LVL10:
 136              		.loc 1 63 0
 137 001c 2B69     		ldr	r3, [r5, #16]
 138 001e 2344     		add	r3, r3, r4
 139 0020 2B61     		str	r3, [r5, #16]
 140              		.loc 1 65 0
 141 0022 2046     		mov	r0, r4
 142 0024 38BD     		pop	{r3, r4, r5, pc}
 143              		.cfi_endproc
 144              	.LFE324:
 145              		.size	_reads, .-_reads
 146              		.section	.text._writes,"ax",%progbits
 147              		.align	1
 148              		.syntax unified
 149              		.thumb
 150              		.thumb_func
 151              		.fpu fpv4-sp-d16
 152              		.type	_writes, %function
 153              	_writes:
 154              	.LFB323:
 155              		.loc 1 47 0
 156              		.cfi_startproc
 157              		@ args = 0, pretend = 0, frame = 0
 158              		@ frame_needed = 0, uses_anonymous_args = 0
 159              	.LVL11:
 160 0000 38B5     		push	{r3, r4, r5, lr}
 161              		.cfi_def_cfa_offset 16
 162              		.cfi_offset 3, -16
 163              		.cfi_offset 4, -12
 164              		.cfi_offset 5, -8
 165              		.cfi_offset 14, -4
 166              		.loc 1 50 0
 167 0002 C368     		ldr	r3, [r0, #12]
 168 0004 8468     		ldr	r4, [r0, #8]
 169 0006 E41A     		subs	r4, r4, r3
 170              		.loc 1 47 0
 171 0008 0546     		mov	r5, r0
ARM GAS  /tmp/cc2BUCQy.s 			page 4


 172 000a 9442     		cmp	r4, r2
 173              		.loc 1 52 0
 174 000c 4068     		ldr	r0, [r0, #4]
 175              	.LVL12:
 176 000e 28BF     		it	cs
 177 0010 1446     		movcs	r4, r2
 178              	.LVL13:
 179 0012 2246     		mov	r2, r4
 180 0014 1844     		add	r0, r0, r3
 181 0016 FFF7FEFF 		bl	memcpy
 182              	.LVL14:
 183              		.loc 1 53 0
 184 001a EB68     		ldr	r3, [r5, #12]
 185 001c 2344     		add	r3, r3, r4
 186 001e EB60     		str	r3, [r5, #12]
 187              		.loc 1 55 0
 188 0020 2046     		mov	r0, r4
 189 0022 38BD     		pop	{r3, r4, r5, pc}
 190              		.cfi_endproc
 191              	.LFE323:
 192              		.size	_writes, .-_writes
 193              		.section	.text.msObjectInit,"ax",%progbits
 194              		.align	1
 195              		.global	msObjectInit
 196              		.syntax unified
 197              		.thumb
 198              		.thumb_func
 199              		.fpu fpv4-sp-d16
 200              		.type	msObjectInit, %function
 201              	msObjectInit:
 202              	.LFB327:
 203              		.loc 1 105 0
 204              		.cfi_startproc
 205              		@ args = 0, pretend = 0, frame = 0
 206              		@ frame_needed = 0, uses_anonymous_args = 0
 207              	.LVL15:
 208 0000 10B5     		push	{r4, lr}
 209              		.cfi_def_cfa_offset 8
 210              		.cfi_offset 4, -8
 211              		.cfi_offset 14, -4
 212              		.loc 1 110 0
 213 0002 C360     		str	r3, [r0, #12]
 214              		.loc 1 107 0
 215 0004 034C     		ldr	r4, .L10
 216 0006 0460     		str	r4, [r0]
 217              		.loc 1 111 0
 218 0008 0023     		movs	r3, #0
 219              	.LVL16:
 220              		.loc 1 108 0
 221 000a 4160     		str	r1, [r0, #4]
 222              		.loc 1 109 0
 223 000c 8260     		str	r2, [r0, #8]
 224              		.loc 1 111 0
 225 000e 0361     		str	r3, [r0, #16]
 226 0010 10BD     		pop	{r4, pc}
 227              	.L11:
 228 0012 00BF     		.align	2
ARM GAS  /tmp/cc2BUCQy.s 			page 5


 229              	.L10:
 230 0014 00000000 		.word	.LANCHOR0
 231              		.cfi_endproc
 232              	.LFE327:
 233              		.size	msObjectInit, .-msObjectInit
 234              		.section	.rodata.vmt,"a",%progbits
 235              		.align	2
 236              		.set	.LANCHOR0,. + 0
 237              		.type	vmt, %object
 238              		.size	vmt, 20
 239              	vmt:
 240 0000 00000000 		.word	0
 241 0004 00000000 		.word	_writes
 242 0008 00000000 		.word	_reads
 243 000c 00000000 		.word	_put
 244 0010 00000000 		.word	_get
 245              		.text
 246              	.Letext0:
 247              		.file 2 "/opt/gcc-arm-none-eabi-6-2017-q2-update/lib/gcc/arm-none-eabi/6.3.1/include/stddef.h"
 248              		.file 3 "/opt/gcc-arm-none-eabi-6-2017-q2-update/arm-none-eabi/include/machine/_default_types.h"
 249              		.file 4 "/opt/gcc-arm-none-eabi-6-2017-q2-update/arm-none-eabi/include/sys/lock.h"
 250              		.file 5 "/opt/gcc-arm-none-eabi-6-2017-q2-update/arm-none-eabi/include/sys/_types.h"
 251              		.file 6 "/opt/gcc-arm-none-eabi-6-2017-q2-update/arm-none-eabi/include/sys/reent.h"
 252              		.file 7 "/opt/gcc-arm-none-eabi-6-2017-q2-update/arm-none-eabi/include/sys/_stdint.h"
 253              		.file 8 "/opt/gcc-arm-none-eabi-6-2017-q2-update/arm-none-eabi/include/stdint.h"
 254              		.file 9 "../../modules/ChibiOS/os/common/ports/ARMCMx/compilers/GCC/chtypes.h"
 255              		.file 10 "../../modules/ChibiOS/os/rt/include/chsystypes.h"
 256              		.file 11 "../../modules/ChibiOS/os/rt/include/chschd.h"
 257              		.file 12 "../../modules/ChibiOS/os/rt/include/chtime.h"
 258              		.file 13 "../../modules/ChibiOS/os/common/ext/ARM/CMSIS/Core/Include/core_cm4.h"
 259              		.file 14 "../../modules/ChibiOS/os/common/ext/ST/STM32F4xx/system_stm32f4xx.h"
 260              		.file 15 "../../modules/ChibiOS/os/common/ext/ST/STM32F4xx/stm32f407xx.h"
 261              		.file 16 "../../modules/ChibiOS/os/common/ports/ARMCMx/chcore.h"
 262              		.file 17 "../../modules/ChibiOS/os/common/ports/ARMCMx/chcore_v7m.h"
 263              		.file 18 "../../modules/ChibiOS/os/hal/ports/STM32/LLD/TIMv1/stm32_tim.h"
 264              		.file 19 "../../modules/ChibiOS/os/rt/include/chtm.h"
 265              		.file 20 "../../modules/ChibiOS/os/rt/include/chsem.h"
 266              		.file 21 "../../modules/ChibiOS/os/rt/include/chmtx.h"
 267              		.file 22 "../../modules/ChibiOS/os/rt/include/chsys.h"
 268              		.file 23 "../../modules/ChibiOS/os/rt/include/chregistry.h"
 269              		.file 24 "../../modules/ChibiOS/os/rt/include/chevents.h"
 270              		.file 25 "../../modules/ChibiOS/os/oslib/include/chmemcore.h"
 271              		.file 26 "../../modules/ChibiOS/os/oslib/include/chmempools.h"
 272              		.file 27 "../../modules/ChibiOS/os/oslib/include/chfactory.h"
 273              		.file 28 "../../modules/ChibiOS/os/hal/ports/STM32/LLD/DMAv2/stm32_dma.h"
 274              		.file 29 "../../modules/ChibiOS/os/hal/include/hal_queues.h"
 275              		.file 30 "../../modules/ChibiOS/os/hal/include/hal_pal.h"
 276              		.file 31 "../../modules/ChibiOS/os/hal/ports/STM32/LLD/GPIOv2/stm32_gpio.h"
 277              		.file 32 "../../modules/ChibiOS/os/hal/ports/STM32/LLD/GPIOv2/hal_pal_lld.h"
 278              		.file 33 "../../modules/ChibiOS/os/hal/include/hal_adc.h"
 279              		.file 34 "../../modules/ChibiOS/os/hal/ports/STM32/LLD/ADCv2/hal_adc_lld.h"
 280              		.file 35 "../../modules/ChibiOS/os/hal/include/hal_i2c.h"
 281              		.file 36 "../../modules/ChibiOS/os/hal/ports/STM32/LLD/I2Cv1/hal_i2c_lld.h"
 282              		.file 37 "../../modules/ChibiOS/os/hal/include/hal_icu.h"
 283              		.file 38 "../../modules/ChibiOS/os/hal/ports/STM32/LLD/TIMv1/hal_icu_lld.h"
 284              		.file 39 "../../modules/ChibiOS/os/hal/include/hal_pwm.h"
 285              		.file 40 "../../modules/ChibiOS/os/hal/ports/STM32/LLD/TIMv1/hal_pwm_lld.h"
ARM GAS  /tmp/cc2BUCQy.s 			page 6


 286              		.file 41 "../../modules/ChibiOS/os/hal/include/hal_serial.h"
 287              		.file 42 "../../modules/ChibiOS/os/hal/ports/STM32/LLD/USARTv1/hal_serial_lld.h"
 288              		.file 43 "../../modules/ChibiOS/os/hal/include/hal_spi.h"
 289              		.file 44 "../../modules/ChibiOS/os/hal/ports/STM32/LLD/SPIv1/hal_spi_lld.h"
 290              		.file 45 "../../modules/ChibiOS/os/hal/include/hal_usb.h"
 291              		.file 46 "../../modules/ChibiOS/os/hal/ports/STM32/LLD/OTGv1/hal_usb_lld.h"
 292              		.file 47 "../../modules/ChibiOS/os/hal/ports/STM32/LLD/OTGv1/stm32_otg.h"
 293              		.file 48 "../../modules/ChibiOS/os/hal/lib/streams/memstreams.h"