ARM GAS  /tmp/ccHQbgGc.s 			page 1


   1              		.cpu cortex-m4
   2              		.eabi_attribute 27, 1
   3              		.eabi_attribute 28, 1
   4              		.eabi_attribute 20, 1
   5              		.eabi_attribute 21, 1
   6              		.eabi_attribute 23, 3
   7              		.eabi_attribute 24, 1
   8              		.eabi_attribute 25, 1
   9              		.eabi_attribute 26, 1
  10              		.eabi_attribute 30, 4
  11              		.eabi_attribute 34, 1
  12              		.eabi_attribute 18, 4
  13              		.file	"nullstreams.c"
  14              		.text
  15              	.Ltext0:
  16              		.cfi_sections	.debug_frame
  17              		.section	.text.writes,"ax",%progbits
  18              		.align	1
  19              		.syntax unified
  20              		.thumb
  21              		.thumb_func
  22              		.fpu fpv4-sp-d16
  23              		.type	writes, %function
  24              	writes:
  25              	.LFB251:
  26              		.file 1 "../../modules/ChibiOS/os/hal/lib/streams/nullstreams.c"
  27              		.loc 1 45 0
  28              		.cfi_startproc
  29              		@ args = 0, pretend = 0, frame = 0
  30              		@ frame_needed = 0, uses_anonymous_args = 0
  31              		@ link register save eliminated.
  32              	.LVL0:
  33              		.loc 1 51 0
  34 0000 1046     		mov	r0, r2
  35              	.LVL1:
  36 0002 7047     		bx	lr
  37              		.cfi_endproc
  38              	.LFE251:
  39              		.size	writes, .-writes
  40              		.section	.text.reads,"ax",%progbits
  41              		.align	1
  42              		.syntax unified
  43              		.thumb
  44              		.thumb_func
  45              		.fpu fpv4-sp-d16
  46              		.type	reads, %function
  47              	reads:
  48              	.LFB252:
  49              		.loc 1 53 0
  50              		.cfi_startproc
  51              		@ args = 0, pretend = 0, frame = 0
  52              		@ frame_needed = 0, uses_anonymous_args = 0
  53              		@ link register save eliminated.
  54              	.LVL2:
  55              		.loc 1 60 0
  56 0000 0020     		movs	r0, #0
  57              	.LVL3:
ARM GAS  /tmp/ccHQbgGc.s 			page 2


  58 0002 7047     		bx	lr
  59              		.cfi_endproc
  60              	.LFE252:
  61              		.size	reads, .-reads
  62              		.section	.text.put,"ax",%progbits
  63              		.align	1
  64              		.syntax unified
  65              		.thumb
  66              		.thumb_func
  67              		.fpu fpv4-sp-d16
  68              		.type	put, %function
  69              	put:
  70              	.LFB253:
  71              		.loc 1 62 0
  72              		.cfi_startproc
  73              		@ args = 0, pretend = 0, frame = 0
  74              		@ frame_needed = 0, uses_anonymous_args = 0
  75              		@ link register save eliminated.
  76              	.LVL4:
  77              		.loc 1 68 0
  78 0000 0020     		movs	r0, #0
  79              	.LVL5:
  80 0002 7047     		bx	lr
  81              		.cfi_endproc
  82              	.LFE253:
  83              		.size	put, .-put
  84              		.section	.text.get,"ax",%progbits
  85              		.align	1
  86              		.syntax unified
  87              		.thumb
  88              		.thumb_func
  89              		.fpu fpv4-sp-d16
  90              		.type	get, %function
  91              	get:
  92              	.LFB254:
  93              		.loc 1 70 0
  94              		.cfi_startproc
  95              		@ args = 0, pretend = 0, frame = 0
  96              		@ frame_needed = 0, uses_anonymous_args = 0
  97              		@ link register save eliminated.
  98              	.LVL6:
  99              		.loc 1 75 0
 100 0000 0420     		movs	r0, #4
 101              	.LVL7:
 102 0002 7047     		bx	lr
 103              		.cfi_endproc
 104              	.LFE254:
 105              		.size	get, .-get
 106              		.section	.text.nullObjectInit,"ax",%progbits
 107              		.align	1
 108              		.global	nullObjectInit
 109              		.syntax unified
 110              		.thumb
 111              		.thumb_func
 112              		.fpu fpv4-sp-d16
 113              		.type	nullObjectInit, %function
 114              	nullObjectInit:
ARM GAS  /tmp/ccHQbgGc.s 			page 3


 115              	.LFB255:
 116              		.loc 1 88 0
 117              		.cfi_startproc
 118              		@ args = 0, pretend = 0, frame = 0
 119              		@ frame_needed = 0, uses_anonymous_args = 0
 120              		@ link register save eliminated.
 121              	.LVL8:
 122              		.loc 1 90 0
 123 0000 014B     		ldr	r3, .L6
 124 0002 0360     		str	r3, [r0]
 125 0004 7047     		bx	lr
 126              	.L7:
 127 0006 00BF     		.align	2
 128              	.L6:
 129 0008 00000000 		.word	.LANCHOR0
 130              		.cfi_endproc
 131              	.LFE255:
 132              		.size	nullObjectInit, .-nullObjectInit
 133              		.section	.rodata.vmt,"a",%progbits
 134              		.align	2
 135              		.set	.LANCHOR0,. + 0
 136              		.type	vmt, %object
 137              		.size	vmt, 20
 138              	vmt:
 139 0000 00000000 		.word	0
 140 0004 00000000 		.word	writes
 141 0008 00000000 		.word	reads
 142 000c 00000000 		.word	put
 143 0010 00000000 		.word	get
 144              		.text
 145              	.Letext0:
 146              		.file 2 "/opt/gcc-arm-none-eabi-6-2017-q2-update/lib/gcc/arm-none-eabi/6.3.1/include/stddef.h"
 147              		.file 3 "/opt/gcc-arm-none-eabi-6-2017-q2-update/arm-none-eabi/include/machine/_default_types.h"
 148              		.file 4 "/opt/gcc-arm-none-eabi-6-2017-q2-update/arm-none-eabi/include/sys/_stdint.h"
 149              		.file 5 "../../modules/ChibiOS/os/common/ports/ARMCMx/compilers/GCC/chtypes.h"
 150              		.file 6 "../../modules/ChibiOS/os/rt/include/chsystypes.h"
 151              		.file 7 "../../modules/ChibiOS/os/rt/include/chschd.h"
 152              		.file 8 "../../modules/ChibiOS/os/rt/include/chtime.h"
 153              		.file 9 "../../modules/ChibiOS/os/common/ext/ARM/CMSIS/Core/Include/core_cm4.h"
 154              		.file 10 "../../modules/ChibiOS/os/common/ext/ST/STM32F4xx/system_stm32f4xx.h"
 155              		.file 11 "../../modules/ChibiOS/os/common/ext/ST/STM32F4xx/stm32f407xx.h"
 156              		.file 12 "../../modules/ChibiOS/os/common/ports/ARMCMx/chcore.h"
 157              		.file 13 "../../modules/ChibiOS/os/common/ports/ARMCMx/chcore_v7m.h"
 158              		.file 14 "../../modules/ChibiOS/os/rt/include/chsys.h"
 159              		.file 15 "../../modules/ChibiOS/os/hal/osal/rt/osal.h"
 160              		.file 16 "../../modules/ChibiOS/os/hal/ports/STM32/LLD/DMAv2/stm32_dma.h"
 161              		.file 17 "../../modules/ChibiOS/os/hal/include/hal_queues.h"
 162              		.file 18 "../../modules/ChibiOS/os/hal/include/hal_pal.h"
 163              		.file 19 "../../modules/ChibiOS/os/hal/ports/STM32/LLD/GPIOv2/hal_pal_lld.h"
 164              		.file 20 "../../modules/ChibiOS/os/hal/include/hal_serial.h"
 165              		.file 21 "../../modules/ChibiOS/os/hal/ports/STM32/LLD/USARTv1/hal_serial_lld.h"
 166              		.file 22 "../../modules/ChibiOS/os/hal/include/hal_usb.h"
 167              		.file 23 "../../modules/ChibiOS/os/hal/ports/STM32/LLD/OTGv1/hal_usb_lld.h"
 168              		.file 24 "../../modules/ChibiOS/os/hal/ports/STM32/LLD/OTGv1/stm32_otg.h"
 169              		.file 25 "../../modules/ChibiOS/os/hal/lib/streams/nullstreams.h"