ARM GAS  /tmp/ccHQbgGc.s 			page 1


   1              		.cpu cortex-m4
   2              		.eabi_attribute 27, 1
   3              		.eabi_attribute 28, 1
   4              		.eabi_attribute 20, 1
   5              		.eabi_attribute 21, 1
   6              		.eabi_attribute 23, 3
   7              		.eabi_attribute 24, 1
   8              		.eabi_attribute 25, 1
   9              		.eabi_attribute 26, 1
  10              		.eabi_attribute 30, 4
  11              		.eabi_attribute 34, 1
  12              		.eabi_attribute 18, 4
  13              		.file	"nullstreams.c"
  14              		.text
  15              	.Ltext0:
  16              		.cfi_sections	.debug_frame
  17              		.section	.text.writes,"ax",%progbits
  18              		.align	1
  19              		.syntax unified
  20              		.thumb
  21              		.thumb_func
  22              		.fpu fpv4-sp-d16
  23              		.type	writes, %function
  24              	writes:
  25              	.LFB251:
  26              		.file 1 "../../modules/ChibiOS/os/hal/lib/streams/nullstreams.c"
  27              		.loc 1 45 0
  28              		.cfi_startproc
  29              		@ args = 0, pretend = 0, frame = 0
  30              		@ frame_needed = 0, uses_anonymous_args = 0
  31              		@ link register save eliminated.
  32              	.LVL0:
  33              		.loc 1 51 0
  34 0000 1046     		mov	r0, r2
  35              	.LVL1:
  36 0002 7047     		bx	lr
  37              		.cfi_endproc
  38              	.LFE251:
  39              		.size	writes, .-writes
  40              		.section	.text.reads,"ax",%progbits
  41              		.align	1
  42              		.syntax unified
  43              		.thumb
  44              		.thumb_func
  45              		.fpu fpv4-sp-d16
  46              		.type	reads, %function
  47              	reads:
  48              	.LFB252:
  49              		.loc 1 53 0
  50              		.cfi_startproc
  51              		@ args = 0, pretend = 0, frame = 0
  52              		@ frame_needed = 0, uses_anonymous_args = 0
  53              		@ link register save eliminated.
  54              	.LVL2:
  55              		.loc 1 60 0
  56 0000 0020     		movs	r0, #0
  57              	.LVL3:
ARM GAS  /tmp/ccHQbgGc.s 			page 2


  58 0002 7047     		bx	lr
  59              		.cfi_endproc
  60              	.LFE252:
  61              		.size	reads, .-reads
  62              		.section	.text.put,"ax",%progbits
  63              		.align	1
  64              		.syntax unified
  65              		.thumb
  66              		.thumb_func
  67              		.fpu fpv4-sp-d16
  68              		.type	put, %function
  69              	put:
  70              	.LFB253:
  71              		.loc 1 62 0
  72              		.cfi_startproc
  73              		@ args = 0, pretend = 0, frame = 0
  74              		@ frame_needed = 0, uses_anonymous_args = 0
  75              		@ link register save eliminated.
  76              	.LVL4:
  77              		.loc 1 68 0
  78 0000 0020     		movs	r0, #0
  79              	.LVL5:
  80 0002 7047     		bx	lr
  81              		.cfi_endproc
  82              	.LFE253:
  83              		.size	put, .-put
  84              		.section	.text.get,"ax",%progbits
  85              		.align	1
  86              		.syntax unified
  87              		.thumb
  88              		.thumb_func
  89              		.fpu fpv4-sp-d16
  90              		.type	get, %function
  91              	get:
  92              	.LFB254:
  93              		.loc 1 70 0
  94              		.cfi_startproc
  95              		@ args = 0, pretend = 0, frame = 0
  96              		@ frame_needed = 0, uses_anonymous_args = 0
  97              		@ link register save eliminated.
  98              	.LVL6:
  99              		.loc 1 75 0
 100 0000 0420     		movs	r0, #4
 101              	.LVL7:
 102 0002 7047     		bx	lr
 103              		.cfi_endproc
 104              	.LFE254:
 105              		.size	get, .-get
 106              		.section	.text.nullObjectInit,"ax",%progbits
 107              		.align	1
 108              		.global	nullObjectInit
 109              		.syntax unified
 110              		.thumb
 111              		.thumb_func
 112              		.fpu fpv4-sp-d16
 113              		.type	nullObjectInit, %function
 114              	nullObjectInit:
ARM GAS  /tmp/ccHQbgGc.s 			page 3


 115              	.LFB255:
 116              		.loc 1 88 0
 117              		.cfi_startproc
 118              		@ args = 0, pretend = 0, frame = 0
 119              		@ frame_needed = 0, uses_anonymous_args = 0
 120              		@ link register save eliminated.
 121              	.LVL8:
 122              		.loc 1 90 0
 123 0000 014B     		ldr	r3, .L6
 124 0002 0360     		str	r3, [r0]
 125 0004 7047     		bx	lr
 126              	.L7:
 127 0006 00BF     		.align	2
 128              	.L6:
 129 0008 00000000 		.word	.LANCHOR0
 130              		.cfi_endproc
 131              	.LFE255:
 132              		.size	nullObjectInit, .-nullObjectInit
 133              		.section	.rodata.vmt,"a",%progbits
 134              		.align	2
 135              		.set	.LANCHOR0,. + 0
 136              		.type	vmt, %object
 137              		.size	vmt, 20
 138              	vmt:
 139 0000 00000000 		.word	0
 140 0004 00000000 		.word	writes
 141 0008 00000000 		.word	reads
 142 000c 00000000 		.word	put
 143 0010 00000000 		.word	get
 144              		.text
 145              	.Letext0:
 146              		.file 2 "/opt/gcc-arm-none-eabi-6-2017-q2-update/lib/gcc/arm-none-eabi/6.3.1/include/stddef.h"
 147              		.file 3 "/opt/gcc-arm-none-eabi-6-2017-q2-update/arm-none-eabi/include/machine/_default_types.h"
 148              		.file 4 "/opt/gcc-arm-none-eabi-6-2017-q2-update/arm-none-eabi/include/sys/_stdint.h"
 149              		.file 5 "../../modules/ChibiOS/os/common/ports/ARMCMx/compilers/GCC/chtypes.h"
 150              		.file 6 "../../modules/ChibiOS/os/rt/include/chsystypes.h"
 151              		.file 7 "../../modules/ChibiOS/os/rt/include/chschd.h"
 152              		.file 8 "../../modules/ChibiOS/os/rt/include/chtime.h"
 153              		.file 9 "../../modules/ChibiOS/os/common/ext/ARM/CMSIS/Core/Include/core_cm4.h"
 154              		.file 10 "../../modules/ChibiOS/os/common/ext/ST/STM32F4xx/system_stm32f4xx.h"
 155              		.file 11 "../../modules/ChibiOS/os/common/ext/ST/STM32F4xx/stm32f407xx.h"
 156              		.file 12 "../../modules/ChibiOS/os/common/ports/ARMCMx/chcore.h"
 157              		.file 13 "../../modules/ChibiOS/os/common/ports/ARMCMx/chcore_v7m.h"
 158              		.file 14 "../../modules/ChibiOS/os/rt/include/chsys.h"
 159              		.file 15 "../../modules/ChibiOS/os/hal/osal/rt/osal.h"
 160              		.file 16 "../../modules/ChibiOS/os/hal/ports/STM32/LLD/DMAv2/stm32_dma.h"
 161              		.file 17 "../../modules/ChibiOS/os/hal/include/hal_queues.h"
 162              		.file 18 "../../modules/ChibiOS/os/hal/include/hal_pal.h"
 163              		.file 19 "../../modules/ChibiOS/os/hal/ports/STM32/LLD/GPIOv2/hal_pal_lld.h"
 164              		.file 20 "../../modules/ChibiOS/os/hal/include/hal_serial.h"
 165              		.file 21 "../../modules/ChibiOS/os/hal/ports/STM32/LLD/USARTv1/hal_serial_lld.h"
 166              		.file 22 "../../modules/ChibiOS/os/hal/include/hal_usb.h"
 167              		.file 23 "../../modules/ChibiOS/os/hal/ports/STM32/LLD/OTGv1/hal_usb_lld.h"
 168              		.file 24 "../../modules/ChibiOS/os/hal/ports/STM32/LLD/OTGv1/stm32_otg.h"
 169              		.file 25 "../../modules/ChibiOS/os/hal/lib/streams/nullstreams.h"
 170              		.section	.debug_info,"",%progbits
 171              	.Ldebug_info0:
ARM GAS  /tmp/ccHQbgGc.s 			page 4


 172 0000 5C170000 		.4byte	0x175c
 173 0004 0400     		.2byte	0x4
 174 0006 00000000 		.4byte	.Ldebug_abbrev0
 175 000a 04       		.byte	0x4
 176 000b 01       		.uleb128 0x1
 177 000c 27030000 		.4byte	.LASF287
 178 0010 0C       		.byte	0xc
 179 0011 3D040000 		.4byte	.LASF288
 180 0015 FD090000 		.4byte	.LASF289
 181 0019 00000000 		.4byte	.Ldebug_ranges0+0
 182 001d 00000000 		.4byte	0
 183 0021 00000000 		.4byte	.Ldebug_line0
 184 0025 02       		.uleb128 0x2
 185 0026 04       		.byte	0x4
 186 0027 05       		.byte	0x5
 187 0028 696E7400 		.ascii	"int\000"
 188 002c 03       		.uleb128 0x3
 189 002d 18000000 		.4byte	.LASF4
 190 0031 02       		.byte	0x2
 191 0032 D8       		.byte	0xd8
 192 0033 3C000000 		.4byte	0x3c
 193 0037 04       		.uleb128 0x4
 194 0038 2C000000 		.4byte	0x2c
 195 003c 05       		.uleb128 0x5
 196 003d 04       		.byte	0x4
 197 003e 07       		.byte	0x7
 198 003f 4E080000 		.4byte	.LASF0
 199 0043 05       		.uleb128 0x5
 200 0044 08       		.byte	0x8
 201 0045 05       		.byte	0x5
 202 0046 8C070000 		.4byte	.LASF1
 203 004a 05       		.uleb128 0x5
 204 004b 08       		.byte	0x8
 205 004c 04       		.byte	0x4
 206 004d EC080000 		.4byte	.LASF2
 207 0051 05       		.uleb128 0x5
 208 0052 01       		.byte	0x1
 209 0053 06       		.byte	0x6
 210 0054 E1010000 		.4byte	.LASF3
 211 0058 03       		.uleb128 0x3
 212 0059 01010000 		.4byte	.LASF5
 213 005d 03       		.byte	0x3
 214 005e 2B       		.byte	0x2b
 215 005f 63000000 		.4byte	0x63
 216 0063 05       		.uleb128 0x5
 217 0064 01       		.byte	0x1
 218 0065 08       		.byte	0x8
 219 0066 23020000 		.4byte	.LASF6
 220 006a 05       		.uleb128 0x5
 221 006b 02       		.byte	0x2
 222 006c 05       		.byte	0x5
 223 006d 3A0B0000 		.4byte	.LASF7
 224 0071 03       		.uleb128 0x3
 225 0072 00030000 		.4byte	.LASF8
 226 0076 03       		.byte	0x3
 227 0077 39       		.byte	0x39
 228 0078 7C000000 		.4byte	0x7c
ARM GAS  /tmp/ccHQbgGc.s 			page 5


 229 007c 05       		.uleb128 0x5
 230 007d 02       		.byte	0x2
 231 007e 07       		.byte	0x7
 232 007f 880C0000 		.4byte	.LASF9
 233 0083 03       		.uleb128 0x3
 234 0084 EA0C0000 		.4byte	.LASF10
 235 0088 03       		.byte	0x3
 236 0089 4D       		.byte	0x4d
 237 008a 8E000000 		.4byte	0x8e
 238 008e 05       		.uleb128 0x5
 239 008f 04       		.byte	0x4
 240 0090 05       		.byte	0x5
 241 0091 5A010000 		.4byte	.LASF11
 242 0095 03       		.uleb128 0x3
 243 0096 70070000 		.4byte	.LASF12
 244 009a 03       		.byte	0x3
 245 009b 4F       		.byte	0x4f
 246 009c A0000000 		.4byte	0xa0
 247 00a0 05       		.uleb128 0x5
 248 00a1 04       		.byte	0x4
 249 00a2 07       		.byte	0x7
 250 00a3 FF050000 		.4byte	.LASF13
 251 00a7 03       		.uleb128 0x3
 252 00a8 E4050000 		.4byte	.LASF14
 253 00ac 03       		.byte	0x3
 254 00ad 69       		.byte	0x69
 255 00ae B2000000 		.4byte	0xb2
 256 00b2 05       		.uleb128 0x5
 257 00b3 08       		.byte	0x8
 258 00b4 07       		.byte	0x7
 259 00b5 71090000 		.4byte	.LASF15
 260 00b9 03       		.uleb128 0x3
 261 00ba ED010000 		.4byte	.LASF16
 262 00be 04       		.byte	0x4
 263 00bf 18       		.byte	0x18
 264 00c0 58000000 		.4byte	0x58
 265 00c4 06       		.uleb128 0x6
 266 00c5 B9000000 		.4byte	0xb9
 267 00c9 03       		.uleb128 0x3
 268 00ca 91090000 		.4byte	.LASF17
 269 00ce 04       		.byte	0x4
 270 00cf 24       		.byte	0x24
 271 00d0 71000000 		.4byte	0x71
 272 00d4 03       		.uleb128 0x3
 273 00d5 5D000000 		.4byte	.LASF18
 274 00d9 04       		.byte	0x4
 275 00da 2C       		.byte	0x2c
 276 00db 83000000 		.4byte	0x83
 277 00df 04       		.uleb128 0x4
 278 00e0 D4000000 		.4byte	0xd4
 279 00e4 03       		.uleb128 0x3
 280 00e5 520C0000 		.4byte	.LASF19
 281 00e9 04       		.byte	0x4
 282 00ea 30       		.byte	0x30
 283 00eb 95000000 		.4byte	0x95
 284 00ef 04       		.uleb128 0x4
 285 00f0 E4000000 		.4byte	0xe4
ARM GAS  /tmp/ccHQbgGc.s 			page 6


 286 00f4 03       		.uleb128 0x3
 287 00f5 510B0000 		.4byte	.LASF20
 288 00f9 04       		.byte	0x4
 289 00fa 3C       		.byte	0x3c
 290 00fb A7000000 		.4byte	0xa7
 291 00ff 03       		.uleb128 0x3
 292 0100 E80A0000 		.4byte	.LASF21
 293 0104 05       		.byte	0x5
 294 0105 2A       		.byte	0x2a
 295 0106 B9000000 		.4byte	0xb9
 296 010a 03       		.uleb128 0x3
 297 010b 6B010000 		.4byte	.LASF22
 298 010f 05       		.byte	0x5
 299 0110 2B       		.byte	0x2b
 300 0111 B9000000 		.4byte	0xb9
 301 0115 03       		.uleb128 0x3
 302 0116 32000000 		.4byte	.LASF23
 303 011a 05       		.byte	0x5
 304 011b 2E       		.byte	0x2e
 305 011c E4000000 		.4byte	0xe4
 306 0120 03       		.uleb128 0x3
 307 0121 9A090000 		.4byte	.LASF24
 308 0125 05       		.byte	0x5
 309 0126 2F       		.byte	0x2f
 310 0127 D4000000 		.4byte	0xd4
 311 012b 03       		.uleb128 0x3
 312 012c C8090000 		.4byte	.LASF25
 313 0130 05       		.byte	0x5
 314 0131 32       		.byte	0x32
 315 0132 E4000000 		.4byte	0xe4
 316 0136 04       		.uleb128 0x4
 317 0137 2B010000 		.4byte	0x12b
 318 013b 03       		.uleb128 0x3
 319 013c E3080000 		.4byte	.LASF26
 320 0140 06       		.byte	0x6
 321 0141 34       		.byte	0x34
 322 0142 46010000 		.4byte	0x146
 323 0146 07       		.uleb128 0x7
 324 0147 45060000 		.4byte	.LASF33
 325 014b 18       		.byte	0x18
 326 014c 07       		.byte	0x7
 327 014d 8E       		.byte	0x8e
 328 014e 9A010000 		.4byte	0x19a
 329 0152 08       		.uleb128 0x8
 330 0153 F0090000 		.4byte	.LASF27
 331 0157 07       		.byte	0x7
 332 0158 8F       		.byte	0x8f
 333 0159 AB010000 		.4byte	0x1ab
 334 015d 00       		.byte	0
 335 015e 08       		.uleb128 0x8
 336 015f F3000000 		.4byte	.LASF28
 337 0163 07       		.byte	0x7
 338 0164 90       		.byte	0x90
 339 0165 15010000 		.4byte	0x115
 340 0169 08       		.byte	0x8
 341 016a 09       		.uleb128 0x9
 342 016b 63747800 		.ascii	"ctx\000"
ARM GAS  /tmp/ccHQbgGc.s 			page 7


 343 016f 07       		.byte	0x7
 344 0170 91       		.byte	0x91
 345 0171 D1040000 		.4byte	0x4d1
 346 0175 0C       		.byte	0xc
 347 0176 08       		.uleb128 0x8
 348 0177 D5000000 		.4byte	.LASF29
 349 017b 07       		.byte	0x7
 350 017c A9       		.byte	0xa9
 351 017d 0A010000 		.4byte	0x10a
 352 0181 10       		.byte	0x10
 353 0182 08       		.uleb128 0x8
 354 0183 BE020000 		.4byte	.LASF30
 355 0187 07       		.byte	0x7
 356 0188 AD       		.byte	0xad
 357 0189 FF000000 		.4byte	0xff
 358 018d 11       		.byte	0x11
 359 018e 0A       		.uleb128 0xa
 360 018f 7500     		.ascii	"u\000"
 361 0191 07       		.byte	0x7
 362 0192 0301     		.2byte	0x103
 363 0194 3B060000 		.4byte	0x63b
 364 0198 14       		.byte	0x14
 365 0199 00       		.byte	0
 366 019a 03       		.uleb128 0x3
 367 019b F8080000 		.4byte	.LASF31
 368 019f 06       		.byte	0x6
 369 01a0 39       		.byte	0x39
 370 01a1 A5010000 		.4byte	0x1a5
 371 01a5 0B       		.uleb128 0xb
 372 01a6 04       		.byte	0x4
 373 01a7 3B010000 		.4byte	0x13b
 374 01ab 03       		.uleb128 0x3
 375 01ac 88010000 		.4byte	.LASF32
 376 01b0 06       		.byte	0x6
 377 01b1 45       		.byte	0x45
 378 01b2 B6010000 		.4byte	0x1b6
 379 01b6 07       		.uleb128 0x7
 380 01b7 A5090000 		.4byte	.LASF34
 381 01bb 08       		.byte	0x8
 382 01bc 07       		.byte	0x7
 383 01bd 83       		.byte	0x83
 384 01be DB010000 		.4byte	0x1db
 385 01c2 08       		.uleb128 0x8
 386 01c3 130D0000 		.4byte	.LASF35
 387 01c7 07       		.byte	0x7
 388 01c8 84       		.byte	0x84
 389 01c9 A5010000 		.4byte	0x1a5
 390 01cd 00       		.byte	0
 391 01ce 08       		.uleb128 0x8
 392 01cf 1F0D0000 		.4byte	.LASF36
 393 01d3 07       		.byte	0x7
 394 01d4 85       		.byte	0x85
 395 01d5 A5010000 		.4byte	0x1a5
 396 01d9 04       		.byte	0x4
 397 01da 00       		.byte	0
 398 01db 03       		.uleb128 0x3
 399 01dc C8060000 		.4byte	.LASF37
ARM GAS  /tmp/ccHQbgGc.s 			page 8


 400 01e0 06       		.byte	0x6
 401 01e1 4C       		.byte	0x4c
 402 01e2 E6010000 		.4byte	0x1e6
 403 01e6 0C       		.uleb128 0xc
 404 01e7 6E050000 		.4byte	.LASF38
 405 01eb 14       		.byte	0x14
 406 01ec 07       		.byte	0x7
 407 01ed 5E01     		.2byte	0x15e
 408 01ef 28020000 		.4byte	0x228
 409 01f3 0D       		.uleb128 0xd
 410 01f4 F0090000 		.4byte	.LASF27
 411 01f8 07       		.byte	0x7
 412 01f9 5F01     		.2byte	0x15f
 413 01fb AB010000 		.4byte	0x1ab
 414 01ff 00       		.byte	0
 415 0200 0D       		.uleb128 0xd
 416 0201 F3000000 		.4byte	.LASF28
 417 0205 07       		.byte	0x7
 418 0206 6001     		.2byte	0x160
 419 0208 15010000 		.4byte	0x115
 420 020c 08       		.byte	0x8
 421 020d 0A       		.uleb128 0xa
 422 020e 63747800 		.ascii	"ctx\000"
 423 0212 07       		.byte	0x7
 424 0213 6201     		.2byte	0x162
 425 0215 D1040000 		.4byte	0x4d1
 426 0219 0C       		.byte	0xc
 427 021a 0D       		.uleb128 0xd
 428 021b 8A080000 		.4byte	.LASF39
 429 021f 07       		.byte	0x7
 430 0220 6901     		.2byte	0x169
 431 0222 A5010000 		.4byte	0x1a5
 432 0226 10       		.byte	0x10
 433 0227 00       		.byte	0
 434 0228 03       		.uleb128 0x3
 435 0229 87000000 		.4byte	.LASF40
 436 022d 06       		.byte	0x6
 437 022e 51       		.byte	0x51
 438 022f 33020000 		.4byte	0x233
 439 0233 0B       		.uleb128 0xb
 440 0234 04       		.byte	0x4
 441 0235 39020000 		.4byte	0x239
 442 0239 0E       		.uleb128 0xe
 443 023a 44020000 		.4byte	0x244
 444 023e 0F       		.uleb128 0xf
 445 023f 44020000 		.4byte	0x244
 446 0243 00       		.byte	0
 447 0244 10       		.uleb128 0x10
 448 0245 04       		.byte	0x4
 449 0246 03       		.uleb128 0x3
 450 0247 B8060000 		.4byte	.LASF41
 451 024b 06       		.byte	0x6
 452 024c 56       		.byte	0x56
 453 024d 51020000 		.4byte	0x251
 454 0251 0C       		.uleb128 0xc
 455 0252 43090000 		.4byte	.LASF42
 456 0256 14       		.byte	0x14
ARM GAS  /tmp/ccHQbgGc.s 			page 9


 457 0257 07       		.byte	0x7
 458 0258 3901     		.2byte	0x139
 459 025a A0020000 		.4byte	0x2a0
 460 025e 0D       		.uleb128 0xd
 461 025f 130D0000 		.4byte	.LASF35
 462 0263 07       		.byte	0x7
 463 0264 3A01     		.2byte	0x13a
 464 0266 76060000 		.4byte	0x676
 465 026a 00       		.byte	0
 466 026b 0D       		.uleb128 0xd
 467 026c 1F0D0000 		.4byte	.LASF36
 468 0270 07       		.byte	0x7
 469 0271 3B01     		.2byte	0x13b
 470 0273 76060000 		.4byte	0x676
 471 0277 04       		.byte	0x4
 472 0278 0D       		.uleb128 0xd
 473 0279 EA090000 		.4byte	.LASF43
 474 027d 07       		.byte	0x7
 475 027e 3C01     		.2byte	0x13c
 476 0280 6B030000 		.4byte	0x36b
 477 0284 08       		.byte	0x8
 478 0285 0D       		.uleb128 0xd
 479 0286 5A0B0000 		.4byte	.LASF44
 480 028a 07       		.byte	0x7
 481 028b 3D01     		.2byte	0x13d
 482 028d 28020000 		.4byte	0x228
 483 0291 0C       		.byte	0xc
 484 0292 0A       		.uleb128 0xa
 485 0293 70617200 		.ascii	"par\000"
 486 0297 07       		.byte	0x7
 487 0298 3F01     		.2byte	0x13f
 488 029a 44020000 		.4byte	0x244
 489 029e 10       		.byte	0x10
 490 029f 00       		.byte	0
 491 02a0 03       		.uleb128 0x3
 492 02a1 61060000 		.4byte	.LASF45
 493 02a5 06       		.byte	0x6
 494 02a6 5B       		.byte	0x5b
 495 02a7 AB020000 		.4byte	0x2ab
 496 02ab 0C       		.uleb128 0xc
 497 02ac 97000000 		.4byte	.LASF46
 498 02b0 10       		.byte	0x10
 499 02b1 07       		.byte	0x7
 500 02b2 4901     		.2byte	0x149
 501 02b4 ED020000 		.4byte	0x2ed
 502 02b8 0D       		.uleb128 0xd
 503 02b9 130D0000 		.4byte	.LASF35
 504 02bd 07       		.byte	0x7
 505 02be 4A01     		.2byte	0x14a
 506 02c0 76060000 		.4byte	0x676
 507 02c4 00       		.byte	0
 508 02c5 0D       		.uleb128 0xd
 509 02c6 1F0D0000 		.4byte	.LASF36
 510 02ca 07       		.byte	0x7
 511 02cb 4C01     		.2byte	0x14c
 512 02cd 76060000 		.4byte	0x676
 513 02d1 04       		.byte	0x4
ARM GAS  /tmp/ccHQbgGc.s 			page 10


 514 02d2 0D       		.uleb128 0xd
 515 02d3 EA090000 		.4byte	.LASF43
 516 02d7 07       		.byte	0x7
 517 02d8 4E01     		.2byte	0x14e
 518 02da 6B030000 		.4byte	0x36b
 519 02de 08       		.byte	0x8
 520 02df 0D       		.uleb128 0xd
 521 02e0 46020000 		.4byte	.LASF47
 522 02e4 07       		.byte	0x7
 523 02e5 5601     		.2byte	0x156
 524 02e7 60030000 		.4byte	0x360
 525 02eb 0C       		.byte	0xc
 526 02ec 00       		.byte	0
 527 02ed 03       		.uleb128 0x3
 528 02ee 76020000 		.4byte	.LASF48
 529 02f2 06       		.byte	0x6
 530 02f3 60       		.byte	0x60
 531 02f4 F8020000 		.4byte	0x2f8
 532 02f8 0C       		.uleb128 0xc
 533 02f9 960B0000 		.4byte	.LASF49
 534 02fd 04       		.byte	0x4
 535 02fe 07       		.byte	0x7
 536 02ff 7001     		.2byte	0x170
 537 0301 13030000 		.4byte	0x313
 538 0305 0D       		.uleb128 0xd
 539 0306 4F020000 		.4byte	.LASF50
 540 030a 07       		.byte	0x7
 541 030b 7801     		.2byte	0x178
 542 030d 82060000 		.4byte	0x682
 543 0311 00       		.byte	0
 544 0312 00       		.byte	0
 545 0313 03       		.uleb128 0x3
 546 0314 B20C0000 		.4byte	.LASF51
 547 0318 06       		.byte	0x6
 548 0319 65       		.byte	0x65
 549 031a 1E030000 		.4byte	0x31e
 550 031e 0C       		.uleb128 0xc
 551 031f 400C0000 		.4byte	.LASF52
 552 0323 40       		.byte	0x40
 553 0324 07       		.byte	0x7
 554 0325 9001     		.2byte	0x190
 555 0327 60030000 		.4byte	0x360
 556 032b 0D       		.uleb128 0xd
 557 032c CB0A0000 		.4byte	.LASF53
 558 0330 07       		.byte	0x7
 559 0331 9401     		.2byte	0x194
 560 0333 DB010000 		.4byte	0x1db
 561 0337 00       		.byte	0
 562 0338 0D       		.uleb128 0xd
 563 0339 EE0B0000 		.4byte	.LASF54
 564 033d 07       		.byte	0x7
 565 033e 9801     		.2byte	0x198
 566 0340 A0020000 		.4byte	0x2a0
 567 0344 14       		.byte	0x14
 568 0345 0A       		.uleb128 0xa
 569 0346 64626700 		.ascii	"dbg\000"
 570 034a 07       		.byte	0x7
ARM GAS  /tmp/ccHQbgGc.s 			page 11


 571 034b 9C01     		.2byte	0x19c
 572 034d ED020000 		.4byte	0x2ed
 573 0351 24       		.byte	0x24
 574 0352 0D       		.uleb128 0xd
 575 0353 2D0A0000 		.4byte	.LASF55
 576 0357 07       		.byte	0x7
 577 0358 A001     		.2byte	0x1a0
 578 035a 3B010000 		.4byte	0x13b
 579 035e 28       		.byte	0x28
 580 035f 00       		.byte	0
 581 0360 03       		.uleb128 0x3
 582 0361 28000000 		.4byte	.LASF56
 583 0365 08       		.byte	0x8
 584 0366 6D       		.byte	0x6d
 585 0367 E4000000 		.4byte	0xe4
 586 036b 03       		.uleb128 0x3
 587 036c AC070000 		.4byte	.LASF57
 588 0370 08       		.byte	0x8
 589 0371 79       		.byte	0x79
 590 0372 E4000000 		.4byte	0xe4
 591 0376 05       		.uleb128 0x5
 592 0377 04       		.byte	0x4
 593 0378 07       		.byte	0x7
 594 0379 1F000000 		.4byte	.LASF58
 595 037d 11       		.uleb128 0x11
 596 037e 0A080000 		.4byte	.LASF59
 597 0382 09       		.byte	0x9
 598 0383 0408     		.2byte	0x804
 599 0385 DF000000 		.4byte	0xdf
 600 0389 12       		.uleb128 0x12
 601 038a 26060000 		.4byte	.LASF60
 602 038e 0A       		.byte	0xa
 603 038f 4C       		.byte	0x4c
 604 0390 E4000000 		.4byte	0xe4
 605 0394 13       		.uleb128 0x13
 606 0395 C4000000 		.4byte	0xc4
 607 0399 A4030000 		.4byte	0x3a4
 608 039d 14       		.uleb128 0x14
 609 039e 76030000 		.4byte	0x376
 610 03a2 0F       		.byte	0xf
 611 03a3 00       		.byte	0
 612 03a4 06       		.uleb128 0x6
 613 03a5 94030000 		.4byte	0x394
 614 03a9 12       		.uleb128 0x12
 615 03aa 35090000 		.4byte	.LASF61
 616 03ae 0A       		.byte	0xa
 617 03af 4E       		.byte	0x4e
 618 03b0 A4030000 		.4byte	0x3a4
 619 03b4 13       		.uleb128 0x13
 620 03b5 C4000000 		.4byte	0xc4
 621 03b9 C4030000 		.4byte	0x3c4
 622 03bd 14       		.uleb128 0x14
 623 03be 76030000 		.4byte	0x376
 624 03c2 07       		.byte	0x7
 625 03c3 00       		.byte	0
 626 03c4 06       		.uleb128 0x6
 627 03c5 B4030000 		.4byte	0x3b4
ARM GAS  /tmp/ccHQbgGc.s 			page 12


 628 03c9 12       		.uleb128 0x12
 629 03ca 2C0B0000 		.4byte	.LASF62
 630 03ce 0A       		.byte	0xa
 631 03cf 4F       		.byte	0x4f
 632 03d0 C4030000 		.4byte	0x3c4
 633 03d4 15       		.uleb128 0x15
 634 03d5 18       		.byte	0x18
 635 03d6 0B       		.byte	0xb
 636 03d7 6A01     		.2byte	0x16a
 637 03d9 2B040000 		.4byte	0x42b
 638 03dd 0A       		.uleb128 0xa
 639 03de 435200   		.ascii	"CR\000"
 640 03e1 0B       		.byte	0xb
 641 03e2 6C01     		.2byte	0x16c
 642 03e4 EF000000 		.4byte	0xef
 643 03e8 00       		.byte	0
 644 03e9 0D       		.uleb128 0xd
 645 03ea FC0C0000 		.4byte	.LASF63
 646 03ee 0B       		.byte	0xb
 647 03ef 6D01     		.2byte	0x16d
 648 03f1 EF000000 		.4byte	0xef
 649 03f5 04       		.byte	0x4
 650 03f6 0A       		.uleb128 0xa
 651 03f7 50415200 		.ascii	"PAR\000"
 652 03fb 0B       		.byte	0xb
 653 03fc 6E01     		.2byte	0x16e
 654 03fe EF000000 		.4byte	0xef
 655 0402 08       		.byte	0x8
 656 0403 0D       		.uleb128 0xd
 657 0404 270B0000 		.4byte	.LASF64
 658 0408 0B       		.byte	0xb
 659 0409 6F01     		.2byte	0x16f
 660 040b EF000000 		.4byte	0xef
 661 040f 0C       		.byte	0xc
 662 0410 0D       		.uleb128 0xd
 663 0411 00000000 		.4byte	.LASF65
 664 0415 0B       		.byte	0xb
 665 0416 7001     		.2byte	0x170
 666 0418 EF000000 		.4byte	0xef
 667 041c 10       		.byte	0x10
 668 041d 0A       		.uleb128 0xa
 669 041e 46435200 		.ascii	"FCR\000"
 670 0422 0B       		.byte	0xb
 671 0423 7101     		.2byte	0x171
 672 0425 EF000000 		.4byte	0xef
 673 0429 14       		.byte	0x14
 674 042a 00       		.byte	0
 675 042b 16       		.uleb128 0x16
 676 042c B5080000 		.4byte	.LASF66
 677 0430 0B       		.byte	0xb
 678 0431 7201     		.2byte	0x172
 679 0433 D4030000 		.4byte	0x3d4
 680 0437 15       		.uleb128 0x15
 681 0438 1C       		.byte	0x1c
 682 0439 0B       		.byte	0xb
 683 043a 0703     		.2byte	0x307
 684 043c 9A040000 		.4byte	0x49a
ARM GAS  /tmp/ccHQbgGc.s 			page 13


 685 0440 0A       		.uleb128 0xa
 686 0441 535200   		.ascii	"SR\000"
 687 0444 0B       		.byte	0xb
 688 0445 0903     		.2byte	0x309
 689 0447 EF000000 		.4byte	0xef
 690 044b 00       		.byte	0
 691 044c 0A       		.uleb128 0xa
 692 044d 445200   		.ascii	"DR\000"
 693 0450 0B       		.byte	0xb
 694 0451 0A03     		.2byte	0x30a
 695 0453 EF000000 		.4byte	0xef
 696 0457 04       		.byte	0x4
 697 0458 0A       		.uleb128 0xa
 698 0459 42525200 		.ascii	"BRR\000"
 699 045d 0B       		.byte	0xb
 700 045e 0B03     		.2byte	0x30b
 701 0460 EF000000 		.4byte	0xef
 702 0464 08       		.byte	0x8
 703 0465 0A       		.uleb128 0xa
 704 0466 43523100 		.ascii	"CR1\000"
 705 046a 0B       		.byte	0xb
 706 046b 0C03     		.2byte	0x30c
 707 046d EF000000 		.4byte	0xef
 708 0471 0C       		.byte	0xc
 709 0472 0A       		.uleb128 0xa
 710 0473 43523200 		.ascii	"CR2\000"
 711 0477 0B       		.byte	0xb
 712 0478 0D03     		.2byte	0x30d
 713 047a EF000000 		.4byte	0xef
 714 047e 10       		.byte	0x10
 715 047f 0A       		.uleb128 0xa
 716 0480 43523300 		.ascii	"CR3\000"
 717 0484 0B       		.byte	0xb
 718 0485 0E03     		.2byte	0x30e
 719 0487 EF000000 		.4byte	0xef
 720 048b 14       		.byte	0x14
 721 048c 0D       		.uleb128 0xd
 722 048d CB070000 		.4byte	.LASF67
 723 0491 0B       		.byte	0xb
 724 0492 0F03     		.2byte	0x30f
 725 0494 EF000000 		.4byte	0xef
 726 0498 18       		.byte	0x18
 727 0499 00       		.byte	0
 728 049a 16       		.uleb128 0x16
 729 049b 8A040000 		.4byte	.LASF68
 730 049f 0B       		.byte	0xb
 731 04a0 1003     		.2byte	0x310
 732 04a2 37040000 		.4byte	0x437
 733 04a6 13       		.uleb128 0x13
 734 04a7 EF000000 		.4byte	0xef
 735 04ab B6040000 		.4byte	0x4b6
 736 04af 14       		.uleb128 0x14
 737 04b0 76030000 		.4byte	0x376
 738 04b4 0E       		.byte	0xe
 739 04b5 00       		.byte	0
 740 04b6 04       		.uleb128 0x4
 741 04b7 A6040000 		.4byte	0x4a6
ARM GAS  /tmp/ccHQbgGc.s 			page 14


 742 04bb 03       		.uleb128 0x3
 743 04bc A5010000 		.4byte	.LASF69
 744 04c0 0C       		.byte	0xc
 745 04c1 65       		.byte	0x65
 746 04c2 44020000 		.4byte	0x244
 747 04c6 03       		.uleb128 0x3
 748 04c7 7F040000 		.4byte	.LASF70
 749 04cb 0C       		.byte	0xc
 750 04cc 6D       		.byte	0x6d
 751 04cd F4000000 		.4byte	0xf4
 752 04d1 07       		.uleb128 0x7
 753 04d2 1B0C0000 		.4byte	.LASF71
 754 04d6 04       		.byte	0x4
 755 04d7 0C       		.byte	0xc
 756 04d8 89       		.byte	0x89
 757 04d9 E9040000 		.4byte	0x4e9
 758 04dd 09       		.uleb128 0x9
 759 04de 737000   		.ascii	"sp\000"
 760 04e1 0C       		.byte	0xc
 761 04e2 8A       		.byte	0x8a
 762 04e3 35060000 		.4byte	0x635
 763 04e7 00       		.byte	0
 764 04e8 00       		.byte	0
 765 04e9 0C       		.uleb128 0xc
 766 04ea 0B090000 		.4byte	.LASF72
 767 04ee 64       		.byte	0x64
 768 04ef 0D       		.byte	0xd
 769 04f0 5901     		.2byte	0x159
 770 04f2 35060000 		.4byte	0x635
 771 04f6 0A       		.uleb128 0xa
 772 04f7 73313600 		.ascii	"s16\000"
 773 04fb 0D       		.byte	0xd
 774 04fc 5B01     		.2byte	0x15b
 775 04fe BB040000 		.4byte	0x4bb
 776 0502 00       		.byte	0
 777 0503 0A       		.uleb128 0xa
 778 0504 73313700 		.ascii	"s17\000"
 779 0508 0D       		.byte	0xd
 780 0509 5C01     		.2byte	0x15c
 781 050b BB040000 		.4byte	0x4bb
 782 050f 04       		.byte	0x4
 783 0510 0A       		.uleb128 0xa
 784 0511 73313800 		.ascii	"s18\000"
 785 0515 0D       		.byte	0xd
 786 0516 5D01     		.2byte	0x15d
 787 0518 BB040000 		.4byte	0x4bb
 788 051c 08       		.byte	0x8
 789 051d 0A       		.uleb128 0xa
 790 051e 73313900 		.ascii	"s19\000"
 791 0522 0D       		.byte	0xd
 792 0523 5E01     		.2byte	0x15e
 793 0525 BB040000 		.4byte	0x4bb
 794 0529 0C       		.byte	0xc
 795 052a 0A       		.uleb128 0xa
 796 052b 73323000 		.ascii	"s20\000"
 797 052f 0D       		.byte	0xd
 798 0530 5F01     		.2byte	0x15f
ARM GAS  /tmp/ccHQbgGc.s 			page 15


 799 0532 BB040000 		.4byte	0x4bb
 800 0536 10       		.byte	0x10
 801 0537 0A       		.uleb128 0xa
 802 0538 73323100 		.ascii	"s21\000"
 803 053c 0D       		.byte	0xd
 804 053d 6001     		.2byte	0x160
 805 053f BB040000 		.4byte	0x4bb
 806 0543 14       		.byte	0x14
 807 0544 0A       		.uleb128 0xa
 808 0545 73323200 		.ascii	"s22\000"
 809 0549 0D       		.byte	0xd
 810 054a 6101     		.2byte	0x161
 811 054c BB040000 		.4byte	0x4bb
 812 0550 18       		.byte	0x18
 813 0551 0A       		.uleb128 0xa
 814 0552 73323300 		.ascii	"s23\000"
 815 0556 0D       		.byte	0xd
 816 0557 6201     		.2byte	0x162
 817 0559 BB040000 		.4byte	0x4bb
 818 055d 1C       		.byte	0x1c
 819 055e 0A       		.uleb128 0xa
 820 055f 73323400 		.ascii	"s24\000"
 821 0563 0D       		.byte	0xd
 822 0564 6301     		.2byte	0x163
 823 0566 BB040000 		.4byte	0x4bb
 824 056a 20       		.byte	0x20
 825 056b 0A       		.uleb128 0xa
 826 056c 73323500 		.ascii	"s25\000"
 827 0570 0D       		.byte	0xd
 828 0571 6401     		.2byte	0x164
 829 0573 BB040000 		.4byte	0x4bb
 830 0577 24       		.byte	0x24
 831 0578 0A       		.uleb128 0xa
 832 0579 73323600 		.ascii	"s26\000"
 833 057d 0D       		.byte	0xd
 834 057e 6501     		.2byte	0x165
 835 0580 BB040000 		.4byte	0x4bb
 836 0584 28       		.byte	0x28
 837 0585 0A       		.uleb128 0xa
 838 0586 73323700 		.ascii	"s27\000"
 839 058a 0D       		.byte	0xd
 840 058b 6601     		.2byte	0x166
 841 058d BB040000 		.4byte	0x4bb
 842 0591 2C       		.byte	0x2c
 843 0592 0A       		.uleb128 0xa
 844 0593 73323800 		.ascii	"s28\000"
 845 0597 0D       		.byte	0xd
 846 0598 6701     		.2byte	0x167
 847 059a BB040000 		.4byte	0x4bb
 848 059e 30       		.byte	0x30
 849 059f 0A       		.uleb128 0xa
 850 05a0 73323900 		.ascii	"s29\000"
 851 05a4 0D       		.byte	0xd
 852 05a5 6801     		.2byte	0x168
 853 05a7 BB040000 		.4byte	0x4bb
 854 05ab 34       		.byte	0x34
 855 05ac 0A       		.uleb128 0xa
ARM GAS  /tmp/ccHQbgGc.s 			page 16


 856 05ad 73333000 		.ascii	"s30\000"
 857 05b1 0D       		.byte	0xd
 858 05b2 6901     		.2byte	0x169
 859 05b4 BB040000 		.4byte	0x4bb
 860 05b8 38       		.byte	0x38
 861 05b9 0A       		.uleb128 0xa
 862 05ba 73333100 		.ascii	"s31\000"
 863 05be 0D       		.byte	0xd
 864 05bf 6A01     		.2byte	0x16a
 865 05c1 BB040000 		.4byte	0x4bb
 866 05c5 3C       		.byte	0x3c
 867 05c6 0A       		.uleb128 0xa
 868 05c7 723400   		.ascii	"r4\000"
 869 05ca 0D       		.byte	0xd
 870 05cb 6C01     		.2byte	0x16c
 871 05cd BB040000 		.4byte	0x4bb
 872 05d1 40       		.byte	0x40
 873 05d2 0A       		.uleb128 0xa
 874 05d3 723500   		.ascii	"r5\000"
 875 05d6 0D       		.byte	0xd
 876 05d7 6D01     		.2byte	0x16d
 877 05d9 BB040000 		.4byte	0x4bb
 878 05dd 44       		.byte	0x44
 879 05de 0A       		.uleb128 0xa
 880 05df 723600   		.ascii	"r6\000"
 881 05e2 0D       		.byte	0xd
 882 05e3 6E01     		.2byte	0x16e
 883 05e5 BB040000 		.4byte	0x4bb
 884 05e9 48       		.byte	0x48
 885 05ea 0A       		.uleb128 0xa
 886 05eb 723700   		.ascii	"r7\000"
 887 05ee 0D       		.byte	0xd
 888 05ef 6F01     		.2byte	0x16f
 889 05f1 BB040000 		.4byte	0x4bb
 890 05f5 4C       		.byte	0x4c
 891 05f6 0A       		.uleb128 0xa
 892 05f7 723800   		.ascii	"r8\000"
 893 05fa 0D       		.byte	0xd
 894 05fb 7001     		.2byte	0x170
 895 05fd BB040000 		.4byte	0x4bb
 896 0601 50       		.byte	0x50
 897 0602 0A       		.uleb128 0xa
 898 0603 723900   		.ascii	"r9\000"
 899 0606 0D       		.byte	0xd
 900 0607 7101     		.2byte	0x171
 901 0609 BB040000 		.4byte	0x4bb
 902 060d 54       		.byte	0x54
 903 060e 0A       		.uleb128 0xa
 904 060f 72313000 		.ascii	"r10\000"
 905 0613 0D       		.byte	0xd
 906 0614 7201     		.2byte	0x172
 907 0616 BB040000 		.4byte	0x4bb
 908 061a 58       		.byte	0x58
 909 061b 0A       		.uleb128 0xa
 910 061c 72313100 		.ascii	"r11\000"
 911 0620 0D       		.byte	0xd
 912 0621 7301     		.2byte	0x173
ARM GAS  /tmp/ccHQbgGc.s 			page 17


 913 0623 BB040000 		.4byte	0x4bb
 914 0627 5C       		.byte	0x5c
 915 0628 0A       		.uleb128 0xa
 916 0629 6C7200   		.ascii	"lr\000"
 917 062c 0D       		.byte	0xd
 918 062d 7401     		.2byte	0x174
 919 062f BB040000 		.4byte	0x4bb
 920 0633 60       		.byte	0x60
 921 0634 00       		.byte	0
 922 0635 0B       		.uleb128 0xb
 923 0636 04       		.byte	0x4
 924 0637 E9040000 		.4byte	0x4e9
 925 063b 17       		.uleb128 0x17
 926 063c 04       		.byte	0x4
 927 063d 07       		.byte	0x7
 928 063e C6       		.byte	0xc6
 929 063f 70060000 		.4byte	0x670
 930 0643 18       		.uleb128 0x18
 931 0644 810C0000 		.4byte	.LASF73
 932 0648 07       		.byte	0x7
 933 0649 CD       		.byte	0xcd
 934 064a 20010000 		.4byte	0x120
 935 064e 18       		.uleb128 0x18
 936 064f F8000000 		.4byte	.LASF74
 937 0653 07       		.byte	0x7
 938 0654 D4       		.byte	0xd4
 939 0655 20010000 		.4byte	0x120
 940 0659 18       		.uleb128 0x18
 941 065a 15030000 		.4byte	.LASF75
 942 065e 07       		.byte	0x7
 943 065f DB       		.byte	0xdb
 944 0660 44020000 		.4byte	0x244
 945 0664 18       		.uleb128 0x18
 946 0665 1D020000 		.4byte	.LASF76
 947 0669 07       		.byte	0x7
 948 066a E2       		.byte	0xe2
 949 066b 70060000 		.4byte	0x670
 950 066f 00       		.byte	0
 951 0670 0B       		.uleb128 0xb
 952 0671 04       		.byte	0x4
 953 0672 9A010000 		.4byte	0x19a
 954 0676 0B       		.uleb128 0xb
 955 0677 04       		.byte	0x4
 956 0678 46020000 		.4byte	0x246
 957 067c 0B       		.uleb128 0xb
 958 067d 04       		.byte	0x4
 959 067e 8E060000 		.4byte	0x68e
 960 0682 04       		.uleb128 0x4
 961 0683 7C060000 		.4byte	0x67c
 962 0687 05       		.uleb128 0x5
 963 0688 01       		.byte	0x1
 964 0689 08       		.byte	0x8
 965 068a DE020000 		.4byte	.LASF77
 966 068e 06       		.uleb128 0x6
 967 068f 87060000 		.4byte	0x687
 968 0693 19       		.uleb128 0x19
 969 0694 636800   		.ascii	"ch\000"
ARM GAS  /tmp/ccHQbgGc.s 			page 18


 970 0697 07       		.byte	0x7
 971 0698 C701     		.2byte	0x1c7
 972 069a 13030000 		.4byte	0x313
 973 069e 13       		.uleb128 0x13
 974 069f C6040000 		.4byte	0x4c6
 975 06a3 A9060000 		.4byte	0x6a9
 976 06a7 1A       		.uleb128 0x1a
 977 06a8 00       		.byte	0
 978 06a9 11       		.uleb128 0x11
 979 06aa 77060000 		.4byte	.LASF78
 980 06ae 0E       		.byte	0xe
 981 06af 1701     		.2byte	0x117
 982 06b1 9E060000 		.4byte	0x69e
 983 06b5 03       		.uleb128 0x3
 984 06b6 D0070000 		.4byte	.LASF79
 985 06ba 0F       		.byte	0xf
 986 06bb BC       		.byte	0xbc
 987 06bc C0060000 		.4byte	0x6c0
 988 06c0 07       		.uleb128 0x7
 989 06c1 440B0000 		.4byte	.LASF80
 990 06c5 0C       		.byte	0xc
 991 06c6 0F       		.byte	0xf
 992 06c7 CD       		.byte	0xcd
 993 06c8 F0060000 		.4byte	0x6f0
 994 06cc 08       		.uleb128 0x8
 995 06cd BE020000 		.4byte	.LASF30
 996 06d1 0F       		.byte	0xf
 997 06d2 CE       		.byte	0xce
 998 06d3 36010000 		.4byte	0x136
 999 06d7 00       		.byte	0
 1000 06d8 09       		.uleb128 0x9
 1001 06d9 636200   		.ascii	"cb\000"
 1002 06dc 0F       		.byte	0xf
 1003 06dd CF       		.byte	0xcf
 1004 06de F0060000 		.4byte	0x6f0
 1005 06e2 04       		.byte	0x4
 1006 06e3 08       		.uleb128 0x8
 1007 06e4 18060000 		.4byte	.LASF81
 1008 06e8 0F       		.byte	0xf
 1009 06e9 D0       		.byte	0xd0
 1010 06ea 44020000 		.4byte	0x244
 1011 06ee 08       		.byte	0x8
 1012 06ef 00       		.byte	0
 1013 06f0 03       		.uleb128 0x3
 1014 06f1 26010000 		.4byte	.LASF82
 1015 06f5 0F       		.byte	0xf
 1016 06f6 C3       		.byte	0xc3
 1017 06f7 FB060000 		.4byte	0x6fb
 1018 06fb 0B       		.uleb128 0xb
 1019 06fc 04       		.byte	0x4
 1020 06fd 01070000 		.4byte	0x701
 1021 0701 0E       		.uleb128 0xe
 1022 0702 0C070000 		.4byte	0x70c
 1023 0706 0F       		.uleb128 0xf
 1024 0707 0C070000 		.4byte	0x70c
 1025 070b 00       		.byte	0
 1026 070c 0B       		.uleb128 0xb
ARM GAS  /tmp/ccHQbgGc.s 			page 19


 1027 070d 04       		.byte	0x4
 1028 070e B5060000 		.4byte	0x6b5
 1029 0712 15       		.uleb128 0x15
 1030 0713 0C       		.byte	0xc
 1031 0714 10       		.byte	0x10
 1032 0715 A201     		.2byte	0x1a2
 1033 0717 6A070000 		.4byte	0x76a
 1034 071b 0D       		.uleb128 0xd
 1035 071c AB040000 		.4byte	.LASF83
 1036 0720 10       		.byte	0x10
 1037 0721 A301     		.2byte	0x1a3
 1038 0723 6A070000 		.4byte	0x76a
 1039 0727 00       		.byte	0
 1040 0728 0D       		.uleb128 0xd
 1041 0729 010D0000 		.4byte	.LASF84
 1042 072d 10       		.byte	0x10
 1043 072e A401     		.2byte	0x1a4
 1044 0730 70070000 		.4byte	0x770
 1045 0734 04       		.byte	0x4
 1046 0735 0D       		.uleb128 0xd
 1047 0736 F00A0000 		.4byte	.LASF85
 1048 073a 10       		.byte	0x10
 1049 073b A801     		.2byte	0x1a8
 1050 073d B9000000 		.4byte	0xb9
 1051 0741 08       		.byte	0x8
 1052 0742 0D       		.uleb128 0xd
 1053 0743 36060000 		.4byte	.LASF86
 1054 0747 10       		.byte	0x10
 1055 0748 AA01     		.2byte	0x1aa
 1056 074a B9000000 		.4byte	0xb9
 1057 074e 09       		.byte	0x9
 1058 074f 0D       		.uleb128 0xd
 1059 0750 3E080000 		.4byte	.LASF87
 1060 0754 10       		.byte	0x10
 1061 0755 AC01     		.2byte	0x1ac
 1062 0757 B9000000 		.4byte	0xb9
 1063 075b 0A       		.byte	0xa
 1064 075c 0D       		.uleb128 0xd
 1065 075d F6090000 		.4byte	.LASF88
 1066 0761 10       		.byte	0x10
 1067 0762 AD01     		.2byte	0x1ad
 1068 0764 B9000000 		.4byte	0xb9
 1069 0768 0B       		.byte	0xb
 1070 0769 00       		.byte	0
 1071 076a 0B       		.uleb128 0xb
 1072 076b 04       		.byte	0x4
 1073 076c 2B040000 		.4byte	0x42b
 1074 0770 0B       		.uleb128 0xb
 1075 0771 04       		.byte	0x4
 1076 0772 EF000000 		.4byte	0xef
 1077 0776 16       		.uleb128 0x16
 1078 0777 05000000 		.4byte	.LASF89
 1079 077b 10       		.byte	0x10
 1080 077c AE01     		.2byte	0x1ae
 1081 077e 12070000 		.4byte	0x712
 1082 0782 06       		.uleb128 0x6
 1083 0783 76070000 		.4byte	0x776
ARM GAS  /tmp/ccHQbgGc.s 			page 20


 1084 0787 13       		.uleb128 0x13
 1085 0788 82070000 		.4byte	0x782
 1086 078c 97070000 		.4byte	0x797
 1087 0790 14       		.uleb128 0x14
 1088 0791 76030000 		.4byte	0x376
 1089 0795 0F       		.byte	0xf
 1090 0796 00       		.byte	0
 1091 0797 06       		.uleb128 0x6
 1092 0798 87070000 		.4byte	0x787
 1093 079c 11       		.uleb128 0x11
 1094 079d 97060000 		.4byte	.LASF90
 1095 07a1 10       		.byte	0x10
 1096 07a2 9002     		.2byte	0x290
 1097 07a4 97070000 		.4byte	0x797
 1098 07a8 1B       		.uleb128 0x1b
 1099 07a9 2C000000 		.4byte	0x2c
 1100 07ad C1070000 		.4byte	0x7c1
 1101 07b1 0F       		.uleb128 0xf
 1102 07b2 44020000 		.4byte	0x244
 1103 07b6 0F       		.uleb128 0xf
 1104 07b7 C1070000 		.4byte	0x7c1
 1105 07bb 0F       		.uleb128 0xf
 1106 07bc 2C000000 		.4byte	0x2c
 1107 07c0 00       		.byte	0
 1108 07c1 0B       		.uleb128 0xb
 1109 07c2 04       		.byte	0x4
 1110 07c3 C4000000 		.4byte	0xc4
 1111 07c7 0B       		.uleb128 0xb
 1112 07c8 04       		.byte	0x4
 1113 07c9 A8070000 		.4byte	0x7a8
 1114 07cd 1B       		.uleb128 0x1b
 1115 07ce 2C000000 		.4byte	0x2c
 1116 07d2 E6070000 		.4byte	0x7e6
 1117 07d6 0F       		.uleb128 0xf
 1118 07d7 44020000 		.4byte	0x244
 1119 07db 0F       		.uleb128 0xf
 1120 07dc E6070000 		.4byte	0x7e6
 1121 07e0 0F       		.uleb128 0xf
 1122 07e1 2C000000 		.4byte	0x2c
 1123 07e5 00       		.byte	0
 1124 07e6 0B       		.uleb128 0xb
 1125 07e7 04       		.byte	0x4
 1126 07e8 B9000000 		.4byte	0xb9
 1127 07ec 0B       		.uleb128 0xb
 1128 07ed 04       		.byte	0x4
 1129 07ee CD070000 		.4byte	0x7cd
 1130 07f2 1B       		.uleb128 0x1b
 1131 07f3 20010000 		.4byte	0x120
 1132 07f7 06080000 		.4byte	0x806
 1133 07fb 0F       		.uleb128 0xf
 1134 07fc 44020000 		.4byte	0x244
 1135 0800 0F       		.uleb128 0xf
 1136 0801 B9000000 		.4byte	0xb9
 1137 0805 00       		.byte	0
 1138 0806 0B       		.uleb128 0xb
 1139 0807 04       		.byte	0x4
 1140 0808 F2070000 		.4byte	0x7f2
ARM GAS  /tmp/ccHQbgGc.s 			page 21


 1141 080c 1B       		.uleb128 0x1b
 1142 080d 20010000 		.4byte	0x120
 1143 0811 1B080000 		.4byte	0x81b
 1144 0815 0F       		.uleb128 0xf
 1145 0816 44020000 		.4byte	0x244
 1146 081a 00       		.byte	0
 1147 081b 0B       		.uleb128 0xb
 1148 081c 04       		.byte	0x4
 1149 081d 0C080000 		.4byte	0x80c
 1150 0821 1B       		.uleb128 0x1b
 1151 0822 20010000 		.4byte	0x120
 1152 0826 3A080000 		.4byte	0x83a
 1153 082a 0F       		.uleb128 0xf
 1154 082b 44020000 		.4byte	0x244
 1155 082f 0F       		.uleb128 0xf
 1156 0830 B9000000 		.4byte	0xb9
 1157 0834 0F       		.uleb128 0xf
 1158 0835 6B030000 		.4byte	0x36b
 1159 0839 00       		.byte	0
 1160 083a 0B       		.uleb128 0xb
 1161 083b 04       		.byte	0x4
 1162 083c 21080000 		.4byte	0x821
 1163 0840 1B       		.uleb128 0x1b
 1164 0841 20010000 		.4byte	0x120
 1165 0845 54080000 		.4byte	0x854
 1166 0849 0F       		.uleb128 0xf
 1167 084a 44020000 		.4byte	0x244
 1168 084e 0F       		.uleb128 0xf
 1169 084f 6B030000 		.4byte	0x36b
 1170 0853 00       		.byte	0
 1171 0854 0B       		.uleb128 0xb
 1172 0855 04       		.byte	0x4
 1173 0856 40080000 		.4byte	0x840
 1174 085a 1B       		.uleb128 0x1b
 1175 085b 2C000000 		.4byte	0x2c
 1176 085f 78080000 		.4byte	0x878
 1177 0863 0F       		.uleb128 0xf
 1178 0864 44020000 		.4byte	0x244
 1179 0868 0F       		.uleb128 0xf
 1180 0869 C1070000 		.4byte	0x7c1
 1181 086d 0F       		.uleb128 0xf
 1182 086e 2C000000 		.4byte	0x2c
 1183 0872 0F       		.uleb128 0xf
 1184 0873 6B030000 		.4byte	0x36b
 1185 0877 00       		.byte	0
 1186 0878 0B       		.uleb128 0xb
 1187 0879 04       		.byte	0x4
 1188 087a 5A080000 		.4byte	0x85a
 1189 087e 1B       		.uleb128 0x1b
 1190 087f 2C000000 		.4byte	0x2c
 1191 0883 9C080000 		.4byte	0x89c
 1192 0887 0F       		.uleb128 0xf
 1193 0888 44020000 		.4byte	0x244
 1194 088c 0F       		.uleb128 0xf
 1195 088d E6070000 		.4byte	0x7e6
 1196 0891 0F       		.uleb128 0xf
 1197 0892 2C000000 		.4byte	0x2c
ARM GAS  /tmp/ccHQbgGc.s 			page 22


 1198 0896 0F       		.uleb128 0xf
 1199 0897 6B030000 		.4byte	0x36b
 1200 089b 00       		.byte	0
 1201 089c 0B       		.uleb128 0xb
 1202 089d 04       		.byte	0x4
 1203 089e 7E080000 		.4byte	0x87e
 1204 08a2 1B       		.uleb128 0x1b
 1205 08a3 20010000 		.4byte	0x120
 1206 08a7 BB080000 		.4byte	0x8bb
 1207 08ab 0F       		.uleb128 0xf
 1208 08ac 44020000 		.4byte	0x244
 1209 08b0 0F       		.uleb128 0xf
 1210 08b1 3C000000 		.4byte	0x3c
 1211 08b5 0F       		.uleb128 0xf
 1212 08b6 44020000 		.4byte	0x244
 1213 08ba 00       		.byte	0
 1214 08bb 0B       		.uleb128 0xb
 1215 08bc 04       		.byte	0x4
 1216 08bd A2080000 		.4byte	0x8a2
 1217 08c1 05       		.uleb128 0x5
 1218 08c2 01       		.byte	0x1
 1219 08c3 02       		.byte	0x2
 1220 08c4 B8020000 		.4byte	.LASF91
 1221 08c8 03       		.uleb128 0x3
 1222 08c9 AE0B0000 		.4byte	.LASF92
 1223 08cd 11       		.byte	0x11
 1224 08ce 3A       		.byte	0x3a
 1225 08cf D3080000 		.4byte	0x8d3
 1226 08d3 07       		.uleb128 0x7
 1227 08d4 BC010000 		.4byte	.LASF93
 1228 08d8 24       		.byte	0x24
 1229 08d9 11       		.byte	0x11
 1230 08da 4B       		.byte	0x4b
 1231 08db 40090000 		.4byte	0x940
 1232 08df 08       		.uleb128 0x8
 1233 08e0 C10A0000 		.4byte	.LASF94
 1234 08e4 11       		.byte	0x11
 1235 08e5 4C       		.byte	0x4c
 1236 08e6 AB010000 		.4byte	0x1ab
 1237 08ea 00       		.byte	0
 1238 08eb 08       		.uleb128 0x8
 1239 08ec C3050000 		.4byte	.LASF95
 1240 08f0 11       		.byte	0x11
 1241 08f1 4D       		.byte	0x4d
 1242 08f2 37000000 		.4byte	0x37
 1243 08f6 08       		.byte	0x8
 1244 08f7 08       		.uleb128 0x8
 1245 08f8 1D010000 		.4byte	.LASF96
 1246 08fc 11       		.byte	0x11
 1247 08fd 4E       		.byte	0x4e
 1248 08fe E6070000 		.4byte	0x7e6
 1249 0902 0C       		.byte	0xc
 1250 0903 08       		.uleb128 0x8
 1251 0904 0B010000 		.4byte	.LASF97
 1252 0908 11       		.byte	0x11
 1253 0909 4F       		.byte	0x4f
 1254 090a E6070000 		.4byte	0x7e6
ARM GAS  /tmp/ccHQbgGc.s 			page 23


 1255 090e 10       		.byte	0x10
 1256 090f 08       		.uleb128 0x8
 1257 0910 D5060000 		.4byte	.LASF98
 1258 0914 11       		.byte	0x11
 1259 0915 51       		.byte	0x51
 1260 0916 E6070000 		.4byte	0x7e6
 1261 091a 14       		.byte	0x14
 1262 091b 08       		.uleb128 0x8
 1263 091c 63010000 		.4byte	.LASF99
 1264 0920 11       		.byte	0x11
 1265 0921 52       		.byte	0x52
 1266 0922 E6070000 		.4byte	0x7e6
 1267 0926 18       		.byte	0x18
 1268 0927 08       		.uleb128 0x8
 1269 0928 51010000 		.4byte	.LASF100
 1270 092c 11       		.byte	0x11
 1271 092d 53       		.byte	0x53
 1272 092e 40090000 		.4byte	0x940
 1273 0932 1C       		.byte	0x1c
 1274 0933 08       		.uleb128 0x8
 1275 0934 3F020000 		.4byte	.LASF101
 1276 0938 11       		.byte	0x11
 1277 0939 54       		.byte	0x54
 1278 093a 44020000 		.4byte	0x244
 1279 093e 20       		.byte	0x20
 1280 093f 00       		.byte	0
 1281 0940 03       		.uleb128 0x3
 1282 0941 20080000 		.4byte	.LASF102
 1283 0945 11       		.byte	0x11
 1284 0946 41       		.byte	0x41
 1285 0947 4B090000 		.4byte	0x94b
 1286 094b 0B       		.uleb128 0xb
 1287 094c 04       		.byte	0x4
 1288 094d 51090000 		.4byte	0x951
 1289 0951 0E       		.uleb128 0xe
 1290 0952 5C090000 		.4byte	0x95c
 1291 0956 0F       		.uleb128 0xf
 1292 0957 5C090000 		.4byte	0x95c
 1293 095b 00       		.byte	0
 1294 095c 0B       		.uleb128 0xb
 1295 095d 04       		.byte	0x4
 1296 095e C8080000 		.4byte	0x8c8
 1297 0962 03       		.uleb128 0x3
 1298 0963 730C0000 		.4byte	.LASF103
 1299 0967 11       		.byte	0x11
 1300 0968 61       		.byte	0x61
 1301 0969 C8080000 		.4byte	0x8c8
 1302 096d 03       		.uleb128 0x3
 1303 096e D00C0000 		.4byte	.LASF104
 1304 0972 11       		.byte	0x11
 1305 0973 6D       		.byte	0x6d
 1306 0974 C8080000 		.4byte	0x8c8
 1307 0978 03       		.uleb128 0x3
 1308 0979 D6050000 		.4byte	.LASF105
 1309 097d 12       		.byte	0x12
 1310 097e 94       		.byte	0x94
 1311 097f 33020000 		.4byte	0x233
ARM GAS  /tmp/ccHQbgGc.s 			page 24


 1312 0983 1C       		.uleb128 0x1c
 1313 0984 08       		.byte	0x8
 1314 0985 12       		.byte	0x12
 1315 0986 9A       		.byte	0x9a
 1316 0987 A3090000 		.4byte	0x9a3
 1317 098b 09       		.uleb128 0x9
 1318 098c 636200   		.ascii	"cb\000"
 1319 098f 12       		.byte	0x12
 1320 0990 A5       		.byte	0xa5
 1321 0991 78090000 		.4byte	0x978
 1322 0995 00       		.byte	0
 1323 0996 09       		.uleb128 0x9
 1324 0997 61726700 		.ascii	"arg\000"
 1325 099b 12       		.byte	0x12
 1326 099c A9       		.byte	0xa9
 1327 099d 44020000 		.4byte	0x244
 1328 09a1 04       		.byte	0x4
 1329 09a2 00       		.byte	0
 1330 09a3 03       		.uleb128 0x3
 1331 09a4 1C030000 		.4byte	.LASF106
 1332 09a8 12       		.byte	0x12
 1333 09a9 AB       		.byte	0xab
 1334 09aa 83090000 		.4byte	0x983
 1335 09ae 13       		.uleb128 0x13
 1336 09af A3090000 		.4byte	0x9a3
 1337 09b3 BE090000 		.4byte	0x9be
 1338 09b7 14       		.uleb128 0x14
 1339 09b8 76030000 		.4byte	0x376
 1340 09bc 0F       		.byte	0xf
 1341 09bd 00       		.byte	0
 1342 09be 11       		.uleb128 0x11
 1343 09bf D7080000 		.4byte	.LASF107
 1344 09c3 13       		.byte	0x13
 1345 09c4 EB01     		.2byte	0x1eb
 1346 09c6 AE090000 		.4byte	0x9ae
 1347 09ca 1D       		.uleb128 0x1d
 1348 09cb 01       		.byte	0x1
 1349 09cc 63000000 		.4byte	0x63
 1350 09d0 14       		.byte	0x14
 1351 09d1 58       		.byte	0x58
 1352 09d2 E9090000 		.4byte	0x9e9
 1353 09d6 1E       		.uleb128 0x1e
 1354 09d7 85020000 		.4byte	.LASF108
 1355 09db 00       		.byte	0
 1356 09dc 1E       		.uleb128 0x1e
 1357 09dd F40C0000 		.4byte	.LASF109
 1358 09e1 01       		.byte	0x1
 1359 09e2 1E       		.uleb128 0x1e
 1360 09e3 130B0000 		.4byte	.LASF110
 1361 09e7 02       		.byte	0x2
 1362 09e8 00       		.byte	0
 1363 09e9 03       		.uleb128 0x3
 1364 09ea F60A0000 		.4byte	.LASF111
 1365 09ee 14       		.byte	0x14
 1366 09ef 5C       		.byte	0x5c
 1367 09f0 CA090000 		.4byte	0x9ca
 1368 09f4 03       		.uleb128 0x3
ARM GAS  /tmp/ccHQbgGc.s 			page 25


 1369 09f5 9A0A0000 		.4byte	.LASF112
 1370 09f9 14       		.byte	0x14
 1371 09fa 61       		.byte	0x61
 1372 09fb FF090000 		.4byte	0x9ff
 1373 09ff 1F       		.uleb128 0x1f
 1374 0a00 9A0A0000 		.4byte	.LASF112
 1375 0a04 6804     		.2byte	0x468
 1376 0a06 14       		.byte	0x14
 1377 0a07 7B       		.byte	0x7b
 1378 0a08 870A0000 		.4byte	0xa87
 1379 0a0c 09       		.uleb128 0x9
 1380 0a0d 766D7400 		.ascii	"vmt\000"
 1381 0a11 14       		.byte	0x14
 1382 0a12 7D       		.byte	0x7d
 1383 0a13 9E0B0000 		.4byte	0xb9e
 1384 0a17 00       		.byte	0
 1385 0a18 08       		.uleb128 0x8
 1386 0a19 2A080000 		.4byte	.LASF113
 1387 0a1d 14       		.byte	0x14
 1388 0a1e 7E       		.byte	0x7e
 1389 0a1f B5060000 		.4byte	0x6b5
 1390 0a23 04       		.byte	0x4
 1391 0a24 08       		.uleb128 0x8
 1392 0a25 D5000000 		.4byte	.LASF29
 1393 0a29 14       		.byte	0x14
 1394 0a2a 7E       		.byte	0x7e
 1395 0a2b E9090000 		.4byte	0x9e9
 1396 0a2f 10       		.byte	0x10
 1397 0a30 08       		.uleb128 0x8
 1398 0a31 770B0000 		.4byte	.LASF114
 1399 0a35 14       		.byte	0x14
 1400 0a36 7E       		.byte	0x7e
 1401 0a37 62090000 		.4byte	0x962
 1402 0a3b 14       		.byte	0x14
 1403 0a3c 08       		.uleb128 0x8
 1404 0a3d 98010000 		.4byte	.LASF115
 1405 0a41 14       		.byte	0x14
 1406 0a42 7E       		.byte	0x7e
 1407 0a43 6D090000 		.4byte	0x96d
 1408 0a47 38       		.byte	0x38
 1409 0a48 09       		.uleb128 0x9
 1410 0a49 696200   		.ascii	"ib\000"
 1411 0a4c 14       		.byte	0x14
 1412 0a4d 7E       		.byte	0x7e
 1413 0a4e A40B0000 		.4byte	0xba4
 1414 0a52 5C       		.byte	0x5c
 1415 0a53 20       		.uleb128 0x20
 1416 0a54 6F6200   		.ascii	"ob\000"
 1417 0a57 14       		.byte	0x14
 1418 0a58 7E       		.byte	0x7e
 1419 0a59 A40B0000 		.4byte	0xba4
 1420 0a5d 5C02     		.2byte	0x25c
 1421 0a5f 21       		.uleb128 0x21
 1422 0a60 DB010000 		.4byte	.LASF116
 1423 0a64 14       		.byte	0x14
 1424 0a65 7E       		.byte	0x7e
 1425 0a66 B50B0000 		.4byte	0xbb5
ARM GAS  /tmp/ccHQbgGc.s 			page 26


 1426 0a6a 5C04     		.2byte	0x45c
 1427 0a6c 21       		.uleb128 0x21
 1428 0a6d 1C050000 		.4byte	.LASF117
 1429 0a71 14       		.byte	0x14
 1430 0a72 7E       		.byte	0x7e
 1431 0a73 B9000000 		.4byte	0xb9
 1432 0a77 6004     		.2byte	0x460
 1433 0a79 21       		.uleb128 0x21
 1434 0a7a CE000000 		.4byte	.LASF118
 1435 0a7e 14       		.byte	0x14
 1436 0a7f 7E       		.byte	0x7e
 1437 0a80 BB0B0000 		.4byte	0xbbb
 1438 0a84 6404     		.2byte	0x464
 1439 0a86 00       		.byte	0
 1440 0a87 16       		.uleb128 0x16
 1441 0a88 57060000 		.4byte	.LASF119
 1442 0a8c 15       		.byte	0x15
 1443 0a8d 0201     		.2byte	0x102
 1444 0a8f 33020000 		.4byte	0x233
 1445 0a93 15       		.uleb128 0x15
 1446 0a94 14       		.byte	0x14
 1447 0a95 15       		.byte	0x15
 1448 0a96 1001     		.2byte	0x110
 1449 0a98 EB0A0000 		.4byte	0xaeb
 1450 0a9c 0D       		.uleb128 0xd
 1451 0a9d 55050000 		.4byte	.LASF120
 1452 0aa1 15       		.byte	0x15
 1453 0aa2 1401     		.2byte	0x114
 1454 0aa4 E4000000 		.4byte	0xe4
 1455 0aa8 00       		.byte	0
 1456 0aa9 0A       		.uleb128 0xa
 1457 0aaa 63723100 		.ascii	"cr1\000"
 1458 0aae 15       		.byte	0x15
 1459 0aaf 1901     		.2byte	0x119
 1460 0ab1 C9000000 		.4byte	0xc9
 1461 0ab5 04       		.byte	0x4
 1462 0ab6 0A       		.uleb128 0xa
 1463 0ab7 63723200 		.ascii	"cr2\000"
 1464 0abb 15       		.byte	0x15
 1465 0abc 1D01     		.2byte	0x11d
 1466 0abe C9000000 		.4byte	0xc9
 1467 0ac2 06       		.byte	0x6
 1468 0ac3 0A       		.uleb128 0xa
 1469 0ac4 63723300 		.ascii	"cr3\000"
 1470 0ac8 15       		.byte	0x15
 1471 0ac9 2101     		.2byte	0x121
 1472 0acb C9000000 		.4byte	0xc9
 1473 0acf 08       		.byte	0x8
 1474 0ad0 0D       		.uleb128 0xd
 1475 0ad1 B90B0000 		.4byte	.LASF121
 1476 0ad5 15       		.byte	0x15
 1477 0ad6 2501     		.2byte	0x125
 1478 0ad8 870A0000 		.4byte	0xa87
 1479 0adc 0C       		.byte	0xc
 1480 0add 0A       		.uleb128 0xa
 1481 0ade 63747800 		.ascii	"ctx\000"
 1482 0ae2 15       		.byte	0x15
ARM GAS  /tmp/ccHQbgGc.s 			page 27


 1483 0ae3 2901     		.2byte	0x129
 1484 0ae5 44020000 		.4byte	0x244
 1485 0ae9 10       		.byte	0x10
 1486 0aea 00       		.byte	0
 1487 0aeb 16       		.uleb128 0x16
 1488 0aec 65000000 		.4byte	.LASF122
 1489 0af0 15       		.byte	0x15
 1490 0af1 2A01     		.2byte	0x12a
 1491 0af3 930A0000 		.4byte	0xa93
 1492 0af7 06       		.uleb128 0x6
 1493 0af8 EB0A0000 		.4byte	0xaeb
 1494 0afc 19       		.uleb128 0x19
 1495 0afd 53443200 		.ascii	"SD2\000"
 1496 0b01 15       		.byte	0x15
 1497 0b02 5601     		.2byte	0x156
 1498 0b04 F4090000 		.4byte	0x9f4
 1499 0b08 19       		.uleb128 0x19
 1500 0b09 53443300 		.ascii	"SD3\000"
 1501 0b0d 15       		.byte	0x15
 1502 0b0e 5901     		.2byte	0x159
 1503 0b10 F4090000 		.4byte	0x9f4
 1504 0b14 07       		.uleb128 0x7
 1505 0b15 F4060000 		.4byte	.LASF123
 1506 0b19 28       		.byte	0x28
 1507 0b1a 14       		.byte	0x14
 1508 0b1b 70       		.byte	0x70
 1509 0b1c 990B0000 		.4byte	0xb99
 1510 0b20 08       		.uleb128 0x8
 1511 0b21 630C0000 		.4byte	.LASF124
 1512 0b25 14       		.byte	0x14
 1513 0b26 71       		.byte	0x71
 1514 0b27 2C000000 		.4byte	0x2c
 1515 0b2b 00       		.byte	0
 1516 0b2c 08       		.uleb128 0x8
 1517 0b2d B8000000 		.4byte	.LASF125
 1518 0b31 14       		.byte	0x14
 1519 0b32 71       		.byte	0x71
 1520 0b33 C7070000 		.4byte	0x7c7
 1521 0b37 04       		.byte	0x4
 1522 0b38 08       		.uleb128 0x8
 1523 0b39 39080000 		.4byte	.LASF126
 1524 0b3d 14       		.byte	0x14
 1525 0b3e 71       		.byte	0x71
 1526 0b3f EC070000 		.4byte	0x7ec
 1527 0b43 08       		.byte	0x8
 1528 0b44 09       		.uleb128 0x9
 1529 0b45 70757400 		.ascii	"put\000"
 1530 0b49 14       		.byte	0x14
 1531 0b4a 71       		.byte	0x71
 1532 0b4b 06080000 		.4byte	0x806
 1533 0b4f 0C       		.byte	0xc
 1534 0b50 09       		.uleb128 0x9
 1535 0b51 67657400 		.ascii	"get\000"
 1536 0b55 14       		.byte	0x14
 1537 0b56 71       		.byte	0x71
 1538 0b57 1B080000 		.4byte	0x81b
 1539 0b5b 10       		.byte	0x10
ARM GAS  /tmp/ccHQbgGc.s 			page 28


 1540 0b5c 08       		.uleb128 0x8
 1541 0b5d E3000000 		.4byte	.LASF127
 1542 0b61 14       		.byte	0x14
 1543 0b62 71       		.byte	0x71
 1544 0b63 3A080000 		.4byte	0x83a
 1545 0b67 14       		.byte	0x14
 1546 0b68 08       		.uleb128 0x8
 1547 0b69 7A040000 		.4byte	.LASF128
 1548 0b6d 14       		.byte	0x14
 1549 0b6e 71       		.byte	0x71
 1550 0b6f 54080000 		.4byte	0x854
 1551 0b73 18       		.byte	0x18
 1552 0b74 08       		.uleb128 0x8
 1553 0b75 72000000 		.4byte	.LASF129
 1554 0b79 14       		.byte	0x14
 1555 0b7a 71       		.byte	0x71
 1556 0b7b 78080000 		.4byte	0x878
 1557 0b7f 1C       		.byte	0x1c
 1558 0b80 08       		.uleb128 0x8
 1559 0b81 17010000 		.4byte	.LASF130
 1560 0b85 14       		.byte	0x14
 1561 0b86 71       		.byte	0x71
 1562 0b87 9C080000 		.4byte	0x89c
 1563 0b8b 20       		.byte	0x20
 1564 0b8c 09       		.uleb128 0x9
 1565 0b8d 63746C00 		.ascii	"ctl\000"
 1566 0b91 14       		.byte	0x14
 1567 0b92 71       		.byte	0x71
 1568 0b93 BB080000 		.4byte	0x8bb
 1569 0b97 24       		.byte	0x24
 1570 0b98 00       		.byte	0
 1571 0b99 06       		.uleb128 0x6
 1572 0b9a 140B0000 		.4byte	0xb14
 1573 0b9e 0B       		.uleb128 0xb
 1574 0b9f 04       		.byte	0x4
 1575 0ba0 990B0000 		.4byte	0xb99
 1576 0ba4 13       		.uleb128 0x13
 1577 0ba5 B9000000 		.4byte	0xb9
 1578 0ba9 B50B0000 		.4byte	0xbb5
 1579 0bad 22       		.uleb128 0x22
 1580 0bae 76030000 		.4byte	0x376
 1581 0bb2 FF01     		.2byte	0x1ff
 1582 0bb4 00       		.byte	0
 1583 0bb5 0B       		.uleb128 0xb
 1584 0bb6 04       		.byte	0x4
 1585 0bb7 9A040000 		.4byte	0x49a
 1586 0bbb 0B       		.uleb128 0xb
 1587 0bbc 04       		.byte	0x4
 1588 0bbd F70A0000 		.4byte	0xaf7
 1589 0bc1 16       		.uleb128 0x16
 1590 0bc2 0B030000 		.4byte	.LASF131
 1591 0bc6 16       		.byte	0x16
 1592 0bc7 0301     		.2byte	0x103
 1593 0bc9 CD0B0000 		.4byte	0xbcd
 1594 0bcd 0C       		.uleb128 0xc
 1595 0bce 0B030000 		.4byte	.LASF131
 1596 0bd2 60       		.byte	0x60
ARM GAS  /tmp/ccHQbgGc.s 			page 29


 1597 0bd3 17       		.byte	0x17
 1598 0bd4 A401     		.2byte	0x1a4
 1599 0bd6 D20C0000 		.4byte	0xcd2
 1600 0bda 0D       		.uleb128 0xd
 1601 0bdb D5000000 		.4byte	.LASF29
 1602 0bdf 17       		.byte	0x17
 1603 0be0 A801     		.2byte	0x1a8
 1604 0be2 100D0000 		.4byte	0xd10
 1605 0be6 00       		.byte	0
 1606 0be7 0D       		.uleb128 0xd
 1607 0be8 CE000000 		.4byte	.LASF118
 1608 0bec 17       		.byte	0x17
 1609 0bed AC01     		.2byte	0x1ac
 1610 0bef 88150000 		.4byte	0x1588
 1611 0bf3 04       		.byte	0x4
 1612 0bf4 0D       		.uleb128 0xd
 1613 0bf5 C7040000 		.4byte	.LASF132
 1614 0bf9 17       		.byte	0x17
 1615 0bfa B001     		.2byte	0x1b0
 1616 0bfc C9000000 		.4byte	0xc9
 1617 0c00 08       		.byte	0x8
 1618 0c01 0D       		.uleb128 0xd
 1619 0c02 F6020000 		.4byte	.LASF133
 1620 0c06 17       		.byte	0x17
 1621 0c07 B401     		.2byte	0x1b4
 1622 0c09 C9000000 		.4byte	0xc9
 1623 0c0d 0A       		.byte	0xa
 1624 0c0e 0A       		.uleb128 0xa
 1625 0c0f 65706300 		.ascii	"epc\000"
 1626 0c13 17       		.byte	0x17
 1627 0c14 B801     		.2byte	0x1b8
 1628 0c16 8E150000 		.4byte	0x158e
 1629 0c1a 0C       		.byte	0xc
 1630 0c1b 0D       		.uleb128 0xd
 1631 0c1c AE000000 		.4byte	.LASF134
 1632 0c20 17       		.byte	0x17
 1633 0c21 BF01     		.2byte	0x1bf
 1634 0c23 A4150000 		.4byte	0x15a4
 1635 0c27 1C       		.byte	0x1c
 1636 0c28 0D       		.uleb128 0xd
 1637 0c29 DF0C0000 		.4byte	.LASF135
 1638 0c2d 17       		.byte	0x17
 1639 0c2e C601     		.2byte	0x1c6
 1640 0c30 A4150000 		.4byte	0x15a4
 1641 0c34 28       		.byte	0x28
 1642 0c35 0D       		.uleb128 0xd
 1643 0c36 6D020000 		.4byte	.LASF136
 1644 0c3a 17       		.byte	0x17
 1645 0c3b CA01     		.2byte	0x1ca
 1646 0c3d 540D0000 		.4byte	0xd54
 1647 0c41 34       		.byte	0x34
 1648 0c42 0D       		.uleb128 0xd
 1649 0c43 C3070000 		.4byte	.LASF137
 1650 0c47 17       		.byte	0x17
 1651 0c48 CE01     		.2byte	0x1ce
 1652 0c4a E6070000 		.4byte	0x7e6
 1653 0c4e 38       		.byte	0x38
ARM GAS  /tmp/ccHQbgGc.s 			page 30


 1654 0c4f 0D       		.uleb128 0xd
 1655 0c50 E3020000 		.4byte	.LASF138
 1656 0c54 17       		.byte	0x17
 1657 0c55 D201     		.2byte	0x1d2
 1658 0c57 2C000000 		.4byte	0x2c
 1659 0c5b 3C       		.byte	0x3c
 1660 0c5c 0D       		.uleb128 0xd
 1661 0c5d 3C060000 		.4byte	.LASF139
 1662 0c61 17       		.byte	0x17
 1663 0c62 D601     		.2byte	0x1d6
 1664 0c64 D90D0000 		.4byte	0xdd9
 1665 0c68 40       		.byte	0x40
 1666 0c69 0D       		.uleb128 0xd
 1667 0c6a 4F050000 		.4byte	.LASF140
 1668 0c6e 17       		.byte	0x17
 1669 0c6f DA01     		.2byte	0x1da
 1670 0c71 B4150000 		.4byte	0x15b4
 1671 0c75 44       		.byte	0x44
 1672 0c76 0D       		.uleb128 0xd
 1673 0c77 11060000 		.4byte	.LASF141
 1674 0c7b 17       		.byte	0x17
 1675 0c7c DE01     		.2byte	0x1de
 1676 0c7e C9000000 		.4byte	0xc9
 1677 0c82 4C       		.byte	0x4c
 1678 0c83 0D       		.uleb128 0xd
 1679 0c84 1E060000 		.4byte	.LASF142
 1680 0c88 17       		.byte	0x17
 1681 0c89 E201     		.2byte	0x1e2
 1682 0c8b B9000000 		.4byte	0xb9
 1683 0c8f 4E       		.byte	0x4e
 1684 0c90 0D       		.uleb128 0xd
 1685 0c91 9F050000 		.4byte	.LASF143
 1686 0c95 17       		.byte	0x17
 1687 0c96 E601     		.2byte	0x1e6
 1688 0c98 B9000000 		.4byte	0xb9
 1689 0c9c 4F       		.byte	0x4f
 1690 0c9d 0D       		.uleb128 0xd
 1691 0c9e DE090000 		.4byte	.LASF144
 1692 0ca2 17       		.byte	0x17
 1693 0ca3 EA01     		.2byte	0x1ea
 1694 0ca5 100D0000 		.4byte	0xd10
 1695 0ca9 50       		.byte	0x50
 1696 0caa 0A       		.uleb128 0xa
 1697 0cab 6F746700 		.ascii	"otg\000"
 1698 0caf 17       		.byte	0x17
 1699 0cb0 F201     		.2byte	0x1f2
 1700 0cb2 C4150000 		.4byte	0x15c4
 1701 0cb6 54       		.byte	0x54
 1702 0cb7 0D       		.uleb128 0xd
 1703 0cb8 17090000 		.4byte	.LASF145
 1704 0cbc 17       		.byte	0x17
 1705 0cbd F601     		.2byte	0x1f6
 1706 0cbf CA150000 		.4byte	0x15ca
 1707 0cc3 58       		.byte	0x58
 1708 0cc4 0D       		.uleb128 0xd
 1709 0cc5 180D0000 		.4byte	.LASF146
 1710 0cc9 17       		.byte	0x17
ARM GAS  /tmp/ccHQbgGc.s 			page 31


 1711 0cca FA01     		.2byte	0x1fa
 1712 0ccc E4000000 		.4byte	0xe4
 1713 0cd0 5C       		.byte	0x5c
 1714 0cd1 00       		.byte	0
 1715 0cd2 16       		.uleb128 0x16
 1716 0cd3 5B0C0000 		.4byte	.LASF147
 1717 0cd7 16       		.byte	0x16
 1718 0cd8 0801     		.2byte	0x108
 1719 0cda B9000000 		.4byte	0xb9
 1720 0cde 23       		.uleb128 0x23
 1721 0cdf 01       		.byte	0x1
 1722 0ce0 63000000 		.4byte	0x63
 1723 0ce4 16       		.byte	0x16
 1724 0ce5 0D01     		.2byte	0x10d
 1725 0ce7 100D0000 		.4byte	0xd10
 1726 0ceb 1E       		.uleb128 0x1e
 1727 0cec 2A090000 		.4byte	.LASF148
 1728 0cf0 00       		.byte	0
 1729 0cf1 1E       		.uleb128 0x1e
 1730 0cf2 04070000 		.4byte	.LASF149
 1731 0cf6 01       		.byte	0x1
 1732 0cf7 1E       		.uleb128 0x1e
 1733 0cf8 9A070000 		.4byte	.LASF150
 1734 0cfc 02       		.byte	0x2
 1735 0cfd 1E       		.uleb128 0x1e
 1736 0cfe 92050000 		.4byte	.LASF151
 1737 0d02 03       		.byte	0x3
 1738 0d03 1E       		.uleb128 0x1e
 1739 0d04 E8000000 		.4byte	.LASF152
 1740 0d08 04       		.byte	0x4
 1741 0d09 1E       		.uleb128 0x1e
 1742 0d0a C5010000 		.4byte	.LASF153
 1743 0d0e 05       		.byte	0x5
 1744 0d0f 00       		.byte	0
 1745 0d10 16       		.uleb128 0x16
 1746 0d11 13070000 		.4byte	.LASF154
 1747 0d15 16       		.byte	0x16
 1748 0d16 1401     		.2byte	0x114
 1749 0d18 DE0C0000 		.4byte	0xcde
 1750 0d1c 23       		.uleb128 0x23
 1751 0d1d 01       		.byte	0x1
 1752 0d1e 63000000 		.4byte	0x63
 1753 0d22 16       		.byte	0x16
 1754 0d23 2201     		.2byte	0x122
 1755 0d25 540D0000 		.4byte	0xd54
 1756 0d29 1E       		.uleb128 0x1e
 1757 0d2a 74010000 		.4byte	.LASF155
 1758 0d2e 00       		.byte	0
 1759 0d2f 1E       		.uleb128 0x1e
 1760 0d30 7C050000 		.4byte	.LASF156
 1761 0d34 09       		.byte	0x9
 1762 0d35 1E       		.uleb128 0x1e
 1763 0d36 D10A0000 		.4byte	.LASF157
 1764 0d3a 0A       		.byte	0xa
 1765 0d3b 1E       		.uleb128 0x1e
 1766 0d3c DD060000 		.4byte	.LASF158
 1767 0d40 0B       		.byte	0xb
ARM GAS  /tmp/ccHQbgGc.s 			page 32


 1768 0d41 1E       		.uleb128 0x1e
 1769 0d42 04050000 		.4byte	.LASF159
 1770 0d46 14       		.byte	0x14
 1771 0d47 1E       		.uleb128 0x1e
 1772 0d48 060C0000 		.4byte	.LASF160
 1773 0d4c 15       		.byte	0x15
 1774 0d4d 1E       		.uleb128 0x1e
 1775 0d4e 31020000 		.4byte	.LASF161
 1776 0d52 06       		.byte	0x6
 1777 0d53 00       		.byte	0
 1778 0d54 16       		.uleb128 0x16
 1779 0d55 8C0A0000 		.4byte	.LASF162
 1780 0d59 16       		.byte	0x16
 1781 0d5a 2A01     		.2byte	0x12a
 1782 0d5c 1C0D0000 		.4byte	0xd1c
 1783 0d60 23       		.uleb128 0x23
 1784 0d61 01       		.byte	0x1
 1785 0d62 63000000 		.4byte	0x63
 1786 0d66 16       		.byte	0x16
 1787 0d67 2F01     		.2byte	0x12f
 1788 0d69 980D0000 		.4byte	0xd98
 1789 0d6d 1E       		.uleb128 0x1e
 1790 0d6e 5F0B0000 		.4byte	.LASF163
 1791 0d72 00       		.byte	0
 1792 0d73 1E       		.uleb128 0x1e
 1793 0d74 36010000 		.4byte	.LASF164
 1794 0d78 01       		.byte	0x1
 1795 0d79 1E       		.uleb128 0x1e
 1796 0d7a A70A0000 		.4byte	.LASF165
 1797 0d7e 02       		.byte	0x2
 1798 0d7f 1E       		.uleb128 0x1e
 1799 0d80 690A0000 		.4byte	.LASF166
 1800 0d84 03       		.byte	0x3
 1801 0d85 1E       		.uleb128 0x1e
 1802 0d86 BE0C0000 		.4byte	.LASF167
 1803 0d8a 04       		.byte	0x4
 1804 0d8b 1E       		.uleb128 0x1e
 1805 0d8c 57070000 		.4byte	.LASF168
 1806 0d90 05       		.byte	0x5
 1807 0d91 1E       		.uleb128 0x1e
 1808 0d92 F5010000 		.4byte	.LASF169
 1809 0d96 06       		.byte	0x6
 1810 0d97 00       		.byte	0
 1811 0d98 16       		.uleb128 0x16
 1812 0d99 63050000 		.4byte	.LASF170
 1813 0d9d 16       		.byte	0x16
 1814 0d9e 3701     		.2byte	0x137
 1815 0da0 600D0000 		.4byte	0xd60
 1816 0da4 15       		.uleb128 0x15
 1817 0da5 08       		.byte	0x8
 1818 0da6 16       		.byte	0x16
 1819 0da7 3C01     		.2byte	0x13c
 1820 0da9 C80D0000 		.4byte	0xdc8
 1821 0dad 0D       		.uleb128 0xd
 1822 0dae 8A050000 		.4byte	.LASF171
 1823 0db2 16       		.byte	0x16
 1824 0db3 4001     		.2byte	0x140
ARM GAS  /tmp/ccHQbgGc.s 			page 33


 1825 0db5 2C000000 		.4byte	0x2c
 1826 0db9 00       		.byte	0
 1827 0dba 0D       		.uleb128 0xd
 1828 0dbb 36070000 		.4byte	.LASF172
 1829 0dbf 16       		.byte	0x16
 1830 0dc0 4401     		.2byte	0x144
 1831 0dc2 C1070000 		.4byte	0x7c1
 1832 0dc6 04       		.byte	0x4
 1833 0dc7 00       		.byte	0
 1834 0dc8 16       		.uleb128 0x16
 1835 0dc9 2E050000 		.4byte	.LASF173
 1836 0dcd 16       		.byte	0x16
 1837 0dce 4501     		.2byte	0x145
 1838 0dd0 A40D0000 		.4byte	0xda4
 1839 0dd4 06       		.uleb128 0x6
 1840 0dd5 C80D0000 		.4byte	0xdc8
 1841 0dd9 16       		.uleb128 0x16
 1842 0dda D80B0000 		.4byte	.LASF174
 1843 0dde 16       		.byte	0x16
 1844 0ddf 4D01     		.2byte	0x14d
 1845 0de1 E50D0000 		.4byte	0xde5
 1846 0de5 0B       		.uleb128 0xb
 1847 0de6 04       		.byte	0x4
 1848 0de7 EB0D0000 		.4byte	0xdeb
 1849 0deb 0E       		.uleb128 0xe
 1850 0dec F60D0000 		.4byte	0xdf6
 1851 0df0 0F       		.uleb128 0xf
 1852 0df1 F60D0000 		.4byte	0xdf6
 1853 0df5 00       		.byte	0
 1854 0df6 0B       		.uleb128 0xb
 1855 0df7 04       		.byte	0x4
 1856 0df8 C10B0000 		.4byte	0xbc1
 1857 0dfc 16       		.uleb128 0x16
 1858 0dfd E8070000 		.4byte	.LASF175
 1859 0e01 16       		.byte	0x16
 1860 0e02 5601     		.2byte	0x156
 1861 0e04 080E0000 		.4byte	0xe08
 1862 0e08 0B       		.uleb128 0xb
 1863 0e09 04       		.byte	0x4
 1864 0e0a 0E0E0000 		.4byte	0xe0e
 1865 0e0e 0E       		.uleb128 0xe
 1866 0e0f 1E0E0000 		.4byte	0xe1e
 1867 0e13 0F       		.uleb128 0xf
 1868 0e14 F60D0000 		.4byte	0xdf6
 1869 0e18 0F       		.uleb128 0xf
 1870 0e19 D20C0000 		.4byte	0xcd2
 1871 0e1d 00       		.byte	0
 1872 0e1e 16       		.uleb128 0x16
 1873 0e1f 9E040000 		.4byte	.LASF176
 1874 0e23 16       		.byte	0x16
 1875 0e24 5F01     		.2byte	0x15f
 1876 0e26 2A0E0000 		.4byte	0xe2a
 1877 0e2a 0B       		.uleb128 0xb
 1878 0e2b 04       		.byte	0x4
 1879 0e2c 300E0000 		.4byte	0xe30
 1880 0e30 0E       		.uleb128 0xe
 1881 0e31 400E0000 		.4byte	0xe40
ARM GAS  /tmp/ccHQbgGc.s 			page 34


 1882 0e35 0F       		.uleb128 0xf
 1883 0e36 F60D0000 		.4byte	0xdf6
 1884 0e3a 0F       		.uleb128 0xf
 1885 0e3b 980D0000 		.4byte	0xd98
 1886 0e3f 00       		.byte	0
 1887 0e40 16       		.uleb128 0x16
 1888 0e41 C00B0000 		.4byte	.LASF177
 1889 0e45 16       		.byte	0x16
 1890 0e46 6B01     		.2byte	0x16b
 1891 0e48 4C0E0000 		.4byte	0xe4c
 1892 0e4c 0B       		.uleb128 0xb
 1893 0e4d 04       		.byte	0x4
 1894 0e4e 520E0000 		.4byte	0xe52
 1895 0e52 1B       		.uleb128 0x1b
 1896 0e53 C1080000 		.4byte	0x8c1
 1897 0e57 610E0000 		.4byte	0xe61
 1898 0e5b 0F       		.uleb128 0xf
 1899 0e5c F60D0000 		.4byte	0xdf6
 1900 0e60 00       		.byte	0
 1901 0e61 16       		.uleb128 0x16
 1902 0e62 000B0000 		.4byte	.LASF178
 1903 0e66 16       		.byte	0x16
 1904 0e67 7001     		.2byte	0x170
 1905 0e69 6D0E0000 		.4byte	0xe6d
 1906 0e6d 0B       		.uleb128 0xb
 1907 0e6e 04       		.byte	0x4
 1908 0e6f 730E0000 		.4byte	0xe73
 1909 0e73 1B       		.uleb128 0x1b
 1910 0e74 910E0000 		.4byte	0xe91
 1911 0e78 910E0000 		.4byte	0xe91
 1912 0e7c 0F       		.uleb128 0xf
 1913 0e7d F60D0000 		.4byte	0xdf6
 1914 0e81 0F       		.uleb128 0xf
 1915 0e82 B9000000 		.4byte	0xb9
 1916 0e86 0F       		.uleb128 0xf
 1917 0e87 B9000000 		.4byte	0xb9
 1918 0e8b 0F       		.uleb128 0xf
 1919 0e8c C9000000 		.4byte	0xc9
 1920 0e90 00       		.byte	0
 1921 0e91 0B       		.uleb128 0xb
 1922 0e92 04       		.byte	0x4
 1923 0e93 D40D0000 		.4byte	0xdd4
 1924 0e97 1C       		.uleb128 0x1c
 1925 0e98 20       		.byte	0x20
 1926 0e99 18       		.byte	0x18
 1927 0e9a 29       		.byte	0x29
 1928 0e9b 000F0000 		.4byte	0xf00
 1929 0e9f 08       		.uleb128 0x8
 1930 0ea0 C4020000 		.4byte	.LASF179
 1931 0ea4 18       		.byte	0x18
 1932 0ea5 2A       		.byte	0x2a
 1933 0ea6 EF000000 		.4byte	0xef
 1934 0eaa 00       		.byte	0
 1935 0eab 08       		.uleb128 0x8
 1936 0eac 80000000 		.4byte	.LASF180
 1937 0eb0 18       		.byte	0x18
 1938 0eb1 2C       		.byte	0x2c
ARM GAS  /tmp/ccHQbgGc.s 			page 35


 1939 0eb2 EF000000 		.4byte	0xef
 1940 0eb6 04       		.byte	0x4
 1941 0eb7 08       		.uleb128 0x8
 1942 0eb8 65080000 		.4byte	.LASF181
 1943 0ebc 18       		.byte	0x18
 1944 0ebd 2D       		.byte	0x2d
 1945 0ebe EF000000 		.4byte	0xef
 1946 0ec2 08       		.byte	0x8
 1947 0ec3 08       		.uleb128 0x8
 1948 0ec4 D5090000 		.4byte	.LASF182
 1949 0ec8 18       		.byte	0x18
 1950 0ec9 2E       		.byte	0x2e
 1951 0eca EF000000 		.4byte	0xef
 1952 0ece 0C       		.byte	0xc
 1953 0ecf 08       		.uleb128 0x8
 1954 0ed0 BE000000 		.4byte	.LASF183
 1955 0ed4 18       		.byte	0x18
 1956 0ed5 30       		.byte	0x30
 1957 0ed6 EF000000 		.4byte	0xef
 1958 0eda 10       		.byte	0x10
 1959 0edb 08       		.uleb128 0x8
 1960 0edc 6F0B0000 		.4byte	.LASF184
 1961 0ee0 18       		.byte	0x18
 1962 0ee1 32       		.byte	0x32
 1963 0ee2 EF000000 		.4byte	0xef
 1964 0ee6 14       		.byte	0x14
 1965 0ee7 08       		.uleb128 0x8
 1966 0ee8 55000000 		.4byte	.LASF185
 1967 0eec 18       		.byte	0x18
 1968 0eed 33       		.byte	0x33
 1969 0eee EF000000 		.4byte	0xef
 1970 0ef2 18       		.byte	0x18
 1971 0ef3 08       		.uleb128 0x8
 1972 0ef4 A60B0000 		.4byte	.LASF186
 1973 0ef8 18       		.byte	0x18
 1974 0ef9 34       		.byte	0x34
 1975 0efa EF000000 		.4byte	0xef
 1976 0efe 1C       		.byte	0x1c
 1977 0eff 00       		.byte	0
 1978 0f00 03       		.uleb128 0x3
 1979 0f01 B2040000 		.4byte	.LASF187
 1980 0f05 18       		.byte	0x18
 1981 0f06 35       		.byte	0x35
 1982 0f07 970E0000 		.4byte	0xe97
 1983 0f0b 1C       		.uleb128 0x1c
 1984 0f0c 20       		.byte	0x20
 1985 0f0d 18       		.byte	0x18
 1986 0f0e 3A       		.byte	0x3a
 1987 0f0f 740F0000 		.4byte	0xf74
 1988 0f13 08       		.uleb128 0x8
 1989 0f14 D00B0000 		.4byte	.LASF188
 1990 0f18 18       		.byte	0x18
 1991 0f19 3B       		.byte	0x3b
 1992 0f1a EF000000 		.4byte	0xef
 1993 0f1e 00       		.byte	0
 1994 0f1f 08       		.uleb128 0x8
 1995 0f20 79000000 		.4byte	.LASF189
ARM GAS  /tmp/ccHQbgGc.s 			page 36


 1996 0f24 18       		.byte	0x18
 1997 0f25 3D       		.byte	0x3d
 1998 0f26 EF000000 		.4byte	0xef
 1999 0f2a 04       		.byte	0x4
 2000 0f2b 08       		.uleb128 0x8
 2001 0f2c F50B0000 		.4byte	.LASF190
 2002 0f30 18       		.byte	0x18
 2003 0f31 3E       		.byte	0x3e
 2004 0f32 EF000000 		.4byte	0xef
 2005 0f36 08       		.byte	0x8
 2006 0f37 08       		.uleb128 0x8
 2007 0f38 90000000 		.4byte	.LASF191
 2008 0f3c 18       		.byte	0x18
 2009 0f3d 40       		.byte	0x40
 2010 0f3e EF000000 		.4byte	0xef
 2011 0f42 0C       		.byte	0xc
 2012 0f43 08       		.uleb128 0x8
 2013 0f44 8F020000 		.4byte	.LASF192
 2014 0f48 18       		.byte	0x18
 2015 0f49 41       		.byte	0x41
 2016 0f4a EF000000 		.4byte	0xef
 2017 0f4e 10       		.byte	0x10
 2018 0f4f 08       		.uleb128 0x8
 2019 0f50 6F0B0000 		.4byte	.LASF184
 2020 0f54 18       		.byte	0x18
 2021 0f55 43       		.byte	0x43
 2022 0f56 EF000000 		.4byte	0xef
 2023 0f5a 14       		.byte	0x14
 2024 0f5b 08       		.uleb128 0x8
 2025 0f5c 7E0B0000 		.4byte	.LASF193
 2026 0f60 18       		.byte	0x18
 2027 0f61 44       		.byte	0x44
 2028 0f62 EF000000 		.4byte	0xef
 2029 0f66 18       		.byte	0x18
 2030 0f67 08       		.uleb128 0x8
 2031 0f68 860B0000 		.4byte	.LASF194
 2032 0f6c 18       		.byte	0x18
 2033 0f6d 46       		.byte	0x46
 2034 0f6e EF000000 		.4byte	0xef
 2035 0f72 1C       		.byte	0x1c
 2036 0f73 00       		.byte	0
 2037 0f74 03       		.uleb128 0x3
 2038 0f75 4A0A0000 		.4byte	.LASF195
 2039 0f79 18       		.byte	0x18
 2040 0f7a 47       		.byte	0x47
 2041 0f7b 0B0F0000 		.4byte	0xf0b
 2042 0f7f 1C       		.uleb128 0x1c
 2043 0f80 20       		.byte	0x20
 2044 0f81 18       		.byte	0x18
 2045 0f82 4C       		.byte	0x4c
 2046 0f83 E80F0000 		.4byte	0xfe8
 2047 0f87 08       		.uleb128 0x8
 2048 0f88 D3010000 		.4byte	.LASF196
 2049 0f8c 18       		.byte	0x18
 2050 0f8d 4D       		.byte	0x4d
 2051 0f8e EF000000 		.4byte	0xef
 2052 0f92 00       		.byte	0
ARM GAS  /tmp/ccHQbgGc.s 			page 37


 2053 0f93 08       		.uleb128 0x8
 2054 0f94 79000000 		.4byte	.LASF189
 2055 0f98 18       		.byte	0x18
 2056 0f99 4F       		.byte	0x4f
 2057 0f9a EF000000 		.4byte	0xef
 2058 0f9e 04       		.byte	0x4
 2059 0f9f 08       		.uleb128 0x8
 2060 0fa0 07020000 		.4byte	.LASF197
 2061 0fa4 18       		.byte	0x18
 2062 0fa5 50       		.byte	0x50
 2063 0fa6 EF000000 		.4byte	0xef
 2064 0faa 08       		.byte	0x8
 2065 0fab 08       		.uleb128 0x8
 2066 0fac 90000000 		.4byte	.LASF191
 2067 0fb0 18       		.byte	0x18
 2068 0fb1 52       		.byte	0x52
 2069 0fb2 EF000000 		.4byte	0xef
 2070 0fb6 0C       		.byte	0xc
 2071 0fb7 08       		.uleb128 0x8
 2072 0fb8 30080000 		.4byte	.LASF198
 2073 0fbc 18       		.byte	0x18
 2074 0fbd 53       		.byte	0x53
 2075 0fbe EF000000 		.4byte	0xef
 2076 0fc2 10       		.byte	0x10
 2077 0fc3 08       		.uleb128 0x8
 2078 0fc4 6F0B0000 		.4byte	.LASF184
 2079 0fc8 18       		.byte	0x18
 2080 0fc9 55       		.byte	0x55
 2081 0fca EF000000 		.4byte	0xef
 2082 0fce 14       		.byte	0x14
 2083 0fcf 08       		.uleb128 0x8
 2084 0fd0 55000000 		.4byte	.LASF185
 2085 0fd4 18       		.byte	0x18
 2086 0fd5 56       		.byte	0x56
 2087 0fd6 EF000000 		.4byte	0xef
 2088 0fda 18       		.byte	0x18
 2089 0fdb 08       		.uleb128 0x8
 2090 0fdc 860B0000 		.4byte	.LASF194
 2091 0fe0 18       		.byte	0x18
 2092 0fe1 57       		.byte	0x57
 2093 0fe2 EF000000 		.4byte	0xef
 2094 0fe6 1C       		.byte	0x1c
 2095 0fe7 00       		.byte	0
 2096 0fe8 03       		.uleb128 0x3
 2097 0fe9 CB020000 		.4byte	.LASF199
 2098 0fed 18       		.byte	0x18
 2099 0fee 58       		.byte	0x58
 2100 0fef 7F0F0000 		.4byte	0xf7f
 2101 0ff3 24       		.uleb128 0x24
 2102 0ff4 00100100 		.4byte	0x11000
 2103 0ff8 18       		.byte	0x18
 2104 0ff9 5D       		.byte	0x5d
 2105 0ffa D0120000 		.4byte	0x12d0
 2106 0ffe 08       		.uleb128 0x8
 2107 0fff 2E070000 		.4byte	.LASF200
 2108 1003 18       		.byte	0x18
 2109 1004 5E       		.byte	0x5e
ARM GAS  /tmp/ccHQbgGc.s 			page 38


 2110 1005 EF000000 		.4byte	0xef
 2111 1009 00       		.byte	0
 2112 100a 08       		.uleb128 0x8
 2113 100b 84070000 		.4byte	.LASF201
 2114 100f 18       		.byte	0x18
 2115 1010 5F       		.byte	0x5f
 2116 1011 EF000000 		.4byte	0xef
 2117 1015 04       		.byte	0x4
 2118 1016 08       		.uleb128 0x8
 2119 1017 4F060000 		.4byte	.LASF202
 2120 101b 18       		.byte	0x18
 2121 101c 60       		.byte	0x60
 2122 101d EF000000 		.4byte	0xef
 2123 1021 08       		.byte	0x8
 2124 1022 08       		.uleb128 0x8
 2125 1023 240D0000 		.4byte	.LASF203
 2126 1027 18       		.byte	0x18
 2127 1028 61       		.byte	0x61
 2128 1029 EF000000 		.4byte	0xef
 2129 102d 0C       		.byte	0xc
 2130 102e 08       		.uleb128 0x8
 2131 102f 5B050000 		.4byte	.LASF204
 2132 1033 18       		.byte	0x18
 2133 1034 62       		.byte	0x62
 2134 1035 EF000000 		.4byte	0xef
 2135 1039 10       		.byte	0x10
 2136 103a 08       		.uleb128 0x8
 2137 103b E60B0000 		.4byte	.LASF205
 2138 103f 18       		.byte	0x18
 2139 1040 63       		.byte	0x63
 2140 1041 EF000000 		.4byte	0xef
 2141 1045 14       		.byte	0x14
 2142 1046 08       		.uleb128 0x8
 2143 1047 AD080000 		.4byte	.LASF206
 2144 104b 18       		.byte	0x18
 2145 104c 64       		.byte	0x64
 2146 104d EF000000 		.4byte	0xef
 2147 1051 18       		.byte	0x18
 2148 1052 08       		.uleb128 0x8
 2149 1053 4F070000 		.4byte	.LASF207
 2150 1057 18       		.byte	0x18
 2151 1058 65       		.byte	0x65
 2152 1059 EF000000 		.4byte	0xef
 2153 105d 1C       		.byte	0x1c
 2154 105e 08       		.uleb128 0x8
 2155 105f A4070000 		.4byte	.LASF208
 2156 1063 18       		.byte	0x18
 2157 1064 67       		.byte	0x67
 2158 1065 EF000000 		.4byte	0xef
 2159 1069 20       		.byte	0x20
 2160 106a 08       		.uleb128 0x8
 2161 106b B5050000 		.4byte	.LASF209
 2162 106f 18       		.byte	0x18
 2163 1070 69       		.byte	0x69
 2164 1071 EF000000 		.4byte	0xef
 2165 1075 24       		.byte	0x24
 2166 1076 08       		.uleb128 0x8
ARM GAS  /tmp/ccHQbgGc.s 			page 39


 2167 1077 48010000 		.4byte	.LASF210
 2168 107b 18       		.byte	0x18
 2169 107c 6A       		.byte	0x6a
 2170 107d EF000000 		.4byte	0xef
 2171 1081 28       		.byte	0x28
 2172 1082 08       		.uleb128 0x8
 2173 1083 FD0B0000 		.4byte	.LASF211
 2174 1087 18       		.byte	0x18
 2175 1088 6C       		.byte	0x6c
 2176 1089 EF000000 		.4byte	0xef
 2177 108d 2C       		.byte	0x2c
 2178 108e 08       		.uleb128 0x8
 2179 108f 380C0000 		.4byte	.LASF212
 2180 1093 18       		.byte	0x18
 2181 1094 6E       		.byte	0x6e
 2182 1095 EF000000 		.4byte	0xef
 2183 1099 30       		.byte	0x30
 2184 109a 08       		.uleb128 0x8
 2185 109b 4A0C0000 		.4byte	.LASF213
 2186 109f 18       		.byte	0x18
 2187 10a0 6F       		.byte	0x6f
 2188 10a1 EF000000 		.4byte	0xef
 2189 10a5 34       		.byte	0x34
 2190 10a6 08       		.uleb128 0x8
 2191 10a7 67020000 		.4byte	.LASF214
 2192 10ab 18       		.byte	0x18
 2193 10ac 70       		.byte	0x70
 2194 10ad EF000000 		.4byte	0xef
 2195 10b1 38       		.byte	0x38
 2196 10b2 09       		.uleb128 0x9
 2197 10b3 43494400 		.ascii	"CID\000"
 2198 10b7 18       		.byte	0x18
 2199 10b8 71       		.byte	0x71
 2200 10b9 EF000000 		.4byte	0xef
 2201 10bd 3C       		.byte	0x3c
 2202 10be 08       		.uleb128 0x8
 2203 10bf 060D0000 		.4byte	.LASF215
 2204 10c3 18       		.byte	0x18
 2205 10c4 72       		.byte	0x72
 2206 10c5 E0120000 		.4byte	0x12e0
 2207 10c9 40       		.byte	0x40
 2208 10ca 21       		.uleb128 0x21
 2209 10cb 88090000 		.4byte	.LASF216
 2210 10cf 18       		.byte	0x18
 2211 10d0 73       		.byte	0x73
 2212 10d1 EF000000 		.4byte	0xef
 2213 10d5 0001     		.2byte	0x100
 2214 10d7 21       		.uleb128 0x21
 2215 10d8 EF050000 		.4byte	.LASF217
 2216 10dc 18       		.byte	0x18
 2217 10dd 75       		.byte	0x75
 2218 10de B6040000 		.4byte	0x4b6
 2219 10e2 0401     		.2byte	0x104
 2220 10e4 21       		.uleb128 0x21
 2221 10e5 2C0D0000 		.4byte	.LASF218
 2222 10e9 18       		.byte	0x18
 2223 10ea 77       		.byte	0x77
ARM GAS  /tmp/ccHQbgGc.s 			page 40


 2224 10eb F5120000 		.4byte	0x12f5
 2225 10ef 4001     		.2byte	0x140
 2226 10f1 21       		.uleb128 0x21
 2227 10f2 D2080000 		.4byte	.LASF219
 2228 10f6 18       		.byte	0x18
 2229 10f7 78       		.byte	0x78
 2230 10f8 EF000000 		.4byte	0xef
 2231 10fc 0004     		.2byte	0x400
 2232 10fe 21       		.uleb128 0x21
 2233 10ff 0E0D0000 		.4byte	.LASF220
 2234 1103 18       		.byte	0x18
 2235 1104 79       		.byte	0x79
 2236 1105 EF000000 		.4byte	0xef
 2237 1109 0404     		.2byte	0x404
 2238 110b 21       		.uleb128 0x21
 2239 110c 98040000 		.4byte	.LASF221
 2240 1110 18       		.byte	0x18
 2241 1111 7A       		.byte	0x7a
 2242 1112 EF000000 		.4byte	0xef
 2243 1116 0804     		.2byte	0x408
 2244 1118 21       		.uleb128 0x21
 2245 1119 25070000 		.4byte	.LASF222
 2246 111d 18       		.byte	0x18
 2247 111e 7C       		.byte	0x7c
 2248 111f EF000000 		.4byte	0xef
 2249 1123 0C04     		.2byte	0x40c
 2250 1125 21       		.uleb128 0x21
 2251 1126 F7050000 		.4byte	.LASF223
 2252 112a 18       		.byte	0x18
 2253 112b 7D       		.byte	0x7d
 2254 112c EF000000 		.4byte	0xef
 2255 1130 1004     		.2byte	0x410
 2256 1132 21       		.uleb128 0x21
 2257 1133 48080000 		.4byte	.LASF224
 2258 1137 18       		.byte	0x18
 2259 1138 7F       		.byte	0x7f
 2260 1139 EF000000 		.4byte	0xef
 2261 113d 1404     		.2byte	0x414
 2262 113f 21       		.uleb128 0x21
 2263 1140 99080000 		.4byte	.LASF225
 2264 1144 18       		.byte	0x18
 2265 1145 81       		.byte	0x81
 2266 1146 EF000000 		.4byte	0xef
 2267 114a 1804     		.2byte	0x418
 2268 114c 21       		.uleb128 0x21
 2269 114d BA070000 		.4byte	.LASF226
 2270 1151 18       		.byte	0x18
 2271 1152 83       		.byte	0x83
 2272 1153 0A130000 		.4byte	0x130a
 2273 1157 1C04     		.2byte	0x41c
 2274 1159 21       		.uleb128 0x21
 2275 115a F1020000 		.4byte	.LASF227
 2276 115e 18       		.byte	0x18
 2277 115f 84       		.byte	0x84
 2278 1160 EF000000 		.4byte	0xef
 2279 1164 4004     		.2byte	0x440
 2280 1166 21       		.uleb128 0x21
ARM GAS  /tmp/ccHQbgGc.s 			page 41


 2281 1167 81080000 		.4byte	.LASF228
 2282 116b 18       		.byte	0x18
 2283 116c 86       		.byte	0x86
 2284 116d 1F130000 		.4byte	0x131f
 2285 1171 4404     		.2byte	0x444
 2286 1173 20       		.uleb128 0x20
 2287 1174 686300   		.ascii	"hc\000"
 2288 1177 18       		.byte	0x18
 2289 1178 87       		.byte	0x87
 2290 1179 24130000 		.4byte	0x1324
 2291 117d 0005     		.2byte	0x500
 2292 117f 21       		.uleb128 0x21
 2293 1180 C5000000 		.4byte	.LASF229
 2294 1184 18       		.byte	0x18
 2295 1185 88       		.byte	0x88
 2296 1186 44130000 		.4byte	0x1344
 2297 118a 0007     		.2byte	0x700
 2298 118c 21       		.uleb128 0x21
 2299 118d 59020000 		.4byte	.LASF230
 2300 1191 18       		.byte	0x18
 2301 1192 89       		.byte	0x89
 2302 1193 EF000000 		.4byte	0xef
 2303 1197 0008     		.2byte	0x800
 2304 1199 21       		.uleb128 0x21
 2305 119a A0090000 		.4byte	.LASF231
 2306 119e 18       		.byte	0x18
 2307 119f 8A       		.byte	0x8a
 2308 11a0 EF000000 		.4byte	0xef
 2309 11a4 0408     		.2byte	0x804
 2310 11a6 21       		.uleb128 0x21
 2311 11a7 9B0C0000 		.4byte	.LASF232
 2312 11ab 18       		.byte	0x18
 2313 11ac 8B       		.byte	0x8b
 2314 11ad EF000000 		.4byte	0xef
 2315 11b1 0808     		.2byte	0x808
 2316 11b3 21       		.uleb128 0x21
 2317 11b4 E8020000 		.4byte	.LASF233
 2318 11b8 18       		.byte	0x18
 2319 11b9 8C       		.byte	0x8c
 2320 11ba EF000000 		.4byte	0xef
 2321 11be 0C08     		.2byte	0x80c
 2322 11c0 21       		.uleb128 0x21
 2323 11c1 8E0B0000 		.4byte	.LASF234
 2324 11c5 18       		.byte	0x18
 2325 11c6 8D       		.byte	0x8d
 2326 11c7 EF000000 		.4byte	0xef
 2327 11cb 1008     		.2byte	0x810
 2328 11cd 21       		.uleb128 0x21
 2329 11ce B4010000 		.4byte	.LASF235
 2330 11d2 18       		.byte	0x18
 2331 11d3 8F       		.byte	0x8f
 2332 11d4 EF000000 		.4byte	0xef
 2333 11d8 1408     		.2byte	0x814
 2334 11da 21       		.uleb128 0x21
 2335 11db AE010000 		.4byte	.LASF236
 2336 11df 18       		.byte	0x18
 2337 11e0 91       		.byte	0x91
ARM GAS  /tmp/ccHQbgGc.s 			page 42


 2338 11e1 EF000000 		.4byte	0xef
 2339 11e5 1808     		.2byte	0x818
 2340 11e7 21       		.uleb128 0x21
 2341 11e8 380A0000 		.4byte	.LASF237
 2342 11ec 18       		.byte	0x18
 2343 11ed 93       		.byte	0x93
 2344 11ee EF000000 		.4byte	0xef
 2345 11f2 1C08     		.2byte	0x81c
 2346 11f4 21       		.uleb128 0x21
 2347 11f5 E7040000 		.4byte	.LASF238
 2348 11f9 18       		.byte	0x18
 2349 11fa 95       		.byte	0x95
 2350 11fb EF000000 		.4byte	0xef
 2351 11ff 2008     		.2byte	0x820
 2352 1201 21       		.uleb128 0x21
 2353 1202 F0040000 		.4byte	.LASF239
 2354 1206 18       		.byte	0x18
 2355 1207 96       		.byte	0x96
 2356 1208 EF000000 		.4byte	0xef
 2357 120c 2408     		.2byte	0x824
 2358 120e 21       		.uleb128 0x21
 2359 120f 410A0000 		.4byte	.LASF240
 2360 1213 18       		.byte	0x18
 2361 1214 97       		.byte	0x97
 2362 1215 EF000000 		.4byte	0xef
 2363 1219 2808     		.2byte	0x828
 2364 121b 21       		.uleb128 0x21
 2365 121c F9040000 		.4byte	.LASF241
 2366 1220 18       		.byte	0x18
 2367 1221 99       		.byte	0x99
 2368 1222 EF000000 		.4byte	0xef
 2369 1226 2C08     		.2byte	0x82c
 2370 1228 21       		.uleb128 0x21
 2371 1229 21090000 		.4byte	.LASF242
 2372 122d 18       		.byte	0x18
 2373 122e 9B       		.byte	0x9b
 2374 122f EF000000 		.4byte	0xef
 2375 1233 3008     		.2byte	0x830
 2376 1235 21       		.uleb128 0x21
 2377 1236 23050000 		.4byte	.LASF243
 2378 123a 18       		.byte	0x18
 2379 123b 9C       		.byte	0x9c
 2380 123c EF000000 		.4byte	0xef
 2381 1240 3408     		.2byte	0x834
 2382 1242 21       		.uleb128 0x21
 2383 1243 DF070000 		.4byte	.LASF244
 2384 1247 18       		.byte	0x18
 2385 1248 9E       		.byte	0x9e
 2386 1249 EF000000 		.4byte	0xef
 2387 124d 3808     		.2byte	0x838
 2388 124f 21       		.uleb128 0x21
 2389 1250 17080000 		.4byte	.LASF245
 2390 1254 18       		.byte	0x18
 2391 1255 9F       		.byte	0x9f
 2392 1256 EF000000 		.4byte	0xef
 2393 125a 3C08     		.2byte	0x83c
 2394 125c 21       		.uleb128 0x21
ARM GAS  /tmp/ccHQbgGc.s 			page 43


 2395 125d CD050000 		.4byte	.LASF246
 2396 1261 18       		.byte	0x18
 2397 1262 A0       		.byte	0xa0
 2398 1263 59130000 		.4byte	0x1359
 2399 1267 4008     		.2byte	0x840
 2400 1269 21       		.uleb128 0x21
 2401 126a 01080000 		.4byte	.LASF247
 2402 126e 18       		.byte	0x18
 2403 126f A1       		.byte	0xa1
 2404 1270 59130000 		.4byte	0x1359
 2405 1274 8008     		.2byte	0x880
 2406 1276 21       		.uleb128 0x21
 2407 1277 5E020000 		.4byte	.LASF248
 2408 127b 18       		.byte	0x18
 2409 127c A2       		.byte	0xa2
 2410 127d 59130000 		.4byte	0x1359
 2411 1281 C008     		.2byte	0x8c0
 2412 1283 20       		.uleb128 0x20
 2413 1284 696500   		.ascii	"ie\000"
 2414 1287 18       		.byte	0x18
 2415 1288 A3       		.byte	0xa3
 2416 1289 5E130000 		.4byte	0x135e
 2417 128d 0009     		.2byte	0x900
 2418 128f 20       		.uleb128 0x20
 2419 1290 6F6500   		.ascii	"oe\000"
 2420 1293 18       		.byte	0x18
 2421 1294 A4       		.byte	0xa4
 2422 1295 6E130000 		.4byte	0x136e
 2423 1299 000B     		.2byte	0xb00
 2424 129b 21       		.uleb128 0x21
 2425 129c 68090000 		.4byte	.LASF249
 2426 12a0 18       		.byte	0x18
 2427 12a1 A5       		.byte	0xa5
 2428 12a2 44130000 		.4byte	0x1344
 2429 12a6 000D     		.2byte	0xd00
 2430 12a8 21       		.uleb128 0x21
 2431 12a9 68070000 		.4byte	.LASF250
 2432 12ad 18       		.byte	0x18
 2433 12ae A6       		.byte	0xa6
 2434 12af EF000000 		.4byte	0xef
 2435 12b3 000E     		.2byte	0xe00
 2436 12b5 21       		.uleb128 0x21
 2437 12b6 2F0C0000 		.4byte	.LASF251
 2438 12ba 18       		.byte	0x18
 2439 12bb A8       		.byte	0xa8
 2440 12bc 8E130000 		.4byte	0x138e
 2441 12c0 040E     		.2byte	0xe04
 2442 12c2 21       		.uleb128 0x21
 2443 12c3 BC0A0000 		.4byte	.LASF252
 2444 12c7 18       		.byte	0x18
 2445 12c8 A9       		.byte	0xa9
 2446 12c9 AA130000 		.4byte	0x13aa
 2447 12cd 0010     		.2byte	0x1000
 2448 12cf 00       		.byte	0
 2449 12d0 13       		.uleb128 0x13
 2450 12d1 EF000000 		.4byte	0xef
 2451 12d5 E0120000 		.4byte	0x12e0
ARM GAS  /tmp/ccHQbgGc.s 			page 44


 2452 12d9 14       		.uleb128 0x14
 2453 12da 76030000 		.4byte	0x376
 2454 12de 2F       		.byte	0x2f
 2455 12df 00       		.byte	0
 2456 12e0 04       		.uleb128 0x4
 2457 12e1 D0120000 		.4byte	0x12d0
 2458 12e5 13       		.uleb128 0x13
 2459 12e6 EF000000 		.4byte	0xef
 2460 12ea F5120000 		.4byte	0x12f5
 2461 12ee 14       		.uleb128 0x14
 2462 12ef 76030000 		.4byte	0x376
 2463 12f3 AF       		.byte	0xaf
 2464 12f4 00       		.byte	0
 2465 12f5 04       		.uleb128 0x4
 2466 12f6 E5120000 		.4byte	0x12e5
 2467 12fa 13       		.uleb128 0x13
 2468 12fb EF000000 		.4byte	0xef
 2469 12ff 0A130000 		.4byte	0x130a
 2470 1303 14       		.uleb128 0x14
 2471 1304 76030000 		.4byte	0x376
 2472 1308 08       		.byte	0x8
 2473 1309 00       		.byte	0
 2474 130a 04       		.uleb128 0x4
 2475 130b FA120000 		.4byte	0x12fa
 2476 130f 13       		.uleb128 0x13
 2477 1310 EF000000 		.4byte	0xef
 2478 1314 1F130000 		.4byte	0x131f
 2479 1318 14       		.uleb128 0x14
 2480 1319 76030000 		.4byte	0x376
 2481 131d 2E       		.byte	0x2e
 2482 131e 00       		.byte	0
 2483 131f 04       		.uleb128 0x4
 2484 1320 0F130000 		.4byte	0x130f
 2485 1324 13       		.uleb128 0x13
 2486 1325 000F0000 		.4byte	0xf00
 2487 1329 34130000 		.4byte	0x1334
 2488 132d 14       		.uleb128 0x14
 2489 132e 76030000 		.4byte	0x376
 2490 1332 0F       		.byte	0xf
 2491 1333 00       		.byte	0
 2492 1334 13       		.uleb128 0x13
 2493 1335 EF000000 		.4byte	0xef
 2494 1339 44130000 		.4byte	0x1344
 2495 133d 14       		.uleb128 0x14
 2496 133e 76030000 		.4byte	0x376
 2497 1342 3F       		.byte	0x3f
 2498 1343 00       		.byte	0
 2499 1344 04       		.uleb128 0x4
 2500 1345 34130000 		.4byte	0x1334
 2501 1349 13       		.uleb128 0x13
 2502 134a EF000000 		.4byte	0xef
 2503 134e 59130000 		.4byte	0x1359
 2504 1352 14       		.uleb128 0x14
 2505 1353 76030000 		.4byte	0x376
 2506 1357 0F       		.byte	0xf
 2507 1358 00       		.byte	0
 2508 1359 04       		.uleb128 0x4
ARM GAS  /tmp/ccHQbgGc.s 			page 45


 2509 135a 49130000 		.4byte	0x1349
 2510 135e 13       		.uleb128 0x13
 2511 135f 740F0000 		.4byte	0xf74
 2512 1363 6E130000 		.4byte	0x136e
 2513 1367 14       		.uleb128 0x14
 2514 1368 76030000 		.4byte	0x376
 2515 136c 0F       		.byte	0xf
 2516 136d 00       		.byte	0
 2517 136e 13       		.uleb128 0x13
 2518 136f E80F0000 		.4byte	0xfe8
 2519 1373 7E130000 		.4byte	0x137e
 2520 1377 14       		.uleb128 0x14
 2521 1378 76030000 		.4byte	0x376
 2522 137c 0F       		.byte	0xf
 2523 137d 00       		.byte	0
 2524 137e 13       		.uleb128 0x13
 2525 137f EF000000 		.4byte	0xef
 2526 1383 8E130000 		.4byte	0x138e
 2527 1387 14       		.uleb128 0x14
 2528 1388 76030000 		.4byte	0x376
 2529 138c 7E       		.byte	0x7e
 2530 138d 00       		.byte	0
 2531 138e 04       		.uleb128 0x4
 2532 138f 7E130000 		.4byte	0x137e
 2533 1393 13       		.uleb128 0x13
 2534 1394 EF000000 		.4byte	0xef
 2535 1398 AA130000 		.4byte	0x13aa
 2536 139c 14       		.uleb128 0x14
 2537 139d 76030000 		.4byte	0x376
 2538 13a1 0F       		.byte	0xf
 2539 13a2 22       		.uleb128 0x22
 2540 13a3 76030000 		.4byte	0x376
 2541 13a7 FF03     		.2byte	0x3ff
 2542 13a9 00       		.byte	0
 2543 13aa 04       		.uleb128 0x4
 2544 13ab 93130000 		.4byte	0x1393
 2545 13af 03       		.uleb128 0x3
 2546 13b0 6B080000 		.4byte	.LASF253
 2547 13b4 18       		.byte	0x18
 2548 13b5 AA       		.byte	0xaa
 2549 13b6 F30F0000 		.4byte	0xff3
 2550 13ba 15       		.uleb128 0x15
 2551 13bb 0C       		.byte	0xc
 2552 13bc 17       		.byte	0x17
 2553 13bd 0301     		.2byte	0x103
 2554 13bf EB130000 		.4byte	0x13eb
 2555 13c3 0D       		.uleb128 0xd
 2556 13c4 48000000 		.4byte	.LASF254
 2557 13c8 17       		.byte	0x17
 2558 13c9 0401     		.2byte	0x104
 2559 13cb E4000000 		.4byte	0xe4
 2560 13cf 00       		.byte	0
 2561 13d0 0D       		.uleb128 0xd
 2562 13d1 5C0A0000 		.4byte	.LASF255
 2563 13d5 17       		.byte	0x17
 2564 13d6 0501     		.2byte	0x105
 2565 13d8 E4000000 		.4byte	0xe4
ARM GAS  /tmp/ccHQbgGc.s 			page 46


 2566 13dc 04       		.byte	0x4
 2567 13dd 0D       		.uleb128 0xd
 2568 13de AA060000 		.4byte	.LASF256
 2569 13e2 17       		.byte	0x17
 2570 13e3 0601     		.2byte	0x106
 2571 13e5 E4000000 		.4byte	0xe4
 2572 13e9 08       		.byte	0x8
 2573 13ea 00       		.byte	0
 2574 13eb 16       		.uleb128 0x16
 2575 13ec 3C050000 		.4byte	.LASF257
 2576 13f0 17       		.byte	0x17
 2577 13f1 0701     		.2byte	0x107
 2578 13f3 BA130000 		.4byte	0x13ba
 2579 13f7 06       		.uleb128 0x6
 2580 13f8 EB130000 		.4byte	0x13eb
 2581 13fc 15       		.uleb128 0x15
 2582 13fd 10       		.byte	0x10
 2583 13fe 17       		.byte	0x17
 2584 13ff 0C01     		.2byte	0x10c
 2585 1401 3A140000 		.4byte	0x143a
 2586 1405 0D       		.uleb128 0xd
 2587 1406 1E070000 		.4byte	.LASF258
 2588 140a 17       		.byte	0x17
 2589 140b 1001     		.2byte	0x110
 2590 140d 2C000000 		.4byte	0x2c
 2591 1411 00       		.byte	0
 2592 1412 0D       		.uleb128 0xd
 2593 1413 BD050000 		.4byte	.LASF259
 2594 1417 17       		.byte	0x17
 2595 1418 1401     		.2byte	0x114
 2596 141a 2C000000 		.4byte	0x2c
 2597 141e 04       		.byte	0x4
 2598 141f 0D       		.uleb128 0xd
 2599 1420 9F010000 		.4byte	.LASF260
 2600 1424 17       		.byte	0x17
 2601 1425 1801     		.2byte	0x118
 2602 1427 C1070000 		.4byte	0x7c1
 2603 142b 08       		.byte	0x8
 2604 142c 0D       		.uleb128 0xd
 2605 142d AD050000 		.4byte	.LASF261
 2606 1431 17       		.byte	0x17
 2607 1432 2301     		.2byte	0x123
 2608 1434 2C000000 		.4byte	0x2c
 2609 1438 0C       		.byte	0xc
 2610 1439 00       		.byte	0
 2611 143a 16       		.uleb128 0x16
 2612 143b D4040000 		.4byte	.LASF262
 2613 143f 17       		.byte	0x17
 2614 1440 2401     		.2byte	0x124
 2615 1442 FC130000 		.4byte	0x13fc
 2616 1446 15       		.uleb128 0x15
 2617 1447 10       		.byte	0x10
 2618 1448 17       		.byte	0x17
 2619 1449 2901     		.2byte	0x129
 2620 144b 84140000 		.4byte	0x1484
 2621 144f 0D       		.uleb128 0xd
 2622 1450 16020000 		.4byte	.LASF263
ARM GAS  /tmp/ccHQbgGc.s 			page 47


 2623 1454 17       		.byte	0x17
 2624 1455 2D01     		.2byte	0x12d
 2625 1457 2C000000 		.4byte	0x2c
 2626 145b 00       		.byte	0
 2627 145c 0D       		.uleb128 0xd
 2628 145d 0D070000 		.4byte	.LASF264
 2629 1461 17       		.byte	0x17
 2630 1462 3101     		.2byte	0x131
 2631 1464 2C000000 		.4byte	0x2c
 2632 1468 04       		.byte	0x4
 2633 1469 0D       		.uleb128 0xd
 2634 146a 40070000 		.4byte	.LASF265
 2635 146e 17       		.byte	0x17
 2636 146f 3501     		.2byte	0x135
 2637 1471 E6070000 		.4byte	0x7e6
 2638 1475 08       		.byte	0x8
 2639 1476 0D       		.uleb128 0xd
 2640 1477 AD050000 		.4byte	.LASF261
 2641 147b 17       		.byte	0x17
 2642 147c 4001     		.2byte	0x140
 2643 147e 2C000000 		.4byte	0x2c
 2644 1482 0C       		.byte	0xc
 2645 1483 00       		.byte	0
 2646 1484 16       		.uleb128 0x16
 2647 1485 54090000 		.4byte	.LASF266
 2648 1489 17       		.byte	0x17
 2649 148a 4101     		.2byte	0x141
 2650 148c 46140000 		.4byte	0x1446
 2651 1490 15       		.uleb128 0x15
 2652 1491 24       		.byte	0x24
 2653 1492 17       		.byte	0x17
 2654 1493 4701     		.2byte	0x147
 2655 1495 1C150000 		.4byte	0x151c
 2656 1499 0D       		.uleb128 0xd
 2657 149a DB000000 		.4byte	.LASF267
 2658 149e 17       		.byte	0x17
 2659 149f 4B01     		.2byte	0x14b
 2660 14a1 E4000000 		.4byte	0xe4
 2661 14a5 00       		.byte	0
 2662 14a6 0D       		.uleb128 0xd
 2663 14a7 F8070000 		.4byte	.LASF268
 2664 14ab 17       		.byte	0x17
 2665 14ac 5601     		.2byte	0x156
 2666 14ae FC0D0000 		.4byte	0xdfc
 2667 14b2 04       		.byte	0x4
 2668 14b3 0D       		.uleb128 0xd
 2669 14b4 74040000 		.4byte	.LASF269
 2670 14b8 17       		.byte	0x17
 2671 14b9 5B01     		.2byte	0x15b
 2672 14bb FC0D0000 		.4byte	0xdfc
 2673 14bf 08       		.byte	0x8
 2674 14c0 0D       		.uleb128 0xd
 2675 14c1 92080000 		.4byte	.LASF270
 2676 14c5 17       		.byte	0x17
 2677 14c6 6001     		.2byte	0x160
 2678 14c8 FC0D0000 		.4byte	0xdfc
 2679 14cc 0C       		.byte	0xc
ARM GAS  /tmp/ccHQbgGc.s 			page 48


 2680 14cd 0D       		.uleb128 0xd
 2681 14ce A2080000 		.4byte	.LASF271
 2682 14d2 17       		.byte	0x17
 2683 14d3 6501     		.2byte	0x165
 2684 14d5 C9000000 		.4byte	0xc9
 2685 14d9 10       		.byte	0x10
 2686 14da 0D       		.uleb128 0xd
 2687 14db 800A0000 		.4byte	.LASF272
 2688 14df 17       		.byte	0x17
 2689 14e0 6A01     		.2byte	0x16a
 2690 14e2 C9000000 		.4byte	0xc9
 2691 14e6 12       		.byte	0x12
 2692 14e7 0D       		.uleb128 0xd
 2693 14e8 46070000 		.4byte	.LASF273
 2694 14ec 17       		.byte	0x17
 2695 14ed 7001     		.2byte	0x170
 2696 14ef 1C150000 		.4byte	0x151c
 2697 14f3 14       		.byte	0x14
 2698 14f4 0D       		.uleb128 0xd
 2699 14f5 C8080000 		.4byte	.LASF274
 2700 14f9 17       		.byte	0x17
 2701 14fa 7601     		.2byte	0x176
 2702 14fc 22150000 		.4byte	0x1522
 2703 1500 18       		.byte	0x18
 2704 1501 0D       		.uleb128 0xd
 2705 1502 89060000 		.4byte	.LASF275
 2706 1506 17       		.byte	0x17
 2707 1507 7D01     		.2byte	0x17d
 2708 1509 C9000000 		.4byte	0xc9
 2709 150d 1C       		.byte	0x1c
 2710 150e 0D       		.uleb128 0xd
 2711 150f 77080000 		.4byte	.LASF276
 2712 1513 17       		.byte	0x17
 2713 1514 8301     		.2byte	0x183
 2714 1516 E6070000 		.4byte	0x7e6
 2715 151a 20       		.byte	0x20
 2716 151b 00       		.byte	0
 2717 151c 0B       		.uleb128 0xb
 2718 151d 04       		.byte	0x4
 2719 151e 3A140000 		.4byte	0x143a
 2720 1522 0B       		.uleb128 0xb
 2721 1523 04       		.byte	0x4
 2722 1524 84140000 		.4byte	0x1484
 2723 1528 16       		.uleb128 0x16
 2724 1529 B6090000 		.4byte	.LASF277
 2725 152d 17       		.byte	0x17
 2726 152e 8401     		.2byte	0x184
 2727 1530 90140000 		.4byte	0x1490
 2728 1534 06       		.uleb128 0x6
 2729 1535 28150000 		.4byte	0x1528
 2730 1539 15       		.uleb128 0x15
 2731 153a 10       		.byte	0x10
 2732 153b 17       		.byte	0x17
 2733 153c 8901     		.2byte	0x189
 2734 153e 77150000 		.4byte	0x1577
 2735 1542 0D       		.uleb128 0xd
 2736 1543 7B070000 		.4byte	.LASF278
ARM GAS  /tmp/ccHQbgGc.s 			page 49


 2737 1547 17       		.byte	0x17
 2738 1548 8E01     		.2byte	0x18e
 2739 154a 1E0E0000 		.4byte	0xe1e
 2740 154e 00       		.byte	0
 2741 154f 0D       		.uleb128 0xd
 2742 1550 A00C0000 		.4byte	.LASF279
 2743 1554 17       		.byte	0x17
 2744 1555 9301     		.2byte	0x193
 2745 1557 610E0000 		.4byte	0xe61
 2746 155b 04       		.byte	0x4
 2747 155c 0D       		.uleb128 0xd
 2748 155d A7020000 		.4byte	.LASF280
 2749 1561 17       		.byte	0x17
 2750 1562 9901     		.2byte	0x199
 2751 1564 400E0000 		.4byte	0xe40
 2752 1568 08       		.byte	0x8
 2753 1569 0D       		.uleb128 0xd
 2754 156a 280C0000 		.4byte	.LASF281
 2755 156e 17       		.byte	0x17
 2756 156f 9D01     		.2byte	0x19d
 2757 1571 D90D0000 		.4byte	0xdd9
 2758 1575 0C       		.byte	0xc
 2759 1576 00       		.byte	0
 2760 1577 16       		.uleb128 0x16
 2761 1578 5B080000 		.4byte	.LASF282
 2762 157c 17       		.byte	0x17
 2763 157d 9F01     		.2byte	0x19f
 2764 157f 39150000 		.4byte	0x1539
 2765 1583 06       		.uleb128 0x6
 2766 1584 77150000 		.4byte	0x1577
 2767 1588 0B       		.uleb128 0xb
 2768 1589 04       		.byte	0x4
 2769 158a 83150000 		.4byte	0x1583
 2770 158e 13       		.uleb128 0x13
 2771 158f 9E150000 		.4byte	0x159e
 2772 1593 9E150000 		.4byte	0x159e
 2773 1597 14       		.uleb128 0x14
 2774 1598 76030000 		.4byte	0x376
 2775 159c 03       		.byte	0x3
 2776 159d 00       		.byte	0
 2777 159e 0B       		.uleb128 0xb
 2778 159f 04       		.byte	0x4
 2779 15a0 34150000 		.4byte	0x1534
 2780 15a4 13       		.uleb128 0x13
 2781 15a5 44020000 		.4byte	0x244
 2782 15a9 B4150000 		.4byte	0x15b4
 2783 15ad 14       		.uleb128 0x14
 2784 15ae 76030000 		.4byte	0x376
 2785 15b2 02       		.byte	0x2
 2786 15b3 00       		.byte	0
 2787 15b4 13       		.uleb128 0x13
 2788 15b5 B9000000 		.4byte	0xb9
 2789 15b9 C4150000 		.4byte	0x15c4
 2790 15bd 14       		.uleb128 0x14
 2791 15be 76030000 		.4byte	0x376
 2792 15c2 07       		.byte	0x7
 2793 15c3 00       		.byte	0
ARM GAS  /tmp/ccHQbgGc.s 			page 50


 2794 15c4 0B       		.uleb128 0xb
 2795 15c5 04       		.byte	0x4
 2796 15c6 AF130000 		.4byte	0x13af
 2797 15ca 0B       		.uleb128 0xb
 2798 15cb 04       		.byte	0x4
 2799 15cc F7130000 		.4byte	0x13f7
 2800 15d0 11       		.uleb128 0x11
 2801 15d1 150C0000 		.4byte	.LASF283
 2802 15d5 17       		.byte	0x17
 2803 15d6 3902     		.2byte	0x239
 2804 15d8 C10B0000 		.4byte	0xbc1
 2805 15dc 07       		.uleb128 0x7
 2806 15dd 3A000000 		.4byte	.LASF284
 2807 15e1 14       		.byte	0x14
 2808 15e2 19       		.byte	0x19
 2809 15e3 35       		.byte	0x35
 2810 15e4 25160000 		.4byte	0x1625
 2811 15e8 08       		.uleb128 0x8
 2812 15e9 630C0000 		.4byte	.LASF124
 2813 15ed 19       		.byte	0x19
 2814 15ee 36       		.byte	0x36
 2815 15ef 2C000000 		.4byte	0x2c
 2816 15f3 00       		.byte	0
 2817 15f4 08       		.uleb128 0x8
 2818 15f5 B8000000 		.4byte	.LASF125
 2819 15f9 19       		.byte	0x19
 2820 15fa 36       		.byte	0x36
 2821 15fb C7070000 		.4byte	0x7c7
 2822 15ff 04       		.byte	0x4
 2823 1600 08       		.uleb128 0x8
 2824 1601 39080000 		.4byte	.LASF126
 2825 1605 19       		.byte	0x19
 2826 1606 36       		.byte	0x36
 2827 1607 EC070000 		.4byte	0x7ec
 2828 160b 08       		.byte	0x8
 2829 160c 09       		.uleb128 0x9
 2830 160d 70757400 		.ascii	"put\000"
 2831 1611 19       		.byte	0x19
 2832 1612 36       		.byte	0x36
 2833 1613 06080000 		.4byte	0x806
 2834 1617 0C       		.byte	0xc
 2835 1618 09       		.uleb128 0x9
 2836 1619 67657400 		.ascii	"get\000"
 2837 161d 19       		.byte	0x19
 2838 161e 36       		.byte	0x36
 2839 161f 1B080000 		.4byte	0x81b
 2840 1623 10       		.byte	0x10
 2841 1624 00       		.byte	0
 2842 1625 06       		.uleb128 0x6
 2843 1626 DC150000 		.4byte	0x15dc
 2844 162a 1C       		.uleb128 0x1c
 2845 162b 04       		.byte	0x4
 2846 162c 19       		.byte	0x19
 2847 162d 3E       		.byte	0x3e
 2848 162e 3F160000 		.4byte	0x163f
 2849 1632 09       		.uleb128 0x9
 2850 1633 766D7400 		.ascii	"vmt\000"
ARM GAS  /tmp/ccHQbgGc.s 			page 51


 2851 1637 19       		.byte	0x19
 2852 1638 40       		.byte	0x40
 2853 1639 3F160000 		.4byte	0x163f
 2854 163d 00       		.byte	0
 2855 163e 00       		.byte	0
 2856 163f 0B       		.uleb128 0xb
 2857 1640 04       		.byte	0x4
 2858 1641 25160000 		.4byte	0x1625
 2859 1645 03       		.uleb128 0x3
 2860 1646 1C0B0000 		.4byte	.LASF285
 2861 164a 19       		.byte	0x19
 2862 164b 42       		.byte	0x42
 2863 164c 2A160000 		.4byte	0x162a
 2864 1650 25       		.uleb128 0x25
 2865 1651 766D7400 		.ascii	"vmt\000"
 2866 1655 01       		.byte	0x1
 2867 1656 4D       		.byte	0x4d
 2868 1657 25160000 		.4byte	0x1625
 2869 165b 05       		.uleb128 0x5
 2870 165c 03       		.byte	0x3
 2871 165d 00000000 		.4byte	vmt
 2872 1661 26       		.uleb128 0x26
 2873 1662 98020000 		.4byte	.LASF290
 2874 1666 01       		.byte	0x1
 2875 1667 58       		.byte	0x58
 2876 1668 00000000 		.4byte	.LFB255
 2877 166c 0C000000 		.4byte	.LFE255-.LFB255
 2878 1670 01       		.uleb128 0x1
 2879 1671 9C       		.byte	0x9c
 2880 1672 84160000 		.4byte	0x1684
 2881 1676 27       		.uleb128 0x27
 2882 1677 6E737000 		.ascii	"nsp\000"
 2883 167b 01       		.byte	0x1
 2884 167c 58       		.byte	0x58
 2885 167d 84160000 		.4byte	0x1684
 2886 1681 01       		.uleb128 0x1
 2887 1682 50       		.byte	0x50
 2888 1683 00       		.byte	0
 2889 1684 0B       		.uleb128 0xb
 2890 1685 04       		.byte	0x4
 2891 1686 45160000 		.4byte	0x1645
 2892 168a 28       		.uleb128 0x28
 2893 168b 67657400 		.ascii	"get\000"
 2894 168f 01       		.byte	0x1
 2895 1690 46       		.byte	0x46
 2896 1691 20010000 		.4byte	0x120
 2897 1695 00000000 		.4byte	.LFB254
 2898 1699 04000000 		.4byte	.LFE254-.LFB254
 2899 169d 01       		.uleb128 0x1
 2900 169e 9C       		.byte	0x9c
 2901 169f B2160000 		.4byte	0x16b2
 2902 16a3 29       		.uleb128 0x29
 2903 16a4 697000   		.ascii	"ip\000"
 2904 16a7 01       		.byte	0x1
 2905 16a8 46       		.byte	0x46
 2906 16a9 44020000 		.4byte	0x244
 2907 16ad 00000000 		.4byte	.LLST3
ARM GAS  /tmp/ccHQbgGc.s 			page 52


 2908 16b1 00       		.byte	0
 2909 16b2 28       		.uleb128 0x28
 2910 16b3 70757400 		.ascii	"put\000"
 2911 16b7 01       		.byte	0x1
 2912 16b8 3E       		.byte	0x3e
 2913 16b9 20010000 		.4byte	0x120
 2914 16bd 00000000 		.4byte	.LFB253
 2915 16c1 04000000 		.4byte	.LFE253-.LFB253
 2916 16c5 01       		.uleb128 0x1
 2917 16c6 9C       		.byte	0x9c
 2918 16c7 E5160000 		.4byte	0x16e5
 2919 16cb 29       		.uleb128 0x29
 2920 16cc 697000   		.ascii	"ip\000"
 2921 16cf 01       		.byte	0x1
 2922 16d0 3E       		.byte	0x3e
 2923 16d1 44020000 		.4byte	0x244
 2924 16d5 21000000 		.4byte	.LLST2
 2925 16d9 27       		.uleb128 0x27
 2926 16da 6200     		.ascii	"b\000"
 2927 16dc 01       		.byte	0x1
 2928 16dd 3E       		.byte	0x3e
 2929 16de B9000000 		.4byte	0xb9
 2930 16e2 01       		.uleb128 0x1
 2931 16e3 51       		.byte	0x51
 2932 16e4 00       		.byte	0
 2933 16e5 2A       		.uleb128 0x2a
 2934 16e6 11010000 		.4byte	.LASF286
 2935 16ea 01       		.byte	0x1
 2936 16eb 35       		.byte	0x35
 2937 16ec 2C000000 		.4byte	0x2c
 2938 16f0 00000000 		.4byte	.LFB252
 2939 16f4 04000000 		.4byte	.LFE252-.LFB252
 2940 16f8 01       		.uleb128 0x1
 2941 16f9 9C       		.byte	0x9c
 2942 16fa 24170000 		.4byte	0x1724
 2943 16fe 29       		.uleb128 0x29
 2944 16ff 697000   		.ascii	"ip\000"
 2945 1702 01       		.byte	0x1
 2946 1703 35       		.byte	0x35
 2947 1704 44020000 		.4byte	0x244
 2948 1708 42000000 		.4byte	.LLST1
 2949 170c 27       		.uleb128 0x27
 2950 170d 627000   		.ascii	"bp\000"
 2951 1710 01       		.byte	0x1
 2952 1711 35       		.byte	0x35
 2953 1712 E6070000 		.4byte	0x7e6
 2954 1716 01       		.uleb128 0x1
 2955 1717 51       		.byte	0x51
 2956 1718 27       		.uleb128 0x27
 2957 1719 6E00     		.ascii	"n\000"
 2958 171b 01       		.byte	0x1
 2959 171c 35       		.byte	0x35
 2960 171d 2C000000 		.4byte	0x2c
 2961 1721 01       		.uleb128 0x1
 2962 1722 52       		.byte	0x52
 2963 1723 00       		.byte	0
 2964 1724 2B       		.uleb128 0x2b
ARM GAS  /tmp/ccHQbgGc.s 			page 53


 2965 1725 0F020000 		.4byte	.LASF291
 2966 1729 01       		.byte	0x1
 2967 172a 2D       		.byte	0x2d
 2968 172b 2C000000 		.4byte	0x2c
 2969 172f 00000000 		.4byte	.LFB251
 2970 1733 04000000 		.4byte	.LFE251-.LFB251
 2971 1737 01       		.uleb128 0x1
 2972 1738 9C       		.byte	0x9c
 2973 1739 29       		.uleb128 0x29
 2974 173a 697000   		.ascii	"ip\000"
 2975 173d 01       		.byte	0x1
 2976 173e 2D       		.byte	0x2d
 2977 173f 44020000 		.4byte	0x244
 2978 1743 63000000 		.4byte	.LLST0
 2979 1747 27       		.uleb128 0x27
 2980 1748 627000   		.ascii	"bp\000"
 2981 174b 01       		.byte	0x1
 2982 174c 2D       		.byte	0x2d
 2983 174d C1070000 		.4byte	0x7c1
 2984 1751 01       		.uleb128 0x1
 2985 1752 51       		.byte	0x51
 2986 1753 27       		.uleb128 0x27
 2987 1754 6E00     		.ascii	"n\000"
 2988 1756 01       		.byte	0x1
 2989 1757 2D       		.byte	0x2d
 2990 1758 2C000000 		.4byte	0x2c
 2991 175c 01       		.uleb128 0x1
 2992 175d 52       		.byte	0x52
 2993 175e 00       		.byte	0
 2994 175f 00       		.byte	0
 2995              		.section	.debug_abbrev,"",%progbits
 2996              	.Ldebug_abbrev0:
 2997 0000 01       		.uleb128 0x1
 2998 0001 11       		.uleb128 0x11
 2999 0002 01       		.byte	0x1
 3000 0003 25       		.uleb128 0x25
 3001 0004 0E       		.uleb128 0xe
 3002 0005 13       		.uleb128 0x13
 3003 0006 0B       		.uleb128 0xb
 3004 0007 03       		.uleb128 0x3
 3005 0008 0E       		.uleb128 0xe
 3006 0009 1B       		.uleb128 0x1b
 3007 000a 0E       		.uleb128 0xe
 3008 000b 55       		.uleb128 0x55
 3009 000c 17       		.uleb128 0x17
 3010 000d 11       		.uleb128 0x11
 3011 000e 01       		.uleb128 0x1
 3012 000f 10       		.uleb128 0x10
 3013 0010 17       		.uleb128 0x17
 3014 0011 00       		.byte	0
 3015 0012 00       		.byte	0
 3016 0013 02       		.uleb128 0x2
 3017 0014 24       		.uleb128 0x24
 3018 0015 00       		.byte	0
 3019 0016 0B       		.uleb128 0xb
 3020 0017 0B       		.uleb128 0xb
 3021 0018 3E       		.uleb128 0x3e
ARM GAS  /tmp/ccHQbgGc.s 			page 54


 3022 0019 0B       		.uleb128 0xb
 3023 001a 03       		.uleb128 0x3
 3024 001b 08       		.uleb128 0x8
 3025 001c 00       		.byte	0
 3026 001d 00       		.byte	0
 3027 001e 03       		.uleb128 0x3
 3028 001f 16       		.uleb128 0x16
 3029 0020 00       		.byte	0
 3030 0021 03       		.uleb128 0x3
 3031 0022 0E       		.uleb128 0xe
 3032 0023 3A       		.uleb128 0x3a
 3033 0024 0B       		.uleb128 0xb
 3034 0025 3B       		.uleb128 0x3b
 3035 0026 0B       		.uleb128 0xb
 3036 0027 49       		.uleb128 0x49
 3037 0028 13       		.uleb128 0x13
 3038 0029 00       		.byte	0
 3039 002a 00       		.byte	0
 3040 002b 04       		.uleb128 0x4
 3041 002c 35       		.uleb128 0x35
 3042 002d 00       		.byte	0
 3043 002e 49       		.uleb128 0x49
 3044 002f 13       		.uleb128 0x13
 3045 0030 00       		.byte	0
 3046 0031 00       		.byte	0
 3047 0032 05       		.uleb128 0x5
 3048 0033 24       		.uleb128 0x24
 3049 0034 00       		.byte	0
 3050 0035 0B       		.uleb128 0xb
 3051 0036 0B       		.uleb128 0xb
 3052 0037 3E       		.uleb128 0x3e
 3053 0038 0B       		.uleb128 0xb
 3054 0039 03       		.uleb128 0x3
 3055 003a 0E       		.uleb128 0xe
 3056 003b 00       		.byte	0
 3057 003c 00       		.byte	0
 3058 003d 06       		.uleb128 0x6
 3059 003e 26       		.uleb128 0x26
 3060 003f 00       		.byte	0
 3061 0040 49       		.uleb128 0x49
 3062 0041 13       		.uleb128 0x13
 3063 0042 00       		.byte	0
 3064 0043 00       		.byte	0
 3065 0044 07       		.uleb128 0x7
 3066 0045 13       		.uleb128 0x13
 3067 0046 01       		.byte	0x1
 3068 0047 03       		.uleb128 0x3
 3069 0048 0E       		.uleb128 0xe
 3070 0049 0B       		.uleb128 0xb
 3071 004a 0B       		.uleb128 0xb
 3072 004b 3A       		.uleb128 0x3a
 3073 004c 0B       		.uleb128 0xb
 3074 004d 3B       		.uleb128 0x3b
 3075 004e 0B       		.uleb128 0xb
 3076 004f 01       		.uleb128 0x1
 3077 0050 13       		.uleb128 0x13
 3078 0051 00       		.byte	0
ARM GAS  /tmp/ccHQbgGc.s 			page 55


 3079 0052 00       		.byte	0
 3080 0053 08       		.uleb128 0x8
 3081 0054 0D       		.uleb128 0xd
 3082 0055 00       		.byte	0
 3083 0056 03       		.uleb128 0x3
 3084 0057 0E       		.uleb128 0xe
 3085 0058 3A       		.uleb128 0x3a
 3086 0059 0B       		.uleb128 0xb
 3087 005a 3B       		.uleb128 0x3b
 3088 005b 0B       		.uleb128 0xb
 3089 005c 49       		.uleb128 0x49
 3090 005d 13       		.uleb128 0x13
 3091 005e 38       		.uleb128 0x38
 3092 005f 0B       		.uleb128 0xb
 3093 0060 00       		.byte	0
 3094 0061 00       		.byte	0
 3095 0062 09       		.uleb128 0x9
 3096 0063 0D       		.uleb128 0xd
 3097 0064 00       		.byte	0
 3098 0065 03       		.uleb128 0x3
 3099 0066 08       		.uleb128 0x8
 3100 0067 3A       		.uleb128 0x3a
 3101 0068 0B       		.uleb128 0xb
 3102 0069 3B       		.uleb128 0x3b
 3103 006a 0B       		.uleb128 0xb
 3104 006b 49       		.uleb128 0x49
 3105 006c 13       		.uleb128 0x13
 3106 006d 38       		.uleb128 0x38
 3107 006e 0B       		.uleb128 0xb
 3108 006f 00       		.byte	0
 3109 0070 00       		.byte	0
 3110 0071 0A       		.uleb128 0xa
 3111 0072 0D       		.uleb128 0xd
 3112 0073 00       		.byte	0
 3113 0074 03       		.uleb128 0x3
 3114 0075 08       		.uleb128 0x8
 3115 0076 3A       		.uleb128 0x3a
 3116 0077 0B       		.uleb128 0xb
 3117 0078 3B       		.uleb128 0x3b
 3118 0079 05       		.uleb128 0x5
 3119 007a 49       		.uleb128 0x49
 3120 007b 13       		.uleb128 0x13
 3121 007c 38       		.uleb128 0x38
 3122 007d 0B       		.uleb128 0xb
 3123 007e 00       		.byte	0
 3124 007f 00       		.byte	0
 3125 0080 0B       		.uleb128 0xb
 3126 0081 0F       		.uleb128 0xf
 3127 0082 00       		.byte	0
 3128 0083 0B       		.uleb128 0xb
 3129 0084 0B       		.uleb128 0xb
 3130 0085 49       		.uleb128 0x49
 3131 0086 13       		.uleb128 0x13
 3132 0087 00       		.byte	0
 3133 0088 00       		.byte	0
 3134 0089 0C       		.uleb128 0xc
 3135 008a 13       		.uleb128 0x13
ARM GAS  /tmp/ccHQbgGc.s 			page 56


 3136 008b 01       		.byte	0x1
 3137 008c 03       		.uleb128 0x3
 3138 008d 0E       		.uleb128 0xe
 3139 008e 0B       		.uleb128 0xb
 3140 008f 0B       		.uleb128 0xb
 3141 0090 3A       		.uleb128 0x3a
 3142 0091 0B       		.uleb128 0xb
 3143 0092 3B       		.uleb128 0x3b
 3144 0093 05       		.uleb128 0x5
 3145 0094 01       		.uleb128 0x1
 3146 0095 13       		.uleb128 0x13
 3147 0096 00       		.byte	0
 3148 0097 00       		.byte	0
 3149 0098 0D       		.uleb128 0xd
 3150 0099 0D       		.uleb128 0xd
 3151 009a 00       		.byte	0
 3152 009b 03       		.uleb128 0x3
 3153 009c 0E       		.uleb128 0xe
 3154 009d 3A       		.uleb128 0x3a
 3155 009e 0B       		.uleb128 0xb
 3156 009f 3B       		.uleb128 0x3b
 3157 00a0 05       		.uleb128 0x5
 3158 00a1 49       		.uleb128 0x49
 3159 00a2 13       		.uleb128 0x13
 3160 00a3 38       		.uleb128 0x38
 3161 00a4 0B       		.uleb128 0xb
 3162 00a5 00       		.byte	0
 3163 00a6 00       		.byte	0
 3164 00a7 0E       		.uleb128 0xe
 3165 00a8 15       		.uleb128 0x15
 3166 00a9 01       		.byte	0x1
 3167 00aa 27       		.uleb128 0x27
 3168 00ab 19       		.uleb128 0x19
 3169 00ac 01       		.uleb128 0x1
 3170 00ad 13       		.uleb128 0x13
 3171 00ae 00       		.byte	0
 3172 00af 00       		.byte	0
 3173 00b0 0F       		.uleb128 0xf
 3174 00b1 05       		.uleb128 0x5
 3175 00b2 00       		.byte	0
 3176 00b3 49       		.uleb128 0x49
 3177 00b4 13       		.uleb128 0x13
 3178 00b5 00       		.byte	0
 3179 00b6 00       		.byte	0
 3180 00b7 10       		.uleb128 0x10
 3181 00b8 0F       		.uleb128 0xf
 3182 00b9 00       		.byte	0
 3183 00ba 0B       		.uleb128 0xb
 3184 00bb 0B       		.uleb128 0xb
 3185 00bc 00       		.byte	0
 3186 00bd 00       		.byte	0
 3187 00be 11       		.uleb128 0x11
 3188 00bf 34       		.uleb128 0x34
 3189 00c0 00       		.byte	0
 3190 00c1 03       		.uleb128 0x3
 3191 00c2 0E       		.uleb128 0xe
 3192 00c3 3A       		.uleb128 0x3a
ARM GAS  /tmp/ccHQbgGc.s 			page 57


 3193 00c4 0B       		.uleb128 0xb
 3194 00c5 3B       		.uleb128 0x3b
 3195 00c6 05       		.uleb128 0x5
 3196 00c7 49       		.uleb128 0x49
 3197 00c8 13       		.uleb128 0x13
 3198 00c9 3F       		.uleb128 0x3f
 3199 00ca 19       		.uleb128 0x19
 3200 00cb 3C       		.uleb128 0x3c
 3201 00cc 19       		.uleb128 0x19
 3202 00cd 00       		.byte	0
 3203 00ce 00       		.byte	0
 3204 00cf 12       		.uleb128 0x12
 3205 00d0 34       		.uleb128 0x34
 3206 00d1 00       		.byte	0
 3207 00d2 03       		.uleb128 0x3
 3208 00d3 0E       		.uleb128 0xe
 3209 00d4 3A       		.uleb128 0x3a
 3210 00d5 0B       		.uleb128 0xb
 3211 00d6 3B       		.uleb128 0x3b
 3212 00d7 0B       		.uleb128 0xb
 3213 00d8 49       		.uleb128 0x49
 3214 00d9 13       		.uleb128 0x13
 3215 00da 3F       		.uleb128 0x3f
 3216 00db 19       		.uleb128 0x19
 3217 00dc 3C       		.uleb128 0x3c
 3218 00dd 19       		.uleb128 0x19
 3219 00de 00       		.byte	0
 3220 00df 00       		.byte	0
 3221 00e0 13       		.uleb128 0x13
 3222 00e1 01       		.uleb128 0x1
 3223 00e2 01       		.byte	0x1
 3224 00e3 49       		.uleb128 0x49
 3225 00e4 13       		.uleb128 0x13
 3226 00e5 01       		.uleb128 0x1
 3227 00e6 13       		.uleb128 0x13
 3228 00e7 00       		.byte	0
 3229 00e8 00       		.byte	0
 3230 00e9 14       		.uleb128 0x14
 3231 00ea 21       		.uleb128 0x21
 3232 00eb 00       		.byte	0
 3233 00ec 49       		.uleb128 0x49
 3234 00ed 13       		.uleb128 0x13
 3235 00ee 2F       		.uleb128 0x2f
 3236 00ef 0B       		.uleb128 0xb
 3237 00f0 00       		.byte	0
 3238 00f1 00       		.byte	0
 3239 00f2 15       		.uleb128 0x15
 3240 00f3 13       		.uleb128 0x13
 3241 00f4 01       		.byte	0x1
 3242 00f5 0B       		.uleb128 0xb
 3243 00f6 0B       		.uleb128 0xb
 3244 00f7 3A       		.uleb128 0x3a
 3245 00f8 0B       		.uleb128 0xb
 3246 00f9 3B       		.uleb128 0x3b
 3247 00fa 05       		.uleb128 0x5
 3248 00fb 01       		.uleb128 0x1
 3249 00fc 13       		.uleb128 0x13
ARM GAS  /tmp/ccHQbgGc.s 			page 58


 3250 00fd 00       		.byte	0
 3251 00fe 00       		.byte	0
 3252 00ff 16       		.uleb128 0x16
 3253 0100 16       		.uleb128 0x16
 3254 0101 00       		.byte	0
 3255 0102 03       		.uleb128 0x3
 3256 0103 0E       		.uleb128 0xe
 3257 0104 3A       		.uleb128 0x3a
 3258 0105 0B       		.uleb128 0xb
 3259 0106 3B       		.uleb128 0x3b
 3260 0107 05       		.uleb128 0x5
 3261 0108 49       		.uleb128 0x49
 3262 0109 13       		.uleb128 0x13
 3263 010a 00       		.byte	0
 3264 010b 00       		.byte	0
 3265 010c 17       		.uleb128 0x17
 3266 010d 17       		.uleb128 0x17
 3267 010e 01       		.byte	0x1
 3268 010f 0B       		.uleb128 0xb
 3269 0110 0B       		.uleb128 0xb
 3270 0111 3A       		.uleb128 0x3a
 3271 0112 0B       		.uleb128 0xb
 3272 0113 3B       		.uleb128 0x3b
 3273 0114 0B       		.uleb128 0xb
 3274 0115 01       		.uleb128 0x1
 3275 0116 13       		.uleb128 0x13
 3276 0117 00       		.byte	0
 3277 0118 00       		.byte	0
 3278 0119 18       		.uleb128 0x18
 3279 011a 0D       		.uleb128 0xd
 3280 011b 00       		.byte	0
 3281 011c 03       		.uleb128 0x3
 3282 011d 0E       		.uleb128 0xe
 3283 011e 3A       		.uleb128 0x3a
 3284 011f 0B       		.uleb128 0xb
 3285 0120 3B       		.uleb128 0x3b
 3286 0121 0B       		.uleb128 0xb
 3287 0122 49       		.uleb128 0x49
 3288 0123 13       		.uleb128 0x13
 3289 0124 00       		.byte	0
 3290 0125 00       		.byte	0
 3291 0126 19       		.uleb128 0x19
 3292 0127 34       		.uleb128 0x34
 3293 0128 00       		.byte	0
 3294 0129 03       		.uleb128 0x3
 3295 012a 08       		.uleb128 0x8
 3296 012b 3A       		.uleb128 0x3a
 3297 012c 0B       		.uleb128 0xb
 3298 012d 3B       		.uleb128 0x3b
 3299 012e 05       		.uleb128 0x5
 3300 012f 49       		.uleb128 0x49
 3301 0130 13       		.uleb128 0x13
 3302 0131 3F       		.uleb128 0x3f
 3303 0132 19       		.uleb128 0x19
 3304 0133 3C       		.uleb128 0x3c
 3305 0134 19       		.uleb128 0x19
 3306 0135 00       		.byte	0
ARM GAS  /tmp/ccHQbgGc.s 			page 59


 3307 0136 00       		.byte	0
 3308 0137 1A       		.uleb128 0x1a
 3309 0138 21       		.uleb128 0x21
 3310 0139 00       		.byte	0
 3311 013a 00       		.byte	0
 3312 013b 00       		.byte	0
 3313 013c 1B       		.uleb128 0x1b
 3314 013d 15       		.uleb128 0x15
 3315 013e 01       		.byte	0x1
 3316 013f 27       		.uleb128 0x27
 3317 0140 19       		.uleb128 0x19
 3318 0141 49       		.uleb128 0x49
 3319 0142 13       		.uleb128 0x13
 3320 0143 01       		.uleb128 0x1
 3321 0144 13       		.uleb128 0x13
 3322 0145 00       		.byte	0
 3323 0146 00       		.byte	0
 3324 0147 1C       		.uleb128 0x1c
 3325 0148 13       		.uleb128 0x13
 3326 0149 01       		.byte	0x1
 3327 014a 0B       		.uleb128 0xb
 3328 014b 0B       		.uleb128 0xb
 3329 014c 3A       		.uleb128 0x3a
 3330 014d 0B       		.uleb128 0xb
 3331 014e 3B       		.uleb128 0x3b
 3332 014f 0B       		.uleb128 0xb
 3333 0150 01       		.uleb128 0x1
 3334 0151 13       		.uleb128 0x13
 3335 0152 00       		.byte	0
 3336 0153 00       		.byte	0
 3337 0154 1D       		.uleb128 0x1d
 3338 0155 04       		.uleb128 0x4
 3339 0156 01       		.byte	0x1
 3340 0157 0B       		.uleb128 0xb
 3341 0158 0B       		.uleb128 0xb
 3342 0159 49       		.uleb128 0x49
 3343 015a 13       		.uleb128 0x13
 3344 015b 3A       		.uleb128 0x3a
 3345 015c 0B       		.uleb128 0xb
 3346 015d 3B       		.uleb128 0x3b
 3347 015e 0B       		.uleb128 0xb
 3348 015f 01       		.uleb128 0x1
 3349 0160 13       		.uleb128 0x13
 3350 0161 00       		.byte	0
 3351 0162 00       		.byte	0
 3352 0163 1E       		.uleb128 0x1e
 3353 0164 28       		.uleb128 0x28
 3354 0165 00       		.byte	0
 3355 0166 03       		.uleb128 0x3
 3356 0167 0E       		.uleb128 0xe
 3357 0168 1C       		.uleb128 0x1c
 3358 0169 0B       		.uleb128 0xb
 3359 016a 00       		.byte	0
 3360 016b 00       		.byte	0
 3361 016c 1F       		.uleb128 0x1f
 3362 016d 13       		.uleb128 0x13
 3363 016e 01       		.byte	0x1
ARM GAS  /tmp/ccHQbgGc.s 			page 60


 3364 016f 03       		.uleb128 0x3
 3365 0170 0E       		.uleb128 0xe
 3366 0171 0B       		.uleb128 0xb
 3367 0172 05       		.uleb128 0x5
 3368 0173 3A       		.uleb128 0x3a
 3369 0174 0B       		.uleb128 0xb
 3370 0175 3B       		.uleb128 0x3b
 3371 0176 0B       		.uleb128 0xb
 3372 0177 01       		.uleb128 0x1
 3373 0178 13       		.uleb128 0x13
 3374 0179 00       		.byte	0
 3375 017a 00       		.byte	0
 3376 017b 20       		.uleb128 0x20
 3377 017c 0D       		.uleb128 0xd
 3378 017d 00       		.byte	0
 3379 017e 03       		.uleb128 0x3
 3380 017f 08       		.uleb128 0x8
 3381 0180 3A       		.uleb128 0x3a
 3382 0181 0B       		.uleb128 0xb
 3383 0182 3B       		.uleb128 0x3b
 3384 0183 0B       		.uleb128 0xb
 3385 0184 49       		.uleb128 0x49
 3386 0185 13       		.uleb128 0x13
 3387 0186 38       		.uleb128 0x38
 3388 0187 05       		.uleb128 0x5
 3389 0188 00       		.byte	0
 3390 0189 00       		.byte	0
 3391 018a 21       		.uleb128 0x21
 3392 018b 0D       		.uleb128 0xd
 3393 018c 00       		.byte	0
 3394 018d 03       		.uleb128 0x3
 3395 018e 0E       		.uleb128 0xe
 3396 018f 3A       		.uleb128 0x3a
 3397 0190 0B       		.uleb128 0xb
 3398 0191 3B       		.uleb128 0x3b
 3399 0192 0B       		.uleb128 0xb
 3400 0193 49       		.uleb128 0x49
 3401 0194 13       		.uleb128 0x13
 3402 0195 38       		.uleb128 0x38
 3403 0196 05       		.uleb128 0x5
 3404 0197 00       		.byte	0
 3405 0198 00       		.byte	0
 3406 0199 22       		.uleb128 0x22
 3407 019a 21       		.uleb128 0x21
 3408 019b 00       		.byte	0
 3409 019c 49       		.uleb128 0x49
 3410 019d 13       		.uleb128 0x13
 3411 019e 2F       		.uleb128 0x2f
 3412 019f 05       		.uleb128 0x5
 3413 01a0 00       		.byte	0
 3414 01a1 00       		.byte	0
 3415 01a2 23       		.uleb128 0x23
 3416 01a3 04       		.uleb128 0x4
 3417 01a4 01       		.byte	0x1
 3418 01a5 0B       		.uleb128 0xb
 3419 01a6 0B       		.uleb128 0xb
 3420 01a7 49       		.uleb128 0x49
ARM GAS  /tmp/ccHQbgGc.s 			page 61


 3421 01a8 13       		.uleb128 0x13
 3422 01a9 3A       		.uleb128 0x3a
 3423 01aa 0B       		.uleb128 0xb
 3424 01ab 3B       		.uleb128 0x3b
 3425 01ac 05       		.uleb128 0x5
 3426 01ad 01       		.uleb128 0x1
 3427 01ae 13       		.uleb128 0x13
 3428 01af 00       		.byte	0
 3429 01b0 00       		.byte	0
 3430 01b1 24       		.uleb128 0x24
 3431 01b2 13       		.uleb128 0x13
 3432 01b3 01       		.byte	0x1
 3433 01b4 0B       		.uleb128 0xb
 3434 01b5 06       		.uleb128 0x6
 3435 01b6 3A       		.uleb128 0x3a
 3436 01b7 0B       		.uleb128 0xb
 3437 01b8 3B       		.uleb128 0x3b
 3438 01b9 0B       		.uleb128 0xb
 3439 01ba 01       		.uleb128 0x1
 3440 01bb 13       		.uleb128 0x13
 3441 01bc 00       		.byte	0
 3442 01bd 00       		.byte	0
 3443 01be 25       		.uleb128 0x25
 3444 01bf 34       		.uleb128 0x34
 3445 01c0 00       		.byte	0
 3446 01c1 03       		.uleb128 0x3
 3447 01c2 08       		.uleb128 0x8
 3448 01c3 3A       		.uleb128 0x3a
 3449 01c4 0B       		.uleb128 0xb
 3450 01c5 3B       		.uleb128 0x3b
 3451 01c6 0B       		.uleb128 0xb
 3452 01c7 49       		.uleb128 0x49
 3453 01c8 13       		.uleb128 0x13
 3454 01c9 02       		.uleb128 0x2
 3455 01ca 18       		.uleb128 0x18
 3456 01cb 00       		.byte	0
 3457 01cc 00       		.byte	0
 3458 01cd 26       		.uleb128 0x26
 3459 01ce 2E       		.uleb128 0x2e
 3460 01cf 01       		.byte	0x1
 3461 01d0 3F       		.uleb128 0x3f
 3462 01d1 19       		.uleb128 0x19
 3463 01d2 03       		.uleb128 0x3
 3464 01d3 0E       		.uleb128 0xe
 3465 01d4 3A       		.uleb128 0x3a
 3466 01d5 0B       		.uleb128 0xb
 3467 01d6 3B       		.uleb128 0x3b
 3468 01d7 0B       		.uleb128 0xb
 3469 01d8 27       		.uleb128 0x27
 3470 01d9 19       		.uleb128 0x19
 3471 01da 11       		.uleb128 0x11
 3472 01db 01       		.uleb128 0x1
 3473 01dc 12       		.uleb128 0x12
 3474 01dd 06       		.uleb128 0x6
 3475 01de 40       		.uleb128 0x40
 3476 01df 18       		.uleb128 0x18
 3477 01e0 9742     		.uleb128 0x2117
ARM GAS  /tmp/ccHQbgGc.s 			page 62


 3478 01e2 19       		.uleb128 0x19
 3479 01e3 01       		.uleb128 0x1
 3480 01e4 13       		.uleb128 0x13
 3481 01e5 00       		.byte	0
 3482 01e6 00       		.byte	0
 3483 01e7 27       		.uleb128 0x27
 3484 01e8 05       		.uleb128 0x5
 3485 01e9 00       		.byte	0
 3486 01ea 03       		.uleb128 0x3
 3487 01eb 08       		.uleb128 0x8
 3488 01ec 3A       		.uleb128 0x3a
 3489 01ed 0B       		.uleb128 0xb
 3490 01ee 3B       		.uleb128 0x3b
 3491 01ef 0B       		.uleb128 0xb
 3492 01f0 49       		.uleb128 0x49
 3493 01f1 13       		.uleb128 0x13
 3494 01f2 02       		.uleb128 0x2
 3495 01f3 18       		.uleb128 0x18
 3496 01f4 00       		.byte	0
 3497 01f5 00       		.byte	0
 3498 01f6 28       		.uleb128 0x28
 3499 01f7 2E       		.uleb128 0x2e
 3500 01f8 01       		.byte	0x1
 3501 01f9 03       		.uleb128 0x3
 3502 01fa 08       		.uleb128 0x8
 3503 01fb 3A       		.uleb128 0x3a
 3504 01fc 0B       		.uleb128 0xb
 3505 01fd 3B       		.uleb128 0x3b
 3506 01fe 0B       		.uleb128 0xb
 3507 01ff 27       		.uleb128 0x27
 3508 0200 19       		.uleb128 0x19
 3509 0201 49       		.uleb128 0x49
 3510 0202 13       		.uleb128 0x13
 3511 0203 11       		.uleb128 0x11
 3512 0204 01       		.uleb128 0x1
 3513 0205 12       		.uleb128 0x12
 3514 0206 06       		.uleb128 0x6
 3515 0207 40       		.uleb128 0x40
 3516 0208 18       		.uleb128 0x18
 3517 0209 9742     		.uleb128 0x2117
 3518 020b 19       		.uleb128 0x19
 3519 020c 01       		.uleb128 0x1
 3520 020d 13       		.uleb128 0x13
 3521 020e 00       		.byte	0
 3522 020f 00       		.byte	0
 3523 0210 29       		.uleb128 0x29
 3524 0211 05       		.uleb128 0x5
 3525 0212 00       		.byte	0
 3526 0213 03       		.uleb128 0x3
 3527 0214 08       		.uleb128 0x8
 3528 0215 3A       		.uleb128 0x3a
 3529 0216 0B       		.uleb128 0xb
 3530 0217 3B       		.uleb128 0x3b
 3531 0218 0B       		.uleb128 0xb
 3532 0219 49       		.uleb128 0x49
 3533 021a 13       		.uleb128 0x13
 3534 021b 02       		.uleb128 0x2
ARM GAS  /tmp/ccHQbgGc.s 			page 63


 3535 021c 17       		.uleb128 0x17
 3536 021d 00       		.byte	0
 3537 021e 00       		.byte	0
 3538 021f 2A       		.uleb128 0x2a
 3539 0220 2E       		.uleb128 0x2e
 3540 0221 01       		.byte	0x1
 3541 0222 03       		.uleb128 0x3
 3542 0223 0E       		.uleb128 0xe
 3543 0224 3A       		.uleb128 0x3a
 3544 0225 0B       		.uleb128 0xb
 3545 0226 3B       		.uleb128 0x3b
 3546 0227 0B       		.uleb128 0xb
 3547 0228 27       		.uleb128 0x27
 3548 0229 19       		.uleb128 0x19
 3549 022a 49       		.uleb128 0x49
 3550 022b 13       		.uleb128 0x13
 3551 022c 11       		.uleb128 0x11
 3552 022d 01       		.uleb128 0x1
 3553 022e 12       		.uleb128 0x12
 3554 022f 06       		.uleb128 0x6
 3555 0230 40       		.uleb128 0x40
 3556 0231 18       		.uleb128 0x18
 3557 0232 9742     		.uleb128 0x2117
 3558 0234 19       		.uleb128 0x19
 3559 0235 01       		.uleb128 0x1
 3560 0236 13       		.uleb128 0x13
 3561 0237 00       		.byte	0
 3562 0238 00       		.byte	0
 3563 0239 2B       		.uleb128 0x2b
 3564 023a 2E       		.uleb128 0x2e
 3565 023b 01       		.byte	0x1
 3566 023c 03       		.uleb128 0x3
 3567 023d 0E       		.uleb128 0xe
 3568 023e 3A       		.uleb128 0x3a
 3569 023f 0B       		.uleb128 0xb
 3570 0240 3B       		.uleb128 0x3b
 3571 0241 0B       		.uleb128 0xb
 3572 0242 27       		.uleb128 0x27
 3573 0243 19       		.uleb128 0x19
 3574 0244 49       		.uleb128 0x49
 3575 0245 13       		.uleb128 0x13
 3576 0246 11       		.uleb128 0x11
 3577 0247 01       		.uleb128 0x1
 3578 0248 12       		.uleb128 0x12
 3579 0249 06       		.uleb128 0x6
 3580 024a 40       		.uleb128 0x40
 3581 024b 18       		.uleb128 0x18
 3582 024c 9742     		.uleb128 0x2117
 3583 024e 19       		.uleb128 0x19
 3584 024f 00       		.byte	0
 3585 0250 00       		.byte	0
 3586 0251 00       		.byte	0
 3587              		.section	.debug_loc,"",%progbits
 3588              	.Ldebug_loc0:
 3589              	.LLST3:
 3590 0000 00000000 		.4byte	.LVL6
 3591 0004 02000000 		.4byte	.LVL7
ARM GAS  /tmp/ccHQbgGc.s 			page 64


 3592 0008 0100     		.2byte	0x1
 3593 000a 50       		.byte	0x50
 3594 000b 02000000 		.4byte	.LVL7
 3595 000f 04000000 		.4byte	.LFE254
 3596 0013 0400     		.2byte	0x4
 3597 0015 F3       		.byte	0xf3
 3598 0016 01       		.uleb128 0x1
 3599 0017 50       		.byte	0x50
 3600 0018 9F       		.byte	0x9f
 3601 0019 00000000 		.4byte	0
 3602 001d 00000000 		.4byte	0
 3603              	.LLST2:
 3604 0021 00000000 		.4byte	.LVL4
 3605 0025 02000000 		.4byte	.LVL5
 3606 0029 0100     		.2byte	0x1
 3607 002b 50       		.byte	0x50
 3608 002c 02000000 		.4byte	.LVL5
 3609 0030 04000000 		.4byte	.LFE253
 3610 0034 0400     		.2byte	0x4
 3611 0036 F3       		.byte	0xf3
 3612 0037 01       		.uleb128 0x1
 3613 0038 50       		.byte	0x50
 3614 0039 9F       		.byte	0x9f
 3615 003a 00000000 		.4byte	0
 3616 003e 00000000 		.4byte	0
 3617              	.LLST1:
 3618 0042 00000000 		.4byte	.LVL2
 3619 0046 02000000 		.4byte	.LVL3
 3620 004a 0100     		.2byte	0x1
 3621 004c 50       		.byte	0x50
 3622 004d 02000000 		.4byte	.LVL3
 3623 0051 04000000 		.4byte	.LFE252
 3624 0055 0400     		.2byte	0x4
 3625 0057 F3       		.byte	0xf3
 3626 0058 01       		.uleb128 0x1
 3627 0059 50       		.byte	0x50
 3628 005a 9F       		.byte	0x9f
 3629 005b 00000000 		.4byte	0
 3630 005f 00000000 		.4byte	0
 3631              	.LLST0:
 3632 0063 00000000 		.4byte	.LVL0
 3633 0067 02000000 		.4byte	.LVL1
 3634 006b 0100     		.2byte	0x1
 3635 006d 50       		.byte	0x50
 3636 006e 02000000 		.4byte	.LVL1
 3637 0072 04000000 		.4byte	.LFE251
 3638 0076 0400     		.2byte	0x4
 3639 0078 F3       		.byte	0xf3
 3640 0079 01       		.uleb128 0x1
 3641 007a 50       		.byte	0x50
 3642 007b 9F       		.byte	0x9f
 3643 007c 00000000 		.4byte	0
 3644 0080 00000000 		.4byte	0
 3645              		.section	.debug_aranges,"",%progbits
 3646 0000 3C000000 		.4byte	0x3c
 3647 0004 0200     		.2byte	0x2
 3648 0006 00000000 		.4byte	.Ldebug_info0
ARM GAS  /tmp/ccHQbgGc.s 			page 65


 3649 000a 04       		.byte	0x4
 3650 000b 00       		.byte	0
 3651 000c 0000     		.2byte	0
 3652 000e 0000     		.2byte	0
 3653 0010 00000000 		.4byte	.LFB251
 3654 0014 04000000 		.4byte	.LFE251-.LFB251
 3655 0018 00000000 		.4byte	.LFB252
 3656 001c 04000000 		.4byte	.LFE252-.LFB252
 3657 0020 00000000 		.4byte	.LFB253
 3658 0024 04000000 		.4byte	.LFE253-.LFB253
 3659 0028 00000000 		.4byte	.LFB254
 3660 002c 04000000 		.4byte	.LFE254-.LFB254
 3661 0030 00000000 		.4byte	.LFB255
 3662 0034 0C000000 		.4byte	.LFE255-.LFB255
 3663 0038 00000000 		.4byte	0
 3664 003c 00000000 		.4byte	0
 3665              		.section	.debug_ranges,"",%progbits
 3666              	.Ldebug_ranges0:
 3667 0000 00000000 		.4byte	.LFB251
 3668 0004 04000000 		.4byte	.LFE251
 3669 0008 00000000 		.4byte	.LFB252
 3670 000c 04000000 		.4byte	.LFE252
 3671 0010 00000000 		.4byte	.LFB253
 3672 0014 04000000 		.4byte	.LFE253
 3673 0018 00000000 		.4byte	.LFB254
 3674 001c 04000000 		.4byte	.LFE254
 3675 0020 00000000 		.4byte	.LFB255
 3676 0024 0C000000 		.4byte	.LFE255
 3677 0028 00000000 		.4byte	0
 3678 002c 00000000 		.4byte	0
 3679              		.section	.debug_line,"",%progbits
 3680              	.Ldebug_line0:
 3681 0000 F1040000 		.section	.debug_str,"MS",%progbits,1
 3681      02009904 
 3681      00000201 
 3681      FB0E0D00 
 3681      01010101 
 3682              	.LASF65:
 3683 0000 4D314152 		.ascii	"M1AR\000"
 3683      00
 3684              	.LASF89:
 3685 0005 73746D33 		.ascii	"stm32_dma_stream_t\000"
 3685      325F646D 
 3685      615F7374 
 3685      7265616D 
 3685      5F7400
 3686              	.LASF4:
 3687 0018 73697A65 		.ascii	"size_t\000"
 3687      5F7400
 3688              	.LASF58:
 3689 001f 73697A65 		.ascii	"sizetype\000"
 3689      74797065 
 3689      00
 3690              	.LASF56:
 3691 0028 73797374 		.ascii	"systime_t\000"
 3691      696D655F 
 3691      7400
ARM GAS  /tmp/ccHQbgGc.s 			page 66


 3692              	.LASF23:
 3693 0032 74707269 		.ascii	"tprio_t\000"
 3693      6F5F7400 
 3694              	.LASF284:
 3695 003a 4E756C6C 		.ascii	"NullStreamVMT\000"
 3695      53747265 
 3695      616D564D 
 3695      5400
 3696              	.LASF254:
 3697 0048 72785F66 		.ascii	"rx_fifo_size\000"
 3697      69666F5F 
 3697      73697A65 
 3697      00
 3698              	.LASF185:
 3699 0055 72657376 		.ascii	"resvd18\000"
 3699      64313800 
 3700              	.LASF18:
 3701 005d 696E7433 		.ascii	"int32_t\000"
 3701      325F7400 
 3702              	.LASF122:
 3703 0065 53657269 		.ascii	"SerialConfig\000"
 3703      616C436F 
 3703      6E666967 
 3703      00
 3704              	.LASF129:
 3705 0072 77726974 		.ascii	"writet\000"
 3705      657400
 3706              	.LASF189:
 3707 0079 72657376 		.ascii	"resvd4\000"
 3707      643400
 3708              	.LASF180:
 3709 0080 72657376 		.ascii	"resvd8\000"
 3709      643800
 3710              	.LASF40:
 3711 0087 76746675 		.ascii	"vtfunc_t\000"
 3711      6E635F74 
 3711      00
 3712              	.LASF191:
 3713 0090 72657376 		.ascii	"resvdC\000"
 3713      644300
 3714              	.LASF46:
 3715 0097 63685F76 		.ascii	"ch_virtual_timers_list\000"
 3715      69727475 
 3715      616C5F74 
 3715      696D6572 
 3715      735F6C69 
 3716              	.LASF134:
 3717 00ae 696E5F70 		.ascii	"in_params\000"
 3717      6172616D 
 3717      7300
 3718              	.LASF125:
 3719 00b8 77726974 		.ascii	"write\000"
 3719      6500
 3720              	.LASF183:
 3721 00be 48435453 		.ascii	"HCTSIZ\000"
 3721      495A00
 3722              	.LASF229:
ARM GAS  /tmp/ccHQbgGc.s 			page 67


 3723 00c5 72657376 		.ascii	"resvd700\000"
 3723      64373030 
 3723      00
 3724              	.LASF118:
 3725 00ce 636F6E66 		.ascii	"config\000"
 3725      696700
 3726              	.LASF29:
 3727 00d5 73746174 		.ascii	"state\000"
 3727      6500
 3728              	.LASF267:
 3729 00db 65705F6D 		.ascii	"ep_mode\000"
 3729      6F646500 
 3730              	.LASF127:
 3731 00e3 70757474 		.ascii	"putt\000"
 3731      00
 3732              	.LASF152:
 3733 00e8 5553425F 		.ascii	"USB_ACTIVE\000"
 3733      41435449 
 3733      564500
 3734              	.LASF28:
 3735 00f3 7072696F 		.ascii	"prio\000"
 3735      00
 3736              	.LASF74:
 3737 00f8 65786974 		.ascii	"exitcode\000"
 3737      636F6465 
 3737      00
 3738              	.LASF5:
 3739 0101 5F5F7569 		.ascii	"__uint8_t\000"
 3739      6E74385F 
 3739      7400
 3740              	.LASF97:
 3741 010b 715F746F 		.ascii	"q_top\000"
 3741      7000
 3742              	.LASF286:
 3743 0111 72656164 		.ascii	"reads\000"
 3743      7300
 3744              	.LASF130:
 3745 0117 72656164 		.ascii	"readt\000"
 3745      7400
 3746              	.LASF96:
 3747 011d 715F6275 		.ascii	"q_buffer\000"
 3747      66666572 
 3747      00
 3748              	.LASF82:
 3749 0126 6576656E 		.ascii	"eventcallback_t\000"
 3749      7463616C 
 3749      6C626163 
 3749      6B5F7400 
 3750              	.LASF164:
 3751 0136 5553425F 		.ascii	"USB_EVENT_ADDRESS\000"
 3751      4556454E 
 3751      545F4144 
 3751      44524553 
 3751      5300
 3752              	.LASF210:
 3753 0148 44494550 		.ascii	"DIEPTXF0\000"
 3753      54584630 
ARM GAS  /tmp/ccHQbgGc.s 			page 68


 3753      00
 3754              	.LASF100:
 3755 0151 715F6E6F 		.ascii	"q_notify\000"
 3755      74696679 
 3755      00
 3756              	.LASF11:
 3757 015a 6C6F6E67 		.ascii	"long int\000"
 3757      20696E74 
 3757      00
 3758              	.LASF99:
 3759 0163 715F7264 		.ascii	"q_rdptr\000"
 3759      70747200 
 3760              	.LASF22:
 3761 016b 74737461 		.ascii	"tstate_t\000"
 3761      74655F74 
 3761      00
 3762              	.LASF155:
 3763 0174 5553425F 		.ascii	"USB_EP0_STP_WAITING\000"
 3763      4550305F 
 3763      5354505F 
 3763      57414954 
 3763      494E4700 
 3764              	.LASF32:
 3765 0188 74687265 		.ascii	"threads_queue_t\000"
 3765      6164735F 
 3765      71756575 
 3765      655F7400 
 3766              	.LASF115:
 3767 0198 6F717565 		.ascii	"oqueue\000"
 3767      756500
 3768              	.LASF260:
 3769 019f 74786275 		.ascii	"txbuf\000"
 3769      6600
 3770              	.LASF69:
 3771 01a5 72656761 		.ascii	"regarm_t\000"
 3771      726D5F74 
 3771      00
 3772              	.LASF236:
 3773 01ae 4441494E 		.ascii	"DAINT\000"
 3773      5400
 3774              	.LASF235:
 3775 01b4 444F4550 		.ascii	"DOEPMSK\000"
 3775      4D534B00 
 3776              	.LASF93:
 3777 01bc 696F5F71 		.ascii	"io_queue\000"
 3777      75657565 
 3777      00
 3778              	.LASF153:
 3779 01c5 5553425F 		.ascii	"USB_SUSPENDED\000"
 3779      53555350 
 3779      454E4445 
 3779      4400
 3780              	.LASF196:
 3781 01d3 444F4550 		.ascii	"DOEPCTL\000"
 3781      43544C00 
 3782              	.LASF116:
 3783 01db 75736172 		.ascii	"usart\000"
ARM GAS  /tmp/ccHQbgGc.s 			page 69


 3783      7400
 3784              	.LASF3:
 3785 01e1 7369676E 		.ascii	"signed char\000"
 3785      65642063 
 3785      68617200 
 3786              	.LASF16:
 3787 01ed 75696E74 		.ascii	"uint8_t\000"
 3787      385F7400 
 3788              	.LASF169:
 3789 01f5 5553425F 		.ascii	"USB_EVENT_STALLED\000"
 3789      4556454E 
 3789      545F5354 
 3789      414C4C45 
 3789      4400
 3790              	.LASF197:
 3791 0207 444F4550 		.ascii	"DOEPINT\000"
 3791      494E5400 
 3792              	.LASF291:
 3793 020f 77726974 		.ascii	"writes\000"
 3793      657300
 3794              	.LASF263:
 3795 0216 72787369 		.ascii	"rxsize\000"
 3795      7A6500
 3796              	.LASF76:
 3797 021d 77747472 		.ascii	"wttrp\000"
 3797      7000
 3798              	.LASF6:
 3799 0223 756E7369 		.ascii	"unsigned char\000"
 3799      676E6564 
 3799      20636861 
 3799      7200
 3800              	.LASF161:
 3801 0231 5553425F 		.ascii	"USB_EP0_ERROR\000"
 3801      4550305F 
 3801      4552524F 
 3801      5200
 3802              	.LASF101:
 3803 023f 715F6C69 		.ascii	"q_link\000"
 3803      6E6B00
 3804              	.LASF47:
 3805 0246 6C617374 		.ascii	"lasttime\000"
 3805      74696D65 
 3805      00
 3806              	.LASF50:
 3807 024f 70616E69 		.ascii	"panic_msg\000"
 3807      635F6D73 
 3807      6700
 3808              	.LASF230:
 3809 0259 44434647 		.ascii	"DCFG\000"
 3809      00
 3810              	.LASF248:
 3811 025e 72657376 		.ascii	"resvd8C0\000"
 3811      64384330 
 3811      00
 3812              	.LASF214:
 3813 0267 47434346 		.ascii	"GCCFG\000"
 3813      4700
ARM GAS  /tmp/ccHQbgGc.s 			page 70


 3814              	.LASF136:
 3815 026d 65703073 		.ascii	"ep0state\000"
 3815      74617465 
 3815      00
 3816              	.LASF48:
 3817 0276 73797374 		.ascii	"system_debug_t\000"
 3817      656D5F64 
 3817      65627567 
 3817      5F7400
 3818              	.LASF108:
 3819 0285 53445F55 		.ascii	"SD_UNINIT\000"
 3819      4E494E49 
 3819      5400
 3820              	.LASF192:
 3821 028f 44494550 		.ascii	"DIEPTSIZ\000"
 3821      5453495A 
 3821      00
 3822              	.LASF290:
 3823 0298 6E756C6C 		.ascii	"nullObjectInit\000"
 3823      4F626A65 
 3823      6374496E 
 3823      697400
 3824              	.LASF280:
 3825 02a7 72657175 		.ascii	"requests_hook_cb\000"
 3825      65737473 
 3825      5F686F6F 
 3825      6B5F6362 
 3825      00
 3826              	.LASF91:
 3827 02b8 5F426F6F 		.ascii	"_Bool\000"
 3827      6C00
 3828              	.LASF30:
 3829 02be 666C6167 		.ascii	"flags\000"
 3829      7300
 3830              	.LASF179:
 3831 02c4 48434348 		.ascii	"HCCHAR\000"
 3831      415200
 3832              	.LASF199:
 3833 02cb 73746D33 		.ascii	"stm32_otg_out_ep_t\000"
 3833      325F6F74 
 3833      675F6F75 
 3833      745F6570 
 3833      5F7400
 3834              	.LASF77:
 3835 02de 63686172 		.ascii	"char\000"
 3835      00
 3836              	.LASF138:
 3837 02e3 6570306E 		.ascii	"ep0n\000"
 3837      00
 3838              	.LASF233:
 3839 02e8 72657376 		.ascii	"resvd80C\000"
 3839      64383043 
 3839      00
 3840              	.LASF227:
 3841 02f1 48505254 		.ascii	"HPRT\000"
 3841      00
 3842              	.LASF133:
ARM GAS  /tmp/ccHQbgGc.s 			page 71


 3843 02f6 72656365 		.ascii	"receiving\000"
 3843      6976696E 
 3843      6700
 3844              	.LASF8:
 3845 0300 5F5F7569 		.ascii	"__uint16_t\000"
 3845      6E743136 
 3845      5F7400
 3846              	.LASF131:
 3847 030b 55534244 		.ascii	"USBDriver\000"
 3847      72697665 
 3847      7200
 3848              	.LASF75:
 3849 0315 77746F62 		.ascii	"wtobjp\000"
 3849      6A7000
 3850              	.LASF106:
 3851 031c 70616C65 		.ascii	"palevent_t\000"
 3851      76656E74 
 3851      5F7400
 3852              	.LASF287:
 3853 0327 474E5520 		.ascii	"GNU C11 6.3.1 20170620 (release) [ARM/embedded-6-br"
 3853      43313120 
 3853      362E332E 
 3853      31203230 
 3853      31373036 
 3854 035a 616E6368 		.ascii	"anch revision 249437] -mcpu=cortex-m4 -mfloat-abi=h"
 3854      20726576 
 3854      6973696F 
 3854      6E203234 
 3854      39343337 
 3855 038d 61726420 		.ascii	"ard -mfpu=fpv4-sp-d16 -mno-thumb-interwork -mthumb "
 3855      2D6D6670 
 3855      753D6670 
 3855      76342D73 
 3855      702D6431 
 3856 03c0 2D67202D 		.ascii	"-g -Os -fomit-frame-pointer -falign-functions=16 -f"
 3856      4F73202D 
 3856      666F6D69 
 3856      742D6672 
 3856      616D652D 
 3857 03f3 66756E63 		.ascii	"function-sections -fdata-sections -fno-common -fsin"
 3857      74696F6E 
 3857      2D736563 
 3857      74696F6E 
 3857      73202D66 
 3858 0426 676C652D 		.ascii	"gle-precision-constant\000"
 3858      70726563 
 3858      6973696F 
 3858      6E2D636F 
 3858      6E737461 
 3859              	.LASF288:
 3860 043d 2E2E2F2E 		.ascii	"../../modules/ChibiOS/os/hal/lib/streams/nullstream"
 3860      2E2F6D6F 
 3860      64756C65 
 3860      732F4368 
 3860      6962694F 
 3861 0470 732E6300 		.ascii	"s.c\000"
 3862              	.LASF269:
ARM GAS  /tmp/ccHQbgGc.s 			page 72


 3863 0474 696E5F63 		.ascii	"in_cb\000"
 3863      6200
 3864              	.LASF128:
 3865 047a 67657474 		.ascii	"gett\000"
 3865      00
 3866              	.LASF70:
 3867 047f 73746B61 		.ascii	"stkalign_t\000"
 3867      6C69676E 
 3867      5F7400
 3868              	.LASF68:
 3869 048a 55534152 		.ascii	"USART_TypeDef\000"
 3869      545F5479 
 3869      70654465 
 3869      6600
 3870              	.LASF221:
 3871 0498 48464E55 		.ascii	"HFNUM\000"
 3871      4D00
 3872              	.LASF176:
 3873 049e 75736265 		.ascii	"usbeventcb_t\000"
 3873      76656E74 
 3873      63625F74 
 3873      00
 3874              	.LASF83:
 3875 04ab 73747265 		.ascii	"stream\000"
 3875      616D00
 3876              	.LASF187:
 3877 04b2 73746D33 		.ascii	"stm32_otg_host_chn_t\000"
 3877      325F6F74 
 3877      675F686F 
 3877      73745F63 
 3877      686E5F74 
 3878              	.LASF132:
 3879 04c7 7472616E 		.ascii	"transmitting\000"
 3879      736D6974 
 3879      74696E67 
 3879      00
 3880              	.LASF262:
 3881 04d4 55534249 		.ascii	"USBInEndpointState\000"
 3881      6E456E64 
 3881      706F696E 
 3881      74537461 
 3881      746500
 3882              	.LASF238:
 3883 04e7 72657376 		.ascii	"resvd820\000"
 3883      64383230 
 3883      00
 3884              	.LASF239:
 3885 04f0 72657376 		.ascii	"resvd824\000"
 3885      64383234 
 3885      00
 3886              	.LASF241:
 3887 04f9 44564255 		.ascii	"DVBUSPULSE\000"
 3887      5350554C 
 3887      534500
 3888              	.LASF159:
 3889 0504 5553425F 		.ascii	"USB_EP0_OUT_WAITING_STS\000"
 3889      4550305F 
ARM GAS  /tmp/ccHQbgGc.s 			page 73


 3889      4F55545F 
 3889      57414954 
 3889      494E475F 
 3890              	.LASF117:
 3891 051c 72786D61 		.ascii	"rxmask\000"
 3891      736B00
 3892              	.LASF243:
 3893 0523 44494550 		.ascii	"DIEPEMPMSK\000"
 3893      454D504D 
 3893      534B00
 3894              	.LASF173:
 3895 052e 55534244 		.ascii	"USBDescriptor\000"
 3895      65736372 
 3895      6970746F 
 3895      7200
 3896              	.LASF257:
 3897 053c 73746D33 		.ascii	"stm32_otg_params_t\000"
 3897      325F6F74 
 3897      675F7061 
 3897      72616D73 
 3897      5F7400
 3898              	.LASF140:
 3899 054f 73657475 		.ascii	"setup\000"
 3899      7000
 3900              	.LASF120:
 3901 0555 73706565 		.ascii	"speed\000"
 3901      6400
 3902              	.LASF204:
 3903 055b 47525354 		.ascii	"GRSTCTL\000"
 3903      43544C00 
 3904              	.LASF170:
 3905 0563 75736265 		.ascii	"usbevent_t\000"
 3905      76656E74 
 3905      5F7400
 3906              	.LASF38:
 3907 056e 63685F72 		.ascii	"ch_ready_list\000"
 3907      65616479 
 3907      5F6C6973 
 3907      7400
 3908              	.LASF156:
 3909 057c 5553425F 		.ascii	"USB_EP0_IN_TX\000"
 3909      4550305F 
 3909      494E5F54 
 3909      5800
 3910              	.LASF171:
 3911 058a 75645F73 		.ascii	"ud_size\000"
 3911      697A6500 
 3912              	.LASF151:
 3913 0592 5553425F 		.ascii	"USB_SELECTED\000"
 3913      53454C45 
 3913      43544544 
 3913      00
 3914              	.LASF143:
 3915 059f 636F6E66 		.ascii	"configuration\000"
 3915      69677572 
 3915      6174696F 
 3915      6E00
ARM GAS  /tmp/ccHQbgGc.s 			page 74


 3916              	.LASF261:
 3917 05ad 746F7473 		.ascii	"totsize\000"
 3917      697A6500 
 3918              	.LASF209:
 3919 05b5 47525846 		.ascii	"GRXFSIZ\000"
 3919      53495A00 
 3920              	.LASF259:
 3921 05bd 7478636E 		.ascii	"txcnt\000"
 3921      7400
 3922              	.LASF95:
 3923 05c3 715F636F 		.ascii	"q_counter\000"
 3923      756E7465 
 3923      7200
 3924              	.LASF246:
 3925 05cd 72657376 		.ascii	"resvd840\000"
 3925      64383430 
 3925      00
 3926              	.LASF105:
 3927 05d6 70616C63 		.ascii	"palcallback_t\000"
 3927      616C6C62 
 3927      61636B5F 
 3927      7400
 3928              	.LASF14:
 3929 05e4 5F5F7569 		.ascii	"__uint64_t\000"
 3929      6E743634 
 3929      5F7400
 3930              	.LASF217:
 3931 05ef 44494550 		.ascii	"DIEPTXF\000"
 3931      54584600 
 3932              	.LASF223:
 3933 05f7 48505458 		.ascii	"HPTXSTS\000"
 3933      53545300 
 3934              	.LASF13:
 3935 05ff 6C6F6E67 		.ascii	"long unsigned int\000"
 3935      20756E73 
 3935      69676E65 
 3935      6420696E 
 3935      7400
 3936              	.LASF141:
 3937 0611 73746174 		.ascii	"status\000"
 3937      757300
 3938              	.LASF81:
 3939 0618 70617261 		.ascii	"param\000"
 3939      6D00
 3940              	.LASF142:
 3941 061e 61646472 		.ascii	"address\000"
 3941      65737300 
 3942              	.LASF60:
 3943 0626 53797374 		.ascii	"SystemCoreClock\000"
 3943      656D436F 
 3943      7265436C 
 3943      6F636B00 
 3944              	.LASF86:
 3945 0636 73686966 		.ascii	"shift\000"
 3945      7400
 3946              	.LASF139:
 3947 063c 65703065 		.ascii	"ep0endcb\000"
ARM GAS  /tmp/ccHQbgGc.s 			page 75


 3947      6E646362 
 3947      00
 3948              	.LASF33:
 3949 0645 63685F74 		.ascii	"ch_thread\000"
 3949      68726561 
 3949      6400
 3950              	.LASF202:
 3951 064f 47414842 		.ascii	"GAHBCFG\000"
 3951      43464700 
 3952              	.LASF119:
 3953 0657 75617274 		.ascii	"uartirq_t\000"
 3953      6972715F 
 3953      7400
 3954              	.LASF45:
 3955 0661 76697274 		.ascii	"virtual_timers_list_t\000"
 3955      75616C5F 
 3955      74696D65 
 3955      72735F6C 
 3955      6973745F 
 3956              	.LASF78:
 3957 0677 63685F69 		.ascii	"ch_idle_thread_wa\000"
 3957      646C655F 
 3957      74687265 
 3957      61645F77 
 3957      6100
 3958              	.LASF275:
 3959 0689 696E5F6D 		.ascii	"in_multiplier\000"
 3959      756C7469 
 3959      706C6965 
 3959      7200
 3960              	.LASF90:
 3961 0697 5F73746D 		.ascii	"_stm32_dma_streams\000"
 3961      33325F64 
 3961      6D615F73 
 3961      74726561 
 3961      6D7300
 3962              	.LASF256:
 3963 06aa 6E756D5F 		.ascii	"num_endpoints\000"
 3963      656E6470 
 3963      6F696E74 
 3963      7300
 3964              	.LASF41:
 3965 06b8 76697274 		.ascii	"virtual_timer_t\000"
 3965      75616C5F 
 3965      74696D65 
 3965      725F7400 
 3966              	.LASF37:
 3967 06c8 72656164 		.ascii	"ready_list_t\000"
 3967      795F6C69 
 3967      73745F74 
 3967      00
 3968              	.LASF98:
 3969 06d5 715F7772 		.ascii	"q_wrptr\000"
 3969      70747200 
 3970              	.LASF158:
 3971 06dd 5553425F 		.ascii	"USB_EP0_IN_SENDING_STS\000"
 3971      4550305F 
ARM GAS  /tmp/ccHQbgGc.s 			page 76


 3971      494E5F53 
 3971      454E4449 
 3971      4E475F53 
 3972              	.LASF123:
 3973 06f4 53657269 		.ascii	"SerialDriverVMT\000"
 3973      616C4472 
 3973      69766572 
 3973      564D5400 
 3974              	.LASF149:
 3975 0704 5553425F 		.ascii	"USB_STOP\000"
 3975      53544F50 
 3975      00
 3976              	.LASF264:
 3977 070d 7278636E 		.ascii	"rxcnt\000"
 3977      7400
 3978              	.LASF154:
 3979 0713 75736273 		.ascii	"usbstate_t\000"
 3979      74617465 
 3979      5F7400
 3980              	.LASF258:
 3981 071e 74787369 		.ascii	"txsize\000"
 3981      7A6500
 3982              	.LASF222:
 3983 0725 72657376 		.ascii	"resvd40C\000"
 3983      64343043 
 3983      00
 3984              	.LASF200:
 3985 072e 474F5447 		.ascii	"GOTGCTL\000"
 3985      43544C00 
 3986              	.LASF172:
 3987 0736 75645F73 		.ascii	"ud_string\000"
 3987      7472696E 
 3987      6700
 3988              	.LASF265:
 3989 0740 72786275 		.ascii	"rxbuf\000"
 3989      6600
 3990              	.LASF273:
 3991 0746 696E5F73 		.ascii	"in_state\000"
 3991      74617465 
 3991      00
 3992              	.LASF207:
 3993 074f 47525853 		.ascii	"GRXSTSR\000"
 3993      54535200 
 3994              	.LASF168:
 3995 0757 5553425F 		.ascii	"USB_EVENT_WAKEUP\000"
 3995      4556454E 
 3995      545F5741 
 3995      4B455550 
 3995      00
 3996              	.LASF250:
 3997 0768 50434743 		.ascii	"PCGCCTL\000"
 3997      43544C00 
 3998              	.LASF12:
 3999 0770 5F5F7569 		.ascii	"__uint32_t\000"
 3999      6E743332 
 3999      5F7400
 4000              	.LASF278:
ARM GAS  /tmp/ccHQbgGc.s 			page 77


 4001 077b 6576656E 		.ascii	"event_cb\000"
 4001      745F6362 
 4001      00
 4002              	.LASF201:
 4003 0784 474F5447 		.ascii	"GOTGINT\000"
 4003      494E5400 
 4004              	.LASF1:
 4005 078c 6C6F6E67 		.ascii	"long long int\000"
 4005      206C6F6E 
 4005      6720696E 
 4005      7400
 4006              	.LASF150:
 4007 079a 5553425F 		.ascii	"USB_READY\000"
 4007      52454144 
 4007      5900
 4008              	.LASF208:
 4009 07a4 47525853 		.ascii	"GRXSTSP\000"
 4009      54535000 
 4010              	.LASF57:
 4011 07ac 73797369 		.ascii	"sysinterval_t\000"
 4011      6E746572 
 4011      76616C5F 
 4011      7400
 4012              	.LASF226:
 4013 07ba 72657376 		.ascii	"resvd41C\000"
 4013      64343143 
 4013      00
 4014              	.LASF137:
 4015 07c3 6570306E 		.ascii	"ep0next\000"
 4015      65787400 
 4016              	.LASF67:
 4017 07cb 47545052 		.ascii	"GTPR\000"
 4017      00
 4018              	.LASF79:
 4019 07d0 6576656E 		.ascii	"event_source_t\000"
 4019      745F736F 
 4019      75726365 
 4019      5F7400
 4020              	.LASF244:
 4021 07df 72657376 		.ascii	"resvd838\000"
 4021      64383338 
 4021      00
 4022              	.LASF175:
 4023 07e8 75736265 		.ascii	"usbepcallback_t\000"
 4023      7063616C 
 4023      6C626163 
 4023      6B5F7400 
 4024              	.LASF268:
 4025 07f8 73657475 		.ascii	"setup_cb\000"
 4025      705F6362 
 4025      00
 4026              	.LASF247:
 4027 0801 72657376 		.ascii	"resvd880\000"
 4027      64383830 
 4027      00
 4028              	.LASF59:
 4029 080a 49544D5F 		.ascii	"ITM_RxBuffer\000"
ARM GAS  /tmp/ccHQbgGc.s 			page 78


 4029      52784275 
 4029      66666572 
 4029      00
 4030              	.LASF245:
 4031 0817 72657376 		.ascii	"resvd83C\000"
 4031      64383343 
 4031      00
 4032              	.LASF102:
 4033 0820 716E6F74 		.ascii	"qnotify_t\000"
 4033      6966795F 
 4033      7400
 4034              	.LASF113:
 4035 082a 6576656E 		.ascii	"event\000"
 4035      7400
 4036              	.LASF198:
 4037 0830 444F4550 		.ascii	"DOEPTSIZ\000"
 4037      5453495A 
 4037      00
 4038              	.LASF126:
 4039 0839 72656164 		.ascii	"read\000"
 4039      00
 4040              	.LASF87:
 4041 083e 73656C66 		.ascii	"selfindex\000"
 4041      696E6465 
 4041      7800
 4042              	.LASF224:
 4043 0848 4841494E 		.ascii	"HAINT\000"
 4043      5400
 4044              	.LASF0:
 4045 084e 756E7369 		.ascii	"unsigned int\000"
 4045      676E6564 
 4045      20696E74 
 4045      00
 4046              	.LASF282:
 4047 085b 55534243 		.ascii	"USBConfig\000"
 4047      6F6E6669 
 4047      6700
 4048              	.LASF181:
 4049 0865 4843494E 		.ascii	"HCINT\000"
 4049      5400
 4050              	.LASF253:
 4051 086b 73746D33 		.ascii	"stm32_otg_t\000"
 4051      325F6F74 
 4051      675F7400 
 4052              	.LASF276:
 4053 0877 73657475 		.ascii	"setup_buf\000"
 4053      705F6275 
 4053      6600
 4054              	.LASF228:
 4055 0881 72657376 		.ascii	"resvd444\000"
 4055      64343434 
 4055      00
 4056              	.LASF39:
 4057 088a 63757272 		.ascii	"current\000"
 4057      656E7400 
 4058              	.LASF270:
 4059 0892 6F75745F 		.ascii	"out_cb\000"
ARM GAS  /tmp/ccHQbgGc.s 			page 79


 4059      636200
 4060              	.LASF225:
 4061 0899 4841494E 		.ascii	"HAINTMSK\000"
 4061      544D534B 
 4061      00
 4062              	.LASF271:
 4063 08a2 696E5F6D 		.ascii	"in_maxsize\000"
 4063      61787369 
 4063      7A6500
 4064              	.LASF206:
 4065 08ad 47494E54 		.ascii	"GINTMSK\000"
 4065      4D534B00 
 4066              	.LASF66:
 4067 08b5 444D415F 		.ascii	"DMA_Stream_TypeDef\000"
 4067      53747265 
 4067      616D5F54 
 4067      79706544 
 4067      656600
 4068              	.LASF274:
 4069 08c8 6F75745F 		.ascii	"out_state\000"
 4069      73746174 
 4069      6500
 4070              	.LASF219:
 4071 08d2 48434647 		.ascii	"HCFG\000"
 4071      00
 4072              	.LASF107:
 4073 08d7 5F70616C 		.ascii	"_pal_events\000"
 4073      5F657665 
 4073      6E747300 
 4074              	.LASF26:
 4075 08e3 74687265 		.ascii	"thread_t\000"
 4075      61645F74 
 4075      00
 4076              	.LASF2:
 4077 08ec 6C6F6E67 		.ascii	"long double\000"
 4077      20646F75 
 4077      626C6500 
 4078              	.LASF31:
 4079 08f8 74687265 		.ascii	"thread_reference_t\000"
 4079      61645F72 
 4079      65666572 
 4079      656E6365 
 4079      5F7400
 4080              	.LASF72:
 4081 090b 706F7274 		.ascii	"port_intctx\000"
 4081      5F696E74 
 4081      63747800 
 4082              	.LASF145:
 4083 0917 6F746770 		.ascii	"otgparams\000"
 4083      6172616D 
 4083      7300
 4084              	.LASF242:
 4085 0921 72657376 		.ascii	"resvd830\000"
 4085      64383330 
 4085      00
 4086              	.LASF148:
 4087 092a 5553425F 		.ascii	"USB_UNINIT\000"
ARM GAS  /tmp/ccHQbgGc.s 			page 80


 4087      554E494E 
 4087      495400
 4088              	.LASF61:
 4089 0935 41484250 		.ascii	"AHBPrescTable\000"
 4089      72657363 
 4089      5461626C 
 4089      6500
 4090              	.LASF42:
 4091 0943 63685F76 		.ascii	"ch_virtual_timer\000"
 4091      69727475 
 4091      616C5F74 
 4091      696D6572 
 4091      00
 4092              	.LASF266:
 4093 0954 5553424F 		.ascii	"USBOutEndpointState\000"
 4093      7574456E 
 4093      64706F69 
 4093      6E745374 
 4093      61746500 
 4094              	.LASF249:
 4095 0968 72657376 		.ascii	"resvdD00\000"
 4095      64443030 
 4095      00
 4096              	.LASF15:
 4097 0971 6C6F6E67 		.ascii	"long long unsigned int\000"
 4097      206C6F6E 
 4097      6720756E 
 4097      7369676E 
 4097      65642069 
 4098              	.LASF216:
 4099 0988 48505458 		.ascii	"HPTXFSIZ\000"
 4099      4653495A 
 4099      00
 4100              	.LASF17:
 4101 0991 75696E74 		.ascii	"uint16_t\000"
 4101      31365F74 
 4101      00
 4102              	.LASF24:
 4103 099a 6D73675F 		.ascii	"msg_t\000"
 4103      7400
 4104              	.LASF231:
 4105 09a0 4443544C 		.ascii	"DCTL\000"
 4105      00
 4106              	.LASF34:
 4107 09a5 63685F74 		.ascii	"ch_threads_queue\000"
 4107      68726561 
 4107      64735F71 
 4107      75657565 
 4107      00
 4108              	.LASF277:
 4109 09b6 55534245 		.ascii	"USBEndpointConfig\000"
 4109      6E64706F 
 4109      696E7443 
 4109      6F6E6669 
 4109      6700
 4110              	.LASF25:
 4111 09c8 6576656E 		.ascii	"eventflags_t\000"
ARM GAS  /tmp/ccHQbgGc.s 			page 81


 4111      74666C61 
 4111      67735F74 
 4111      00
 4112              	.LASF182:
 4113 09d5 4843494E 		.ascii	"HCINTMSK\000"
 4113      544D534B 
 4113      00
 4114              	.LASF144:
 4115 09de 73617665 		.ascii	"saved_state\000"
 4115      645F7374 
 4115      61746500 
 4116              	.LASF43:
 4117 09ea 64656C74 		.ascii	"delta\000"
 4117      6100
 4118              	.LASF27:
 4119 09f0 71756575 		.ascii	"queue\000"
 4119      6500
 4120              	.LASF88:
 4121 09f6 76656374 		.ascii	"vector\000"
 4121      6F7200
 4122              	.LASF289:
 4123 09fd 2F686F6D 		.ascii	"/home/alex/ArduPilot/ardupilot/build/STM32Disco\000"
 4123      652F616C 
 4123      65782F41 
 4123      72647550 
 4123      696C6F74 
 4124              	.LASF55:
 4125 0a2d 6D61696E 		.ascii	"mainthread\000"
 4125      74687265 
 4125      616400
 4126              	.LASF237:
 4127 0a38 4441494E 		.ascii	"DAINTMSK\000"
 4127      544D534B 
 4127      00
 4128              	.LASF240:
 4129 0a41 44564255 		.ascii	"DVBUSDIS\000"
 4129      53444953 
 4129      00
 4130              	.LASF195:
 4131 0a4a 73746D33 		.ascii	"stm32_otg_in_ep_t\000"
 4131      325F6F74 
 4131      675F696E 
 4131      5F65705F 
 4131      7400
 4132              	.LASF255:
 4133 0a5c 6F74675F 		.ascii	"otg_ram_size\000"
 4133      72616D5F 
 4133      73697A65 
 4133      00
 4134              	.LASF166:
 4135 0a69 5553425F 		.ascii	"USB_EVENT_UNCONFIGURED\000"
 4135      4556454E 
 4135      545F554E 
 4135      434F4E46 
 4135      49475552 
 4136              	.LASF272:
 4137 0a80 6F75745F 		.ascii	"out_maxsize\000"
ARM GAS  /tmp/ccHQbgGc.s 			page 82


 4137      6D617873 
 4137      697A6500 
 4138              	.LASF162:
 4139 0a8c 75736265 		.ascii	"usbep0state_t\000"
 4139      70307374 
 4139      6174655F 
 4139      7400
 4140              	.LASF112:
 4141 0a9a 53657269 		.ascii	"SerialDriver\000"
 4141      616C4472 
 4141      69766572 
 4141      00
 4142              	.LASF165:
 4143 0aa7 5553425F 		.ascii	"USB_EVENT_CONFIGURED\000"
 4143      4556454E 
 4143      545F434F 
 4143      4E464947 
 4143      55524544 
 4144              	.LASF252:
 4145 0abc 4649464F 		.ascii	"FIFO\000"
 4145      00
 4146              	.LASF94:
 4147 0ac1 715F7761 		.ascii	"q_waiting\000"
 4147      6974696E 
 4147      6700
 4148              	.LASF53:
 4149 0acb 726C6973 		.ascii	"rlist\000"
 4149      7400
 4150              	.LASF157:
 4151 0ad1 5553425F 		.ascii	"USB_EP0_IN_WAITING_TX0\000"
 4151      4550305F 
 4151      494E5F57 
 4151      41495449 
 4151      4E475F54 
 4152              	.LASF21:
 4153 0ae8 746D6F64 		.ascii	"tmode_t\000"
 4153      655F7400 
 4154              	.LASF85:
 4155 0af0 64756D6D 		.ascii	"dummy\000"
 4155      7900
 4156              	.LASF111:
 4157 0af6 73647374 		.ascii	"sdstate_t\000"
 4157      6174655F 
 4157      7400
 4158              	.LASF178:
 4159 0b00 75736267 		.ascii	"usbgetdescriptor_t\000"
 4159      65746465 
 4159      73637269 
 4159      70746F72 
 4159      5F7400
 4160              	.LASF110:
 4161 0b13 53445F52 		.ascii	"SD_READY\000"
 4161      45414459 
 4161      00
 4162              	.LASF285:
 4163 0b1c 4E756C6C 		.ascii	"NullStream\000"
 4163      53747265 
ARM GAS  /tmp/ccHQbgGc.s 			page 83


 4163      616D00
 4164              	.LASF64:
 4165 0b27 4D304152 		.ascii	"M0AR\000"
 4165      00
 4166              	.LASF62:
 4167 0b2c 41504250 		.ascii	"APBPrescTable\000"
 4167      72657363 
 4167      5461626C 
 4167      6500
 4168              	.LASF7:
 4169 0b3a 73686F72 		.ascii	"short int\000"
 4169      7420696E 
 4169      7400
 4170              	.LASF80:
 4171 0b44 6576656E 		.ascii	"event_source\000"
 4171      745F736F 
 4171      75726365 
 4171      00
 4172              	.LASF20:
 4173 0b51 75696E74 		.ascii	"uint64_t\000"
 4173      36345F74 
 4173      00
 4174              	.LASF44:
 4175 0b5a 66756E63 		.ascii	"func\000"
 4175      00
 4176              	.LASF163:
 4177 0b5f 5553425F 		.ascii	"USB_EVENT_RESET\000"
 4177      4556454E 
 4177      545F5245 
 4177      53455400 
 4178              	.LASF184:
 4179 0b6f 72657376 		.ascii	"resvd14\000"
 4179      64313400 
 4180              	.LASF114:
 4181 0b77 69717565 		.ascii	"iqueue\000"
 4181      756500
 4182              	.LASF193:
 4183 0b7e 44545846 		.ascii	"DTXFSTS\000"
 4183      53545300 
 4184              	.LASF194:
 4185 0b86 72657376 		.ascii	"resvd1C\000"
 4185      64314300 
 4186              	.LASF234:
 4187 0b8e 44494550 		.ascii	"DIEPMSK\000"
 4187      4D534B00 
 4188              	.LASF49:
 4189 0b96 63685F73 		.ascii	"ch_system_debug\000"
 4189      79737465 
 4189      6D5F6465 
 4189      62756700 
 4190              	.LASF186:
 4191 0ba6 72657376 		.ascii	"resvd1c\000"
 4191      64316300 
 4192              	.LASF92:
 4193 0bae 696F5F71 		.ascii	"io_queue_t\000"
 4193      75657565 
 4193      5F7400
ARM GAS  /tmp/ccHQbgGc.s 			page 84


 4194              	.LASF121:
 4195 0bb9 6972715F 		.ascii	"irq_cb\000"
 4195      636200
 4196              	.LASF177:
 4197 0bc0 75736272 		.ascii	"usbreqhandler_t\000"
 4197      65716861 
 4197      6E646C65 
 4197      725F7400 
 4198              	.LASF188:
 4199 0bd0 44494550 		.ascii	"DIEPCTL\000"
 4199      43544C00 
 4200              	.LASF174:
 4201 0bd8 75736263 		.ascii	"usbcallback_t\000"
 4201      616C6C62 
 4201      61636B5F 
 4201      7400
 4202              	.LASF205:
 4203 0be6 47494E54 		.ascii	"GINTSTS\000"
 4203      53545300 
 4204              	.LASF54:
 4205 0bee 76746C69 		.ascii	"vtlist\000"
 4205      737400
 4206              	.LASF190:
 4207 0bf5 44494550 		.ascii	"DIEPINT\000"
 4207      494E5400 
 4208              	.LASF211:
 4209 0bfd 484E5054 		.ascii	"HNPTXSTS\000"
 4209      58535453 
 4209      00
 4210              	.LASF160:
 4211 0c06 5553425F 		.ascii	"USB_EP0_OUT_RX\000"
 4211      4550305F 
 4211      4F55545F 
 4211      525800
 4212              	.LASF283:
 4213 0c15 55534244 		.ascii	"USBD1\000"
 4213      3100
 4214              	.LASF71:
 4215 0c1b 706F7274 		.ascii	"port_context\000"
 4215      5F636F6E 
 4215      74657874 
 4215      00
 4216              	.LASF281:
 4217 0c28 736F665F 		.ascii	"sof_cb\000"
 4217      636200
 4218              	.LASF251:
 4219 0c2f 72657376 		.ascii	"resvdE04\000"
 4219      64453034 
 4219      00
 4220              	.LASF212:
 4221 0c38 72657376 		.ascii	"resvd30\000"
 4221      64333000 
 4222              	.LASF52:
 4223 0c40 63685F73 		.ascii	"ch_system\000"
 4223      79737465 
 4223      6D00
 4224              	.LASF213:
ARM GAS  /tmp/ccHQbgGc.s 			page 85


 4225 0c4a 72657376 		.ascii	"resvd34\000"
 4225      64333400 
 4226              	.LASF19:
 4227 0c52 75696E74 		.ascii	"uint32_t\000"
 4227      33325F74 
 4227      00
 4228              	.LASF147:
 4229 0c5b 75736265 		.ascii	"usbep_t\000"
 4229      705F7400 
 4230              	.LASF124:
 4231 0c63 696E7374 		.ascii	"instance_offset\000"
 4231      616E6365 
 4231      5F6F6666 
 4231      73657400 
 4232              	.LASF103:
 4233 0c73 696E7075 		.ascii	"input_queue_t\000"
 4233      745F7175 
 4233      6575655F 
 4233      7400
 4234              	.LASF73:
 4235 0c81 7264796D 		.ascii	"rdymsg\000"
 4235      736700
 4236              	.LASF9:
 4237 0c88 73686F72 		.ascii	"short unsigned int\000"
 4237      7420756E 
 4237      7369676E 
 4237      65642069 
 4237      6E7400
 4238              	.LASF232:
 4239 0c9b 44535453 		.ascii	"DSTS\000"
 4239      00
 4240              	.LASF279:
 4241 0ca0 6765745F 		.ascii	"get_descriptor_cb\000"
 4241      64657363 
 4241      72697074 
 4241      6F725F63 
 4241      6200
 4242              	.LASF51:
 4243 0cb2 63685F73 		.ascii	"ch_system_t\000"
 4243      79737465 
 4243      6D5F7400 
 4244              	.LASF167:
 4245 0cbe 5553425F 		.ascii	"USB_EVENT_SUSPEND\000"
 4245      4556454E 
 4245      545F5355 
 4245      5350454E 
 4245      4400
 4246              	.LASF104:
 4247 0cd0 6F757470 		.ascii	"output_queue_t\000"
 4247      75745F71 
 4247      75657565 
 4247      5F7400
 4248              	.LASF135:
 4249 0cdf 6F75745F 		.ascii	"out_params\000"
 4249      70617261 
 4249      6D7300
 4250              	.LASF10:
ARM GAS  /tmp/ccHQbgGc.s 			page 86


 4251 0cea 5F5F696E 		.ascii	"__int32_t\000"
 4251      7433325F 
 4251      7400
 4252              	.LASF109:
 4253 0cf4 53445F53 		.ascii	"SD_STOP\000"
 4253      544F5000 
 4254              	.LASF63:
 4255 0cfc 4E445452 		.ascii	"NDTR\000"
 4255      00
 4256              	.LASF84:
 4257 0d01 69666372 		.ascii	"ifcr\000"
 4257      00
 4258              	.LASF215:
 4259 0d06 72657376 		.ascii	"resvd58\000"
 4259      64353800 
 4260              	.LASF220:
 4261 0d0e 48464952 		.ascii	"HFIR\000"
 4261      00
 4262              	.LASF35:
 4263 0d13 6E657874 		.ascii	"next\000"
 4263      00
 4264              	.LASF146:
 4265 0d18 706D6E65 		.ascii	"pmnext\000"
 4265      787400
 4266              	.LASF36:
 4267 0d1f 70726576 		.ascii	"prev\000"
 4267      00
 4268              	.LASF203:
 4269 0d24 47555342 		.ascii	"GUSBCFG\000"
 4269      43464700 
 4270              	.LASF218:
 4271 0d2c 72657376 		.ascii	"resvd140\000"
 4271      64313430 
 4271      00
 4272              		.ident	"GCC: (GNU Tools for ARM Embedded Processors 6-2017-q2-update) 6.3.1 20170620 (release) [AR
ARM GAS  /tmp/ccHQbgGc.s 			page 87


DEFINED SYMBOLS
                            *ABS*:0000000000000000 nullstreams.c
     /tmp/ccHQbgGc.s:18     .text.writes:0000000000000000 $t
     /tmp/ccHQbgGc.s:24     .text.writes:0000000000000000 writes
     /tmp/ccHQbgGc.s:41     .text.reads:0000000000000000 $t
     /tmp/ccHQbgGc.s:47     .text.reads:0000000000000000 reads
     /tmp/ccHQbgGc.s:63     .text.put:0000000000000000 $t
     /tmp/ccHQbgGc.s:69     .text.put:0000000000000000 put
     /tmp/ccHQbgGc.s:85     .text.get:0000000000000000 $t
     /tmp/ccHQbgGc.s:91     .text.get:0000000000000000 get
     /tmp/ccHQbgGc.s:107    .text.nullObjectInit:0000000000000000 $t
     /tmp/ccHQbgGc.s:114    .text.nullObjectInit:0000000000000000 nullObjectInit
     /tmp/ccHQbgGc.s:129    .text.nullObjectInit:0000000000000008 $d
     /tmp/ccHQbgGc.s:134    .rodata.vmt:0000000000000000 $d
     /tmp/ccHQbgGc.s:138    .rodata.vmt:0000000000000000 vmt
                     .debug_frame:0000000000000010 $d

NO UNDEFINED SYMBOLS
