ARM GAS  /tmp/cccR1v5y.s 			page 1


   1              		.cpu cortex-m4
   2              		.eabi_attribute 27, 1
   3              		.eabi_attribute 28, 1
   4              		.eabi_attribute 20, 1
   5              		.eabi_attribute 21, 1
   6              		.eabi_attribute 23, 3
   7              		.eabi_attribute 24, 1
   8              		.eabi_attribute 25, 1
   9              		.eabi_attribute 26, 1
  10              		.eabi_attribute 30, 4
  11              		.eabi_attribute 34, 1
  12              		.eabi_attribute 18, 4
  13              		.file	"nvic.c"
  14              		.text
  15              	.Ltext0:
  16              		.cfi_sections	.debug_frame
  17              		.section	.text.nvicEnableVector,"ax",%progbits
  18              		.align	1
  19              		.global	nvicEnableVector
  20              		.syntax unified
  21              		.thumb
  22              		.thumb_func
  23              		.fpu fpv4-sp-d16
  24              		.type	nvicEnableVector, %function
  25              	nvicEnableVector:
  26              	.LFB251:
  27              		.file 1 "../../modules/ChibiOS/os/hal/ports/common/ARMCMx/nvic.c"
  28              		.loc 1 57 0
  29              		.cfi_startproc
  30              		@ args = 0, pretend = 0, frame = 0
  31              		@ frame_needed = 0, uses_anonymous_args = 0
  32              		@ link register save eliminated.
  33              	.LVL0:
  34              		.loc 1 63 0
  35 0000 00F16043 		add	r3, r0, #-536870912
  36              		.loc 1 65 0
  37 0004 00F01F02 		and	r2, r0, #31
  38 0008 4009     		lsrs	r0, r0, #5
  39              	.LVL1:
  40              		.loc 1 63 0
  41 000a 03F56143 		add	r3, r3, #57600
  42              	.LVL2:
  43 000e 0901     		lsls	r1, r1, #4
  44              	.LVL3:
  45 0010 8000     		lsls	r0, r0, #2
  46 0012 C9B2     		uxtb	r1, r1
  47 0014 00F16040 		add	r0, r0, #-536870912
  48 0018 83F80013 		strb	r1, [r3, #768]
  49 001c 00F56140 		add	r0, r0, #57600
  50              		.loc 1 65 0
  51 0020 0123     		movs	r3, #1
  52              	.LVL4:
  53 0022 9340     		lsls	r3, r3, r2
  54 0024 C0F88031 		str	r3, [r0, #384]
  55              		.loc 1 66 0
  56 0028 0360     		str	r3, [r0]
  57 002a 7047     		bx	lr
ARM GAS  /tmp/cccR1v5y.s 			page 2


  58              		.cfi_endproc
  59              	.LFE251:
  60              		.size	nvicEnableVector, .-nvicEnableVector
  61              		.section	.text.nvicDisableVector,"ax",%progbits
  62              		.align	1
  63              		.global	nvicDisableVector
  64              		.syntax unified
  65              		.thumb
  66              		.thumb_func
  67              		.fpu fpv4-sp-d16
  68              		.type	nvicDisableVector, %function
  69              	nvicDisableVector:
  70              	.LFB252:
  71              		.loc 1 74 0
  72              		.cfi_startproc
  73              		@ args = 0, pretend = 0, frame = 0
  74              		@ frame_needed = 0, uses_anonymous_args = 0
  75              		@ link register save eliminated.
  76              	.LVL5:
  77              		.loc 1 76 0
  78 0000 00F01F03 		and	r3, r0, #31
  79 0004 4209     		lsrs	r2, r0, #5
  80 0006 0121     		movs	r1, #1
  81 0008 9940     		lsls	r1, r1, r3
  82 000a 2032     		adds	r2, r2, #32
  83 000c 034B     		ldr	r3, .L3
  84 000e 43F82210 		str	r1, [r3, r2, lsl #2]
  85              		.loc 1 80 0
  86 0012 0344     		add	r3, r3, r0
  87 0014 0022     		movs	r2, #0
  88 0016 83F80023 		strb	r2, [r3, #768]
  89 001a 7047     		bx	lr
  90              	.L4:
  91              		.align	2
  92              	.L3:
  93 001c 00E100E0 		.word	-536813312
  94              		.cfi_endproc
  95              	.LFE252:
  96              		.size	nvicDisableVector, .-nvicDisableVector
  97              		.section	.text.nvicSetSystemHandlerPriority,"ax",%progbits
  98              		.align	1
  99              		.global	nvicSetSystemHandlerPriority
 100              		.syntax unified
 101              		.thumb
 102              		.thumb_func
 103              		.fpu fpv4-sp-d16
 104              		.type	nvicSetSystemHandlerPriority, %function
 105              	nvicSetSystemHandlerPriority:
 106              	.LFB253:
 107              		.loc 1 90 0
 108              		.cfi_startproc
 109              		@ args = 0, pretend = 0, frame = 0
 110              		@ frame_needed = 0, uses_anonymous_args = 0
 111              		@ link register save eliminated.
 112              	.LVL6:
 113              		.loc 1 100 0
 114 0000 00F16040 		add	r0, r0, #-536870912
ARM GAS  /tmp/cccR1v5y.s 			page 3


 115              	.LVL7:
 116 0004 0901     		lsls	r1, r1, #4
 117              	.LVL8:
 118 0006 00F56D40 		add	r0, r0, #60672
 119              	.LVL9:
 120 000a C9B2     		uxtb	r1, r1
 121 000c 0176     		strb	r1, [r0, #24]
 122 000e 7047     		bx	lr
 123              		.cfi_endproc
 124              	.LFE253:
 125              		.size	nvicSetSystemHandlerPriority, .-nvicSetSystemHandlerPriority
 126              		.section	.text.nvicClearPending,"ax",%progbits
 127              		.align	1
 128              		.global	nvicClearPending
 129              		.syntax unified
 130              		.thumb
 131              		.thumb_func
 132              		.fpu fpv4-sp-d16
 133              		.type	nvicClearPending, %function
 134              	nvicClearPending:
 135              	.LFB254:
 136              		.loc 1 109 0
 137              		.cfi_startproc
 138              		@ args = 0, pretend = 0, frame = 0
 139              		@ frame_needed = 0, uses_anonymous_args = 0
 140              		@ link register save eliminated.
 141              	.LVL10:
 142              		.loc 1 111 0
 143 0000 4309     		lsrs	r3, r0, #5
 144 0002 0122     		movs	r2, #1
 145 0004 00F01F00 		and	r0, r0, #31
 146              	.LVL11:
 147 0008 02FA00F0 		lsl	r0, r2, r0
 148 000c 6033     		adds	r3, r3, #96
 149 000e 024A     		ldr	r2, .L7
 150 0010 42F82300 		str	r0, [r2, r3, lsl #2]
 151 0014 7047     		bx	lr
 152              	.L8:
 153 0016 00BF     		.align	2
 154              	.L7:
 155 0018 00E100E0 		.word	-536813312
 156              		.cfi_endproc
 157              	.LFE254:
 158              		.size	nvicClearPending, .-nvicClearPending
 159              		.text
 160              	.Letext0:
 161              		.file 2 "/opt/gcc-arm-none-eabi-6-2017-q2-update/lib/gcc/arm-none-eabi/6.3.1/include/stddef.h"
 162              		.file 3 "/opt/gcc-arm-none-eabi-6-2017-q2-update/arm-none-eabi/include/machine/_default_types.h"
 163              		.file 4 "/opt/gcc-arm-none-eabi-6-2017-q2-update/arm-none-eabi/include/sys/_stdint.h"
 164              		.file 5 "../../modules/ChibiOS/os/common/ports/ARMCMx/compilers/GCC/chtypes.h"
 165              		.file 6 "../../modules/ChibiOS/os/rt/include/chsystypes.h"
 166              		.file 7 "../../modules/ChibiOS/os/rt/include/chschd.h"
 167              		.file 8 "../../modules/ChibiOS/os/rt/include/chtime.h"
 168              		.file 9 "../../modules/ChibiOS/os/common/ext/ARM/CMSIS/Core/Include/core_cm4.h"
 169              		.file 10 "../../modules/ChibiOS/os/common/ext/ST/STM32F4xx/system_stm32f4xx.h"
 170              		.file 11 "../../modules/ChibiOS/os/common/ext/ST/STM32F4xx/stm32f407xx.h"
 171              		.file 12 "../../modules/ChibiOS/os/common/ports/ARMCMx/chcore.h"
ARM GAS  /tmp/cccR1v5y.s 			page 4


 172              		.file 13 "../../modules/ChibiOS/os/common/ports/ARMCMx/chcore_v7m.h"
 173              		.file 14 "../../modules/ChibiOS/os/rt/include/chsys.h"
 174              		.file 15 "../../modules/ChibiOS/os/hal/osal/rt/osal.h"
 175              		.file 16 "../../modules/ChibiOS/os/hal/ports/STM32/LLD/DMAv2/stm32_dma.h"
 176              		.file 17 "../../modules/ChibiOS/os/hal/include/hal_queues.h"
 177              		.file 18 "../../modules/ChibiOS/os/hal/include/hal_pal.h"
 178              		.file 19 "../../modules/ChibiOS/os/hal/ports/STM32/LLD/GPIOv2/hal_pal_lld.h"
 179              		.file 20 "../../modules/ChibiOS/os/hal/include/hal_serial.h"
 180              		.file 21 "../../modules/ChibiOS/os/hal/ports/STM32/LLD/USARTv1/hal_serial_lld.h"
 181              		.file 22 "../../modules/ChibiOS/os/hal/include/hal_usb.h"
 182              		.file 23 "../../modules/ChibiOS/os/hal/ports/STM32/LLD/OTGv1/hal_usb_lld.h"
 183              		.file 24 "../../modules/ChibiOS/os/hal/ports/STM32/LLD/OTGv1/stm32_otg.h"