ARM GAS  /tmp/cccR1v5y.s 			page 1


   1              		.cpu cortex-m4
   2              		.eabi_attribute 27, 1
   3              		.eabi_attribute 28, 1
   4              		.eabi_attribute 20, 1
   5              		.eabi_attribute 21, 1
   6              		.eabi_attribute 23, 3
   7              		.eabi_attribute 24, 1
   8              		.eabi_attribute 25, 1
   9              		.eabi_attribute 26, 1
  10              		.eabi_attribute 30, 4
  11              		.eabi_attribute 34, 1
  12              		.eabi_attribute 18, 4
  13              		.file	"nvic.c"
  14              		.text
  15              	.Ltext0:
  16              		.cfi_sections	.debug_frame
  17              		.section	.text.nvicEnableVector,"ax",%progbits
  18              		.align	1
  19              		.global	nvicEnableVector
  20              		.syntax unified
  21              		.thumb
  22              		.thumb_func
  23              		.fpu fpv4-sp-d16
  24              		.type	nvicEnableVector, %function
  25              	nvicEnableVector:
  26              	.LFB251:
  27              		.file 1 "../../modules/ChibiOS/os/hal/ports/common/ARMCMx/nvic.c"
  28              		.loc 1 57 0
  29              		.cfi_startproc
  30              		@ args = 0, pretend = 0, frame = 0
  31              		@ frame_needed = 0, uses_anonymous_args = 0
  32              		@ link register save eliminated.
  33              	.LVL0:
  34              		.loc 1 63 0
  35 0000 00F16043 		add	r3, r0, #-536870912
  36              		.loc 1 65 0
  37 0004 00F01F02 		and	r2, r0, #31
  38 0008 4009     		lsrs	r0, r0, #5
  39              	.LVL1:
  40              		.loc 1 63 0
  41 000a 03F56143 		add	r3, r3, #57600
  42              	.LVL2:
  43 000e 0901     		lsls	r1, r1, #4
  44              	.LVL3:
  45 0010 8000     		lsls	r0, r0, #2
  46 0012 C9B2     		uxtb	r1, r1
  47 0014 00F16040 		add	r0, r0, #-536870912
  48 0018 83F80013 		strb	r1, [r3, #768]
  49 001c 00F56140 		add	r0, r0, #57600
  50              		.loc 1 65 0
  51 0020 0123     		movs	r3, #1
  52              	.LVL4:
  53 0022 9340     		lsls	r3, r3, r2
  54 0024 C0F88031 		str	r3, [r0, #384]
  55              		.loc 1 66 0
  56 0028 0360     		str	r3, [r0]
  57 002a 7047     		bx	lr
ARM GAS  /tmp/cccR1v5y.s 			page 2


  58              		.cfi_endproc
  59              	.LFE251:
  60              		.size	nvicEnableVector, .-nvicEnableVector
  61              		.section	.text.nvicDisableVector,"ax",%progbits
  62              		.align	1
  63              		.global	nvicDisableVector
  64              		.syntax unified
  65              		.thumb
  66              		.thumb_func
  67              		.fpu fpv4-sp-d16
  68              		.type	nvicDisableVector, %function
  69              	nvicDisableVector:
  70              	.LFB252:
  71              		.loc 1 74 0
  72              		.cfi_startproc
  73              		@ args = 0, pretend = 0, frame = 0
  74              		@ frame_needed = 0, uses_anonymous_args = 0
  75              		@ link register save eliminated.
  76              	.LVL5:
  77              		.loc 1 76 0
  78 0000 00F01F03 		and	r3, r0, #31
  79 0004 4209     		lsrs	r2, r0, #5
  80 0006 0121     		movs	r1, #1
  81 0008 9940     		lsls	r1, r1, r3
  82 000a 2032     		adds	r2, r2, #32
  83 000c 034B     		ldr	r3, .L3
  84 000e 43F82210 		str	r1, [r3, r2, lsl #2]
  85              		.loc 1 80 0
  86 0012 0344     		add	r3, r3, r0
  87 0014 0022     		movs	r2, #0
  88 0016 83F80023 		strb	r2, [r3, #768]
  89 001a 7047     		bx	lr
  90              	.L4:
  91              		.align	2
  92              	.L3:
  93 001c 00E100E0 		.word	-536813312
  94              		.cfi_endproc
  95              	.LFE252:
  96              		.size	nvicDisableVector, .-nvicDisableVector
  97              		.section	.text.nvicSetSystemHandlerPriority,"ax",%progbits
  98              		.align	1
  99              		.global	nvicSetSystemHandlerPriority
 100              		.syntax unified
 101              		.thumb
 102              		.thumb_func
 103              		.fpu fpv4-sp-d16
 104              		.type	nvicSetSystemHandlerPriority, %function
 105              	nvicSetSystemHandlerPriority:
 106              	.LFB253:
 107              		.loc 1 90 0
 108              		.cfi_startproc
 109              		@ args = 0, pretend = 0, frame = 0
 110              		@ frame_needed = 0, uses_anonymous_args = 0
 111              		@ link register save eliminated.
 112              	.LVL6:
 113              		.loc 1 100 0
 114 0000 00F16040 		add	r0, r0, #-536870912
ARM GAS  /tmp/cccR1v5y.s 			page 3


 115              	.LVL7:
 116 0004 0901     		lsls	r1, r1, #4
 117              	.LVL8:
 118 0006 00F56D40 		add	r0, r0, #60672
 119              	.LVL9:
 120 000a C9B2     		uxtb	r1, r1
 121 000c 0176     		strb	r1, [r0, #24]
 122 000e 7047     		bx	lr
 123              		.cfi_endproc
 124              	.LFE253:
 125              		.size	nvicSetSystemHandlerPriority, .-nvicSetSystemHandlerPriority
 126              		.section	.text.nvicClearPending,"ax",%progbits
 127              		.align	1
 128              		.global	nvicClearPending
 129              		.syntax unified
 130              		.thumb
 131              		.thumb_func
 132              		.fpu fpv4-sp-d16
 133              		.type	nvicClearPending, %function
 134              	nvicClearPending:
 135              	.LFB254:
 136              		.loc 1 109 0
 137              		.cfi_startproc
 138              		@ args = 0, pretend = 0, frame = 0
 139              		@ frame_needed = 0, uses_anonymous_args = 0
 140              		@ link register save eliminated.
 141              	.LVL10:
 142              		.loc 1 111 0
 143 0000 4309     		lsrs	r3, r0, #5
 144 0002 0122     		movs	r2, #1
 145 0004 00F01F00 		and	r0, r0, #31
 146              	.LVL11:
 147 0008 02FA00F0 		lsl	r0, r2, r0
 148 000c 6033     		adds	r3, r3, #96
 149 000e 024A     		ldr	r2, .L7
 150 0010 42F82300 		str	r0, [r2, r3, lsl #2]
 151 0014 7047     		bx	lr
 152              	.L8:
 153 0016 00BF     		.align	2
 154              	.L7:
 155 0018 00E100E0 		.word	-536813312
 156              		.cfi_endproc
 157              	.LFE254:
 158              		.size	nvicClearPending, .-nvicClearPending
 159              		.text
 160              	.Letext0:
 161              		.file 2 "/opt/gcc-arm-none-eabi-6-2017-q2-update/lib/gcc/arm-none-eabi/6.3.1/include/stddef.h"
 162              		.file 3 "/opt/gcc-arm-none-eabi-6-2017-q2-update/arm-none-eabi/include/machine/_default_types.h"
 163              		.file 4 "/opt/gcc-arm-none-eabi-6-2017-q2-update/arm-none-eabi/include/sys/_stdint.h"
 164              		.file 5 "../../modules/ChibiOS/os/common/ports/ARMCMx/compilers/GCC/chtypes.h"
 165              		.file 6 "../../modules/ChibiOS/os/rt/include/chsystypes.h"
 166              		.file 7 "../../modules/ChibiOS/os/rt/include/chschd.h"
 167              		.file 8 "../../modules/ChibiOS/os/rt/include/chtime.h"
 168              		.file 9 "../../modules/ChibiOS/os/common/ext/ARM/CMSIS/Core/Include/core_cm4.h"
 169              		.file 10 "../../modules/ChibiOS/os/common/ext/ST/STM32F4xx/system_stm32f4xx.h"
 170              		.file 11 "../../modules/ChibiOS/os/common/ext/ST/STM32F4xx/stm32f407xx.h"
 171              		.file 12 "../../modules/ChibiOS/os/common/ports/ARMCMx/chcore.h"
ARM GAS  /tmp/cccR1v5y.s 			page 4


 172              		.file 13 "../../modules/ChibiOS/os/common/ports/ARMCMx/chcore_v7m.h"
 173              		.file 14 "../../modules/ChibiOS/os/rt/include/chsys.h"
 174              		.file 15 "../../modules/ChibiOS/os/hal/osal/rt/osal.h"
 175              		.file 16 "../../modules/ChibiOS/os/hal/ports/STM32/LLD/DMAv2/stm32_dma.h"
 176              		.file 17 "../../modules/ChibiOS/os/hal/include/hal_queues.h"
 177              		.file 18 "../../modules/ChibiOS/os/hal/include/hal_pal.h"
 178              		.file 19 "../../modules/ChibiOS/os/hal/ports/STM32/LLD/GPIOv2/hal_pal_lld.h"
 179              		.file 20 "../../modules/ChibiOS/os/hal/include/hal_serial.h"
 180              		.file 21 "../../modules/ChibiOS/os/hal/ports/STM32/LLD/USARTv1/hal_serial_lld.h"
 181              		.file 22 "../../modules/ChibiOS/os/hal/include/hal_usb.h"
 182              		.file 23 "../../modules/ChibiOS/os/hal/ports/STM32/LLD/OTGv1/hal_usb_lld.h"
 183              		.file 24 "../../modules/ChibiOS/os/hal/ports/STM32/LLD/OTGv1/stm32_otg.h"
 184              		.section	.debug_info,"",%progbits
 185              	.Ldebug_info0:
 186 0000 64190000 		.4byte	0x1964
 187 0004 0400     		.2byte	0x4
 188 0006 00000000 		.4byte	.Ldebug_abbrev0
 189 000a 04       		.byte	0x4
 190 000b 01       		.uleb128 0x1
 191 000c 8C030000 		.4byte	.LASF316
 192 0010 0C       		.byte	0xc
 193 0011 AC090000 		.4byte	.LASF317
 194 0015 B20A0000 		.4byte	.LASF318
 195 0019 00000000 		.4byte	.Ldebug_ranges0+0
 196 001d 00000000 		.4byte	0
 197 0021 00000000 		.4byte	.Ldebug_line0
 198 0025 02       		.uleb128 0x2
 199 0026 04       		.byte	0x4
 200 0027 05       		.byte	0x5
 201 0028 696E7400 		.ascii	"int\000"
 202 002c 03       		.uleb128 0x3
 203 002d 21000000 		.4byte	.LASF4
 204 0031 02       		.byte	0x2
 205 0032 D8       		.byte	0xd8
 206 0033 3C000000 		.4byte	0x3c
 207 0037 04       		.uleb128 0x4
 208 0038 2C000000 		.4byte	0x2c
 209 003c 05       		.uleb128 0x5
 210 003d 04       		.byte	0x4
 211 003e 07       		.byte	0x7
 212 003f C3080000 		.4byte	.LASF0
 213 0043 05       		.uleb128 0x5
 214 0044 08       		.byte	0x8
 215 0045 05       		.byte	0x5
 216 0046 01080000 		.4byte	.LASF1
 217 004a 05       		.uleb128 0x5
 218 004b 08       		.byte	0x8
 219 004c 04       		.byte	0x4
 220 004d 5C090000 		.4byte	.LASF2
 221 0051 05       		.uleb128 0x5
 222 0052 01       		.byte	0x1
 223 0053 06       		.byte	0x6
 224 0054 17020000 		.4byte	.LASF3
 225 0058 03       		.uleb128 0x3
 226 0059 2B010000 		.4byte	.LASF5
 227 005d 03       		.byte	0x3
 228 005e 2B       		.byte	0x2b
ARM GAS  /tmp/cccR1v5y.s 			page 5


 229 005f 63000000 		.4byte	0x63
 230 0063 05       		.uleb128 0x5
 231 0064 01       		.byte	0x1
 232 0065 08       		.byte	0x8
 233 0066 5C020000 		.4byte	.LASF6
 234 006a 05       		.uleb128 0x5
 235 006b 02       		.byte	0x2
 236 006c 05       		.byte	0x5
 237 006d 0C0C0000 		.4byte	.LASF7
 238 0071 03       		.uleb128 0x3
 239 0072 4F030000 		.4byte	.LASF8
 240 0076 03       		.byte	0x3
 241 0077 39       		.byte	0x39
 242 0078 7C000000 		.4byte	0x7c
 243 007c 05       		.uleb128 0x5
 244 007d 02       		.byte	0x2
 245 007e 07       		.byte	0x7
 246 007f 620D0000 		.4byte	.LASF9
 247 0083 03       		.uleb128 0x3
 248 0084 CA0D0000 		.4byte	.LASF10
 249 0088 03       		.byte	0x3
 250 0089 4D       		.byte	0x4d
 251 008a 8E000000 		.4byte	0x8e
 252 008e 05       		.uleb128 0x5
 253 008f 04       		.byte	0x4
 254 0090 05       		.byte	0x5
 255 0091 84010000 		.4byte	.LASF11
 256 0095 03       		.uleb128 0x3
 257 0096 E5070000 		.4byte	.LASF12
 258 009a 03       		.byte	0x3
 259 009b 4F       		.byte	0x4f
 260 009c A0000000 		.4byte	0xa0
 261 00a0 05       		.uleb128 0x5
 262 00a1 04       		.byte	0x4
 263 00a2 07       		.byte	0x7
 264 00a3 43060000 		.4byte	.LASF13
 265 00a7 03       		.uleb128 0x3
 266 00a8 28060000 		.4byte	.LASF14
 267 00ac 03       		.byte	0x3
 268 00ad 69       		.byte	0x69
 269 00ae B2000000 		.4byte	0xb2
 270 00b2 05       		.uleb128 0x5
 271 00b3 08       		.byte	0x8
 272 00b4 07       		.byte	0x7
 273 00b5 260A0000 		.4byte	.LASF15
 274 00b9 03       		.uleb128 0x3
 275 00ba 23020000 		.4byte	.LASF16
 276 00be 04       		.byte	0x4
 277 00bf 18       		.byte	0x18
 278 00c0 58000000 		.4byte	0x58
 279 00c4 04       		.uleb128 0x4
 280 00c5 B9000000 		.4byte	0xb9
 281 00c9 06       		.uleb128 0x6
 282 00ca B9000000 		.4byte	0xb9
 283 00ce 03       		.uleb128 0x3
 284 00cf 460A0000 		.4byte	.LASF17
 285 00d3 04       		.byte	0x4
ARM GAS  /tmp/cccR1v5y.s 			page 6


 286 00d4 24       		.byte	0x24
 287 00d5 71000000 		.4byte	0x71
 288 00d9 03       		.uleb128 0x3
 289 00da 58000000 		.4byte	.LASF18
 290 00de 04       		.byte	0x4
 291 00df 2C       		.byte	0x2c
 292 00e0 83000000 		.4byte	0x83
 293 00e4 04       		.uleb128 0x4
 294 00e5 D9000000 		.4byte	0xd9
 295 00e9 03       		.uleb128 0x3
 296 00ea 2C0D0000 		.4byte	.LASF19
 297 00ee 04       		.byte	0x4
 298 00ef 30       		.byte	0x30
 299 00f0 95000000 		.4byte	0x95
 300 00f4 04       		.uleb128 0x4
 301 00f5 E9000000 		.4byte	0xe9
 302 00f9 06       		.uleb128 0x6
 303 00fa F4000000 		.4byte	0xf4
 304 00fe 03       		.uleb128 0x3
 305 00ff 230C0000 		.4byte	.LASF20
 306 0103 04       		.byte	0x4
 307 0104 3C       		.byte	0x3c
 308 0105 A7000000 		.4byte	0xa7
 309 0109 03       		.uleb128 0x3
 310 010a BA0B0000 		.4byte	.LASF21
 311 010e 05       		.byte	0x5
 312 010f 2A       		.byte	0x2a
 313 0110 B9000000 		.4byte	0xb9
 314 0114 03       		.uleb128 0x3
 315 0115 9B010000 		.4byte	.LASF22
 316 0119 05       		.byte	0x5
 317 011a 2B       		.byte	0x2b
 318 011b B9000000 		.4byte	0xb9
 319 011f 03       		.uleb128 0x3
 320 0120 3B000000 		.4byte	.LASF23
 321 0124 05       		.byte	0x5
 322 0125 2E       		.byte	0x2e
 323 0126 E9000000 		.4byte	0xe9
 324 012a 03       		.uleb128 0x3
 325 012b 4F0A0000 		.4byte	.LASF24
 326 012f 05       		.byte	0x5
 327 0130 2F       		.byte	0x2f
 328 0131 D9000000 		.4byte	0xd9
 329 0135 03       		.uleb128 0x3
 330 0136 7D0A0000 		.4byte	.LASF25
 331 013a 05       		.byte	0x5
 332 013b 32       		.byte	0x32
 333 013c E9000000 		.4byte	0xe9
 334 0140 04       		.uleb128 0x4
 335 0141 35010000 		.4byte	0x135
 336 0145 03       		.uleb128 0x3
 337 0146 53090000 		.4byte	.LASF26
 338 014a 06       		.byte	0x6
 339 014b 34       		.byte	0x34
 340 014c 50010000 		.4byte	0x150
 341 0150 07       		.uleb128 0x7
 342 0151 89060000 		.4byte	.LASF33
ARM GAS  /tmp/cccR1v5y.s 			page 7


 343 0155 18       		.byte	0x18
 344 0156 07       		.byte	0x7
 345 0157 8E       		.byte	0x8e
 346 0158 A4010000 		.4byte	0x1a4
 347 015c 08       		.uleb128 0x8
 348 015d A50A0000 		.4byte	.LASF27
 349 0161 07       		.byte	0x7
 350 0162 8F       		.byte	0x8f
 351 0163 B5010000 		.4byte	0x1b5
 352 0167 00       		.byte	0
 353 0168 08       		.uleb128 0x8
 354 0169 1D010000 		.4byte	.LASF28
 355 016d 07       		.byte	0x7
 356 016e 90       		.byte	0x90
 357 016f 1F010000 		.4byte	0x11f
 358 0173 08       		.byte	0x8
 359 0174 09       		.uleb128 0x9
 360 0175 63747800 		.ascii	"ctx\000"
 361 0179 07       		.byte	0x7
 362 017a 91       		.byte	0x91
 363 017b 98070000 		.4byte	0x798
 364 017f 0C       		.byte	0xc
 365 0180 08       		.uleb128 0x8
 366 0181 DE000000 		.4byte	.LASF29
 367 0185 07       		.byte	0x7
 368 0186 A9       		.byte	0xa9
 369 0187 14010000 		.4byte	0x114
 370 018b 10       		.byte	0x10
 371 018c 08       		.uleb128 0x8
 372 018d A2040000 		.4byte	.LASF30
 373 0191 07       		.byte	0x7
 374 0192 AD       		.byte	0xad
 375 0193 09010000 		.4byte	0x109
 376 0197 11       		.byte	0x11
 377 0198 0A       		.uleb128 0xa
 378 0199 7500     		.ascii	"u\000"
 379 019b 07       		.byte	0x7
 380 019c 0301     		.2byte	0x103
 381 019e 02090000 		.4byte	0x902
 382 01a2 14       		.byte	0x14
 383 01a3 00       		.byte	0
 384 01a4 03       		.uleb128 0x3
 385 01a5 7A090000 		.4byte	.LASF31
 386 01a9 06       		.byte	0x6
 387 01aa 39       		.byte	0x39
 388 01ab AF010000 		.4byte	0x1af
 389 01af 0B       		.uleb128 0xb
 390 01b0 04       		.byte	0x4
 391 01b1 45010000 		.4byte	0x145
 392 01b5 03       		.uleb128 0x3
 393 01b6 B8010000 		.4byte	.LASF32
 394 01ba 06       		.byte	0x6
 395 01bb 45       		.byte	0x45
 396 01bc C0010000 		.4byte	0x1c0
 397 01c0 07       		.uleb128 0x7
 398 01c1 5A0A0000 		.4byte	.LASF34
 399 01c5 08       		.byte	0x8
ARM GAS  /tmp/cccR1v5y.s 			page 8


 400 01c6 07       		.byte	0x7
 401 01c7 83       		.byte	0x83
 402 01c8 E5010000 		.4byte	0x1e5
 403 01cc 08       		.uleb128 0x8
 404 01cd F80D0000 		.4byte	.LASF35
 405 01d1 07       		.byte	0x7
 406 01d2 84       		.byte	0x84
 407 01d3 AF010000 		.4byte	0x1af
 408 01d7 00       		.byte	0
 409 01d8 08       		.uleb128 0x8
 410 01d9 040E0000 		.4byte	.LASF36
 411 01dd 07       		.byte	0x7
 412 01de 85       		.byte	0x85
 413 01df AF010000 		.4byte	0x1af
 414 01e3 04       		.byte	0x4
 415 01e4 00       		.byte	0
 416 01e5 03       		.uleb128 0x3
 417 01e6 29070000 		.4byte	.LASF37
 418 01ea 06       		.byte	0x6
 419 01eb 4C       		.byte	0x4c
 420 01ec F0010000 		.4byte	0x1f0
 421 01f0 0C       		.uleb128 0xc
 422 01f1 B2050000 		.4byte	.LASF38
 423 01f5 14       		.byte	0x14
 424 01f6 07       		.byte	0x7
 425 01f7 5E01     		.2byte	0x15e
 426 01f9 32020000 		.4byte	0x232
 427 01fd 0D       		.uleb128 0xd
 428 01fe A50A0000 		.4byte	.LASF27
 429 0202 07       		.byte	0x7
 430 0203 5F01     		.2byte	0x15f
 431 0205 B5010000 		.4byte	0x1b5
 432 0209 00       		.byte	0
 433 020a 0D       		.uleb128 0xd
 434 020b 1D010000 		.4byte	.LASF28
 435 020f 07       		.byte	0x7
 436 0210 6001     		.2byte	0x160
 437 0212 1F010000 		.4byte	0x11f
 438 0216 08       		.byte	0x8
 439 0217 0A       		.uleb128 0xa
 440 0218 63747800 		.ascii	"ctx\000"
 441 021c 07       		.byte	0x7
 442 021d 6201     		.2byte	0x162
 443 021f 98070000 		.4byte	0x798
 444 0223 0C       		.byte	0xc
 445 0224 0D       		.uleb128 0xd
 446 0225 FF080000 		.4byte	.LASF39
 447 0229 07       		.byte	0x7
 448 022a 6901     		.2byte	0x169
 449 022c AF010000 		.4byte	0x1af
 450 0230 10       		.byte	0x10
 451 0231 00       		.byte	0
 452 0232 03       		.uleb128 0x3
 453 0233 82000000 		.4byte	.LASF40
 454 0237 06       		.byte	0x6
 455 0238 51       		.byte	0x51
 456 0239 3D020000 		.4byte	0x23d
ARM GAS  /tmp/cccR1v5y.s 			page 9


 457 023d 0B       		.uleb128 0xb
 458 023e 04       		.byte	0x4
 459 023f 43020000 		.4byte	0x243
 460 0243 0E       		.uleb128 0xe
 461 0244 4E020000 		.4byte	0x24e
 462 0248 0F       		.uleb128 0xf
 463 0249 4E020000 		.4byte	0x24e
 464 024d 00       		.byte	0
 465 024e 10       		.uleb128 0x10
 466 024f 04       		.byte	0x4
 467 0250 03       		.uleb128 0x3
 468 0251 19070000 		.4byte	.LASF41
 469 0255 06       		.byte	0x6
 470 0256 56       		.byte	0x56
 471 0257 5B020000 		.4byte	0x25b
 472 025b 0C       		.uleb128 0xc
 473 025c FD090000 		.4byte	.LASF42
 474 0260 14       		.byte	0x14
 475 0261 07       		.byte	0x7
 476 0262 3901     		.2byte	0x139
 477 0264 AA020000 		.4byte	0x2aa
 478 0268 0D       		.uleb128 0xd
 479 0269 F80D0000 		.4byte	.LASF35
 480 026d 07       		.byte	0x7
 481 026e 3A01     		.2byte	0x13a
 482 0270 3D090000 		.4byte	0x93d
 483 0274 00       		.byte	0
 484 0275 0D       		.uleb128 0xd
 485 0276 040E0000 		.4byte	.LASF36
 486 027a 07       		.byte	0x7
 487 027b 3B01     		.2byte	0x13b
 488 027d 3D090000 		.4byte	0x93d
 489 0281 04       		.byte	0x4
 490 0282 0D       		.uleb128 0xd
 491 0283 9F0A0000 		.4byte	.LASF43
 492 0287 07       		.byte	0x7
 493 0288 3C01     		.2byte	0x13c
 494 028a 75030000 		.4byte	0x375
 495 028e 08       		.byte	0x8
 496 028f 0D       		.uleb128 0xd
 497 0290 2C0C0000 		.4byte	.LASF44
 498 0294 07       		.byte	0x7
 499 0295 3D01     		.2byte	0x13d
 500 0297 32020000 		.4byte	0x232
 501 029b 0C       		.byte	0xc
 502 029c 0A       		.uleb128 0xa
 503 029d 70617200 		.ascii	"par\000"
 504 02a1 07       		.byte	0x7
 505 02a2 3F01     		.2byte	0x13f
 506 02a4 4E020000 		.4byte	0x24e
 507 02a8 10       		.byte	0x10
 508 02a9 00       		.byte	0
 509 02aa 03       		.uleb128 0x3
 510 02ab A5060000 		.4byte	.LASF45
 511 02af 06       		.byte	0x6
 512 02b0 5B       		.byte	0x5b
 513 02b1 B5020000 		.4byte	0x2b5
ARM GAS  /tmp/cccR1v5y.s 			page 10


 514 02b5 0C       		.uleb128 0xc
 515 02b6 92000000 		.4byte	.LASF46
 516 02ba 10       		.byte	0x10
 517 02bb 07       		.byte	0x7
 518 02bc 4901     		.2byte	0x149
 519 02be F7020000 		.4byte	0x2f7
 520 02c2 0D       		.uleb128 0xd
 521 02c3 F80D0000 		.4byte	.LASF35
 522 02c7 07       		.byte	0x7
 523 02c8 4A01     		.2byte	0x14a
 524 02ca 3D090000 		.4byte	0x93d
 525 02ce 00       		.byte	0
 526 02cf 0D       		.uleb128 0xd
 527 02d0 040E0000 		.4byte	.LASF36
 528 02d4 07       		.byte	0x7
 529 02d5 4C01     		.2byte	0x14c
 530 02d7 3D090000 		.4byte	0x93d
 531 02db 04       		.byte	0x4
 532 02dc 0D       		.uleb128 0xd
 533 02dd 9F0A0000 		.4byte	.LASF43
 534 02e1 07       		.byte	0x7
 535 02e2 4E01     		.2byte	0x14e
 536 02e4 75030000 		.4byte	0x375
 537 02e8 08       		.byte	0x8
 538 02e9 0D       		.uleb128 0xd
 539 02ea 88020000 		.4byte	.LASF47
 540 02ee 07       		.byte	0x7
 541 02ef 5601     		.2byte	0x156
 542 02f1 6A030000 		.4byte	0x36a
 543 02f5 0C       		.byte	0xc
 544 02f6 00       		.byte	0
 545 02f7 03       		.uleb128 0x3
 546 02f8 BD020000 		.4byte	.LASF48
 547 02fc 06       		.byte	0x6
 548 02fd 60       		.byte	0x60
 549 02fe 02030000 		.4byte	0x302
 550 0302 0C       		.uleb128 0xc
 551 0303 650C0000 		.4byte	.LASF49
 552 0307 04       		.byte	0x4
 553 0308 07       		.byte	0x7
 554 0309 7001     		.2byte	0x170
 555 030b 1D030000 		.4byte	0x31d
 556 030f 0D       		.uleb128 0xd
 557 0310 91020000 		.4byte	.LASF50
 558 0314 07       		.byte	0x7
 559 0315 7801     		.2byte	0x178
 560 0317 49090000 		.4byte	0x949
 561 031b 00       		.byte	0
 562 031c 00       		.byte	0
 563 031d 03       		.uleb128 0x3
 564 031e 920D0000 		.4byte	.LASF51
 565 0322 06       		.byte	0x6
 566 0323 65       		.byte	0x65
 567 0324 28030000 		.4byte	0x328
 568 0328 0C       		.uleb128 0xc
 569 0329 090D0000 		.4byte	.LASF52
 570 032d 40       		.byte	0x40
ARM GAS  /tmp/cccR1v5y.s 			page 11


 571 032e 07       		.byte	0x7
 572 032f 9001     		.2byte	0x190
 573 0331 6A030000 		.4byte	0x36a
 574 0335 0D       		.uleb128 0xd
 575 0336 9D0B0000 		.4byte	.LASF53
 576 033a 07       		.byte	0x7
 577 033b 9401     		.2byte	0x194
 578 033d E5010000 		.4byte	0x1e5
 579 0341 00       		.byte	0
 580 0342 0D       		.uleb128 0xd
 581 0343 BD0C0000 		.4byte	.LASF54
 582 0347 07       		.byte	0x7
 583 0348 9801     		.2byte	0x198
 584 034a AA020000 		.4byte	0x2aa
 585 034e 14       		.byte	0x14
 586 034f 0A       		.uleb128 0xa
 587 0350 64626700 		.ascii	"dbg\000"
 588 0354 07       		.byte	0x7
 589 0355 9C01     		.2byte	0x19c
 590 0357 F7020000 		.4byte	0x2f7
 591 035b 24       		.byte	0x24
 592 035c 0D       		.uleb128 0xd
 593 035d E20A0000 		.4byte	.LASF55
 594 0361 07       		.byte	0x7
 595 0362 A001     		.2byte	0x1a0
 596 0364 45010000 		.4byte	0x145
 597 0368 28       		.byte	0x28
 598 0369 00       		.byte	0
 599 036a 03       		.uleb128 0x3
 600 036b 31000000 		.4byte	.LASF56
 601 036f 08       		.byte	0x8
 602 0370 6D       		.byte	0x6d
 603 0371 E9000000 		.4byte	0xe9
 604 0375 03       		.uleb128 0x3
 605 0376 21080000 		.4byte	.LASF57
 606 037a 08       		.byte	0x8
 607 037b 79       		.byte	0x79
 608 037c E9000000 		.4byte	0xe9
 609 0380 11       		.uleb128 0x11
 610 0381 040E     		.2byte	0xe04
 611 0383 09       		.byte	0x9
 612 0384 9601     		.2byte	0x196
 613 0386 3C040000 		.4byte	0x43c
 614 038a 0D       		.uleb128 0xd
 615 038b EE0D0000 		.4byte	.LASF58
 616 038f 09       		.byte	0x9
 617 0390 9801     		.2byte	0x198
 618 0392 4C040000 		.4byte	0x44c
 619 0396 00       		.byte	0
 620 0397 0D       		.uleb128 0xd
 621 0398 52020000 		.4byte	.LASF59
 622 039c 09       		.byte	0x9
 623 039d 9901     		.2byte	0x199
 624 039f 58040000 		.4byte	0x458
 625 03a3 20       		.byte	0x20
 626 03a4 0D       		.uleb128 0xd
 627 03a5 ED0A0000 		.4byte	.LASF60
ARM GAS  /tmp/cccR1v5y.s 			page 12


 628 03a9 09       		.byte	0x9
 629 03aa 9A01     		.2byte	0x19a
 630 03ac 4C040000 		.4byte	0x44c
 631 03b0 80       		.byte	0x80
 632 03b1 0D       		.uleb128 0xd
 633 03b2 05000000 		.4byte	.LASF61
 634 03b6 09       		.byte	0x9
 635 03b7 9B01     		.2byte	0x19b
 636 03b9 58040000 		.4byte	0x458
 637 03bd A0       		.byte	0xa0
 638 03be 12       		.uleb128 0x12
 639 03bf DF040000 		.4byte	.LASF62
 640 03c3 09       		.byte	0x9
 641 03c4 9C01     		.2byte	0x19c
 642 03c6 4C040000 		.4byte	0x44c
 643 03ca 0001     		.2byte	0x100
 644 03cc 12       		.uleb128 0x12
 645 03cd F6020000 		.4byte	.LASF63
 646 03d1 09       		.byte	0x9
 647 03d2 9D01     		.2byte	0x19d
 648 03d4 58040000 		.4byte	0x458
 649 03d8 2001     		.2byte	0x120
 650 03da 12       		.uleb128 0x12
 651 03db 18010000 		.4byte	.LASF64
 652 03df 09       		.byte	0x9
 653 03e0 9E01     		.2byte	0x19e
 654 03e2 4C040000 		.4byte	0x44c
 655 03e6 8001     		.2byte	0x180
 656 03e8 12       		.uleb128 0x12
 657 03e9 6A020000 		.4byte	.LASF65
 658 03ed 09       		.byte	0x9
 659 03ee 9F01     		.2byte	0x19f
 660 03f0 58040000 		.4byte	0x458
 661 03f4 A001     		.2byte	0x1a0
 662 03f6 12       		.uleb128 0x12
 663 03f7 9B020000 		.4byte	.LASF66
 664 03fb 09       		.byte	0x9
 665 03fc A001     		.2byte	0x1a0
 666 03fe 4C040000 		.4byte	0x44c
 667 0402 0002     		.2byte	0x200
 668 0404 12       		.uleb128 0x12
 669 0405 74020000 		.4byte	.LASF67
 670 0409 09       		.byte	0x9
 671 040a A101     		.2byte	0x1a1
 672 040c 68040000 		.4byte	0x468
 673 0410 2002     		.2byte	0x220
 674 0412 13       		.uleb128 0x13
 675 0413 495000   		.ascii	"IP\000"
 676 0416 09       		.byte	0x9
 677 0417 A201     		.2byte	0x1a2
 678 0419 88040000 		.4byte	0x488
 679 041d 0003     		.2byte	0x300
 680 041f 12       		.uleb128 0x12
 681 0420 7E020000 		.4byte	.LASF68
 682 0424 09       		.byte	0x9
 683 0425 A301     		.2byte	0x1a3
 684 0427 8D040000 		.4byte	0x48d
ARM GAS  /tmp/cccR1v5y.s 			page 13


 685 042b F003     		.2byte	0x3f0
 686 042d 12       		.uleb128 0x12
 687 042e 62050000 		.4byte	.LASF69
 688 0432 09       		.byte	0x9
 689 0433 A401     		.2byte	0x1a4
 690 0435 F4000000 		.4byte	0xf4
 691 0439 000E     		.2byte	0xe00
 692 043b 00       		.byte	0
 693 043c 14       		.uleb128 0x14
 694 043d F4000000 		.4byte	0xf4
 695 0441 4C040000 		.4byte	0x44c
 696 0445 15       		.uleb128 0x15
 697 0446 51040000 		.4byte	0x451
 698 044a 07       		.byte	0x7
 699 044b 00       		.byte	0
 700 044c 04       		.uleb128 0x4
 701 044d 3C040000 		.4byte	0x43c
 702 0451 05       		.uleb128 0x5
 703 0452 04       		.byte	0x4
 704 0453 07       		.byte	0x7
 705 0454 28000000 		.4byte	.LASF70
 706 0458 14       		.uleb128 0x14
 707 0459 E9000000 		.4byte	0xe9
 708 045d 68040000 		.4byte	0x468
 709 0461 15       		.uleb128 0x15
 710 0462 51040000 		.4byte	0x451
 711 0466 17       		.byte	0x17
 712 0467 00       		.byte	0
 713 0468 14       		.uleb128 0x14
 714 0469 E9000000 		.4byte	0xe9
 715 046d 78040000 		.4byte	0x478
 716 0471 15       		.uleb128 0x15
 717 0472 51040000 		.4byte	0x451
 718 0476 37       		.byte	0x37
 719 0477 00       		.byte	0
 720 0478 14       		.uleb128 0x14
 721 0479 C4000000 		.4byte	0xc4
 722 047d 88040000 		.4byte	0x488
 723 0481 15       		.uleb128 0x15
 724 0482 51040000 		.4byte	0x451
 725 0486 EF       		.byte	0xef
 726 0487 00       		.byte	0
 727 0488 04       		.uleb128 0x4
 728 0489 78040000 		.4byte	0x478
 729 048d 14       		.uleb128 0x14
 730 048e E9000000 		.4byte	0xe9
 731 0492 9E040000 		.4byte	0x49e
 732 0496 16       		.uleb128 0x16
 733 0497 51040000 		.4byte	0x451
 734 049b 8302     		.2byte	0x283
 735 049d 00       		.byte	0
 736 049e 17       		.uleb128 0x17
 737 049f 130A0000 		.4byte	.LASF71
 738 04a3 09       		.byte	0x9
 739 04a4 A501     		.2byte	0x1a5
 740 04a6 80030000 		.4byte	0x380
 741 04aa 18       		.uleb128 0x18
ARM GAS  /tmp/cccR1v5y.s 			page 14


 742 04ab 8C       		.byte	0x8c
 743 04ac 09       		.byte	0x9
 744 04ad B801     		.2byte	0x1b8
 745 04af C5050000 		.4byte	0x5c5
 746 04b3 0D       		.uleb128 0xd
 747 04b4 95010000 		.4byte	.LASF72
 748 04b8 09       		.byte	0x9
 749 04b9 BA01     		.2byte	0x1ba
 750 04bb F9000000 		.4byte	0xf9
 751 04bf 00       		.byte	0
 752 04c0 0D       		.uleb128 0xd
 753 04c1 0B020000 		.4byte	.LASF73
 754 04c5 09       		.byte	0x9
 755 04c6 BB01     		.2byte	0x1bb
 756 04c8 F4000000 		.4byte	0xf4
 757 04cc 04       		.byte	0x4
 758 04cd 0D       		.uleb128 0xd
 759 04ce C2000000 		.4byte	.LASF74
 760 04d2 09       		.byte	0x9
 761 04d3 BC01     		.2byte	0x1bc
 762 04d5 F4000000 		.4byte	0xf4
 763 04d9 08       		.byte	0x8
 764 04da 0D       		.uleb128 0xd
 765 04db 41010000 		.4byte	.LASF75
 766 04df 09       		.byte	0x9
 767 04e0 BD01     		.2byte	0x1bd
 768 04e2 F4000000 		.4byte	0xf4
 769 04e6 0C       		.byte	0xc
 770 04e7 0A       		.uleb128 0xa
 771 04e8 53435200 		.ascii	"SCR\000"
 772 04ec 09       		.byte	0x9
 773 04ed BE01     		.2byte	0x1be
 774 04ef F4000000 		.4byte	0xf4
 775 04f3 10       		.byte	0x10
 776 04f4 0A       		.uleb128 0xa
 777 04f5 43435200 		.ascii	"CCR\000"
 778 04f9 09       		.byte	0x9
 779 04fa BF01     		.2byte	0x1bf
 780 04fc F4000000 		.4byte	0xf4
 781 0500 14       		.byte	0x14
 782 0501 0A       		.uleb128 0xa
 783 0502 53485000 		.ascii	"SHP\000"
 784 0506 09       		.byte	0x9
 785 0507 C001     		.2byte	0x1c0
 786 0509 D5050000 		.4byte	0x5d5
 787 050d 18       		.byte	0x18
 788 050e 0D       		.uleb128 0xd
 789 050f 55050000 		.4byte	.LASF76
 790 0513 09       		.byte	0x9
 791 0514 C101     		.2byte	0x1c1
 792 0516 F4000000 		.4byte	0xf4
 793 051a 24       		.byte	0x24
 794 051b 0D       		.uleb128 0xd
 795 051c 980B0000 		.4byte	.LASF77
 796 0520 09       		.byte	0x9
 797 0521 C201     		.2byte	0x1c2
 798 0523 F4000000 		.4byte	0xf4
ARM GAS  /tmp/cccR1v5y.s 			page 15


 799 0527 28       		.byte	0x28
 800 0528 0D       		.uleb128 0xd
 801 0529 7C030000 		.4byte	.LASF78
 802 052d 09       		.byte	0x9
 803 052e C301     		.2byte	0x1c3
 804 0530 F4000000 		.4byte	0xf4
 805 0534 2C       		.byte	0x2c
 806 0535 0D       		.uleb128 0xd
 807 0536 32030000 		.4byte	.LASF79
 808 053a 09       		.byte	0x9
 809 053b C401     		.2byte	0x1c4
 810 053d F4000000 		.4byte	0xf4
 811 0541 30       		.byte	0x30
 812 0542 0D       		.uleb128 0xd
 813 0543 060C0000 		.4byte	.LASF80
 814 0547 09       		.byte	0x9
 815 0548 C501     		.2byte	0x1c5
 816 054a F4000000 		.4byte	0xf4
 817 054e 34       		.byte	0x34
 818 054f 0D       		.uleb128 0xd
 819 0550 0E0A0000 		.4byte	.LASF81
 820 0554 09       		.byte	0x9
 821 0555 C601     		.2byte	0x1c6
 822 0557 F4000000 		.4byte	0xf4
 823 055b 38       		.byte	0x38
 824 055c 0D       		.uleb128 0xd
 825 055d 7B0B0000 		.4byte	.LASF82
 826 0561 09       		.byte	0x9
 827 0562 C701     		.2byte	0x1c7
 828 0564 F4000000 		.4byte	0xf4
 829 0568 3C       		.byte	0x3c
 830 0569 0A       		.uleb128 0xa
 831 056a 50465200 		.ascii	"PFR\000"
 832 056e 09       		.byte	0x9
 833 056f C801     		.2byte	0x1c8
 834 0571 EF050000 		.4byte	0x5ef
 835 0575 40       		.byte	0x40
 836 0576 0A       		.uleb128 0xa
 837 0577 44465200 		.ascii	"DFR\000"
 838 057b 09       		.byte	0x9
 839 057c C901     		.2byte	0x1c9
 840 057e F9000000 		.4byte	0xf9
 841 0582 48       		.byte	0x48
 842 0583 0A       		.uleb128 0xa
 843 0584 41445200 		.ascii	"ADR\000"
 844 0588 09       		.byte	0x9
 845 0589 CA01     		.2byte	0x1ca
 846 058b F9000000 		.4byte	0xf9
 847 058f 4C       		.byte	0x4c
 848 0590 0D       		.uleb128 0xd
 849 0591 010C0000 		.4byte	.LASF83
 850 0595 09       		.byte	0x9
 851 0596 CB01     		.2byte	0x1cb
 852 0598 09060000 		.4byte	0x609
 853 059c 50       		.byte	0x50
 854 059d 0D       		.uleb128 0xd
 855 059e 500C0000 		.4byte	.LASF84
ARM GAS  /tmp/cccR1v5y.s 			page 16


 856 05a2 09       		.byte	0x9
 857 05a3 CC01     		.2byte	0x1cc
 858 05a5 23060000 		.4byte	0x623
 859 05a9 60       		.byte	0x60
 860 05aa 0D       		.uleb128 0xd
 861 05ab 52020000 		.4byte	.LASF59
 862 05af 09       		.byte	0x9
 863 05b0 CD01     		.2byte	0x1cd
 864 05b2 28060000 		.4byte	0x628
 865 05b6 74       		.byte	0x74
 866 05b7 0D       		.uleb128 0xd
 867 05b8 8C0D0000 		.4byte	.LASF85
 868 05bc 09       		.byte	0x9
 869 05bd CE01     		.2byte	0x1ce
 870 05bf F4000000 		.4byte	0xf4
 871 05c3 88       		.byte	0x88
 872 05c4 00       		.byte	0
 873 05c5 14       		.uleb128 0x14
 874 05c6 C4000000 		.4byte	0xc4
 875 05ca D5050000 		.4byte	0x5d5
 876 05ce 15       		.uleb128 0x15
 877 05cf 51040000 		.4byte	0x451
 878 05d3 0B       		.byte	0xb
 879 05d4 00       		.byte	0
 880 05d5 04       		.uleb128 0x4
 881 05d6 C5050000 		.4byte	0x5c5
 882 05da 14       		.uleb128 0x14
 883 05db F9000000 		.4byte	0xf9
 884 05df EA050000 		.4byte	0x5ea
 885 05e3 15       		.uleb128 0x15
 886 05e4 51040000 		.4byte	0x451
 887 05e8 01       		.byte	0x1
 888 05e9 00       		.byte	0
 889 05ea 06       		.uleb128 0x6
 890 05eb DA050000 		.4byte	0x5da
 891 05ef 04       		.uleb128 0x4
 892 05f0 EA050000 		.4byte	0x5ea
 893 05f4 14       		.uleb128 0x14
 894 05f5 F9000000 		.4byte	0xf9
 895 05f9 04060000 		.4byte	0x604
 896 05fd 15       		.uleb128 0x15
 897 05fe 51040000 		.4byte	0x451
 898 0602 03       		.byte	0x3
 899 0603 00       		.byte	0
 900 0604 06       		.uleb128 0x6
 901 0605 F4050000 		.4byte	0x5f4
 902 0609 04       		.uleb128 0x4
 903 060a 04060000 		.4byte	0x604
 904 060e 14       		.uleb128 0x14
 905 060f F9000000 		.4byte	0xf9
 906 0613 1E060000 		.4byte	0x61e
 907 0617 15       		.uleb128 0x15
 908 0618 51040000 		.4byte	0x451
 909 061c 04       		.byte	0x4
 910 061d 00       		.byte	0
 911 061e 06       		.uleb128 0x6
 912 061f 0E060000 		.4byte	0x60e
ARM GAS  /tmp/cccR1v5y.s 			page 17


 913 0623 04       		.uleb128 0x4
 914 0624 1E060000 		.4byte	0x61e
 915 0628 14       		.uleb128 0x14
 916 0629 E9000000 		.4byte	0xe9
 917 062d 38060000 		.4byte	0x638
 918 0631 15       		.uleb128 0x15
 919 0632 51040000 		.4byte	0x451
 920 0636 04       		.byte	0x4
 921 0637 00       		.byte	0
 922 0638 17       		.uleb128 0x17
 923 0639 24030000 		.4byte	.LASF86
 924 063d 09       		.byte	0x9
 925 063e CF01     		.2byte	0x1cf
 926 0640 AA040000 		.4byte	0x4aa
 927 0644 19       		.uleb128 0x19
 928 0645 7F080000 		.4byte	.LASF87
 929 0649 09       		.byte	0x9
 930 064a 0408     		.2byte	0x804
 931 064c E4000000 		.4byte	0xe4
 932 0650 1A       		.uleb128 0x1a
 933 0651 6A060000 		.4byte	.LASF88
 934 0655 0A       		.byte	0xa
 935 0656 4C       		.byte	0x4c
 936 0657 E9000000 		.4byte	0xe9
 937 065b 14       		.uleb128 0x14
 938 065c C9000000 		.4byte	0xc9
 939 0660 6B060000 		.4byte	0x66b
 940 0664 15       		.uleb128 0x15
 941 0665 51040000 		.4byte	0x451
 942 0669 0F       		.byte	0xf
 943 066a 00       		.byte	0
 944 066b 06       		.uleb128 0x6
 945 066c 5B060000 		.4byte	0x65b
 946 0670 1A       		.uleb128 0x1a
 947 0671 EF090000 		.4byte	.LASF89
 948 0675 0A       		.byte	0xa
 949 0676 4E       		.byte	0x4e
 950 0677 6B060000 		.4byte	0x66b
 951 067b 14       		.uleb128 0x14
 952 067c C9000000 		.4byte	0xc9
 953 0680 8B060000 		.4byte	0x68b
 954 0684 15       		.uleb128 0x15
 955 0685 51040000 		.4byte	0x451
 956 0689 07       		.byte	0x7
 957 068a 00       		.byte	0
 958 068b 06       		.uleb128 0x6
 959 068c 7B060000 		.4byte	0x67b
 960 0690 1A       		.uleb128 0x1a
 961 0691 F30B0000 		.4byte	.LASF90
 962 0695 0A       		.byte	0xa
 963 0696 4F       		.byte	0x4f
 964 0697 8B060000 		.4byte	0x68b
 965 069b 18       		.uleb128 0x18
 966 069c 18       		.byte	0x18
 967 069d 0B       		.byte	0xb
 968 069e 6A01     		.2byte	0x16a
 969 06a0 F2060000 		.4byte	0x6f2
ARM GAS  /tmp/cccR1v5y.s 			page 18


 970 06a4 0A       		.uleb128 0xa
 971 06a5 435200   		.ascii	"CR\000"
 972 06a8 0B       		.byte	0xb
 973 06a9 6C01     		.2byte	0x16c
 974 06ab F4000000 		.4byte	0xf4
 975 06af 00       		.byte	0
 976 06b0 0D       		.uleb128 0xd
 977 06b1 DC0D0000 		.4byte	.LASF91
 978 06b5 0B       		.byte	0xb
 979 06b6 6D01     		.2byte	0x16d
 980 06b8 F4000000 		.4byte	0xf4
 981 06bc 04       		.byte	0x4
 982 06bd 0A       		.uleb128 0xa
 983 06be 50415200 		.ascii	"PAR\000"
 984 06c2 0B       		.byte	0xb
 985 06c3 6E01     		.2byte	0x16e
 986 06c5 F4000000 		.4byte	0xf4
 987 06c9 08       		.byte	0x8
 988 06ca 0D       		.uleb128 0xd
 989 06cb EE0B0000 		.4byte	.LASF92
 990 06cf 0B       		.byte	0xb
 991 06d0 6F01     		.2byte	0x16f
 992 06d2 F4000000 		.4byte	0xf4
 993 06d6 0C       		.byte	0xc
 994 06d7 0D       		.uleb128 0xd
 995 06d8 00000000 		.4byte	.LASF93
 996 06dc 0B       		.byte	0xb
 997 06dd 7001     		.2byte	0x170
 998 06df F4000000 		.4byte	0xf4
 999 06e3 10       		.byte	0x10
 1000 06e4 0A       		.uleb128 0xa
 1001 06e5 46435200 		.ascii	"FCR\000"
 1002 06e9 0B       		.byte	0xb
 1003 06ea 7101     		.2byte	0x171
 1004 06ec F4000000 		.4byte	0xf4
 1005 06f0 14       		.byte	0x14
 1006 06f1 00       		.byte	0
 1007 06f2 17       		.uleb128 0x17
 1008 06f3 2A090000 		.4byte	.LASF94
 1009 06f7 0B       		.byte	0xb
 1010 06f8 7201     		.2byte	0x172
 1011 06fa 9B060000 		.4byte	0x69b
 1012 06fe 18       		.uleb128 0x18
 1013 06ff 1C       		.byte	0x1c
 1014 0700 0B       		.byte	0xb
 1015 0701 0703     		.2byte	0x307
 1016 0703 61070000 		.4byte	0x761
 1017 0707 0A       		.uleb128 0xa
 1018 0708 535200   		.ascii	"SR\000"
 1019 070b 0B       		.byte	0xb
 1020 070c 0903     		.2byte	0x309
 1021 070e F4000000 		.4byte	0xf4
 1022 0712 00       		.byte	0
 1023 0713 0A       		.uleb128 0xa
 1024 0714 445200   		.ascii	"DR\000"
 1025 0717 0B       		.byte	0xb
 1026 0718 0A03     		.2byte	0x30a
ARM GAS  /tmp/cccR1v5y.s 			page 19


 1027 071a F4000000 		.4byte	0xf4
 1028 071e 04       		.byte	0x4
 1029 071f 0A       		.uleb128 0xa
 1030 0720 42525200 		.ascii	"BRR\000"
 1031 0724 0B       		.byte	0xb
 1032 0725 0B03     		.2byte	0x30b
 1033 0727 F4000000 		.4byte	0xf4
 1034 072b 08       		.byte	0x8
 1035 072c 0A       		.uleb128 0xa
 1036 072d 43523100 		.ascii	"CR1\000"
 1037 0731 0B       		.byte	0xb
 1038 0732 0C03     		.2byte	0x30c
 1039 0734 F4000000 		.4byte	0xf4
 1040 0738 0C       		.byte	0xc
 1041 0739 0A       		.uleb128 0xa
 1042 073a 43523200 		.ascii	"CR2\000"
 1043 073e 0B       		.byte	0xb
 1044 073f 0D03     		.2byte	0x30d
 1045 0741 F4000000 		.4byte	0xf4
 1046 0745 10       		.byte	0x10
 1047 0746 0A       		.uleb128 0xa
 1048 0747 43523300 		.ascii	"CR3\000"
 1049 074b 0B       		.byte	0xb
 1050 074c 0E03     		.2byte	0x30e
 1051 074e F4000000 		.4byte	0xf4
 1052 0752 14       		.byte	0x14
 1053 0753 0D       		.uleb128 0xd
 1054 0754 40080000 		.4byte	.LASF95
 1055 0758 0B       		.byte	0xb
 1056 0759 0F03     		.2byte	0x30f
 1057 075b F4000000 		.4byte	0xf4
 1058 075f 18       		.byte	0x18
 1059 0760 00       		.byte	0
 1060 0761 17       		.uleb128 0x17
 1061 0762 BE040000 		.4byte	.LASF96
 1062 0766 0B       		.byte	0xb
 1063 0767 1003     		.2byte	0x310
 1064 0769 FE060000 		.4byte	0x6fe
 1065 076d 14       		.uleb128 0x14
 1066 076e F4000000 		.4byte	0xf4
 1067 0772 7D070000 		.4byte	0x77d
 1068 0776 15       		.uleb128 0x15
 1069 0777 51040000 		.4byte	0x451
 1070 077b 0E       		.byte	0xe
 1071 077c 00       		.byte	0
 1072 077d 04       		.uleb128 0x4
 1073 077e 6D070000 		.4byte	0x76d
 1074 0782 03       		.uleb128 0x3
 1075 0783 D5010000 		.4byte	.LASF97
 1076 0787 0C       		.byte	0xc
 1077 0788 65       		.byte	0x65
 1078 0789 4E020000 		.4byte	0x24e
 1079 078d 03       		.uleb128 0x3
 1080 078e B3040000 		.4byte	.LASF98
 1081 0792 0C       		.byte	0xc
 1082 0793 6D       		.byte	0x6d
 1083 0794 FE000000 		.4byte	0xfe
ARM GAS  /tmp/cccR1v5y.s 			page 20


 1084 0798 07       		.uleb128 0x7
 1085 0799 E40C0000 		.4byte	.LASF99
 1086 079d 04       		.byte	0x4
 1087 079e 0C       		.byte	0xc
 1088 079f 89       		.byte	0x89
 1089 07a0 B0070000 		.4byte	0x7b0
 1090 07a4 09       		.uleb128 0x9
 1091 07a5 737000   		.ascii	"sp\000"
 1092 07a8 0C       		.byte	0xc
 1093 07a9 8A       		.byte	0x8a
 1094 07aa FC080000 		.4byte	0x8fc
 1095 07ae 00       		.byte	0
 1096 07af 00       		.byte	0
 1097 07b0 0C       		.uleb128 0xc
 1098 07b1 8D090000 		.4byte	.LASF100
 1099 07b5 64       		.byte	0x64
 1100 07b6 0D       		.byte	0xd
 1101 07b7 5901     		.2byte	0x159
 1102 07b9 FC080000 		.4byte	0x8fc
 1103 07bd 0A       		.uleb128 0xa
 1104 07be 73313600 		.ascii	"s16\000"
 1105 07c2 0D       		.byte	0xd
 1106 07c3 5B01     		.2byte	0x15b
 1107 07c5 82070000 		.4byte	0x782
 1108 07c9 00       		.byte	0
 1109 07ca 0A       		.uleb128 0xa
 1110 07cb 73313700 		.ascii	"s17\000"
 1111 07cf 0D       		.byte	0xd
 1112 07d0 5C01     		.2byte	0x15c
 1113 07d2 82070000 		.4byte	0x782
 1114 07d6 04       		.byte	0x4
 1115 07d7 0A       		.uleb128 0xa
 1116 07d8 73313800 		.ascii	"s18\000"
 1117 07dc 0D       		.byte	0xd
 1118 07dd 5D01     		.2byte	0x15d
 1119 07df 82070000 		.4byte	0x782
 1120 07e3 08       		.byte	0x8
 1121 07e4 0A       		.uleb128 0xa
 1122 07e5 73313900 		.ascii	"s19\000"
 1123 07e9 0D       		.byte	0xd
 1124 07ea 5E01     		.2byte	0x15e
 1125 07ec 82070000 		.4byte	0x782
 1126 07f0 0C       		.byte	0xc
 1127 07f1 0A       		.uleb128 0xa
 1128 07f2 73323000 		.ascii	"s20\000"
 1129 07f6 0D       		.byte	0xd
 1130 07f7 5F01     		.2byte	0x15f
 1131 07f9 82070000 		.4byte	0x782
 1132 07fd 10       		.byte	0x10
 1133 07fe 0A       		.uleb128 0xa
 1134 07ff 73323100 		.ascii	"s21\000"
 1135 0803 0D       		.byte	0xd
 1136 0804 6001     		.2byte	0x160
 1137 0806 82070000 		.4byte	0x782
 1138 080a 14       		.byte	0x14
 1139 080b 0A       		.uleb128 0xa
 1140 080c 73323200 		.ascii	"s22\000"
ARM GAS  /tmp/cccR1v5y.s 			page 21


 1141 0810 0D       		.byte	0xd
 1142 0811 6101     		.2byte	0x161
 1143 0813 82070000 		.4byte	0x782
 1144 0817 18       		.byte	0x18
 1145 0818 0A       		.uleb128 0xa
 1146 0819 73323300 		.ascii	"s23\000"
 1147 081d 0D       		.byte	0xd
 1148 081e 6201     		.2byte	0x162
 1149 0820 82070000 		.4byte	0x782
 1150 0824 1C       		.byte	0x1c
 1151 0825 0A       		.uleb128 0xa
 1152 0826 73323400 		.ascii	"s24\000"
 1153 082a 0D       		.byte	0xd
 1154 082b 6301     		.2byte	0x163
 1155 082d 82070000 		.4byte	0x782
 1156 0831 20       		.byte	0x20
 1157 0832 0A       		.uleb128 0xa
 1158 0833 73323500 		.ascii	"s25\000"
 1159 0837 0D       		.byte	0xd
 1160 0838 6401     		.2byte	0x164
 1161 083a 82070000 		.4byte	0x782
 1162 083e 24       		.byte	0x24
 1163 083f 0A       		.uleb128 0xa
 1164 0840 73323600 		.ascii	"s26\000"
 1165 0844 0D       		.byte	0xd
 1166 0845 6501     		.2byte	0x165
 1167 0847 82070000 		.4byte	0x782
 1168 084b 28       		.byte	0x28
 1169 084c 0A       		.uleb128 0xa
 1170 084d 73323700 		.ascii	"s27\000"
 1171 0851 0D       		.byte	0xd
 1172 0852 6601     		.2byte	0x166
 1173 0854 82070000 		.4byte	0x782
 1174 0858 2C       		.byte	0x2c
 1175 0859 0A       		.uleb128 0xa
 1176 085a 73323800 		.ascii	"s28\000"
 1177 085e 0D       		.byte	0xd
 1178 085f 6701     		.2byte	0x167
 1179 0861 82070000 		.4byte	0x782
 1180 0865 30       		.byte	0x30
 1181 0866 0A       		.uleb128 0xa
 1182 0867 73323900 		.ascii	"s29\000"
 1183 086b 0D       		.byte	0xd
 1184 086c 6801     		.2byte	0x168
 1185 086e 82070000 		.4byte	0x782
 1186 0872 34       		.byte	0x34
 1187 0873 0A       		.uleb128 0xa
 1188 0874 73333000 		.ascii	"s30\000"
 1189 0878 0D       		.byte	0xd
 1190 0879 6901     		.2byte	0x169
 1191 087b 82070000 		.4byte	0x782
 1192 087f 38       		.byte	0x38
 1193 0880 0A       		.uleb128 0xa
 1194 0881 73333100 		.ascii	"s31\000"
 1195 0885 0D       		.byte	0xd
 1196 0886 6A01     		.2byte	0x16a
 1197 0888 82070000 		.4byte	0x782
ARM GAS  /tmp/cccR1v5y.s 			page 22


 1198 088c 3C       		.byte	0x3c
 1199 088d 0A       		.uleb128 0xa
 1200 088e 723400   		.ascii	"r4\000"
 1201 0891 0D       		.byte	0xd
 1202 0892 6C01     		.2byte	0x16c
 1203 0894 82070000 		.4byte	0x782
 1204 0898 40       		.byte	0x40
 1205 0899 0A       		.uleb128 0xa
 1206 089a 723500   		.ascii	"r5\000"
 1207 089d 0D       		.byte	0xd
 1208 089e 6D01     		.2byte	0x16d
 1209 08a0 82070000 		.4byte	0x782
 1210 08a4 44       		.byte	0x44
 1211 08a5 0A       		.uleb128 0xa
 1212 08a6 723600   		.ascii	"r6\000"
 1213 08a9 0D       		.byte	0xd
 1214 08aa 6E01     		.2byte	0x16e
 1215 08ac 82070000 		.4byte	0x782
 1216 08b0 48       		.byte	0x48
 1217 08b1 0A       		.uleb128 0xa
 1218 08b2 723700   		.ascii	"r7\000"
 1219 08b5 0D       		.byte	0xd
 1220 08b6 6F01     		.2byte	0x16f
 1221 08b8 82070000 		.4byte	0x782
 1222 08bc 4C       		.byte	0x4c
 1223 08bd 0A       		.uleb128 0xa
 1224 08be 723800   		.ascii	"r8\000"
 1225 08c1 0D       		.byte	0xd
 1226 08c2 7001     		.2byte	0x170
 1227 08c4 82070000 		.4byte	0x782
 1228 08c8 50       		.byte	0x50
 1229 08c9 0A       		.uleb128 0xa
 1230 08ca 723900   		.ascii	"r9\000"
 1231 08cd 0D       		.byte	0xd
 1232 08ce 7101     		.2byte	0x171
 1233 08d0 82070000 		.4byte	0x782
 1234 08d4 54       		.byte	0x54
 1235 08d5 0A       		.uleb128 0xa
 1236 08d6 72313000 		.ascii	"r10\000"
 1237 08da 0D       		.byte	0xd
 1238 08db 7201     		.2byte	0x172
 1239 08dd 82070000 		.4byte	0x782
 1240 08e1 58       		.byte	0x58
 1241 08e2 0A       		.uleb128 0xa
 1242 08e3 72313100 		.ascii	"r11\000"
 1243 08e7 0D       		.byte	0xd
 1244 08e8 7301     		.2byte	0x173
 1245 08ea 82070000 		.4byte	0x782
 1246 08ee 5C       		.byte	0x5c
 1247 08ef 0A       		.uleb128 0xa
 1248 08f0 6C7200   		.ascii	"lr\000"
 1249 08f3 0D       		.byte	0xd
 1250 08f4 7401     		.2byte	0x174
 1251 08f6 82070000 		.4byte	0x782
 1252 08fa 60       		.byte	0x60
 1253 08fb 00       		.byte	0
 1254 08fc 0B       		.uleb128 0xb
ARM GAS  /tmp/cccR1v5y.s 			page 23


 1255 08fd 04       		.byte	0x4
 1256 08fe B0070000 		.4byte	0x7b0
 1257 0902 1B       		.uleb128 0x1b
 1258 0903 04       		.byte	0x4
 1259 0904 07       		.byte	0x7
 1260 0905 C6       		.byte	0xc6
 1261 0906 37090000 		.4byte	0x937
 1262 090a 1C       		.uleb128 0x1c
 1263 090b 5B0D0000 		.4byte	.LASF101
 1264 090f 07       		.byte	0x7
 1265 0910 CD       		.byte	0xcd
 1266 0911 2A010000 		.4byte	0x12a
 1267 0915 1C       		.uleb128 0x1c
 1268 0916 22010000 		.4byte	.LASF102
 1269 091a 07       		.byte	0x7
 1270 091b D4       		.byte	0xd4
 1271 091c 2A010000 		.4byte	0x12a
 1272 0920 1C       		.uleb128 0x1c
 1273 0921 75030000 		.4byte	.LASF103
 1274 0925 07       		.byte	0x7
 1275 0926 DB       		.byte	0xdb
 1276 0927 4E020000 		.4byte	0x24e
 1277 092b 1C       		.uleb128 0x1c
 1278 092c 4C020000 		.4byte	.LASF104
 1279 0930 07       		.byte	0x7
 1280 0931 E2       		.byte	0xe2
 1281 0932 37090000 		.4byte	0x937
 1282 0936 00       		.byte	0
 1283 0937 0B       		.uleb128 0xb
 1284 0938 04       		.byte	0x4
 1285 0939 A4010000 		.4byte	0x1a4
 1286 093d 0B       		.uleb128 0xb
 1287 093e 04       		.byte	0x4
 1288 093f 50020000 		.4byte	0x250
 1289 0943 0B       		.uleb128 0xb
 1290 0944 04       		.byte	0x4
 1291 0945 55090000 		.4byte	0x955
 1292 0949 04       		.uleb128 0x4
 1293 094a 43090000 		.4byte	0x943
 1294 094e 05       		.uleb128 0x5
 1295 094f 01       		.byte	0x1
 1296 0950 08       		.byte	0x8
 1297 0951 1F030000 		.4byte	.LASF105
 1298 0955 06       		.uleb128 0x6
 1299 0956 4E090000 		.4byte	0x94e
 1300 095a 1D       		.uleb128 0x1d
 1301 095b 636800   		.ascii	"ch\000"
 1302 095e 07       		.byte	0x7
 1303 095f C701     		.2byte	0x1c7
 1304 0961 1D030000 		.4byte	0x31d
 1305 0965 14       		.uleb128 0x14
 1306 0966 8D070000 		.4byte	0x78d
 1307 096a 70090000 		.4byte	0x970
 1308 096e 1E       		.uleb128 0x1e
 1309 096f 00       		.byte	0
 1310 0970 19       		.uleb128 0x19
 1311 0971 D8060000 		.4byte	.LASF106
ARM GAS  /tmp/cccR1v5y.s 			page 24


 1312 0975 0E       		.byte	0xe
 1313 0976 1701     		.2byte	0x117
 1314 0978 65090000 		.4byte	0x965
 1315 097c 03       		.uleb128 0x3
 1316 097d 45080000 		.4byte	.LASF107
 1317 0981 0F       		.byte	0xf
 1318 0982 BC       		.byte	0xbc
 1319 0983 87090000 		.4byte	0x987
 1320 0987 07       		.uleb128 0x7
 1321 0988 160C0000 		.4byte	.LASF108
 1322 098c 0C       		.byte	0xc
 1323 098d 0F       		.byte	0xf
 1324 098e CD       		.byte	0xcd
 1325 098f B7090000 		.4byte	0x9b7
 1326 0993 08       		.uleb128 0x8
 1327 0994 A2040000 		.4byte	.LASF30
 1328 0998 0F       		.byte	0xf
 1329 0999 CE       		.byte	0xce
 1330 099a 40010000 		.4byte	0x140
 1331 099e 00       		.byte	0
 1332 099f 09       		.uleb128 0x9
 1333 09a0 636200   		.ascii	"cb\000"
 1334 09a3 0F       		.byte	0xf
 1335 09a4 CF       		.byte	0xcf
 1336 09a5 B7090000 		.4byte	0x9b7
 1337 09a9 04       		.byte	0x4
 1338 09aa 08       		.uleb128 0x8
 1339 09ab 5C060000 		.4byte	.LASF109
 1340 09af 0F       		.byte	0xf
 1341 09b0 D0       		.byte	0xd0
 1342 09b1 4E020000 		.4byte	0x24e
 1343 09b5 08       		.byte	0x8
 1344 09b6 00       		.byte	0
 1345 09b7 03       		.uleb128 0x3
 1346 09b8 50010000 		.4byte	.LASF110
 1347 09bc 0F       		.byte	0xf
 1348 09bd C3       		.byte	0xc3
 1349 09be C2090000 		.4byte	0x9c2
 1350 09c2 0B       		.uleb128 0xb
 1351 09c3 04       		.byte	0x4
 1352 09c4 C8090000 		.4byte	0x9c8
 1353 09c8 0E       		.uleb128 0xe
 1354 09c9 D3090000 		.4byte	0x9d3
 1355 09cd 0F       		.uleb128 0xf
 1356 09ce D3090000 		.4byte	0x9d3
 1357 09d2 00       		.byte	0
 1358 09d3 0B       		.uleb128 0xb
 1359 09d4 04       		.byte	0x4
 1360 09d5 7C090000 		.4byte	0x97c
 1361 09d9 18       		.uleb128 0x18
 1362 09da 0C       		.byte	0xc
 1363 09db 10       		.byte	0x10
 1364 09dc A201     		.2byte	0x1a2
 1365 09de 310A0000 		.4byte	0xa31
 1366 09e2 0D       		.uleb128 0xd
 1367 09e3 E4040000 		.4byte	.LASF111
 1368 09e7 10       		.byte	0x10
ARM GAS  /tmp/cccR1v5y.s 			page 25


 1369 09e8 A301     		.2byte	0x1a3
 1370 09ea 310A0000 		.4byte	0xa31
 1371 09ee 00       		.byte	0
 1372 09ef 0D       		.uleb128 0xd
 1373 09f0 E10D0000 		.4byte	.LASF112
 1374 09f4 10       		.byte	0x10
 1375 09f5 A401     		.2byte	0x1a4
 1376 09f7 370A0000 		.4byte	0xa37
 1377 09fb 04       		.byte	0x4
 1378 09fc 0D       		.uleb128 0xd
 1379 09fd C20B0000 		.4byte	.LASF113
 1380 0a01 10       		.byte	0x10
 1381 0a02 A801     		.2byte	0x1a8
 1382 0a04 B9000000 		.4byte	0xb9
 1383 0a08 08       		.byte	0x8
 1384 0a09 0D       		.uleb128 0xd
 1385 0a0a 7A060000 		.4byte	.LASF114
 1386 0a0e 10       		.byte	0x10
 1387 0a0f AA01     		.2byte	0x1aa
 1388 0a11 B9000000 		.4byte	0xb9
 1389 0a15 09       		.byte	0x9
 1390 0a16 0D       		.uleb128 0xd
 1391 0a17 B3080000 		.4byte	.LASF115
 1392 0a1b 10       		.byte	0x10
 1393 0a1c AC01     		.2byte	0x1ac
 1394 0a1e B9000000 		.4byte	0xb9
 1395 0a22 0A       		.byte	0xa
 1396 0a23 0D       		.uleb128 0xd
 1397 0a24 AB0A0000 		.4byte	.LASF116
 1398 0a28 10       		.byte	0x10
 1399 0a29 AD01     		.2byte	0x1ad
 1400 0a2b B9000000 		.4byte	0xb9
 1401 0a2f 0B       		.byte	0xb
 1402 0a30 00       		.byte	0
 1403 0a31 0B       		.uleb128 0xb
 1404 0a32 04       		.byte	0x4
 1405 0a33 F2060000 		.4byte	0x6f2
 1406 0a37 0B       		.uleb128 0xb
 1407 0a38 04       		.byte	0x4
 1408 0a39 F4000000 		.4byte	0xf4
 1409 0a3d 17       		.uleb128 0x17
 1410 0a3e 0E000000 		.4byte	.LASF117
 1411 0a42 10       		.byte	0x10
 1412 0a43 AE01     		.2byte	0x1ae
 1413 0a45 D9090000 		.4byte	0x9d9
 1414 0a49 06       		.uleb128 0x6
 1415 0a4a 3D0A0000 		.4byte	0xa3d
 1416 0a4e 14       		.uleb128 0x14
 1417 0a4f 490A0000 		.4byte	0xa49
 1418 0a53 5E0A0000 		.4byte	0xa5e
 1419 0a57 15       		.uleb128 0x15
 1420 0a58 51040000 		.4byte	0x451
 1421 0a5c 0F       		.byte	0xf
 1422 0a5d 00       		.byte	0
 1423 0a5e 06       		.uleb128 0x6
 1424 0a5f 4E0A0000 		.4byte	0xa4e
 1425 0a63 19       		.uleb128 0x19
ARM GAS  /tmp/cccR1v5y.s 			page 26


 1426 0a64 F8060000 		.4byte	.LASF118
 1427 0a68 10       		.byte	0x10
 1428 0a69 9002     		.2byte	0x290
 1429 0a6b 5E0A0000 		.4byte	0xa5e
 1430 0a6f 1F       		.uleb128 0x1f
 1431 0a70 2C000000 		.4byte	0x2c
 1432 0a74 880A0000 		.4byte	0xa88
 1433 0a78 0F       		.uleb128 0xf
 1434 0a79 4E020000 		.4byte	0x24e
 1435 0a7d 0F       		.uleb128 0xf
 1436 0a7e 880A0000 		.4byte	0xa88
 1437 0a82 0F       		.uleb128 0xf
 1438 0a83 2C000000 		.4byte	0x2c
 1439 0a87 00       		.byte	0
 1440 0a88 0B       		.uleb128 0xb
 1441 0a89 04       		.byte	0x4
 1442 0a8a C9000000 		.4byte	0xc9
 1443 0a8e 0B       		.uleb128 0xb
 1444 0a8f 04       		.byte	0x4
 1445 0a90 6F0A0000 		.4byte	0xa6f
 1446 0a94 1F       		.uleb128 0x1f
 1447 0a95 2C000000 		.4byte	0x2c
 1448 0a99 AD0A0000 		.4byte	0xaad
 1449 0a9d 0F       		.uleb128 0xf
 1450 0a9e 4E020000 		.4byte	0x24e
 1451 0aa2 0F       		.uleb128 0xf
 1452 0aa3 AD0A0000 		.4byte	0xaad
 1453 0aa7 0F       		.uleb128 0xf
 1454 0aa8 2C000000 		.4byte	0x2c
 1455 0aac 00       		.byte	0
 1456 0aad 0B       		.uleb128 0xb
 1457 0aae 04       		.byte	0x4
 1458 0aaf B9000000 		.4byte	0xb9
 1459 0ab3 0B       		.uleb128 0xb
 1460 0ab4 04       		.byte	0x4
 1461 0ab5 940A0000 		.4byte	0xa94
 1462 0ab9 1F       		.uleb128 0x1f
 1463 0aba 2A010000 		.4byte	0x12a
 1464 0abe CD0A0000 		.4byte	0xacd
 1465 0ac2 0F       		.uleb128 0xf
 1466 0ac3 4E020000 		.4byte	0x24e
 1467 0ac7 0F       		.uleb128 0xf
 1468 0ac8 B9000000 		.4byte	0xb9
 1469 0acc 00       		.byte	0
 1470 0acd 0B       		.uleb128 0xb
 1471 0ace 04       		.byte	0x4
 1472 0acf B90A0000 		.4byte	0xab9
 1473 0ad3 1F       		.uleb128 0x1f
 1474 0ad4 2A010000 		.4byte	0x12a
 1475 0ad8 E20A0000 		.4byte	0xae2
 1476 0adc 0F       		.uleb128 0xf
 1477 0add 4E020000 		.4byte	0x24e
 1478 0ae1 00       		.byte	0
 1479 0ae2 0B       		.uleb128 0xb
 1480 0ae3 04       		.byte	0x4
 1481 0ae4 D30A0000 		.4byte	0xad3
 1482 0ae8 1F       		.uleb128 0x1f
ARM GAS  /tmp/cccR1v5y.s 			page 27


 1483 0ae9 2A010000 		.4byte	0x12a
 1484 0aed 010B0000 		.4byte	0xb01
 1485 0af1 0F       		.uleb128 0xf
 1486 0af2 4E020000 		.4byte	0x24e
 1487 0af6 0F       		.uleb128 0xf
 1488 0af7 B9000000 		.4byte	0xb9
 1489 0afb 0F       		.uleb128 0xf
 1490 0afc 75030000 		.4byte	0x375
 1491 0b00 00       		.byte	0
 1492 0b01 0B       		.uleb128 0xb
 1493 0b02 04       		.byte	0x4
 1494 0b03 E80A0000 		.4byte	0xae8
 1495 0b07 1F       		.uleb128 0x1f
 1496 0b08 2A010000 		.4byte	0x12a
 1497 0b0c 1B0B0000 		.4byte	0xb1b
 1498 0b10 0F       		.uleb128 0xf
 1499 0b11 4E020000 		.4byte	0x24e
 1500 0b15 0F       		.uleb128 0xf
 1501 0b16 75030000 		.4byte	0x375
 1502 0b1a 00       		.byte	0
 1503 0b1b 0B       		.uleb128 0xb
 1504 0b1c 04       		.byte	0x4
 1505 0b1d 070B0000 		.4byte	0xb07
 1506 0b21 1F       		.uleb128 0x1f
 1507 0b22 2C000000 		.4byte	0x2c
 1508 0b26 3F0B0000 		.4byte	0xb3f
 1509 0b2a 0F       		.uleb128 0xf
 1510 0b2b 4E020000 		.4byte	0x24e
 1511 0b2f 0F       		.uleb128 0xf
 1512 0b30 880A0000 		.4byte	0xa88
 1513 0b34 0F       		.uleb128 0xf
 1514 0b35 2C000000 		.4byte	0x2c
 1515 0b39 0F       		.uleb128 0xf
 1516 0b3a 75030000 		.4byte	0x375
 1517 0b3e 00       		.byte	0
 1518 0b3f 0B       		.uleb128 0xb
 1519 0b40 04       		.byte	0x4
 1520 0b41 210B0000 		.4byte	0xb21
 1521 0b45 1F       		.uleb128 0x1f
 1522 0b46 2C000000 		.4byte	0x2c
 1523 0b4a 630B0000 		.4byte	0xb63
 1524 0b4e 0F       		.uleb128 0xf
 1525 0b4f 4E020000 		.4byte	0x24e
 1526 0b53 0F       		.uleb128 0xf
 1527 0b54 AD0A0000 		.4byte	0xaad
 1528 0b58 0F       		.uleb128 0xf
 1529 0b59 2C000000 		.4byte	0x2c
 1530 0b5d 0F       		.uleb128 0xf
 1531 0b5e 75030000 		.4byte	0x375
 1532 0b62 00       		.byte	0
 1533 0b63 0B       		.uleb128 0xb
 1534 0b64 04       		.byte	0x4
 1535 0b65 450B0000 		.4byte	0xb45
 1536 0b69 1F       		.uleb128 0x1f
 1537 0b6a 2A010000 		.4byte	0x12a
 1538 0b6e 820B0000 		.4byte	0xb82
 1539 0b72 0F       		.uleb128 0xf
ARM GAS  /tmp/cccR1v5y.s 			page 28


 1540 0b73 4E020000 		.4byte	0x24e
 1541 0b77 0F       		.uleb128 0xf
 1542 0b78 3C000000 		.4byte	0x3c
 1543 0b7c 0F       		.uleb128 0xf
 1544 0b7d 4E020000 		.4byte	0x24e
 1545 0b81 00       		.byte	0
 1546 0b82 0B       		.uleb128 0xb
 1547 0b83 04       		.byte	0x4
 1548 0b84 690B0000 		.4byte	0xb69
 1549 0b88 05       		.uleb128 0x5
 1550 0b89 01       		.byte	0x1
 1551 0b8a 02       		.byte	0x2
 1552 0b8b F0020000 		.4byte	.LASF119
 1553 0b8f 03       		.uleb128 0x3
 1554 0b90 7D0C0000 		.4byte	.LASF120
 1555 0b94 11       		.byte	0x11
 1556 0b95 3A       		.byte	0x3a
 1557 0b96 9A0B0000 		.4byte	0xb9a
 1558 0b9a 07       		.uleb128 0x7
 1559 0b9b EC010000 		.4byte	.LASF121
 1560 0b9f 24       		.byte	0x24
 1561 0ba0 11       		.byte	0x11
 1562 0ba1 4B       		.byte	0x4b
 1563 0ba2 070C0000 		.4byte	0xc07
 1564 0ba6 08       		.uleb128 0x8
 1565 0ba7 8E0B0000 		.4byte	.LASF122
 1566 0bab 11       		.byte	0x11
 1567 0bac 4C       		.byte	0x4c
 1568 0bad B5010000 		.4byte	0x1b5
 1569 0bb1 00       		.byte	0
 1570 0bb2 08       		.uleb128 0x8
 1571 0bb3 07060000 		.4byte	.LASF123
 1572 0bb7 11       		.byte	0x11
 1573 0bb8 4D       		.byte	0x4d
 1574 0bb9 37000000 		.4byte	0x37
 1575 0bbd 08       		.byte	0x8
 1576 0bbe 08       		.uleb128 0x8
 1577 0bbf 47010000 		.4byte	.LASF124
 1578 0bc3 11       		.byte	0x11
 1579 0bc4 4E       		.byte	0x4e
 1580 0bc5 AD0A0000 		.4byte	0xaad
 1581 0bc9 0C       		.byte	0xc
 1582 0bca 08       		.uleb128 0x8
 1583 0bcb 35010000 		.4byte	.LASF125
 1584 0bcf 11       		.byte	0x11
 1585 0bd0 4F       		.byte	0x4f
 1586 0bd1 AD0A0000 		.4byte	0xaad
 1587 0bd5 10       		.byte	0x10
 1588 0bd6 08       		.uleb128 0x8
 1589 0bd7 36070000 		.4byte	.LASF126
 1590 0bdb 11       		.byte	0x11
 1591 0bdc 51       		.byte	0x51
 1592 0bdd AD0A0000 		.4byte	0xaad
 1593 0be1 14       		.byte	0x14
 1594 0be2 08       		.uleb128 0x8
 1595 0be3 8D010000 		.4byte	.LASF127
 1596 0be7 11       		.byte	0x11
ARM GAS  /tmp/cccR1v5y.s 			page 29


 1597 0be8 52       		.byte	0x52
 1598 0be9 AD0A0000 		.4byte	0xaad
 1599 0bed 18       		.byte	0x18
 1600 0bee 08       		.uleb128 0x8
 1601 0bef 7B010000 		.4byte	.LASF128
 1602 0bf3 11       		.byte	0x11
 1603 0bf4 53       		.byte	0x53
 1604 0bf5 070C0000 		.4byte	0xc07
 1605 0bf9 1C       		.byte	0x1c
 1606 0bfa 08       		.uleb128 0x8
 1607 0bfb 10020000 		.4byte	.LASF129
 1608 0bff 11       		.byte	0x11
 1609 0c00 54       		.byte	0x54
 1610 0c01 4E020000 		.4byte	0x24e
 1611 0c05 20       		.byte	0x20
 1612 0c06 00       		.byte	0
 1613 0c07 03       		.uleb128 0x3
 1614 0c08 95080000 		.4byte	.LASF130
 1615 0c0c 11       		.byte	0x11
 1616 0c0d 41       		.byte	0x41
 1617 0c0e 120C0000 		.4byte	0xc12
 1618 0c12 0B       		.uleb128 0xb
 1619 0c13 04       		.byte	0x4
 1620 0c14 180C0000 		.4byte	0xc18
 1621 0c18 0E       		.uleb128 0xe
 1622 0c19 230C0000 		.4byte	0xc23
 1623 0c1d 0F       		.uleb128 0xf
 1624 0c1e 230C0000 		.4byte	0xc23
 1625 0c22 00       		.byte	0
 1626 0c23 0B       		.uleb128 0xb
 1627 0c24 04       		.byte	0x4
 1628 0c25 8F0B0000 		.4byte	0xb8f
 1629 0c29 03       		.uleb128 0x3
 1630 0c2a 4D0D0000 		.4byte	.LASF131
 1631 0c2e 11       		.byte	0x11
 1632 0c2f 61       		.byte	0x61
 1633 0c30 8F0B0000 		.4byte	0xb8f
 1634 0c34 03       		.uleb128 0x3
 1635 0c35 B00D0000 		.4byte	.LASF132
 1636 0c39 11       		.byte	0x11
 1637 0c3a 6D       		.byte	0x6d
 1638 0c3b 8F0B0000 		.4byte	0xb8f
 1639 0c3f 03       		.uleb128 0x3
 1640 0c40 1A060000 		.4byte	.LASF133
 1641 0c44 12       		.byte	0x12
 1642 0c45 94       		.byte	0x94
 1643 0c46 3D020000 		.4byte	0x23d
 1644 0c4a 20       		.uleb128 0x20
 1645 0c4b 08       		.byte	0x8
 1646 0c4c 12       		.byte	0x12
 1647 0c4d 9A       		.byte	0x9a
 1648 0c4e 6A0C0000 		.4byte	0xc6a
 1649 0c52 09       		.uleb128 0x9
 1650 0c53 636200   		.ascii	"cb\000"
 1651 0c56 12       		.byte	0x12
 1652 0c57 A5       		.byte	0xa5
 1653 0c58 3F0C0000 		.4byte	0xc3f
ARM GAS  /tmp/cccR1v5y.s 			page 30


 1654 0c5c 00       		.byte	0
 1655 0c5d 09       		.uleb128 0x9
 1656 0c5e 61726700 		.ascii	"arg\000"
 1657 0c62 12       		.byte	0x12
 1658 0c63 A9       		.byte	0xa9
 1659 0c64 4E020000 		.4byte	0x24e
 1660 0c68 04       		.byte	0x4
 1661 0c69 00       		.byte	0
 1662 0c6a 03       		.uleb128 0x3
 1663 0c6b 81030000 		.4byte	.LASF134
 1664 0c6f 12       		.byte	0x12
 1665 0c70 AB       		.byte	0xab
 1666 0c71 4A0C0000 		.4byte	0xc4a
 1667 0c75 14       		.uleb128 0x14
 1668 0c76 6A0C0000 		.4byte	0xc6a
 1669 0c7a 850C0000 		.4byte	0xc85
 1670 0c7e 15       		.uleb128 0x15
 1671 0c7f 51040000 		.4byte	0x451
 1672 0c83 0F       		.byte	0xf
 1673 0c84 00       		.byte	0
 1674 0c85 19       		.uleb128 0x19
 1675 0c86 47090000 		.4byte	.LASF135
 1676 0c8a 13       		.byte	0x13
 1677 0c8b EB01     		.2byte	0x1eb
 1678 0c8d 750C0000 		.4byte	0xc75
 1679 0c91 21       		.uleb128 0x21
 1680 0c92 01       		.byte	0x1
 1681 0c93 63000000 		.4byte	0x63
 1682 0c97 14       		.byte	0x14
 1683 0c98 58       		.byte	0x58
 1684 0c99 B00C0000 		.4byte	0xcb0
 1685 0c9d 22       		.uleb128 0x22
 1686 0c9e CC020000 		.4byte	.LASF136
 1687 0ca2 00       		.byte	0
 1688 0ca3 22       		.uleb128 0x22
 1689 0ca4 D40D0000 		.4byte	.LASF137
 1690 0ca8 01       		.byte	0x1
 1691 0ca9 22       		.uleb128 0x22
 1692 0caa E50B0000 		.4byte	.LASF138
 1693 0cae 02       		.byte	0x2
 1694 0caf 00       		.byte	0
 1695 0cb0 03       		.uleb128 0x3
 1696 0cb1 C80B0000 		.4byte	.LASF139
 1697 0cb5 14       		.byte	0x14
 1698 0cb6 5C       		.byte	0x5c
 1699 0cb7 910C0000 		.4byte	0xc91
 1700 0cbb 03       		.uleb128 0x3
 1701 0cbc 540B0000 		.4byte	.LASF140
 1702 0cc0 14       		.byte	0x14
 1703 0cc1 61       		.byte	0x61
 1704 0cc2 C60C0000 		.4byte	0xcc6
 1705 0cc6 23       		.uleb128 0x23
 1706 0cc7 540B0000 		.4byte	.LASF140
 1707 0ccb 6804     		.2byte	0x468
 1708 0ccd 14       		.byte	0x14
 1709 0cce 7B       		.byte	0x7b
 1710 0ccf 4E0D0000 		.4byte	0xd4e
ARM GAS  /tmp/cccR1v5y.s 			page 31


 1711 0cd3 09       		.uleb128 0x9
 1712 0cd4 766D7400 		.ascii	"vmt\000"
 1713 0cd8 14       		.byte	0x14
 1714 0cd9 7D       		.byte	0x7d
 1715 0cda 650E0000 		.4byte	0xe65
 1716 0cde 00       		.byte	0
 1717 0cdf 08       		.uleb128 0x8
 1718 0ce0 9F080000 		.4byte	.LASF141
 1719 0ce4 14       		.byte	0x14
 1720 0ce5 7E       		.byte	0x7e
 1721 0ce6 7C090000 		.4byte	0x97c
 1722 0cea 04       		.byte	0x4
 1723 0ceb 08       		.uleb128 0x8
 1724 0cec DE000000 		.4byte	.LASF29
 1725 0cf0 14       		.byte	0x14
 1726 0cf1 7E       		.byte	0x7e
 1727 0cf2 B00C0000 		.4byte	0xcb0
 1728 0cf6 10       		.byte	0x10
 1729 0cf7 08       		.uleb128 0x8
 1730 0cf8 490C0000 		.4byte	.LASF142
 1731 0cfc 14       		.byte	0x14
 1732 0cfd 7E       		.byte	0x7e
 1733 0cfe 290C0000 		.4byte	0xc29
 1734 0d02 14       		.byte	0x14
 1735 0d03 08       		.uleb128 0x8
 1736 0d04 C8010000 		.4byte	.LASF143
 1737 0d08 14       		.byte	0x14
 1738 0d09 7E       		.byte	0x7e
 1739 0d0a 340C0000 		.4byte	0xc34
 1740 0d0e 38       		.byte	0x38
 1741 0d0f 09       		.uleb128 0x9
 1742 0d10 696200   		.ascii	"ib\000"
 1743 0d13 14       		.byte	0x14
 1744 0d14 7E       		.byte	0x7e
 1745 0d15 6B0E0000 		.4byte	0xe6b
 1746 0d19 5C       		.byte	0x5c
 1747 0d1a 24       		.uleb128 0x24
 1748 0d1b 6F6200   		.ascii	"ob\000"
 1749 0d1e 14       		.byte	0x14
 1750 0d1f 7E       		.byte	0x7e
 1751 0d20 6B0E0000 		.4byte	0xe6b
 1752 0d24 5C02     		.2byte	0x25c
 1753 0d26 25       		.uleb128 0x25
 1754 0d27 7F070000 		.4byte	.LASF144
 1755 0d2b 14       		.byte	0x14
 1756 0d2c 7E       		.byte	0x7e
 1757 0d2d 7C0E0000 		.4byte	0xe7c
 1758 0d31 5C04     		.2byte	0x45c
 1759 0d33 25       		.uleb128 0x25
 1760 0d34 5B050000 		.4byte	.LASF145
 1761 0d38 14       		.byte	0x14
 1762 0d39 7E       		.byte	0x7e
 1763 0d3a B9000000 		.4byte	0xb9
 1764 0d3e 6004     		.2byte	0x460
 1765 0d40 25       		.uleb128 0x25
 1766 0d41 D7000000 		.4byte	.LASF146
 1767 0d45 14       		.byte	0x14
ARM GAS  /tmp/cccR1v5y.s 			page 32


 1768 0d46 7E       		.byte	0x7e
 1769 0d47 820E0000 		.4byte	0xe82
 1770 0d4b 6404     		.2byte	0x464
 1771 0d4d 00       		.byte	0
 1772 0d4e 17       		.uleb128 0x17
 1773 0d4f 9B060000 		.4byte	.LASF147
 1774 0d53 15       		.byte	0x15
 1775 0d54 0201     		.2byte	0x102
 1776 0d56 3D020000 		.4byte	0x23d
 1777 0d5a 18       		.uleb128 0x18
 1778 0d5b 14       		.byte	0x14
 1779 0d5c 15       		.byte	0x15
 1780 0d5d 1001     		.2byte	0x110
 1781 0d5f B20D0000 		.4byte	0xdb2
 1782 0d63 0D       		.uleb128 0xd
 1783 0d64 99050000 		.4byte	.LASF148
 1784 0d68 15       		.byte	0x15
 1785 0d69 1401     		.2byte	0x114
 1786 0d6b E9000000 		.4byte	0xe9
 1787 0d6f 00       		.byte	0
 1788 0d70 0A       		.uleb128 0xa
 1789 0d71 63723100 		.ascii	"cr1\000"
 1790 0d75 15       		.byte	0x15
 1791 0d76 1901     		.2byte	0x119
 1792 0d78 CE000000 		.4byte	0xce
 1793 0d7c 04       		.byte	0x4
 1794 0d7d 0A       		.uleb128 0xa
 1795 0d7e 63723200 		.ascii	"cr2\000"
 1796 0d82 15       		.byte	0x15
 1797 0d83 1D01     		.2byte	0x11d
 1798 0d85 CE000000 		.4byte	0xce
 1799 0d89 06       		.byte	0x6
 1800 0d8a 0A       		.uleb128 0xa
 1801 0d8b 63723300 		.ascii	"cr3\000"
 1802 0d8f 15       		.byte	0x15
 1803 0d90 2101     		.2byte	0x121
 1804 0d92 CE000000 		.4byte	0xce
 1805 0d96 08       		.byte	0x8
 1806 0d97 0D       		.uleb128 0xd
 1807 0d98 880C0000 		.4byte	.LASF149
 1808 0d9c 15       		.byte	0x15
 1809 0d9d 2501     		.2byte	0x125
 1810 0d9f 4E0D0000 		.4byte	0xd4e
 1811 0da3 0C       		.byte	0xc
 1812 0da4 0A       		.uleb128 0xa
 1813 0da5 63747800 		.ascii	"ctx\000"
 1814 0da9 15       		.byte	0x15
 1815 0daa 2901     		.2byte	0x129
 1816 0dac 4E020000 		.4byte	0x24e
 1817 0db0 10       		.byte	0x10
 1818 0db1 00       		.byte	0
 1819 0db2 17       		.uleb128 0x17
 1820 0db3 60000000 		.4byte	.LASF150
 1821 0db7 15       		.byte	0x15
 1822 0db8 2A01     		.2byte	0x12a
 1823 0dba 5A0D0000 		.4byte	0xd5a
 1824 0dbe 06       		.uleb128 0x6
ARM GAS  /tmp/cccR1v5y.s 			page 33


 1825 0dbf B20D0000 		.4byte	0xdb2
 1826 0dc3 1D       		.uleb128 0x1d
 1827 0dc4 53443200 		.ascii	"SD2\000"
 1828 0dc8 15       		.byte	0x15
 1829 0dc9 5601     		.2byte	0x156
 1830 0dcb BB0C0000 		.4byte	0xcbb
 1831 0dcf 1D       		.uleb128 0x1d
 1832 0dd0 53443300 		.ascii	"SD3\000"
 1833 0dd4 15       		.byte	0x15
 1834 0dd5 5901     		.2byte	0x159
 1835 0dd7 BB0C0000 		.4byte	0xcbb
 1836 0ddb 07       		.uleb128 0x7
 1837 0ddc 55070000 		.4byte	.LASF151
 1838 0de0 28       		.byte	0x28
 1839 0de1 14       		.byte	0x14
 1840 0de2 70       		.byte	0x70
 1841 0de3 600E0000 		.4byte	0xe60
 1842 0de7 08       		.uleb128 0x8
 1843 0de8 3D0D0000 		.4byte	.LASF152
 1844 0dec 14       		.byte	0x14
 1845 0ded 71       		.byte	0x71
 1846 0dee 2C000000 		.4byte	0x2c
 1847 0df2 00       		.byte	0
 1848 0df3 08       		.uleb128 0x8
 1849 0df4 BC000000 		.4byte	.LASF153
 1850 0df8 14       		.byte	0x14
 1851 0df9 71       		.byte	0x71
 1852 0dfa 8E0A0000 		.4byte	0xa8e
 1853 0dfe 04       		.byte	0x4
 1854 0dff 08       		.uleb128 0x8
 1855 0e00 AE080000 		.4byte	.LASF154
 1856 0e04 14       		.byte	0x14
 1857 0e05 71       		.byte	0x71
 1858 0e06 B30A0000 		.4byte	0xab3
 1859 0e0a 08       		.byte	0x8
 1860 0e0b 09       		.uleb128 0x9
 1861 0e0c 70757400 		.ascii	"put\000"
 1862 0e10 14       		.byte	0x14
 1863 0e11 71       		.byte	0x71
 1864 0e12 CD0A0000 		.4byte	0xacd
 1865 0e16 0C       		.byte	0xc
 1866 0e17 09       		.uleb128 0x9
 1867 0e18 67657400 		.ascii	"get\000"
 1868 0e1c 14       		.byte	0x14
 1869 0e1d 71       		.byte	0x71
 1870 0e1e E20A0000 		.4byte	0xae2
 1871 0e22 10       		.byte	0x10
 1872 0e23 08       		.uleb128 0x8
 1873 0e24 EC000000 		.4byte	.LASF155
 1874 0e28 14       		.byte	0x14
 1875 0e29 71       		.byte	0x71
 1876 0e2a 010B0000 		.4byte	0xb01
 1877 0e2e 14       		.byte	0x14
 1878 0e2f 08       		.uleb128 0x8
 1879 0e30 AE040000 		.4byte	.LASF156
 1880 0e34 14       		.byte	0x14
 1881 0e35 71       		.byte	0x71
ARM GAS  /tmp/cccR1v5y.s 			page 34


 1882 0e36 1B0B0000 		.4byte	0xb1b
 1883 0e3a 18       		.byte	0x18
 1884 0e3b 08       		.uleb128 0x8
 1885 0e3c 6D000000 		.4byte	.LASF157
 1886 0e40 14       		.byte	0x14
 1887 0e41 71       		.byte	0x71
 1888 0e42 3F0B0000 		.4byte	0xb3f
 1889 0e46 1C       		.byte	0x1c
 1890 0e47 08       		.uleb128 0x8
 1891 0e48 3B010000 		.4byte	.LASF158
 1892 0e4c 14       		.byte	0x14
 1893 0e4d 71       		.byte	0x71
 1894 0e4e 630B0000 		.4byte	0xb63
 1895 0e52 20       		.byte	0x20
 1896 0e53 09       		.uleb128 0x9
 1897 0e54 63746C00 		.ascii	"ctl\000"
 1898 0e58 14       		.byte	0x14
 1899 0e59 71       		.byte	0x71
 1900 0e5a 820B0000 		.4byte	0xb82
 1901 0e5e 24       		.byte	0x24
 1902 0e5f 00       		.byte	0
 1903 0e60 06       		.uleb128 0x6
 1904 0e61 DB0D0000 		.4byte	0xddb
 1905 0e65 0B       		.uleb128 0xb
 1906 0e66 04       		.byte	0x4
 1907 0e67 600E0000 		.4byte	0xe60
 1908 0e6b 14       		.uleb128 0x14
 1909 0e6c B9000000 		.4byte	0xb9
 1910 0e70 7C0E0000 		.4byte	0xe7c
 1911 0e74 16       		.uleb128 0x16
 1912 0e75 51040000 		.4byte	0x451
 1913 0e79 FF01     		.2byte	0x1ff
 1914 0e7b 00       		.byte	0
 1915 0e7c 0B       		.uleb128 0xb
 1916 0e7d 04       		.byte	0x4
 1917 0e7e 61070000 		.4byte	0x761
 1918 0e82 0B       		.uleb128 0xb
 1919 0e83 04       		.byte	0x4
 1920 0e84 BE0D0000 		.4byte	0xdbe
 1921 0e88 17       		.uleb128 0x17
 1922 0e89 5A030000 		.4byte	.LASF159
 1923 0e8d 16       		.byte	0x16
 1924 0e8e 0301     		.2byte	0x103
 1925 0e90 940E0000 		.4byte	0xe94
 1926 0e94 0C       		.uleb128 0xc
 1927 0e95 5A030000 		.4byte	.LASF159
 1928 0e99 60       		.byte	0x60
 1929 0e9a 17       		.byte	0x17
 1930 0e9b A401     		.2byte	0x1a4
 1931 0e9d 990F0000 		.4byte	0xf99
 1932 0ea1 0D       		.uleb128 0xd
 1933 0ea2 DE000000 		.4byte	.LASF29
 1934 0ea6 17       		.byte	0x17
 1935 0ea7 A801     		.2byte	0x1a8
 1936 0ea9 D70F0000 		.4byte	0xfd7
 1937 0ead 00       		.byte	0
 1938 0eae 0D       		.uleb128 0xd
ARM GAS  /tmp/cccR1v5y.s 			page 35


 1939 0eaf D7000000 		.4byte	.LASF146
 1940 0eb3 17       		.byte	0x17
 1941 0eb4 AC01     		.2byte	0x1ac
 1942 0eb6 4F180000 		.4byte	0x184f
 1943 0eba 04       		.byte	0x4
 1944 0ebb 0D       		.uleb128 0xd
 1945 0ebc 00050000 		.4byte	.LASF160
 1946 0ec0 17       		.byte	0x17
 1947 0ec1 B001     		.2byte	0x1b0
 1948 0ec3 CE000000 		.4byte	0xce
 1949 0ec7 08       		.byte	0x8
 1950 0ec8 0D       		.uleb128 0xd
 1951 0ec9 45030000 		.4byte	.LASF161
 1952 0ecd 17       		.byte	0x17
 1953 0ece B401     		.2byte	0x1b4
 1954 0ed0 CE000000 		.4byte	0xce
 1955 0ed4 0A       		.byte	0xa
 1956 0ed5 0A       		.uleb128 0xa
 1957 0ed6 65706300 		.ascii	"epc\000"
 1958 0eda 17       		.byte	0x17
 1959 0edb B801     		.2byte	0x1b8
 1960 0edd 55180000 		.4byte	0x1855
 1961 0ee1 0C       		.byte	0xc
 1962 0ee2 0D       		.uleb128 0xd
 1963 0ee3 A9000000 		.4byte	.LASF162
 1964 0ee7 17       		.byte	0x17
 1965 0ee8 BF01     		.2byte	0x1bf
 1966 0eea 6B180000 		.4byte	0x186b
 1967 0eee 1C       		.byte	0x1c
 1968 0eef 0D       		.uleb128 0xd
 1969 0ef0 BF0D0000 		.4byte	.LASF163
 1970 0ef4 17       		.byte	0x17
 1971 0ef5 C601     		.2byte	0x1c6
 1972 0ef7 6B180000 		.4byte	0x186b
 1973 0efb 28       		.byte	0x28
 1974 0efc 0D       		.uleb128 0xd
 1975 0efd B4020000 		.4byte	.LASF164
 1976 0f01 17       		.byte	0x17
 1977 0f02 CA01     		.2byte	0x1ca
 1978 0f04 1B100000 		.4byte	0x101b
 1979 0f08 34       		.byte	0x34
 1980 0f09 0D       		.uleb128 0xd
 1981 0f0a 38080000 		.4byte	.LASF165
 1982 0f0e 17       		.byte	0x17
 1983 0f0f CE01     		.2byte	0x1ce
 1984 0f11 AD0A0000 		.4byte	0xaad
 1985 0f15 38       		.byte	0x38
 1986 0f16 0D       		.uleb128 0xd
 1987 0f17 2D030000 		.4byte	.LASF166
 1988 0f1b 17       		.byte	0x17
 1989 0f1c D201     		.2byte	0x1d2
 1990 0f1e 2C000000 		.4byte	0x2c
 1991 0f22 3C       		.byte	0x3c
 1992 0f23 0D       		.uleb128 0xd
 1993 0f24 80060000 		.4byte	.LASF167
 1994 0f28 17       		.byte	0x17
 1995 0f29 D601     		.2byte	0x1d6
ARM GAS  /tmp/cccR1v5y.s 			page 36


 1996 0f2b A0100000 		.4byte	0x10a0
 1997 0f2f 40       		.byte	0x40
 1998 0f30 0D       		.uleb128 0xd
 1999 0f31 93050000 		.4byte	.LASF168
 2000 0f35 17       		.byte	0x17
 2001 0f36 DA01     		.2byte	0x1da
 2002 0f38 7B180000 		.4byte	0x187b
 2003 0f3c 44       		.byte	0x44
 2004 0f3d 0D       		.uleb128 0xd
 2005 0f3e 55060000 		.4byte	.LASF169
 2006 0f42 17       		.byte	0x17
 2007 0f43 DE01     		.2byte	0x1de
 2008 0f45 CE000000 		.4byte	0xce
 2009 0f49 4C       		.byte	0x4c
 2010 0f4a 0D       		.uleb128 0xd
 2011 0f4b 62060000 		.4byte	.LASF170
 2012 0f4f 17       		.byte	0x17
 2013 0f50 E201     		.2byte	0x1e2
 2014 0f52 B9000000 		.4byte	0xb9
 2015 0f56 4E       		.byte	0x4e
 2016 0f57 0D       		.uleb128 0xd
 2017 0f58 E3050000 		.4byte	.LASF171
 2018 0f5c 17       		.byte	0x17
 2019 0f5d E601     		.2byte	0x1e6
 2020 0f5f B9000000 		.4byte	0xb9
 2021 0f63 4F       		.byte	0x4f
 2022 0f64 0D       		.uleb128 0xd
 2023 0f65 930A0000 		.4byte	.LASF172
 2024 0f69 17       		.byte	0x17
 2025 0f6a EA01     		.2byte	0x1ea
 2026 0f6c D70F0000 		.4byte	0xfd7
 2027 0f70 50       		.byte	0x50
 2028 0f71 0A       		.uleb128 0xa
 2029 0f72 6F746700 		.ascii	"otg\000"
 2030 0f76 17       		.byte	0x17
 2031 0f77 F201     		.2byte	0x1f2
 2032 0f79 8B180000 		.4byte	0x188b
 2033 0f7d 54       		.byte	0x54
 2034 0f7e 0D       		.uleb128 0xd
 2035 0f7f 99090000 		.4byte	.LASF173
 2036 0f83 17       		.byte	0x17
 2037 0f84 F601     		.2byte	0x1f6
 2038 0f86 91180000 		.4byte	0x1891
 2039 0f8a 58       		.byte	0x58
 2040 0f8b 0D       		.uleb128 0xd
 2041 0f8c FD0D0000 		.4byte	.LASF174
 2042 0f90 17       		.byte	0x17
 2043 0f91 FA01     		.2byte	0x1fa
 2044 0f93 E9000000 		.4byte	0xe9
 2045 0f97 5C       		.byte	0x5c
 2046 0f98 00       		.byte	0
 2047 0f99 17       		.uleb128 0x17
 2048 0f9a 350D0000 		.4byte	.LASF175
 2049 0f9e 16       		.byte	0x16
 2050 0f9f 0801     		.2byte	0x108
 2051 0fa1 B9000000 		.4byte	0xb9
 2052 0fa5 26       		.uleb128 0x26
ARM GAS  /tmp/cccR1v5y.s 			page 37


 2053 0fa6 01       		.byte	0x1
 2054 0fa7 63000000 		.4byte	0x63
 2055 0fab 16       		.byte	0x16
 2056 0fac 0D01     		.2byte	0x10d
 2057 0fae D70F0000 		.4byte	0xfd7
 2058 0fb2 22       		.uleb128 0x22
 2059 0fb3 E4090000 		.4byte	.LASF176
 2060 0fb7 00       		.byte	0
 2061 0fb8 22       		.uleb128 0x22
 2062 0fb9 65070000 		.4byte	.LASF177
 2063 0fbd 01       		.byte	0x1
 2064 0fbe 22       		.uleb128 0x22
 2065 0fbf 0F080000 		.4byte	.LASF178
 2066 0fc3 02       		.byte	0x2
 2067 0fc4 22       		.uleb128 0x22
 2068 0fc5 D6050000 		.4byte	.LASF179
 2069 0fc9 03       		.byte	0x3
 2070 0fca 22       		.uleb128 0x22
 2071 0fcb F9000000 		.4byte	.LASF180
 2072 0fcf 04       		.byte	0x4
 2073 0fd0 22       		.uleb128 0x22
 2074 0fd1 F5010000 		.4byte	.LASF181
 2075 0fd5 05       		.byte	0x5
 2076 0fd6 00       		.byte	0
 2077 0fd7 17       		.uleb128 0x17
 2078 0fd8 74070000 		.4byte	.LASF182
 2079 0fdc 16       		.byte	0x16
 2080 0fdd 1401     		.2byte	0x114
 2081 0fdf A50F0000 		.4byte	0xfa5
 2082 0fe3 26       		.uleb128 0x26
 2083 0fe4 01       		.byte	0x1
 2084 0fe5 63000000 		.4byte	0x63
 2085 0fe9 16       		.byte	0x16
 2086 0fea 2201     		.2byte	0x122
 2087 0fec 1B100000 		.4byte	0x101b
 2088 0ff0 22       		.uleb128 0x22
 2089 0ff1 A4010000 		.4byte	.LASF183
 2090 0ff5 00       		.byte	0
 2091 0ff6 22       		.uleb128 0x22
 2092 0ff7 C0050000 		.4byte	.LASF184
 2093 0ffb 09       		.byte	0x9
 2094 0ffc 22       		.uleb128 0x22
 2095 0ffd A30B0000 		.4byte	.LASF185
 2096 1001 0A       		.byte	0xa
 2097 1002 22       		.uleb128 0x22
 2098 1003 3E070000 		.4byte	.LASF186
 2099 1007 0B       		.byte	0xb
 2100 1008 22       		.uleb128 0x22
 2101 1009 3D050000 		.4byte	.LASF187
 2102 100d 14       		.byte	0x14
 2103 100e 22       		.uleb128 0x22
 2104 100f D50C0000 		.4byte	.LASF188
 2105 1013 15       		.byte	0x15
 2106 1014 22       		.uleb128 0x22
 2107 1015 8C070000 		.4byte	.LASF189
 2108 1019 06       		.byte	0x6
 2109 101a 00       		.byte	0
ARM GAS  /tmp/cccR1v5y.s 			page 38


 2110 101b 17       		.uleb128 0x17
 2111 101c 460B0000 		.4byte	.LASF190
 2112 1020 16       		.byte	0x16
 2113 1021 2A01     		.2byte	0x12a
 2114 1023 E30F0000 		.4byte	0xfe3
 2115 1027 26       		.uleb128 0x26
 2116 1028 01       		.byte	0x1
 2117 1029 63000000 		.4byte	0x63
 2118 102d 16       		.byte	0x16
 2119 102e 2F01     		.2byte	0x12f
 2120 1030 5F100000 		.4byte	0x105f
 2121 1034 22       		.uleb128 0x22
 2122 1035 310C0000 		.4byte	.LASF191
 2123 1039 00       		.byte	0
 2124 103a 22       		.uleb128 0x22
 2125 103b 60010000 		.4byte	.LASF192
 2126 103f 01       		.byte	0x1
 2127 1040 22       		.uleb128 0x22
 2128 1041 610B0000 		.4byte	.LASF193
 2129 1045 02       		.byte	0x2
 2130 1046 22       		.uleb128 0x22
 2131 1047 230B0000 		.4byte	.LASF194
 2132 104b 03       		.byte	0x3
 2133 104c 22       		.uleb128 0x22
 2134 104d 9E0D0000 		.4byte	.LASF195
 2135 1051 04       		.byte	0x4
 2136 1052 22       		.uleb128 0x22
 2137 1053 CC070000 		.4byte	.LASF196
 2138 1057 05       		.byte	0x5
 2139 1058 22       		.uleb128 0x22
 2140 1059 2B020000 		.4byte	.LASF197
 2141 105d 06       		.byte	0x6
 2142 105e 00       		.byte	0
 2143 105f 17       		.uleb128 0x17
 2144 1060 A7050000 		.4byte	.LASF198
 2145 1064 16       		.byte	0x16
 2146 1065 3701     		.2byte	0x137
 2147 1067 27100000 		.4byte	0x1027
 2148 106b 18       		.uleb128 0x18
 2149 106c 08       		.byte	0x8
 2150 106d 16       		.byte	0x16
 2151 106e 3C01     		.2byte	0x13c
 2152 1070 8F100000 		.4byte	0x108f
 2153 1074 0D       		.uleb128 0xd
 2154 1075 CE050000 		.4byte	.LASF199
 2155 1079 16       		.byte	0x16
 2156 107a 4001     		.2byte	0x140
 2157 107c 2C000000 		.4byte	0x2c
 2158 1080 00       		.byte	0
 2159 1081 0D       		.uleb128 0xd
 2160 1082 AB070000 		.4byte	.LASF200
 2161 1086 16       		.byte	0x16
 2162 1087 4401     		.2byte	0x144
 2163 1089 880A0000 		.4byte	0xa88
 2164 108d 04       		.byte	0x4
 2165 108e 00       		.byte	0
 2166 108f 17       		.uleb128 0x17
ARM GAS  /tmp/cccR1v5y.s 			page 39


 2167 1090 72050000 		.4byte	.LASF201
 2168 1094 16       		.byte	0x16
 2169 1095 4501     		.2byte	0x145
 2170 1097 6B100000 		.4byte	0x106b
 2171 109b 06       		.uleb128 0x6
 2172 109c 8F100000 		.4byte	0x108f
 2173 10a0 17       		.uleb128 0x17
 2174 10a1 A70C0000 		.4byte	.LASF202
 2175 10a5 16       		.byte	0x16
 2176 10a6 4D01     		.2byte	0x14d
 2177 10a8 AC100000 		.4byte	0x10ac
 2178 10ac 0B       		.uleb128 0xb
 2179 10ad 04       		.byte	0x4
 2180 10ae B2100000 		.4byte	0x10b2
 2181 10b2 0E       		.uleb128 0xe
 2182 10b3 BD100000 		.4byte	0x10bd
 2183 10b7 0F       		.uleb128 0xf
 2184 10b8 BD100000 		.4byte	0x10bd
 2185 10bc 00       		.byte	0
 2186 10bd 0B       		.uleb128 0xb
 2187 10be 04       		.byte	0x4
 2188 10bf 880E0000 		.4byte	0xe88
 2189 10c3 17       		.uleb128 0x17
 2190 10c4 5D080000 		.4byte	.LASF203
 2191 10c8 16       		.byte	0x16
 2192 10c9 5601     		.2byte	0x156
 2193 10cb CF100000 		.4byte	0x10cf
 2194 10cf 0B       		.uleb128 0xb
 2195 10d0 04       		.byte	0x4
 2196 10d1 D5100000 		.4byte	0x10d5
 2197 10d5 0E       		.uleb128 0xe
 2198 10d6 E5100000 		.4byte	0x10e5
 2199 10da 0F       		.uleb128 0xf
 2200 10db BD100000 		.4byte	0x10bd
 2201 10df 0F       		.uleb128 0xf
 2202 10e0 990F0000 		.4byte	0xf99
 2203 10e4 00       		.byte	0
 2204 10e5 17       		.uleb128 0x17
 2205 10e6 D2040000 		.4byte	.LASF204
 2206 10ea 16       		.byte	0x16
 2207 10eb 5F01     		.2byte	0x15f
 2208 10ed F1100000 		.4byte	0x10f1
 2209 10f1 0B       		.uleb128 0xb
 2210 10f2 04       		.byte	0x4
 2211 10f3 F7100000 		.4byte	0x10f7
 2212 10f7 0E       		.uleb128 0xe
 2213 10f8 07110000 		.4byte	0x1107
 2214 10fc 0F       		.uleb128 0xf
 2215 10fd BD100000 		.4byte	0x10bd
 2216 1101 0F       		.uleb128 0xf
 2217 1102 5F100000 		.4byte	0x105f
 2218 1106 00       		.byte	0
 2219 1107 17       		.uleb128 0x17
 2220 1108 8F0C0000 		.4byte	.LASF205
 2221 110c 16       		.byte	0x16
 2222 110d 6B01     		.2byte	0x16b
 2223 110f 13110000 		.4byte	0x1113
ARM GAS  /tmp/cccR1v5y.s 			page 40


 2224 1113 0B       		.uleb128 0xb
 2225 1114 04       		.byte	0x4
 2226 1115 19110000 		.4byte	0x1119
 2227 1119 1F       		.uleb128 0x1f
 2228 111a 880B0000 		.4byte	0xb88
 2229 111e 28110000 		.4byte	0x1128
 2230 1122 0F       		.uleb128 0xf
 2231 1123 BD100000 		.4byte	0x10bd
 2232 1127 00       		.byte	0
 2233 1128 17       		.uleb128 0x17
 2234 1129 D20B0000 		.4byte	.LASF206
 2235 112d 16       		.byte	0x16
 2236 112e 7001     		.2byte	0x170
 2237 1130 34110000 		.4byte	0x1134
 2238 1134 0B       		.uleb128 0xb
 2239 1135 04       		.byte	0x4
 2240 1136 3A110000 		.4byte	0x113a
 2241 113a 1F       		.uleb128 0x1f
 2242 113b 58110000 		.4byte	0x1158
 2243 113f 58110000 		.4byte	0x1158
 2244 1143 0F       		.uleb128 0xf
 2245 1144 BD100000 		.4byte	0x10bd
 2246 1148 0F       		.uleb128 0xf
 2247 1149 B9000000 		.4byte	0xb9
 2248 114d 0F       		.uleb128 0xf
 2249 114e B9000000 		.4byte	0xb9
 2250 1152 0F       		.uleb128 0xf
 2251 1153 CE000000 		.4byte	0xce
 2252 1157 00       		.byte	0
 2253 1158 0B       		.uleb128 0xb
 2254 1159 04       		.byte	0x4
 2255 115a 9B100000 		.4byte	0x109b
 2256 115e 20       		.uleb128 0x20
 2257 115f 20       		.byte	0x20
 2258 1160 18       		.byte	0x18
 2259 1161 29       		.byte	0x29
 2260 1162 C7110000 		.4byte	0x11c7
 2261 1166 08       		.uleb128 0x8
 2262 1167 05030000 		.4byte	.LASF207
 2263 116b 18       		.byte	0x18
 2264 116c 2A       		.byte	0x2a
 2265 116d F4000000 		.4byte	0xf4
 2266 1171 00       		.byte	0
 2267 1172 08       		.uleb128 0x8
 2268 1173 7B000000 		.4byte	.LASF208
 2269 1177 18       		.byte	0x18
 2270 1178 2C       		.byte	0x2c
 2271 1179 F4000000 		.4byte	0xf4
 2272 117d 04       		.byte	0x4
 2273 117e 08       		.uleb128 0x8
 2274 117f DA080000 		.4byte	.LASF209
 2275 1183 18       		.byte	0x18
 2276 1184 2D       		.byte	0x2d
 2277 1185 F4000000 		.4byte	0xf4
 2278 1189 08       		.byte	0x8
 2279 118a 08       		.uleb128 0x8
 2280 118b 8A0A0000 		.4byte	.LASF210
ARM GAS  /tmp/cccR1v5y.s 			page 41


 2281 118f 18       		.byte	0x18
 2282 1190 2E       		.byte	0x2e
 2283 1191 F4000000 		.4byte	0xf4
 2284 1195 0C       		.byte	0xc
 2285 1196 08       		.uleb128 0x8
 2286 1197 C7000000 		.4byte	.LASF211
 2287 119b 18       		.byte	0x18
 2288 119c 30       		.byte	0x30
 2289 119d F4000000 		.4byte	0xf4
 2290 11a1 10       		.byte	0x10
 2291 11a2 08       		.uleb128 0x8
 2292 11a3 410C0000 		.4byte	.LASF212
 2293 11a7 18       		.byte	0x18
 2294 11a8 32       		.byte	0x32
 2295 11a9 F4000000 		.4byte	0xf4
 2296 11ad 14       		.byte	0x14
 2297 11ae 08       		.uleb128 0x8
 2298 11af 50000000 		.4byte	.LASF213
 2299 11b3 18       		.byte	0x18
 2300 11b4 33       		.byte	0x33
 2301 11b5 F4000000 		.4byte	0xf4
 2302 11b9 18       		.byte	0x18
 2303 11ba 08       		.uleb128 0x8
 2304 11bb 750C0000 		.4byte	.LASF214
 2305 11bf 18       		.byte	0x18
 2306 11c0 34       		.byte	0x34
 2307 11c1 F4000000 		.4byte	0xf4
 2308 11c5 1C       		.byte	0x1c
 2309 11c6 00       		.byte	0
 2310 11c7 03       		.uleb128 0x3
 2311 11c8 EB040000 		.4byte	.LASF215
 2312 11cc 18       		.byte	0x18
 2313 11cd 35       		.byte	0x35
 2314 11ce 5E110000 		.4byte	0x115e
 2315 11d2 20       		.uleb128 0x20
 2316 11d3 20       		.byte	0x20
 2317 11d4 18       		.byte	0x18
 2318 11d5 3A       		.byte	0x3a
 2319 11d6 3B120000 		.4byte	0x123b
 2320 11da 08       		.uleb128 0x8
 2321 11db 9F0C0000 		.4byte	.LASF216
 2322 11df 18       		.byte	0x18
 2323 11e0 3B       		.byte	0x3b
 2324 11e1 F4000000 		.4byte	0xf4
 2325 11e5 00       		.byte	0
 2326 11e6 08       		.uleb128 0x8
 2327 11e7 74000000 		.4byte	.LASF217
 2328 11eb 18       		.byte	0x18
 2329 11ec 3D       		.byte	0x3d
 2330 11ed F4000000 		.4byte	0xf4
 2331 11f1 04       		.byte	0x4
 2332 11f2 08       		.uleb128 0x8
 2333 11f3 C40C0000 		.4byte	.LASF218
 2334 11f7 18       		.byte	0x18
 2335 11f8 3E       		.byte	0x3e
 2336 11f9 F4000000 		.4byte	0xf4
 2337 11fd 08       		.byte	0x8
ARM GAS  /tmp/cccR1v5y.s 			page 42


 2338 11fe 08       		.uleb128 0x8
 2339 11ff 8B000000 		.4byte	.LASF219
 2340 1203 18       		.byte	0x18
 2341 1204 40       		.byte	0x40
 2342 1205 F4000000 		.4byte	0xf4
 2343 1209 0C       		.byte	0xc
 2344 120a 08       		.uleb128 0x8
 2345 120b D6020000 		.4byte	.LASF220
 2346 120f 18       		.byte	0x18
 2347 1210 41       		.byte	0x41
 2348 1211 F4000000 		.4byte	0xf4
 2349 1215 10       		.byte	0x10
 2350 1216 08       		.uleb128 0x8
 2351 1217 410C0000 		.4byte	.LASF212
 2352 121b 18       		.byte	0x18
 2353 121c 43       		.byte	0x43
 2354 121d F4000000 		.4byte	0xf4
 2355 1221 14       		.byte	0x14
 2356 1222 08       		.uleb128 0x8
 2357 1223 F1000000 		.4byte	.LASF221
 2358 1227 18       		.byte	0x18
 2359 1228 44       		.byte	0x44
 2360 1229 F4000000 		.4byte	0xf4
 2361 122d 18       		.byte	0x18
 2362 122e 08       		.uleb128 0x8
 2363 122f 550C0000 		.4byte	.LASF222
 2364 1233 18       		.byte	0x18
 2365 1234 46       		.byte	0x46
 2366 1235 F4000000 		.4byte	0xf4
 2367 1239 1C       		.byte	0x1c
 2368 123a 00       		.byte	0
 2369 123b 03       		.uleb128 0x3
 2370 123c 040B0000 		.4byte	.LASF223
 2371 1240 18       		.byte	0x18
 2372 1241 47       		.byte	0x47
 2373 1242 D2110000 		.4byte	0x11d2
 2374 1246 20       		.uleb128 0x20
 2375 1247 20       		.byte	0x20
 2376 1248 18       		.byte	0x18
 2377 1249 4C       		.byte	0x4c
 2378 124a AF120000 		.4byte	0x12af
 2379 124e 08       		.uleb128 0x8
 2380 124f 03020000 		.4byte	.LASF224
 2381 1253 18       		.byte	0x18
 2382 1254 4D       		.byte	0x4d
 2383 1255 F4000000 		.4byte	0xf4
 2384 1259 00       		.byte	0
 2385 125a 08       		.uleb128 0x8
 2386 125b 74000000 		.4byte	.LASF217
 2387 125f 18       		.byte	0x18
 2388 1260 4F       		.byte	0x4f
 2389 1261 F4000000 		.4byte	0xf4
 2390 1265 04       		.byte	0x4
 2391 1266 08       		.uleb128 0x8
 2392 1267 3D020000 		.4byte	.LASF225
 2393 126b 18       		.byte	0x18
 2394 126c 50       		.byte	0x50
ARM GAS  /tmp/cccR1v5y.s 			page 43


 2395 126d F4000000 		.4byte	0xf4
 2396 1271 08       		.byte	0x8
 2397 1272 08       		.uleb128 0x8
 2398 1273 8B000000 		.4byte	.LASF219
 2399 1277 18       		.byte	0x18
 2400 1278 52       		.byte	0x52
 2401 1279 F4000000 		.4byte	0xf4
 2402 127d 0C       		.byte	0xc
 2403 127e 08       		.uleb128 0x8
 2404 127f A5080000 		.4byte	.LASF226
 2405 1283 18       		.byte	0x18
 2406 1284 53       		.byte	0x53
 2407 1285 F4000000 		.4byte	0xf4
 2408 1289 10       		.byte	0x10
 2409 128a 08       		.uleb128 0x8
 2410 128b 410C0000 		.4byte	.LASF212
 2411 128f 18       		.byte	0x18
 2412 1290 55       		.byte	0x55
 2413 1291 F4000000 		.4byte	0xf4
 2414 1295 14       		.byte	0x14
 2415 1296 08       		.uleb128 0x8
 2416 1297 50000000 		.4byte	.LASF213
 2417 129b 18       		.byte	0x18
 2418 129c 56       		.byte	0x56
 2419 129d F4000000 		.4byte	0xf4
 2420 12a1 18       		.byte	0x18
 2421 12a2 08       		.uleb128 0x8
 2422 12a3 550C0000 		.4byte	.LASF222
 2423 12a7 18       		.byte	0x18
 2424 12a8 57       		.byte	0x57
 2425 12a9 F4000000 		.4byte	0xf4
 2426 12ad 1C       		.byte	0x1c
 2427 12ae 00       		.byte	0
 2428 12af 03       		.uleb128 0x3
 2429 12b0 0C030000 		.4byte	.LASF227
 2430 12b4 18       		.byte	0x18
 2431 12b5 58       		.byte	0x58
 2432 12b6 46120000 		.4byte	0x1246
 2433 12ba 27       		.uleb128 0x27
 2434 12bb 00100100 		.4byte	0x11000
 2435 12bf 18       		.byte	0x18
 2436 12c0 5D       		.byte	0x5d
 2437 12c1 97150000 		.4byte	0x1597
 2438 12c5 08       		.uleb128 0x8
 2439 12c6 A3070000 		.4byte	.LASF228
 2440 12ca 18       		.byte	0x18
 2441 12cb 5E       		.byte	0x5e
 2442 12cc F4000000 		.4byte	0xf4
 2443 12d0 00       		.byte	0
 2444 12d1 08       		.uleb128 0x8
 2445 12d2 F9070000 		.4byte	.LASF229
 2446 12d6 18       		.byte	0x18
 2447 12d7 5F       		.byte	0x5f
 2448 12d8 F4000000 		.4byte	0xf4
 2449 12dc 04       		.byte	0x4
 2450 12dd 08       		.uleb128 0x8
 2451 12de 93060000 		.4byte	.LASF230
ARM GAS  /tmp/cccR1v5y.s 			page 44


 2452 12e2 18       		.byte	0x18
 2453 12e3 60       		.byte	0x60
 2454 12e4 F4000000 		.4byte	0xf4
 2455 12e8 08       		.byte	0x8
 2456 12e9 08       		.uleb128 0x8
 2457 12ea 090E0000 		.4byte	.LASF231
 2458 12ee 18       		.byte	0x18
 2459 12ef 61       		.byte	0x61
 2460 12f0 F4000000 		.4byte	0xf4
 2461 12f4 0C       		.byte	0xc
 2462 12f5 08       		.uleb128 0x8
 2463 12f6 9F050000 		.4byte	.LASF232
 2464 12fa 18       		.byte	0x18
 2465 12fb 62       		.byte	0x62
 2466 12fc F4000000 		.4byte	0xf4
 2467 1300 10       		.byte	0x10
 2468 1301 08       		.uleb128 0x8
 2469 1302 B50C0000 		.4byte	.LASF233
 2470 1306 18       		.byte	0x18
 2471 1307 63       		.byte	0x63
 2472 1308 F4000000 		.4byte	0xf4
 2473 130c 14       		.byte	0x14
 2474 130d 08       		.uleb128 0x8
 2475 130e 22090000 		.4byte	.LASF234
 2476 1312 18       		.byte	0x18
 2477 1313 64       		.byte	0x64
 2478 1314 F4000000 		.4byte	0xf4
 2479 1318 18       		.byte	0x18
 2480 1319 08       		.uleb128 0x8
 2481 131a C4070000 		.4byte	.LASF235
 2482 131e 18       		.byte	0x18
 2483 131f 65       		.byte	0x65
 2484 1320 F4000000 		.4byte	0xf4
 2485 1324 1C       		.byte	0x1c
 2486 1325 08       		.uleb128 0x8
 2487 1326 19080000 		.4byte	.LASF236
 2488 132a 18       		.byte	0x18
 2489 132b 67       		.byte	0x67
 2490 132c F4000000 		.4byte	0xf4
 2491 1330 20       		.byte	0x20
 2492 1331 08       		.uleb128 0x8
 2493 1332 F9050000 		.4byte	.LASF237
 2494 1336 18       		.byte	0x18
 2495 1337 69       		.byte	0x69
 2496 1338 F4000000 		.4byte	0xf4
 2497 133c 24       		.byte	0x24
 2498 133d 08       		.uleb128 0x8
 2499 133e 72010000 		.4byte	.LASF238
 2500 1342 18       		.byte	0x18
 2501 1343 6A       		.byte	0x6a
 2502 1344 F4000000 		.4byte	0xf4
 2503 1348 28       		.byte	0x28
 2504 1349 08       		.uleb128 0x8
 2505 134a CC0C0000 		.4byte	.LASF239
 2506 134e 18       		.byte	0x18
 2507 134f 6C       		.byte	0x6c
 2508 1350 F4000000 		.4byte	0xf4
ARM GAS  /tmp/cccR1v5y.s 			page 45


 2509 1354 2C       		.byte	0x2c
 2510 1355 08       		.uleb128 0x8
 2511 1356 010D0000 		.4byte	.LASF240
 2512 135a 18       		.byte	0x18
 2513 135b 6E       		.byte	0x6e
 2514 135c F4000000 		.4byte	0xf4
 2515 1360 30       		.byte	0x30
 2516 1361 08       		.uleb128 0x8
 2517 1362 130D0000 		.4byte	.LASF241
 2518 1366 18       		.byte	0x18
 2519 1367 6F       		.byte	0x6f
 2520 1368 F4000000 		.4byte	0xf4
 2521 136c 34       		.byte	0x34
 2522 136d 08       		.uleb128 0x8
 2523 136e AE020000 		.4byte	.LASF242
 2524 1372 18       		.byte	0x18
 2525 1373 70       		.byte	0x70
 2526 1374 F4000000 		.4byte	0xf4
 2527 1378 38       		.byte	0x38
 2528 1379 09       		.uleb128 0x9
 2529 137a 43494400 		.ascii	"CID\000"
 2530 137e 18       		.byte	0x18
 2531 137f 71       		.byte	0x71
 2532 1380 F4000000 		.4byte	0xf4
 2533 1384 3C       		.byte	0x3c
 2534 1385 08       		.uleb128 0x8
 2535 1386 E60D0000 		.4byte	.LASF243
 2536 138a 18       		.byte	0x18
 2537 138b 72       		.byte	0x72
 2538 138c A7150000 		.4byte	0x15a7
 2539 1390 40       		.byte	0x40
 2540 1391 25       		.uleb128 0x25
 2541 1392 3D0A0000 		.4byte	.LASF244
 2542 1396 18       		.byte	0x18
 2543 1397 73       		.byte	0x73
 2544 1398 F4000000 		.4byte	0xf4
 2545 139c 0001     		.2byte	0x100
 2546 139e 25       		.uleb128 0x25
 2547 139f 33060000 		.4byte	.LASF245
 2548 13a3 18       		.byte	0x18
 2549 13a4 75       		.byte	0x75
 2550 13a5 7D070000 		.4byte	0x77d
 2551 13a9 0401     		.2byte	0x104
 2552 13ab 25       		.uleb128 0x25
 2553 13ac 110E0000 		.4byte	.LASF246
 2554 13b0 18       		.byte	0x18
 2555 13b1 77       		.byte	0x77
 2556 13b2 BC150000 		.4byte	0x15bc
 2557 13b6 4001     		.2byte	0x140
 2558 13b8 25       		.uleb128 0x25
 2559 13b9 00030000 		.4byte	.LASF247
 2560 13bd 18       		.byte	0x18
 2561 13be 78       		.byte	0x78
 2562 13bf F4000000 		.4byte	0xf4
 2563 13c3 0004     		.2byte	0x400
 2564 13c5 25       		.uleb128 0x25
 2565 13c6 F30D0000 		.4byte	.LASF248
ARM GAS  /tmp/cccR1v5y.s 			page 46


 2566 13ca 18       		.byte	0x18
 2567 13cb 79       		.byte	0x79
 2568 13cc F4000000 		.4byte	0xf4
 2569 13d0 0404     		.2byte	0x404
 2570 13d2 25       		.uleb128 0x25
 2571 13d3 CC040000 		.4byte	.LASF249
 2572 13d7 18       		.byte	0x18
 2573 13d8 7A       		.byte	0x7a
 2574 13d9 F4000000 		.4byte	0xf4
 2575 13dd 0804     		.2byte	0x408
 2576 13df 25       		.uleb128 0x25
 2577 13e0 9A070000 		.4byte	.LASF250
 2578 13e4 18       		.byte	0x18
 2579 13e5 7C       		.byte	0x7c
 2580 13e6 F4000000 		.4byte	0xf4
 2581 13ea 0C04     		.2byte	0x40c
 2582 13ec 25       		.uleb128 0x25
 2583 13ed 3B060000 		.4byte	.LASF251
 2584 13f1 18       		.byte	0x18
 2585 13f2 7D       		.byte	0x7d
 2586 13f3 F4000000 		.4byte	0xf4
 2587 13f7 1004     		.2byte	0x410
 2588 13f9 25       		.uleb128 0x25
 2589 13fa BD080000 		.4byte	.LASF252
 2590 13fe 18       		.byte	0x18
 2591 13ff 7F       		.byte	0x7f
 2592 1400 F4000000 		.4byte	0xf4
 2593 1404 1404     		.2byte	0x414
 2594 1406 25       		.uleb128 0x25
 2595 1407 0E090000 		.4byte	.LASF253
 2596 140b 18       		.byte	0x18
 2597 140c 81       		.byte	0x81
 2598 140d F4000000 		.4byte	0xf4
 2599 1411 1804     		.2byte	0x418
 2600 1413 25       		.uleb128 0x25
 2601 1414 2F080000 		.4byte	.LASF254
 2602 1418 18       		.byte	0x18
 2603 1419 83       		.byte	0x83
 2604 141a D1150000 		.4byte	0x15d1
 2605 141e 1C04     		.2byte	0x41c
 2606 1420 25       		.uleb128 0x25
 2607 1421 40030000 		.4byte	.LASF255
 2608 1425 18       		.byte	0x18
 2609 1426 84       		.byte	0x84
 2610 1427 F4000000 		.4byte	0xf4
 2611 142b 4004     		.2byte	0x440
 2612 142d 25       		.uleb128 0x25
 2613 142e F6080000 		.4byte	.LASF256
 2614 1432 18       		.byte	0x18
 2615 1433 86       		.byte	0x86
 2616 1434 E6150000 		.4byte	0x15e6
 2617 1438 4404     		.2byte	0x444
 2618 143a 24       		.uleb128 0x24
 2619 143b 686300   		.ascii	"hc\000"
 2620 143e 18       		.byte	0x18
 2621 143f 87       		.byte	0x87
 2622 1440 EB150000 		.4byte	0x15eb
ARM GAS  /tmp/cccR1v5y.s 			page 47


 2623 1444 0005     		.2byte	0x500
 2624 1446 25       		.uleb128 0x25
 2625 1447 CE000000 		.4byte	.LASF257
 2626 144b 18       		.byte	0x18
 2627 144c 88       		.byte	0x88
 2628 144d 0B160000 		.4byte	0x160b
 2629 1451 0007     		.2byte	0x700
 2630 1453 25       		.uleb128 0x25
 2631 1454 A0020000 		.4byte	.LASF258
 2632 1458 18       		.byte	0x18
 2633 1459 89       		.byte	0x89
 2634 145a F4000000 		.4byte	0xf4
 2635 145e 0008     		.2byte	0x800
 2636 1460 25       		.uleb128 0x25
 2637 1461 550A0000 		.4byte	.LASF259
 2638 1465 18       		.byte	0x18
 2639 1466 8A       		.byte	0x8a
 2640 1467 F4000000 		.4byte	0xf4
 2641 146b 0408     		.2byte	0x804
 2642 146d 25       		.uleb128 0x25
 2643 146e 750D0000 		.4byte	.LASF260
 2644 1472 18       		.byte	0x18
 2645 1473 8B       		.byte	0x8b
 2646 1474 F4000000 		.4byte	0xf4
 2647 1478 0808     		.2byte	0x808
 2648 147a 25       		.uleb128 0x25
 2649 147b 37030000 		.4byte	.LASF261
 2650 147f 18       		.byte	0x18
 2651 1480 8C       		.byte	0x8c
 2652 1481 F4000000 		.4byte	0xf4
 2653 1485 0C08     		.2byte	0x80c
 2654 1487 25       		.uleb128 0x25
 2655 1488 5D0C0000 		.4byte	.LASF262
 2656 148c 18       		.byte	0x18
 2657 148d 8D       		.byte	0x8d
 2658 148e F4000000 		.4byte	0xf4
 2659 1492 1008     		.2byte	0x810
 2660 1494 25       		.uleb128 0x25
 2661 1495 E4010000 		.4byte	.LASF263
 2662 1499 18       		.byte	0x18
 2663 149a 8F       		.byte	0x8f
 2664 149b F4000000 		.4byte	0xf4
 2665 149f 1408     		.2byte	0x814
 2666 14a1 25       		.uleb128 0x25
 2667 14a2 DE010000 		.4byte	.LASF264
 2668 14a6 18       		.byte	0x18
 2669 14a7 91       		.byte	0x91
 2670 14a8 F4000000 		.4byte	0xf4
 2671 14ac 1808     		.2byte	0x818
 2672 14ae 25       		.uleb128 0x25
 2673 14af F20A0000 		.4byte	.LASF265
 2674 14b3 18       		.byte	0x18
 2675 14b4 93       		.byte	0x93
 2676 14b5 F4000000 		.4byte	0xf4
 2677 14b9 1C08     		.2byte	0x81c
 2678 14bb 25       		.uleb128 0x25
 2679 14bc 20050000 		.4byte	.LASF266
ARM GAS  /tmp/cccR1v5y.s 			page 48


 2680 14c0 18       		.byte	0x18
 2681 14c1 95       		.byte	0x95
 2682 14c2 F4000000 		.4byte	0xf4
 2683 14c6 2008     		.2byte	0x820
 2684 14c8 25       		.uleb128 0x25
 2685 14c9 29050000 		.4byte	.LASF267
 2686 14cd 18       		.byte	0x18
 2687 14ce 96       		.byte	0x96
 2688 14cf F4000000 		.4byte	0xf4
 2689 14d3 2408     		.2byte	0x824
 2690 14d5 25       		.uleb128 0x25
 2691 14d6 FB0A0000 		.4byte	.LASF268
 2692 14da 18       		.byte	0x18
 2693 14db 97       		.byte	0x97
 2694 14dc F4000000 		.4byte	0xf4
 2695 14e0 2808     		.2byte	0x828
 2696 14e2 25       		.uleb128 0x25
 2697 14e3 32050000 		.4byte	.LASF269
 2698 14e7 18       		.byte	0x18
 2699 14e8 99       		.byte	0x99
 2700 14e9 F4000000 		.4byte	0xf4
 2701 14ed 2C08     		.2byte	0x82c
 2702 14ef 25       		.uleb128 0x25
 2703 14f0 A3090000 		.4byte	.LASF270
 2704 14f4 18       		.byte	0x18
 2705 14f5 9B       		.byte	0x9b
 2706 14f6 F4000000 		.4byte	0xf4
 2707 14fa 3008     		.2byte	0x830
 2708 14fc 25       		.uleb128 0x25
 2709 14fd 67050000 		.4byte	.LASF271
 2710 1501 18       		.byte	0x18
 2711 1502 9C       		.byte	0x9c
 2712 1503 F4000000 		.4byte	0xf4
 2713 1507 3408     		.2byte	0x834
 2714 1509 25       		.uleb128 0x25
 2715 150a 54080000 		.4byte	.LASF272
 2716 150e 18       		.byte	0x18
 2717 150f 9E       		.byte	0x9e
 2718 1510 F4000000 		.4byte	0xf4
 2719 1514 3808     		.2byte	0x838
 2720 1516 25       		.uleb128 0x25
 2721 1517 8C080000 		.4byte	.LASF273
 2722 151b 18       		.byte	0x18
 2723 151c 9F       		.byte	0x9f
 2724 151d F4000000 		.4byte	0xf4
 2725 1521 3C08     		.2byte	0x83c
 2726 1523 25       		.uleb128 0x25
 2727 1524 11060000 		.4byte	.LASF274
 2728 1528 18       		.byte	0x18
 2729 1529 A0       		.byte	0xa0
 2730 152a 20160000 		.4byte	0x1620
 2731 152e 4008     		.2byte	0x840
 2732 1530 25       		.uleb128 0x25
 2733 1531 76080000 		.4byte	.LASF275
 2734 1535 18       		.byte	0x18
 2735 1536 A1       		.byte	0xa1
 2736 1537 20160000 		.4byte	0x1620
ARM GAS  /tmp/cccR1v5y.s 			page 49


 2737 153b 8008     		.2byte	0x880
 2738 153d 25       		.uleb128 0x25
 2739 153e A5020000 		.4byte	.LASF276
 2740 1542 18       		.byte	0x18
 2741 1543 A2       		.byte	0xa2
 2742 1544 20160000 		.4byte	0x1620
 2743 1548 C008     		.2byte	0x8c0
 2744 154a 24       		.uleb128 0x24
 2745 154b 696500   		.ascii	"ie\000"
 2746 154e 18       		.byte	0x18
 2747 154f A3       		.byte	0xa3
 2748 1550 25160000 		.4byte	0x1625
 2749 1554 0009     		.2byte	0x900
 2750 1556 24       		.uleb128 0x24
 2751 1557 6F6500   		.ascii	"oe\000"
 2752 155a 18       		.byte	0x18
 2753 155b A4       		.byte	0xa4
 2754 155c 35160000 		.4byte	0x1635
 2755 1560 000B     		.2byte	0xb00
 2756 1562 25       		.uleb128 0x25
 2757 1563 1D0A0000 		.4byte	.LASF277
 2758 1567 18       		.byte	0x18
 2759 1568 A5       		.byte	0xa5
 2760 1569 0B160000 		.4byte	0x160b
 2761 156d 000D     		.2byte	0xd00
 2762 156f 25       		.uleb128 0x25
 2763 1570 DD070000 		.4byte	.LASF278
 2764 1574 18       		.byte	0x18
 2765 1575 A6       		.byte	0xa6
 2766 1576 F4000000 		.4byte	0xf4
 2767 157a 000E     		.2byte	0xe00
 2768 157c 25       		.uleb128 0x25
 2769 157d F80C0000 		.4byte	.LASF279
 2770 1581 18       		.byte	0x18
 2771 1582 A8       		.byte	0xa8
 2772 1583 55160000 		.4byte	0x1655
 2773 1587 040E     		.2byte	0xe04
 2774 1589 25       		.uleb128 0x25
 2775 158a 760B0000 		.4byte	.LASF280
 2776 158e 18       		.byte	0x18
 2777 158f A9       		.byte	0xa9
 2778 1590 71160000 		.4byte	0x1671
 2779 1594 0010     		.2byte	0x1000
 2780 1596 00       		.byte	0
 2781 1597 14       		.uleb128 0x14
 2782 1598 F4000000 		.4byte	0xf4
 2783 159c A7150000 		.4byte	0x15a7
 2784 15a0 15       		.uleb128 0x15
 2785 15a1 51040000 		.4byte	0x451
 2786 15a5 2F       		.byte	0x2f
 2787 15a6 00       		.byte	0
 2788 15a7 04       		.uleb128 0x4
 2789 15a8 97150000 		.4byte	0x1597
 2790 15ac 14       		.uleb128 0x14
 2791 15ad F4000000 		.4byte	0xf4
 2792 15b1 BC150000 		.4byte	0x15bc
 2793 15b5 15       		.uleb128 0x15
ARM GAS  /tmp/cccR1v5y.s 			page 50


 2794 15b6 51040000 		.4byte	0x451
 2795 15ba AF       		.byte	0xaf
 2796 15bb 00       		.byte	0
 2797 15bc 04       		.uleb128 0x4
 2798 15bd AC150000 		.4byte	0x15ac
 2799 15c1 14       		.uleb128 0x14
 2800 15c2 F4000000 		.4byte	0xf4
 2801 15c6 D1150000 		.4byte	0x15d1
 2802 15ca 15       		.uleb128 0x15
 2803 15cb 51040000 		.4byte	0x451
 2804 15cf 08       		.byte	0x8
 2805 15d0 00       		.byte	0
 2806 15d1 04       		.uleb128 0x4
 2807 15d2 C1150000 		.4byte	0x15c1
 2808 15d6 14       		.uleb128 0x14
 2809 15d7 F4000000 		.4byte	0xf4
 2810 15db E6150000 		.4byte	0x15e6
 2811 15df 15       		.uleb128 0x15
 2812 15e0 51040000 		.4byte	0x451
 2813 15e4 2E       		.byte	0x2e
 2814 15e5 00       		.byte	0
 2815 15e6 04       		.uleb128 0x4
 2816 15e7 D6150000 		.4byte	0x15d6
 2817 15eb 14       		.uleb128 0x14
 2818 15ec C7110000 		.4byte	0x11c7
 2819 15f0 FB150000 		.4byte	0x15fb
 2820 15f4 15       		.uleb128 0x15
 2821 15f5 51040000 		.4byte	0x451
 2822 15f9 0F       		.byte	0xf
 2823 15fa 00       		.byte	0
 2824 15fb 14       		.uleb128 0x14
 2825 15fc F4000000 		.4byte	0xf4
 2826 1600 0B160000 		.4byte	0x160b
 2827 1604 15       		.uleb128 0x15
 2828 1605 51040000 		.4byte	0x451
 2829 1609 3F       		.byte	0x3f
 2830 160a 00       		.byte	0
 2831 160b 04       		.uleb128 0x4
 2832 160c FB150000 		.4byte	0x15fb
 2833 1610 14       		.uleb128 0x14
 2834 1611 F4000000 		.4byte	0xf4
 2835 1615 20160000 		.4byte	0x1620
 2836 1619 15       		.uleb128 0x15
 2837 161a 51040000 		.4byte	0x451
 2838 161e 0F       		.byte	0xf
 2839 161f 00       		.byte	0
 2840 1620 04       		.uleb128 0x4
 2841 1621 10160000 		.4byte	0x1610
 2842 1625 14       		.uleb128 0x14
 2843 1626 3B120000 		.4byte	0x123b
 2844 162a 35160000 		.4byte	0x1635
 2845 162e 15       		.uleb128 0x15
 2846 162f 51040000 		.4byte	0x451
 2847 1633 0F       		.byte	0xf
 2848 1634 00       		.byte	0
 2849 1635 14       		.uleb128 0x14
 2850 1636 AF120000 		.4byte	0x12af
ARM GAS  /tmp/cccR1v5y.s 			page 51


 2851 163a 45160000 		.4byte	0x1645
 2852 163e 15       		.uleb128 0x15
 2853 163f 51040000 		.4byte	0x451
 2854 1643 0F       		.byte	0xf
 2855 1644 00       		.byte	0
 2856 1645 14       		.uleb128 0x14
 2857 1646 F4000000 		.4byte	0xf4
 2858 164a 55160000 		.4byte	0x1655
 2859 164e 15       		.uleb128 0x15
 2860 164f 51040000 		.4byte	0x451
 2861 1653 7E       		.byte	0x7e
 2862 1654 00       		.byte	0
 2863 1655 04       		.uleb128 0x4
 2864 1656 45160000 		.4byte	0x1645
 2865 165a 14       		.uleb128 0x14
 2866 165b F4000000 		.4byte	0xf4
 2867 165f 71160000 		.4byte	0x1671
 2868 1663 15       		.uleb128 0x15
 2869 1664 51040000 		.4byte	0x451
 2870 1668 0F       		.byte	0xf
 2871 1669 16       		.uleb128 0x16
 2872 166a 51040000 		.4byte	0x451
 2873 166e FF03     		.2byte	0x3ff
 2874 1670 00       		.byte	0
 2875 1671 04       		.uleb128 0x4
 2876 1672 5A160000 		.4byte	0x165a
 2877 1676 03       		.uleb128 0x3
 2878 1677 E0080000 		.4byte	.LASF281
 2879 167b 18       		.byte	0x18
 2880 167c AA       		.byte	0xaa
 2881 167d BA120000 		.4byte	0x12ba
 2882 1681 18       		.uleb128 0x18
 2883 1682 0C       		.byte	0xc
 2884 1683 17       		.byte	0x17
 2885 1684 0301     		.2byte	0x103
 2886 1686 B2160000 		.4byte	0x16b2
 2887 168a 0D       		.uleb128 0xd
 2888 168b 43000000 		.4byte	.LASF282
 2889 168f 17       		.byte	0x17
 2890 1690 0401     		.2byte	0x104
 2891 1692 E9000000 		.4byte	0xe9
 2892 1696 00       		.byte	0
 2893 1697 0D       		.uleb128 0xd
 2894 1698 160B0000 		.4byte	.LASF283
 2895 169c 17       		.byte	0x17
 2896 169d 0501     		.2byte	0x105
 2897 169f E9000000 		.4byte	0xe9
 2898 16a3 04       		.byte	0x4
 2899 16a4 0D       		.uleb128 0xd
 2900 16a5 0B070000 		.4byte	.LASF284
 2901 16a9 17       		.byte	0x17
 2902 16aa 0601     		.2byte	0x106
 2903 16ac E9000000 		.4byte	0xe9
 2904 16b0 08       		.byte	0x8
 2905 16b1 00       		.byte	0
 2906 16b2 17       		.uleb128 0x17
 2907 16b3 80050000 		.4byte	.LASF285
ARM GAS  /tmp/cccR1v5y.s 			page 52


 2908 16b7 17       		.byte	0x17
 2909 16b8 0701     		.2byte	0x107
 2910 16ba 81160000 		.4byte	0x1681
 2911 16be 06       		.uleb128 0x6
 2912 16bf B2160000 		.4byte	0x16b2
 2913 16c3 18       		.uleb128 0x18
 2914 16c4 10       		.byte	0x10
 2915 16c5 17       		.byte	0x17
 2916 16c6 0C01     		.2byte	0x10c
 2917 16c8 01170000 		.4byte	0x1701
 2918 16cc 0D       		.uleb128 0xd
 2919 16cd 85070000 		.4byte	.LASF286
 2920 16d1 17       		.byte	0x17
 2921 16d2 1001     		.2byte	0x110
 2922 16d4 2C000000 		.4byte	0x2c
 2923 16d8 00       		.byte	0
 2924 16d9 0D       		.uleb128 0xd
 2925 16da 01060000 		.4byte	.LASF287
 2926 16de 17       		.byte	0x17
 2927 16df 1401     		.2byte	0x114
 2928 16e1 2C000000 		.4byte	0x2c
 2929 16e5 04       		.byte	0x4
 2930 16e6 0D       		.uleb128 0xd
 2931 16e7 CF010000 		.4byte	.LASF288
 2932 16eb 17       		.byte	0x17
 2933 16ec 1801     		.2byte	0x118
 2934 16ee 880A0000 		.4byte	0xa88
 2935 16f2 08       		.byte	0x8
 2936 16f3 0D       		.uleb128 0xd
 2937 16f4 F1050000 		.4byte	.LASF289
 2938 16f8 17       		.byte	0x17
 2939 16f9 2301     		.2byte	0x123
 2940 16fb 2C000000 		.4byte	0x2c
 2941 16ff 0C       		.byte	0xc
 2942 1700 00       		.byte	0
 2943 1701 17       		.uleb128 0x17
 2944 1702 0D050000 		.4byte	.LASF290
 2945 1706 17       		.byte	0x17
 2946 1707 2401     		.2byte	0x124
 2947 1709 C3160000 		.4byte	0x16c3
 2948 170d 18       		.uleb128 0x18
 2949 170e 10       		.byte	0x10
 2950 170f 17       		.byte	0x17
 2951 1710 2901     		.2byte	0x129
 2952 1712 4B170000 		.4byte	0x174b
 2953 1716 0D       		.uleb128 0xd
 2954 1717 45020000 		.4byte	.LASF291
 2955 171b 17       		.byte	0x17
 2956 171c 2D01     		.2byte	0x12d
 2957 171e 2C000000 		.4byte	0x2c
 2958 1722 00       		.byte	0
 2959 1723 0D       		.uleb128 0xd
 2960 1724 6E070000 		.4byte	.LASF292
 2961 1728 17       		.byte	0x17
 2962 1729 3101     		.2byte	0x131
 2963 172b 2C000000 		.4byte	0x2c
 2964 172f 04       		.byte	0x4
ARM GAS  /tmp/cccR1v5y.s 			page 53


 2965 1730 0D       		.uleb128 0xd
 2966 1731 B5070000 		.4byte	.LASF293
 2967 1735 17       		.byte	0x17
 2968 1736 3501     		.2byte	0x135
 2969 1738 AD0A0000 		.4byte	0xaad
 2970 173c 08       		.byte	0x8
 2971 173d 0D       		.uleb128 0xd
 2972 173e F1050000 		.4byte	.LASF289
 2973 1742 17       		.byte	0x17
 2974 1743 4001     		.2byte	0x140
 2975 1745 2C000000 		.4byte	0x2c
 2976 1749 0C       		.byte	0xc
 2977 174a 00       		.byte	0
 2978 174b 17       		.uleb128 0x17
 2979 174c 04010000 		.4byte	.LASF294
 2980 1750 17       		.byte	0x17
 2981 1751 4101     		.2byte	0x141
 2982 1753 0D170000 		.4byte	0x170d
 2983 1757 18       		.uleb128 0x18
 2984 1758 24       		.byte	0x24
 2985 1759 17       		.byte	0x17
 2986 175a 4701     		.2byte	0x147
 2987 175c E3170000 		.4byte	0x17e3
 2988 1760 0D       		.uleb128 0xd
 2989 1761 E4000000 		.4byte	.LASF295
 2990 1765 17       		.byte	0x17
 2991 1766 4B01     		.2byte	0x14b
 2992 1768 E9000000 		.4byte	0xe9
 2993 176c 00       		.byte	0
 2994 176d 0D       		.uleb128 0xd
 2995 176e 6D080000 		.4byte	.LASF296
 2996 1772 17       		.byte	0x17
 2997 1773 5601     		.2byte	0x156
 2998 1775 C3100000 		.4byte	0x10c3
 2999 1779 04       		.byte	0x4
 3000 177a 0D       		.uleb128 0xd
 3001 177b A8040000 		.4byte	.LASF297
 3002 177f 17       		.byte	0x17
 3003 1780 5B01     		.2byte	0x15b
 3004 1782 C3100000 		.4byte	0x10c3
 3005 1786 08       		.byte	0x8
 3006 1787 0D       		.uleb128 0xd
 3007 1788 07090000 		.4byte	.LASF298
 3008 178c 17       		.byte	0x17
 3009 178d 6001     		.2byte	0x160
 3010 178f C3100000 		.4byte	0x10c3
 3011 1793 0C       		.byte	0xc
 3012 1794 0D       		.uleb128 0xd
 3013 1795 17090000 		.4byte	.LASF299
 3014 1799 17       		.byte	0x17
 3015 179a 6501     		.2byte	0x165
 3016 179c CE000000 		.4byte	0xce
 3017 17a0 10       		.byte	0x10
 3018 17a1 0D       		.uleb128 0xd
 3019 17a2 3A0B0000 		.4byte	.LASF300
 3020 17a6 17       		.byte	0x17
 3021 17a7 6A01     		.2byte	0x16a
ARM GAS  /tmp/cccR1v5y.s 			page 54


 3022 17a9 CE000000 		.4byte	0xce
 3023 17ad 12       		.byte	0x12
 3024 17ae 0D       		.uleb128 0xd
 3025 17af BB070000 		.4byte	.LASF301
 3026 17b3 17       		.byte	0x17
 3027 17b4 7001     		.2byte	0x170
 3028 17b6 E3170000 		.4byte	0x17e3
 3029 17ba 14       		.byte	0x14
 3030 17bb 0D       		.uleb128 0xd
 3031 17bc 3D090000 		.4byte	.LASF302
 3032 17c0 17       		.byte	0x17
 3033 17c1 7601     		.2byte	0x176
 3034 17c3 E9170000 		.4byte	0x17e9
 3035 17c7 18       		.byte	0x18
 3036 17c8 0D       		.uleb128 0xd
 3037 17c9 EA060000 		.4byte	.LASF303
 3038 17cd 17       		.byte	0x17
 3039 17ce 7D01     		.2byte	0x17d
 3040 17d0 CE000000 		.4byte	0xce
 3041 17d4 1C       		.byte	0x1c
 3042 17d5 0D       		.uleb128 0xd
 3043 17d6 EC080000 		.4byte	.LASF304
 3044 17da 17       		.byte	0x17
 3045 17db 8301     		.2byte	0x183
 3046 17dd AD0A0000 		.4byte	0xaad
 3047 17e1 20       		.byte	0x20
 3048 17e2 00       		.byte	0
 3049 17e3 0B       		.uleb128 0xb
 3050 17e4 04       		.byte	0x4
 3051 17e5 01170000 		.4byte	0x1701
 3052 17e9 0B       		.uleb128 0xb
 3053 17ea 04       		.byte	0x4
 3054 17eb 4B170000 		.4byte	0x174b
 3055 17ef 17       		.uleb128 0x17
 3056 17f0 6B0A0000 		.4byte	.LASF305
 3057 17f4 17       		.byte	0x17
 3058 17f5 8401     		.2byte	0x184
 3059 17f7 57170000 		.4byte	0x1757
 3060 17fb 06       		.uleb128 0x6
 3061 17fc EF170000 		.4byte	0x17ef
 3062 1800 18       		.uleb128 0x18
 3063 1801 10       		.byte	0x10
 3064 1802 17       		.byte	0x17
 3065 1803 8901     		.2byte	0x189
 3066 1805 3E180000 		.4byte	0x183e
 3067 1809 0D       		.uleb128 0xd
 3068 180a F0070000 		.4byte	.LASF306
 3069 180e 17       		.byte	0x17
 3070 180f 8E01     		.2byte	0x18e
 3071 1811 E5100000 		.4byte	0x10e5
 3072 1815 00       		.byte	0
 3073 1816 0D       		.uleb128 0xd
 3074 1817 7A0D0000 		.4byte	.LASF307
 3075 181b 17       		.byte	0x17
 3076 181c 9301     		.2byte	0x193
 3077 181e 28110000 		.4byte	0x1128
 3078 1822 04       		.byte	0x4
ARM GAS  /tmp/cccR1v5y.s 			page 55


 3079 1823 0D       		.uleb128 0xd
 3080 1824 DF020000 		.4byte	.LASF308
 3081 1828 17       		.byte	0x17
 3082 1829 9901     		.2byte	0x199
 3083 182b 07110000 		.4byte	0x1107
 3084 182f 08       		.byte	0x8
 3085 1830 0D       		.uleb128 0xd
 3086 1831 F10C0000 		.4byte	.LASF309
 3087 1835 17       		.byte	0x17
 3088 1836 9D01     		.2byte	0x19d
 3089 1838 A0100000 		.4byte	0x10a0
 3090 183c 0C       		.byte	0xc
 3091 183d 00       		.byte	0
 3092 183e 17       		.uleb128 0x17
 3093 183f D0080000 		.4byte	.LASF310
 3094 1843 17       		.byte	0x17
 3095 1844 9F01     		.2byte	0x19f
 3096 1846 00180000 		.4byte	0x1800
 3097 184a 06       		.uleb128 0x6
 3098 184b 3E180000 		.4byte	0x183e
 3099 184f 0B       		.uleb128 0xb
 3100 1850 04       		.byte	0x4
 3101 1851 4A180000 		.4byte	0x184a
 3102 1855 14       		.uleb128 0x14
 3103 1856 65180000 		.4byte	0x1865
 3104 185a 65180000 		.4byte	0x1865
 3105 185e 15       		.uleb128 0x15
 3106 185f 51040000 		.4byte	0x451
 3107 1863 03       		.byte	0x3
 3108 1864 00       		.byte	0
 3109 1865 0B       		.uleb128 0xb
 3110 1866 04       		.byte	0x4
 3111 1867 FB170000 		.4byte	0x17fb
 3112 186b 14       		.uleb128 0x14
 3113 186c 4E020000 		.4byte	0x24e
 3114 1870 7B180000 		.4byte	0x187b
 3115 1874 15       		.uleb128 0x15
 3116 1875 51040000 		.4byte	0x451
 3117 1879 02       		.byte	0x2
 3118 187a 00       		.byte	0
 3119 187b 14       		.uleb128 0x14
 3120 187c B9000000 		.4byte	0xb9
 3121 1880 8B180000 		.4byte	0x188b
 3122 1884 15       		.uleb128 0x15
 3123 1885 51040000 		.4byte	0x451
 3124 1889 07       		.byte	0x7
 3125 188a 00       		.byte	0
 3126 188b 0B       		.uleb128 0xb
 3127 188c 04       		.byte	0x4
 3128 188d 76160000 		.4byte	0x1676
 3129 1891 0B       		.uleb128 0xb
 3130 1892 04       		.byte	0x4
 3131 1893 BE160000 		.4byte	0x16be
 3132 1897 19       		.uleb128 0x19
 3133 1898 880B0000 		.4byte	.LASF311
 3134 189c 17       		.byte	0x17
 3135 189d 3902     		.2byte	0x239
ARM GAS  /tmp/cccR1v5y.s 			page 56


 3136 189f 880E0000 		.4byte	0xe88
 3137 18a3 28       		.uleb128 0x28
 3138 18a4 64030000 		.4byte	.LASF312
 3139 18a8 01       		.byte	0x1
 3140 18a9 6D       		.byte	0x6d
 3141 18aa 00000000 		.4byte	.LFB254
 3142 18ae 1C000000 		.4byte	.LFE254-.LFB254
 3143 18b2 01       		.uleb128 0x1
 3144 18b3 9C       		.byte	0x9c
 3145 18b4 C6180000 		.4byte	0x18c6
 3146 18b8 29       		.uleb128 0x29
 3147 18b9 6E00     		.ascii	"n\000"
 3148 18bb 01       		.byte	0x1
 3149 18bc 6D       		.byte	0x6d
 3150 18bd E9000000 		.4byte	0xe9
 3151 18c1 00000000 		.4byte	.LLST4
 3152 18c5 00       		.byte	0
 3153 18c6 28       		.uleb128 0x28
 3154 18c7 BB060000 		.4byte	.LASF313
 3155 18cb 01       		.byte	0x1
 3156 18cc 5A       		.byte	0x5a
 3157 18cd 00000000 		.4byte	.LFB253
 3158 18d1 10000000 		.4byte	.LFE253-.LFB253
 3159 18d5 01       		.uleb128 0x1
 3160 18d6 9C       		.byte	0x9c
 3161 18d7 03190000 		.4byte	0x1903
 3162 18db 2A       		.uleb128 0x2a
 3163 18dc 800B0000 		.4byte	.LASF314
 3164 18e0 01       		.byte	0x1
 3165 18e1 5A       		.byte	0x5a
 3166 18e2 E9000000 		.4byte	0xe9
 3167 18e6 21000000 		.4byte	.LLST2
 3168 18ea 2A       		.uleb128 0x2a
 3169 18eb 1D010000 		.4byte	.LASF28
 3170 18ef 01       		.byte	0x1
 3171 18f0 5A       		.byte	0x5a
 3172 18f1 E9000000 		.4byte	0xe9
 3173 18f5 56000000 		.4byte	.LLST3
 3174 18f9 2B       		.uleb128 0x2b
 3175 18fa B3000000 		.4byte	.LASF319
 3176 18fe 13190000 		.4byte	0x1913
 3177 1902 00       		.byte	0
 3178 1903 14       		.uleb128 0x14
 3179 1904 55090000 		.4byte	0x955
 3180 1908 13190000 		.4byte	0x1913
 3181 190c 15       		.uleb128 0x15
 3182 190d 51040000 		.4byte	0x451
 3183 1911 1C       		.byte	0x1c
 3184 1912 00       		.byte	0
 3185 1913 06       		.uleb128 0x6
 3186 1914 03190000 		.4byte	0x1903
 3187 1918 28       		.uleb128 0x28
 3188 1919 68090000 		.4byte	.LASF315
 3189 191d 01       		.byte	0x1
 3190 191e 4A       		.byte	0x4a
 3191 191f 00000000 		.4byte	.LFB252
 3192 1923 20000000 		.4byte	.LFE252-.LFB252
ARM GAS  /tmp/cccR1v5y.s 			page 57


 3193 1927 01       		.uleb128 0x1
 3194 1928 9C       		.byte	0x9c
 3195 1929 39190000 		.4byte	0x1939
 3196 192d 2C       		.uleb128 0x2c
 3197 192e 6E00     		.ascii	"n\000"
 3198 1930 01       		.byte	0x1
 3199 1931 4A       		.byte	0x4a
 3200 1932 E9000000 		.4byte	0xe9
 3201 1936 01       		.uleb128 0x1
 3202 1937 50       		.byte	0x50
 3203 1938 00       		.byte	0
 3204 1939 2D       		.uleb128 0x2d
 3205 193a 1B0D0000 		.4byte	.LASF320
 3206 193e 01       		.byte	0x1
 3207 193f 39       		.byte	0x39
 3208 1940 00000000 		.4byte	.LFB251
 3209 1944 2C000000 		.4byte	.LFE251-.LFB251
 3210 1948 01       		.uleb128 0x1
 3211 1949 9C       		.byte	0x9c
 3212 194a 29       		.uleb128 0x29
 3213 194b 6E00     		.ascii	"n\000"
 3214 194d 01       		.byte	0x1
 3215 194e 39       		.byte	0x39
 3216 194f E9000000 		.4byte	0xe9
 3217 1953 77000000 		.4byte	.LLST0
 3218 1957 2A       		.uleb128 0x2a
 3219 1958 1D010000 		.4byte	.LASF28
 3220 195c 01       		.byte	0x1
 3221 195d 39       		.byte	0x39
 3222 195e E9000000 		.4byte	0xe9
 3223 1962 BA000000 		.4byte	.LLST1
 3224 1966 00       		.byte	0
 3225 1967 00       		.byte	0
 3226              		.section	.debug_abbrev,"",%progbits
 3227              	.Ldebug_abbrev0:
 3228 0000 01       		.uleb128 0x1
 3229 0001 11       		.uleb128 0x11
 3230 0002 01       		.byte	0x1
 3231 0003 25       		.uleb128 0x25
 3232 0004 0E       		.uleb128 0xe
 3233 0005 13       		.uleb128 0x13
 3234 0006 0B       		.uleb128 0xb
 3235 0007 03       		.uleb128 0x3
 3236 0008 0E       		.uleb128 0xe
 3237 0009 1B       		.uleb128 0x1b
 3238 000a 0E       		.uleb128 0xe
 3239 000b 55       		.uleb128 0x55
 3240 000c 17       		.uleb128 0x17
 3241 000d 11       		.uleb128 0x11
 3242 000e 01       		.uleb128 0x1
 3243 000f 10       		.uleb128 0x10
 3244 0010 17       		.uleb128 0x17
 3245 0011 00       		.byte	0
 3246 0012 00       		.byte	0
 3247 0013 02       		.uleb128 0x2
 3248 0014 24       		.uleb128 0x24
 3249 0015 00       		.byte	0
ARM GAS  /tmp/cccR1v5y.s 			page 58


 3250 0016 0B       		.uleb128 0xb
 3251 0017 0B       		.uleb128 0xb
 3252 0018 3E       		.uleb128 0x3e
 3253 0019 0B       		.uleb128 0xb
 3254 001a 03       		.uleb128 0x3
 3255 001b 08       		.uleb128 0x8
 3256 001c 00       		.byte	0
 3257 001d 00       		.byte	0
 3258 001e 03       		.uleb128 0x3
 3259 001f 16       		.uleb128 0x16
 3260 0020 00       		.byte	0
 3261 0021 03       		.uleb128 0x3
 3262 0022 0E       		.uleb128 0xe
 3263 0023 3A       		.uleb128 0x3a
 3264 0024 0B       		.uleb128 0xb
 3265 0025 3B       		.uleb128 0x3b
 3266 0026 0B       		.uleb128 0xb
 3267 0027 49       		.uleb128 0x49
 3268 0028 13       		.uleb128 0x13
 3269 0029 00       		.byte	0
 3270 002a 00       		.byte	0
 3271 002b 04       		.uleb128 0x4
 3272 002c 35       		.uleb128 0x35
 3273 002d 00       		.byte	0
 3274 002e 49       		.uleb128 0x49
 3275 002f 13       		.uleb128 0x13
 3276 0030 00       		.byte	0
 3277 0031 00       		.byte	0
 3278 0032 05       		.uleb128 0x5
 3279 0033 24       		.uleb128 0x24
 3280 0034 00       		.byte	0
 3281 0035 0B       		.uleb128 0xb
 3282 0036 0B       		.uleb128 0xb
 3283 0037 3E       		.uleb128 0x3e
 3284 0038 0B       		.uleb128 0xb
 3285 0039 03       		.uleb128 0x3
 3286 003a 0E       		.uleb128 0xe
 3287 003b 00       		.byte	0
 3288 003c 00       		.byte	0
 3289 003d 06       		.uleb128 0x6
 3290 003e 26       		.uleb128 0x26
 3291 003f 00       		.byte	0
 3292 0040 49       		.uleb128 0x49
 3293 0041 13       		.uleb128 0x13
 3294 0042 00       		.byte	0
 3295 0043 00       		.byte	0
 3296 0044 07       		.uleb128 0x7
 3297 0045 13       		.uleb128 0x13
 3298 0046 01       		.byte	0x1
 3299 0047 03       		.uleb128 0x3
 3300 0048 0E       		.uleb128 0xe
 3301 0049 0B       		.uleb128 0xb
 3302 004a 0B       		.uleb128 0xb
 3303 004b 3A       		.uleb128 0x3a
 3304 004c 0B       		.uleb128 0xb
 3305 004d 3B       		.uleb128 0x3b
 3306 004e 0B       		.uleb128 0xb
ARM GAS  /tmp/cccR1v5y.s 			page 59


 3307 004f 01       		.uleb128 0x1
 3308 0050 13       		.uleb128 0x13
 3309 0051 00       		.byte	0
 3310 0052 00       		.byte	0
 3311 0053 08       		.uleb128 0x8
 3312 0054 0D       		.uleb128 0xd
 3313 0055 00       		.byte	0
 3314 0056 03       		.uleb128 0x3
 3315 0057 0E       		.uleb128 0xe
 3316 0058 3A       		.uleb128 0x3a
 3317 0059 0B       		.uleb128 0xb
 3318 005a 3B       		.uleb128 0x3b
 3319 005b 0B       		.uleb128 0xb
 3320 005c 49       		.uleb128 0x49
 3321 005d 13       		.uleb128 0x13
 3322 005e 38       		.uleb128 0x38
 3323 005f 0B       		.uleb128 0xb
 3324 0060 00       		.byte	0
 3325 0061 00       		.byte	0
 3326 0062 09       		.uleb128 0x9
 3327 0063 0D       		.uleb128 0xd
 3328 0064 00       		.byte	0
 3329 0065 03       		.uleb128 0x3
 3330 0066 08       		.uleb128 0x8
 3331 0067 3A       		.uleb128 0x3a
 3332 0068 0B       		.uleb128 0xb
 3333 0069 3B       		.uleb128 0x3b
 3334 006a 0B       		.uleb128 0xb
 3335 006b 49       		.uleb128 0x49
 3336 006c 13       		.uleb128 0x13
 3337 006d 38       		.uleb128 0x38
 3338 006e 0B       		.uleb128 0xb
 3339 006f 00       		.byte	0
 3340 0070 00       		.byte	0
 3341 0071 0A       		.uleb128 0xa
 3342 0072 0D       		.uleb128 0xd
 3343 0073 00       		.byte	0
 3344 0074 03       		.uleb128 0x3
 3345 0075 08       		.uleb128 0x8
 3346 0076 3A       		.uleb128 0x3a
 3347 0077 0B       		.uleb128 0xb
 3348 0078 3B       		.uleb128 0x3b
 3349 0079 05       		.uleb128 0x5
 3350 007a 49       		.uleb128 0x49
 3351 007b 13       		.uleb128 0x13
 3352 007c 38       		.uleb128 0x38
 3353 007d 0B       		.uleb128 0xb
 3354 007e 00       		.byte	0
 3355 007f 00       		.byte	0
 3356 0080 0B       		.uleb128 0xb
 3357 0081 0F       		.uleb128 0xf
 3358 0082 00       		.byte	0
 3359 0083 0B       		.uleb128 0xb
 3360 0084 0B       		.uleb128 0xb
 3361 0085 49       		.uleb128 0x49
 3362 0086 13       		.uleb128 0x13
 3363 0087 00       		.byte	0
ARM GAS  /tmp/cccR1v5y.s 			page 60


 3364 0088 00       		.byte	0
 3365 0089 0C       		.uleb128 0xc
 3366 008a 13       		.uleb128 0x13
 3367 008b 01       		.byte	0x1
 3368 008c 03       		.uleb128 0x3
 3369 008d 0E       		.uleb128 0xe
 3370 008e 0B       		.uleb128 0xb
 3371 008f 0B       		.uleb128 0xb
 3372 0090 3A       		.uleb128 0x3a
 3373 0091 0B       		.uleb128 0xb
 3374 0092 3B       		.uleb128 0x3b
 3375 0093 05       		.uleb128 0x5
 3376 0094 01       		.uleb128 0x1
 3377 0095 13       		.uleb128 0x13
 3378 0096 00       		.byte	0
 3379 0097 00       		.byte	0
 3380 0098 0D       		.uleb128 0xd
 3381 0099 0D       		.uleb128 0xd
 3382 009a 00       		.byte	0
 3383 009b 03       		.uleb128 0x3
 3384 009c 0E       		.uleb128 0xe
 3385 009d 3A       		.uleb128 0x3a
 3386 009e 0B       		.uleb128 0xb
 3387 009f 3B       		.uleb128 0x3b
 3388 00a0 05       		.uleb128 0x5
 3389 00a1 49       		.uleb128 0x49
 3390 00a2 13       		.uleb128 0x13
 3391 00a3 38       		.uleb128 0x38
 3392 00a4 0B       		.uleb128 0xb
 3393 00a5 00       		.byte	0
 3394 00a6 00       		.byte	0
 3395 00a7 0E       		.uleb128 0xe
 3396 00a8 15       		.uleb128 0x15
 3397 00a9 01       		.byte	0x1
 3398 00aa 27       		.uleb128 0x27
 3399 00ab 19       		.uleb128 0x19
 3400 00ac 01       		.uleb128 0x1
 3401 00ad 13       		.uleb128 0x13
 3402 00ae 00       		.byte	0
 3403 00af 00       		.byte	0
 3404 00b0 0F       		.uleb128 0xf
 3405 00b1 05       		.uleb128 0x5
 3406 00b2 00       		.byte	0
 3407 00b3 49       		.uleb128 0x49
 3408 00b4 13       		.uleb128 0x13
 3409 00b5 00       		.byte	0
 3410 00b6 00       		.byte	0
 3411 00b7 10       		.uleb128 0x10
 3412 00b8 0F       		.uleb128 0xf
 3413 00b9 00       		.byte	0
 3414 00ba 0B       		.uleb128 0xb
 3415 00bb 0B       		.uleb128 0xb
 3416 00bc 00       		.byte	0
 3417 00bd 00       		.byte	0
 3418 00be 11       		.uleb128 0x11
 3419 00bf 13       		.uleb128 0x13
 3420 00c0 01       		.byte	0x1
ARM GAS  /tmp/cccR1v5y.s 			page 61


 3421 00c1 0B       		.uleb128 0xb
 3422 00c2 05       		.uleb128 0x5
 3423 00c3 3A       		.uleb128 0x3a
 3424 00c4 0B       		.uleb128 0xb
 3425 00c5 3B       		.uleb128 0x3b
 3426 00c6 05       		.uleb128 0x5
 3427 00c7 01       		.uleb128 0x1
 3428 00c8 13       		.uleb128 0x13
 3429 00c9 00       		.byte	0
 3430 00ca 00       		.byte	0
 3431 00cb 12       		.uleb128 0x12
 3432 00cc 0D       		.uleb128 0xd
 3433 00cd 00       		.byte	0
 3434 00ce 03       		.uleb128 0x3
 3435 00cf 0E       		.uleb128 0xe
 3436 00d0 3A       		.uleb128 0x3a
 3437 00d1 0B       		.uleb128 0xb
 3438 00d2 3B       		.uleb128 0x3b
 3439 00d3 05       		.uleb128 0x5
 3440 00d4 49       		.uleb128 0x49
 3441 00d5 13       		.uleb128 0x13
 3442 00d6 38       		.uleb128 0x38
 3443 00d7 05       		.uleb128 0x5
 3444 00d8 00       		.byte	0
 3445 00d9 00       		.byte	0
 3446 00da 13       		.uleb128 0x13
 3447 00db 0D       		.uleb128 0xd
 3448 00dc 00       		.byte	0
 3449 00dd 03       		.uleb128 0x3
 3450 00de 08       		.uleb128 0x8
 3451 00df 3A       		.uleb128 0x3a
 3452 00e0 0B       		.uleb128 0xb
 3453 00e1 3B       		.uleb128 0x3b
 3454 00e2 05       		.uleb128 0x5
 3455 00e3 49       		.uleb128 0x49
 3456 00e4 13       		.uleb128 0x13
 3457 00e5 38       		.uleb128 0x38
 3458 00e6 05       		.uleb128 0x5
 3459 00e7 00       		.byte	0
 3460 00e8 00       		.byte	0
 3461 00e9 14       		.uleb128 0x14
 3462 00ea 01       		.uleb128 0x1
 3463 00eb 01       		.byte	0x1
 3464 00ec 49       		.uleb128 0x49
 3465 00ed 13       		.uleb128 0x13
 3466 00ee 01       		.uleb128 0x1
 3467 00ef 13       		.uleb128 0x13
 3468 00f0 00       		.byte	0
 3469 00f1 00       		.byte	0
 3470 00f2 15       		.uleb128 0x15
 3471 00f3 21       		.uleb128 0x21
 3472 00f4 00       		.byte	0
 3473 00f5 49       		.uleb128 0x49
 3474 00f6 13       		.uleb128 0x13
 3475 00f7 2F       		.uleb128 0x2f
 3476 00f8 0B       		.uleb128 0xb
 3477 00f9 00       		.byte	0
ARM GAS  /tmp/cccR1v5y.s 			page 62


 3478 00fa 00       		.byte	0
 3479 00fb 16       		.uleb128 0x16
 3480 00fc 21       		.uleb128 0x21
 3481 00fd 00       		.byte	0
 3482 00fe 49       		.uleb128 0x49
 3483 00ff 13       		.uleb128 0x13
 3484 0100 2F       		.uleb128 0x2f
 3485 0101 05       		.uleb128 0x5
 3486 0102 00       		.byte	0
 3487 0103 00       		.byte	0
 3488 0104 17       		.uleb128 0x17
 3489 0105 16       		.uleb128 0x16
 3490 0106 00       		.byte	0
 3491 0107 03       		.uleb128 0x3
 3492 0108 0E       		.uleb128 0xe
 3493 0109 3A       		.uleb128 0x3a
 3494 010a 0B       		.uleb128 0xb
 3495 010b 3B       		.uleb128 0x3b
 3496 010c 05       		.uleb128 0x5
 3497 010d 49       		.uleb128 0x49
 3498 010e 13       		.uleb128 0x13
 3499 010f 00       		.byte	0
 3500 0110 00       		.byte	0
 3501 0111 18       		.uleb128 0x18
 3502 0112 13       		.uleb128 0x13
 3503 0113 01       		.byte	0x1
 3504 0114 0B       		.uleb128 0xb
 3505 0115 0B       		.uleb128 0xb
 3506 0116 3A       		.uleb128 0x3a
 3507 0117 0B       		.uleb128 0xb
 3508 0118 3B       		.uleb128 0x3b
 3509 0119 05       		.uleb128 0x5
 3510 011a 01       		.uleb128 0x1
 3511 011b 13       		.uleb128 0x13
 3512 011c 00       		.byte	0
 3513 011d 00       		.byte	0
 3514 011e 19       		.uleb128 0x19
 3515 011f 34       		.uleb128 0x34
 3516 0120 00       		.byte	0
 3517 0121 03       		.uleb128 0x3
 3518 0122 0E       		.uleb128 0xe
 3519 0123 3A       		.uleb128 0x3a
 3520 0124 0B       		.uleb128 0xb
 3521 0125 3B       		.uleb128 0x3b
 3522 0126 05       		.uleb128 0x5
 3523 0127 49       		.uleb128 0x49
 3524 0128 13       		.uleb128 0x13
 3525 0129 3F       		.uleb128 0x3f
 3526 012a 19       		.uleb128 0x19
 3527 012b 3C       		.uleb128 0x3c
 3528 012c 19       		.uleb128 0x19
 3529 012d 00       		.byte	0
 3530 012e 00       		.byte	0
 3531 012f 1A       		.uleb128 0x1a
 3532 0130 34       		.uleb128 0x34
 3533 0131 00       		.byte	0
 3534 0132 03       		.uleb128 0x3
ARM GAS  /tmp/cccR1v5y.s 			page 63


 3535 0133 0E       		.uleb128 0xe
 3536 0134 3A       		.uleb128 0x3a
 3537 0135 0B       		.uleb128 0xb
 3538 0136 3B       		.uleb128 0x3b
 3539 0137 0B       		.uleb128 0xb
 3540 0138 49       		.uleb128 0x49
 3541 0139 13       		.uleb128 0x13
 3542 013a 3F       		.uleb128 0x3f
 3543 013b 19       		.uleb128 0x19
 3544 013c 3C       		.uleb128 0x3c
 3545 013d 19       		.uleb128 0x19
 3546 013e 00       		.byte	0
 3547 013f 00       		.byte	0
 3548 0140 1B       		.uleb128 0x1b
 3549 0141 17       		.uleb128 0x17
 3550 0142 01       		.byte	0x1
 3551 0143 0B       		.uleb128 0xb
 3552 0144 0B       		.uleb128 0xb
 3553 0145 3A       		.uleb128 0x3a
 3554 0146 0B       		.uleb128 0xb
 3555 0147 3B       		.uleb128 0x3b
 3556 0148 0B       		.uleb128 0xb
 3557 0149 01       		.uleb128 0x1
 3558 014a 13       		.uleb128 0x13
 3559 014b 00       		.byte	0
 3560 014c 00       		.byte	0
 3561 014d 1C       		.uleb128 0x1c
 3562 014e 0D       		.uleb128 0xd
 3563 014f 00       		.byte	0
 3564 0150 03       		.uleb128 0x3
 3565 0151 0E       		.uleb128 0xe
 3566 0152 3A       		.uleb128 0x3a
 3567 0153 0B       		.uleb128 0xb
 3568 0154 3B       		.uleb128 0x3b
 3569 0155 0B       		.uleb128 0xb
 3570 0156 49       		.uleb128 0x49
 3571 0157 13       		.uleb128 0x13
 3572 0158 00       		.byte	0
 3573 0159 00       		.byte	0
 3574 015a 1D       		.uleb128 0x1d
 3575 015b 34       		.uleb128 0x34
 3576 015c 00       		.byte	0
 3577 015d 03       		.uleb128 0x3
 3578 015e 08       		.uleb128 0x8
 3579 015f 3A       		.uleb128 0x3a
 3580 0160 0B       		.uleb128 0xb
 3581 0161 3B       		.uleb128 0x3b
 3582 0162 05       		.uleb128 0x5
 3583 0163 49       		.uleb128 0x49
 3584 0164 13       		.uleb128 0x13
 3585 0165 3F       		.uleb128 0x3f
 3586 0166 19       		.uleb128 0x19
 3587 0167 3C       		.uleb128 0x3c
 3588 0168 19       		.uleb128 0x19
 3589 0169 00       		.byte	0
 3590 016a 00       		.byte	0
 3591 016b 1E       		.uleb128 0x1e
ARM GAS  /tmp/cccR1v5y.s 			page 64


 3592 016c 21       		.uleb128 0x21
 3593 016d 00       		.byte	0
 3594 016e 00       		.byte	0
 3595 016f 00       		.byte	0
 3596 0170 1F       		.uleb128 0x1f
 3597 0171 15       		.uleb128 0x15
 3598 0172 01       		.byte	0x1
 3599 0173 27       		.uleb128 0x27
 3600 0174 19       		.uleb128 0x19
 3601 0175 49       		.uleb128 0x49
 3602 0176 13       		.uleb128 0x13
 3603 0177 01       		.uleb128 0x1
 3604 0178 13       		.uleb128 0x13
 3605 0179 00       		.byte	0
 3606 017a 00       		.byte	0
 3607 017b 20       		.uleb128 0x20
 3608 017c 13       		.uleb128 0x13
 3609 017d 01       		.byte	0x1
 3610 017e 0B       		.uleb128 0xb
 3611 017f 0B       		.uleb128 0xb
 3612 0180 3A       		.uleb128 0x3a
 3613 0181 0B       		.uleb128 0xb
 3614 0182 3B       		.uleb128 0x3b
 3615 0183 0B       		.uleb128 0xb
 3616 0184 01       		.uleb128 0x1
 3617 0185 13       		.uleb128 0x13
 3618 0186 00       		.byte	0
 3619 0187 00       		.byte	0
 3620 0188 21       		.uleb128 0x21
 3621 0189 04       		.uleb128 0x4
 3622 018a 01       		.byte	0x1
 3623 018b 0B       		.uleb128 0xb
 3624 018c 0B       		.uleb128 0xb
 3625 018d 49       		.uleb128 0x49
 3626 018e 13       		.uleb128 0x13
 3627 018f 3A       		.uleb128 0x3a
 3628 0190 0B       		.uleb128 0xb
 3629 0191 3B       		.uleb128 0x3b
 3630 0192 0B       		.uleb128 0xb
 3631 0193 01       		.uleb128 0x1
 3632 0194 13       		.uleb128 0x13
 3633 0195 00       		.byte	0
 3634 0196 00       		.byte	0
 3635 0197 22       		.uleb128 0x22
 3636 0198 28       		.uleb128 0x28
 3637 0199 00       		.byte	0
 3638 019a 03       		.uleb128 0x3
 3639 019b 0E       		.uleb128 0xe
 3640 019c 1C       		.uleb128 0x1c
 3641 019d 0B       		.uleb128 0xb
 3642 019e 00       		.byte	0
 3643 019f 00       		.byte	0
 3644 01a0 23       		.uleb128 0x23
 3645 01a1 13       		.uleb128 0x13
 3646 01a2 01       		.byte	0x1
 3647 01a3 03       		.uleb128 0x3
 3648 01a4 0E       		.uleb128 0xe
ARM GAS  /tmp/cccR1v5y.s 			page 65


 3649 01a5 0B       		.uleb128 0xb
 3650 01a6 05       		.uleb128 0x5
 3651 01a7 3A       		.uleb128 0x3a
 3652 01a8 0B       		.uleb128 0xb
 3653 01a9 3B       		.uleb128 0x3b
 3654 01aa 0B       		.uleb128 0xb
 3655 01ab 01       		.uleb128 0x1
 3656 01ac 13       		.uleb128 0x13
 3657 01ad 00       		.byte	0
 3658 01ae 00       		.byte	0
 3659 01af 24       		.uleb128 0x24
 3660 01b0 0D       		.uleb128 0xd
 3661 01b1 00       		.byte	0
 3662 01b2 03       		.uleb128 0x3
 3663 01b3 08       		.uleb128 0x8
 3664 01b4 3A       		.uleb128 0x3a
 3665 01b5 0B       		.uleb128 0xb
 3666 01b6 3B       		.uleb128 0x3b
 3667 01b7 0B       		.uleb128 0xb
 3668 01b8 49       		.uleb128 0x49
 3669 01b9 13       		.uleb128 0x13
 3670 01ba 38       		.uleb128 0x38
 3671 01bb 05       		.uleb128 0x5
 3672 01bc 00       		.byte	0
 3673 01bd 00       		.byte	0
 3674 01be 25       		.uleb128 0x25
 3675 01bf 0D       		.uleb128 0xd
 3676 01c0 00       		.byte	0
 3677 01c1 03       		.uleb128 0x3
 3678 01c2 0E       		.uleb128 0xe
 3679 01c3 3A       		.uleb128 0x3a
 3680 01c4 0B       		.uleb128 0xb
 3681 01c5 3B       		.uleb128 0x3b
 3682 01c6 0B       		.uleb128 0xb
 3683 01c7 49       		.uleb128 0x49
 3684 01c8 13       		.uleb128 0x13
 3685 01c9 38       		.uleb128 0x38
 3686 01ca 05       		.uleb128 0x5
 3687 01cb 00       		.byte	0
 3688 01cc 00       		.byte	0
 3689 01cd 26       		.uleb128 0x26
 3690 01ce 04       		.uleb128 0x4
 3691 01cf 01       		.byte	0x1
 3692 01d0 0B       		.uleb128 0xb
 3693 01d1 0B       		.uleb128 0xb
 3694 01d2 49       		.uleb128 0x49
 3695 01d3 13       		.uleb128 0x13
 3696 01d4 3A       		.uleb128 0x3a
 3697 01d5 0B       		.uleb128 0xb
 3698 01d6 3B       		.uleb128 0x3b
 3699 01d7 05       		.uleb128 0x5
 3700 01d8 01       		.uleb128 0x1
 3701 01d9 13       		.uleb128 0x13
 3702 01da 00       		.byte	0
 3703 01db 00       		.byte	0
 3704 01dc 27       		.uleb128 0x27
 3705 01dd 13       		.uleb128 0x13
ARM GAS  /tmp/cccR1v5y.s 			page 66


 3706 01de 01       		.byte	0x1
 3707 01df 0B       		.uleb128 0xb
 3708 01e0 06       		.uleb128 0x6
 3709 01e1 3A       		.uleb128 0x3a
 3710 01e2 0B       		.uleb128 0xb
 3711 01e3 3B       		.uleb128 0x3b
 3712 01e4 0B       		.uleb128 0xb
 3713 01e5 01       		.uleb128 0x1
 3714 01e6 13       		.uleb128 0x13
 3715 01e7 00       		.byte	0
 3716 01e8 00       		.byte	0
 3717 01e9 28       		.uleb128 0x28
 3718 01ea 2E       		.uleb128 0x2e
 3719 01eb 01       		.byte	0x1
 3720 01ec 3F       		.uleb128 0x3f
 3721 01ed 19       		.uleb128 0x19
 3722 01ee 03       		.uleb128 0x3
 3723 01ef 0E       		.uleb128 0xe
 3724 01f0 3A       		.uleb128 0x3a
 3725 01f1 0B       		.uleb128 0xb
 3726 01f2 3B       		.uleb128 0x3b
 3727 01f3 0B       		.uleb128 0xb
 3728 01f4 27       		.uleb128 0x27
 3729 01f5 19       		.uleb128 0x19
 3730 01f6 11       		.uleb128 0x11
 3731 01f7 01       		.uleb128 0x1
 3732 01f8 12       		.uleb128 0x12
 3733 01f9 06       		.uleb128 0x6
 3734 01fa 40       		.uleb128 0x40
 3735 01fb 18       		.uleb128 0x18
 3736 01fc 9742     		.uleb128 0x2117
 3737 01fe 19       		.uleb128 0x19
 3738 01ff 01       		.uleb128 0x1
 3739 0200 13       		.uleb128 0x13
 3740 0201 00       		.byte	0
 3741 0202 00       		.byte	0
 3742 0203 29       		.uleb128 0x29
 3743 0204 05       		.uleb128 0x5
 3744 0205 00       		.byte	0
 3745 0206 03       		.uleb128 0x3
 3746 0207 08       		.uleb128 0x8
 3747 0208 3A       		.uleb128 0x3a
 3748 0209 0B       		.uleb128 0xb
 3749 020a 3B       		.uleb128 0x3b
 3750 020b 0B       		.uleb128 0xb
 3751 020c 49       		.uleb128 0x49
 3752 020d 13       		.uleb128 0x13
 3753 020e 02       		.uleb128 0x2
 3754 020f 17       		.uleb128 0x17
 3755 0210 00       		.byte	0
 3756 0211 00       		.byte	0
 3757 0212 2A       		.uleb128 0x2a
 3758 0213 05       		.uleb128 0x5
 3759 0214 00       		.byte	0
 3760 0215 03       		.uleb128 0x3
 3761 0216 0E       		.uleb128 0xe
 3762 0217 3A       		.uleb128 0x3a
ARM GAS  /tmp/cccR1v5y.s 			page 67


 3763 0218 0B       		.uleb128 0xb
 3764 0219 3B       		.uleb128 0x3b
 3765 021a 0B       		.uleb128 0xb
 3766 021b 49       		.uleb128 0x49
 3767 021c 13       		.uleb128 0x13
 3768 021d 02       		.uleb128 0x2
 3769 021e 17       		.uleb128 0x17
 3770 021f 00       		.byte	0
 3771 0220 00       		.byte	0
 3772 0221 2B       		.uleb128 0x2b
 3773 0222 34       		.uleb128 0x34
 3774 0223 00       		.byte	0
 3775 0224 03       		.uleb128 0x3
 3776 0225 0E       		.uleb128 0xe
 3777 0226 49       		.uleb128 0x49
 3778 0227 13       		.uleb128 0x13
 3779 0228 34       		.uleb128 0x34
 3780 0229 19       		.uleb128 0x19
 3781 022a 00       		.byte	0
 3782 022b 00       		.byte	0
 3783 022c 2C       		.uleb128 0x2c
 3784 022d 05       		.uleb128 0x5
 3785 022e 00       		.byte	0
 3786 022f 03       		.uleb128 0x3
 3787 0230 08       		.uleb128 0x8
 3788 0231 3A       		.uleb128 0x3a
 3789 0232 0B       		.uleb128 0xb
 3790 0233 3B       		.uleb128 0x3b
 3791 0234 0B       		.uleb128 0xb
 3792 0235 49       		.uleb128 0x49
 3793 0236 13       		.uleb128 0x13
 3794 0237 02       		.uleb128 0x2
 3795 0238 18       		.uleb128 0x18
 3796 0239 00       		.byte	0
 3797 023a 00       		.byte	0
 3798 023b 2D       		.uleb128 0x2d
 3799 023c 2E       		.uleb128 0x2e
 3800 023d 01       		.byte	0x1
 3801 023e 3F       		.uleb128 0x3f
 3802 023f 19       		.uleb128 0x19
 3803 0240 03       		.uleb128 0x3
 3804 0241 0E       		.uleb128 0xe
 3805 0242 3A       		.uleb128 0x3a
 3806 0243 0B       		.uleb128 0xb
 3807 0244 3B       		.uleb128 0x3b
 3808 0245 0B       		.uleb128 0xb
 3809 0246 27       		.uleb128 0x27
 3810 0247 19       		.uleb128 0x19
 3811 0248 11       		.uleb128 0x11
 3812 0249 01       		.uleb128 0x1
 3813 024a 12       		.uleb128 0x12
 3814 024b 06       		.uleb128 0x6
 3815 024c 40       		.uleb128 0x40
 3816 024d 18       		.uleb128 0x18
 3817 024e 9742     		.uleb128 0x2117
 3818 0250 19       		.uleb128 0x19
 3819 0251 00       		.byte	0
ARM GAS  /tmp/cccR1v5y.s 			page 68


 3820 0252 00       		.byte	0
 3821 0253 00       		.byte	0
 3822              		.section	.debug_loc,"",%progbits
 3823              	.Ldebug_loc0:
 3824              	.LLST4:
 3825 0000 00000000 		.4byte	.LVL10
 3826 0004 08000000 		.4byte	.LVL11
 3827 0008 0100     		.2byte	0x1
 3828 000a 50       		.byte	0x50
 3829 000b 08000000 		.4byte	.LVL11
 3830 000f 1C000000 		.4byte	.LFE254
 3831 0013 0400     		.2byte	0x4
 3832 0015 F3       		.byte	0xf3
 3833 0016 01       		.uleb128 0x1
 3834 0017 50       		.byte	0x50
 3835 0018 9F       		.byte	0x9f
 3836 0019 00000000 		.4byte	0
 3837 001d 00000000 		.4byte	0
 3838              	.LLST2:
 3839 0021 00000000 		.4byte	.LVL6
 3840 0025 04000000 		.4byte	.LVL7
 3841 0029 0100     		.2byte	0x1
 3842 002b 50       		.byte	0x50
 3843 002c 04000000 		.4byte	.LVL7
 3844 0030 0A000000 		.4byte	.LVL9
 3845 0034 0700     		.2byte	0x7
 3846 0036 70       		.byte	0x70
 3847 0037 80808080 		.sleb128 536870912
 3847      02
 3848 003c 9F       		.byte	0x9f
 3849 003d 0A000000 		.4byte	.LVL9
 3850 0041 10000000 		.4byte	.LFE253
 3851 0045 0700     		.2byte	0x7
 3852 0047 70       		.byte	0x70
 3853 0048 80A6FCFF 		.sleb128 536810240
 3853      01
 3854 004d 9F       		.byte	0x9f
 3855 004e 00000000 		.4byte	0
 3856 0052 00000000 		.4byte	0
 3857              	.LLST3:
 3858 0056 00000000 		.4byte	.LVL6
 3859 005a 06000000 		.4byte	.LVL8
 3860 005e 0100     		.2byte	0x1
 3861 0060 51       		.byte	0x51
 3862 0061 06000000 		.4byte	.LVL8
 3863 0065 10000000 		.4byte	.LFE253
 3864 0069 0400     		.2byte	0x4
 3865 006b F3       		.byte	0xf3
 3866 006c 01       		.uleb128 0x1
 3867 006d 51       		.byte	0x51
 3868 006e 9F       		.byte	0x9f
 3869 006f 00000000 		.4byte	0
 3870 0073 00000000 		.4byte	0
 3871              	.LLST0:
 3872 0077 00000000 		.4byte	.LVL0
 3873 007b 0A000000 		.4byte	.LVL1
 3874 007f 0100     		.2byte	0x1
ARM GAS  /tmp/cccR1v5y.s 			page 69


 3875 0081 50       		.byte	0x50
 3876 0082 0A000000 		.4byte	.LVL1
 3877 0086 0E000000 		.4byte	.LVL2
 3878 008a 0700     		.2byte	0x7
 3879 008c 73       		.byte	0x73
 3880 008d 80808080 		.sleb128 536870912
 3880      02
 3881 0092 9F       		.byte	0x9f
 3882 0093 0E000000 		.4byte	.LVL2
 3883 0097 22000000 		.4byte	.LVL4
 3884 009b 0700     		.2byte	0x7
 3885 009d 73       		.byte	0x73
 3886 009e 80BEFCFF 		.sleb128 536813312
 3886      01
 3887 00a3 9F       		.byte	0x9f
 3888 00a4 22000000 		.4byte	.LVL4
 3889 00a8 2C000000 		.4byte	.LFE251
 3890 00ac 0400     		.2byte	0x4
 3891 00ae F3       		.byte	0xf3
 3892 00af 01       		.uleb128 0x1
 3893 00b0 50       		.byte	0x50
 3894 00b1 9F       		.byte	0x9f
 3895 00b2 00000000 		.4byte	0
 3896 00b6 00000000 		.4byte	0
 3897              	.LLST1:
 3898 00ba 00000000 		.4byte	.LVL0
 3899 00be 10000000 		.4byte	.LVL3
 3900 00c2 0100     		.2byte	0x1
 3901 00c4 51       		.byte	0x51
 3902 00c5 10000000 		.4byte	.LVL3
 3903 00c9 2C000000 		.4byte	.LFE251
 3904 00cd 0400     		.2byte	0x4
 3905 00cf F3       		.byte	0xf3
 3906 00d0 01       		.uleb128 0x1
 3907 00d1 51       		.byte	0x51
 3908 00d2 9F       		.byte	0x9f
 3909 00d3 00000000 		.4byte	0
 3910 00d7 00000000 		.4byte	0
 3911              		.section	.debug_aranges,"",%progbits
 3912 0000 34000000 		.4byte	0x34
 3913 0004 0200     		.2byte	0x2
 3914 0006 00000000 		.4byte	.Ldebug_info0
 3915 000a 04       		.byte	0x4
 3916 000b 00       		.byte	0
 3917 000c 0000     		.2byte	0
 3918 000e 0000     		.2byte	0
 3919 0010 00000000 		.4byte	.LFB251
 3920 0014 2C000000 		.4byte	.LFE251-.LFB251
 3921 0018 00000000 		.4byte	.LFB252
 3922 001c 20000000 		.4byte	.LFE252-.LFB252
 3923 0020 00000000 		.4byte	.LFB253
 3924 0024 10000000 		.4byte	.LFE253-.LFB253
 3925 0028 00000000 		.4byte	.LFB254
 3926 002c 1C000000 		.4byte	.LFE254-.LFB254
 3927 0030 00000000 		.4byte	0
 3928 0034 00000000 		.4byte	0
 3929              		.section	.debug_ranges,"",%progbits
ARM GAS  /tmp/cccR1v5y.s 			page 70


 3930              	.Ldebug_ranges0:
 3931 0000 00000000 		.4byte	.LFB251
 3932 0004 2C000000 		.4byte	.LFE251
 3933 0008 00000000 		.4byte	.LFB252
 3934 000c 20000000 		.4byte	.LFE252
 3935 0010 00000000 		.4byte	.LFB253
 3936 0014 10000000 		.4byte	.LFE253
 3937 0018 00000000 		.4byte	.LFB254
 3938 001c 1C000000 		.4byte	.LFE254
 3939 0020 00000000 		.4byte	0
 3940 0024 00000000 		.4byte	0
 3941              		.section	.debug_line,"",%progbits
 3942              	.Ldebug_line0:
 3943 0000 D9040000 		.section	.debug_str,"MS",%progbits,1
 3943      02008904 
 3943      00000201 
 3943      FB0E0D00 
 3943      01010101 
 3944              	.LASF93:
 3945 0000 4D314152 		.ascii	"M1AR\000"
 3945      00
 3946              	.LASF61:
 3947 0005 52534552 		.ascii	"RSERVED1\000"
 3947      56454431 
 3947      00
 3948              	.LASF117:
 3949 000e 73746D33 		.ascii	"stm32_dma_stream_t\000"
 3949      325F646D 
 3949      615F7374 
 3949      7265616D 
 3949      5F7400
 3950              	.LASF4:
 3951 0021 73697A65 		.ascii	"size_t\000"
 3951      5F7400
 3952              	.LASF70:
 3953 0028 73697A65 		.ascii	"sizetype\000"
 3953      74797065 
 3953      00
 3954              	.LASF56:
 3955 0031 73797374 		.ascii	"systime_t\000"
 3955      696D655F 
 3955      7400
 3956              	.LASF23:
 3957 003b 74707269 		.ascii	"tprio_t\000"
 3957      6F5F7400 
 3958              	.LASF282:
 3959 0043 72785F66 		.ascii	"rx_fifo_size\000"
 3959      69666F5F 
 3959      73697A65 
 3959      00
 3960              	.LASF213:
 3961 0050 72657376 		.ascii	"resvd18\000"
 3961      64313800 
 3962              	.LASF18:
 3963 0058 696E7433 		.ascii	"int32_t\000"
 3963      325F7400 
 3964              	.LASF150:
ARM GAS  /tmp/cccR1v5y.s 			page 71


 3965 0060 53657269 		.ascii	"SerialConfig\000"
 3965      616C436F 
 3965      6E666967 
 3965      00
 3966              	.LASF157:
 3967 006d 77726974 		.ascii	"writet\000"
 3967      657400
 3968              	.LASF217:
 3969 0074 72657376 		.ascii	"resvd4\000"
 3969      643400
 3970              	.LASF208:
 3971 007b 72657376 		.ascii	"resvd8\000"
 3971      643800
 3972              	.LASF40:
 3973 0082 76746675 		.ascii	"vtfunc_t\000"
 3973      6E635F74 
 3973      00
 3974              	.LASF219:
 3975 008b 72657376 		.ascii	"resvdC\000"
 3975      644300
 3976              	.LASF46:
 3977 0092 63685F76 		.ascii	"ch_virtual_timers_list\000"
 3977      69727475 
 3977      616C5F74 
 3977      696D6572 
 3977      735F6C69 
 3978              	.LASF162:
 3979 00a9 696E5F70 		.ascii	"in_params\000"
 3979      6172616D 
 3979      7300
 3980              	.LASF319:
 3981 00b3 5F5F6675 		.ascii	"__func__\000"
 3981      6E635F5F 
 3981      00
 3982              	.LASF153:
 3983 00bc 77726974 		.ascii	"write\000"
 3983      6500
 3984              	.LASF74:
 3985 00c2 56544F52 		.ascii	"VTOR\000"
 3985      00
 3986              	.LASF211:
 3987 00c7 48435453 		.ascii	"HCTSIZ\000"
 3987      495A00
 3988              	.LASF257:
 3989 00ce 72657376 		.ascii	"resvd700\000"
 3989      64373030 
 3989      00
 3990              	.LASF146:
 3991 00d7 636F6E66 		.ascii	"config\000"
 3991      696700
 3992              	.LASF29:
 3993 00de 73746174 		.ascii	"state\000"
 3993      6500
 3994              	.LASF295:
 3995 00e4 65705F6D 		.ascii	"ep_mode\000"
 3995      6F646500 
 3996              	.LASF155:
ARM GAS  /tmp/cccR1v5y.s 			page 72


 3997 00ec 70757474 		.ascii	"putt\000"
 3997      00
 3998              	.LASF221:
 3999 00f1 44545846 		.ascii	"DTXFSTS\000"
 3999      53545300 
 4000              	.LASF180:
 4001 00f9 5553425F 		.ascii	"USB_ACTIVE\000"
 4001      41435449 
 4001      564500
 4002              	.LASF294:
 4003 0104 5553424F 		.ascii	"USBOutEndpointState\000"
 4003      7574456E 
 4003      64706F69 
 4003      6E745374 
 4003      61746500 
 4004              	.LASF64:
 4005 0118 49435052 		.ascii	"ICPR\000"
 4005      00
 4006              	.LASF28:
 4007 011d 7072696F 		.ascii	"prio\000"
 4007      00
 4008              	.LASF102:
 4009 0122 65786974 		.ascii	"exitcode\000"
 4009      636F6465 
 4009      00
 4010              	.LASF5:
 4011 012b 5F5F7569 		.ascii	"__uint8_t\000"
 4011      6E74385F 
 4011      7400
 4012              	.LASF125:
 4013 0135 715F746F 		.ascii	"q_top\000"
 4013      7000
 4014              	.LASF158:
 4015 013b 72656164 		.ascii	"readt\000"
 4015      7400
 4016              	.LASF75:
 4017 0141 41495243 		.ascii	"AIRCR\000"
 4017      5200
 4018              	.LASF124:
 4019 0147 715F6275 		.ascii	"q_buffer\000"
 4019      66666572 
 4019      00
 4020              	.LASF110:
 4021 0150 6576656E 		.ascii	"eventcallback_t\000"
 4021      7463616C 
 4021      6C626163 
 4021      6B5F7400 
 4022              	.LASF192:
 4023 0160 5553425F 		.ascii	"USB_EVENT_ADDRESS\000"
 4023      4556454E 
 4023      545F4144 
 4023      44524553 
 4023      5300
 4024              	.LASF238:
 4025 0172 44494550 		.ascii	"DIEPTXF0\000"
 4025      54584630 
 4025      00
ARM GAS  /tmp/cccR1v5y.s 			page 73


 4026              	.LASF128:
 4027 017b 715F6E6F 		.ascii	"q_notify\000"
 4027      74696679 
 4027      00
 4028              	.LASF11:
 4029 0184 6C6F6E67 		.ascii	"long int\000"
 4029      20696E74 
 4029      00
 4030              	.LASF127:
 4031 018d 715F7264 		.ascii	"q_rdptr\000"
 4031      70747200 
 4032              	.LASF72:
 4033 0195 43505549 		.ascii	"CPUID\000"
 4033      4400
 4034              	.LASF22:
 4035 019b 74737461 		.ascii	"tstate_t\000"
 4035      74655F74 
 4035      00
 4036              	.LASF183:
 4037 01a4 5553425F 		.ascii	"USB_EP0_STP_WAITING\000"
 4037      4550305F 
 4037      5354505F 
 4037      57414954 
 4037      494E4700 
 4038              	.LASF32:
 4039 01b8 74687265 		.ascii	"threads_queue_t\000"
 4039      6164735F 
 4039      71756575 
 4039      655F7400 
 4040              	.LASF143:
 4041 01c8 6F717565 		.ascii	"oqueue\000"
 4041      756500
 4042              	.LASF288:
 4043 01cf 74786275 		.ascii	"txbuf\000"
 4043      6600
 4044              	.LASF97:
 4045 01d5 72656761 		.ascii	"regarm_t\000"
 4045      726D5F74 
 4045      00
 4046              	.LASF264:
 4047 01de 4441494E 		.ascii	"DAINT\000"
 4047      5400
 4048              	.LASF263:
 4049 01e4 444F4550 		.ascii	"DOEPMSK\000"
 4049      4D534B00 
 4050              	.LASF121:
 4051 01ec 696F5F71 		.ascii	"io_queue\000"
 4051      75657565 
 4051      00
 4052              	.LASF181:
 4053 01f5 5553425F 		.ascii	"USB_SUSPENDED\000"
 4053      53555350 
 4053      454E4445 
 4053      4400
 4054              	.LASF224:
 4055 0203 444F4550 		.ascii	"DOEPCTL\000"
 4055      43544C00 
ARM GAS  /tmp/cccR1v5y.s 			page 74


 4056              	.LASF73:
 4057 020b 49435352 		.ascii	"ICSR\000"
 4057      00
 4058              	.LASF129:
 4059 0210 715F6C69 		.ascii	"q_link\000"
 4059      6E6B00
 4060              	.LASF3:
 4061 0217 7369676E 		.ascii	"signed char\000"
 4061      65642063 
 4061      68617200 
 4062              	.LASF16:
 4063 0223 75696E74 		.ascii	"uint8_t\000"
 4063      385F7400 
 4064              	.LASF197:
 4065 022b 5553425F 		.ascii	"USB_EVENT_STALLED\000"
 4065      4556454E 
 4065      545F5354 
 4065      414C4C45 
 4065      4400
 4066              	.LASF225:
 4067 023d 444F4550 		.ascii	"DOEPINT\000"
 4067      494E5400 
 4068              	.LASF291:
 4069 0245 72787369 		.ascii	"rxsize\000"
 4069      7A6500
 4070              	.LASF104:
 4071 024c 77747472 		.ascii	"wttrp\000"
 4071      7000
 4072              	.LASF59:
 4073 0252 52455345 		.ascii	"RESERVED0\000"
 4073      52564544 
 4073      3000
 4074              	.LASF6:
 4075 025c 756E7369 		.ascii	"unsigned char\000"
 4075      676E6564 
 4075      20636861 
 4075      7200
 4076              	.LASF65:
 4077 026a 52455345 		.ascii	"RESERVED3\000"
 4077      52564544 
 4077      3300
 4078              	.LASF67:
 4079 0274 52455345 		.ascii	"RESERVED4\000"
 4079      52564544 
 4079      3400
 4080              	.LASF68:
 4081 027e 52455345 		.ascii	"RESERVED5\000"
 4081      52564544 
 4081      3500
 4082              	.LASF47:
 4083 0288 6C617374 		.ascii	"lasttime\000"
 4083      74696D65 
 4083      00
 4084              	.LASF50:
 4085 0291 70616E69 		.ascii	"panic_msg\000"
 4085      635F6D73 
 4085      6700
ARM GAS  /tmp/cccR1v5y.s 			page 75


 4086              	.LASF66:
 4087 029b 49414252 		.ascii	"IABR\000"
 4087      00
 4088              	.LASF258:
 4089 02a0 44434647 		.ascii	"DCFG\000"
 4089      00
 4090              	.LASF276:
 4091 02a5 72657376 		.ascii	"resvd8C0\000"
 4091      64384330 
 4091      00
 4092              	.LASF242:
 4093 02ae 47434346 		.ascii	"GCCFG\000"
 4093      4700
 4094              	.LASF164:
 4095 02b4 65703073 		.ascii	"ep0state\000"
 4095      74617465 
 4095      00
 4096              	.LASF48:
 4097 02bd 73797374 		.ascii	"system_debug_t\000"
 4097      656D5F64 
 4097      65627567 
 4097      5F7400
 4098              	.LASF136:
 4099 02cc 53445F55 		.ascii	"SD_UNINIT\000"
 4099      4E494E49 
 4099      5400
 4100              	.LASF220:
 4101 02d6 44494550 		.ascii	"DIEPTSIZ\000"
 4101      5453495A 
 4101      00
 4102              	.LASF308:
 4103 02df 72657175 		.ascii	"requests_hook_cb\000"
 4103      65737473 
 4103      5F686F6F 
 4103      6B5F6362 
 4103      00
 4104              	.LASF119:
 4105 02f0 5F426F6F 		.ascii	"_Bool\000"
 4105      6C00
 4106              	.LASF63:
 4107 02f6 52455345 		.ascii	"RESERVED2\000"
 4107      52564544 
 4107      3200
 4108              	.LASF247:
 4109 0300 48434647 		.ascii	"HCFG\000"
 4109      00
 4110              	.LASF207:
 4111 0305 48434348 		.ascii	"HCCHAR\000"
 4111      415200
 4112              	.LASF227:
 4113 030c 73746D33 		.ascii	"stm32_otg_out_ep_t\000"
 4113      325F6F74 
 4113      675F6F75 
 4113      745F6570 
 4113      5F7400
 4114              	.LASF105:
 4115 031f 63686172 		.ascii	"char\000"
ARM GAS  /tmp/cccR1v5y.s 			page 76


 4115      00
 4116              	.LASF86:
 4117 0324 5343425F 		.ascii	"SCB_Type\000"
 4117      54797065 
 4117      00
 4118              	.LASF166:
 4119 032d 6570306E 		.ascii	"ep0n\000"
 4119      00
 4120              	.LASF79:
 4121 0332 44465352 		.ascii	"DFSR\000"
 4121      00
 4122              	.LASF261:
 4123 0337 72657376 		.ascii	"resvd80C\000"
 4123      64383043 
 4123      00
 4124              	.LASF255:
 4125 0340 48505254 		.ascii	"HPRT\000"
 4125      00
 4126              	.LASF161:
 4127 0345 72656365 		.ascii	"receiving\000"
 4127      6976696E 
 4127      6700
 4128              	.LASF8:
 4129 034f 5F5F7569 		.ascii	"__uint16_t\000"
 4129      6E743136 
 4129      5F7400
 4130              	.LASF159:
 4131 035a 55534244 		.ascii	"USBDriver\000"
 4131      72697665 
 4131      7200
 4132              	.LASF312:
 4133 0364 6E766963 		.ascii	"nvicClearPending\000"
 4133      436C6561 
 4133      7250656E 
 4133      64696E67 
 4133      00
 4134              	.LASF103:
 4135 0375 77746F62 		.ascii	"wtobjp\000"
 4135      6A7000
 4136              	.LASF78:
 4137 037c 48465352 		.ascii	"HFSR\000"
 4137      00
 4138              	.LASF134:
 4139 0381 70616C65 		.ascii	"palevent_t\000"
 4139      76656E74 
 4139      5F7400
 4140              	.LASF316:
 4141 038c 474E5520 		.ascii	"GNU C11 6.3.1 20170620 (release) [ARM/embedded-6-br"
 4141      43313120 
 4141      362E332E 
 4141      31203230 
 4141      31373036 
 4142 03bf 616E6368 		.ascii	"anch revision 249437] -mcpu=cortex-m4 -mfloat-abi=h"
 4142      20726576 
 4142      6973696F 
 4142      6E203234 
 4142      39343337 
ARM GAS  /tmp/cccR1v5y.s 			page 77


 4143 03f2 61726420 		.ascii	"ard -mfpu=fpv4-sp-d16 -mno-thumb-interwork -mthumb "
 4143      2D6D6670 
 4143      753D6670 
 4143      76342D73 
 4143      702D6431 
 4144 0425 2D67202D 		.ascii	"-g -Os -fomit-frame-pointer -falign-functions=16 -f"
 4144      4F73202D 
 4144      666F6D69 
 4144      742D6672 
 4144      616D652D 
 4145 0458 66756E63 		.ascii	"function-sections -fdata-sections -fno-common -fsin"
 4145      74696F6E 
 4145      2D736563 
 4145      74696F6E 
 4145      73202D66 
 4146 048b 676C652D 		.ascii	"gle-precision-constant\000"
 4146      70726563 
 4146      6973696F 
 4146      6E2D636F 
 4146      6E737461 
 4147              	.LASF30:
 4148 04a2 666C6167 		.ascii	"flags\000"
 4148      7300
 4149              	.LASF297:
 4150 04a8 696E5F63 		.ascii	"in_cb\000"
 4150      6200
 4151              	.LASF156:
 4152 04ae 67657474 		.ascii	"gett\000"
 4152      00
 4153              	.LASF98:
 4154 04b3 73746B61 		.ascii	"stkalign_t\000"
 4154      6C69676E 
 4154      5F7400
 4155              	.LASF96:
 4156 04be 55534152 		.ascii	"USART_TypeDef\000"
 4156      545F5479 
 4156      70654465 
 4156      6600
 4157              	.LASF249:
 4158 04cc 48464E55 		.ascii	"HFNUM\000"
 4158      4D00
 4159              	.LASF204:
 4160 04d2 75736265 		.ascii	"usbeventcb_t\000"
 4160      76656E74 
 4160      63625F74 
 4160      00
 4161              	.LASF62:
 4162 04df 49535052 		.ascii	"ISPR\000"
 4162      00
 4163              	.LASF111:
 4164 04e4 73747265 		.ascii	"stream\000"
 4164      616D00
 4165              	.LASF215:
 4166 04eb 73746D33 		.ascii	"stm32_otg_host_chn_t\000"
 4166      325F6F74 
 4166      675F686F 
 4166      73745F63 
ARM GAS  /tmp/cccR1v5y.s 			page 78


 4166      686E5F74 
 4167              	.LASF160:
 4168 0500 7472616E 		.ascii	"transmitting\000"
 4168      736D6974 
 4168      74696E67 
 4168      00
 4169              	.LASF290:
 4170 050d 55534249 		.ascii	"USBInEndpointState\000"
 4170      6E456E64 
 4170      706F696E 
 4170      74537461 
 4170      746500
 4171              	.LASF266:
 4172 0520 72657376 		.ascii	"resvd820\000"
 4172      64383230 
 4172      00
 4173              	.LASF267:
 4174 0529 72657376 		.ascii	"resvd824\000"
 4174      64383234 
 4174      00
 4175              	.LASF269:
 4176 0532 44564255 		.ascii	"DVBUSPULSE\000"
 4176      5350554C 
 4176      534500
 4177              	.LASF187:
 4178 053d 5553425F 		.ascii	"USB_EP0_OUT_WAITING_STS\000"
 4178      4550305F 
 4178      4F55545F 
 4178      57414954 
 4178      494E475F 
 4179              	.LASF76:
 4180 0555 53484353 		.ascii	"SHCSR\000"
 4180      5200
 4181              	.LASF145:
 4182 055b 72786D61 		.ascii	"rxmask\000"
 4182      736B00
 4183              	.LASF69:
 4184 0562 53544952 		.ascii	"STIR\000"
 4184      00
 4185              	.LASF271:
 4186 0567 44494550 		.ascii	"DIEPEMPMSK\000"
 4186      454D504D 
 4186      534B00
 4187              	.LASF201:
 4188 0572 55534244 		.ascii	"USBDescriptor\000"
 4188      65736372 
 4188      6970746F 
 4188      7200
 4189              	.LASF285:
 4190 0580 73746D33 		.ascii	"stm32_otg_params_t\000"
 4190      325F6F74 
 4190      675F7061 
 4190      72616D73 
 4190      5F7400
 4191              	.LASF168:
 4192 0593 73657475 		.ascii	"setup\000"
 4192      7000
ARM GAS  /tmp/cccR1v5y.s 			page 79


 4193              	.LASF148:
 4194 0599 73706565 		.ascii	"speed\000"
 4194      6400
 4195              	.LASF232:
 4196 059f 47525354 		.ascii	"GRSTCTL\000"
 4196      43544C00 
 4197              	.LASF198:
 4198 05a7 75736265 		.ascii	"usbevent_t\000"
 4198      76656E74 
 4198      5F7400
 4199              	.LASF38:
 4200 05b2 63685F72 		.ascii	"ch_ready_list\000"
 4200      65616479 
 4200      5F6C6973 
 4200      7400
 4201              	.LASF184:
 4202 05c0 5553425F 		.ascii	"USB_EP0_IN_TX\000"
 4202      4550305F 
 4202      494E5F54 
 4202      5800
 4203              	.LASF199:
 4204 05ce 75645F73 		.ascii	"ud_size\000"
 4204      697A6500 
 4205              	.LASF179:
 4206 05d6 5553425F 		.ascii	"USB_SELECTED\000"
 4206      53454C45 
 4206      43544544 
 4206      00
 4207              	.LASF171:
 4208 05e3 636F6E66 		.ascii	"configuration\000"
 4208      69677572 
 4208      6174696F 
 4208      6E00
 4209              	.LASF289:
 4210 05f1 746F7473 		.ascii	"totsize\000"
 4210      697A6500 
 4211              	.LASF237:
 4212 05f9 47525846 		.ascii	"GRXFSIZ\000"
 4212      53495A00 
 4213              	.LASF287:
 4214 0601 7478636E 		.ascii	"txcnt\000"
 4214      7400
 4215              	.LASF123:
 4216 0607 715F636F 		.ascii	"q_counter\000"
 4216      756E7465 
 4216      7200
 4217              	.LASF274:
 4218 0611 72657376 		.ascii	"resvd840\000"
 4218      64383430 
 4218      00
 4219              	.LASF133:
 4220 061a 70616C63 		.ascii	"palcallback_t\000"
 4220      616C6C62 
 4220      61636B5F 
 4220      7400
 4221              	.LASF14:
 4222 0628 5F5F7569 		.ascii	"__uint64_t\000"
ARM GAS  /tmp/cccR1v5y.s 			page 80


 4222      6E743634 
 4222      5F7400
 4223              	.LASF245:
 4224 0633 44494550 		.ascii	"DIEPTXF\000"
 4224      54584600 
 4225              	.LASF251:
 4226 063b 48505458 		.ascii	"HPTXSTS\000"
 4226      53545300 
 4227              	.LASF13:
 4228 0643 6C6F6E67 		.ascii	"long unsigned int\000"
 4228      20756E73 
 4228      69676E65 
 4228      6420696E 
 4228      7400
 4229              	.LASF169:
 4230 0655 73746174 		.ascii	"status\000"
 4230      757300
 4231              	.LASF109:
 4232 065c 70617261 		.ascii	"param\000"
 4232      6D00
 4233              	.LASF170:
 4234 0662 61646472 		.ascii	"address\000"
 4234      65737300 
 4235              	.LASF88:
 4236 066a 53797374 		.ascii	"SystemCoreClock\000"
 4236      656D436F 
 4236      7265436C 
 4236      6F636B00 
 4237              	.LASF114:
 4238 067a 73686966 		.ascii	"shift\000"
 4238      7400
 4239              	.LASF167:
 4240 0680 65703065 		.ascii	"ep0endcb\000"
 4240      6E646362 
 4240      00
 4241              	.LASF33:
 4242 0689 63685F74 		.ascii	"ch_thread\000"
 4242      68726561 
 4242      6400
 4243              	.LASF230:
 4244 0693 47414842 		.ascii	"GAHBCFG\000"
 4244      43464700 
 4245              	.LASF147:
 4246 069b 75617274 		.ascii	"uartirq_t\000"
 4246      6972715F 
 4246      7400
 4247              	.LASF45:
 4248 06a5 76697274 		.ascii	"virtual_timers_list_t\000"
 4248      75616C5F 
 4248      74696D65 
 4248      72735F6C 
 4248      6973745F 
 4249              	.LASF313:
 4250 06bb 6E766963 		.ascii	"nvicSetSystemHandlerPriority\000"
 4250      53657453 
 4250      79737465 
 4250      6D48616E 
ARM GAS  /tmp/cccR1v5y.s 			page 81


 4250      646C6572 
 4251              	.LASF106:
 4252 06d8 63685F69 		.ascii	"ch_idle_thread_wa\000"
 4252      646C655F 
 4252      74687265 
 4252      61645F77 
 4252      6100
 4253              	.LASF303:
 4254 06ea 696E5F6D 		.ascii	"in_multiplier\000"
 4254      756C7469 
 4254      706C6965 
 4254      7200
 4255              	.LASF118:
 4256 06f8 5F73746D 		.ascii	"_stm32_dma_streams\000"
 4256      33325F64 
 4256      6D615F73 
 4256      74726561 
 4256      6D7300
 4257              	.LASF284:
 4258 070b 6E756D5F 		.ascii	"num_endpoints\000"
 4258      656E6470 
 4258      6F696E74 
 4258      7300
 4259              	.LASF41:
 4260 0719 76697274 		.ascii	"virtual_timer_t\000"
 4260      75616C5F 
 4260      74696D65 
 4260      725F7400 
 4261              	.LASF37:
 4262 0729 72656164 		.ascii	"ready_list_t\000"
 4262      795F6C69 
 4262      73745F74 
 4262      00
 4263              	.LASF126:
 4264 0736 715F7772 		.ascii	"q_wrptr\000"
 4264      70747200 
 4265              	.LASF186:
 4266 073e 5553425F 		.ascii	"USB_EP0_IN_SENDING_STS\000"
 4266      4550305F 
 4266      494E5F53 
 4266      454E4449 
 4266      4E475F53 
 4267              	.LASF151:
 4268 0755 53657269 		.ascii	"SerialDriverVMT\000"
 4268      616C4472 
 4268      69766572 
 4268      564D5400 
 4269              	.LASF177:
 4270 0765 5553425F 		.ascii	"USB_STOP\000"
 4270      53544F50 
 4270      00
 4271              	.LASF292:
 4272 076e 7278636E 		.ascii	"rxcnt\000"
 4272      7400
 4273              	.LASF182:
 4274 0774 75736273 		.ascii	"usbstate_t\000"
 4274      74617465 
ARM GAS  /tmp/cccR1v5y.s 			page 82


 4274      5F7400
 4275              	.LASF144:
 4276 077f 75736172 		.ascii	"usart\000"
 4276      7400
 4277              	.LASF286:
 4278 0785 74787369 		.ascii	"txsize\000"
 4278      7A6500
 4279              	.LASF189:
 4280 078c 5553425F 		.ascii	"USB_EP0_ERROR\000"
 4280      4550305F 
 4280      4552524F 
 4280      5200
 4281              	.LASF250:
 4282 079a 72657376 		.ascii	"resvd40C\000"
 4282      64343043 
 4282      00
 4283              	.LASF228:
 4284 07a3 474F5447 		.ascii	"GOTGCTL\000"
 4284      43544C00 
 4285              	.LASF200:
 4286 07ab 75645F73 		.ascii	"ud_string\000"
 4286      7472696E 
 4286      6700
 4287              	.LASF293:
 4288 07b5 72786275 		.ascii	"rxbuf\000"
 4288      6600
 4289              	.LASF301:
 4290 07bb 696E5F73 		.ascii	"in_state\000"
 4290      74617465 
 4290      00
 4291              	.LASF235:
 4292 07c4 47525853 		.ascii	"GRXSTSR\000"
 4292      54535200 
 4293              	.LASF196:
 4294 07cc 5553425F 		.ascii	"USB_EVENT_WAKEUP\000"
 4294      4556454E 
 4294      545F5741 
 4294      4B455550 
 4294      00
 4295              	.LASF278:
 4296 07dd 50434743 		.ascii	"PCGCCTL\000"
 4296      43544C00 
 4297              	.LASF12:
 4298 07e5 5F5F7569 		.ascii	"__uint32_t\000"
 4298      6E743332 
 4298      5F7400
 4299              	.LASF306:
 4300 07f0 6576656E 		.ascii	"event_cb\000"
 4300      745F6362 
 4300      00
 4301              	.LASF229:
 4302 07f9 474F5447 		.ascii	"GOTGINT\000"
 4302      494E5400 
 4303              	.LASF1:
 4304 0801 6C6F6E67 		.ascii	"long long int\000"
 4304      206C6F6E 
 4304      6720696E 
ARM GAS  /tmp/cccR1v5y.s 			page 83


 4304      7400
 4305              	.LASF178:
 4306 080f 5553425F 		.ascii	"USB_READY\000"
 4306      52454144 
 4306      5900
 4307              	.LASF236:
 4308 0819 47525853 		.ascii	"GRXSTSP\000"
 4308      54535000 
 4309              	.LASF57:
 4310 0821 73797369 		.ascii	"sysinterval_t\000"
 4310      6E746572 
 4310      76616C5F 
 4310      7400
 4311              	.LASF254:
 4312 082f 72657376 		.ascii	"resvd41C\000"
 4312      64343143 
 4312      00
 4313              	.LASF165:
 4314 0838 6570306E 		.ascii	"ep0next\000"
 4314      65787400 
 4315              	.LASF95:
 4316 0840 47545052 		.ascii	"GTPR\000"
 4316      00
 4317              	.LASF107:
 4318 0845 6576656E 		.ascii	"event_source_t\000"
 4318      745F736F 
 4318      75726365 
 4318      5F7400
 4319              	.LASF272:
 4320 0854 72657376 		.ascii	"resvd838\000"
 4320      64383338 
 4320      00
 4321              	.LASF203:
 4322 085d 75736265 		.ascii	"usbepcallback_t\000"
 4322      7063616C 
 4322      6C626163 
 4322      6B5F7400 
 4323              	.LASF296:
 4324 086d 73657475 		.ascii	"setup_cb\000"
 4324      705F6362 
 4324      00
 4325              	.LASF275:
 4326 0876 72657376 		.ascii	"resvd880\000"
 4326      64383830 
 4326      00
 4327              	.LASF87:
 4328 087f 49544D5F 		.ascii	"ITM_RxBuffer\000"
 4328      52784275 
 4328      66666572 
 4328      00
 4329              	.LASF273:
 4330 088c 72657376 		.ascii	"resvd83C\000"
 4330      64383343 
 4330      00
 4331              	.LASF130:
 4332 0895 716E6F74 		.ascii	"qnotify_t\000"
 4332      6966795F 
ARM GAS  /tmp/cccR1v5y.s 			page 84


 4332      7400
 4333              	.LASF141:
 4334 089f 6576656E 		.ascii	"event\000"
 4334      7400
 4335              	.LASF226:
 4336 08a5 444F4550 		.ascii	"DOEPTSIZ\000"
 4336      5453495A 
 4336      00
 4337              	.LASF154:
 4338 08ae 72656164 		.ascii	"read\000"
 4338      00
 4339              	.LASF115:
 4340 08b3 73656C66 		.ascii	"selfindex\000"
 4340      696E6465 
 4340      7800
 4341              	.LASF252:
 4342 08bd 4841494E 		.ascii	"HAINT\000"
 4342      5400
 4343              	.LASF0:
 4344 08c3 756E7369 		.ascii	"unsigned int\000"
 4344      676E6564 
 4344      20696E74 
 4344      00
 4345              	.LASF310:
 4346 08d0 55534243 		.ascii	"USBConfig\000"
 4346      6F6E6669 
 4346      6700
 4347              	.LASF209:
 4348 08da 4843494E 		.ascii	"HCINT\000"
 4348      5400
 4349              	.LASF281:
 4350 08e0 73746D33 		.ascii	"stm32_otg_t\000"
 4350      325F6F74 
 4350      675F7400 
 4351              	.LASF304:
 4352 08ec 73657475 		.ascii	"setup_buf\000"
 4352      705F6275 
 4352      6600
 4353              	.LASF256:
 4354 08f6 72657376 		.ascii	"resvd444\000"
 4354      64343434 
 4354      00
 4355              	.LASF39:
 4356 08ff 63757272 		.ascii	"current\000"
 4356      656E7400 
 4357              	.LASF298:
 4358 0907 6F75745F 		.ascii	"out_cb\000"
 4358      636200
 4359              	.LASF253:
 4360 090e 4841494E 		.ascii	"HAINTMSK\000"
 4360      544D534B 
 4360      00
 4361              	.LASF299:
 4362 0917 696E5F6D 		.ascii	"in_maxsize\000"
 4362      61787369 
 4362      7A6500
 4363              	.LASF234:
ARM GAS  /tmp/cccR1v5y.s 			page 85


 4364 0922 47494E54 		.ascii	"GINTMSK\000"
 4364      4D534B00 
 4365              	.LASF94:
 4366 092a 444D415F 		.ascii	"DMA_Stream_TypeDef\000"
 4366      53747265 
 4366      616D5F54 
 4366      79706544 
 4366      656600
 4367              	.LASF302:
 4368 093d 6F75745F 		.ascii	"out_state\000"
 4368      73746174 
 4368      6500
 4369              	.LASF135:
 4370 0947 5F70616C 		.ascii	"_pal_events\000"
 4370      5F657665 
 4370      6E747300 
 4371              	.LASF26:
 4372 0953 74687265 		.ascii	"thread_t\000"
 4372      61645F74 
 4372      00
 4373              	.LASF2:
 4374 095c 6C6F6E67 		.ascii	"long double\000"
 4374      20646F75 
 4374      626C6500 
 4375              	.LASF315:
 4376 0968 6E766963 		.ascii	"nvicDisableVector\000"
 4376      44697361 
 4376      626C6556 
 4376      6563746F 
 4376      7200
 4377              	.LASF31:
 4378 097a 74687265 		.ascii	"thread_reference_t\000"
 4378      61645F72 
 4378      65666572 
 4378      656E6365 
 4378      5F7400
 4379              	.LASF100:
 4380 098d 706F7274 		.ascii	"port_intctx\000"
 4380      5F696E74 
 4380      63747800 
 4381              	.LASF173:
 4382 0999 6F746770 		.ascii	"otgparams\000"
 4382      6172616D 
 4382      7300
 4383              	.LASF270:
 4384 09a3 72657376 		.ascii	"resvd830\000"
 4384      64383330 
 4384      00
 4385              	.LASF317:
 4386 09ac 2E2E2F2E 		.ascii	"../../modules/ChibiOS/os/hal/ports/common/ARMCMx/nv"
 4386      2E2F6D6F 
 4386      64756C65 
 4386      732F4368 
 4386      6962694F 
 4387 09df 69632E63 		.ascii	"ic.c\000"
 4387      00
 4388              	.LASF176:
ARM GAS  /tmp/cccR1v5y.s 			page 86


 4389 09e4 5553425F 		.ascii	"USB_UNINIT\000"
 4389      554E494E 
 4389      495400
 4390              	.LASF89:
 4391 09ef 41484250 		.ascii	"AHBPrescTable\000"
 4391      72657363 
 4391      5461626C 
 4391      6500
 4392              	.LASF42:
 4393 09fd 63685F76 		.ascii	"ch_virtual_timer\000"
 4393      69727475 
 4393      616C5F74 
 4393      696D6572 
 4393      00
 4394              	.LASF81:
 4395 0a0e 42464152 		.ascii	"BFAR\000"
 4395      00
 4396              	.LASF71:
 4397 0a13 4E564943 		.ascii	"NVIC_Type\000"
 4397      5F547970 
 4397      6500
 4398              	.LASF277:
 4399 0a1d 72657376 		.ascii	"resvdD00\000"
 4399      64443030 
 4399      00
 4400              	.LASF15:
 4401 0a26 6C6F6E67 		.ascii	"long long unsigned int\000"
 4401      206C6F6E 
 4401      6720756E 
 4401      7369676E 
 4401      65642069 
 4402              	.LASF244:
 4403 0a3d 48505458 		.ascii	"HPTXFSIZ\000"
 4403      4653495A 
 4403      00
 4404              	.LASF17:
 4405 0a46 75696E74 		.ascii	"uint16_t\000"
 4405      31365F74 
 4405      00
 4406              	.LASF24:
 4407 0a4f 6D73675F 		.ascii	"msg_t\000"
 4407      7400
 4408              	.LASF259:
 4409 0a55 4443544C 		.ascii	"DCTL\000"
 4409      00
 4410              	.LASF34:
 4411 0a5a 63685F74 		.ascii	"ch_threads_queue\000"
 4411      68726561 
 4411      64735F71 
 4411      75657565 
 4411      00
 4412              	.LASF305:
 4413 0a6b 55534245 		.ascii	"USBEndpointConfig\000"
 4413      6E64706F 
 4413      696E7443 
 4413      6F6E6669 
 4413      6700
ARM GAS  /tmp/cccR1v5y.s 			page 87


 4414              	.LASF25:
 4415 0a7d 6576656E 		.ascii	"eventflags_t\000"
 4415      74666C61 
 4415      67735F74 
 4415      00
 4416              	.LASF210:
 4417 0a8a 4843494E 		.ascii	"HCINTMSK\000"
 4417      544D534B 
 4417      00
 4418              	.LASF172:
 4419 0a93 73617665 		.ascii	"saved_state\000"
 4419      645F7374 
 4419      61746500 
 4420              	.LASF43:
 4421 0a9f 64656C74 		.ascii	"delta\000"
 4421      6100
 4422              	.LASF27:
 4423 0aa5 71756575 		.ascii	"queue\000"
 4423      6500
 4424              	.LASF116:
 4425 0aab 76656374 		.ascii	"vector\000"
 4425      6F7200
 4426              	.LASF318:
 4427 0ab2 2F686F6D 		.ascii	"/home/alex/ArduPilot/ardupilot/build/STM32Disco\000"
 4427      652F616C 
 4427      65782F41 
 4427      72647550 
 4427      696C6F74 
 4428              	.LASF55:
 4429 0ae2 6D61696E 		.ascii	"mainthread\000"
 4429      74687265 
 4429      616400
 4430              	.LASF60:
 4431 0aed 49434552 		.ascii	"ICER\000"
 4431      00
 4432              	.LASF265:
 4433 0af2 4441494E 		.ascii	"DAINTMSK\000"
 4433      544D534B 
 4433      00
 4434              	.LASF268:
 4435 0afb 44564255 		.ascii	"DVBUSDIS\000"
 4435      53444953 
 4435      00
 4436              	.LASF223:
 4437 0b04 73746D33 		.ascii	"stm32_otg_in_ep_t\000"
 4437      325F6F74 
 4437      675F696E 
 4437      5F65705F 
 4437      7400
 4438              	.LASF283:
 4439 0b16 6F74675F 		.ascii	"otg_ram_size\000"
 4439      72616D5F 
 4439      73697A65 
 4439      00
 4440              	.LASF194:
 4441 0b23 5553425F 		.ascii	"USB_EVENT_UNCONFIGURED\000"
 4441      4556454E 
ARM GAS  /tmp/cccR1v5y.s 			page 88


 4441      545F554E 
 4441      434F4E46 
 4441      49475552 
 4442              	.LASF300:
 4443 0b3a 6F75745F 		.ascii	"out_maxsize\000"
 4443      6D617873 
 4443      697A6500 
 4444              	.LASF190:
 4445 0b46 75736265 		.ascii	"usbep0state_t\000"
 4445      70307374 
 4445      6174655F 
 4445      7400
 4446              	.LASF140:
 4447 0b54 53657269 		.ascii	"SerialDriver\000"
 4447      616C4472 
 4447      69766572 
 4447      00
 4448              	.LASF193:
 4449 0b61 5553425F 		.ascii	"USB_EVENT_CONFIGURED\000"
 4449      4556454E 
 4449      545F434F 
 4449      4E464947 
 4449      55524544 
 4450              	.LASF280:
 4451 0b76 4649464F 		.ascii	"FIFO\000"
 4451      00
 4452              	.LASF82:
 4453 0b7b 41465352 		.ascii	"AFSR\000"
 4453      00
 4454              	.LASF314:
 4455 0b80 68616E64 		.ascii	"handler\000"
 4455      6C657200 
 4456              	.LASF311:
 4457 0b88 55534244 		.ascii	"USBD1\000"
 4457      3100
 4458              	.LASF122:
 4459 0b8e 715F7761 		.ascii	"q_waiting\000"
 4459      6974696E 
 4459      6700
 4460              	.LASF77:
 4461 0b98 43465352 		.ascii	"CFSR\000"
 4461      00
 4462              	.LASF53:
 4463 0b9d 726C6973 		.ascii	"rlist\000"
 4463      7400
 4464              	.LASF185:
 4465 0ba3 5553425F 		.ascii	"USB_EP0_IN_WAITING_TX0\000"
 4465      4550305F 
 4465      494E5F57 
 4465      41495449 
 4465      4E475F54 
 4466              	.LASF21:
 4467 0bba 746D6F64 		.ascii	"tmode_t\000"
 4467      655F7400 
 4468              	.LASF113:
 4469 0bc2 64756D6D 		.ascii	"dummy\000"
 4469      7900
ARM GAS  /tmp/cccR1v5y.s 			page 89


 4470              	.LASF139:
 4471 0bc8 73647374 		.ascii	"sdstate_t\000"
 4471      6174655F 
 4471      7400
 4472              	.LASF206:
 4473 0bd2 75736267 		.ascii	"usbgetdescriptor_t\000"
 4473      65746465 
 4473      73637269 
 4473      70746F72 
 4473      5F7400
 4474              	.LASF138:
 4475 0be5 53445F52 		.ascii	"SD_READY\000"
 4475      45414459 
 4475      00
 4476              	.LASF92:
 4477 0bee 4D304152 		.ascii	"M0AR\000"
 4477      00
 4478              	.LASF90:
 4479 0bf3 41504250 		.ascii	"APBPrescTable\000"
 4479      72657363 
 4479      5461626C 
 4479      6500
 4480              	.LASF83:
 4481 0c01 4D4D4652 		.ascii	"MMFR\000"
 4481      00
 4482              	.LASF80:
 4483 0c06 4D4D4641 		.ascii	"MMFAR\000"
 4483      5200
 4484              	.LASF7:
 4485 0c0c 73686F72 		.ascii	"short int\000"
 4485      7420696E 
 4485      7400
 4486              	.LASF108:
 4487 0c16 6576656E 		.ascii	"event_source\000"
 4487      745F736F 
 4487      75726365 
 4487      00
 4488              	.LASF20:
 4489 0c23 75696E74 		.ascii	"uint64_t\000"
 4489      36345F74 
 4489      00
 4490              	.LASF44:
 4491 0c2c 66756E63 		.ascii	"func\000"
 4491      00
 4492              	.LASF191:
 4493 0c31 5553425F 		.ascii	"USB_EVENT_RESET\000"
 4493      4556454E 
 4493      545F5245 
 4493      53455400 
 4494              	.LASF212:
 4495 0c41 72657376 		.ascii	"resvd14\000"
 4495      64313400 
 4496              	.LASF142:
 4497 0c49 69717565 		.ascii	"iqueue\000"
 4497      756500
 4498              	.LASF84:
 4499 0c50 49534152 		.ascii	"ISAR\000"
ARM GAS  /tmp/cccR1v5y.s 			page 90


 4499      00
 4500              	.LASF222:
 4501 0c55 72657376 		.ascii	"resvd1C\000"
 4501      64314300 
 4502              	.LASF262:
 4503 0c5d 44494550 		.ascii	"DIEPMSK\000"
 4503      4D534B00 
 4504              	.LASF49:
 4505 0c65 63685F73 		.ascii	"ch_system_debug\000"
 4505      79737465 
 4505      6D5F6465 
 4505      62756700 
 4506              	.LASF214:
 4507 0c75 72657376 		.ascii	"resvd1c\000"
 4507      64316300 
 4508              	.LASF120:
 4509 0c7d 696F5F71 		.ascii	"io_queue_t\000"
 4509      75657565 
 4509      5F7400
 4510              	.LASF149:
 4511 0c88 6972715F 		.ascii	"irq_cb\000"
 4511      636200
 4512              	.LASF205:
 4513 0c8f 75736272 		.ascii	"usbreqhandler_t\000"
 4513      65716861 
 4513      6E646C65 
 4513      725F7400 
 4514              	.LASF216:
 4515 0c9f 44494550 		.ascii	"DIEPCTL\000"
 4515      43544C00 
 4516              	.LASF202:
 4517 0ca7 75736263 		.ascii	"usbcallback_t\000"
 4517      616C6C62 
 4517      61636B5F 
 4517      7400
 4518              	.LASF233:
 4519 0cb5 47494E54 		.ascii	"GINTSTS\000"
 4519      53545300 
 4520              	.LASF54:
 4521 0cbd 76746C69 		.ascii	"vtlist\000"
 4521      737400
 4522              	.LASF218:
 4523 0cc4 44494550 		.ascii	"DIEPINT\000"
 4523      494E5400 
 4524              	.LASF239:
 4525 0ccc 484E5054 		.ascii	"HNPTXSTS\000"
 4525      58535453 
 4525      00
 4526              	.LASF188:
 4527 0cd5 5553425F 		.ascii	"USB_EP0_OUT_RX\000"
 4527      4550305F 
 4527      4F55545F 
 4527      525800
 4528              	.LASF99:
 4529 0ce4 706F7274 		.ascii	"port_context\000"
 4529      5F636F6E 
 4529      74657874 
ARM GAS  /tmp/cccR1v5y.s 			page 91


 4529      00
 4530              	.LASF309:
 4531 0cf1 736F665F 		.ascii	"sof_cb\000"
 4531      636200
 4532              	.LASF279:
 4533 0cf8 72657376 		.ascii	"resvdE04\000"
 4533      64453034 
 4533      00
 4534              	.LASF240:
 4535 0d01 72657376 		.ascii	"resvd30\000"
 4535      64333000 
 4536              	.LASF52:
 4537 0d09 63685F73 		.ascii	"ch_system\000"
 4537      79737465 
 4537      6D00
 4538              	.LASF241:
 4539 0d13 72657376 		.ascii	"resvd34\000"
 4539      64333400 
 4540              	.LASF320:
 4541 0d1b 6E766963 		.ascii	"nvicEnableVector\000"
 4541      456E6162 
 4541      6C655665 
 4541      63746F72 
 4541      00
 4542              	.LASF19:
 4543 0d2c 75696E74 		.ascii	"uint32_t\000"
 4543      33325F74 
 4543      00
 4544              	.LASF175:
 4545 0d35 75736265 		.ascii	"usbep_t\000"
 4545      705F7400 
 4546              	.LASF152:
 4547 0d3d 696E7374 		.ascii	"instance_offset\000"
 4547      616E6365 
 4547      5F6F6666 
 4547      73657400 
 4548              	.LASF131:
 4549 0d4d 696E7075 		.ascii	"input_queue_t\000"
 4549      745F7175 
 4549      6575655F 
 4549      7400
 4550              	.LASF101:
 4551 0d5b 7264796D 		.ascii	"rdymsg\000"
 4551      736700
 4552              	.LASF9:
 4553 0d62 73686F72 		.ascii	"short unsigned int\000"
 4553      7420756E 
 4553      7369676E 
 4553      65642069 
 4553      6E7400
 4554              	.LASF260:
 4555 0d75 44535453 		.ascii	"DSTS\000"
 4555      00
 4556              	.LASF307:
 4557 0d7a 6765745F 		.ascii	"get_descriptor_cb\000"
 4557      64657363 
 4557      72697074 
ARM GAS  /tmp/cccR1v5y.s 			page 92


 4557      6F725F63 
 4557      6200
 4558              	.LASF85:
 4559 0d8c 43504143 		.ascii	"CPACR\000"
 4559      5200
 4560              	.LASF51:
 4561 0d92 63685F73 		.ascii	"ch_system_t\000"
 4561      79737465 
 4561      6D5F7400 
 4562              	.LASF195:
 4563 0d9e 5553425F 		.ascii	"USB_EVENT_SUSPEND\000"
 4563      4556454E 
 4563      545F5355 
 4563      5350454E 
 4563      4400
 4564              	.LASF132:
 4565 0db0 6F757470 		.ascii	"output_queue_t\000"
 4565      75745F71 
 4565      75657565 
 4565      5F7400
 4566              	.LASF163:
 4567 0dbf 6F75745F 		.ascii	"out_params\000"
 4567      70617261 
 4567      6D7300
 4568              	.LASF10:
 4569 0dca 5F5F696E 		.ascii	"__int32_t\000"
 4569      7433325F 
 4569      7400
 4570              	.LASF137:
 4571 0dd4 53445F53 		.ascii	"SD_STOP\000"
 4571      544F5000 
 4572              	.LASF91:
 4573 0ddc 4E445452 		.ascii	"NDTR\000"
 4573      00
 4574              	.LASF112:
 4575 0de1 69666372 		.ascii	"ifcr\000"
 4575      00
 4576              	.LASF243:
 4577 0de6 72657376 		.ascii	"resvd58\000"
 4577      64353800 
 4578              	.LASF58:
 4579 0dee 49534552 		.ascii	"ISER\000"
 4579      00
 4580              	.LASF248:
 4581 0df3 48464952 		.ascii	"HFIR\000"
 4581      00
 4582              	.LASF35:
 4583 0df8 6E657874 		.ascii	"next\000"
 4583      00
 4584              	.LASF174:
 4585 0dfd 706D6E65 		.ascii	"pmnext\000"
 4585      787400
 4586              	.LASF36:
 4587 0e04 70726576 		.ascii	"prev\000"
 4587      00
 4588              	.LASF231:
 4589 0e09 47555342 		.ascii	"GUSBCFG\000"
ARM GAS  /tmp/cccR1v5y.s 			page 93


 4589      43464700 
 4590              	.LASF246:
 4591 0e11 72657376 		.ascii	"resvd140\000"
 4591      64313430 
 4591      00
 4592              		.ident	"GCC: (GNU Tools for ARM Embedded Processors 6-2017-q2-update) 6.3.1 20170620 (release) [AR
ARM GAS  /tmp/cccR1v5y.s 			page 94


DEFINED SYMBOLS
                            *ABS*:0000000000000000 nvic.c
     /tmp/cccR1v5y.s:18     .text.nvicEnableVector:0000000000000000 $t
     /tmp/cccR1v5y.s:25     .text.nvicEnableVector:0000000000000000 nvicEnableVector
     /tmp/cccR1v5y.s:62     .text.nvicDisableVector:0000000000000000 $t
     /tmp/cccR1v5y.s:69     .text.nvicDisableVector:0000000000000000 nvicDisableVector
     /tmp/cccR1v5y.s:93     .text.nvicDisableVector:000000000000001c $d
     /tmp/cccR1v5y.s:98     .text.nvicSetSystemHandlerPriority:0000000000000000 $t
     /tmp/cccR1v5y.s:105    .text.nvicSetSystemHandlerPriority:0000000000000000 nvicSetSystemHandlerPriority
     /tmp/cccR1v5y.s:127    .text.nvicClearPending:0000000000000000 $t
     /tmp/cccR1v5y.s:134    .text.nvicClearPending:0000000000000000 nvicClearPending
     /tmp/cccR1v5y.s:155    .text.nvicClearPending:0000000000000018 $d
                     .debug_frame:0000000000000010 $d

NO UNDEFINED SYMBOLS
