ARM GAS  /tmp/cckYmO6Z.s 			page 1


   1              		.cpu cortex-m4
   2              		.eabi_attribute 27, 1
   3              		.eabi_attribute 28, 1
   4              		.eabi_attribute 20, 1
   5              		.eabi_attribute 21, 1
   6              		.eabi_attribute 23, 3
   7              		.eabi_attribute 24, 1
   8              		.eabi_attribute 25, 1
   9              		.eabi_attribute 26, 1
  10              		.eabi_attribute 30, 4
  11              		.eabi_attribute 34, 1
  12              		.eabi_attribute 18, 4
  13              		.file	"stm32_isr.c"
  14              		.text
  15              	.Ltext0:
  16              		.cfi_sections	.debug_frame
  17              		.section	.text.Vector58,"ax",%progbits
  18              		.align	1
  19              		.global	Vector58
  20              		.syntax unified
  21              		.thumb
  22              		.thumb_func
  23              		.fpu fpv4-sp-d16
  24              		.type	Vector58, %function
  25              	Vector58:
  26              	.LFB323:
  27              		.file 1 "../../modules/ChibiOS/os/hal/ports/STM32/STM32F4xx/stm32_isr.c"
  28              		.loc 1 61 0
  29              		.cfi_startproc
  30              		@ args = 0, pretend = 0, frame = 0
  31              		@ frame_needed = 0, uses_anonymous_args = 0
  32              		.loc 1 66 0
  33 0000 084A     		ldr	r2, .L9
  34              		.loc 1 61 0
  35 0002 08B5     		push	{r3, lr}
  36              		.cfi_def_cfa_offset 8
  37              		.cfi_offset 3, -8
  38              		.cfi_offset 14, -4
  39              		.loc 1 66 0
  40 0004 5369     		ldr	r3, [r2, #20]
  41              	.LVL0:
  42              		.loc 1 67 0
  43 0006 1168     		ldr	r1, [r2]
  44 0008 0B40     		ands	r3, r3, r1
  45              	.LVL1:
  46 000a 03F00103 		and	r3, r3, #1
  47              	.LVL2:
  48              		.loc 1 68 0
  49 000e 5361     		str	r3, [r2, #20]
  50              		.loc 1 70 0
  51 0010 23B1     		cbz	r3, .L2
  52              		.loc 1 70 0 is_stmt 0 discriminator 1
  53 0012 054A     		ldr	r2, .L9+4
  54 0014 1368     		ldr	r3, [r2]
  55              	.LVL3:
  56 0016 0BB1     		cbz	r3, .L2
  57              		.loc 1 70 0 discriminator 2
ARM GAS  /tmp/cckYmO6Z.s 			page 2


  58 0018 5068     		ldr	r0, [r2, #4]
  59 001a 9847     		blx	r3
  60              	.LVL4:
  61              	.L2:
  62              		.loc 1 73 0 is_stmt 1
  63 001c BDE80840 		pop	{r3, lr}
  64              		.cfi_restore 14
  65              		.cfi_restore 3
  66              		.cfi_def_cfa_offset 0
  67              		.loc 1 72 0
  68 0020 FFF7FEBF 		b	_port_irq_epilogue
  69              	.LVL5:
  70              	.L10:
  71              		.align	2
  72              	.L9:
  73 0024 003C0140 		.word	1073822720
  74 0028 00000000 		.word	_pal_events
  75              		.cfi_endproc
  76              	.LFE323:
  77              		.size	Vector58, .-Vector58
  78              		.section	.text.Vector5C,"ax",%progbits
  79              		.align	1
  80              		.global	Vector5C
  81              		.syntax unified
  82              		.thumb
  83              		.thumb_func
  84              		.fpu fpv4-sp-d16
  85              		.type	Vector5C, %function
  86              	Vector5C:
  87              	.LFB324:
  88              		.loc 1 82 0
  89              		.cfi_startproc
  90              		@ args = 0, pretend = 0, frame = 0
  91              		@ frame_needed = 0, uses_anonymous_args = 0
  92              		.loc 1 87 0
  93 0000 084A     		ldr	r2, .L19
  94              		.loc 1 82 0
  95 0002 08B5     		push	{r3, lr}
  96              		.cfi_def_cfa_offset 8
  97              		.cfi_offset 3, -8
  98              		.cfi_offset 14, -4
  99              		.loc 1 87 0
 100 0004 5369     		ldr	r3, [r2, #20]
 101              	.LVL6:
 102              		.loc 1 88 0
 103 0006 1168     		ldr	r1, [r2]
 104 0008 0B40     		ands	r3, r3, r1
 105              	.LVL7:
 106 000a 03F00203 		and	r3, r3, #2
 107              	.LVL8:
 108              		.loc 1 89 0
 109 000e 5361     		str	r3, [r2, #20]
 110              		.loc 1 91 0
 111 0010 23B1     		cbz	r3, .L12
 112              		.loc 1 91 0 is_stmt 0 discriminator 1
 113 0012 054A     		ldr	r2, .L19+4
 114 0014 9368     		ldr	r3, [r2, #8]
ARM GAS  /tmp/cckYmO6Z.s 			page 3


 115              	.LVL9:
 116 0016 0BB1     		cbz	r3, .L12
 117              		.loc 1 91 0 discriminator 2
 118 0018 D068     		ldr	r0, [r2, #12]
 119 001a 9847     		blx	r3
 120              	.LVL10:
 121              	.L12:
 122              		.loc 1 94 0 is_stmt 1
 123 001c BDE80840 		pop	{r3, lr}
 124              		.cfi_restore 14
 125              		.cfi_restore 3
 126              		.cfi_def_cfa_offset 0
 127              		.loc 1 93 0
 128 0020 FFF7FEBF 		b	_port_irq_epilogue
 129              	.LVL11:
 130              	.L20:
 131              		.align	2
 132              	.L19:
 133 0024 003C0140 		.word	1073822720
 134 0028 00000000 		.word	_pal_events
 135              		.cfi_endproc
 136              	.LFE324:
 137              		.size	Vector5C, .-Vector5C
 138              		.section	.text.Vector60,"ax",%progbits
 139              		.align	1
 140              		.global	Vector60
 141              		.syntax unified
 142              		.thumb
 143              		.thumb_func
 144              		.fpu fpv4-sp-d16
 145              		.type	Vector60, %function
 146              	Vector60:
 147              	.LFB325:
 148              		.loc 1 103 0
 149              		.cfi_startproc
 150              		@ args = 0, pretend = 0, frame = 0
 151              		@ frame_needed = 0, uses_anonymous_args = 0
 152              		.loc 1 108 0
 153 0000 084A     		ldr	r2, .L29
 154              		.loc 1 103 0
 155 0002 08B5     		push	{r3, lr}
 156              		.cfi_def_cfa_offset 8
 157              		.cfi_offset 3, -8
 158              		.cfi_offset 14, -4
 159              		.loc 1 108 0
 160 0004 5369     		ldr	r3, [r2, #20]
 161              	.LVL12:
 162              		.loc 1 109 0
 163 0006 1168     		ldr	r1, [r2]
 164 0008 0B40     		ands	r3, r3, r1
 165              	.LVL13:
 166 000a 03F00403 		and	r3, r3, #4
 167              	.LVL14:
 168              		.loc 1 110 0
 169 000e 5361     		str	r3, [r2, #20]
 170              		.loc 1 112 0
 171 0010 23B1     		cbz	r3, .L22
ARM GAS  /tmp/cckYmO6Z.s 			page 4


 172              		.loc 1 112 0 is_stmt 0 discriminator 1
 173 0012 054A     		ldr	r2, .L29+4
 174 0014 1369     		ldr	r3, [r2, #16]
 175              	.LVL15:
 176 0016 0BB1     		cbz	r3, .L22
 177              		.loc 1 112 0 discriminator 2
 178 0018 5069     		ldr	r0, [r2, #20]
 179 001a 9847     		blx	r3
 180              	.LVL16:
 181              	.L22:
 182              		.loc 1 115 0 is_stmt 1
 183 001c BDE80840 		pop	{r3, lr}
 184              		.cfi_restore 14
 185              		.cfi_restore 3
 186              		.cfi_def_cfa_offset 0
 187              		.loc 1 114 0
 188 0020 FFF7FEBF 		b	_port_irq_epilogue
 189              	.LVL17:
 190              	.L30:
 191              		.align	2
 192              	.L29:
 193 0024 003C0140 		.word	1073822720
 194 0028 00000000 		.word	_pal_events
 195              		.cfi_endproc
 196              	.LFE325:
 197              		.size	Vector60, .-Vector60
 198              		.section	.text.Vector64,"ax",%progbits
 199              		.align	1
 200              		.global	Vector64
 201              		.syntax unified
 202              		.thumb
 203              		.thumb_func
 204              		.fpu fpv4-sp-d16
 205              		.type	Vector64, %function
 206              	Vector64:
 207              	.LFB326:
 208              		.loc 1 124 0
 209              		.cfi_startproc
 210              		@ args = 0, pretend = 0, frame = 0
 211              		@ frame_needed = 0, uses_anonymous_args = 0
 212              		.loc 1 129 0
 213 0000 084A     		ldr	r2, .L39
 214              		.loc 1 124 0
 215 0002 08B5     		push	{r3, lr}
 216              		.cfi_def_cfa_offset 8
 217              		.cfi_offset 3, -8
 218              		.cfi_offset 14, -4
 219              		.loc 1 129 0
 220 0004 5369     		ldr	r3, [r2, #20]
 221              	.LVL18:
 222              		.loc 1 130 0
 223 0006 1168     		ldr	r1, [r2]
 224 0008 0B40     		ands	r3, r3, r1
 225              	.LVL19:
 226 000a 03F00803 		and	r3, r3, #8
 227              	.LVL20:
 228              		.loc 1 131 0
ARM GAS  /tmp/cckYmO6Z.s 			page 5


 229 000e 5361     		str	r3, [r2, #20]
 230              		.loc 1 133 0
 231 0010 23B1     		cbz	r3, .L32
 232              		.loc 1 133 0 is_stmt 0 discriminator 1
 233 0012 054A     		ldr	r2, .L39+4
 234 0014 9369     		ldr	r3, [r2, #24]
 235              	.LVL21:
 236 0016 0BB1     		cbz	r3, .L32
 237              		.loc 1 133 0 discriminator 2
 238 0018 D069     		ldr	r0, [r2, #28]
 239 001a 9847     		blx	r3
 240              	.LVL22:
 241              	.L32:
 242              		.loc 1 136 0 is_stmt 1
 243 001c BDE80840 		pop	{r3, lr}
 244              		.cfi_restore 14
 245              		.cfi_restore 3
 246              		.cfi_def_cfa_offset 0
 247              		.loc 1 135 0
 248 0020 FFF7FEBF 		b	_port_irq_epilogue
 249              	.LVL23:
 250              	.L40:
 251              		.align	2
 252              	.L39:
 253 0024 003C0140 		.word	1073822720
 254 0028 00000000 		.word	_pal_events
 255              		.cfi_endproc
 256              	.LFE326:
 257              		.size	Vector64, .-Vector64
 258              		.section	.text.Vector68,"ax",%progbits
 259              		.align	1
 260              		.global	Vector68
 261              		.syntax unified
 262              		.thumb
 263              		.thumb_func
 264              		.fpu fpv4-sp-d16
 265              		.type	Vector68, %function
 266              	Vector68:
 267              	.LFB327:
 268              		.loc 1 145 0
 269              		.cfi_startproc
 270              		@ args = 0, pretend = 0, frame = 0
 271              		@ frame_needed = 0, uses_anonymous_args = 0
 272              		.loc 1 150 0
 273 0000 084A     		ldr	r2, .L49
 274              		.loc 1 145 0
 275 0002 08B5     		push	{r3, lr}
 276              		.cfi_def_cfa_offset 8
 277              		.cfi_offset 3, -8
 278              		.cfi_offset 14, -4
 279              		.loc 1 150 0
 280 0004 5369     		ldr	r3, [r2, #20]
 281              	.LVL24:
 282              		.loc 1 151 0
 283 0006 1168     		ldr	r1, [r2]
 284 0008 0B40     		ands	r3, r3, r1
 285              	.LVL25:
ARM GAS  /tmp/cckYmO6Z.s 			page 6


 286 000a 03F01003 		and	r3, r3, #16
 287              	.LVL26:
 288              		.loc 1 152 0
 289 000e 5361     		str	r3, [r2, #20]
 290              		.loc 1 154 0
 291 0010 23B1     		cbz	r3, .L42
 292              		.loc 1 154 0 is_stmt 0 discriminator 1
 293 0012 054A     		ldr	r2, .L49+4
 294 0014 136A     		ldr	r3, [r2, #32]
 295              	.LVL27:
 296 0016 0BB1     		cbz	r3, .L42
 297              		.loc 1 154 0 discriminator 2
 298 0018 506A     		ldr	r0, [r2, #36]
 299 001a 9847     		blx	r3
 300              	.LVL28:
 301              	.L42:
 302              		.loc 1 157 0 is_stmt 1
 303 001c BDE80840 		pop	{r3, lr}
 304              		.cfi_restore 14
 305              		.cfi_restore 3
 306              		.cfi_def_cfa_offset 0
 307              		.loc 1 156 0
 308 0020 FFF7FEBF 		b	_port_irq_epilogue
 309              	.LVL29:
 310              	.L50:
 311              		.align	2
 312              	.L49:
 313 0024 003C0140 		.word	1073822720
 314 0028 00000000 		.word	_pal_events
 315              		.cfi_endproc
 316              	.LFE327:
 317              		.size	Vector68, .-Vector68
 318              		.section	.text.Vector9C,"ax",%progbits
 319              		.align	1
 320              		.global	Vector9C
 321              		.syntax unified
 322              		.thumb
 323              		.thumb_func
 324              		.fpu fpv4-sp-d16
 325              		.type	Vector9C, %function
 326              	Vector9C:
 327              	.LFB328:
 328              		.loc 1 166 0
 329              		.cfi_startproc
 330              		@ args = 0, pretend = 0, frame = 0
 331              		@ frame_needed = 0, uses_anonymous_args = 0
 332              		.loc 1 171 0
 333 0000 174B     		ldr	r3, .L87
 334              		.loc 1 166 0
 335 0002 10B5     		push	{r4, lr}
 336              		.cfi_def_cfa_offset 8
 337              		.cfi_offset 4, -8
 338              		.cfi_offset 14, -4
 339              		.loc 1 171 0
 340 0004 5C69     		ldr	r4, [r3, #20]
 341              	.LVL30:
 342              		.loc 1 172 0
ARM GAS  /tmp/cckYmO6Z.s 			page 7


 343 0006 1A68     		ldr	r2, [r3]
 344 0008 1440     		ands	r4, r4, r2
 345              	.LVL31:
 346 000a 04F47872 		and	r2, r4, #992
 347              	.LVL32:
 348              		.loc 1 174 0
 349 000e 5A61     		str	r2, [r3, #20]
 350              		.loc 1 176 0
 351 0010 A306     		lsls	r3, r4, #26
 352 0012 04D5     		bpl	.L52
 353              		.loc 1 176 0 is_stmt 0 discriminator 1
 354 0014 134A     		ldr	r2, .L87+4
 355              	.LVL33:
 356 0016 936A     		ldr	r3, [r2, #40]
 357 0018 0BB1     		cbz	r3, .L52
 358              		.loc 1 176 0 discriminator 2
 359 001a D06A     		ldr	r0, [r2, #44]
 360 001c 9847     		blx	r3
 361              	.LVL34:
 362              	.L52:
 363              		.loc 1 177 0 is_stmt 1
 364 001e 6006     		lsls	r0, r4, #25
 365 0020 04D5     		bpl	.L53
 366              		.loc 1 177 0 is_stmt 0 discriminator 1
 367 0022 104A     		ldr	r2, .L87+4
 368 0024 136B     		ldr	r3, [r2, #48]
 369 0026 0BB1     		cbz	r3, .L53
 370              		.loc 1 177 0 discriminator 2
 371 0028 506B     		ldr	r0, [r2, #52]
 372 002a 9847     		blx	r3
 373              	.LVL35:
 374              	.L53:
 375              		.loc 1 178 0 is_stmt 1
 376 002c 2106     		lsls	r1, r4, #24
 377 002e 04D5     		bpl	.L54
 378              		.loc 1 178 0 is_stmt 0 discriminator 1
 379 0030 0C4A     		ldr	r2, .L87+4
 380 0032 936B     		ldr	r3, [r2, #56]
 381 0034 0BB1     		cbz	r3, .L54
 382              		.loc 1 178 0 discriminator 2
 383 0036 D06B     		ldr	r0, [r2, #60]
 384 0038 9847     		blx	r3
 385              	.LVL36:
 386              	.L54:
 387              		.loc 1 179 0 is_stmt 1
 388 003a E205     		lsls	r2, r4, #23
 389 003c 04D5     		bpl	.L55
 390              		.loc 1 179 0 is_stmt 0 discriminator 1
 391 003e 094A     		ldr	r2, .L87+4
 392 0040 136C     		ldr	r3, [r2, #64]
 393 0042 0BB1     		cbz	r3, .L55
 394              		.loc 1 179 0 discriminator 2
 395 0044 506C     		ldr	r0, [r2, #68]
 396 0046 9847     		blx	r3
 397              	.LVL37:
 398              	.L55:
 399              		.loc 1 180 0 is_stmt 1
ARM GAS  /tmp/cckYmO6Z.s 			page 8


 400 0048 A305     		lsls	r3, r4, #22
 401 004a 04D5     		bpl	.L56
 402              		.loc 1 180 0 is_stmt 0 discriminator 1
 403 004c 054A     		ldr	r2, .L87+4
 404 004e 936C     		ldr	r3, [r2, #72]
 405 0050 0BB1     		cbz	r3, .L56
 406              		.loc 1 180 0 discriminator 2
 407 0052 D06C     		ldr	r0, [r2, #76]
 408 0054 9847     		blx	r3
 409              	.LVL38:
 410              	.L56:
 411              		.loc 1 183 0 is_stmt 1
 412 0056 BDE81040 		pop	{r4, lr}
 413              		.cfi_restore 14
 414              		.cfi_restore 4
 415              		.cfi_def_cfa_offset 0
 416              	.LVL39:
 417              		.loc 1 182 0
 418 005a FFF7FEBF 		b	_port_irq_epilogue
 419              	.LVL40:
 420              	.L88:
 421 005e 00BF     		.align	2
 422              	.L87:
 423 0060 003C0140 		.word	1073822720
 424 0064 00000000 		.word	_pal_events
 425              		.cfi_endproc
 426              	.LFE328:
 427              		.size	Vector9C, .-Vector9C
 428              		.section	.text.VectorE0,"ax",%progbits
 429              		.align	1
 430              		.global	VectorE0
 431              		.syntax unified
 432              		.thumb
 433              		.thumb_func
 434              		.fpu fpv4-sp-d16
 435              		.type	VectorE0, %function
 436              	VectorE0:
 437              	.LFB329:
 438              		.loc 1 192 0
 439              		.cfi_startproc
 440              		@ args = 0, pretend = 0, frame = 0
 441              		@ frame_needed = 0, uses_anonymous_args = 0
 442              		.loc 1 197 0
 443 0000 1A4B     		ldr	r3, .L132
 444              		.loc 1 192 0
 445 0002 10B5     		push	{r4, lr}
 446              		.cfi_def_cfa_offset 8
 447              		.cfi_offset 4, -8
 448              		.cfi_offset 14, -4
 449              		.loc 1 197 0
 450 0004 5C69     		ldr	r4, [r3, #20]
 451              	.LVL41:
 452              		.loc 1 198 0
 453 0006 1A68     		ldr	r2, [r3]
 454 0008 1440     		ands	r4, r4, r2
 455              	.LVL42:
 456 000a 04F47C42 		and	r2, r4, #64512
ARM GAS  /tmp/cckYmO6Z.s 			page 9


 457              	.LVL43:
 458              		.loc 1 200 0
 459 000e 5A61     		str	r2, [r3, #20]
 460              		.loc 1 202 0
 461 0010 6205     		lsls	r2, r4, #21
 462              	.LVL44:
 463 0012 04D5     		bpl	.L90
 464              		.loc 1 202 0 is_stmt 0 discriminator 1
 465 0014 164A     		ldr	r2, .L132+4
 466 0016 136D     		ldr	r3, [r2, #80]
 467              	.LVL45:
 468 0018 0BB1     		cbz	r3, .L90
 469              		.loc 1 202 0 discriminator 2
 470 001a 506D     		ldr	r0, [r2, #84]
 471 001c 9847     		blx	r3
 472              	.LVL46:
 473              	.L90:
 474              		.loc 1 203 0 is_stmt 1
 475 001e 2305     		lsls	r3, r4, #20
 476 0020 04D5     		bpl	.L91
 477              		.loc 1 203 0 is_stmt 0 discriminator 1
 478 0022 134A     		ldr	r2, .L132+4
 479 0024 936D     		ldr	r3, [r2, #88]
 480 0026 0BB1     		cbz	r3, .L91
 481              		.loc 1 203 0 discriminator 2
 482 0028 D06D     		ldr	r0, [r2, #92]
 483 002a 9847     		blx	r3
 484              	.LVL47:
 485              	.L91:
 486              		.loc 1 204 0 is_stmt 1
 487 002c E004     		lsls	r0, r4, #19
 488 002e 04D5     		bpl	.L92
 489              		.loc 1 204 0 is_stmt 0 discriminator 1
 490 0030 0F4A     		ldr	r2, .L132+4
 491 0032 136E     		ldr	r3, [r2, #96]
 492 0034 0BB1     		cbz	r3, .L92
 493              		.loc 1 204 0 discriminator 2
 494 0036 506E     		ldr	r0, [r2, #100]
 495 0038 9847     		blx	r3
 496              	.LVL48:
 497              	.L92:
 498              		.loc 1 205 0 is_stmt 1
 499 003a A104     		lsls	r1, r4, #18
 500 003c 04D5     		bpl	.L93
 501              		.loc 1 205 0 is_stmt 0 discriminator 1
 502 003e 0C4A     		ldr	r2, .L132+4
 503 0040 936E     		ldr	r3, [r2, #104]
 504 0042 0BB1     		cbz	r3, .L93
 505              		.loc 1 205 0 discriminator 2
 506 0044 D06E     		ldr	r0, [r2, #108]
 507 0046 9847     		blx	r3
 508              	.LVL49:
 509              	.L93:
 510              		.loc 1 206 0 is_stmt 1
 511 0048 6204     		lsls	r2, r4, #17
 512 004a 04D5     		bpl	.L94
 513              		.loc 1 206 0 is_stmt 0 discriminator 1
ARM GAS  /tmp/cckYmO6Z.s 			page 10


 514 004c 084A     		ldr	r2, .L132+4
 515 004e 136F     		ldr	r3, [r2, #112]
 516 0050 0BB1     		cbz	r3, .L94
 517              		.loc 1 206 0 discriminator 2
 518 0052 506F     		ldr	r0, [r2, #116]
 519 0054 9847     		blx	r3
 520              	.LVL50:
 521              	.L94:
 522              		.loc 1 207 0 is_stmt 1
 523 0056 2304     		lsls	r3, r4, #16
 524 0058 04D5     		bpl	.L95
 525              		.loc 1 207 0 is_stmt 0 discriminator 1
 526 005a 054A     		ldr	r2, .L132+4
 527 005c 936F     		ldr	r3, [r2, #120]
 528 005e 0BB1     		cbz	r3, .L95
 529              		.loc 1 207 0 discriminator 2
 530 0060 D06F     		ldr	r0, [r2, #124]
 531 0062 9847     		blx	r3
 532              	.LVL51:
 533              	.L95:
 534              		.loc 1 210 0 is_stmt 1
 535 0064 BDE81040 		pop	{r4, lr}
 536              		.cfi_restore 14
 537              		.cfi_restore 4
 538              		.cfi_def_cfa_offset 0
 539              	.LVL52:
 540              		.loc 1 209 0
 541 0068 FFF7FEBF 		b	_port_irq_epilogue
 542              	.LVL53:
 543              	.L133:
 544              		.align	2
 545              	.L132:
 546 006c 003C0140 		.word	1073822720
 547 0070 00000000 		.word	_pal_events
 548              		.cfi_endproc
 549              	.LFE329:
 550              		.size	VectorE0, .-VectorE0
 551              		.section	.text.irqInit,"ax",%progbits
 552              		.align	1
 553              		.global	irqInit
 554              		.syntax unified
 555              		.thumb
 556              		.thumb_func
 557              		.fpu fpv4-sp-d16
 558              		.type	irqInit, %function
 559              	irqInit:
 560              	.LFB330:
 561              		.loc 1 224 0
 562              		.cfi_startproc
 563              		@ args = 0, pretend = 0, frame = 0
 564              		@ frame_needed = 0, uses_anonymous_args = 0
 565              		.loc 1 227 0
 566 0000 0621     		movs	r1, #6
 567              		.loc 1 224 0
 568 0002 08B5     		push	{r3, lr}
 569              		.cfi_def_cfa_offset 8
 570              		.cfi_offset 3, -8
ARM GAS  /tmp/cckYmO6Z.s 			page 11


 571              		.cfi_offset 14, -4
 572              		.loc 1 227 0
 573 0004 0846     		mov	r0, r1
 574 0006 FFF7FEFF 		bl	nvicEnableVector
 575              	.LVL54:
 576              		.loc 1 228 0
 577 000a 0621     		movs	r1, #6
 578 000c 0720     		movs	r0, #7
 579 000e FFF7FEFF 		bl	nvicEnableVector
 580              	.LVL55:
 581              		.loc 1 229 0
 582 0012 0621     		movs	r1, #6
 583 0014 0820     		movs	r0, #8
 584 0016 FFF7FEFF 		bl	nvicEnableVector
 585              	.LVL56:
 586              		.loc 1 230 0
 587 001a 0621     		movs	r1, #6
 588 001c 0920     		movs	r0, #9
 589 001e FFF7FEFF 		bl	nvicEnableVector
 590              	.LVL57:
 591              		.loc 1 231 0
 592 0022 0621     		movs	r1, #6
 593 0024 0A20     		movs	r0, #10
 594 0026 FFF7FEFF 		bl	nvicEnableVector
 595              	.LVL58:
 596              		.loc 1 232 0
 597 002a 0621     		movs	r1, #6
 598 002c 1720     		movs	r0, #23
 599 002e FFF7FEFF 		bl	nvicEnableVector
 600              	.LVL59:
 601              		.loc 1 233 0
 602 0032 0621     		movs	r1, #6
 603 0034 2820     		movs	r0, #40
 604              		.loc 1 235 0
 605 0036 BDE80840 		pop	{r3, lr}
 606              		.cfi_restore 14
 607              		.cfi_restore 3
 608              		.cfi_def_cfa_offset 0
 609              		.loc 1 233 0
 610 003a FFF7FEBF 		b	nvicEnableVector
 611              	.LVL60:
 612              		.cfi_endproc
 613              	.LFE330:
 614              		.size	irqInit, .-irqInit
 615              		.section	.text.irqDeinit,"ax",%progbits
 616              		.align	1
 617              		.global	irqDeinit
 618              		.syntax unified
 619              		.thumb
 620              		.thumb_func
 621              		.fpu fpv4-sp-d16
 622              		.type	irqDeinit, %function
 623              	irqDeinit:
 624              	.LFB331:
 625              		.loc 1 242 0
 626              		.cfi_startproc
 627              		@ args = 0, pretend = 0, frame = 0
ARM GAS  /tmp/cckYmO6Z.s 			page 12


 628              		@ frame_needed = 0, uses_anonymous_args = 0
 629 0000 08B5     		push	{r3, lr}
 630              		.cfi_def_cfa_offset 8
 631              		.cfi_offset 3, -8
 632              		.cfi_offset 14, -4
 633              		.loc 1 245 0
 634 0002 0620     		movs	r0, #6
 635 0004 FFF7FEFF 		bl	nvicDisableVector
 636              	.LVL61:
 637              		.loc 1 246 0
 638 0008 0720     		movs	r0, #7
 639 000a FFF7FEFF 		bl	nvicDisableVector
 640              	.LVL62:
 641              		.loc 1 247 0
 642 000e 0820     		movs	r0, #8
 643 0010 FFF7FEFF 		bl	nvicDisableVector
 644              	.LVL63:
 645              		.loc 1 248 0
 646 0014 0920     		movs	r0, #9
 647 0016 FFF7FEFF 		bl	nvicDisableVector
 648              	.LVL64:
 649              		.loc 1 249 0
 650 001a 0A20     		movs	r0, #10
 651 001c FFF7FEFF 		bl	nvicDisableVector
 652              	.LVL65:
 653              		.loc 1 250 0
 654 0020 1720     		movs	r0, #23
 655 0022 FFF7FEFF 		bl	nvicDisableVector
 656              	.LVL66:
 657              		.loc 1 251 0
 658 0026 2820     		movs	r0, #40
 659              		.loc 1 253 0
 660 0028 BDE80840 		pop	{r3, lr}
 661              		.cfi_restore 14
 662              		.cfi_restore 3
 663              		.cfi_def_cfa_offset 0
 664              		.loc 1 251 0
 665 002c FFF7FEBF 		b	nvicDisableVector
 666              	.LVL67:
 667              		.cfi_endproc
 668              	.LFE331:
 669              		.size	irqDeinit, .-irqDeinit
 670              		.text
 671              	.Letext0:
 672              		.file 2 "/opt/gcc-arm-none-eabi-6-2017-q2-update/lib/gcc/arm-none-eabi/6.3.1/include/stddef.h"
 673              		.file 3 "/opt/gcc-arm-none-eabi-6-2017-q2-update/arm-none-eabi/include/machine/_default_types.h"
 674              		.file 4 "/opt/gcc-arm-none-eabi-6-2017-q2-update/arm-none-eabi/include/sys/_stdint.h"
 675              		.file 5 "/opt/gcc-arm-none-eabi-6-2017-q2-update/arm-none-eabi/include/stdint.h"
 676              		.file 6 "../../modules/ChibiOS/os/common/ports/ARMCMx/compilers/GCC/chtypes.h"
 677              		.file 7 "../../modules/ChibiOS/os/rt/include/chsystypes.h"
 678              		.file 8 "../../modules/ChibiOS/os/rt/include/chschd.h"
 679              		.file 9 "../../modules/ChibiOS/os/rt/include/chtime.h"
 680              		.file 10 "../../modules/ChibiOS/os/common/ext/ARM/CMSIS/Core/Include/core_cm4.h"
 681              		.file 11 "../../modules/ChibiOS/os/common/ext/ST/STM32F4xx/system_stm32f4xx.h"
 682              		.file 12 "../../modules/ChibiOS/os/common/ext/ST/STM32F4xx/stm32f407xx.h"
 683              		.file 13 "../../modules/ChibiOS/os/common/ports/ARMCMx/chcore.h"
 684              		.file 14 "../../modules/ChibiOS/os/common/ports/ARMCMx/chcore_v7m.h"
ARM GAS  /tmp/cckYmO6Z.s 			page 13


 685              		.file 15 "../../modules/ChibiOS/os/hal/ports/STM32/LLD/TIMv1/stm32_tim.h"
 686              		.file 16 "../../modules/ChibiOS/os/rt/include/chtm.h"
 687              		.file 17 "../../modules/ChibiOS/os/rt/include/chsem.h"
 688              		.file 18 "../../modules/ChibiOS/os/rt/include/chmtx.h"
 689              		.file 19 "../../modules/ChibiOS/os/rt/include/chsys.h"
 690              		.file 20 "../../modules/ChibiOS/os/rt/include/chregistry.h"
 691              		.file 21 "../../modules/ChibiOS/os/rt/include/chevents.h"
 692              		.file 22 "../../modules/ChibiOS/os/oslib/include/chmemcore.h"
 693              		.file 23 "../../modules/ChibiOS/os/oslib/include/chmempools.h"
 694              		.file 24 "../../modules/ChibiOS/os/oslib/include/chfactory.h"
 695              		.file 25 "../../modules/ChibiOS/os/hal/ports/STM32/LLD/DMAv2/stm32_dma.h"
 696              		.file 26 "../../modules/ChibiOS/os/hal/include/hal_queues.h"
 697              		.file 27 "../../modules/ChibiOS/os/hal/include/hal_pal.h"
 698              		.file 28 "../../modules/ChibiOS/os/hal/ports/STM32/LLD/GPIOv2/stm32_gpio.h"
 699              		.file 29 "../../modules/ChibiOS/os/hal/ports/STM32/LLD/GPIOv2/hal_pal_lld.h"
 700              		.file 30 "../../modules/ChibiOS/os/hal/include/hal_adc.h"
 701              		.file 31 "../../modules/ChibiOS/os/hal/ports/STM32/LLD/ADCv2/hal_adc_lld.h"
 702              		.file 32 "../../modules/ChibiOS/os/hal/include/hal_i2c.h"
 703              		.file 33 "../../modules/ChibiOS/os/hal/ports/STM32/LLD/I2Cv1/hal_i2c_lld.h"
 704              		.file 34 "../../modules/ChibiOS/os/hal/include/hal_icu.h"
 705              		.file 35 "../../modules/ChibiOS/os/hal/ports/STM32/LLD/TIMv1/hal_icu_lld.h"
 706              		.file 36 "../../modules/ChibiOS/os/hal/include/hal_pwm.h"
 707              		.file 37 "../../modules/ChibiOS/os/hal/ports/STM32/LLD/TIMv1/hal_pwm_lld.h"
 708              		.file 38 "../../modules/ChibiOS/os/hal/include/hal_serial.h"
 709              		.file 39 "../../modules/ChibiOS/os/hal/ports/STM32/LLD/USARTv1/hal_serial_lld.h"
 710              		.file 40 "../../modules/ChibiOS/os/hal/include/hal_spi.h"
 711              		.file 41 "../../modules/ChibiOS/os/hal/ports/STM32/LLD/SPIv1/hal_spi_lld.h"
 712              		.file 42 "../../modules/ChibiOS/os/hal/include/hal_usb.h"
 713              		.file 43 "../../modules/ChibiOS/os/hal/ports/STM32/LLD/OTGv1/hal_usb_lld.h"
 714              		.file 44 "../../modules/ChibiOS/os/hal/ports/STM32/LLD/OTGv1/stm32_otg.h"
 715              		.file 45 "../../modules/ChibiOS/os/hal/ports/common/ARMCMx/nvic.h"