ARM GAS  /tmp/cc80MFtY.s 			page 1


   1              		.cpu cortex-m4
   2              		.eabi_attribute 27, 1
   3              		.eabi_attribute 28, 1
   4              		.eabi_attribute 20, 1
   5              		.eabi_attribute 21, 1
   6              		.eabi_attribute 23, 3
   7              		.eabi_attribute 24, 1
   8              		.eabi_attribute 25, 1
   9              		.eabi_attribute 26, 1
  10              		.eabi_attribute 30, 4
  11              		.eabi_attribute 34, 1
  12              		.eabi_attribute 18, 4
  13              		.file	"stubs.c"
  14              		.text
  15              	.Ltext0:
  16              		.cfi_sections	.debug_frame
  17              		.section	.text._read,"ax",%progbits
  18              		.align	1
  19              		.global	_read
  20              		.syntax unified
  21              		.thumb
  22              		.thumb_func
  23              		.fpu fpv4-sp-d16
  24              		.type	_read, %function
  25              	_read:
  26              	.LFB229:
  27              		.cfi_startproc
  28              		@ args = 0, pretend = 0, frame = 0
  29              		@ frame_needed = 0, uses_anonymous_args = 0
  30              		@ link register save eliminated.
  31 0000 4FF0FF30 		mov	r0, #-1
  32 0004 7047     		bx	lr
  33              		.cfi_endproc
  34              	.LFE229:
  35              		.size	_read, .-_read
  36              		.section	.text._lseek,"ax",%progbits
  37              		.align	1
  38              		.global	_lseek
  39              		.syntax unified
  40              		.thumb
  41              		.thumb_func
  42              		.fpu fpv4-sp-d16
  43              		.type	_lseek, %function
  44              	_lseek:
  45              	.LFB218:
  46              		.file 1 "../../libraries/AP_HAL_ChibiOS/hwdef/common/stubs.c"
  47              		.loc 1 103 0
  48              		.cfi_startproc
  49              		@ args = 0, pretend = 0, frame = 0
  50              		@ frame_needed = 0, uses_anonymous_args = 0
  51              		@ link register save eliminated.
  52              	.LVL0:
  53              		.loc 1 110 0
  54 0000 0020     		movs	r0, #0
  55              	.LVL1:
  56 0002 7047     		bx	lr
  57              		.cfi_endproc
ARM GAS  /tmp/cc80MFtY.s 			page 2


  58              	.LFE218:
  59              		.size	_lseek, .-_lseek
  60              		.section	.text._write,"ax",%progbits
  61              		.align	1
  62              		.global	_write
  63              		.syntax unified
  64              		.thumb
  65              		.thumb_func
  66              		.fpu fpv4-sp-d16
  67              		.type	_write, %function
  68              	_write:
  69              	.LFB219:
  70              		.loc 1 116 0
  71              		.cfi_startproc
  72              		@ args = 0, pretend = 0, frame = 0
  73              		@ frame_needed = 0, uses_anonymous_args = 0
  74              		@ link register save eliminated.
  75              	.LVL2:
  76              		.loc 1 122 0
  77 0000 4FF0FF30 		mov	r0, #-1
  78              	.LVL3:
  79 0004 7047     		bx	lr
  80              		.cfi_endproc
  81              	.LFE219:
  82              		.size	_write, .-_write
  83              		.section	.text._close,"ax",%progbits
  84              		.align	1
  85              		.global	_close
  86              		.syntax unified
  87              		.thumb
  88              		.thumb_func
  89              		.fpu fpv4-sp-d16
  90              		.type	_close, %function
  91              	_close:
  92              	.LFB220:
  93              		.loc 1 128 0
  94              		.cfi_startproc
  95              		@ args = 0, pretend = 0, frame = 0
  96              		@ frame_needed = 0, uses_anonymous_args = 0
  97              		@ link register save eliminated.
  98              	.LVL4:
  99              		.loc 1 132 0
 100 0000 0020     		movs	r0, #0
 101              	.LVL5:
 102 0002 7047     		bx	lr
 103              		.cfi_endproc
 104              	.LFE220:
 105              		.size	_close, .-_close
 106              		.section	.text._sbrk,"ax",%progbits
 107              		.align	1
 108              		.global	_sbrk
 109              		.syntax unified
 110              		.thumb
 111              		.thumb_func
 112              		.fpu fpv4-sp-d16
 113              		.type	_sbrk, %function
 114              	_sbrk:
ARM GAS  /tmp/cc80MFtY.s 			page 3


 115              	.LFB221:
 116              		.loc 1 138 0
 117              		.cfi_startproc
 118              		@ args = 0, pretend = 0, frame = 0
 119              		@ frame_needed = 0, uses_anonymous_args = 0
 120              		@ link register save eliminated.
 121              	.LVL6:
 122              		.loc 1 151 0
 123 0000 0C23     		movs	r3, #12
 124 0002 0360     		str	r3, [r0]
 125              		.loc 1 154 0
 126 0004 4FF0FF30 		mov	r0, #-1
 127              	.LVL7:
 128 0008 7047     		bx	lr
 129              		.cfi_endproc
 130              	.LFE221:
 131              		.size	_sbrk, .-_sbrk
 132              		.section	.text._fstat,"ax",%progbits
 133              		.align	1
 134              		.global	_fstat
 135              		.syntax unified
 136              		.thumb
 137              		.thumb_func
 138              		.fpu fpv4-sp-d16
 139              		.type	_fstat, %function
 140              	_fstat:
 141              	.LFB222:
 142              		.loc 1 161 0
 143              		.cfi_startproc
 144              		@ args = 0, pretend = 0, frame = 0
 145              		@ frame_needed = 0, uses_anonymous_args = 0
 146              		@ link register save eliminated.
 147              	.LVL8:
 148              		.loc 1 166 0
 149 0000 4FF0FF30 		mov	r0, #-1
 150              	.LVL9:
 151 0004 7047     		bx	lr
 152              		.cfi_endproc
 153              	.LFE222:
 154              		.size	_fstat, .-_fstat
 155              		.section	.text._isatty,"ax",%progbits
 156              		.align	1
 157              		.global	_isatty
 158              		.syntax unified
 159              		.thumb
 160              		.thumb_func
 161              		.fpu fpv4-sp-d16
 162              		.type	_isatty, %function
 163              	_isatty:
 164              	.LFB223:
 165              		.loc 1 172 0
 166              		.cfi_startproc
 167              		@ args = 0, pretend = 0, frame = 0
 168              		@ frame_needed = 0, uses_anonymous_args = 0
 169              		@ link register save eliminated.
 170              	.LVL10:
 171              		.loc 1 176 0
ARM GAS  /tmp/cc80MFtY.s 			page 4


 172 0000 0120     		movs	r0, #1
 173              	.LVL11:
 174 0002 7047     		bx	lr
 175              		.cfi_endproc
 176              	.LFE223:
 177              		.size	_isatty, .-_isatty
 178              		.section	.text._getpid,"ax",%progbits
 179              		.align	1
 180              		.global	_getpid
 181              		.syntax unified
 182              		.thumb
 183              		.thumb_func
 184              		.fpu fpv4-sp-d16
 185              		.type	_getpid, %function
 186              	_getpid:
 187              	.LFB224:
 188              		.loc 1 180 0
 189              		.cfi_startproc
 190              		@ args = 0, pretend = 0, frame = 0
 191              		@ frame_needed = 0, uses_anonymous_args = 0
 192              		@ link register save eliminated.
 193              		.loc 1 182 0
 194 0000 0020     		movs	r0, #0
 195 0002 7047     		bx	lr
 196              		.cfi_endproc
 197              	.LFE224:
 198              		.size	_getpid, .-_getpid
 199              		.section	.text._exit,"ax",%progbits
 200              		.align	1
 201              		.global	_exit
 202              		.syntax unified
 203              		.thumb
 204              		.thumb_func
 205              		.fpu fpv4-sp-d16
 206              		.type	_exit, %function
 207              	_exit:
 208              	.LFB225:
 209              		.loc 1 186 0
 210              		.cfi_startproc
 211              		@ Volatile: function does not return.
 212              		@ args = 0, pretend = 0, frame = 0
 213              		@ frame_needed = 0, uses_anonymous_args = 0
 214              		@ link register save eliminated.
 215              	.LVL12:
 216              	.L10:
 217 0000 FEE7     		b	.L10
 218              		.cfi_endproc
 219              	.LFE225:
 220              		.size	_exit, .-_exit
 221              		.section	.text._fini,"ax",%progbits
 222              		.align	1
 223              		.global	_fini
 224              		.syntax unified
 225              		.thumb
 226              		.thumb_func
 227              		.fpu fpv4-sp-d16
 228              		.type	_fini, %function
ARM GAS  /tmp/cc80MFtY.s 			page 5


 229              	_fini:
 230              	.LFB226:
 231              		.loc 1 193 0
 232              		.cfi_startproc
 233              		@ args = 0, pretend = 0, frame = 0
 234              		@ frame_needed = 0, uses_anonymous_args = 0
 235              		@ link register save eliminated.
 236 0000 7047     		bx	lr
 237              		.cfi_endproc
 238              	.LFE226:
 239              		.size	_fini, .-_fini
 240              		.section	.text._kill,"ax",%progbits
 241              		.align	1
 242              		.global	_kill
 243              		.syntax unified
 244              		.thumb
 245              		.thumb_func
 246              		.fpu fpv4-sp-d16
 247              		.type	_kill, %function
 248              	_kill:
 249              	.LFB227:
 250              		.loc 1 198 0
 251              		.cfi_startproc
 252              		@ args = 0, pretend = 0, frame = 0
 253              		@ frame_needed = 0, uses_anonymous_args = 0
 254              		@ link register save eliminated.
 255              	.LVL13:
 256              		.loc 1 202 0
 257 0000 4FF0FF30 		mov	r0, #-1
 258              	.LVL14:
 259 0004 7047     		bx	lr
 260              		.cfi_endproc
 261              	.LFE227:
 262              		.size	_kill, .-_kill
 263              		.global	_before_main
 264              		.section	.data._before_main,"aw",%progbits
 265              		.type	_before_main, %object
 266              		.size	_before_main, 1
 267              	_before_main:
 268 0000 01       		.byte	1
 269              		.text
 270              	.Letext0:
 271              		.file 2 "/opt/gcc-arm-none-eabi-6-2017-q2-update/arm-none-eabi/include/machine/_default_types.h"
 272              		.file 3 "/opt/gcc-arm-none-eabi-6-2017-q2-update/arm-none-eabi/include/sys/lock.h"
 273              		.file 4 "/opt/gcc-arm-none-eabi-6-2017-q2-update/arm-none-eabi/include/sys/_types.h"
 274              		.file 5 "/opt/gcc-arm-none-eabi-6-2017-q2-update/lib/gcc/arm-none-eabi/6.3.1/include/stddef.h"
 275              		.file 6 "/opt/gcc-arm-none-eabi-6-2017-q2-update/arm-none-eabi/include/sys/_stdint.h"
 276              		.file 7 "/opt/gcc-arm-none-eabi-6-2017-q2-update/arm-none-eabi/include/sys/_timeval.h"
 277              		.file 8 "/opt/gcc-arm-none-eabi-6-2017-q2-update/arm-none-eabi/include/sys/types.h"
 278              		.file 9 "/opt/gcc-arm-none-eabi-6-2017-q2-update/arm-none-eabi/include/sys/unistd.h"
 279              		.file 10 "/opt/gcc-arm-none-eabi-6-2017-q2-update/arm-none-eabi/include/sys/reent.h"
 280              		.file 11 "/opt/gcc-arm-none-eabi-6-2017-q2-update/arm-none-eabi/include/sys/errno.h"
 281              		.file 12 "/opt/gcc-arm-none-eabi-6-2017-q2-update/arm-none-eabi/include/time.h"
 282              		.file 13 "/opt/gcc-arm-none-eabi-6-2017-q2-update/arm-none-eabi/include/sys/stat.h"
 283              		.file 14 "../../modules/ChibiOS/os/common/ports/ARMCMx/compilers/GCC/chtypes.h"
 284              		.file 15 "../../modules/ChibiOS/os/rt/include/chsystypes.h"
 285              		.file 16 "../../modules/ChibiOS/os/rt/include/chschd.h"
ARM GAS  /tmp/cc80MFtY.s 			page 6


 286              		.file 17 "../../modules/ChibiOS/os/rt/include/chtime.h"
 287              		.file 18 "../../modules/ChibiOS/os/common/ext/ARM/CMSIS/Core/Include/core_cm4.h"
 288              		.file 19 "../../modules/ChibiOS/os/common/ext/ST/STM32F4xx/system_stm32f4xx.h"
 289              		.file 20 "../../modules/ChibiOS/os/common/ports/ARMCMx/chcore.h"
 290              		.file 21 "../../modules/ChibiOS/os/common/ports/ARMCMx/chcore_v7m.h"
 291              		.file 22 "../../modules/ChibiOS/os/rt/include/chsys.h"
 292              		.section	.debug_info,"",%progbits
 293              	.Ldebug_info0:
 294 0000 7F120000 		.4byte	0x127f
 295 0004 0400     		.2byte	0x4
 296 0006 00000000 		.4byte	.Ldebug_abbrev0
 297 000a 04       		.byte	0x4
 298 000b 01       		.uleb128 0x1
 299 000c B7020000 		.4byte	.LASF240
 300 0010 0C       		.byte	0xc
 301 0011 18060000 		.4byte	.LASF241
 302 0015 09080000 		.4byte	.LASF242
 303 0019 00000000 		.4byte	.Ldebug_ranges0+0
 304 001d 00000000 		.4byte	0
 305 0021 00000000 		.4byte	.Ldebug_line0
 306 0025 02       		.uleb128 0x2
 307 0026 01       		.byte	0x1
 308 0027 06       		.byte	0x6
 309 0028 C9010000 		.4byte	.LASF0
 310 002c 03       		.uleb128 0x3
 311 002d 0B010000 		.4byte	.LASF4
 312 0031 02       		.byte	0x2
 313 0032 2B       		.byte	0x2b
 314 0033 37000000 		.4byte	0x37
 315 0037 02       		.uleb128 0x2
 316 0038 01       		.byte	0x1
 317 0039 08       		.byte	0x8
 318 003a 1C020000 		.4byte	.LASF1
 319 003e 02       		.uleb128 0x2
 320 003f 02       		.byte	0x2
 321 0040 05       		.byte	0x5
 322 0041 BF080000 		.4byte	.LASF2
 323 0045 02       		.uleb128 0x2
 324 0046 02       		.byte	0x2
 325 0047 07       		.byte	0x7
 326 0048 B2090000 		.4byte	.LASF3
 327 004c 03       		.uleb128 0x3
 328 004d F8090000 		.4byte	.LASF5
 329 0051 02       		.byte	0x2
 330 0052 4D       		.byte	0x4d
 331 0053 57000000 		.4byte	0x57
 332 0057 02       		.uleb128 0x2
 333 0058 04       		.byte	0x4
 334 0059 05       		.byte	0x5
 335 005a 4F010000 		.4byte	.LASF6
 336 005e 03       		.uleb128 0x3
 337 005f 64050000 		.4byte	.LASF7
 338 0063 02       		.byte	0x2
 339 0064 4F       		.byte	0x4f
 340 0065 69000000 		.4byte	0x69
 341 0069 02       		.uleb128 0x2
 342 006a 04       		.byte	0x4
ARM GAS  /tmp/cc80MFtY.s 			page 7


 343 006b 07       		.byte	0x7
 344 006c 71040000 		.4byte	.LASF8
 345 0070 02       		.uleb128 0x2
 346 0071 08       		.byte	0x8
 347 0072 05       		.byte	0x5
 348 0073 7A050000 		.4byte	.LASF9
 349 0077 03       		.uleb128 0x3
 350 0078 5B040000 		.4byte	.LASF10
 351 007c 02       		.byte	0x2
 352 007d 69       		.byte	0x69
 353 007e 82000000 		.4byte	0x82
 354 0082 02       		.uleb128 0x2
 355 0083 08       		.byte	0x8
 356 0084 07       		.byte	0x7
 357 0085 88070000 		.4byte	.LASF11
 358 0089 04       		.uleb128 0x4
 359 008a 04       		.byte	0x4
 360 008b 05       		.byte	0x5
 361 008c 696E7400 		.ascii	"int\000"
 362 0090 02       		.uleb128 0x2
 363 0091 04       		.byte	0x4
 364 0092 07       		.byte	0x7
 365 0093 EC050000 		.4byte	.LASF12
 366 0097 02       		.uleb128 0x2
 367 0098 08       		.byte	0x8
 368 0099 04       		.byte	0x4
 369 009a 02070000 		.4byte	.LASF13
 370 009e 03       		.uleb128 0x3
 371 009f 30090000 		.4byte	.LASF14
 372 00a3 03       		.byte	0x3
 373 00a4 22       		.byte	0x22
 374 00a5 A9000000 		.4byte	0xa9
 375 00a9 05       		.uleb128 0x5
 376 00aa 04       		.byte	0x4
 377 00ab AF000000 		.4byte	0xaf
 378 00af 06       		.uleb128 0x6
 379 00b0 2C040000 		.4byte	.LASF154
 380 00b4 03       		.uleb128 0x3
 381 00b5 32050000 		.4byte	.LASF15
 382 00b9 04       		.byte	0x4
 383 00ba 1C       		.byte	0x1c
 384 00bb 57000000 		.4byte	0x57
 385 00bf 03       		.uleb128 0x3
 386 00c0 D5010000 		.4byte	.LASF16
 387 00c4 04       		.byte	0x4
 388 00c5 20       		.byte	0x20
 389 00c6 57000000 		.4byte	0x57
 390 00ca 03       		.uleb128 0x3
 391 00cb 9F090000 		.4byte	.LASF17
 392 00cf 04       		.byte	0x4
 393 00d0 2C       		.byte	0x2c
 394 00d1 57000000 		.4byte	0x57
 395 00d5 03       		.uleb128 0x3
 396 00d6 24070000 		.4byte	.LASF18
 397 00da 04       		.byte	0x4
 398 00db 32       		.byte	0x32
 399 00dc 89000000 		.4byte	0x89
ARM GAS  /tmp/cc80MFtY.s 			page 8


 400 00e0 03       		.uleb128 0x3
 401 00e1 15010000 		.4byte	.LASF19
 402 00e5 04       		.byte	0x4
 403 00e6 36       		.byte	0x36
 404 00e7 3E000000 		.4byte	0x3e
 405 00eb 03       		.uleb128 0x3
 406 00ec 40090000 		.4byte	.LASF20
 407 00f0 04       		.byte	0x4
 408 00f1 3A       		.byte	0x3a
 409 00f2 45000000 		.4byte	0x45
 410 00f6 03       		.uleb128 0x3
 411 00f7 9F000000 		.4byte	.LASF21
 412 00fb 04       		.byte	0x4
 413 00fc 3D       		.byte	0x3d
 414 00fd 45000000 		.4byte	0x45
 415 0101 03       		.uleb128 0x3
 416 0102 5C050000 		.4byte	.LASF22
 417 0106 04       		.byte	0x4
 418 0107 49       		.byte	0x49
 419 0108 45000000 		.4byte	0x45
 420 010c 03       		.uleb128 0x3
 421 010d AE020000 		.4byte	.LASF23
 422 0111 04       		.byte	0x4
 423 0112 58       		.byte	0x58
 424 0113 5E000000 		.4byte	0x5e
 425 0117 03       		.uleb128 0x3
 426 0118 9F070000 		.4byte	.LASF24
 427 011c 04       		.byte	0x4
 428 011d 64       		.byte	0x64
 429 011e CA000000 		.4byte	0xca
 430 0122 03       		.uleb128 0x3
 431 0123 45070000 		.4byte	.LASF25
 432 0127 04       		.byte	0x4
 433 0128 72       		.byte	0x72
 434 0129 57000000 		.4byte	0x57
 435 012d 07       		.uleb128 0x7
 436 012e 73080000 		.4byte	.LASF26
 437 0132 05       		.byte	0x5
 438 0133 6501     		.2byte	0x165
 439 0135 90000000 		.4byte	0x90
 440 0139 08       		.uleb128 0x8
 441 013a 04       		.byte	0x4
 442 013b 04       		.byte	0x4
 443 013c A6       		.byte	0xa6
 444 013d 58010000 		.4byte	0x158
 445 0141 09       		.uleb128 0x9
 446 0142 FC000000 		.4byte	.LASF27
 447 0146 04       		.byte	0x4
 448 0147 A8       		.byte	0xa8
 449 0148 2D010000 		.4byte	0x12d
 450 014c 09       		.uleb128 0x9
 451 014d 4D070000 		.4byte	.LASF28
 452 0151 04       		.byte	0x4
 453 0152 A9       		.byte	0xa9
 454 0153 58010000 		.4byte	0x158
 455 0157 00       		.byte	0
 456 0158 0A       		.uleb128 0xa
ARM GAS  /tmp/cc80MFtY.s 			page 9


 457 0159 37000000 		.4byte	0x37
 458 015d 68010000 		.4byte	0x168
 459 0161 0B       		.uleb128 0xb
 460 0162 68010000 		.4byte	0x168
 461 0166 03       		.byte	0x3
 462 0167 00       		.byte	0
 463 0168 02       		.uleb128 0x2
 464 0169 04       		.byte	0x4
 465 016a 07       		.byte	0x7
 466 016b 00000000 		.4byte	.LASF29
 467 016f 0C       		.uleb128 0xc
 468 0170 08       		.byte	0x8
 469 0171 04       		.byte	0x4
 470 0172 A3       		.byte	0xa3
 471 0173 90010000 		.4byte	0x190
 472 0177 0D       		.uleb128 0xd
 473 0178 BB060000 		.4byte	.LASF30
 474 017c 04       		.byte	0x4
 475 017d A5       		.byte	0xa5
 476 017e 89000000 		.4byte	0x89
 477 0182 00       		.byte	0
 478 0183 0D       		.uleb128 0xd
 479 0184 14000000 		.4byte	.LASF31
 480 0188 04       		.byte	0x4
 481 0189 AA       		.byte	0xaa
 482 018a 39010000 		.4byte	0x139
 483 018e 04       		.byte	0x4
 484 018f 00       		.byte	0
 485 0190 03       		.uleb128 0x3
 486 0191 63080000 		.4byte	.LASF32
 487 0195 04       		.byte	0x4
 488 0196 AB       		.byte	0xab
 489 0197 6F010000 		.4byte	0x16f
 490 019b 03       		.uleb128 0x3
 491 019c 53080000 		.4byte	.LASF33
 492 01a0 04       		.byte	0x4
 493 01a1 AF       		.byte	0xaf
 494 01a2 9E000000 		.4byte	0x9e
 495 01a6 0E       		.uleb128 0xe
 496 01a7 04       		.byte	0x4
 497 01a8 03       		.uleb128 0x3
 498 01a9 090A0000 		.4byte	.LASF34
 499 01ad 04       		.byte	0x4
 500 01ae CB       		.byte	0xcb
 501 01af 45000000 		.4byte	0x45
 502 01b3 03       		.uleb128 0x3
 503 01b4 E1010000 		.4byte	.LASF35
 504 01b8 06       		.byte	0x6
 505 01b9 18       		.byte	0x18
 506 01ba 2C000000 		.4byte	0x2c
 507 01be 0F       		.uleb128 0xf
 508 01bf B3010000 		.4byte	0x1b3
 509 01c3 03       		.uleb128 0x3
 510 01c4 54000000 		.4byte	.LASF36
 511 01c8 06       		.byte	0x6
 512 01c9 2C       		.byte	0x2c
 513 01ca 4C000000 		.4byte	0x4c
ARM GAS  /tmp/cc80MFtY.s 			page 10


 514 01ce 10       		.uleb128 0x10
 515 01cf C3010000 		.4byte	0x1c3
 516 01d3 03       		.uleb128 0x3
 517 01d4 87090000 		.4byte	.LASF37
 518 01d8 06       		.byte	0x6
 519 01d9 30       		.byte	0x30
 520 01da 5E000000 		.4byte	0x5e
 521 01de 03       		.uleb128 0x3
 522 01df C9080000 		.4byte	.LASF38
 523 01e3 06       		.byte	0x6
 524 01e4 3C       		.byte	0x3c
 525 01e5 77000000 		.4byte	0x77
 526 01e9 03       		.uleb128 0x3
 527 01ea DE000000 		.4byte	.LASF39
 528 01ee 07       		.byte	0x7
 529 01ef 28       		.byte	0x28
 530 01f0 57000000 		.4byte	0x57
 531 01f4 03       		.uleb128 0x3
 532 01f5 F9050000 		.4byte	.LASF40
 533 01f9 08       		.byte	0x8
 534 01fa 71       		.byte	0x71
 535 01fb B4000000 		.4byte	0xb4
 536 01ff 03       		.uleb128 0x3
 537 0200 5C090000 		.4byte	.LASF41
 538 0204 08       		.byte	0x8
 539 0205 76       		.byte	0x76
 540 0206 BF000000 		.4byte	0xbf
 541 020a 03       		.uleb128 0x3
 542 020b 02060000 		.4byte	.LASF42
 543 020f 08       		.byte	0x8
 544 0210 8B       		.byte	0x8b
 545 0211 15020000 		.4byte	0x215
 546 0215 05       		.uleb128 0x5
 547 0216 04       		.byte	0x4
 548 0217 1B020000 		.4byte	0x21b
 549 021b 02       		.uleb128 0x2
 550 021c 01       		.byte	0x1
 551 021d 08       		.byte	0x8
 552 021e 8F020000 		.4byte	.LASF43
 553 0222 0F       		.uleb128 0xf
 554 0223 1B020000 		.4byte	0x21b
 555 0227 03       		.uleb128 0x3
 556 0228 66040000 		.4byte	.LASF44
 557 022c 08       		.byte	0x8
 558 022d 9B       		.byte	0x9b
 559 022e 01010000 		.4byte	0x101
 560 0232 03       		.uleb128 0x3
 561 0233 CC060000 		.4byte	.LASF45
 562 0237 08       		.byte	0x8
 563 0238 AD       		.byte	0xad
 564 0239 17010000 		.4byte	0x117
 565 023d 03       		.uleb128 0x3
 566 023e 91000000 		.4byte	.LASF46
 567 0242 08       		.byte	0x8
 568 0243 B1       		.byte	0xb1
 569 0244 E0000000 		.4byte	0xe0
 570 0248 03       		.uleb128 0x3
ARM GAS  /tmp/cc80MFtY.s 			page 11


 571 0249 1D010000 		.4byte	.LASF47
 572 024d 08       		.byte	0x8
 573 024e B5       		.byte	0xb5
 574 024f EB000000 		.4byte	0xeb
 575 0253 03       		.uleb128 0x3
 576 0254 3A0A0000 		.4byte	.LASF48
 577 0258 08       		.byte	0x8
 578 0259 B9       		.byte	0xb9
 579 025a F6000000 		.4byte	0xf6
 580 025e 03       		.uleb128 0x3
 581 025f 4C060000 		.4byte	.LASF49
 582 0263 08       		.byte	0x8
 583 0264 BE       		.byte	0xbe
 584 0265 D5000000 		.4byte	0xd5
 585 0269 03       		.uleb128 0x3
 586 026a D2060000 		.4byte	.LASF50
 587 026e 08       		.byte	0x8
 588 026f CD       		.byte	0xcd
 589 0270 0C010000 		.4byte	0x10c
 590 0274 03       		.uleb128 0x3
 591 0275 97000000 		.4byte	.LASF51
 592 0279 08       		.byte	0x8
 593 027a D2       		.byte	0xd2
 594 027b A8010000 		.4byte	0x1a8
 595 027f 11       		.uleb128 0x11
 596 0280 14020000 		.4byte	.LASF52
 597 0284 09       		.byte	0x9
 598 0285 10       		.byte	0x10
 599 0286 8A020000 		.4byte	0x28a
 600 028a 05       		.uleb128 0x5
 601 028b 04       		.byte	0x4
 602 028c 15020000 		.4byte	0x215
 603 0290 11       		.uleb128 0x11
 604 0291 98090000 		.4byte	.LASF53
 605 0295 09       		.byte	0x9
 606 0296 E2       		.byte	0xe2
 607 0297 15020000 		.4byte	0x215
 608 029b 11       		.uleb128 0x11
 609 029c 54040000 		.4byte	.LASF54
 610 02a0 09       		.byte	0x9
 611 02a1 E3       		.byte	0xe3
 612 02a2 89000000 		.4byte	0x89
 613 02a6 11       		.uleb128 0x11
 614 02a7 F5070000 		.4byte	.LASF55
 615 02ab 09       		.byte	0x9
 616 02ac E3       		.byte	0xe3
 617 02ad 89000000 		.4byte	0x89
 618 02b1 11       		.uleb128 0x11
 619 02b2 81070000 		.4byte	.LASF56
 620 02b6 09       		.byte	0x9
 621 02b7 E3       		.byte	0xe3
 622 02b8 89000000 		.4byte	0x89
 623 02bc 11       		.uleb128 0x11
 624 02bd F2030000 		.4byte	.LASF57
 625 02c1 09       		.byte	0x9
 626 02c2 E5       		.byte	0xe5
 627 02c3 89000000 		.4byte	0x89
ARM GAS  /tmp/cc80MFtY.s 			page 12


 628 02c7 03       		.uleb128 0x3
 629 02c8 7F090000 		.4byte	.LASF58
 630 02cc 0A       		.byte	0xa
 631 02cd 16       		.byte	0x16
 632 02ce 69000000 		.4byte	0x69
 633 02d2 12       		.uleb128 0x12
 634 02d3 22050000 		.4byte	.LASF63
 635 02d7 18       		.byte	0x18
 636 02d8 0A       		.byte	0xa
 637 02d9 2F       		.byte	0x2f
 638 02da 25030000 		.4byte	0x325
 639 02de 0D       		.uleb128 0xd
 640 02df 7A080000 		.4byte	.LASF59
 641 02e3 0A       		.byte	0xa
 642 02e4 31       		.byte	0x31
 643 02e5 25030000 		.4byte	0x325
 644 02e9 00       		.byte	0
 645 02ea 13       		.uleb128 0x13
 646 02eb 5F6B00   		.ascii	"_k\000"
 647 02ee 0A       		.byte	0xa
 648 02ef 32       		.byte	0x32
 649 02f0 89000000 		.4byte	0x89
 650 02f4 04       		.byte	0x4
 651 02f5 0D       		.uleb128 0xd
 652 02f6 2A050000 		.4byte	.LASF60
 653 02fa 0A       		.byte	0xa
 654 02fb 32       		.byte	0x32
 655 02fc 89000000 		.4byte	0x89
 656 0300 08       		.byte	0x8
 657 0301 0D       		.uleb128 0xd
 658 0302 E0050000 		.4byte	.LASF61
 659 0306 0A       		.byte	0xa
 660 0307 32       		.byte	0x32
 661 0308 89000000 		.4byte	0x89
 662 030c 0C       		.byte	0xc
 663 030d 0D       		.uleb128 0xd
 664 030e 19040000 		.4byte	.LASF62
 665 0312 0A       		.byte	0xa
 666 0313 32       		.byte	0x32
 667 0314 89000000 		.4byte	0x89
 668 0318 10       		.byte	0x10
 669 0319 13       		.uleb128 0x13
 670 031a 5F7800   		.ascii	"_x\000"
 671 031d 0A       		.byte	0xa
 672 031e 33       		.byte	0x33
 673 031f 2B030000 		.4byte	0x32b
 674 0323 14       		.byte	0x14
 675 0324 00       		.byte	0
 676 0325 05       		.uleb128 0x5
 677 0326 04       		.byte	0x4
 678 0327 D2020000 		.4byte	0x2d2
 679 032b 0A       		.uleb128 0xa
 680 032c C7020000 		.4byte	0x2c7
 681 0330 3B030000 		.4byte	0x33b
 682 0334 0B       		.uleb128 0xb
 683 0335 68010000 		.4byte	0x168
 684 0339 00       		.byte	0
ARM GAS  /tmp/cc80MFtY.s 			page 13


 685 033a 00       		.byte	0
 686 033b 12       		.uleb128 0x12
 687 033c AF000000 		.4byte	.LASF64
 688 0340 24       		.byte	0x24
 689 0341 0A       		.byte	0xa
 690 0342 37       		.byte	0x37
 691 0343 B4030000 		.4byte	0x3b4
 692 0347 0D       		.uleb128 0xd
 693 0348 CB000000 		.4byte	.LASF65
 694 034c 0A       		.byte	0xa
 695 034d 39       		.byte	0x39
 696 034e 89000000 		.4byte	0x89
 697 0352 00       		.byte	0
 698 0353 0D       		.uleb128 0xd
 699 0354 400A0000 		.4byte	.LASF66
 700 0358 0A       		.byte	0xa
 701 0359 3A       		.byte	0x3a
 702 035a 89000000 		.4byte	0x89
 703 035e 04       		.byte	0x4
 704 035f 0D       		.uleb128 0xd
 705 0360 C5090000 		.4byte	.LASF67
 706 0364 0A       		.byte	0xa
 707 0365 3B       		.byte	0x3b
 708 0366 89000000 		.4byte	0x89
 709 036a 08       		.byte	0x8
 710 036b 0D       		.uleb128 0xd
 711 036c 52060000 		.4byte	.LASF68
 712 0370 0A       		.byte	0xa
 713 0371 3C       		.byte	0x3c
 714 0372 89000000 		.4byte	0x89
 715 0376 0C       		.byte	0xc
 716 0377 0D       		.uleb128 0xd
 717 0378 A5010000 		.4byte	.LASF69
 718 037c 0A       		.byte	0xa
 719 037d 3D       		.byte	0x3d
 720 037e 89000000 		.4byte	0x89
 721 0382 10       		.byte	0x10
 722 0383 0D       		.uleb128 0xd
 723 0384 FD080000 		.4byte	.LASF70
 724 0388 0A       		.byte	0xa
 725 0389 3E       		.byte	0x3e
 726 038a 89000000 		.4byte	0x89
 727 038e 14       		.byte	0x14
 728 038f 0D       		.uleb128 0xd
 729 0390 E6060000 		.4byte	.LASF71
 730 0394 0A       		.byte	0xa
 731 0395 3F       		.byte	0x3f
 732 0396 89000000 		.4byte	0x89
 733 039a 18       		.byte	0x18
 734 039b 0D       		.uleb128 0xd
 735 039c 0E070000 		.4byte	.LASF72
 736 03a0 0A       		.byte	0xa
 737 03a1 40       		.byte	0x40
 738 03a2 89000000 		.4byte	0x89
 739 03a6 1C       		.byte	0x1c
 740 03a7 0D       		.uleb128 0xd
 741 03a8 2A0A0000 		.4byte	.LASF73
ARM GAS  /tmp/cc80MFtY.s 			page 14


 742 03ac 0A       		.byte	0xa
 743 03ad 41       		.byte	0x41
 744 03ae 89000000 		.4byte	0x89
 745 03b2 20       		.byte	0x20
 746 03b3 00       		.byte	0
 747 03b4 14       		.uleb128 0x14
 748 03b5 29010000 		.4byte	.LASF74
 749 03b9 0801     		.2byte	0x108
 750 03bb 0A       		.byte	0xa
 751 03bc 4A       		.byte	0x4a
 752 03bd F4030000 		.4byte	0x3f4
 753 03c1 0D       		.uleb128 0xd
 754 03c2 130A0000 		.4byte	.LASF75
 755 03c6 0A       		.byte	0xa
 756 03c7 4B       		.byte	0x4b
 757 03c8 F4030000 		.4byte	0x3f4
 758 03cc 00       		.byte	0
 759 03cd 0D       		.uleb128 0xd
 760 03ce A7070000 		.4byte	.LASF76
 761 03d2 0A       		.byte	0xa
 762 03d3 4C       		.byte	0x4c
 763 03d4 F4030000 		.4byte	0x3f4
 764 03d8 80       		.byte	0x80
 765 03d9 15       		.uleb128 0x15
 766 03da D7080000 		.4byte	.LASF77
 767 03de 0A       		.byte	0xa
 768 03df 4E       		.byte	0x4e
 769 03e0 C7020000 		.4byte	0x2c7
 770 03e4 0001     		.2byte	0x100
 771 03e6 15       		.uleb128 0x15
 772 03e7 28090000 		.4byte	.LASF78
 773 03eb 0A       		.byte	0xa
 774 03ec 51       		.byte	0x51
 775 03ed C7020000 		.4byte	0x2c7
 776 03f1 0401     		.2byte	0x104
 777 03f3 00       		.byte	0
 778 03f4 0A       		.uleb128 0xa
 779 03f5 A6010000 		.4byte	0x1a6
 780 03f9 04040000 		.4byte	0x404
 781 03fd 0B       		.uleb128 0xb
 782 03fe 68010000 		.4byte	0x168
 783 0402 1F       		.byte	0x1f
 784 0403 00       		.byte	0
 785 0404 14       		.uleb128 0x14
 786 0405 B3060000 		.4byte	.LASF79
 787 0409 9001     		.2byte	0x190
 788 040b 0A       		.byte	0xa
 789 040c 5D       		.byte	0x5d
 790 040d 42040000 		.4byte	0x442
 791 0411 0D       		.uleb128 0xd
 792 0412 7A080000 		.4byte	.LASF59
 793 0416 0A       		.byte	0xa
 794 0417 5E       		.byte	0x5e
 795 0418 42040000 		.4byte	0x442
 796 041c 00       		.byte	0
 797 041d 0D       		.uleb128 0xd
 798 041e 1C090000 		.4byte	.LASF80
ARM GAS  /tmp/cc80MFtY.s 			page 15


 799 0422 0A       		.byte	0xa
 800 0423 5F       		.byte	0x5f
 801 0424 89000000 		.4byte	0x89
 802 0428 04       		.byte	0x4
 803 0429 0D       		.uleb128 0xd
 804 042a 94020000 		.4byte	.LASF81
 805 042e 0A       		.byte	0xa
 806 042f 61       		.byte	0x61
 807 0430 48040000 		.4byte	0x448
 808 0434 08       		.byte	0x8
 809 0435 0D       		.uleb128 0xd
 810 0436 29010000 		.4byte	.LASF74
 811 043a 0A       		.byte	0xa
 812 043b 62       		.byte	0x62
 813 043c B4030000 		.4byte	0x3b4
 814 0440 88       		.byte	0x88
 815 0441 00       		.byte	0
 816 0442 05       		.uleb128 0x5
 817 0443 04       		.byte	0x4
 818 0444 04040000 		.4byte	0x404
 819 0448 0A       		.uleb128 0xa
 820 0449 58040000 		.4byte	0x458
 821 044d 58040000 		.4byte	0x458
 822 0451 0B       		.uleb128 0xb
 823 0452 68010000 		.4byte	0x168
 824 0456 1F       		.byte	0x1f
 825 0457 00       		.byte	0
 826 0458 05       		.uleb128 0x5
 827 0459 04       		.byte	0x4
 828 045a 5E040000 		.4byte	0x45e
 829 045e 16       		.uleb128 0x16
 830 045f 12       		.uleb128 0x12
 831 0460 21090000 		.4byte	.LASF82
 832 0464 08       		.byte	0x8
 833 0465 0A       		.byte	0xa
 834 0466 75       		.byte	0x75
 835 0467 84040000 		.4byte	0x484
 836 046b 0D       		.uleb128 0xd
 837 046c E9070000 		.4byte	.LASF83
 838 0470 0A       		.byte	0xa
 839 0471 76       		.byte	0x76
 840 0472 84040000 		.4byte	0x484
 841 0476 00       		.byte	0
 842 0477 0D       		.uleb128 0xd
 843 0478 6E010000 		.4byte	.LASF84
 844 047c 0A       		.byte	0xa
 845 047d 77       		.byte	0x77
 846 047e 89000000 		.4byte	0x89
 847 0482 04       		.byte	0x4
 848 0483 00       		.byte	0
 849 0484 05       		.uleb128 0x5
 850 0485 04       		.byte	0x4
 851 0486 37000000 		.4byte	0x37
 852 048a 12       		.uleb128 0x12
 853 048b 83040000 		.4byte	.LASF85
 854 048f 68       		.byte	0x68
 855 0490 0A       		.byte	0xa
ARM GAS  /tmp/cc80MFtY.s 			page 16


 856 0491 B5       		.byte	0xb5
 857 0492 B4050000 		.4byte	0x5b4
 858 0496 13       		.uleb128 0x13
 859 0497 5F7000   		.ascii	"_p\000"
 860 049a 0A       		.byte	0xa
 861 049b B6       		.byte	0xb6
 862 049c 84040000 		.4byte	0x484
 863 04a0 00       		.byte	0
 864 04a1 13       		.uleb128 0x13
 865 04a2 5F7200   		.ascii	"_r\000"
 866 04a5 0A       		.byte	0xa
 867 04a6 B7       		.byte	0xb7
 868 04a7 89000000 		.4byte	0x89
 869 04ab 04       		.byte	0x4
 870 04ac 13       		.uleb128 0x13
 871 04ad 5F7700   		.ascii	"_w\000"
 872 04b0 0A       		.byte	0xa
 873 04b1 B8       		.byte	0xb8
 874 04b2 89000000 		.4byte	0x89
 875 04b6 08       		.byte	0x8
 876 04b7 0D       		.uleb128 0xd
 877 04b8 99060000 		.4byte	.LASF86
 878 04bc 0A       		.byte	0xa
 879 04bd B9       		.byte	0xb9
 880 04be 3E000000 		.4byte	0x3e
 881 04c2 0C       		.byte	0xc
 882 04c3 0D       		.uleb128 0xd
 883 04c4 23010000 		.4byte	.LASF87
 884 04c8 0A       		.byte	0xa
 885 04c9 BA       		.byte	0xba
 886 04ca 3E000000 		.4byte	0x3e
 887 04ce 0E       		.byte	0xe
 888 04cf 13       		.uleb128 0x13
 889 04d0 5F626600 		.ascii	"_bf\000"
 890 04d4 0A       		.byte	0xa
 891 04d5 BB       		.byte	0xbb
 892 04d6 5F040000 		.4byte	0x45f
 893 04da 10       		.byte	0x10
 894 04db 0D       		.uleb128 0xd
 895 04dc 07090000 		.4byte	.LASF88
 896 04e0 0A       		.byte	0xa
 897 04e1 BC       		.byte	0xbc
 898 04e2 89000000 		.4byte	0x89
 899 04e6 18       		.byte	0x18
 900 04e7 0D       		.uleb128 0xd
 901 04e8 11040000 		.4byte	.LASF89
 902 04ec 0A       		.byte	0xa
 903 04ed C3       		.byte	0xc3
 904 04ee A6010000 		.4byte	0x1a6
 905 04f2 1C       		.byte	0x1c
 906 04f3 0D       		.uleb128 0xd
 907 04f4 2B000000 		.4byte	.LASF90
 908 04f8 0A       		.byte	0xa
 909 04f9 C5       		.byte	0xc5
 910 04fa 0F070000 		.4byte	0x70f
 911 04fe 20       		.byte	0x20
 912 04ff 0D       		.uleb128 0xd
ARM GAS  /tmp/cc80MFtY.s 			page 17


 913 0500 4D000000 		.4byte	.LASF91
 914 0504 0A       		.byte	0xa
 915 0505 C7       		.byte	0xc7
 916 0506 43070000 		.4byte	0x743
 917 050a 24       		.byte	0x24
 918 050b 0D       		.uleb128 0xd
 919 050c 38070000 		.4byte	.LASF92
 920 0510 0A       		.byte	0xa
 921 0511 CA       		.byte	0xca
 922 0512 67070000 		.4byte	0x767
 923 0516 28       		.byte	0x28
 924 0517 0D       		.uleb128 0xd
 925 0518 99020000 		.4byte	.LASF93
 926 051c 0A       		.byte	0xa
 927 051d CB       		.byte	0xcb
 928 051e 81070000 		.4byte	0x781
 929 0522 2C       		.byte	0x2c
 930 0523 13       		.uleb128 0x13
 931 0524 5F756200 		.ascii	"_ub\000"
 932 0528 0A       		.byte	0xa
 933 0529 CE       		.byte	0xce
 934 052a 5F040000 		.4byte	0x45f
 935 052e 30       		.byte	0x30
 936 052f 13       		.uleb128 0x13
 937 0530 5F757000 		.ascii	"_up\000"
 938 0534 0A       		.byte	0xa
 939 0535 CF       		.byte	0xcf
 940 0536 84040000 		.4byte	0x484
 941 053a 38       		.byte	0x38
 942 053b 13       		.uleb128 0x13
 943 053c 5F757200 		.ascii	"_ur\000"
 944 0540 0A       		.byte	0xa
 945 0541 D0       		.byte	0xd0
 946 0542 89000000 		.4byte	0x89
 947 0546 3C       		.byte	0x3c
 948 0547 0D       		.uleb128 0xd
 949 0548 61060000 		.4byte	.LASF94
 950 054c 0A       		.byte	0xa
 951 054d D3       		.byte	0xd3
 952 054e 87070000 		.4byte	0x787
 953 0552 40       		.byte	0x40
 954 0553 0D       		.uleb128 0xd
 955 0554 C5000000 		.4byte	.LASF95
 956 0558 0A       		.byte	0xa
 957 0559 D4       		.byte	0xd4
 958 055a 97070000 		.4byte	0x797
 959 055e 43       		.byte	0x43
 960 055f 13       		.uleb128 0x13
 961 0560 5F6C6200 		.ascii	"_lb\000"
 962 0564 0A       		.byte	0xa
 963 0565 D7       		.byte	0xd7
 964 0566 5F040000 		.4byte	0x45f
 965 056a 44       		.byte	0x44
 966 056b 0D       		.uleb128 0xd
 967 056c E0070000 		.4byte	.LASF96
 968 0570 0A       		.byte	0xa
 969 0571 DA       		.byte	0xda
ARM GAS  /tmp/cc80MFtY.s 			page 18


 970 0572 89000000 		.4byte	0x89
 971 0576 4C       		.byte	0x4c
 972 0577 0D       		.uleb128 0xd
 973 0578 3D040000 		.4byte	.LASF97
 974 057c 0A       		.byte	0xa
 975 057d DB       		.byte	0xdb
 976 057e CA000000 		.4byte	0xca
 977 0582 50       		.byte	0x50
 978 0583 0D       		.uleb128 0xd
 979 0584 80080000 		.4byte	.LASF98
 980 0588 0A       		.byte	0xa
 981 0589 DE       		.byte	0xde
 982 058a D2050000 		.4byte	0x5d2
 983 058e 54       		.byte	0x54
 984 058f 0D       		.uleb128 0xd
 985 0590 EB000000 		.4byte	.LASF99
 986 0594 0A       		.byte	0xa
 987 0595 E2       		.byte	0xe2
 988 0596 9B010000 		.4byte	0x19b
 989 059a 58       		.byte	0x58
 990 059b 0D       		.uleb128 0xd
 991 059c 7D060000 		.4byte	.LASF100
 992 05a0 0A       		.byte	0xa
 993 05a1 E4       		.byte	0xe4
 994 05a2 90010000 		.4byte	0x190
 995 05a6 5C       		.byte	0x5c
 996 05a7 0D       		.uleb128 0xd
 997 05a8 96040000 		.4byte	.LASF101
 998 05ac 0A       		.byte	0xa
 999 05ad E5       		.byte	0xe5
 1000 05ae 89000000 		.4byte	0x89
 1001 05b2 64       		.byte	0x64
 1002 05b3 00       		.byte	0
 1003 05b4 17       		.uleb128 0x17
 1004 05b5 89000000 		.4byte	0x89
 1005 05b9 D2050000 		.4byte	0x5d2
 1006 05bd 18       		.uleb128 0x18
 1007 05be D2050000 		.4byte	0x5d2
 1008 05c2 18       		.uleb128 0x18
 1009 05c3 A6010000 		.4byte	0x1a6
 1010 05c7 18       		.uleb128 0x18
 1011 05c8 15020000 		.4byte	0x215
 1012 05cc 18       		.uleb128 0x18
 1013 05cd 89000000 		.4byte	0x89
 1014 05d1 00       		.byte	0
 1015 05d2 05       		.uleb128 0x5
 1016 05d3 04       		.byte	0x4
 1017 05d4 DD050000 		.4byte	0x5dd
 1018 05d8 0F       		.uleb128 0xf
 1019 05d9 D2050000 		.4byte	0x5d2
 1020 05dd 19       		.uleb128 0x19
 1021 05de 66020000 		.4byte	.LASF102
 1022 05e2 2804     		.2byte	0x428
 1023 05e4 0A       		.byte	0xa
 1024 05e5 3902     		.2byte	0x239
 1025 05e7 0F070000 		.4byte	0x70f
 1026 05eb 1A       		.uleb128 0x1a
ARM GAS  /tmp/cc80MFtY.s 			page 19


 1027 05ec E8040000 		.4byte	.LASF103
 1028 05f0 0A       		.byte	0xa
 1029 05f1 3B02     		.2byte	0x23b
 1030 05f3 89000000 		.4byte	0x89
 1031 05f7 00       		.byte	0
 1032 05f8 1A       		.uleb128 0x1a
 1033 05f9 A7020000 		.4byte	.LASF104
 1034 05fd 0A       		.byte	0xa
 1035 05fe 4002     		.2byte	0x240
 1036 0600 EE070000 		.4byte	0x7ee
 1037 0604 04       		.byte	0x4
 1038 0605 1A       		.uleb128 0x1a
 1039 0606 D2070000 		.4byte	.LASF105
 1040 060a 0A       		.byte	0xa
 1041 060b 4002     		.2byte	0x240
 1042 060d EE070000 		.4byte	0x7ee
 1043 0611 08       		.byte	0x8
 1044 0612 1A       		.uleb128 0x1a
 1045 0613 67060000 		.4byte	.LASF106
 1046 0617 0A       		.byte	0xa
 1047 0618 4002     		.2byte	0x240
 1048 061a EE070000 		.4byte	0x7ee
 1049 061e 0C       		.byte	0xc
 1050 061f 1A       		.uleb128 0x1a
 1051 0620 17090000 		.4byte	.LASF107
 1052 0624 0A       		.byte	0xa
 1053 0625 4202     		.2byte	0x242
 1054 0627 89000000 		.4byte	0x89
 1055 062b 10       		.byte	0x10
 1056 062c 1A       		.uleb128 0x1a
 1057 062d 6F050000 		.4byte	.LASF108
 1058 0631 0A       		.byte	0xa
 1059 0632 4302     		.2byte	0x243
 1060 0634 D0090000 		.4byte	0x9d0
 1061 0638 14       		.byte	0x14
 1062 0639 1A       		.uleb128 0x1a
 1063 063a 4D020000 		.4byte	.LASF109
 1064 063e 0A       		.byte	0xa
 1065 063f 4602     		.2byte	0x246
 1066 0641 89000000 		.4byte	0x89
 1067 0645 30       		.byte	0x30
 1068 0646 1A       		.uleb128 0x1a
 1069 0647 77090000 		.4byte	.LASF110
 1070 064b 0A       		.byte	0xa
 1071 064c 4702     		.2byte	0x247
 1072 064e E5090000 		.4byte	0x9e5
 1073 0652 34       		.byte	0x34
 1074 0653 1A       		.uleb128 0x1a
 1075 0654 8B040000 		.4byte	.LASF111
 1076 0658 0A       		.byte	0xa
 1077 0659 4902     		.2byte	0x249
 1078 065b 89000000 		.4byte	0x89
 1079 065f 38       		.byte	0x38
 1080 0660 1A       		.uleb128 0x1a
 1081 0661 43000000 		.4byte	.LASF112
 1082 0665 0A       		.byte	0xa
 1083 0666 4B02     		.2byte	0x24b
ARM GAS  /tmp/cc80MFtY.s 			page 20


 1084 0668 F6090000 		.4byte	0x9f6
 1085 066c 3C       		.byte	0x3c
 1086 066d 1A       		.uleb128 0x1a
 1087 066e 90090000 		.4byte	.LASF113
 1088 0672 0A       		.byte	0xa
 1089 0673 4E02     		.2byte	0x24e
 1090 0675 25030000 		.4byte	0x325
 1091 0679 40       		.byte	0x40
 1092 067a 1A       		.uleb128 0x1a
 1093 067b 64010000 		.4byte	.LASF114
 1094 067f 0A       		.byte	0xa
 1095 0680 4F02     		.2byte	0x24f
 1096 0682 89000000 		.4byte	0x89
 1097 0686 44       		.byte	0x44
 1098 0687 1A       		.uleb128 0x1a
 1099 0688 6C040000 		.4byte	.LASF115
 1100 068c 0A       		.byte	0xa
 1101 068d 5002     		.2byte	0x250
 1102 068f 25030000 		.4byte	0x325
 1103 0693 48       		.byte	0x48
 1104 0694 1A       		.uleb128 0x1a
 1105 0695 BD050000 		.4byte	.LASF116
 1106 0699 0A       		.byte	0xa
 1107 069a 5102     		.2byte	0x251
 1108 069c FC090000 		.4byte	0x9fc
 1109 06a0 4C       		.byte	0x4c
 1110 06a1 1A       		.uleb128 0x1a
 1111 06a2 69000000 		.4byte	.LASF117
 1112 06a6 0A       		.byte	0xa
 1113 06a7 5402     		.2byte	0x254
 1114 06a9 89000000 		.4byte	0x89
 1115 06ad 50       		.byte	0x50
 1116 06ae 1A       		.uleb128 0x1a
 1117 06af 45040000 		.4byte	.LASF118
 1118 06b3 0A       		.byte	0xa
 1119 06b4 5502     		.2byte	0x255
 1120 06b6 15020000 		.4byte	0x215
 1121 06ba 54       		.byte	0x54
 1122 06bb 1A       		.uleb128 0x1a
 1123 06bc 5C060000 		.4byte	.LASF119
 1124 06c0 0A       		.byte	0xa
 1125 06c1 7802     		.2byte	0x278
 1126 06c3 AE090000 		.4byte	0x9ae
 1127 06c7 58       		.byte	0x58
 1128 06c8 1B       		.uleb128 0x1b
 1129 06c9 B3060000 		.4byte	.LASF79
 1130 06cd 0A       		.byte	0xa
 1131 06ce 7C02     		.2byte	0x27c
 1132 06d0 42040000 		.4byte	0x442
 1133 06d4 4801     		.2byte	0x148
 1134 06d6 1B       		.uleb128 0x1b
 1135 06d7 3D050000 		.4byte	.LASF120
 1136 06db 0A       		.byte	0xa
 1137 06dc 7D02     		.2byte	0x27d
 1138 06de 04040000 		.4byte	0x404
 1139 06e2 4C01     		.2byte	0x14c
 1140 06e4 1B       		.uleb128 0x1b
ARM GAS  /tmp/cc80MFtY.s 			page 21


 1141 06e5 33040000 		.4byte	.LASF121
 1142 06e9 0A       		.byte	0xa
 1143 06ea 8102     		.2byte	0x281
 1144 06ec 0D0A0000 		.4byte	0xa0d
 1145 06f0 DC02     		.2byte	0x2dc
 1146 06f2 1B       		.uleb128 0x1b
 1147 06f3 9D050000 		.4byte	.LASF122
 1148 06f7 0A       		.byte	0xa
 1149 06f8 8602     		.2byte	0x286
 1150 06fa B3070000 		.4byte	0x7b3
 1151 06fe E002     		.2byte	0x2e0
 1152 0700 1B       		.uleb128 0x1b
 1153 0701 26000000 		.4byte	.LASF123
 1154 0705 0A       		.byte	0xa
 1155 0706 8702     		.2byte	0x287
 1156 0708 190A0000 		.4byte	0xa19
 1157 070c EC02     		.2byte	0x2ec
 1158 070e 00       		.byte	0
 1159 070f 05       		.uleb128 0x5
 1160 0710 04       		.byte	0x4
 1161 0711 B4050000 		.4byte	0x5b4
 1162 0715 17       		.uleb128 0x17
 1163 0716 89000000 		.4byte	0x89
 1164 071a 33070000 		.4byte	0x733
 1165 071e 18       		.uleb128 0x18
 1166 071f D2050000 		.4byte	0x5d2
 1167 0723 18       		.uleb128 0x18
 1168 0724 A6010000 		.4byte	0x1a6
 1169 0728 18       		.uleb128 0x18
 1170 0729 33070000 		.4byte	0x733
 1171 072d 18       		.uleb128 0x18
 1172 072e 89000000 		.4byte	0x89
 1173 0732 00       		.byte	0
 1174 0733 05       		.uleb128 0x5
 1175 0734 04       		.byte	0x4
 1176 0735 22020000 		.4byte	0x222
 1177 0739 0F       		.uleb128 0xf
 1178 073a 33070000 		.4byte	0x733
 1179 073e 10       		.uleb128 0x10
 1180 073f 33070000 		.4byte	0x733
 1181 0743 05       		.uleb128 0x5
 1182 0744 04       		.byte	0x4
 1183 0745 15070000 		.4byte	0x715
 1184 0749 17       		.uleb128 0x17
 1185 074a 22010000 		.4byte	0x122
 1186 074e 67070000 		.4byte	0x767
 1187 0752 18       		.uleb128 0x18
 1188 0753 D2050000 		.4byte	0x5d2
 1189 0757 18       		.uleb128 0x18
 1190 0758 A6010000 		.4byte	0x1a6
 1191 075c 18       		.uleb128 0x18
 1192 075d 22010000 		.4byte	0x122
 1193 0761 18       		.uleb128 0x18
 1194 0762 89000000 		.4byte	0x89
 1195 0766 00       		.byte	0
 1196 0767 05       		.uleb128 0x5
 1197 0768 04       		.byte	0x4
ARM GAS  /tmp/cc80MFtY.s 			page 22


 1198 0769 49070000 		.4byte	0x749
 1199 076d 17       		.uleb128 0x17
 1200 076e 89000000 		.4byte	0x89
 1201 0772 81070000 		.4byte	0x781
 1202 0776 18       		.uleb128 0x18
 1203 0777 D2050000 		.4byte	0x5d2
 1204 077b 18       		.uleb128 0x18
 1205 077c A6010000 		.4byte	0x1a6
 1206 0780 00       		.byte	0
 1207 0781 05       		.uleb128 0x5
 1208 0782 04       		.byte	0x4
 1209 0783 6D070000 		.4byte	0x76d
 1210 0787 0A       		.uleb128 0xa
 1211 0788 37000000 		.4byte	0x37
 1212 078c 97070000 		.4byte	0x797
 1213 0790 0B       		.uleb128 0xb
 1214 0791 68010000 		.4byte	0x168
 1215 0795 02       		.byte	0x2
 1216 0796 00       		.byte	0
 1217 0797 0A       		.uleb128 0xa
 1218 0798 37000000 		.4byte	0x37
 1219 079c A7070000 		.4byte	0x7a7
 1220 07a0 0B       		.uleb128 0xb
 1221 07a1 68010000 		.4byte	0x168
 1222 07a5 00       		.byte	0
 1223 07a6 00       		.byte	0
 1224 07a7 07       		.uleb128 0x7
 1225 07a8 5C080000 		.4byte	.LASF124
 1226 07ac 0A       		.byte	0xa
 1227 07ad 1F01     		.2byte	0x11f
 1228 07af 8A040000 		.4byte	0x48a
 1229 07b3 1C       		.uleb128 0x1c
 1230 07b4 CD050000 		.4byte	.LASF125
 1231 07b8 0C       		.byte	0xc
 1232 07b9 0A       		.byte	0xa
 1233 07ba 2301     		.2byte	0x123
 1234 07bc E8070000 		.4byte	0x7e8
 1235 07c0 1A       		.uleb128 0x1a
 1236 07c1 7A080000 		.4byte	.LASF59
 1237 07c5 0A       		.byte	0xa
 1238 07c6 2501     		.2byte	0x125
 1239 07c8 E8070000 		.4byte	0x7e8
 1240 07cc 00       		.byte	0
 1241 07cd 1A       		.uleb128 0x1a
 1242 07ce 96050000 		.4byte	.LASF126
 1243 07d2 0A       		.byte	0xa
 1244 07d3 2601     		.2byte	0x126
 1245 07d5 89000000 		.4byte	0x89
 1246 07d9 04       		.byte	0x4
 1247 07da 1A       		.uleb128 0x1a
 1248 07db C7050000 		.4byte	.LASF127
 1249 07df 0A       		.byte	0xa
 1250 07e0 2701     		.2byte	0x127
 1251 07e2 EE070000 		.4byte	0x7ee
 1252 07e6 08       		.byte	0x8
 1253 07e7 00       		.byte	0
 1254 07e8 05       		.uleb128 0x5
ARM GAS  /tmp/cc80MFtY.s 			page 23


 1255 07e9 04       		.byte	0x4
 1256 07ea B3070000 		.4byte	0x7b3
 1257 07ee 05       		.uleb128 0x5
 1258 07ef 04       		.byte	0x4
 1259 07f0 A7070000 		.4byte	0x7a7
 1260 07f4 1C       		.uleb128 0x1c
 1261 07f5 CA070000 		.4byte	.LASF128
 1262 07f9 0E       		.byte	0xe
 1263 07fa 0A       		.byte	0xa
 1264 07fb 3F01     		.2byte	0x13f
 1265 07fd 29080000 		.4byte	0x829
 1266 0801 1A       		.uleb128 0x1a
 1267 0802 32070000 		.4byte	.LASF129
 1268 0806 0A       		.byte	0xa
 1269 0807 4001     		.2byte	0x140
 1270 0809 29080000 		.4byte	0x829
 1271 080d 00       		.byte	0
 1272 080e 1A       		.uleb128 0x1a
 1273 080f F1000000 		.4byte	.LASF130
 1274 0813 0A       		.byte	0xa
 1275 0814 4101     		.2byte	0x141
 1276 0816 29080000 		.4byte	0x829
 1277 081a 06       		.byte	0x6
 1278 081b 1A       		.uleb128 0x1a
 1279 081c AD090000 		.4byte	.LASF131
 1280 0820 0A       		.byte	0xa
 1281 0821 4201     		.2byte	0x142
 1282 0823 45000000 		.4byte	0x45
 1283 0827 0C       		.byte	0xc
 1284 0828 00       		.byte	0
 1285 0829 0A       		.uleb128 0xa
 1286 082a 45000000 		.4byte	0x45
 1287 082e 39080000 		.4byte	0x839
 1288 0832 0B       		.uleb128 0xb
 1289 0833 68010000 		.4byte	0x168
 1290 0837 02       		.byte	0x2
 1291 0838 00       		.byte	0
 1292 0839 1D       		.uleb128 0x1d
 1293 083a D0       		.byte	0xd0
 1294 083b 0A       		.byte	0xa
 1295 083c 5902     		.2byte	0x259
 1296 083e 3A090000 		.4byte	0x93a
 1297 0842 1A       		.uleb128 0x1a
 1298 0843 BC010000 		.4byte	.LASF132
 1299 0847 0A       		.byte	0xa
 1300 0848 5B02     		.2byte	0x25b
 1301 084a 90000000 		.4byte	0x90
 1302 084e 00       		.byte	0
 1303 084f 1A       		.uleb128 0x1a
 1304 0850 FC070000 		.4byte	.LASF133
 1305 0854 0A       		.byte	0xa
 1306 0855 5C02     		.2byte	0x25c
 1307 0857 15020000 		.4byte	0x215
 1308 085b 04       		.byte	0x4
 1309 085c 1A       		.uleb128 0x1a
 1310 085d 5C000000 		.4byte	.LASF134
 1311 0861 0A       		.byte	0xa
ARM GAS  /tmp/cc80MFtY.s 			page 24


 1312 0862 5D02     		.2byte	0x25d
 1313 0864 3A090000 		.4byte	0x93a
 1314 0868 08       		.byte	0x8
 1315 0869 1A       		.uleb128 0x1a
 1316 086a 74010000 		.4byte	.LASF135
 1317 086e 0A       		.byte	0xa
 1318 086f 5E02     		.2byte	0x25e
 1319 0871 3B030000 		.4byte	0x33b
 1320 0875 24       		.byte	0x24
 1321 0876 1A       		.uleb128 0x1a
 1322 0877 AE050000 		.4byte	.LASF136
 1323 087b 0A       		.byte	0xa
 1324 087c 5F02     		.2byte	0x25f
 1325 087e 89000000 		.4byte	0x89
 1326 0882 48       		.byte	0x48
 1327 0883 1A       		.uleb128 0x1a
 1328 0884 8E060000 		.4byte	.LASF137
 1329 0888 0A       		.byte	0xa
 1330 0889 6002     		.2byte	0x260
 1331 088b 82000000 		.4byte	0x82
 1332 088f 50       		.byte	0x50
 1333 0890 1A       		.uleb128 0x1a
 1334 0891 6E080000 		.4byte	.LASF138
 1335 0895 0A       		.byte	0xa
 1336 0896 6102     		.2byte	0x261
 1337 0898 F4070000 		.4byte	0x7f4
 1338 089c 58       		.byte	0x58
 1339 089d 1A       		.uleb128 0x1a
 1340 089e B2080000 		.4byte	.LASF139
 1341 08a2 0A       		.byte	0xa
 1342 08a3 6202     		.2byte	0x262
 1343 08a5 90010000 		.4byte	0x190
 1344 08a9 68       		.byte	0x68
 1345 08aa 1A       		.uleb128 0x1a
 1346 08ab 73070000 		.4byte	.LASF140
 1347 08af 0A       		.byte	0xa
 1348 08b0 6302     		.2byte	0x263
 1349 08b2 90010000 		.4byte	0x190
 1350 08b6 70       		.byte	0x70
 1351 08b7 1A       		.uleb128 0x1a
 1352 08b8 6F060000 		.4byte	.LASF141
 1353 08bc 0A       		.byte	0xa
 1354 08bd 6402     		.2byte	0x264
 1355 08bf 90010000 		.4byte	0x190
 1356 08c3 78       		.byte	0x78
 1357 08c4 1A       		.uleb128 0x1a
 1358 08c5 D4000000 		.4byte	.LASF142
 1359 08c9 0A       		.byte	0xa
 1360 08ca 6502     		.2byte	0x265
 1361 08cc 4A090000 		.4byte	0x94a
 1362 08d0 80       		.byte	0x80
 1363 08d1 1A       		.uleb128 0x1a
 1364 08d2 16050000 		.4byte	.LASF143
 1365 08d6 0A       		.byte	0xa
 1366 08d7 6602     		.2byte	0x266
 1367 08d9 5A090000 		.4byte	0x95a
 1368 08dd 88       		.byte	0x88
ARM GAS  /tmp/cc80MFtY.s 			page 25


 1369 08de 1A       		.uleb128 0x1a
 1370 08df 490A0000 		.4byte	.LASF144
 1371 08e3 0A       		.byte	0xa
 1372 08e4 6702     		.2byte	0x267
 1373 08e6 89000000 		.4byte	0x89
 1374 08ea A0       		.byte	0xa0
 1375 08eb 1A       		.uleb128 0x1a
 1376 08ec 41010000 		.4byte	.LASF145
 1377 08f0 0A       		.byte	0xa
 1378 08f1 6802     		.2byte	0x268
 1379 08f3 90010000 		.4byte	0x190
 1380 08f7 A4       		.byte	0xa4
 1381 08f8 1A       		.uleb128 0x1a
 1382 08f9 39080000 		.4byte	.LASF146
 1383 08fd 0A       		.byte	0xa
 1384 08fe 6902     		.2byte	0x269
 1385 0900 90010000 		.4byte	0x190
 1386 0904 AC       		.byte	0xac
 1387 0905 1A       		.uleb128 0x1a
 1388 0906 DB090000 		.4byte	.LASF147
 1389 090a 0A       		.byte	0xa
 1390 090b 6A02     		.2byte	0x26a
 1391 090d 90010000 		.4byte	0x190
 1392 0911 B4       		.byte	0xb4
 1393 0912 1A       		.uleb128 0x1a
 1394 0913 1B0A0000 		.4byte	.LASF148
 1395 0917 0A       		.byte	0xa
 1396 0918 6B02     		.2byte	0x26b
 1397 091a 90010000 		.4byte	0x190
 1398 091e BC       		.byte	0xbc
 1399 091f 1A       		.uleb128 0x1a
 1400 0920 B4000000 		.4byte	.LASF149
 1401 0924 0A       		.byte	0xa
 1402 0925 6C02     		.2byte	0x26c
 1403 0927 90010000 		.4byte	0x190
 1404 092b C4       		.byte	0xc4
 1405 092c 1A       		.uleb128 0x1a
 1406 092d 0A060000 		.4byte	.LASF150
 1407 0931 0A       		.byte	0xa
 1408 0932 6D02     		.2byte	0x26d
 1409 0934 89000000 		.4byte	0x89
 1410 0938 CC       		.byte	0xcc
 1411 0939 00       		.byte	0
 1412 093a 0A       		.uleb128 0xa
 1413 093b 1B020000 		.4byte	0x21b
 1414 093f 4A090000 		.4byte	0x94a
 1415 0943 0B       		.uleb128 0xb
 1416 0944 68010000 		.4byte	0x168
 1417 0948 19       		.byte	0x19
 1418 0949 00       		.byte	0
 1419 094a 0A       		.uleb128 0xa
 1420 094b 1B020000 		.4byte	0x21b
 1421 094f 5A090000 		.4byte	0x95a
 1422 0953 0B       		.uleb128 0xb
 1423 0954 68010000 		.4byte	0x168
 1424 0958 07       		.byte	0x7
 1425 0959 00       		.byte	0
ARM GAS  /tmp/cc80MFtY.s 			page 26


 1426 095a 0A       		.uleb128 0xa
 1427 095b 1B020000 		.4byte	0x21b
 1428 095f 6A090000 		.4byte	0x96a
 1429 0963 0B       		.uleb128 0xb
 1430 0964 68010000 		.4byte	0x168
 1431 0968 17       		.byte	0x17
 1432 0969 00       		.byte	0
 1433 096a 1D       		.uleb128 0x1d
 1434 096b F0       		.byte	0xf0
 1435 096c 0A       		.byte	0xa
 1436 096d 7202     		.2byte	0x272
 1437 096f 8E090000 		.4byte	0x98e
 1438 0973 1A       		.uleb128 0x1a
 1439 0974 48090000 		.4byte	.LASF151
 1440 0978 0A       		.byte	0xa
 1441 0979 7502     		.2byte	0x275
 1442 097b 8E090000 		.4byte	0x98e
 1443 097f 00       		.byte	0
 1444 0980 1A       		.uleb128 0x1a
 1445 0981 A5050000 		.4byte	.LASF152
 1446 0985 0A       		.byte	0xa
 1447 0986 7602     		.2byte	0x276
 1448 0988 9E090000 		.4byte	0x99e
 1449 098c 78       		.byte	0x78
 1450 098d 00       		.byte	0
 1451 098e 0A       		.uleb128 0xa
 1452 098f 84040000 		.4byte	0x484
 1453 0993 9E090000 		.4byte	0x99e
 1454 0997 0B       		.uleb128 0xb
 1455 0998 68010000 		.4byte	0x168
 1456 099c 1D       		.byte	0x1d
 1457 099d 00       		.byte	0
 1458 099e 0A       		.uleb128 0xa
 1459 099f 90000000 		.4byte	0x90
 1460 09a3 AE090000 		.4byte	0x9ae
 1461 09a7 0B       		.uleb128 0xb
 1462 09a8 68010000 		.4byte	0x168
 1463 09ac 1D       		.byte	0x1d
 1464 09ad 00       		.byte	0
 1465 09ae 1E       		.uleb128 0x1e
 1466 09af F0       		.byte	0xf0
 1467 09b0 0A       		.byte	0xa
 1468 09b1 5702     		.2byte	0x257
 1469 09b3 D0090000 		.4byte	0x9d0
 1470 09b7 1F       		.uleb128 0x1f
 1471 09b8 66020000 		.4byte	.LASF102
 1472 09bc 0A       		.byte	0xa
 1473 09bd 6E02     		.2byte	0x26e
 1474 09bf 39080000 		.4byte	0x839
 1475 09c3 1F       		.uleb128 0x1f
 1476 09c4 A7000000 		.4byte	.LASF153
 1477 09c8 0A       		.byte	0xa
 1478 09c9 7702     		.2byte	0x277
 1479 09cb 6A090000 		.4byte	0x96a
 1480 09cf 00       		.byte	0
 1481 09d0 0A       		.uleb128 0xa
 1482 09d1 1B020000 		.4byte	0x21b
ARM GAS  /tmp/cc80MFtY.s 			page 27


 1483 09d5 E0090000 		.4byte	0x9e0
 1484 09d9 0B       		.uleb128 0xb
 1485 09da 68010000 		.4byte	0x168
 1486 09de 18       		.byte	0x18
 1487 09df 00       		.byte	0
 1488 09e0 06       		.uleb128 0x6
 1489 09e1 09000000 		.4byte	.LASF155
 1490 09e5 05       		.uleb128 0x5
 1491 09e6 04       		.byte	0x4
 1492 09e7 E0090000 		.4byte	0x9e0
 1493 09eb 20       		.uleb128 0x20
 1494 09ec F6090000 		.4byte	0x9f6
 1495 09f0 18       		.uleb128 0x18
 1496 09f1 D2050000 		.4byte	0x5d2
 1497 09f5 00       		.byte	0
 1498 09f6 05       		.uleb128 0x5
 1499 09f7 04       		.byte	0x4
 1500 09f8 EB090000 		.4byte	0x9eb
 1501 09fc 05       		.uleb128 0x5
 1502 09fd 04       		.byte	0x4
 1503 09fe 25030000 		.4byte	0x325
 1504 0a02 20       		.uleb128 0x20
 1505 0a03 0D0A0000 		.4byte	0xa0d
 1506 0a07 18       		.uleb128 0x18
 1507 0a08 89000000 		.4byte	0x89
 1508 0a0c 00       		.byte	0
 1509 0a0d 05       		.uleb128 0x5
 1510 0a0e 04       		.byte	0x4
 1511 0a0f 130A0000 		.4byte	0xa13
 1512 0a13 05       		.uleb128 0x5
 1513 0a14 04       		.byte	0x4
 1514 0a15 020A0000 		.4byte	0xa02
 1515 0a19 0A       		.uleb128 0xa
 1516 0a1a A7070000 		.4byte	0x7a7
 1517 0a1e 290A0000 		.4byte	0xa29
 1518 0a22 0B       		.uleb128 0xb
 1519 0a23 68010000 		.4byte	0x168
 1520 0a27 02       		.byte	0x2
 1521 0a28 00       		.byte	0
 1522 0a29 21       		.uleb128 0x21
 1523 0a2a 58010000 		.4byte	.LASF156
 1524 0a2e 0A       		.byte	0xa
 1525 0a2f FE02     		.2byte	0x2fe
 1526 0a31 D2050000 		.4byte	0x5d2
 1527 0a35 21       		.uleb128 0x21
 1528 0a36 6D020000 		.4byte	.LASF157
 1529 0a3a 0A       		.byte	0xa
 1530 0a3b FF02     		.2byte	0x2ff
 1531 0a3d D8050000 		.4byte	0x5d8
 1532 0a41 0A       		.uleb128 0xa
 1533 0a42 39070000 		.4byte	0x739
 1534 0a46 4C0A0000 		.4byte	0xa4c
 1535 0a4a 22       		.uleb128 0x22
 1536 0a4b 00       		.byte	0
 1537 0a4c 0F       		.uleb128 0xf
 1538 0a4d 410A0000 		.4byte	0xa41
 1539 0a51 11       		.uleb128 0x11
ARM GAS  /tmp/cc80MFtY.s 			page 28


 1540 0a52 F0080000 		.4byte	.LASF158
 1541 0a56 0B       		.byte	0xb
 1542 0a57 14       		.byte	0x14
 1543 0a58 4C0A0000 		.4byte	0xa4c
 1544 0a5c 11       		.uleb128 0x11
 1545 0a5d 37010000 		.4byte	.LASF159
 1546 0a61 0B       		.byte	0xb
 1547 0a62 15       		.byte	0x15
 1548 0a63 89000000 		.4byte	0x89
 1549 0a67 11       		.uleb128 0x11
 1550 0a68 E8030000 		.4byte	.LASF160
 1551 0a6c 0C       		.byte	0xc
 1552 0a6d 9A       		.byte	0x9a
 1553 0a6e 57000000 		.4byte	0x57
 1554 0a72 11       		.uleb128 0x11
 1555 0a73 DE030000 		.4byte	.LASF161
 1556 0a77 0C       		.byte	0xc
 1557 0a78 9B       		.byte	0x9b
 1558 0a79 89000000 		.4byte	0x89
 1559 0a7d 0A       		.uleb128 0xa
 1560 0a7e 15020000 		.4byte	0x215
 1561 0a82 8D0A0000 		.4byte	0xa8d
 1562 0a86 0B       		.uleb128 0xb
 1563 0a87 68010000 		.4byte	0x168
 1564 0a8b 01       		.byte	0x1
 1565 0a8c 00       		.byte	0
 1566 0a8d 11       		.uleb128 0x11
 1567 0a8e 09040000 		.4byte	.LASF162
 1568 0a92 0C       		.byte	0xc
 1569 0a93 9E       		.byte	0x9e
 1570 0a94 7D0A0000 		.4byte	0xa7d
 1571 0a98 12       		.uleb128 0x12
 1572 0a99 46050000 		.4byte	.LASF163
 1573 0a9d 3C       		.byte	0x3c
 1574 0a9e 0D       		.byte	0xd
 1575 0a9f 1B       		.byte	0x1b
 1576 0aa0 710B0000 		.4byte	0xb71
 1577 0aa4 0D       		.uleb128 0xd
 1578 0aa5 3E070000 		.4byte	.LASF164
 1579 0aa9 0D       		.byte	0xd
 1580 0aaa 1D       		.byte	0x1d
 1581 0aab 3D020000 		.4byte	0x23d
 1582 0aaf 00       		.byte	0
 1583 0ab0 0D       		.uleb128 0xd
 1584 0ab1 020A0000 		.4byte	.LASF165
 1585 0ab5 0D       		.byte	0xd
 1586 0ab6 1E       		.byte	0x1e
 1587 0ab7 27020000 		.4byte	0x227
 1588 0abb 02       		.byte	0x2
 1589 0abc 0D       		.uleb128 0xd
 1590 0abd 38090000 		.4byte	.LASF166
 1591 0ac1 0D       		.byte	0xd
 1592 0ac2 1F       		.byte	0x1f
 1593 0ac3 69020000 		.4byte	0x269
 1594 0ac7 04       		.byte	0x4
 1595 0ac8 0D       		.uleb128 0xd
 1596 0ac9 C3060000 		.4byte	.LASF167
ARM GAS  /tmp/cc80MFtY.s 			page 29


 1597 0acd 0D       		.byte	0xd
 1598 0ace 20       		.byte	0x20
 1599 0acf 74020000 		.4byte	0x274
 1600 0ad3 08       		.byte	0x8
 1601 0ad4 0D       		.uleb128 0xd
 1602 0ad5 F3010000 		.4byte	.LASF168
 1603 0ad9 0D       		.byte	0xd
 1604 0ada 21       		.byte	0x21
 1605 0adb 48020000 		.4byte	0x248
 1606 0adf 0A       		.byte	0xa
 1607 0ae0 0D       		.uleb128 0xd
 1608 0ae1 4D040000 		.4byte	.LASF169
 1609 0ae5 0D       		.byte	0xd
 1610 0ae6 22       		.byte	0x22
 1611 0ae7 53020000 		.4byte	0x253
 1612 0aeb 0C       		.byte	0xc
 1613 0aec 0D       		.uleb128 0xd
 1614 0aed 33020000 		.4byte	.LASF170
 1615 0af1 0D       		.byte	0xd
 1616 0af2 23       		.byte	0x23
 1617 0af3 3D020000 		.4byte	0x23d
 1618 0af7 0E       		.byte	0xe
 1619 0af8 0D       		.uleb128 0xd
 1620 0af9 9E040000 		.4byte	.LASF171
 1621 0afd 0D       		.byte	0xd
 1622 0afe 24       		.byte	0x24
 1623 0aff 32020000 		.4byte	0x232
 1624 0b03 10       		.byte	0x10
 1625 0b04 0D       		.uleb128 0xd
 1626 0b05 F9060000 		.4byte	.LASF172
 1627 0b09 0D       		.byte	0xd
 1628 0b0a 32       		.byte	0x32
 1629 0b0b E9010000 		.4byte	0x1e9
 1630 0b0f 14       		.byte	0x14
 1631 0b10 0D       		.uleb128 0xd
 1632 0b11 E9010000 		.4byte	.LASF173
 1633 0b15 0D       		.byte	0xd
 1634 0b16 33       		.byte	0x33
 1635 0b17 57000000 		.4byte	0x57
 1636 0b1b 18       		.byte	0x18
 1637 0b1c 0D       		.uleb128 0xd
 1638 0b1d 9B080000 		.4byte	.LASF174
 1639 0b21 0D       		.byte	0xd
 1640 0b22 34       		.byte	0x34
 1641 0b23 E9010000 		.4byte	0x1e9
 1642 0b27 1C       		.byte	0x1c
 1643 0b28 0D       		.uleb128 0xd
 1644 0b29 0C050000 		.4byte	.LASF175
 1645 0b2d 0D       		.byte	0xd
 1646 0b2e 35       		.byte	0x35
 1647 0b2f 57000000 		.4byte	0x57
 1648 0b33 20       		.byte	0x20
 1649 0b34 0D       		.uleb128 0xd
 1650 0b35 FB030000 		.4byte	.LASF176
 1651 0b39 0D       		.byte	0xd
 1652 0b3a 36       		.byte	0x36
 1653 0b3b E9010000 		.4byte	0x1e9
ARM GAS  /tmp/cc80MFtY.s 			page 30


 1654 0b3f 24       		.byte	0x24
 1655 0b40 0D       		.uleb128 0xd
 1656 0b41 FA010000 		.4byte	.LASF177
 1657 0b45 0D       		.byte	0xd
 1658 0b46 37       		.byte	0x37
 1659 0b47 57000000 		.4byte	0x57
 1660 0b4b 28       		.byte	0x28
 1661 0b4c 0D       		.uleb128 0xd
 1662 0b4d 4B050000 		.4byte	.LASF178
 1663 0b51 0D       		.byte	0xd
 1664 0b52 38       		.byte	0x38
 1665 0b53 FF010000 		.4byte	0x1ff
 1666 0b57 2C       		.byte	0x2c
 1667 0b58 0D       		.uleb128 0xd
 1668 0b59 39000000 		.4byte	.LASF179
 1669 0b5d 0D       		.byte	0xd
 1670 0b5e 39       		.byte	0x39
 1671 0b5f F4010000 		.4byte	0x1f4
 1672 0b63 30       		.byte	0x30
 1673 0b64 0D       		.uleb128 0xd
 1674 0b65 04020000 		.4byte	.LASF180
 1675 0b69 0D       		.byte	0xd
 1676 0b6a 3A       		.byte	0x3a
 1677 0b6b 710B0000 		.4byte	0xb71
 1678 0b6f 34       		.byte	0x34
 1679 0b70 00       		.byte	0
 1680 0b71 0A       		.uleb128 0xa
 1681 0b72 57000000 		.4byte	0x57
 1682 0b76 810B0000 		.4byte	0xb81
 1683 0b7a 0B       		.uleb128 0xb
 1684 0b7b 68010000 		.4byte	0x168
 1685 0b7f 01       		.byte	0x1
 1686 0b80 00       		.byte	0
 1687 0b81 03       		.uleb128 0x3
 1688 0b82 93080000 		.4byte	.LASF181
 1689 0b86 0E       		.byte	0xe
 1690 0b87 2A       		.byte	0x2a
 1691 0b88 B3010000 		.4byte	0x1b3
 1692 0b8c 03       		.uleb128 0x3
 1693 0b8d 83010000 		.4byte	.LASF182
 1694 0b91 0E       		.byte	0xe
 1695 0b92 2B       		.byte	0x2b
 1696 0b93 B3010000 		.4byte	0x1b3
 1697 0b97 03       		.uleb128 0x3
 1698 0b98 31000000 		.4byte	.LASF183
 1699 0b9c 0E       		.byte	0xe
 1700 0b9d 2E       		.byte	0x2e
 1701 0b9e D3010000 		.4byte	0x1d3
 1702 0ba2 03       		.uleb128 0x3
 1703 0ba3 B3070000 		.4byte	.LASF184
 1704 0ba7 0E       		.byte	0xe
 1705 0ba8 2F       		.byte	0x2f
 1706 0ba9 C3010000 		.4byte	0x1c3
 1707 0bad 03       		.uleb128 0x3
 1708 0bae F0060000 		.4byte	.LASF185
 1709 0bb2 0F       		.byte	0xf
 1710 0bb3 34       		.byte	0x34
ARM GAS  /tmp/cc80MFtY.s 			page 31


 1711 0bb4 B80B0000 		.4byte	0xbb8
 1712 0bb8 12       		.uleb128 0x12
 1713 0bb9 B6040000 		.4byte	.LASF186
 1714 0bbd 18       		.byte	0x18
 1715 0bbe 10       		.byte	0x10
 1716 0bbf 8E       		.byte	0x8e
 1717 0bc0 0C0C0000 		.4byte	0xc0c
 1718 0bc4 0D       		.uleb128 0xd
 1719 0bc5 EF070000 		.4byte	.LASF187
 1720 0bc9 10       		.byte	0x10
 1721 0bca 8F       		.byte	0x8f
 1722 0bcb 1D0C0000 		.4byte	0xc1d
 1723 0bcf 00       		.byte	0
 1724 0bd0 0D       		.uleb128 0xd
 1725 0bd1 F7000000 		.4byte	.LASF188
 1726 0bd5 10       		.byte	0x10
 1727 0bd6 90       		.byte	0x90
 1728 0bd7 970B0000 		.4byte	0xb97
 1729 0bdb 08       		.byte	0x8
 1730 0bdc 13       		.uleb128 0x13
 1731 0bdd 63747800 		.ascii	"ctx\000"
 1732 0be1 10       		.byte	0x10
 1733 0be2 91       		.byte	0x91
 1734 0be3 530E0000 		.4byte	0xe53
 1735 0be7 0C       		.byte	0xc
 1736 0be8 0D       		.uleb128 0xd
 1737 0be9 E5000000 		.4byte	.LASF189
 1738 0bed 10       		.byte	0x10
 1739 0bee A9       		.byte	0xa9
 1740 0bef 8C0B0000 		.4byte	0xb8c
 1741 0bf3 10       		.byte	0x10
 1742 0bf4 0D       		.uleb128 0xd
 1743 0bf5 CD030000 		.4byte	.LASF190
 1744 0bf9 10       		.byte	0x10
 1745 0bfa AD       		.byte	0xad
 1746 0bfb 810B0000 		.4byte	0xb81
 1747 0bff 11       		.byte	0x11
 1748 0c00 23       		.uleb128 0x23
 1749 0c01 7500     		.ascii	"u\000"
 1750 0c03 10       		.byte	0x10
 1751 0c04 0301     		.2byte	0x103
 1752 0c06 BD0F0000 		.4byte	0xfbd
 1753 0c0a 14       		.byte	0x14
 1754 0c0b 00       		.byte	0
 1755 0c0c 03       		.uleb128 0x3
 1756 0c0d A0060000 		.4byte	.LASF191
 1757 0c11 0F       		.byte	0xf
 1758 0c12 39       		.byte	0x39
 1759 0c13 170C0000 		.4byte	0xc17
 1760 0c17 05       		.uleb128 0x5
 1761 0c18 04       		.byte	0x4
 1762 0c19 AD0B0000 		.4byte	0xbad
 1763 0c1d 03       		.uleb128 0x3
 1764 0c1e 8C010000 		.4byte	.LASF192
 1765 0c22 0F       		.byte	0xf
 1766 0c23 45       		.byte	0x45
 1767 0c24 280C0000 		.4byte	0xc28
ARM GAS  /tmp/cc80MFtY.s 			page 32


 1768 0c28 12       		.uleb128 0x12
 1769 0c29 B9070000 		.4byte	.LASF193
 1770 0c2d 08       		.byte	0x8
 1771 0c2e 10       		.byte	0x10
 1772 0c2f 83       		.byte	0x83
 1773 0c30 4D0C0000 		.4byte	0xc4d
 1774 0c34 0D       		.uleb128 0xd
 1775 0c35 350A0000 		.4byte	.LASF194
 1776 0c39 10       		.byte	0x10
 1777 0c3a 84       		.byte	0x84
 1778 0c3b 170C0000 		.4byte	0xc17
 1779 0c3f 00       		.byte	0
 1780 0c40 0D       		.uleb128 0xd
 1781 0c41 F3090000 		.4byte	.LASF195
 1782 0c45 10       		.byte	0x10
 1783 0c46 85       		.byte	0x85
 1784 0c47 170C0000 		.4byte	0xc17
 1785 0c4b 04       		.byte	0x4
 1786 0c4c 00       		.byte	0
 1787 0c4d 03       		.uleb128 0x3
 1788 0c4e FF040000 		.4byte	.LASF196
 1789 0c52 0F       		.byte	0xf
 1790 0c53 4C       		.byte	0x4c
 1791 0c54 580C0000 		.4byte	0xc58
 1792 0c58 1C       		.uleb128 0x1c
 1793 0c59 1E040000 		.4byte	.LASF197
 1794 0c5d 14       		.byte	0x14
 1795 0c5e 10       		.byte	0x10
 1796 0c5f 5E01     		.2byte	0x15e
 1797 0c61 9A0C0000 		.4byte	0xc9a
 1798 0c65 1A       		.uleb128 0x1a
 1799 0c66 EF070000 		.4byte	.LASF187
 1800 0c6a 10       		.byte	0x10
 1801 0c6b 5F01     		.2byte	0x15f
 1802 0c6d 1D0C0000 		.4byte	0xc1d
 1803 0c71 00       		.byte	0
 1804 0c72 1A       		.uleb128 0x1a
 1805 0c73 F7000000 		.4byte	.LASF188
 1806 0c77 10       		.byte	0x10
 1807 0c78 6001     		.2byte	0x160
 1808 0c7a 970B0000 		.4byte	0xb97
 1809 0c7e 08       		.byte	0x8
 1810 0c7f 23       		.uleb128 0x23
 1811 0c80 63747800 		.ascii	"ctx\000"
 1812 0c84 10       		.byte	0x10
 1813 0c85 6201     		.2byte	0x162
 1814 0c87 530E0000 		.4byte	0xe53
 1815 0c8b 0C       		.byte	0xc
 1816 0c8c 1A       		.uleb128 0x1a
 1817 0c8d 86060000 		.4byte	.LASF198
 1818 0c91 10       		.byte	0x10
 1819 0c92 6901     		.2byte	0x169
 1820 0c94 170C0000 		.4byte	0xc17
 1821 0c98 10       		.byte	0x10
 1822 0c99 00       		.byte	0
 1823 0c9a 03       		.uleb128 0x3
 1824 0c9b 71000000 		.4byte	.LASF199
ARM GAS  /tmp/cc80MFtY.s 			page 33


 1825 0c9f 0F       		.byte	0xf
 1826 0ca0 51       		.byte	0x51
 1827 0ca1 A50C0000 		.4byte	0xca5
 1828 0ca5 05       		.uleb128 0x5
 1829 0ca6 04       		.byte	0x4
 1830 0ca7 AB0C0000 		.4byte	0xcab
 1831 0cab 20       		.uleb128 0x20
 1832 0cac B60C0000 		.4byte	0xcb6
 1833 0cb0 18       		.uleb128 0x18
 1834 0cb1 A6010000 		.4byte	0x1a6
 1835 0cb5 00       		.byte	0
 1836 0cb6 03       		.uleb128 0x3
 1837 0cb7 EF040000 		.4byte	.LASF200
 1838 0cbb 0F       		.byte	0xf
 1839 0cbc 56       		.byte	0x56
 1840 0cbd C10C0000 		.4byte	0xcc1
 1841 0cc1 1C       		.uleb128 0x1c
 1842 0cc2 62070000 		.4byte	.LASF201
 1843 0cc6 14       		.byte	0x14
 1844 0cc7 10       		.byte	0x10
 1845 0cc8 3901     		.2byte	0x139
 1846 0cca 100D0000 		.4byte	0xd10
 1847 0cce 1A       		.uleb128 0x1a
 1848 0ccf 350A0000 		.4byte	.LASF194
 1849 0cd3 10       		.byte	0x10
 1850 0cd4 3A01     		.2byte	0x13a
 1851 0cd6 F80F0000 		.4byte	0xff8
 1852 0cda 00       		.byte	0
 1853 0cdb 1A       		.uleb128 0x1a
 1854 0cdc F3090000 		.4byte	.LASF195
 1855 0ce0 10       		.byte	0x10
 1856 0ce1 3B01     		.2byte	0x13b
 1857 0ce3 F80F0000 		.4byte	0xff8
 1858 0ce7 04       		.byte	0x4
 1859 0ce8 1A       		.uleb128 0x1a
 1860 0ce9 DA070000 		.4byte	.LASF202
 1861 0ced 10       		.byte	0x10
 1862 0cee 3C01     		.2byte	0x13c
 1863 0cf0 DB0D0000 		.4byte	0xddb
 1864 0cf4 08       		.byte	0x8
 1865 0cf5 1A       		.uleb128 0x1a
 1866 0cf6 D2080000 		.4byte	.LASF203
 1867 0cfa 10       		.byte	0x10
 1868 0cfb 3D01     		.2byte	0x13d
 1869 0cfd 9A0C0000 		.4byte	0xc9a
 1870 0d01 0C       		.byte	0xc
 1871 0d02 23       		.uleb128 0x23
 1872 0d03 70617200 		.ascii	"par\000"
 1873 0d07 10       		.byte	0x10
 1874 0d08 3F01     		.2byte	0x13f
 1875 0d0a A6010000 		.4byte	0x1a6
 1876 0d0e 10       		.byte	0x10
 1877 0d0f 00       		.byte	0
 1878 0d10 03       		.uleb128 0x3
 1879 0d11 C0040000 		.4byte	.LASF204
 1880 0d15 0F       		.byte	0xf
 1881 0d16 5B       		.byte	0x5b
ARM GAS  /tmp/cc80MFtY.s 			page 34


 1882 0d17 1B0D0000 		.4byte	0xd1b
 1883 0d1b 1C       		.uleb128 0x1c
 1884 0d1c 7A000000 		.4byte	.LASF205
 1885 0d20 10       		.byte	0x10
 1886 0d21 10       		.byte	0x10
 1887 0d22 4901     		.2byte	0x149
 1888 0d24 5D0D0000 		.4byte	0xd5d
 1889 0d28 1A       		.uleb128 0x1a
 1890 0d29 350A0000 		.4byte	.LASF194
 1891 0d2d 10       		.byte	0x10
 1892 0d2e 4A01     		.2byte	0x14a
 1893 0d30 F80F0000 		.4byte	0xff8
 1894 0d34 00       		.byte	0
 1895 0d35 1A       		.uleb128 0x1a
 1896 0d36 F3090000 		.4byte	.LASF195
 1897 0d3a 10       		.byte	0x10
 1898 0d3b 4C01     		.2byte	0x14c
 1899 0d3d F80F0000 		.4byte	0xff8
 1900 0d41 04       		.byte	0x4
 1901 0d42 1A       		.uleb128 0x1a
 1902 0d43 DA070000 		.4byte	.LASF202
 1903 0d47 10       		.byte	0x10
 1904 0d48 4E01     		.2byte	0x14e
 1905 0d4a DB0D0000 		.4byte	0xddb
 1906 0d4e 08       		.byte	0x8
 1907 0d4f 1A       		.uleb128 0x1a
 1908 0d50 2A020000 		.4byte	.LASF206
 1909 0d54 10       		.byte	0x10
 1910 0d55 5601     		.2byte	0x156
 1911 0d57 D00D0000 		.4byte	0xdd0
 1912 0d5b 0C       		.byte	0xc
 1913 0d5c 00       		.byte	0
 1914 0d5d 03       		.uleb128 0x3
 1915 0d5e 80020000 		.4byte	.LASF207
 1916 0d62 0F       		.byte	0xf
 1917 0d63 60       		.byte	0x60
 1918 0d64 680D0000 		.4byte	0xd68
 1919 0d68 1C       		.uleb128 0x1c
 1920 0d69 E0080000 		.4byte	.LASF208
 1921 0d6d 04       		.byte	0x4
 1922 0d6e 10       		.byte	0x10
 1923 0d6f 7001     		.2byte	0x170
 1924 0d71 830D0000 		.4byte	0xd83
 1925 0d75 1A       		.uleb128 0x1a
 1926 0d76 43020000 		.4byte	.LASF209
 1927 0d7a 10       		.byte	0x10
 1928 0d7b 7801     		.2byte	0x178
 1929 0d7d 3E070000 		.4byte	0x73e
 1930 0d81 00       		.byte	0
 1931 0d82 00       		.byte	0
 1932 0d83 03       		.uleb128 0x3
 1933 0d84 CF090000 		.4byte	.LASF210
 1934 0d88 0F       		.byte	0xf
 1935 0d89 65       		.byte	0x65
 1936 0d8a 8E0D0000 		.4byte	0xd8e
 1937 0d8e 1C       		.uleb128 0x1c
 1938 0d8f 6D090000 		.4byte	.LASF211
ARM GAS  /tmp/cc80MFtY.s 			page 35


 1939 0d93 40       		.byte	0x40
 1940 0d94 10       		.byte	0x10
 1941 0d95 9001     		.2byte	0x190
 1942 0d97 D00D0000 		.4byte	0xdd0
 1943 0d9b 1A       		.uleb128 0x1a
 1944 0d9c 8D080000 		.4byte	.LASF212
 1945 0da0 10       		.byte	0x10
 1946 0da1 9401     		.2byte	0x194
 1947 0da3 4D0C0000 		.4byte	0xc4d
 1948 0da7 00       		.byte	0
 1949 0da8 1A       		.uleb128 0x1a
 1950 0da9 10090000 		.4byte	.LASF213
 1951 0dad 10       		.byte	0x10
 1952 0dae 9801     		.2byte	0x198
 1953 0db0 100D0000 		.4byte	0xd10
 1954 0db4 14       		.byte	0x14
 1955 0db5 23       		.uleb128 0x23
 1956 0db6 64626700 		.ascii	"dbg\000"
 1957 0dba 10       		.byte	0x10
 1958 0dbb 9C01     		.2byte	0x19c
 1959 0dbd 5D0D0000 		.4byte	0xd5d
 1960 0dc1 24       		.byte	0x24
 1961 0dc2 1A       		.uleb128 0x1a
 1962 0dc3 48080000 		.4byte	.LASF214
 1963 0dc7 10       		.byte	0x10
 1964 0dc8 A001     		.2byte	0x1a0
 1965 0dca AD0B0000 		.4byte	0xbad
 1966 0dce 28       		.byte	0x28
 1967 0dcf 00       		.byte	0
 1968 0dd0 03       		.uleb128 0x3
 1969 0dd1 1C000000 		.4byte	.LASF215
 1970 0dd5 11       		.byte	0x11
 1971 0dd6 6D       		.byte	0x6d
 1972 0dd7 D3010000 		.4byte	0x1d3
 1973 0ddb 03       		.uleb128 0x3
 1974 0ddc 88050000 		.4byte	.LASF216
 1975 0de0 11       		.byte	0x11
 1976 0de1 79       		.byte	0x79
 1977 0de2 D3010000 		.4byte	0x1d3
 1978 0de6 21       		.uleb128 0x21
 1979 0de7 D3050000 		.4byte	.LASF217
 1980 0deb 12       		.byte	0x12
 1981 0dec 0408     		.2byte	0x804
 1982 0dee CE010000 		.4byte	0x1ce
 1983 0df2 11       		.uleb128 0x11
 1984 0df3 A6040000 		.4byte	.LASF218
 1985 0df7 13       		.byte	0x13
 1986 0df8 4C       		.byte	0x4c
 1987 0df9 D3010000 		.4byte	0x1d3
 1988 0dfd 0A       		.uleb128 0xa
 1989 0dfe BE010000 		.4byte	0x1be
 1990 0e02 0D0E0000 		.4byte	0xe0d
 1991 0e06 0B       		.uleb128 0xb
 1992 0e07 68010000 		.4byte	0x168
 1993 0e0b 0F       		.byte	0xf
 1994 0e0c 00       		.byte	0
 1995 0e0d 0F       		.uleb128 0xf
ARM GAS  /tmp/cc80MFtY.s 			page 36


 1996 0e0e FD0D0000 		.4byte	0xdfd
 1997 0e12 11       		.uleb128 0x11
 1998 0e13 54070000 		.4byte	.LASF219
 1999 0e17 13       		.byte	0x13
 2000 0e18 4E       		.byte	0x4e
 2001 0e19 0D0E0000 		.4byte	0xe0d
 2002 0e1d 0A       		.uleb128 0xa
 2003 0e1e BE010000 		.4byte	0x1be
 2004 0e22 2D0E0000 		.4byte	0xe2d
 2005 0e26 0B       		.uleb128 0xb
 2006 0e27 68010000 		.4byte	0x168
 2007 0e2b 07       		.byte	0x7
 2008 0e2c 00       		.byte	0
 2009 0e2d 0F       		.uleb128 0xf
 2010 0e2e 1D0E0000 		.4byte	0xe1d
 2011 0e32 11       		.uleb128 0x11
 2012 0e33 A4080000 		.4byte	.LASF220
 2013 0e37 13       		.byte	0x13
 2014 0e38 4F       		.byte	0x4f
 2015 0e39 2D0E0000 		.4byte	0xe2d
 2016 0e3d 03       		.uleb128 0x3
 2017 0e3e 9C010000 		.4byte	.LASF221
 2018 0e42 14       		.byte	0x14
 2019 0e43 65       		.byte	0x65
 2020 0e44 A6010000 		.4byte	0x1a6
 2021 0e48 03       		.uleb128 0x3
 2022 0e49 D3030000 		.4byte	.LASF222
 2023 0e4d 14       		.byte	0x14
 2024 0e4e 6D       		.byte	0x6d
 2025 0e4f DE010000 		.4byte	0x1de
 2026 0e53 12       		.uleb128 0x12
 2027 0e54 4F090000 		.4byte	.LASF223
 2028 0e58 04       		.byte	0x4
 2029 0e59 14       		.byte	0x14
 2030 0e5a 89       		.byte	0x89
 2031 0e5b 6B0E0000 		.4byte	0xe6b
 2032 0e5f 13       		.uleb128 0x13
 2033 0e60 737000   		.ascii	"sp\000"
 2034 0e63 14       		.byte	0x14
 2035 0e64 8A       		.byte	0x8a
 2036 0e65 B70F0000 		.4byte	0xfb7
 2037 0e69 00       		.byte	0
 2038 0e6a 00       		.byte	0
 2039 0e6b 1C       		.uleb128 0x1c
 2040 0e6c 18070000 		.4byte	.LASF224
 2041 0e70 64       		.byte	0x64
 2042 0e71 15       		.byte	0x15
 2043 0e72 5901     		.2byte	0x159
 2044 0e74 B70F0000 		.4byte	0xfb7
 2045 0e78 23       		.uleb128 0x23
 2046 0e79 73313600 		.ascii	"s16\000"
 2047 0e7d 15       		.byte	0x15
 2048 0e7e 5B01     		.2byte	0x15b
 2049 0e80 3D0E0000 		.4byte	0xe3d
 2050 0e84 00       		.byte	0
 2051 0e85 23       		.uleb128 0x23
 2052 0e86 73313700 		.ascii	"s17\000"
ARM GAS  /tmp/cc80MFtY.s 			page 37


 2053 0e8a 15       		.byte	0x15
 2054 0e8b 5C01     		.2byte	0x15c
 2055 0e8d 3D0E0000 		.4byte	0xe3d
 2056 0e91 04       		.byte	0x4
 2057 0e92 23       		.uleb128 0x23
 2058 0e93 73313800 		.ascii	"s18\000"
 2059 0e97 15       		.byte	0x15
 2060 0e98 5D01     		.2byte	0x15d
 2061 0e9a 3D0E0000 		.4byte	0xe3d
 2062 0e9e 08       		.byte	0x8
 2063 0e9f 23       		.uleb128 0x23
 2064 0ea0 73313900 		.ascii	"s19\000"
 2065 0ea4 15       		.byte	0x15
 2066 0ea5 5E01     		.2byte	0x15e
 2067 0ea7 3D0E0000 		.4byte	0xe3d
 2068 0eab 0C       		.byte	0xc
 2069 0eac 23       		.uleb128 0x23
 2070 0ead 73323000 		.ascii	"s20\000"
 2071 0eb1 15       		.byte	0x15
 2072 0eb2 5F01     		.2byte	0x15f
 2073 0eb4 3D0E0000 		.4byte	0xe3d
 2074 0eb8 10       		.byte	0x10
 2075 0eb9 23       		.uleb128 0x23
 2076 0eba 73323100 		.ascii	"s21\000"
 2077 0ebe 15       		.byte	0x15
 2078 0ebf 6001     		.2byte	0x160
 2079 0ec1 3D0E0000 		.4byte	0xe3d
 2080 0ec5 14       		.byte	0x14
 2081 0ec6 23       		.uleb128 0x23
 2082 0ec7 73323200 		.ascii	"s22\000"
 2083 0ecb 15       		.byte	0x15
 2084 0ecc 6101     		.2byte	0x161
 2085 0ece 3D0E0000 		.4byte	0xe3d
 2086 0ed2 18       		.byte	0x18
 2087 0ed3 23       		.uleb128 0x23
 2088 0ed4 73323300 		.ascii	"s23\000"
 2089 0ed8 15       		.byte	0x15
 2090 0ed9 6201     		.2byte	0x162
 2091 0edb 3D0E0000 		.4byte	0xe3d
 2092 0edf 1C       		.byte	0x1c
 2093 0ee0 23       		.uleb128 0x23
 2094 0ee1 73323400 		.ascii	"s24\000"
 2095 0ee5 15       		.byte	0x15
 2096 0ee6 6301     		.2byte	0x163
 2097 0ee8 3D0E0000 		.4byte	0xe3d
 2098 0eec 20       		.byte	0x20
 2099 0eed 23       		.uleb128 0x23
 2100 0eee 73323500 		.ascii	"s25\000"
 2101 0ef2 15       		.byte	0x15
 2102 0ef3 6401     		.2byte	0x164
 2103 0ef5 3D0E0000 		.4byte	0xe3d
 2104 0ef9 24       		.byte	0x24
 2105 0efa 23       		.uleb128 0x23
 2106 0efb 73323600 		.ascii	"s26\000"
 2107 0eff 15       		.byte	0x15
 2108 0f00 6501     		.2byte	0x165
 2109 0f02 3D0E0000 		.4byte	0xe3d
ARM GAS  /tmp/cc80MFtY.s 			page 38


 2110 0f06 28       		.byte	0x28
 2111 0f07 23       		.uleb128 0x23
 2112 0f08 73323700 		.ascii	"s27\000"
 2113 0f0c 15       		.byte	0x15
 2114 0f0d 6601     		.2byte	0x166
 2115 0f0f 3D0E0000 		.4byte	0xe3d
 2116 0f13 2C       		.byte	0x2c
 2117 0f14 23       		.uleb128 0x23
 2118 0f15 73323800 		.ascii	"s28\000"
 2119 0f19 15       		.byte	0x15
 2120 0f1a 6701     		.2byte	0x167
 2121 0f1c 3D0E0000 		.4byte	0xe3d
 2122 0f20 30       		.byte	0x30
 2123 0f21 23       		.uleb128 0x23
 2124 0f22 73323900 		.ascii	"s29\000"
 2125 0f26 15       		.byte	0x15
 2126 0f27 6801     		.2byte	0x168
 2127 0f29 3D0E0000 		.4byte	0xe3d
 2128 0f2d 34       		.byte	0x34
 2129 0f2e 23       		.uleb128 0x23
 2130 0f2f 73333000 		.ascii	"s30\000"
 2131 0f33 15       		.byte	0x15
 2132 0f34 6901     		.2byte	0x169
 2133 0f36 3D0E0000 		.4byte	0xe3d
 2134 0f3a 38       		.byte	0x38
 2135 0f3b 23       		.uleb128 0x23
 2136 0f3c 73333100 		.ascii	"s31\000"
 2137 0f40 15       		.byte	0x15
 2138 0f41 6A01     		.2byte	0x16a
 2139 0f43 3D0E0000 		.4byte	0xe3d
 2140 0f47 3C       		.byte	0x3c
 2141 0f48 23       		.uleb128 0x23
 2142 0f49 723400   		.ascii	"r4\000"
 2143 0f4c 15       		.byte	0x15
 2144 0f4d 6C01     		.2byte	0x16c
 2145 0f4f 3D0E0000 		.4byte	0xe3d
 2146 0f53 40       		.byte	0x40
 2147 0f54 23       		.uleb128 0x23
 2148 0f55 723500   		.ascii	"r5\000"
 2149 0f58 15       		.byte	0x15
 2150 0f59 6D01     		.2byte	0x16d
 2151 0f5b 3D0E0000 		.4byte	0xe3d
 2152 0f5f 44       		.byte	0x44
 2153 0f60 23       		.uleb128 0x23
 2154 0f61 723600   		.ascii	"r6\000"
 2155 0f64 15       		.byte	0x15
 2156 0f65 6E01     		.2byte	0x16e
 2157 0f67 3D0E0000 		.4byte	0xe3d
 2158 0f6b 48       		.byte	0x48
 2159 0f6c 23       		.uleb128 0x23
 2160 0f6d 723700   		.ascii	"r7\000"
 2161 0f70 15       		.byte	0x15
 2162 0f71 6F01     		.2byte	0x16f
 2163 0f73 3D0E0000 		.4byte	0xe3d
 2164 0f77 4C       		.byte	0x4c
 2165 0f78 23       		.uleb128 0x23
 2166 0f79 723800   		.ascii	"r8\000"
ARM GAS  /tmp/cc80MFtY.s 			page 39


 2167 0f7c 15       		.byte	0x15
 2168 0f7d 7001     		.2byte	0x170
 2169 0f7f 3D0E0000 		.4byte	0xe3d
 2170 0f83 50       		.byte	0x50
 2171 0f84 23       		.uleb128 0x23
 2172 0f85 723900   		.ascii	"r9\000"
 2173 0f88 15       		.byte	0x15
 2174 0f89 7101     		.2byte	0x171
 2175 0f8b 3D0E0000 		.4byte	0xe3d
 2176 0f8f 54       		.byte	0x54
 2177 0f90 23       		.uleb128 0x23
 2178 0f91 72313000 		.ascii	"r10\000"
 2179 0f95 15       		.byte	0x15
 2180 0f96 7201     		.2byte	0x172
 2181 0f98 3D0E0000 		.4byte	0xe3d
 2182 0f9c 58       		.byte	0x58
 2183 0f9d 23       		.uleb128 0x23
 2184 0f9e 72313100 		.ascii	"r11\000"
 2185 0fa2 15       		.byte	0x15
 2186 0fa3 7301     		.2byte	0x173
 2187 0fa5 3D0E0000 		.4byte	0xe3d
 2188 0fa9 5C       		.byte	0x5c
 2189 0faa 23       		.uleb128 0x23
 2190 0fab 6C7200   		.ascii	"lr\000"
 2191 0fae 15       		.byte	0x15
 2192 0faf 7401     		.2byte	0x174
 2193 0fb1 3D0E0000 		.4byte	0xe3d
 2194 0fb5 60       		.byte	0x60
 2195 0fb6 00       		.byte	0
 2196 0fb7 05       		.uleb128 0x5
 2197 0fb8 04       		.byte	0x4
 2198 0fb9 6B0E0000 		.4byte	0xe6b
 2199 0fbd 08       		.uleb128 0x8
 2200 0fbe 04       		.byte	0x4
 2201 0fbf 10       		.byte	0x10
 2202 0fc0 C6       		.byte	0xc6
 2203 0fc1 F20F0000 		.4byte	0xff2
 2204 0fc5 09       		.uleb128 0x9
 2205 0fc6 A6090000 		.4byte	.LASF225
 2206 0fca 10       		.byte	0x10
 2207 0fcb CD       		.byte	0xcd
 2208 0fcc A20B0000 		.4byte	0xba2
 2209 0fd0 09       		.uleb128 0x9
 2210 0fd1 02010000 		.4byte	.LASF226
 2211 0fd5 10       		.byte	0x10
 2212 0fd6 D4       		.byte	0xd4
 2213 0fd7 A20B0000 		.4byte	0xba2
 2214 0fdb 09       		.uleb128 0x9
 2215 0fdc A0020000 		.4byte	.LASF227
 2216 0fe0 10       		.byte	0x10
 2217 0fe1 DB       		.byte	0xdb
 2218 0fe2 A6010000 		.4byte	0x1a6
 2219 0fe6 09       		.uleb128 0x9
 2220 0fe7 0E020000 		.4byte	.LASF228
 2221 0feb 10       		.byte	0x10
 2222 0fec E2       		.byte	0xe2
 2223 0fed F20F0000 		.4byte	0xff2
ARM GAS  /tmp/cc80MFtY.s 			page 40


 2224 0ff1 00       		.byte	0
 2225 0ff2 05       		.uleb128 0x5
 2226 0ff3 04       		.byte	0x4
 2227 0ff4 0C0C0000 		.4byte	0xc0c
 2228 0ff8 05       		.uleb128 0x5
 2229 0ff9 04       		.byte	0x4
 2230 0ffa B60C0000 		.4byte	0xcb6
 2231 0ffe 24       		.uleb128 0x24
 2232 0fff 636800   		.ascii	"ch\000"
 2233 1002 10       		.byte	0x10
 2234 1003 C701     		.2byte	0x1c7
 2235 1005 830D0000 		.4byte	0xd83
 2236 1009 0A       		.uleb128 0xa
 2237 100a 480E0000 		.4byte	0xe48
 2238 100e 14100000 		.4byte	0x1014
 2239 1012 22       		.uleb128 0x22
 2240 1013 00       		.byte	0
 2241 1014 21       		.uleb128 0x21
 2242 1015 D6040000 		.4byte	.LASF229
 2243 1019 16       		.byte	0x16
 2244 101a 1701     		.2byte	0x117
 2245 101c 09100000 		.4byte	0x1009
 2246 1020 25       		.uleb128 0x25
 2247 1021 D9060000 		.4byte	.LASF230
 2248 1025 01       		.byte	0x1
 2249 1026 55       		.byte	0x55
 2250 1027 B3010000 		.4byte	0x1b3
 2251 102b 05       		.uleb128 0x5
 2252 102c 03       		.byte	0x3
 2253 102d 00000000 		.4byte	_before_main
 2254 1031 26       		.uleb128 0x26
 2255 1032 2C070000 		.4byte	.LASF231
 2256 1036 01       		.byte	0x1
 2257 1037 C5       		.byte	0xc5
 2258 1038 89000000 		.4byte	0x89
 2259 103c 00000000 		.4byte	.LFB227
 2260 1040 06000000 		.4byte	.LFE227-.LFB227
 2261 1044 01       		.uleb128 0x1
 2262 1045 9C       		.byte	0x9c
 2263 1046 67100000 		.4byte	0x1067
 2264 104a 27       		.uleb128 0x27
 2265 104b 70696400 		.ascii	"pid\000"
 2266 104f 01       		.byte	0x1
 2267 1050 C5       		.byte	0xc5
 2268 1051 89000000 		.4byte	0x89
 2269 1055 00000000 		.4byte	.LLST6
 2270 1059 28       		.uleb128 0x28
 2271 105a 73696700 		.ascii	"sig\000"
 2272 105e 01       		.byte	0x1
 2273 105f C5       		.byte	0xc5
 2274 1060 89000000 		.4byte	0x89
 2275 1064 01       		.uleb128 0x1
 2276 1065 51       		.byte	0x51
 2277 1066 00       		.byte	0
 2278 1067 29       		.uleb128 0x29
 2279 1068 AE010000 		.4byte	.LASF243
 2280 106c 01       		.byte	0x1
ARM GAS  /tmp/cc80MFtY.s 			page 41


 2281 106d C0       		.byte	0xc0
 2282 106e 00000000 		.4byte	.LFB226
 2283 1072 02000000 		.4byte	.LFE226-.LFB226
 2284 1076 01       		.uleb128 0x1
 2285 1077 9C       		.byte	0x9c
 2286 1078 2A       		.uleb128 0x2a
 2287 1079 E6050000 		.4byte	.LASF232
 2288 107d 09       		.byte	0x9
 2289 107e 12       		.byte	0x12
 2290 107f 00000000 		.4byte	.LFB225
 2291 1083 02000000 		.4byte	.LFE225-.LFB225
 2292 1087 01       		.uleb128 0x1
 2293 1088 9C       		.byte	0x9c
 2294 1089 9B100000 		.4byte	0x109b
 2295 108d 2B       		.uleb128 0x2b
 2296 108e 66090000 		.4byte	.LASF233
 2297 1092 01       		.byte	0x1
 2298 1093 B9       		.byte	0xb9
 2299 1094 89000000 		.4byte	0x89
 2300 1098 01       		.uleb128 0x1
 2301 1099 50       		.byte	0x50
 2302 109a 00       		.byte	0
 2303 109b 2C       		.uleb128 0x2c
 2304 109c 3B020000 		.4byte	.LASF244
 2305 10a0 01       		.byte	0x1
 2306 10a1 B3       		.byte	0xb3
 2307 10a2 5E020000 		.4byte	0x25e
 2308 10a6 00000000 		.4byte	.LFB224
 2309 10aa 04000000 		.4byte	.LFE224-.LFB224
 2310 10ae 01       		.uleb128 0x1
 2311 10af 9C       		.byte	0x9c
 2312 10b0 26       		.uleb128 0x26
 2313 10b1 B4010000 		.4byte	.LASF234
 2314 10b5 01       		.byte	0x1
 2315 10b6 AB       		.byte	0xab
 2316 10b7 89000000 		.4byte	0x89
 2317 10bb 00000000 		.4byte	.LFB223
 2318 10bf 04000000 		.4byte	.LFE223-.LFB223
 2319 10c3 01       		.uleb128 0x1
 2320 10c4 9C       		.byte	0x9c
 2321 10c5 E3100000 		.4byte	0x10e3
 2322 10c9 27       		.uleb128 0x27
 2323 10ca 7200     		.ascii	"r\000"
 2324 10cc 01       		.byte	0x1
 2325 10cd AB       		.byte	0xab
 2326 10ce D2050000 		.4byte	0x5d2
 2327 10d2 21000000 		.4byte	.LLST5
 2328 10d6 28       		.uleb128 0x28
 2329 10d7 666400   		.ascii	"fd\000"
 2330 10da 01       		.byte	0x1
 2331 10db AB       		.byte	0xab
 2332 10dc 89000000 		.4byte	0x89
 2333 10e0 01       		.uleb128 0x1
 2334 10e1 51       		.byte	0x51
 2335 10e2 00       		.byte	0
 2336 10e3 26       		.uleb128 0x26
 2337 10e4 86080000 		.4byte	.LASF235
ARM GAS  /tmp/cc80MFtY.s 			page 42


 2338 10e8 01       		.byte	0x1
 2339 10e9 A0       		.byte	0xa0
 2340 10ea 89000000 		.4byte	0x89
 2341 10ee 00000000 		.4byte	.LFB222
 2342 10f2 06000000 		.4byte	.LFE222-.LFB222
 2343 10f6 01       		.uleb128 0x1
 2344 10f7 9C       		.byte	0x9c
 2345 10f8 23110000 		.4byte	0x1123
 2346 10fc 27       		.uleb128 0x27
 2347 10fd 7200     		.ascii	"r\000"
 2348 10ff 01       		.byte	0x1
 2349 1100 A0       		.byte	0xa0
 2350 1101 D2050000 		.4byte	0x5d2
 2351 1105 42000000 		.4byte	.LLST4
 2352 1109 2B       		.uleb128 0x2b
 2353 110a 04040000 		.4byte	.LASF236
 2354 110e 01       		.byte	0x1
 2355 110f A0       		.byte	0xa0
 2356 1110 89000000 		.4byte	0x89
 2357 1114 01       		.uleb128 0x1
 2358 1115 51       		.byte	0x51
 2359 1116 28       		.uleb128 0x28
 2360 1117 737400   		.ascii	"st\000"
 2361 111a 01       		.byte	0x1
 2362 111b A0       		.byte	0xa0
 2363 111c 23110000 		.4byte	0x1123
 2364 1120 01       		.uleb128 0x1
 2365 1121 52       		.byte	0x52
 2366 1122 00       		.byte	0
 2367 1123 05       		.uleb128 0x5
 2368 1124 04       		.byte	0x4
 2369 1125 980A0000 		.4byte	0xa98
 2370 1129 26       		.uleb128 0x26
 2371 112a 56050000 		.4byte	.LASF237
 2372 112e 01       		.byte	0x1
 2373 112f 89       		.byte	0x89
 2374 1130 0A020000 		.4byte	0x20a
 2375 1134 00000000 		.4byte	.LFB221
 2376 1138 0A000000 		.4byte	.LFE221-.LFB221
 2377 113c 01       		.uleb128 0x1
 2378 113d 9C       		.byte	0x9c
 2379 113e 5D110000 		.4byte	0x115d
 2380 1142 27       		.uleb128 0x27
 2381 1143 7200     		.ascii	"r\000"
 2382 1145 01       		.byte	0x1
 2383 1146 89       		.byte	0x89
 2384 1147 D2050000 		.4byte	0x5d2
 2385 114b 63000000 		.4byte	.LLST3
 2386 114f 2B       		.uleb128 0x2b
 2387 1150 13060000 		.4byte	.LASF238
 2388 1154 01       		.byte	0x1
 2389 1155 89       		.byte	0x89
 2390 1156 89000000 		.4byte	0x89
 2391 115a 01       		.uleb128 0x1
 2392 115b 51       		.byte	0x51
 2393 115c 00       		.byte	0
 2394 115d 26       		.uleb128 0x26
ARM GAS  /tmp/cc80MFtY.s 			page 43


 2395 115e 99020000 		.4byte	.LASF93
 2396 1162 01       		.byte	0x1
 2397 1163 7F       		.byte	0x7f
 2398 1164 89000000 		.4byte	0x89
 2399 1168 00000000 		.4byte	.LFB220
 2400 116c 04000000 		.4byte	.LFE220-.LFB220
 2401 1170 01       		.uleb128 0x1
 2402 1171 9C       		.byte	0x9c
 2403 1172 91110000 		.4byte	0x1191
 2404 1176 27       		.uleb128 0x27
 2405 1177 7200     		.ascii	"r\000"
 2406 1179 01       		.byte	0x1
 2407 117a 7F       		.byte	0x7f
 2408 117b D2050000 		.4byte	0x5d2
 2409 117f 84000000 		.4byte	.LLST2
 2410 1183 2B       		.uleb128 0x2b
 2411 1184 04040000 		.4byte	.LASF236
 2412 1188 01       		.byte	0x1
 2413 1189 7F       		.byte	0x7f
 2414 118a 89000000 		.4byte	0x89
 2415 118e 01       		.uleb128 0x1
 2416 118f 51       		.byte	0x51
 2417 1190 00       		.byte	0
 2418 1191 2D       		.uleb128 0x2d
 2419 1192 4D000000 		.4byte	.LASF91
 2420 1196 01       		.byte	0x1
 2421 1197 73       		.byte	0x73
 2422 1198 89000000 		.4byte	0x89
 2423 119c 01       		.byte	0x1
 2424 119d CC110000 		.4byte	0x11cc
 2425 11a1 2E       		.uleb128 0x2e
 2426 11a2 7200     		.ascii	"r\000"
 2427 11a4 01       		.byte	0x1
 2428 11a5 73       		.byte	0x73
 2429 11a6 D2050000 		.4byte	0x5d2
 2430 11aa 2F       		.uleb128 0x2f
 2431 11ab 04040000 		.4byte	.LASF236
 2432 11af 01       		.byte	0x1
 2433 11b0 73       		.byte	0x73
 2434 11b1 89000000 		.4byte	0x89
 2435 11b5 2E       		.uleb128 0x2e
 2436 11b6 70747200 		.ascii	"ptr\000"
 2437 11ba 01       		.byte	0x1
 2438 11bb 73       		.byte	0x73
 2439 11bc 15020000 		.4byte	0x215
 2440 11c0 2E       		.uleb128 0x2e
 2441 11c1 6C656E00 		.ascii	"len\000"
 2442 11c5 01       		.byte	0x1
 2443 11c6 73       		.byte	0x73
 2444 11c7 89000000 		.4byte	0x89
 2445 11cb 00       		.byte	0
 2446 11cc 26       		.uleb128 0x26
 2447 11cd EC090000 		.4byte	.LASF239
 2448 11d1 01       		.byte	0x1
 2449 11d2 66       		.byte	0x66
 2450 11d3 89000000 		.4byte	0x89
 2451 11d7 00000000 		.4byte	.LFB218
ARM GAS  /tmp/cc80MFtY.s 			page 44


 2452 11db 04000000 		.4byte	.LFE218-.LFB218
 2453 11df 01       		.uleb128 0x1
 2454 11e0 9C       		.byte	0x9c
 2455 11e1 1A120000 		.4byte	0x121a
 2456 11e5 27       		.uleb128 0x27
 2457 11e6 7200     		.ascii	"r\000"
 2458 11e8 01       		.byte	0x1
 2459 11e9 66       		.byte	0x66
 2460 11ea D2050000 		.4byte	0x5d2
 2461 11ee A5000000 		.4byte	.LLST0
 2462 11f2 2B       		.uleb128 0x2b
 2463 11f3 04040000 		.4byte	.LASF236
 2464 11f7 01       		.byte	0x1
 2465 11f8 66       		.byte	0x66
 2466 11f9 89000000 		.4byte	0x89
 2467 11fd 01       		.uleb128 0x1
 2468 11fe 51       		.byte	0x51
 2469 11ff 28       		.uleb128 0x28
 2470 1200 70747200 		.ascii	"ptr\000"
 2471 1204 01       		.byte	0x1
 2472 1205 66       		.byte	0x66
 2473 1206 89000000 		.4byte	0x89
 2474 120a 01       		.uleb128 0x1
 2475 120b 52       		.byte	0x52
 2476 120c 28       		.uleb128 0x28
 2477 120d 64697200 		.ascii	"dir\000"
 2478 1211 01       		.byte	0x1
 2479 1212 66       		.byte	0x66
 2480 1213 89000000 		.4byte	0x89
 2481 1217 01       		.uleb128 0x1
 2482 1218 53       		.byte	0x53
 2483 1219 00       		.byte	0
 2484 121a 30       		.uleb128 0x30
 2485 121b 2B000000 		.4byte	.LASF90
 2486 121f 01       		.byte	0x1
 2487 1220 5A       		.byte	0x5a
 2488 1221 89000000 		.4byte	0x89
 2489 1225 54120000 		.4byte	0x1254
 2490 1229 2E       		.uleb128 0x2e
 2491 122a 7200     		.ascii	"r\000"
 2492 122c 01       		.byte	0x1
 2493 122d 5A       		.byte	0x5a
 2494 122e D2050000 		.4byte	0x5d2
 2495 1232 2F       		.uleb128 0x2f
 2496 1233 04040000 		.4byte	.LASF236
 2497 1237 01       		.byte	0x1
 2498 1238 5A       		.byte	0x5a
 2499 1239 89000000 		.4byte	0x89
 2500 123d 2E       		.uleb128 0x2e
 2501 123e 70747200 		.ascii	"ptr\000"
 2502 1242 01       		.byte	0x1
 2503 1243 5A       		.byte	0x5a
 2504 1244 15020000 		.4byte	0x215
 2505 1248 2E       		.uleb128 0x2e
 2506 1249 6C656E00 		.ascii	"len\000"
 2507 124d 01       		.byte	0x1
 2508 124e 5A       		.byte	0x5a
ARM GAS  /tmp/cc80MFtY.s 			page 45


 2509 124f 89000000 		.4byte	0x89
 2510 1253 00       		.byte	0
 2511 1254 31       		.uleb128 0x31
 2512 1255 91110000 		.4byte	0x1191
 2513 1259 00000000 		.4byte	.LFB219
 2514 125d 06000000 		.4byte	.LFE219-.LFB219
 2515 1261 01       		.uleb128 0x1
 2516 1262 9C       		.byte	0x9c
 2517 1263 32       		.uleb128 0x32
 2518 1264 A1110000 		.4byte	0x11a1
 2519 1268 C6000000 		.4byte	.LLST1
 2520 126c 33       		.uleb128 0x33
 2521 126d AA110000 		.4byte	0x11aa
 2522 1271 01       		.uleb128 0x1
 2523 1272 51       		.byte	0x51
 2524 1273 33       		.uleb128 0x33
 2525 1274 B5110000 		.4byte	0x11b5
 2526 1278 01       		.uleb128 0x1
 2527 1279 52       		.byte	0x52
 2528 127a 33       		.uleb128 0x33
 2529 127b C0110000 		.4byte	0x11c0
 2530 127f 01       		.uleb128 0x1
 2531 1280 53       		.byte	0x53
 2532 1281 00       		.byte	0
 2533 1282 00       		.byte	0
 2534              		.section	.debug_abbrev,"",%progbits
 2535              	.Ldebug_abbrev0:
 2536 0000 01       		.uleb128 0x1
 2537 0001 11       		.uleb128 0x11
 2538 0002 01       		.byte	0x1
 2539 0003 25       		.uleb128 0x25
 2540 0004 0E       		.uleb128 0xe
 2541 0005 13       		.uleb128 0x13
 2542 0006 0B       		.uleb128 0xb
 2543 0007 03       		.uleb128 0x3
 2544 0008 0E       		.uleb128 0xe
 2545 0009 1B       		.uleb128 0x1b
 2546 000a 0E       		.uleb128 0xe
 2547 000b 55       		.uleb128 0x55
 2548 000c 17       		.uleb128 0x17
 2549 000d 11       		.uleb128 0x11
 2550 000e 01       		.uleb128 0x1
 2551 000f 10       		.uleb128 0x10
 2552 0010 17       		.uleb128 0x17
 2553 0011 00       		.byte	0
 2554 0012 00       		.byte	0
 2555 0013 02       		.uleb128 0x2
 2556 0014 24       		.uleb128 0x24
 2557 0015 00       		.byte	0
 2558 0016 0B       		.uleb128 0xb
 2559 0017 0B       		.uleb128 0xb
 2560 0018 3E       		.uleb128 0x3e
 2561 0019 0B       		.uleb128 0xb
 2562 001a 03       		.uleb128 0x3
 2563 001b 0E       		.uleb128 0xe
 2564 001c 00       		.byte	0
 2565 001d 00       		.byte	0
ARM GAS  /tmp/cc80MFtY.s 			page 46


 2566 001e 03       		.uleb128 0x3
 2567 001f 16       		.uleb128 0x16
 2568 0020 00       		.byte	0
 2569 0021 03       		.uleb128 0x3
 2570 0022 0E       		.uleb128 0xe
 2571 0023 3A       		.uleb128 0x3a
 2572 0024 0B       		.uleb128 0xb
 2573 0025 3B       		.uleb128 0x3b
 2574 0026 0B       		.uleb128 0xb
 2575 0027 49       		.uleb128 0x49
 2576 0028 13       		.uleb128 0x13
 2577 0029 00       		.byte	0
 2578 002a 00       		.byte	0
 2579 002b 04       		.uleb128 0x4
 2580 002c 24       		.uleb128 0x24
 2581 002d 00       		.byte	0
 2582 002e 0B       		.uleb128 0xb
 2583 002f 0B       		.uleb128 0xb
 2584 0030 3E       		.uleb128 0x3e
 2585 0031 0B       		.uleb128 0xb
 2586 0032 03       		.uleb128 0x3
 2587 0033 08       		.uleb128 0x8
 2588 0034 00       		.byte	0
 2589 0035 00       		.byte	0
 2590 0036 05       		.uleb128 0x5
 2591 0037 0F       		.uleb128 0xf
 2592 0038 00       		.byte	0
 2593 0039 0B       		.uleb128 0xb
 2594 003a 0B       		.uleb128 0xb
 2595 003b 49       		.uleb128 0x49
 2596 003c 13       		.uleb128 0x13
 2597 003d 00       		.byte	0
 2598 003e 00       		.byte	0
 2599 003f 06       		.uleb128 0x6
 2600 0040 13       		.uleb128 0x13
 2601 0041 00       		.byte	0
 2602 0042 03       		.uleb128 0x3
 2603 0043 0E       		.uleb128 0xe
 2604 0044 3C       		.uleb128 0x3c
 2605 0045 19       		.uleb128 0x19
 2606 0046 00       		.byte	0
 2607 0047 00       		.byte	0
 2608 0048 07       		.uleb128 0x7
 2609 0049 16       		.uleb128 0x16
 2610 004a 00       		.byte	0
 2611 004b 03       		.uleb128 0x3
 2612 004c 0E       		.uleb128 0xe
 2613 004d 3A       		.uleb128 0x3a
 2614 004e 0B       		.uleb128 0xb
 2615 004f 3B       		.uleb128 0x3b
 2616 0050 05       		.uleb128 0x5
 2617 0051 49       		.uleb128 0x49
 2618 0052 13       		.uleb128 0x13
 2619 0053 00       		.byte	0
 2620 0054 00       		.byte	0
 2621 0055 08       		.uleb128 0x8
 2622 0056 17       		.uleb128 0x17
ARM GAS  /tmp/cc80MFtY.s 			page 47


 2623 0057 01       		.byte	0x1
 2624 0058 0B       		.uleb128 0xb
 2625 0059 0B       		.uleb128 0xb
 2626 005a 3A       		.uleb128 0x3a
 2627 005b 0B       		.uleb128 0xb
 2628 005c 3B       		.uleb128 0x3b
 2629 005d 0B       		.uleb128 0xb
 2630 005e 01       		.uleb128 0x1
 2631 005f 13       		.uleb128 0x13
 2632 0060 00       		.byte	0
 2633 0061 00       		.byte	0
 2634 0062 09       		.uleb128 0x9
 2635 0063 0D       		.uleb128 0xd
 2636 0064 00       		.byte	0
 2637 0065 03       		.uleb128 0x3
 2638 0066 0E       		.uleb128 0xe
 2639 0067 3A       		.uleb128 0x3a
 2640 0068 0B       		.uleb128 0xb
 2641 0069 3B       		.uleb128 0x3b
 2642 006a 0B       		.uleb128 0xb
 2643 006b 49       		.uleb128 0x49
 2644 006c 13       		.uleb128 0x13
 2645 006d 00       		.byte	0
 2646 006e 00       		.byte	0
 2647 006f 0A       		.uleb128 0xa
 2648 0070 01       		.uleb128 0x1
 2649 0071 01       		.byte	0x1
 2650 0072 49       		.uleb128 0x49
 2651 0073 13       		.uleb128 0x13
 2652 0074 01       		.uleb128 0x1
 2653 0075 13       		.uleb128 0x13
 2654 0076 00       		.byte	0
 2655 0077 00       		.byte	0
 2656 0078 0B       		.uleb128 0xb
 2657 0079 21       		.uleb128 0x21
 2658 007a 00       		.byte	0
 2659 007b 49       		.uleb128 0x49
 2660 007c 13       		.uleb128 0x13
 2661 007d 2F       		.uleb128 0x2f
 2662 007e 0B       		.uleb128 0xb
 2663 007f 00       		.byte	0
 2664 0080 00       		.byte	0
 2665 0081 0C       		.uleb128 0xc
 2666 0082 13       		.uleb128 0x13
 2667 0083 01       		.byte	0x1
 2668 0084 0B       		.uleb128 0xb
 2669 0085 0B       		.uleb128 0xb
 2670 0086 3A       		.uleb128 0x3a
 2671 0087 0B       		.uleb128 0xb
 2672 0088 3B       		.uleb128 0x3b
 2673 0089 0B       		.uleb128 0xb
 2674 008a 01       		.uleb128 0x1
 2675 008b 13       		.uleb128 0x13
 2676 008c 00       		.byte	0
 2677 008d 00       		.byte	0
 2678 008e 0D       		.uleb128 0xd
 2679 008f 0D       		.uleb128 0xd
ARM GAS  /tmp/cc80MFtY.s 			page 48


 2680 0090 00       		.byte	0
 2681 0091 03       		.uleb128 0x3
 2682 0092 0E       		.uleb128 0xe
 2683 0093 3A       		.uleb128 0x3a
 2684 0094 0B       		.uleb128 0xb
 2685 0095 3B       		.uleb128 0x3b
 2686 0096 0B       		.uleb128 0xb
 2687 0097 49       		.uleb128 0x49
 2688 0098 13       		.uleb128 0x13
 2689 0099 38       		.uleb128 0x38
 2690 009a 0B       		.uleb128 0xb
 2691 009b 00       		.byte	0
 2692 009c 00       		.byte	0
 2693 009d 0E       		.uleb128 0xe
 2694 009e 0F       		.uleb128 0xf
 2695 009f 00       		.byte	0
 2696 00a0 0B       		.uleb128 0xb
 2697 00a1 0B       		.uleb128 0xb
 2698 00a2 00       		.byte	0
 2699 00a3 00       		.byte	0
 2700 00a4 0F       		.uleb128 0xf
 2701 00a5 26       		.uleb128 0x26
 2702 00a6 00       		.byte	0
 2703 00a7 49       		.uleb128 0x49
 2704 00a8 13       		.uleb128 0x13
 2705 00a9 00       		.byte	0
 2706 00aa 00       		.byte	0
 2707 00ab 10       		.uleb128 0x10
 2708 00ac 35       		.uleb128 0x35
 2709 00ad 00       		.byte	0
 2710 00ae 49       		.uleb128 0x49
 2711 00af 13       		.uleb128 0x13
 2712 00b0 00       		.byte	0
 2713 00b1 00       		.byte	0
 2714 00b2 11       		.uleb128 0x11
 2715 00b3 34       		.uleb128 0x34
 2716 00b4 00       		.byte	0
 2717 00b5 03       		.uleb128 0x3
 2718 00b6 0E       		.uleb128 0xe
 2719 00b7 3A       		.uleb128 0x3a
 2720 00b8 0B       		.uleb128 0xb
 2721 00b9 3B       		.uleb128 0x3b
 2722 00ba 0B       		.uleb128 0xb
 2723 00bb 49       		.uleb128 0x49
 2724 00bc 13       		.uleb128 0x13
 2725 00bd 3F       		.uleb128 0x3f
 2726 00be 19       		.uleb128 0x19
 2727 00bf 3C       		.uleb128 0x3c
 2728 00c0 19       		.uleb128 0x19
 2729 00c1 00       		.byte	0
 2730 00c2 00       		.byte	0
 2731 00c3 12       		.uleb128 0x12
 2732 00c4 13       		.uleb128 0x13
 2733 00c5 01       		.byte	0x1
 2734 00c6 03       		.uleb128 0x3
 2735 00c7 0E       		.uleb128 0xe
 2736 00c8 0B       		.uleb128 0xb
ARM GAS  /tmp/cc80MFtY.s 			page 49


 2737 00c9 0B       		.uleb128 0xb
 2738 00ca 3A       		.uleb128 0x3a
 2739 00cb 0B       		.uleb128 0xb
 2740 00cc 3B       		.uleb128 0x3b
 2741 00cd 0B       		.uleb128 0xb
 2742 00ce 01       		.uleb128 0x1
 2743 00cf 13       		.uleb128 0x13
 2744 00d0 00       		.byte	0
 2745 00d1 00       		.byte	0
 2746 00d2 13       		.uleb128 0x13
 2747 00d3 0D       		.uleb128 0xd
 2748 00d4 00       		.byte	0
 2749 00d5 03       		.uleb128 0x3
 2750 00d6 08       		.uleb128 0x8
 2751 00d7 3A       		.uleb128 0x3a
 2752 00d8 0B       		.uleb128 0xb
 2753 00d9 3B       		.uleb128 0x3b
 2754 00da 0B       		.uleb128 0xb
 2755 00db 49       		.uleb128 0x49
 2756 00dc 13       		.uleb128 0x13
 2757 00dd 38       		.uleb128 0x38
 2758 00de 0B       		.uleb128 0xb
 2759 00df 00       		.byte	0
 2760 00e0 00       		.byte	0
 2761 00e1 14       		.uleb128 0x14
 2762 00e2 13       		.uleb128 0x13
 2763 00e3 01       		.byte	0x1
 2764 00e4 03       		.uleb128 0x3
 2765 00e5 0E       		.uleb128 0xe
 2766 00e6 0B       		.uleb128 0xb
 2767 00e7 05       		.uleb128 0x5
 2768 00e8 3A       		.uleb128 0x3a
 2769 00e9 0B       		.uleb128 0xb
 2770 00ea 3B       		.uleb128 0x3b
 2771 00eb 0B       		.uleb128 0xb
 2772 00ec 01       		.uleb128 0x1
 2773 00ed 13       		.uleb128 0x13
 2774 00ee 00       		.byte	0
 2775 00ef 00       		.byte	0
 2776 00f0 15       		.uleb128 0x15
 2777 00f1 0D       		.uleb128 0xd
 2778 00f2 00       		.byte	0
 2779 00f3 03       		.uleb128 0x3
 2780 00f4 0E       		.uleb128 0xe
 2781 00f5 3A       		.uleb128 0x3a
 2782 00f6 0B       		.uleb128 0xb
 2783 00f7 3B       		.uleb128 0x3b
 2784 00f8 0B       		.uleb128 0xb
 2785 00f9 49       		.uleb128 0x49
 2786 00fa 13       		.uleb128 0x13
 2787 00fb 38       		.uleb128 0x38
 2788 00fc 05       		.uleb128 0x5
 2789 00fd 00       		.byte	0
 2790 00fe 00       		.byte	0
 2791 00ff 16       		.uleb128 0x16
 2792 0100 15       		.uleb128 0x15
 2793 0101 00       		.byte	0
ARM GAS  /tmp/cc80MFtY.s 			page 50


 2794 0102 27       		.uleb128 0x27
 2795 0103 19       		.uleb128 0x19
 2796 0104 00       		.byte	0
 2797 0105 00       		.byte	0
 2798 0106 17       		.uleb128 0x17
 2799 0107 15       		.uleb128 0x15
 2800 0108 01       		.byte	0x1
 2801 0109 27       		.uleb128 0x27
 2802 010a 19       		.uleb128 0x19
 2803 010b 49       		.uleb128 0x49
 2804 010c 13       		.uleb128 0x13
 2805 010d 01       		.uleb128 0x1
 2806 010e 13       		.uleb128 0x13
 2807 010f 00       		.byte	0
 2808 0110 00       		.byte	0
 2809 0111 18       		.uleb128 0x18
 2810 0112 05       		.uleb128 0x5
 2811 0113 00       		.byte	0
 2812 0114 49       		.uleb128 0x49
 2813 0115 13       		.uleb128 0x13
 2814 0116 00       		.byte	0
 2815 0117 00       		.byte	0
 2816 0118 19       		.uleb128 0x19
 2817 0119 13       		.uleb128 0x13
 2818 011a 01       		.byte	0x1
 2819 011b 03       		.uleb128 0x3
 2820 011c 0E       		.uleb128 0xe
 2821 011d 0B       		.uleb128 0xb
 2822 011e 05       		.uleb128 0x5
 2823 011f 3A       		.uleb128 0x3a
 2824 0120 0B       		.uleb128 0xb
 2825 0121 3B       		.uleb128 0x3b
 2826 0122 05       		.uleb128 0x5
 2827 0123 01       		.uleb128 0x1
 2828 0124 13       		.uleb128 0x13
 2829 0125 00       		.byte	0
 2830 0126 00       		.byte	0
 2831 0127 1A       		.uleb128 0x1a
 2832 0128 0D       		.uleb128 0xd
 2833 0129 00       		.byte	0
 2834 012a 03       		.uleb128 0x3
 2835 012b 0E       		.uleb128 0xe
 2836 012c 3A       		.uleb128 0x3a
 2837 012d 0B       		.uleb128 0xb
 2838 012e 3B       		.uleb128 0x3b
 2839 012f 05       		.uleb128 0x5
 2840 0130 49       		.uleb128 0x49
 2841 0131 13       		.uleb128 0x13
 2842 0132 38       		.uleb128 0x38
 2843 0133 0B       		.uleb128 0xb
 2844 0134 00       		.byte	0
 2845 0135 00       		.byte	0
 2846 0136 1B       		.uleb128 0x1b
 2847 0137 0D       		.uleb128 0xd
 2848 0138 00       		.byte	0
 2849 0139 03       		.uleb128 0x3
 2850 013a 0E       		.uleb128 0xe
ARM GAS  /tmp/cc80MFtY.s 			page 51


 2851 013b 3A       		.uleb128 0x3a
 2852 013c 0B       		.uleb128 0xb
 2853 013d 3B       		.uleb128 0x3b
 2854 013e 05       		.uleb128 0x5
 2855 013f 49       		.uleb128 0x49
 2856 0140 13       		.uleb128 0x13
 2857 0141 38       		.uleb128 0x38
 2858 0142 05       		.uleb128 0x5
 2859 0143 00       		.byte	0
 2860 0144 00       		.byte	0
 2861 0145 1C       		.uleb128 0x1c
 2862 0146 13       		.uleb128 0x13
 2863 0147 01       		.byte	0x1
 2864 0148 03       		.uleb128 0x3
 2865 0149 0E       		.uleb128 0xe
 2866 014a 0B       		.uleb128 0xb
 2867 014b 0B       		.uleb128 0xb
 2868 014c 3A       		.uleb128 0x3a
 2869 014d 0B       		.uleb128 0xb
 2870 014e 3B       		.uleb128 0x3b
 2871 014f 05       		.uleb128 0x5
 2872 0150 01       		.uleb128 0x1
 2873 0151 13       		.uleb128 0x13
 2874 0152 00       		.byte	0
 2875 0153 00       		.byte	0
 2876 0154 1D       		.uleb128 0x1d
 2877 0155 13       		.uleb128 0x13
 2878 0156 01       		.byte	0x1
 2879 0157 0B       		.uleb128 0xb
 2880 0158 0B       		.uleb128 0xb
 2881 0159 3A       		.uleb128 0x3a
 2882 015a 0B       		.uleb128 0xb
 2883 015b 3B       		.uleb128 0x3b
 2884 015c 05       		.uleb128 0x5
 2885 015d 01       		.uleb128 0x1
 2886 015e 13       		.uleb128 0x13
 2887 015f 00       		.byte	0
 2888 0160 00       		.byte	0
 2889 0161 1E       		.uleb128 0x1e
 2890 0162 17       		.uleb128 0x17
 2891 0163 01       		.byte	0x1
 2892 0164 0B       		.uleb128 0xb
 2893 0165 0B       		.uleb128 0xb
 2894 0166 3A       		.uleb128 0x3a
 2895 0167 0B       		.uleb128 0xb
 2896 0168 3B       		.uleb128 0x3b
 2897 0169 05       		.uleb128 0x5
 2898 016a 01       		.uleb128 0x1
 2899 016b 13       		.uleb128 0x13
 2900 016c 00       		.byte	0
 2901 016d 00       		.byte	0
 2902 016e 1F       		.uleb128 0x1f
 2903 016f 0D       		.uleb128 0xd
 2904 0170 00       		.byte	0
 2905 0171 03       		.uleb128 0x3
 2906 0172 0E       		.uleb128 0xe
 2907 0173 3A       		.uleb128 0x3a
ARM GAS  /tmp/cc80MFtY.s 			page 52


 2908 0174 0B       		.uleb128 0xb
 2909 0175 3B       		.uleb128 0x3b
 2910 0176 05       		.uleb128 0x5
 2911 0177 49       		.uleb128 0x49
 2912 0178 13       		.uleb128 0x13
 2913 0179 00       		.byte	0
 2914 017a 00       		.byte	0
 2915 017b 20       		.uleb128 0x20
 2916 017c 15       		.uleb128 0x15
 2917 017d 01       		.byte	0x1
 2918 017e 27       		.uleb128 0x27
 2919 017f 19       		.uleb128 0x19
 2920 0180 01       		.uleb128 0x1
 2921 0181 13       		.uleb128 0x13
 2922 0182 00       		.byte	0
 2923 0183 00       		.byte	0
 2924 0184 21       		.uleb128 0x21
 2925 0185 34       		.uleb128 0x34
 2926 0186 00       		.byte	0
 2927 0187 03       		.uleb128 0x3
 2928 0188 0E       		.uleb128 0xe
 2929 0189 3A       		.uleb128 0x3a
 2930 018a 0B       		.uleb128 0xb
 2931 018b 3B       		.uleb128 0x3b
 2932 018c 05       		.uleb128 0x5
 2933 018d 49       		.uleb128 0x49
 2934 018e 13       		.uleb128 0x13
 2935 018f 3F       		.uleb128 0x3f
 2936 0190 19       		.uleb128 0x19
 2937 0191 3C       		.uleb128 0x3c
 2938 0192 19       		.uleb128 0x19
 2939 0193 00       		.byte	0
 2940 0194 00       		.byte	0
 2941 0195 22       		.uleb128 0x22
 2942 0196 21       		.uleb128 0x21
 2943 0197 00       		.byte	0
 2944 0198 00       		.byte	0
 2945 0199 00       		.byte	0
 2946 019a 23       		.uleb128 0x23
 2947 019b 0D       		.uleb128 0xd
 2948 019c 00       		.byte	0
 2949 019d 03       		.uleb128 0x3
 2950 019e 08       		.uleb128 0x8
 2951 019f 3A       		.uleb128 0x3a
 2952 01a0 0B       		.uleb128 0xb
 2953 01a1 3B       		.uleb128 0x3b
 2954 01a2 05       		.uleb128 0x5
 2955 01a3 49       		.uleb128 0x49
 2956 01a4 13       		.uleb128 0x13
 2957 01a5 38       		.uleb128 0x38
 2958 01a6 0B       		.uleb128 0xb
 2959 01a7 00       		.byte	0
 2960 01a8 00       		.byte	0
 2961 01a9 24       		.uleb128 0x24
 2962 01aa 34       		.uleb128 0x34
 2963 01ab 00       		.byte	0
 2964 01ac 03       		.uleb128 0x3
ARM GAS  /tmp/cc80MFtY.s 			page 53


 2965 01ad 08       		.uleb128 0x8
 2966 01ae 3A       		.uleb128 0x3a
 2967 01af 0B       		.uleb128 0xb
 2968 01b0 3B       		.uleb128 0x3b
 2969 01b1 05       		.uleb128 0x5
 2970 01b2 49       		.uleb128 0x49
 2971 01b3 13       		.uleb128 0x13
 2972 01b4 3F       		.uleb128 0x3f
 2973 01b5 19       		.uleb128 0x19
 2974 01b6 3C       		.uleb128 0x3c
 2975 01b7 19       		.uleb128 0x19
 2976 01b8 00       		.byte	0
 2977 01b9 00       		.byte	0
 2978 01ba 25       		.uleb128 0x25
 2979 01bb 34       		.uleb128 0x34
 2980 01bc 00       		.byte	0
 2981 01bd 03       		.uleb128 0x3
 2982 01be 0E       		.uleb128 0xe
 2983 01bf 3A       		.uleb128 0x3a
 2984 01c0 0B       		.uleb128 0xb
 2985 01c1 3B       		.uleb128 0x3b
 2986 01c2 0B       		.uleb128 0xb
 2987 01c3 49       		.uleb128 0x49
 2988 01c4 13       		.uleb128 0x13
 2989 01c5 3F       		.uleb128 0x3f
 2990 01c6 19       		.uleb128 0x19
 2991 01c7 02       		.uleb128 0x2
 2992 01c8 18       		.uleb128 0x18
 2993 01c9 00       		.byte	0
 2994 01ca 00       		.byte	0
 2995 01cb 26       		.uleb128 0x26
 2996 01cc 2E       		.uleb128 0x2e
 2997 01cd 01       		.byte	0x1
 2998 01ce 3F       		.uleb128 0x3f
 2999 01cf 19       		.uleb128 0x19
 3000 01d0 03       		.uleb128 0x3
 3001 01d1 0E       		.uleb128 0xe
 3002 01d2 3A       		.uleb128 0x3a
 3003 01d3 0B       		.uleb128 0xb
 3004 01d4 3B       		.uleb128 0x3b
 3005 01d5 0B       		.uleb128 0xb
 3006 01d6 27       		.uleb128 0x27
 3007 01d7 19       		.uleb128 0x19
 3008 01d8 49       		.uleb128 0x49
 3009 01d9 13       		.uleb128 0x13
 3010 01da 11       		.uleb128 0x11
 3011 01db 01       		.uleb128 0x1
 3012 01dc 12       		.uleb128 0x12
 3013 01dd 06       		.uleb128 0x6
 3014 01de 40       		.uleb128 0x40
 3015 01df 18       		.uleb128 0x18
 3016 01e0 9742     		.uleb128 0x2117
 3017 01e2 19       		.uleb128 0x19
 3018 01e3 01       		.uleb128 0x1
 3019 01e4 13       		.uleb128 0x13
 3020 01e5 00       		.byte	0
 3021 01e6 00       		.byte	0
ARM GAS  /tmp/cc80MFtY.s 			page 54


 3022 01e7 27       		.uleb128 0x27
 3023 01e8 05       		.uleb128 0x5
 3024 01e9 00       		.byte	0
 3025 01ea 03       		.uleb128 0x3
 3026 01eb 08       		.uleb128 0x8
 3027 01ec 3A       		.uleb128 0x3a
 3028 01ed 0B       		.uleb128 0xb
 3029 01ee 3B       		.uleb128 0x3b
 3030 01ef 0B       		.uleb128 0xb
 3031 01f0 49       		.uleb128 0x49
 3032 01f1 13       		.uleb128 0x13
 3033 01f2 02       		.uleb128 0x2
 3034 01f3 17       		.uleb128 0x17
 3035 01f4 00       		.byte	0
 3036 01f5 00       		.byte	0
 3037 01f6 28       		.uleb128 0x28
 3038 01f7 05       		.uleb128 0x5
 3039 01f8 00       		.byte	0
 3040 01f9 03       		.uleb128 0x3
 3041 01fa 08       		.uleb128 0x8
 3042 01fb 3A       		.uleb128 0x3a
 3043 01fc 0B       		.uleb128 0xb
 3044 01fd 3B       		.uleb128 0x3b
 3045 01fe 0B       		.uleb128 0xb
 3046 01ff 49       		.uleb128 0x49
 3047 0200 13       		.uleb128 0x13
 3048 0201 02       		.uleb128 0x2
 3049 0202 18       		.uleb128 0x18
 3050 0203 00       		.byte	0
 3051 0204 00       		.byte	0
 3052 0205 29       		.uleb128 0x29
 3053 0206 2E       		.uleb128 0x2e
 3054 0207 00       		.byte	0
 3055 0208 3F       		.uleb128 0x3f
 3056 0209 19       		.uleb128 0x19
 3057 020a 03       		.uleb128 0x3
 3058 020b 0E       		.uleb128 0xe
 3059 020c 3A       		.uleb128 0x3a
 3060 020d 0B       		.uleb128 0xb
 3061 020e 3B       		.uleb128 0x3b
 3062 020f 0B       		.uleb128 0xb
 3063 0210 27       		.uleb128 0x27
 3064 0211 19       		.uleb128 0x19
 3065 0212 11       		.uleb128 0x11
 3066 0213 01       		.uleb128 0x1
 3067 0214 12       		.uleb128 0x12
 3068 0215 06       		.uleb128 0x6
 3069 0216 40       		.uleb128 0x40
 3070 0217 18       		.uleb128 0x18
 3071 0218 9742     		.uleb128 0x2117
 3072 021a 19       		.uleb128 0x19
 3073 021b 00       		.byte	0
 3074 021c 00       		.byte	0
 3075 021d 2A       		.uleb128 0x2a
 3076 021e 2E       		.uleb128 0x2e
 3077 021f 01       		.byte	0x1
 3078 0220 3F       		.uleb128 0x3f
ARM GAS  /tmp/cc80MFtY.s 			page 55


 3079 0221 19       		.uleb128 0x19
 3080 0222 03       		.uleb128 0x3
 3081 0223 0E       		.uleb128 0xe
 3082 0224 3A       		.uleb128 0x3a
 3083 0225 0B       		.uleb128 0xb
 3084 0226 3B       		.uleb128 0x3b
 3085 0227 0B       		.uleb128 0xb
 3086 0228 27       		.uleb128 0x27
 3087 0229 19       		.uleb128 0x19
 3088 022a 8701     		.uleb128 0x87
 3089 022c 19       		.uleb128 0x19
 3090 022d 11       		.uleb128 0x11
 3091 022e 01       		.uleb128 0x1
 3092 022f 12       		.uleb128 0x12
 3093 0230 06       		.uleb128 0x6
 3094 0231 40       		.uleb128 0x40
 3095 0232 18       		.uleb128 0x18
 3096 0233 9742     		.uleb128 0x2117
 3097 0235 19       		.uleb128 0x19
 3098 0236 01       		.uleb128 0x1
 3099 0237 13       		.uleb128 0x13
 3100 0238 00       		.byte	0
 3101 0239 00       		.byte	0
 3102 023a 2B       		.uleb128 0x2b
 3103 023b 05       		.uleb128 0x5
 3104 023c 00       		.byte	0
 3105 023d 03       		.uleb128 0x3
 3106 023e 0E       		.uleb128 0xe
 3107 023f 3A       		.uleb128 0x3a
 3108 0240 0B       		.uleb128 0xb
 3109 0241 3B       		.uleb128 0x3b
 3110 0242 0B       		.uleb128 0xb
 3111 0243 49       		.uleb128 0x49
 3112 0244 13       		.uleb128 0x13
 3113 0245 02       		.uleb128 0x2
 3114 0246 18       		.uleb128 0x18
 3115 0247 00       		.byte	0
 3116 0248 00       		.byte	0
 3117 0249 2C       		.uleb128 0x2c
 3118 024a 2E       		.uleb128 0x2e
 3119 024b 00       		.byte	0
 3120 024c 3F       		.uleb128 0x3f
 3121 024d 19       		.uleb128 0x19
 3122 024e 03       		.uleb128 0x3
 3123 024f 0E       		.uleb128 0xe
 3124 0250 3A       		.uleb128 0x3a
 3125 0251 0B       		.uleb128 0xb
 3126 0252 3B       		.uleb128 0x3b
 3127 0253 0B       		.uleb128 0xb
 3128 0254 27       		.uleb128 0x27
 3129 0255 19       		.uleb128 0x19
 3130 0256 49       		.uleb128 0x49
 3131 0257 13       		.uleb128 0x13
 3132 0258 11       		.uleb128 0x11
 3133 0259 01       		.uleb128 0x1
 3134 025a 12       		.uleb128 0x12
 3135 025b 06       		.uleb128 0x6
ARM GAS  /tmp/cc80MFtY.s 			page 56


 3136 025c 40       		.uleb128 0x40
 3137 025d 18       		.uleb128 0x18
 3138 025e 9742     		.uleb128 0x2117
 3139 0260 19       		.uleb128 0x19
 3140 0261 00       		.byte	0
 3141 0262 00       		.byte	0
 3142 0263 2D       		.uleb128 0x2d
 3143 0264 2E       		.uleb128 0x2e
 3144 0265 01       		.byte	0x1
 3145 0266 3F       		.uleb128 0x3f
 3146 0267 19       		.uleb128 0x19
 3147 0268 03       		.uleb128 0x3
 3148 0269 0E       		.uleb128 0xe
 3149 026a 3A       		.uleb128 0x3a
 3150 026b 0B       		.uleb128 0xb
 3151 026c 3B       		.uleb128 0x3b
 3152 026d 0B       		.uleb128 0xb
 3153 026e 27       		.uleb128 0x27
 3154 026f 19       		.uleb128 0x19
 3155 0270 49       		.uleb128 0x49
 3156 0271 13       		.uleb128 0x13
 3157 0272 20       		.uleb128 0x20
 3158 0273 0B       		.uleb128 0xb
 3159 0274 01       		.uleb128 0x1
 3160 0275 13       		.uleb128 0x13
 3161 0276 00       		.byte	0
 3162 0277 00       		.byte	0
 3163 0278 2E       		.uleb128 0x2e
 3164 0279 05       		.uleb128 0x5
 3165 027a 00       		.byte	0
 3166 027b 03       		.uleb128 0x3
 3167 027c 08       		.uleb128 0x8
 3168 027d 3A       		.uleb128 0x3a
 3169 027e 0B       		.uleb128 0xb
 3170 027f 3B       		.uleb128 0x3b
 3171 0280 0B       		.uleb128 0xb
 3172 0281 49       		.uleb128 0x49
 3173 0282 13       		.uleb128 0x13
 3174 0283 00       		.byte	0
 3175 0284 00       		.byte	0
 3176 0285 2F       		.uleb128 0x2f
 3177 0286 05       		.uleb128 0x5
 3178 0287 00       		.byte	0
 3179 0288 03       		.uleb128 0x3
 3180 0289 0E       		.uleb128 0xe
 3181 028a 3A       		.uleb128 0x3a
 3182 028b 0B       		.uleb128 0xb
 3183 028c 3B       		.uleb128 0x3b
 3184 028d 0B       		.uleb128 0xb
 3185 028e 49       		.uleb128 0x49
 3186 028f 13       		.uleb128 0x13
 3187 0290 00       		.byte	0
 3188 0291 00       		.byte	0
 3189 0292 30       		.uleb128 0x30
 3190 0293 2E       		.uleb128 0x2e
 3191 0294 01       		.byte	0x1
 3192 0295 3F       		.uleb128 0x3f
ARM GAS  /tmp/cc80MFtY.s 			page 57


 3193 0296 19       		.uleb128 0x19
 3194 0297 03       		.uleb128 0x3
 3195 0298 0E       		.uleb128 0xe
 3196 0299 3A       		.uleb128 0x3a
 3197 029a 0B       		.uleb128 0xb
 3198 029b 3B       		.uleb128 0x3b
 3199 029c 0B       		.uleb128 0xb
 3200 029d 27       		.uleb128 0x27
 3201 029e 19       		.uleb128 0x19
 3202 029f 49       		.uleb128 0x49
 3203 02a0 13       		.uleb128 0x13
 3204 02a1 01       		.uleb128 0x1
 3205 02a2 13       		.uleb128 0x13
 3206 02a3 00       		.byte	0
 3207 02a4 00       		.byte	0
 3208 02a5 31       		.uleb128 0x31
 3209 02a6 2E       		.uleb128 0x2e
 3210 02a7 01       		.byte	0x1
 3211 02a8 31       		.uleb128 0x31
 3212 02a9 13       		.uleb128 0x13
 3213 02aa 11       		.uleb128 0x11
 3214 02ab 01       		.uleb128 0x1
 3215 02ac 12       		.uleb128 0x12
 3216 02ad 06       		.uleb128 0x6
 3217 02ae 40       		.uleb128 0x40
 3218 02af 18       		.uleb128 0x18
 3219 02b0 9742     		.uleb128 0x2117
 3220 02b2 19       		.uleb128 0x19
 3221 02b3 00       		.byte	0
 3222 02b4 00       		.byte	0
 3223 02b5 32       		.uleb128 0x32
 3224 02b6 05       		.uleb128 0x5
 3225 02b7 00       		.byte	0
 3226 02b8 31       		.uleb128 0x31
 3227 02b9 13       		.uleb128 0x13
 3228 02ba 02       		.uleb128 0x2
 3229 02bb 17       		.uleb128 0x17
 3230 02bc 00       		.byte	0
 3231 02bd 00       		.byte	0
 3232 02be 33       		.uleb128 0x33
 3233 02bf 05       		.uleb128 0x5
 3234 02c0 00       		.byte	0
 3235 02c1 31       		.uleb128 0x31
 3236 02c2 13       		.uleb128 0x13
 3237 02c3 02       		.uleb128 0x2
 3238 02c4 18       		.uleb128 0x18
 3239 02c5 00       		.byte	0
 3240 02c6 00       		.byte	0
 3241 02c7 00       		.byte	0
 3242              		.section	.debug_loc,"",%progbits
 3243              	.Ldebug_loc0:
 3244              	.LLST6:
 3245 0000 00000000 		.4byte	.LVL13
 3246 0004 04000000 		.4byte	.LVL14
 3247 0008 0100     		.2byte	0x1
 3248 000a 50       		.byte	0x50
 3249 000b 04000000 		.4byte	.LVL14
ARM GAS  /tmp/cc80MFtY.s 			page 58


 3250 000f 06000000 		.4byte	.LFE227
 3251 0013 0400     		.2byte	0x4
 3252 0015 F3       		.byte	0xf3
 3253 0016 01       		.uleb128 0x1
 3254 0017 50       		.byte	0x50
 3255 0018 9F       		.byte	0x9f
 3256 0019 00000000 		.4byte	0
 3257 001d 00000000 		.4byte	0
 3258              	.LLST5:
 3259 0021 00000000 		.4byte	.LVL10
 3260 0025 02000000 		.4byte	.LVL11
 3261 0029 0100     		.2byte	0x1
 3262 002b 50       		.byte	0x50
 3263 002c 02000000 		.4byte	.LVL11
 3264 0030 04000000 		.4byte	.LFE223
 3265 0034 0400     		.2byte	0x4
 3266 0036 F3       		.byte	0xf3
 3267 0037 01       		.uleb128 0x1
 3268 0038 50       		.byte	0x50
 3269 0039 9F       		.byte	0x9f
 3270 003a 00000000 		.4byte	0
 3271 003e 00000000 		.4byte	0
 3272              	.LLST4:
 3273 0042 00000000 		.4byte	.LVL8
 3274 0046 04000000 		.4byte	.LVL9
 3275 004a 0100     		.2byte	0x1
 3276 004c 50       		.byte	0x50
 3277 004d 04000000 		.4byte	.LVL9
 3278 0051 06000000 		.4byte	.LFE222
 3279 0055 0400     		.2byte	0x4
 3280 0057 F3       		.byte	0xf3
 3281 0058 01       		.uleb128 0x1
 3282 0059 50       		.byte	0x50
 3283 005a 9F       		.byte	0x9f
 3284 005b 00000000 		.4byte	0
 3285 005f 00000000 		.4byte	0
 3286              	.LLST3:
 3287 0063 00000000 		.4byte	.LVL6
 3288 0067 08000000 		.4byte	.LVL7
 3289 006b 0100     		.2byte	0x1
 3290 006d 50       		.byte	0x50
 3291 006e 08000000 		.4byte	.LVL7
 3292 0072 0A000000 		.4byte	.LFE221
 3293 0076 0400     		.2byte	0x4
 3294 0078 F3       		.byte	0xf3
 3295 0079 01       		.uleb128 0x1
 3296 007a 50       		.byte	0x50
 3297 007b 9F       		.byte	0x9f
 3298 007c 00000000 		.4byte	0
 3299 0080 00000000 		.4byte	0
 3300              	.LLST2:
 3301 0084 00000000 		.4byte	.LVL4
 3302 0088 02000000 		.4byte	.LVL5
 3303 008c 0100     		.2byte	0x1
 3304 008e 50       		.byte	0x50
 3305 008f 02000000 		.4byte	.LVL5
 3306 0093 04000000 		.4byte	.LFE220
ARM GAS  /tmp/cc80MFtY.s 			page 59


 3307 0097 0400     		.2byte	0x4
 3308 0099 F3       		.byte	0xf3
 3309 009a 01       		.uleb128 0x1
 3310 009b 50       		.byte	0x50
 3311 009c 9F       		.byte	0x9f
 3312 009d 00000000 		.4byte	0
 3313 00a1 00000000 		.4byte	0
 3314              	.LLST0:
 3315 00a5 00000000 		.4byte	.LVL0
 3316 00a9 02000000 		.4byte	.LVL1
 3317 00ad 0100     		.2byte	0x1
 3318 00af 50       		.byte	0x50
 3319 00b0 02000000 		.4byte	.LVL1
 3320 00b4 04000000 		.4byte	.LFE218
 3321 00b8 0400     		.2byte	0x4
 3322 00ba F3       		.byte	0xf3
 3323 00bb 01       		.uleb128 0x1
 3324 00bc 50       		.byte	0x50
 3325 00bd 9F       		.byte	0x9f
 3326 00be 00000000 		.4byte	0
 3327 00c2 00000000 		.4byte	0
 3328              	.LLST1:
 3329 00c6 00000000 		.4byte	.LVL2
 3330 00ca 04000000 		.4byte	.LVL3
 3331 00ce 0100     		.2byte	0x1
 3332 00d0 50       		.byte	0x50
 3333 00d1 04000000 		.4byte	.LVL3
 3334 00d5 06000000 		.4byte	.LFE219
 3335 00d9 0400     		.2byte	0x4
 3336 00db F3       		.byte	0xf3
 3337 00dc 01       		.uleb128 0x1
 3338 00dd 50       		.byte	0x50
 3339 00de 9F       		.byte	0x9f
 3340 00df 00000000 		.4byte	0
 3341 00e3 00000000 		.4byte	0
 3342              		.section	.debug_aranges,"",%progbits
 3343 0000 64000000 		.4byte	0x64
 3344 0004 0200     		.2byte	0x2
 3345 0006 00000000 		.4byte	.Ldebug_info0
 3346 000a 04       		.byte	0x4
 3347 000b 00       		.byte	0
 3348 000c 0000     		.2byte	0
 3349 000e 0000     		.2byte	0
 3350 0010 00000000 		.4byte	.LFB218
 3351 0014 04000000 		.4byte	.LFE218-.LFB218
 3352 0018 00000000 		.4byte	.LFB219
 3353 001c 06000000 		.4byte	.LFE219-.LFB219
 3354 0020 00000000 		.4byte	.LFB220
 3355 0024 04000000 		.4byte	.LFE220-.LFB220
 3356 0028 00000000 		.4byte	.LFB221
 3357 002c 0A000000 		.4byte	.LFE221-.LFB221
 3358 0030 00000000 		.4byte	.LFB222
 3359 0034 06000000 		.4byte	.LFE222-.LFB222
 3360 0038 00000000 		.4byte	.LFB223
 3361 003c 04000000 		.4byte	.LFE223-.LFB223
 3362 0040 00000000 		.4byte	.LFB224
 3363 0044 04000000 		.4byte	.LFE224-.LFB224
ARM GAS  /tmp/cc80MFtY.s 			page 60


 3364 0048 00000000 		.4byte	.LFB225
 3365 004c 02000000 		.4byte	.LFE225-.LFB225
 3366 0050 00000000 		.4byte	.LFB226
 3367 0054 02000000 		.4byte	.LFE226-.LFB226
 3368 0058 00000000 		.4byte	.LFB227
 3369 005c 06000000 		.4byte	.LFE227-.LFB227
 3370 0060 00000000 		.4byte	0
 3371 0064 00000000 		.4byte	0
 3372              		.section	.debug_ranges,"",%progbits
 3373              	.Ldebug_ranges0:
 3374 0000 00000000 		.4byte	.LFB218
 3375 0004 04000000 		.4byte	.LFE218
 3376 0008 00000000 		.4byte	.LFB219
 3377 000c 06000000 		.4byte	.LFE219
 3378 0010 00000000 		.4byte	.LFB220
 3379 0014 04000000 		.4byte	.LFE220
 3380 0018 00000000 		.4byte	.LFB221
 3381 001c 0A000000 		.4byte	.LFE221
 3382 0020 00000000 		.4byte	.LFB222
 3383 0024 06000000 		.4byte	.LFE222
 3384 0028 00000000 		.4byte	.LFB223
 3385 002c 04000000 		.4byte	.LFE223
 3386 0030 00000000 		.4byte	.LFB224
 3387 0034 04000000 		.4byte	.LFE224
 3388 0038 00000000 		.4byte	.LFB225
 3389 003c 02000000 		.4byte	.LFE225
 3390 0040 00000000 		.4byte	.LFB226
 3391 0044 02000000 		.4byte	.LFE226
 3392 0048 00000000 		.4byte	.LFB227
 3393 004c 06000000 		.4byte	.LFE227
 3394 0050 00000000 		.4byte	0
 3395 0054 00000000 		.4byte	0
 3396              		.section	.debug_line,"",%progbits
 3397              	.Ldebug_line0:
 3398 0000 17040000 		.section	.debug_str,"MS",%progbits,1
 3398      02006603 
 3398      00000201 
 3398      FB0E0D00 
 3398      01010101 
 3399              	.LASF29:
 3400 0000 73697A65 		.ascii	"sizetype\000"
 3400      74797065 
 3400      00
 3401              	.LASF155:
 3402 0009 5F5F6C6F 		.ascii	"__locale_t\000"
 3402      63616C65 
 3402      5F7400
 3403              	.LASF31:
 3404 0014 5F5F7661 		.ascii	"__value\000"
 3404      6C756500 
 3405              	.LASF215:
 3406 001c 73797374 		.ascii	"systime_t\000"
 3406      696D655F 
 3406      7400
 3407              	.LASF123:
 3408 0026 5F5F7366 		.ascii	"__sf\000"
 3408      00
ARM GAS  /tmp/cc80MFtY.s 			page 61


 3409              	.LASF90:
 3410 002b 5F726561 		.ascii	"_read\000"
 3410      6400
 3411              	.LASF183:
 3412 0031 74707269 		.ascii	"tprio_t\000"
 3412      6F5F7400 
 3413              	.LASF179:
 3414 0039 73745F62 		.ascii	"st_blocks\000"
 3414      6C6F636B 
 3414      7300
 3415              	.LASF112:
 3416 0043 5F5F636C 		.ascii	"__cleanup\000"
 3416      65616E75 
 3416      7000
 3417              	.LASF91:
 3418 004d 5F777269 		.ascii	"_write\000"
 3418      746500
 3419              	.LASF36:
 3420 0054 696E7433 		.ascii	"int32_t\000"
 3420      325F7400 
 3421              	.LASF134:
 3422 005c 5F617363 		.ascii	"_asctime_buf\000"
 3422      74696D65 
 3422      5F627566 
 3422      00
 3423              	.LASF117:
 3424 0069 5F637674 		.ascii	"_cvtlen\000"
 3424      6C656E00 
 3425              	.LASF199:
 3426 0071 76746675 		.ascii	"vtfunc_t\000"
 3426      6E635F74 
 3426      00
 3427              	.LASF205:
 3428 007a 63685F76 		.ascii	"ch_virtual_timers_list\000"
 3428      69727475 
 3428      616C5F74 
 3428      696D6572 
 3428      735F6C69 
 3429              	.LASF46:
 3430 0091 6465765F 		.ascii	"dev_t\000"
 3430      7400
 3431              	.LASF51:
 3432 0097 6E6C696E 		.ascii	"nlink_t\000"
 3432      6B5F7400 
 3433              	.LASF21:
 3434 009f 5F5F6769 		.ascii	"__gid_t\000"
 3434      645F7400 
 3435              	.LASF153:
 3436 00a7 5F756E75 		.ascii	"_unused\000"
 3436      73656400 
 3437              	.LASF64:
 3438 00af 5F5F746D 		.ascii	"__tm\000"
 3438      00
 3439              	.LASF149:
 3440 00b4 5F776373 		.ascii	"_wcsrtombs_state\000"
 3440      72746F6D 
 3440      62735F73 
ARM GAS  /tmp/cc80MFtY.s 			page 62


 3440      74617465 
 3440      00
 3441              	.LASF95:
 3442 00c5 5F6E6275 		.ascii	"_nbuf\000"
 3442      6600
 3443              	.LASF65:
 3444 00cb 5F5F746D 		.ascii	"__tm_sec\000"
 3444      5F736563 
 3444      00
 3445              	.LASF142:
 3446 00d4 5F6C3634 		.ascii	"_l64a_buf\000"
 3446      615F6275 
 3446      6600
 3447              	.LASF39:
 3448 00de 74696D65 		.ascii	"time_t\000"
 3448      5F7400
 3449              	.LASF189:
 3450 00e5 73746174 		.ascii	"state\000"
 3450      6500
 3451              	.LASF99:
 3452 00eb 5F6C6F63 		.ascii	"_lock\000"
 3452      6B00
 3453              	.LASF130:
 3454 00f1 5F6D756C 		.ascii	"_mult\000"
 3454      7400
 3455              	.LASF188:
 3456 00f7 7072696F 		.ascii	"prio\000"
 3456      00
 3457              	.LASF27:
 3458 00fc 5F5F7763 		.ascii	"__wch\000"
 3458      6800
 3459              	.LASF226:
 3460 0102 65786974 		.ascii	"exitcode\000"
 3460      636F6465 
 3460      00
 3461              	.LASF4:
 3462 010b 5F5F7569 		.ascii	"__uint8_t\000"
 3462      6E74385F 
 3462      7400
 3463              	.LASF19:
 3464 0115 5F5F6465 		.ascii	"__dev_t\000"
 3464      765F7400 
 3465              	.LASF47:
 3466 011d 7569645F 		.ascii	"uid_t\000"
 3466      7400
 3467              	.LASF87:
 3468 0123 5F66696C 		.ascii	"_file\000"
 3468      6500
 3469              	.LASF74:
 3470 0129 5F6F6E5F 		.ascii	"_on_exit_args\000"
 3470      65786974 
 3470      5F617267 
 3470      7300
 3471              	.LASF159:
 3472 0137 5F737973 		.ascii	"_sys_nerr\000"
 3472      5F6E6572 
 3472      7200
ARM GAS  /tmp/cc80MFtY.s 			page 63


 3473              	.LASF145:
 3474 0141 5F6D6272 		.ascii	"_mbrlen_state\000"
 3474      6C656E5F 
 3474      73746174 
 3474      6500
 3475              	.LASF6:
 3476 014f 6C6F6E67 		.ascii	"long int\000"
 3476      20696E74 
 3476      00
 3477              	.LASF156:
 3478 0158 5F696D70 		.ascii	"_impure_ptr\000"
 3478      7572655F 
 3478      70747200 
 3479              	.LASF114:
 3480 0164 5F726573 		.ascii	"_result_k\000"
 3480      756C745F 
 3480      6B00
 3481              	.LASF84:
 3482 016e 5F73697A 		.ascii	"_size\000"
 3482      6500
 3483              	.LASF135:
 3484 0174 5F6C6F63 		.ascii	"_localtime_buf\000"
 3484      616C7469 
 3484      6D655F62 
 3484      756600
 3485              	.LASF182:
 3486 0183 74737461 		.ascii	"tstate_t\000"
 3486      74655F74 
 3486      00
 3487              	.LASF192:
 3488 018c 74687265 		.ascii	"threads_queue_t\000"
 3488      6164735F 
 3488      71756575 
 3488      655F7400 
 3489              	.LASF221:
 3490 019c 72656761 		.ascii	"regarm_t\000"
 3490      726D5F74 
 3490      00
 3491              	.LASF69:
 3492 01a5 5F5F746D 		.ascii	"__tm_mon\000"
 3492      5F6D6F6E 
 3492      00
 3493              	.LASF243:
 3494 01ae 5F66696E 		.ascii	"_fini\000"
 3494      6900
 3495              	.LASF234:
 3496 01b4 5F697361 		.ascii	"_isatty\000"
 3496      74747900 
 3497              	.LASF132:
 3498 01bc 5F756E75 		.ascii	"_unused_rand\000"
 3498      7365645F 
 3498      72616E64 
 3498      00
 3499              	.LASF0:
 3500 01c9 7369676E 		.ascii	"signed char\000"
 3500      65642063 
 3500      68617200 
ARM GAS  /tmp/cc80MFtY.s 			page 64


 3501              	.LASF16:
 3502 01d5 5F5F626C 		.ascii	"__blksize_t\000"
 3502      6B73697A 
 3502      655F7400 
 3503              	.LASF35:
 3504 01e1 75696E74 		.ascii	"uint8_t\000"
 3504      385F7400 
 3505              	.LASF173:
 3506 01e9 73745F73 		.ascii	"st_spare1\000"
 3506      70617265 
 3506      3100
 3507              	.LASF168:
 3508 01f3 73745F75 		.ascii	"st_uid\000"
 3508      696400
 3509              	.LASF177:
 3510 01fa 73745F73 		.ascii	"st_spare3\000"
 3510      70617265 
 3510      3300
 3511              	.LASF180:
 3512 0204 73745F73 		.ascii	"st_spare4\000"
 3512      70617265 
 3512      3400
 3513              	.LASF228:
 3514 020e 77747472 		.ascii	"wttrp\000"
 3514      7000
 3515              	.LASF52:
 3516 0214 656E7669 		.ascii	"environ\000"
 3516      726F6E00 
 3517              	.LASF1:
 3518 021c 756E7369 		.ascii	"unsigned char\000"
 3518      676E6564 
 3518      20636861 
 3518      7200
 3519              	.LASF206:
 3520 022a 6C617374 		.ascii	"lasttime\000"
 3520      74696D65 
 3520      00
 3521              	.LASF170:
 3522 0233 73745F72 		.ascii	"st_rdev\000"
 3522      64657600 
 3523              	.LASF244:
 3524 023b 5F676574 		.ascii	"_getpid\000"
 3524      70696400 
 3525              	.LASF209:
 3526 0243 70616E69 		.ascii	"panic_msg\000"
 3526      635F6D73 
 3526      6700
 3527              	.LASF109:
 3528 024d 5F756E73 		.ascii	"_unspecified_locale_info\000"
 3528      70656369 
 3528      66696564 
 3528      5F6C6F63 
 3528      616C655F 
 3529              	.LASF102:
 3530 0266 5F726565 		.ascii	"_reent\000"
 3530      6E7400
 3531              	.LASF157:
ARM GAS  /tmp/cc80MFtY.s 			page 65


 3532 026d 5F676C6F 		.ascii	"_global_impure_ptr\000"
 3532      62616C5F 
 3532      696D7075 
 3532      72655F70 
 3532      747200
 3533              	.LASF207:
 3534 0280 73797374 		.ascii	"system_debug_t\000"
 3534      656D5F64 
 3534      65627567 
 3534      5F7400
 3535              	.LASF43:
 3536 028f 63686172 		.ascii	"char\000"
 3536      00
 3537              	.LASF81:
 3538 0294 5F666E73 		.ascii	"_fns\000"
 3538      00
 3539              	.LASF93:
 3540 0299 5F636C6F 		.ascii	"_close\000"
 3540      736500
 3541              	.LASF227:
 3542 02a0 77746F62 		.ascii	"wtobjp\000"
 3542      6A7000
 3543              	.LASF104:
 3544 02a7 5F737464 		.ascii	"_stdin\000"
 3544      696E00
 3545              	.LASF23:
 3546 02ae 5F5F6D6F 		.ascii	"__mode_t\000"
 3546      64655F74 
 3546      00
 3547              	.LASF240:
 3548 02b7 474E5520 		.ascii	"GNU C11 6.3.1 20170620 (release) [ARM/embedded-6-br"
 3548      43313120 
 3548      362E332E 
 3548      31203230 
 3548      31373036 
 3549 02ea 616E6368 		.ascii	"anch revision 249437] -mcpu=cortex-m4 -mfloat-abi=h"
 3549      20726576 
 3549      6973696F 
 3549      6E203234 
 3549      39343337 
 3550 031d 61726420 		.ascii	"ard -mfpu=fpv4-sp-d16 -mno-thumb-interwork -mthumb "
 3550      2D6D6670 
 3550      753D6670 
 3550      76342D73 
 3550      702D6431 
 3551 0350 2D67202D 		.ascii	"-g -Os -fomit-frame-pointer -falign-functions=16 -f"
 3551      4F73202D 
 3551      666F6D69 
 3551      742D6672 
 3551      616D652D 
 3552 0383 66756E63 		.ascii	"function-sections -fdata-sections -fno-common -fsin"
 3552      74696F6E 
 3552      2D736563 
 3552      74696F6E 
 3552      73202D66 
 3553 03b6 676C652D 		.ascii	"gle-precision-constant\000"
 3553      70726563 
ARM GAS  /tmp/cc80MFtY.s 			page 66


 3553      6973696F 
 3553      6E2D636F 
 3553      6E737461 
 3554              	.LASF190:
 3555 03cd 666C6167 		.ascii	"flags\000"
 3555      7300
 3556              	.LASF222:
 3557 03d3 73746B61 		.ascii	"stkalign_t\000"
 3557      6C69676E 
 3557      5F7400
 3558              	.LASF161:
 3559 03de 5F646179 		.ascii	"_daylight\000"
 3559      6C696768 
 3559      7400
 3560              	.LASF160:
 3561 03e8 5F74696D 		.ascii	"_timezone\000"
 3561      657A6F6E 
 3561      6500
 3562              	.LASF57:
 3563 03f2 6F707472 		.ascii	"optreset\000"
 3563      65736574 
 3563      00
 3564              	.LASF176:
 3565 03fb 73745F63 		.ascii	"st_ctime\000"
 3565      74696D65 
 3565      00
 3566              	.LASF236:
 3567 0404 66696C65 		.ascii	"file\000"
 3567      00
 3568              	.LASF162:
 3569 0409 5F747A6E 		.ascii	"_tzname\000"
 3569      616D6500 
 3570              	.LASF89:
 3571 0411 5F636F6F 		.ascii	"_cookie\000"
 3571      6B696500 
 3572              	.LASF62:
 3573 0419 5F776473 		.ascii	"_wds\000"
 3573      00
 3574              	.LASF197:
 3575 041e 63685F72 		.ascii	"ch_ready_list\000"
 3575      65616479 
 3575      5F6C6973 
 3575      7400
 3576              	.LASF154:
 3577 042c 5F5F6C6F 		.ascii	"__lock\000"
 3577      636B00
 3578              	.LASF121:
 3579 0433 5F736967 		.ascii	"_sig_func\000"
 3579      5F66756E 
 3579      6300
 3580              	.LASF97:
 3581 043d 5F6F6666 		.ascii	"_offset\000"
 3581      73657400 
 3582              	.LASF118:
 3583 0445 5F637674 		.ascii	"_cvtbuf\000"
 3583      62756600 
 3584              	.LASF169:
ARM GAS  /tmp/cc80MFtY.s 			page 67


 3585 044d 73745F67 		.ascii	"st_gid\000"
 3585      696400
 3586              	.LASF54:
 3587 0454 6F707469 		.ascii	"optind\000"
 3587      6E6400
 3588              	.LASF10:
 3589 045b 5F5F7569 		.ascii	"__uint64_t\000"
 3589      6E743634 
 3589      5F7400
 3590              	.LASF44:
 3591 0466 696E6F5F 		.ascii	"ino_t\000"
 3591      7400
 3592              	.LASF115:
 3593 046c 5F703573 		.ascii	"_p5s\000"
 3593      00
 3594              	.LASF8:
 3595 0471 6C6F6E67 		.ascii	"long unsigned int\000"
 3595      20756E73 
 3595      69676E65 
 3595      6420696E 
 3595      7400
 3596              	.LASF85:
 3597 0483 5F5F7346 		.ascii	"__sFILE\000"
 3597      494C4500 
 3598              	.LASF111:
 3599 048b 5F5F7364 		.ascii	"__sdidinit\000"
 3599      6964696E 
 3599      697400
 3600              	.LASF101:
 3601 0496 5F666C61 		.ascii	"_flags2\000"
 3601      67733200 
 3602              	.LASF171:
 3603 049e 73745F73 		.ascii	"st_size\000"
 3603      697A6500 
 3604              	.LASF218:
 3605 04a6 53797374 		.ascii	"SystemCoreClock\000"
 3605      656D436F 
 3605      7265436C 
 3605      6F636B00 
 3606              	.LASF186:
 3607 04b6 63685F74 		.ascii	"ch_thread\000"
 3607      68726561 
 3607      6400
 3608              	.LASF204:
 3609 04c0 76697274 		.ascii	"virtual_timers_list_t\000"
 3609      75616C5F 
 3609      74696D65 
 3609      72735F6C 
 3609      6973745F 
 3610              	.LASF229:
 3611 04d6 63685F69 		.ascii	"ch_idle_thread_wa\000"
 3611      646C655F 
 3611      74687265 
 3611      61645F77 
 3611      6100
 3612              	.LASF103:
 3613 04e8 5F657272 		.ascii	"_errno\000"
ARM GAS  /tmp/cc80MFtY.s 			page 68


 3613      6E6F00
 3614              	.LASF200:
 3615 04ef 76697274 		.ascii	"virtual_timer_t\000"
 3615      75616C5F 
 3615      74696D65 
 3615      725F7400 
 3616              	.LASF196:
 3617 04ff 72656164 		.ascii	"ready_list_t\000"
 3617      795F6C69 
 3617      73745F74 
 3617      00
 3618              	.LASF175:
 3619 050c 73745F73 		.ascii	"st_spare2\000"
 3619      70617265 
 3619      3200
 3620              	.LASF143:
 3621 0516 5F736967 		.ascii	"_signal_buf\000"
 3621      6E616C5F 
 3621      62756600 
 3622              	.LASF63:
 3623 0522 5F426967 		.ascii	"_Bigint\000"
 3623      696E7400 
 3624              	.LASF60:
 3625 052a 5F6D6178 		.ascii	"_maxwds\000"
 3625      77647300 
 3626              	.LASF15:
 3627 0532 5F5F626C 		.ascii	"__blkcnt_t\000"
 3627      6B636E74 
 3627      5F7400
 3628              	.LASF120:
 3629 053d 5F617465 		.ascii	"_atexit0\000"
 3629      78697430 
 3629      00
 3630              	.LASF163:
 3631 0546 73746174 		.ascii	"stat\000"
 3631      00
 3632              	.LASF178:
 3633 054b 73745F62 		.ascii	"st_blksize\000"
 3633      6C6B7369 
 3633      7A6500
 3634              	.LASF237:
 3635 0556 5F736272 		.ascii	"_sbrk\000"
 3635      6B00
 3636              	.LASF22:
 3637 055c 5F5F696E 		.ascii	"__ino_t\000"
 3637      6F5F7400 
 3638              	.LASF7:
 3639 0564 5F5F7569 		.ascii	"__uint32_t\000"
 3639      6E743332 
 3639      5F7400
 3640              	.LASF108:
 3641 056f 5F656D65 		.ascii	"_emergency\000"
 3641      7267656E 
 3641      637900
 3642              	.LASF9:
 3643 057a 6C6F6E67 		.ascii	"long long int\000"
 3643      206C6F6E 
ARM GAS  /tmp/cc80MFtY.s 			page 69


 3643      6720696E 
 3643      7400
 3644              	.LASF216:
 3645 0588 73797369 		.ascii	"sysinterval_t\000"
 3645      6E746572 
 3645      76616C5F 
 3645      7400
 3646              	.LASF126:
 3647 0596 5F6E696F 		.ascii	"_niobs\000"
 3647      627300
 3648              	.LASF122:
 3649 059d 5F5F7367 		.ascii	"__sglue\000"
 3649      6C756500 
 3650              	.LASF152:
 3651 05a5 5F6E6D61 		.ascii	"_nmalloc\000"
 3651      6C6C6F63 
 3651      00
 3652              	.LASF136:
 3653 05ae 5F67616D 		.ascii	"_gamma_signgam\000"
 3653      6D615F73 
 3653      69676E67 
 3653      616D00
 3654              	.LASF116:
 3655 05bd 5F667265 		.ascii	"_freelist\000"
 3655      656C6973 
 3655      7400
 3656              	.LASF127:
 3657 05c7 5F696F62 		.ascii	"_iobs\000"
 3657      7300
 3658              	.LASF125:
 3659 05cd 5F676C75 		.ascii	"_glue\000"
 3659      6500
 3660              	.LASF217:
 3661 05d3 49544D5F 		.ascii	"ITM_RxBuffer\000"
 3661      52784275 
 3661      66666572 
 3661      00
 3662              	.LASF61:
 3663 05e0 5F736967 		.ascii	"_sign\000"
 3663      6E00
 3664              	.LASF232:
 3665 05e6 5F657869 		.ascii	"_exit\000"
 3665      7400
 3666              	.LASF12:
 3667 05ec 756E7369 		.ascii	"unsigned int\000"
 3667      676E6564 
 3667      20696E74 
 3667      00
 3668              	.LASF40:
 3669 05f9 626C6B63 		.ascii	"blkcnt_t\000"
 3669      6E745F74 
 3669      00
 3670              	.LASF42:
 3671 0602 63616464 		.ascii	"caddr_t\000"
 3671      725F7400 
 3672              	.LASF150:
 3673 060a 5F685F65 		.ascii	"_h_errno\000"
ARM GAS  /tmp/cc80MFtY.s 			page 70


 3673      72726E6F 
 3673      00
 3674              	.LASF238:
 3675 0613 696E6372 		.ascii	"incr\000"
 3675      00
 3676              	.LASF241:
 3677 0618 2E2E2F2E 		.ascii	"../../libraries/AP_HAL_ChibiOS/hwdef/common/stubs.c"
 3677      2E2F6C69 
 3677      62726172 
 3677      6965732F 
 3677      41505F48 
 3678 064b 00       		.ascii	"\000"
 3679              	.LASF49:
 3680 064c 7069645F 		.ascii	"pid_t\000"
 3680      7400
 3681              	.LASF68:
 3682 0652 5F5F746D 		.ascii	"__tm_mday\000"
 3682      5F6D6461 
 3682      7900
 3683              	.LASF119:
 3684 065c 5F6E6577 		.ascii	"_new\000"
 3684      00
 3685              	.LASF94:
 3686 0661 5F756275 		.ascii	"_ubuf\000"
 3686      6600
 3687              	.LASF106:
 3688 0667 5F737464 		.ascii	"_stderr\000"
 3688      65727200 
 3689              	.LASF141:
 3690 066f 5F776374 		.ascii	"_wctomb_state\000"
 3690      6F6D625F 
 3690      73746174 
 3690      6500
 3691              	.LASF100:
 3692 067d 5F6D6273 		.ascii	"_mbstate\000"
 3692      74617465 
 3692      00
 3693              	.LASF198:
 3694 0686 63757272 		.ascii	"current\000"
 3694      656E7400 
 3695              	.LASF137:
 3696 068e 5F72616E 		.ascii	"_rand_next\000"
 3696      645F6E65 
 3696      787400
 3697              	.LASF86:
 3698 0699 5F666C61 		.ascii	"_flags\000"
 3698      677300
 3699              	.LASF191:
 3700 06a0 74687265 		.ascii	"thread_reference_t\000"
 3700      61645F72 
 3700      65666572 
 3700      656E6365 
 3700      5F7400
 3701              	.LASF79:
 3702 06b3 5F617465 		.ascii	"_atexit\000"
 3702      78697400 
 3703              	.LASF30:
ARM GAS  /tmp/cc80MFtY.s 			page 71


 3704 06bb 5F5F636F 		.ascii	"__count\000"
 3704      756E7400 
 3705              	.LASF167:
 3706 06c3 73745F6E 		.ascii	"st_nlink\000"
 3706      6C696E6B 
 3706      00
 3707              	.LASF45:
 3708 06cc 6F66665F 		.ascii	"off_t\000"
 3708      7400
 3709              	.LASF50:
 3710 06d2 6D6F6465 		.ascii	"mode_t\000"
 3710      5F7400
 3711              	.LASF230:
 3712 06d9 5F626566 		.ascii	"_before_main\000"
 3712      6F72655F 
 3712      6D61696E 
 3712      00
 3713              	.LASF71:
 3714 06e6 5F5F746D 		.ascii	"__tm_wday\000"
 3714      5F776461 
 3714      7900
 3715              	.LASF185:
 3716 06f0 74687265 		.ascii	"thread_t\000"
 3716      61645F74 
 3716      00
 3717              	.LASF172:
 3718 06f9 73745F61 		.ascii	"st_atime\000"
 3718      74696D65 
 3718      00
 3719              	.LASF13:
 3720 0702 6C6F6E67 		.ascii	"long double\000"
 3720      20646F75 
 3720      626C6500 
 3721              	.LASF72:
 3722 070e 5F5F746D 		.ascii	"__tm_yday\000"
 3722      5F796461 
 3722      7900
 3723              	.LASF224:
 3724 0718 706F7274 		.ascii	"port_intctx\000"
 3724      5F696E74 
 3724      63747800 
 3725              	.LASF18:
 3726 0724 5F5F7069 		.ascii	"__pid_t\000"
 3726      645F7400 
 3727              	.LASF231:
 3728 072c 5F6B696C 		.ascii	"_kill\000"
 3728      6C00
 3729              	.LASF129:
 3730 0732 5F736565 		.ascii	"_seed\000"
 3730      6400
 3731              	.LASF92:
 3732 0738 5F736565 		.ascii	"_seek\000"
 3732      6B00
 3733              	.LASF164:
 3734 073e 73745F64 		.ascii	"st_dev\000"
 3734      657600
 3735              	.LASF25:
ARM GAS  /tmp/cc80MFtY.s 			page 72


 3736 0745 5F66706F 		.ascii	"_fpos_t\000"
 3736      735F7400 
 3737              	.LASF28:
 3738 074d 5F5F7763 		.ascii	"__wchb\000"
 3738      686200
 3739              	.LASF219:
 3740 0754 41484250 		.ascii	"AHBPrescTable\000"
 3740      72657363 
 3740      5461626C 
 3740      6500
 3741              	.LASF201:
 3742 0762 63685F76 		.ascii	"ch_virtual_timer\000"
 3742      69727475 
 3742      616C5F74 
 3742      696D6572 
 3742      00
 3743              	.LASF140:
 3744 0773 5F6D6274 		.ascii	"_mbtowc_state\000"
 3744      6F77635F 
 3744      73746174 
 3744      6500
 3745              	.LASF56:
 3746 0781 6F70746F 		.ascii	"optopt\000"
 3746      707400
 3747              	.LASF11:
 3748 0788 6C6F6E67 		.ascii	"long long unsigned int\000"
 3748      206C6F6E 
 3748      6720756E 
 3748      7369676E 
 3748      65642069 
 3749              	.LASF24:
 3750 079f 5F5F6F66 		.ascii	"__off_t\000"
 3750      665F7400 
 3751              	.LASF76:
 3752 07a7 5F64736F 		.ascii	"_dso_handle\000"
 3752      5F68616E 
 3752      646C6500 
 3753              	.LASF184:
 3754 07b3 6D73675F 		.ascii	"msg_t\000"
 3754      7400
 3755              	.LASF193:
 3756 07b9 63685F74 		.ascii	"ch_threads_queue\000"
 3756      68726561 
 3756      64735F71 
 3756      75657565 
 3756      00
 3757              	.LASF128:
 3758 07ca 5F72616E 		.ascii	"_rand48\000"
 3758      64343800 
 3759              	.LASF105:
 3760 07d2 5F737464 		.ascii	"_stdout\000"
 3760      6F757400 
 3761              	.LASF202:
 3762 07da 64656C74 		.ascii	"delta\000"
 3762      6100
 3763              	.LASF96:
 3764 07e0 5F626C6B 		.ascii	"_blksize\000"
ARM GAS  /tmp/cc80MFtY.s 			page 73


 3764      73697A65 
 3764      00
 3765              	.LASF83:
 3766 07e9 5F626173 		.ascii	"_base\000"
 3766      6500
 3767              	.LASF187:
 3768 07ef 71756575 		.ascii	"queue\000"
 3768      6500
 3769              	.LASF55:
 3770 07f5 6F707465 		.ascii	"opterr\000"
 3770      727200
 3771              	.LASF133:
 3772 07fc 5F737472 		.ascii	"_strtok_last\000"
 3772      746F6B5F 
 3772      6C617374 
 3772      00
 3773              	.LASF242:
 3774 0809 2F686F6D 		.ascii	"/home/alex/ArduPilot/ardupilot/build/STM32Disco\000"
 3774      652F616C 
 3774      65782F41 
 3774      72647550 
 3774      696C6F74 
 3775              	.LASF146:
 3776 0839 5F6D6272 		.ascii	"_mbrtowc_state\000"
 3776      746F7763 
 3776      5F737461 
 3776      746500
 3777              	.LASF214:
 3778 0848 6D61696E 		.ascii	"mainthread\000"
 3778      74687265 
 3778      616400
 3779              	.LASF33:
 3780 0853 5F666C6F 		.ascii	"_flock_t\000"
 3780      636B5F74 
 3780      00
 3781              	.LASF124:
 3782 085c 5F5F4649 		.ascii	"__FILE\000"
 3782      4C4500
 3783              	.LASF32:
 3784 0863 5F6D6273 		.ascii	"_mbstate_t\000"
 3784      74617465 
 3784      5F7400
 3785              	.LASF138:
 3786 086e 5F723438 		.ascii	"_r48\000"
 3786      00
 3787              	.LASF26:
 3788 0873 77696E74 		.ascii	"wint_t\000"
 3788      5F7400
 3789              	.LASF59:
 3790 087a 5F6E6578 		.ascii	"_next\000"
 3790      7400
 3791              	.LASF98:
 3792 0880 5F646174 		.ascii	"_data\000"
 3792      6100
 3793              	.LASF235:
 3794 0886 5F667374 		.ascii	"_fstat\000"
 3794      617400
ARM GAS  /tmp/cc80MFtY.s 			page 74


 3795              	.LASF212:
 3796 088d 726C6973 		.ascii	"rlist\000"
 3796      7400
 3797              	.LASF181:
 3798 0893 746D6F64 		.ascii	"tmode_t\000"
 3798      655F7400 
 3799              	.LASF174:
 3800 089b 73745F6D 		.ascii	"st_mtime\000"
 3800      74696D65 
 3800      00
 3801              	.LASF220:
 3802 08a4 41504250 		.ascii	"APBPrescTable\000"
 3802      72657363 
 3802      5461626C 
 3802      6500
 3803              	.LASF139:
 3804 08b2 5F6D626C 		.ascii	"_mblen_state\000"
 3804      656E5F73 
 3804      74617465 
 3804      00
 3805              	.LASF2:
 3806 08bf 73686F72 		.ascii	"short int\000"
 3806      7420696E 
 3806      7400
 3807              	.LASF38:
 3808 08c9 75696E74 		.ascii	"uint64_t\000"
 3808      36345F74 
 3808      00
 3809              	.LASF203:
 3810 08d2 66756E63 		.ascii	"func\000"
 3810      00
 3811              	.LASF77:
 3812 08d7 5F666E74 		.ascii	"_fntypes\000"
 3812      79706573 
 3812      00
 3813              	.LASF208:
 3814 08e0 63685F73 		.ascii	"ch_system_debug\000"
 3814      79737465 
 3814      6D5F6465 
 3814      62756700 
 3815              	.LASF158:
 3816 08f0 5F737973 		.ascii	"_sys_errlist\000"
 3816      5F657272 
 3816      6C697374 
 3816      00
 3817              	.LASF70:
 3818 08fd 5F5F746D 		.ascii	"__tm_year\000"
 3818      5F796561 
 3818      7200
 3819              	.LASF88:
 3820 0907 5F6C6266 		.ascii	"_lbfsize\000"
 3820      73697A65 
 3820      00
 3821              	.LASF213:
 3822 0910 76746C69 		.ascii	"vtlist\000"
 3822      737400
 3823              	.LASF107:
ARM GAS  /tmp/cc80MFtY.s 			page 75


 3824 0917 5F696E63 		.ascii	"_inc\000"
 3824      00
 3825              	.LASF80:
 3826 091c 5F696E64 		.ascii	"_ind\000"
 3826      00
 3827              	.LASF82:
 3828 0921 5F5F7362 		.ascii	"__sbuf\000"
 3828      756600
 3829              	.LASF78:
 3830 0928 5F69735F 		.ascii	"_is_cxa\000"
 3830      63786100 
 3831              	.LASF14:
 3832 0930 5F4C4F43 		.ascii	"_LOCK_T\000"
 3832      4B5F5400 
 3833              	.LASF166:
 3834 0938 73745F6D 		.ascii	"st_mode\000"
 3834      6F646500 
 3835              	.LASF20:
 3836 0940 5F5F7569 		.ascii	"__uid_t\000"
 3836      645F7400 
 3837              	.LASF151:
 3838 0948 5F6E6578 		.ascii	"_nextf\000"
 3838      746600
 3839              	.LASF223:
 3840 094f 706F7274 		.ascii	"port_context\000"
 3840      5F636F6E 
 3840      74657874 
 3840      00
 3841              	.LASF41:
 3842 095c 626C6B73 		.ascii	"blksize_t\000"
 3842      697A655F 
 3842      7400
 3843              	.LASF233:
 3844 0966 73746174 		.ascii	"status\000"
 3844      757300
 3845              	.LASF211:
 3846 096d 63685F73 		.ascii	"ch_system\000"
 3846      79737465 
 3846      6D00
 3847              	.LASF110:
 3848 0977 5F6C6F63 		.ascii	"_locale\000"
 3848      616C6500 
 3849              	.LASF58:
 3850 097f 5F5F554C 		.ascii	"__ULong\000"
 3850      6F6E6700 
 3851              	.LASF37:
 3852 0987 75696E74 		.ascii	"uint32_t\000"
 3852      33325F74 
 3852      00
 3853              	.LASF113:
 3854 0990 5F726573 		.ascii	"_result\000"
 3854      756C7400 
 3855              	.LASF53:
 3856 0998 6F707461 		.ascii	"optarg\000"
 3856      726700
 3857              	.LASF17:
 3858 099f 5F6F6666 		.ascii	"_off_t\000"
ARM GAS  /tmp/cc80MFtY.s 			page 76


 3858      5F7400
 3859              	.LASF225:
 3860 09a6 7264796D 		.ascii	"rdymsg\000"
 3860      736700
 3861              	.LASF131:
 3862 09ad 5F616464 		.ascii	"_add\000"
 3862      00
 3863              	.LASF3:
 3864 09b2 73686F72 		.ascii	"short unsigned int\000"
 3864      7420756E 
 3864      7369676E 
 3864      65642069 
 3864      6E7400
 3865              	.LASF67:
 3866 09c5 5F5F746D 		.ascii	"__tm_hour\000"
 3866      5F686F75 
 3866      7200
 3867              	.LASF210:
 3868 09cf 63685F73 		.ascii	"ch_system_t\000"
 3868      79737465 
 3868      6D5F7400 
 3869              	.LASF147:
 3870 09db 5F6D6273 		.ascii	"_mbsrtowcs_state\000"
 3870      72746F77 
 3870      63735F73 
 3870      74617465 
 3870      00
 3871              	.LASF239:
 3872 09ec 5F6C7365 		.ascii	"_lseek\000"
 3872      656B00
 3873              	.LASF195:
 3874 09f3 70726576 		.ascii	"prev\000"
 3874      00
 3875              	.LASF5:
 3876 09f8 5F5F696E 		.ascii	"__int32_t\000"
 3876      7433325F 
 3876      7400
 3877              	.LASF165:
 3878 0a02 73745F69 		.ascii	"st_ino\000"
 3878      6E6F00
 3879              	.LASF34:
 3880 0a09 5F5F6E6C 		.ascii	"__nlink_t\000"
 3880      696E6B5F 
 3880      7400
 3881              	.LASF75:
 3882 0a13 5F666E61 		.ascii	"_fnargs\000"
 3882      72677300 
 3883              	.LASF148:
 3884 0a1b 5F776372 		.ascii	"_wcrtomb_state\000"
 3884      746F6D62 
 3884      5F737461 
 3884      746500
 3885              	.LASF73:
 3886 0a2a 5F5F746D 		.ascii	"__tm_isdst\000"
 3886      5F697364 
 3886      737400
 3887              	.LASF194:
ARM GAS  /tmp/cc80MFtY.s 			page 77


 3888 0a35 6E657874 		.ascii	"next\000"
 3888      00
 3889              	.LASF48:
 3890 0a3a 6769645F 		.ascii	"gid_t\000"
 3890      7400
 3891              	.LASF66:
 3892 0a40 5F5F746D 		.ascii	"__tm_min\000"
 3892      5F6D696E 
 3892      00
 3893              	.LASF144:
 3894 0a49 5F676574 		.ascii	"_getdate_err\000"
 3894      64617465 
 3894      5F657272 
 3894      00
 3895              		.ident	"GCC: (GNU Tools for ARM Embedded Processors 6-2017-q2-update) 6.3.1 20170620 (release) [AR
ARM GAS  /tmp/cc80MFtY.s 			page 78


DEFINED SYMBOLS
                            *ABS*:0000000000000000 stubs.c
     /tmp/cc80MFtY.s:18     .text._read:0000000000000000 $t
     /tmp/cc80MFtY.s:25     .text._read:0000000000000000 _read
     /tmp/cc80MFtY.s:37     .text._lseek:0000000000000000 $t
     /tmp/cc80MFtY.s:44     .text._lseek:0000000000000000 _lseek
     /tmp/cc80MFtY.s:61     .text._write:0000000000000000 $t
     /tmp/cc80MFtY.s:68     .text._write:0000000000000000 _write
     /tmp/cc80MFtY.s:84     .text._close:0000000000000000 $t
     /tmp/cc80MFtY.s:91     .text._close:0000000000000000 _close
     /tmp/cc80MFtY.s:107    .text._sbrk:0000000000000000 $t
     /tmp/cc80MFtY.s:114    .text._sbrk:0000000000000000 _sbrk
     /tmp/cc80MFtY.s:133    .text._fstat:0000000000000000 $t
     /tmp/cc80MFtY.s:140    .text._fstat:0000000000000000 _fstat
     /tmp/cc80MFtY.s:156    .text._isatty:0000000000000000 $t
     /tmp/cc80MFtY.s:163    .text._isatty:0000000000000000 _isatty
     /tmp/cc80MFtY.s:179    .text._getpid:0000000000000000 $t
     /tmp/cc80MFtY.s:186    .text._getpid:0000000000000000 _getpid
     /tmp/cc80MFtY.s:200    .text._exit:0000000000000000 $t
     /tmp/cc80MFtY.s:207    .text._exit:0000000000000000 _exit
     /tmp/cc80MFtY.s:222    .text._fini:0000000000000000 $t
     /tmp/cc80MFtY.s:229    .text._fini:0000000000000000 _fini
     /tmp/cc80MFtY.s:241    .text._kill:0000000000000000 $t
     /tmp/cc80MFtY.s:248    .text._kill:0000000000000000 _kill
     /tmp/cc80MFtY.s:267    .data._before_main:0000000000000000 _before_main
                     .debug_frame:0000000000000010 $d

NO UNDEFINED SYMBOLS
