ARM GAS  /tmp/cc80MFtY.s 			page 1


   1              		.cpu cortex-m4
   2              		.eabi_attribute 27, 1
   3              		.eabi_attribute 28, 1
   4              		.eabi_attribute 20, 1
   5              		.eabi_attribute 21, 1
   6              		.eabi_attribute 23, 3
   7              		.eabi_attribute 24, 1
   8              		.eabi_attribute 25, 1
   9              		.eabi_attribute 26, 1
  10              		.eabi_attribute 30, 4
  11              		.eabi_attribute 34, 1
  12              		.eabi_attribute 18, 4
  13              		.file	"stubs.c"
  14              		.text
  15              	.Ltext0:
  16              		.cfi_sections	.debug_frame
  17              		.section	.text._read,"ax",%progbits
  18              		.align	1
  19              		.global	_read
  20              		.syntax unified
  21              		.thumb
  22              		.thumb_func
  23              		.fpu fpv4-sp-d16
  24              		.type	_read, %function
  25              	_read:
  26              	.LFB229:
  27              		.cfi_startproc
  28              		@ args = 0, pretend = 0, frame = 0
  29              		@ frame_needed = 0, uses_anonymous_args = 0
  30              		@ link register save eliminated.
  31 0000 4FF0FF30 		mov	r0, #-1
  32 0004 7047     		bx	lr
  33              		.cfi_endproc
  34              	.LFE229:
  35              		.size	_read, .-_read
  36              		.section	.text._lseek,"ax",%progbits
  37              		.align	1
  38              		.global	_lseek
  39              		.syntax unified
  40              		.thumb
  41              		.thumb_func
  42              		.fpu fpv4-sp-d16
  43              		.type	_lseek, %function
  44              	_lseek:
  45              	.LFB218:
  46              		.file 1 "../../libraries/AP_HAL_ChibiOS/hwdef/common/stubs.c"
  47              		.loc 1 103 0
  48              		.cfi_startproc
  49              		@ args = 0, pretend = 0, frame = 0
  50              		@ frame_needed = 0, uses_anonymous_args = 0
  51              		@ link register save eliminated.
  52              	.LVL0:
  53              		.loc 1 110 0
  54 0000 0020     		movs	r0, #0
  55              	.LVL1:
  56 0002 7047     		bx	lr
  57              		.cfi_endproc
ARM GAS  /tmp/cc80MFtY.s 			page 2


  58              	.LFE218:
  59              		.size	_lseek, .-_lseek
  60              		.section	.text._write,"ax",%progbits
  61              		.align	1
  62              		.global	_write
  63              		.syntax unified
  64              		.thumb
  65              		.thumb_func
  66              		.fpu fpv4-sp-d16
  67              		.type	_write, %function
  68              	_write:
  69              	.LFB219:
  70              		.loc 1 116 0
  71              		.cfi_startproc
  72              		@ args = 0, pretend = 0, frame = 0
  73              		@ frame_needed = 0, uses_anonymous_args = 0
  74              		@ link register save eliminated.
  75              	.LVL2:
  76              		.loc 1 122 0
  77 0000 4FF0FF30 		mov	r0, #-1
  78              	.LVL3:
  79 0004 7047     		bx	lr
  80              		.cfi_endproc
  81              	.LFE219:
  82              		.size	_write, .-_write
  83              		.section	.text._close,"ax",%progbits
  84              		.align	1
  85              		.global	_close
  86              		.syntax unified
  87              		.thumb
  88              		.thumb_func
  89              		.fpu fpv4-sp-d16
  90              		.type	_close, %function
  91              	_close:
  92              	.LFB220:
  93              		.loc 1 128 0
  94              		.cfi_startproc
  95              		@ args = 0, pretend = 0, frame = 0
  96              		@ frame_needed = 0, uses_anonymous_args = 0
  97              		@ link register save eliminated.
  98              	.LVL4:
  99              		.loc 1 132 0
 100 0000 0020     		movs	r0, #0
 101              	.LVL5:
 102 0002 7047     		bx	lr
 103              		.cfi_endproc
 104              	.LFE220:
 105              		.size	_close, .-_close
 106              		.section	.text._sbrk,"ax",%progbits
 107              		.align	1
 108              		.global	_sbrk
 109              		.syntax unified
 110              		.thumb
 111              		.thumb_func
 112              		.fpu fpv4-sp-d16
 113              		.type	_sbrk, %function
 114              	_sbrk:
ARM GAS  /tmp/cc80MFtY.s 			page 3


 115              	.LFB221:
 116              		.loc 1 138 0
 117              		.cfi_startproc
 118              		@ args = 0, pretend = 0, frame = 0
 119              		@ frame_needed = 0, uses_anonymous_args = 0
 120              		@ link register save eliminated.
 121              	.LVL6:
 122              		.loc 1 151 0
 123 0000 0C23     		movs	r3, #12
 124 0002 0360     		str	r3, [r0]
 125              		.loc 1 154 0
 126 0004 4FF0FF30 		mov	r0, #-1
 127              	.LVL7:
 128 0008 7047     		bx	lr
 129              		.cfi_endproc
 130              	.LFE221:
 131              		.size	_sbrk, .-_sbrk
 132              		.section	.text._fstat,"ax",%progbits
 133              		.align	1
 134              		.global	_fstat
 135              		.syntax unified
 136              		.thumb
 137              		.thumb_func
 138              		.fpu fpv4-sp-d16
 139              		.type	_fstat, %function
 140              	_fstat:
 141              	.LFB222:
 142              		.loc 1 161 0
 143              		.cfi_startproc
 144              		@ args = 0, pretend = 0, frame = 0
 145              		@ frame_needed = 0, uses_anonymous_args = 0
 146              		@ link register save eliminated.
 147              	.LVL8:
 148              		.loc 1 166 0
 149 0000 4FF0FF30 		mov	r0, #-1
 150              	.LVL9:
 151 0004 7047     		bx	lr
 152              		.cfi_endproc
 153              	.LFE222:
 154              		.size	_fstat, .-_fstat
 155              		.section	.text._isatty,"ax",%progbits
 156              		.align	1
 157              		.global	_isatty
 158              		.syntax unified
 159              		.thumb
 160              		.thumb_func
 161              		.fpu fpv4-sp-d16
 162              		.type	_isatty, %function
 163              	_isatty:
 164              	.LFB223:
 165              		.loc 1 172 0
 166              		.cfi_startproc
 167              		@ args = 0, pretend = 0, frame = 0
 168              		@ frame_needed = 0, uses_anonymous_args = 0
 169              		@ link register save eliminated.
 170              	.LVL10:
 171              		.loc 1 176 0
ARM GAS  /tmp/cc80MFtY.s 			page 4


 172 0000 0120     		movs	r0, #1
 173              	.LVL11:
 174 0002 7047     		bx	lr
 175              		.cfi_endproc
 176              	.LFE223:
 177              		.size	_isatty, .-_isatty
 178              		.section	.text._getpid,"ax",%progbits
 179              		.align	1
 180              		.global	_getpid
 181              		.syntax unified
 182              		.thumb
 183              		.thumb_func
 184              		.fpu fpv4-sp-d16
 185              		.type	_getpid, %function
 186              	_getpid:
 187              	.LFB224:
 188              		.loc 1 180 0
 189              		.cfi_startproc
 190              		@ args = 0, pretend = 0, frame = 0
 191              		@ frame_needed = 0, uses_anonymous_args = 0
 192              		@ link register save eliminated.
 193              		.loc 1 182 0
 194 0000 0020     		movs	r0, #0
 195 0002 7047     		bx	lr
 196              		.cfi_endproc
 197              	.LFE224:
 198              		.size	_getpid, .-_getpid
 199              		.section	.text._exit,"ax",%progbits
 200              		.align	1
 201              		.global	_exit
 202              		.syntax unified
 203              		.thumb
 204              		.thumb_func
 205              		.fpu fpv4-sp-d16
 206              		.type	_exit, %function
 207              	_exit:
 208              	.LFB225:
 209              		.loc 1 186 0
 210              		.cfi_startproc
 211              		@ Volatile: function does not return.
 212              		@ args = 0, pretend = 0, frame = 0
 213              		@ frame_needed = 0, uses_anonymous_args = 0
 214              		@ link register save eliminated.
 215              	.LVL12:
 216              	.L10:
 217 0000 FEE7     		b	.L10
 218              		.cfi_endproc
 219              	.LFE225:
 220              		.size	_exit, .-_exit
 221              		.section	.text._fini,"ax",%progbits
 222              		.align	1
 223              		.global	_fini
 224              		.syntax unified
 225              		.thumb
 226              		.thumb_func
 227              		.fpu fpv4-sp-d16
 228              		.type	_fini, %function
ARM GAS  /tmp/cc80MFtY.s 			page 5


 229              	_fini:
 230              	.LFB226:
 231              		.loc 1 193 0
 232              		.cfi_startproc
 233              		@ args = 0, pretend = 0, frame = 0
 234              		@ frame_needed = 0, uses_anonymous_args = 0
 235              		@ link register save eliminated.
 236 0000 7047     		bx	lr
 237              		.cfi_endproc
 238              	.LFE226:
 239              		.size	_fini, .-_fini
 240              		.section	.text._kill,"ax",%progbits
 241              		.align	1
 242              		.global	_kill
 243              		.syntax unified
 244              		.thumb
 245              		.thumb_func
 246              		.fpu fpv4-sp-d16
 247              		.type	_kill, %function
 248              	_kill:
 249              	.LFB227:
 250              		.loc 1 198 0
 251              		.cfi_startproc
 252              		@ args = 0, pretend = 0, frame = 0
 253              		@ frame_needed = 0, uses_anonymous_args = 0
 254              		@ link register save eliminated.
 255              	.LVL13:
 256              		.loc 1 202 0
 257 0000 4FF0FF30 		mov	r0, #-1
 258              	.LVL14:
 259 0004 7047     		bx	lr
 260              		.cfi_endproc
 261              	.LFE227:
 262              		.size	_kill, .-_kill
 263              		.global	_before_main
 264              		.section	.data._before_main,"aw",%progbits
 265              		.type	_before_main, %object
 266              		.size	_before_main, 1
 267              	_before_main:
 268 0000 01       		.byte	1
 269              		.text
 270              	.Letext0:
 271              		.file 2 "/opt/gcc-arm-none-eabi-6-2017-q2-update/arm-none-eabi/include/machine/_default_types.h"
 272              		.file 3 "/opt/gcc-arm-none-eabi-6-2017-q2-update/arm-none-eabi/include/sys/lock.h"
 273              		.file 4 "/opt/gcc-arm-none-eabi-6-2017-q2-update/arm-none-eabi/include/sys/_types.h"
 274              		.file 5 "/opt/gcc-arm-none-eabi-6-2017-q2-update/lib/gcc/arm-none-eabi/6.3.1/include/stddef.h"
 275              		.file 6 "/opt/gcc-arm-none-eabi-6-2017-q2-update/arm-none-eabi/include/sys/_stdint.h"
 276              		.file 7 "/opt/gcc-arm-none-eabi-6-2017-q2-update/arm-none-eabi/include/sys/_timeval.h"
 277              		.file 8 "/opt/gcc-arm-none-eabi-6-2017-q2-update/arm-none-eabi/include/sys/types.h"
 278              		.file 9 "/opt/gcc-arm-none-eabi-6-2017-q2-update/arm-none-eabi/include/sys/unistd.h"
 279              		.file 10 "/opt/gcc-arm-none-eabi-6-2017-q2-update/arm-none-eabi/include/sys/reent.h"
 280              		.file 11 "/opt/gcc-arm-none-eabi-6-2017-q2-update/arm-none-eabi/include/sys/errno.h"
 281              		.file 12 "/opt/gcc-arm-none-eabi-6-2017-q2-update/arm-none-eabi/include/time.h"
 282              		.file 13 "/opt/gcc-arm-none-eabi-6-2017-q2-update/arm-none-eabi/include/sys/stat.h"
 283              		.file 14 "../../modules/ChibiOS/os/common/ports/ARMCMx/compilers/GCC/chtypes.h"
 284              		.file 15 "../../modules/ChibiOS/os/rt/include/chsystypes.h"
 285              		.file 16 "../../modules/ChibiOS/os/rt/include/chschd.h"
ARM GAS  /tmp/cc80MFtY.s 			page 6


 286              		.file 17 "../../modules/ChibiOS/os/rt/include/chtime.h"
 287              		.file 18 "../../modules/ChibiOS/os/common/ext/ARM/CMSIS/Core/Include/core_cm4.h"
 288              		.file 19 "../../modules/ChibiOS/os/common/ext/ST/STM32F4xx/system_stm32f4xx.h"
 289              		.file 20 "../../modules/ChibiOS/os/common/ports/ARMCMx/chcore.h"
 290              		.file 21 "../../modules/ChibiOS/os/common/ports/ARMCMx/chcore_v7m.h"
 291              		.file 22 "../../modules/ChibiOS/os/rt/include/chsys.h"