ARM GAS  /tmp/ccjpxLva.s 			page 1


   1              		.cpu cortex-m4
   2              		.eabi_attribute 27, 1
   3              		.eabi_attribute 28, 1
   4              		.eabi_attribute 20, 1
   5              		.eabi_attribute 21, 1
   6              		.eabi_attribute 23, 3
   7              		.eabi_attribute 24, 1
   8              		.eabi_attribute 25, 1
   9              		.eabi_attribute 26, 1
  10              		.eabi_attribute 30, 4
  11              		.eabi_attribute 34, 1
  12              		.eabi_attribute 18, 4
  13              		.file	"usbcfg_common.c"
  14              		.text
  15              	.Ltext0:
  16              		.cfi_sections	.debug_frame
  17              		.section	.text.string_contains,"ax",%progbits
  18              		.align	1
  19              		.global	string_contains
  20              		.syntax unified
  21              		.thumb
  22              		.thumb_func
  23              		.fpu fpv4-sp-d16
  24              		.type	string_contains, %function
  25              	string_contains:
  26              	.LFB251:
  27              		.file 1 "../../libraries/AP_HAL_ChibiOS/hwdef/common/usbcfg_common.c"
  28              		.loc 1 42 0
  29              		.cfi_startproc
  30              		@ args = 0, pretend = 0, frame = 0
  31              		@ frame_needed = 0, uses_anonymous_args = 0
  32              	.LVL0:
  33 0000 70B5     		push	{r4, r5, r6, lr}
  34              		.cfi_def_cfa_offset 16
  35              		.cfi_offset 4, -16
  36              		.cfi_offset 5, -12
  37              		.cfi_offset 6, -8
  38              		.cfi_offset 14, -4
  39              		.loc 1 42 0
  40 0002 0446     		mov	r4, r0
  41              		.loc 1 43 0
  42 0004 0846     		mov	r0, r1
  43              	.LVL1:
  44              		.loc 1 42 0
  45 0006 0D46     		mov	r5, r1
  46              		.loc 1 43 0
  47 0008 FFF7FEFF 		bl	strlen
  48              	.LVL2:
  49              		.loc 1 45 0
  50 000c C6B2     		uxtb	r6, r0
  51              	.LVL3:
  52              	.L2:
  53 000e 2046     		mov	r0, r4
  54              	.LVL4:
  55 0010 0134     		adds	r4, r4, #1
  56              		.loc 1 44 0
  57 0012 0378     		ldrb	r3, [r0]	@ zero_extendqisi2
ARM GAS  /tmp/ccjpxLva.s 			page 2


  58 0014 0BB9     		cbnz	r3, .L4
  59              		.loc 1 50 0
  60 0016 1846     		mov	r0, r3
  61              	.LVL5:
  62 0018 70BD     		pop	{r4, r5, r6, pc}
  63              	.LVL6:
  64              	.L4:
  65              		.loc 1 45 0
  66 001a 3246     		mov	r2, r6
  67 001c 2946     		mov	r1, r5
  68 001e FFF7FEFF 		bl	strncmp
  69              	.LVL7:
  70 0022 0028     		cmp	r0, #0
  71 0024 F3D1     		bne	.L2
  72              		.loc 1 46 0
  73 0026 0120     		movs	r0, #1
  74              		.loc 1 51 0
  75 0028 70BD     		pop	{r4, r5, r6, pc}
  76              		.cfi_endproc
  77              	.LFE251:
  78              		.size	string_contains, .-string_contains
  79              		.section	.text.string_substitute,"ax",%progbits
  80              		.align	1
  81              		.global	string_substitute
  82              		.syntax unified
  83              		.thumb
  84              		.thumb_func
  85              		.fpu fpv4-sp-d16
  86              		.type	string_substitute, %function
  87              	string_substitute:
  88              	.LFB252:
  89              		.loc 1 57 0
  90              		.cfi_startproc
  91              		@ args = 0, pretend = 0, frame = 0
  92              		@ frame_needed = 0, uses_anonymous_args = 0
  93              	.LVL8:
  94 0000 2DE9F84F 		push	{r3, r4, r5, r6, r7, r8, r9, r10, fp, lr}
  95              		.cfi_def_cfa_offset 40
  96              		.cfi_offset 3, -40
  97              		.cfi_offset 4, -36
  98              		.cfi_offset 5, -32
  99              		.cfi_offset 6, -28
 100              		.cfi_offset 7, -24
 101              		.cfi_offset 8, -20
 102              		.cfi_offset 9, -16
 103              		.cfi_offset 10, -12
 104              		.cfi_offset 11, -8
 105              		.cfi_offset 14, -4
 106              		.loc 1 57 0
 107 0004 0546     		mov	r5, r0
 108 0006 0C46     		mov	r4, r1
 109              		.loc 1 60 0
 110 0008 FFF7FEFF 		bl	strlen
 111              	.LVL9:
 112              		.loc 1 61 0
 113 000c 2B49     		ldr	r1, .L23
 114              		.loc 1 60 0
ARM GAS  /tmp/ccjpxLva.s 			page 3


 115 000e C6B2     		uxtb	r6, r0
 116              	.LVL10:
 117              		.loc 1 61 0
 118 0010 2846     		mov	r0, r5
 119 0012 FFF7FEFF 		bl	string_contains
 120              	.LVL11:
 121 0016 08B1     		cbz	r0, .L7
 122              		.loc 1 62 0
 123 0018 0336     		adds	r6, r6, #3
 124              	.LVL12:
 125 001a F6B2     		uxtb	r6, r6
 126              	.LVL13:
 127              	.L7:
 128              		.loc 1 64 0
 129 001c 2849     		ldr	r1, .L23+4
 130 001e 2846     		mov	r0, r5
 131 0020 FFF7FEFF 		bl	string_contains
 132              	.LVL14:
 133 0024 08B1     		cbz	r0, .L8
 134              		.loc 1 65 0
 135 0026 1036     		adds	r6, r6, #16
 136              	.LVL15:
 137 0028 F6B2     		uxtb	r6, r6
 138              	.LVL16:
 139              	.L8:
 140              		.loc 1 67 0
 141 002a 632E     		cmp	r6, #99
 142 002c 0DD8     		bhi	.L9
 143              	.LBB2:
 144              		.loc 1 75 0
 145 002e DFF88C80 		ldr	r8, .L23
 146              		.loc 1 81 0
 147 0032 DFF88C90 		ldr	r9, .L23+4
 148              	.LBB3:
 149              		.loc 1 86 0
 150 0036 234F     		ldr	r7, .L23+8
 151              		.loc 1 85 0
 152 0038 DFF890A0 		ldr	r10, .L23+16
 153              	.LBE3:
 154              		.loc 1 76 0
 155 003c DFF890B0 		ldr	fp, .L23+20
 156              	.LVL17:
 157              	.L10:
 158              	.LBE2:
 159              		.loc 1 72 0
 160 0040 2E78     		ldrb	r6, [r5]	@ zero_extendqisi2
 161 0042 46B9     		cbnz	r6, .L15
 162              		.loc 1 95 0
 163 0044 2670     		strb	r6, [r4]
 164 0046 BDE8F88F 		pop	{r3, r4, r5, r6, r7, r8, r9, r10, fp, pc}
 165              	.LVL18:
 166              	.L9:
 167              		.loc 1 68 0
 168 004a 2946     		mov	r1, r5
 169 004c 2046     		mov	r0, r4
 170              		.loc 1 96 0
 171 004e BDE8F84F 		pop	{r3, r4, r5, r6, r7, r8, r9, r10, fp, lr}
ARM GAS  /tmp/ccjpxLva.s 			page 4


 172              		.cfi_remember_state
 173              		.cfi_restore 14
 174              		.cfi_restore 11
 175              		.cfi_restore 10
 176              		.cfi_restore 9
 177              		.cfi_restore 8
 178              		.cfi_restore 7
 179              		.cfi_restore 6
 180              		.cfi_restore 5
 181              		.cfi_restore 4
 182              		.cfi_restore 3
 183              		.cfi_def_cfa_offset 0
 184              	.LVL19:
 185              		.loc 1 68 0
 186 0052 FFF7FEBF 		b	strcpy
 187              	.LVL20:
 188              	.L15:
 189              		.cfi_restore_state
 190              	.LBB5:
 191              		.loc 1 74 0
 192 0056 252E     		cmp	r6, #37
 193 0058 2CD1     		bne	.L11
 194              		.loc 1 75 0
 195 005a 0722     		movs	r2, #7
 196 005c 4146     		mov	r1, r8
 197 005e 2846     		mov	r0, r5
 198 0060 FFF7FEFF 		bl	strncmp
 199              	.LVL21:
 200 0064 58B9     		cbnz	r0, .L12
 201              		.loc 1 76 0
 202 0066 DBF80030 		ldr	r3, [fp]	@ unaligned
 203 006a 2360     		str	r3, [r4]	@ unaligned
 204 006c DBF80430 		ldr	r3, [fp, #4]	@ unaligned
 205 0070 6360     		str	r3, [r4, #4]	@ unaligned
 206 0072 BBF80830 		ldrh	r3, [fp, #8]	@ unaligned
 207 0076 2381     		strh	r3, [r4, #8]	@ unaligned
 208              		.loc 1 77 0
 209 0078 0735     		adds	r5, r5, #7
 210              	.LVL22:
 211              		.loc 1 78 0
 212 007a 0A34     		adds	r4, r4, #10
 213              	.LVL23:
 214              		.loc 1 79 0
 215 007c E0E7     		b	.L10
 216              	.L12:
 217              		.loc 1 81 0
 218 007e 0822     		movs	r2, #8
 219 0080 4946     		mov	r1, r9
 220 0082 2846     		mov	r0, r5
 221 0084 FFF7FEFF 		bl	strncmp
 222              	.LVL24:
 223 0088 A0B9     		cbnz	r0, .L11
 224 008a 0F4B     		ldr	r3, .L23+12
 225 008c A21C     		adds	r2, r4, #2
 226              	.LVL25:
 227              	.L14:
 228              	.LBB4:
ARM GAS  /tmp/ccjpxLva.s 			page 5


 229              		.loc 1 86 0 discriminator 3
 230 008e 13F8011F 		ldrb	r1, [r3, #1]!	@ zero_extendqisi2
 231              	.LVL26:
 232 0092 0909     		lsrs	r1, r1, #4
 233              		.loc 1 85 0 discriminator 3
 234 0094 5345     		cmp	r3, r10
 235              		.loc 1 86 0 discriminator 3
 236 0096 C95D     		ldrb	r1, [r1, r7]	@ zero_extendqisi2
 237 0098 02F8021C 		strb	r1, [r2, #-2]
 238              	.LVL27:
 239              		.loc 1 87 0 discriminator 3
 240 009c 1978     		ldrb	r1, [r3]	@ zero_extendqisi2
 241 009e 01F00F01 		and	r1, r1, #15
 242 00a2 02F10202 		add	r2, r2, #2
 243              	.LVL28:
 244 00a6 C95D     		ldrb	r1, [r1, r7]	@ zero_extendqisi2
 245 00a8 02F8031C 		strb	r1, [r2, #-3]
 246              	.LVL29:
 247              		.loc 1 85 0 discriminator 3
 248 00ac EFD1     		bne	.L14
 249 00ae 1834     		adds	r4, r4, #24
 250              		.loc 1 89 0
 251 00b0 0835     		adds	r5, r5, #8
 252              	.LVL30:
 253              		.loc 1 90 0
 254 00b2 C5E7     		b	.L10
 255              	.LVL31:
 256              	.L11:
 257              	.LBE4:
 258              		.loc 1 93 0
 259 00b4 2670     		strb	r6, [r4]
 260 00b6 0135     		adds	r5, r5, #1
 261              	.LVL32:
 262 00b8 0134     		adds	r4, r4, #1
 263              	.LVL33:
 264 00ba C1E7     		b	.L10
 265              	.L24:
 266              		.align	2
 267              	.L23:
 268 00bc 00000000 		.word	.LC0
 269 00c0 08000000 		.word	.LC1
 270 00c4 1C000000 		.word	.LC3
 271 00c8 0F7AFF1F 		.word	536836623
 272 00cc 1B7AFF1F 		.word	536836635
 273 00d0 11000000 		.word	.LC2
 274              	.LBE5:
 275              		.cfi_endproc
 276              	.LFE252:
 277              		.size	string_substitute, .-string_substitute
 278              		.section	.rodata.string_substitute.str1.1,"aMS",%progbits,1
 279              	.LC0:
 280 0000 25424F41 		.ascii	"%BOARD%\000"
 280      52442500 
 281              	.LC1:
 282 0008 25534552 		.ascii	"%SERIAL%\000"
 282      49414C25 
 282      00
ARM GAS  /tmp/ccjpxLva.s 			page 6


 283              	.LC2:
 284 0011 53544D33 		.ascii	"STM32Disco\000"
 284      32446973 
 284      636F00
 285              	.LC3:
 286 001c 30313233 		.ascii	"0123456789ABCDEF\000"
 286      34353637 
 286      38394142 
 286      43444546 
 286      00
 287              		.text
 288              	.Letext0:
 289              		.file 2 "/opt/gcc-arm-none-eabi-6-2017-q2-update/lib/gcc/arm-none-eabi/6.3.1/include/stddef.h"
 290              		.file 3 "/opt/gcc-arm-none-eabi-6-2017-q2-update/arm-none-eabi/include/machine/_default_types.h"
 291              		.file 4 "/opt/gcc-arm-none-eabi-6-2017-q2-update/arm-none-eabi/include/sys/_stdint.h"
 292              		.file 5 "../../modules/ChibiOS/os/common/ports/ARMCMx/compilers/GCC/chtypes.h"
 293              		.file 6 "../../modules/ChibiOS/os/rt/include/chsystypes.h"
 294              		.file 7 "../../modules/ChibiOS/os/rt/include/chschd.h"
 295              		.file 8 "../../modules/ChibiOS/os/rt/include/chtime.h"
 296              		.file 9 "../../modules/ChibiOS/os/common/ext/ARM/CMSIS/Core/Include/core_cm4.h"
 297              		.file 10 "../../modules/ChibiOS/os/common/ext/ST/STM32F4xx/system_stm32f4xx.h"
 298              		.file 11 "../../modules/ChibiOS/os/common/ext/ST/STM32F4xx/stm32f407xx.h"
 299              		.file 12 "../../modules/ChibiOS/os/common/ports/ARMCMx/chcore.h"
 300              		.file 13 "../../modules/ChibiOS/os/common/ports/ARMCMx/chcore_v7m.h"
 301              		.file 14 "../../modules/ChibiOS/os/rt/include/chsys.h"
 302              		.file 15 "../../modules/ChibiOS/os/hal/osal/rt/osal.h"
 303              		.file 16 "../../modules/ChibiOS/os/hal/ports/STM32/LLD/DMAv2/stm32_dma.h"
 304              		.file 17 "../../modules/ChibiOS/os/hal/include/hal_buffers.h"
 305              		.file 18 "../../modules/ChibiOS/os/hal/include/hal_queues.h"
 306              		.file 19 "../../modules/ChibiOS/os/hal/include/hal_pal.h"
 307              		.file 20 "../../modules/ChibiOS/os/hal/ports/STM32/LLD/GPIOv2/hal_pal_lld.h"
 308              		.file 21 "../../modules/ChibiOS/os/hal/include/hal_serial.h"
 309              		.file 22 "../../modules/ChibiOS/os/hal/ports/STM32/LLD/USARTv1/hal_serial_lld.h"
 310              		.file 23 "../../modules/ChibiOS/os/hal/include/hal_usb.h"
 311              		.file 24 "../../modules/ChibiOS/os/hal/ports/STM32/LLD/OTGv1/hal_usb_lld.h"
 312              		.file 25 "../../modules/ChibiOS/os/hal/ports/STM32/LLD/OTGv1/stm32_otg.h"
 313              		.file 26 "../../modules/ChibiOS/os/hal/include/hal_serial_usb.h"
 314              		.file 27 "/opt/gcc-arm-none-eabi-6-2017-q2-update/arm-none-eabi/include/sys/lock.h"
 315              		.file 28 "/opt/gcc-arm-none-eabi-6-2017-q2-update/arm-none-eabi/include/sys/_types.h"
 316              		.file 29 "/opt/gcc-arm-none-eabi-6-2017-q2-update/arm-none-eabi/include/sys/reent.h"
 317              		.file 30 "/opt/gcc-arm-none-eabi-6-2017-q2-update/arm-none-eabi/include/stdlib.h"
 318              		.file 31 "../../libraries/AP_HAL_ChibiOS/hwdef/common/usbcfg.h"
 319              		.file 32 "/opt/gcc-arm-none-eabi-6-2017-q2-update/arm-none-eabi/include/string.h"