ARM GAS  /tmp/cc7ORpAK.s 			page 1


   1              		.cpu cortex-m4
   2              		.eabi_attribute 27, 1
   3              		.eabi_attribute 28, 1
   4              		.eabi_attribute 20, 1
   5              		.eabi_attribute 21, 1
   6              		.eabi_attribute 23, 3
   7              		.eabi_attribute 24, 1
   8              		.eabi_attribute 25, 1
   9              		.eabi_attribute 26, 1
  10              		.eabi_attribute 30, 4
  11              		.eabi_attribute 34, 1
  12              		.eabi_attribute 18, 4
  13              		.file	"bouncebuffer.c"
  14              		.text
  15              	.Ltext0:
  16              		.cfi_sections	.debug_frame
  17              		.section	.text.bouncebuffer_init,"ax",%progbits
  18              		.align	1
  19              		.global	bouncebuffer_init
  20              		.syntax unified
  21              		.thumb
  22              		.thumb_func
  23              		.fpu fpv4-sp-d16
  24              		.type	bouncebuffer_init, %function
  25              	bouncebuffer_init:
  26              	.LFB323:
  27              		.file 1 "../../libraries/AP_HAL_ChibiOS/hwdef/common/bouncebuffer.c"
  28              		.loc 1 42 0
  29              		.cfi_startproc
  30              		@ args = 0, pretend = 0, frame = 0
  31              		@ frame_needed = 0, uses_anonymous_args = 0
  32              	.LVL0:
  33 0000 F8B5     		push	{r3, r4, r5, r6, r7, lr}
  34              		.cfi_def_cfa_offset 24
  35              		.cfi_offset 3, -24
  36              		.cfi_offset 4, -20
  37              		.cfi_offset 5, -16
  38              		.cfi_offset 6, -12
  39              		.cfi_offset 7, -8
  40              		.cfi_offset 14, -4
  41              		.loc 1 42 0
  42 0002 0646     		mov	r6, r0
  43 0004 0C46     		mov	r4, r1
  44              		.loc 1 43 0
  45 0006 0120     		movs	r0, #1
  46              	.LVL1:
  47 0008 1021     		movs	r1, #16
  48              	.LVL2:
  49              		.loc 1 42 0
  50 000a 1746     		mov	r7, r2
  51              		.loc 1 43 0
  52 000c FFF7FEFF 		bl	calloc
  53              	.LVL3:
  54 0010 0546     		mov	r5, r0
  55 0012 3060     		str	r0, [r6]
  56              		.loc 1 45 0
  57 0014 4773     		strb	r7, [r0, #13]
ARM GAS  /tmp/cc7ORpAK.s 			page 2


  58              		.loc 1 46 0
  59 0016 44B1     		cbz	r4, .L1
  60              		.loc 1 47 0
  61 0018 2046     		mov	r0, r4
  62 001a 3FB1     		cbz	r7, .L4
  63              		.loc 1 47 0 is_stmt 0 discriminator 1
  64 001c FFF7FEFF 		bl	malloc_sdcard_dma
  65              	.LVL4:
  66              	.L5:
  67              		.loc 1 48 0 is_stmt 1 discriminator 4
  68 0020 3368     		ldr	r3, [r6]
  69              		.loc 1 47 0 discriminator 4
  70 0022 2860     		str	r0, [r5]
  71              		.loc 1 48 0 discriminator 4
  72 0024 1A68     		ldr	r2, [r3]
  73 0026 02B1     		cbz	r2, .L1
  74              		.loc 1 49 0
  75 0028 9C60     		str	r4, [r3, #8]
  76              	.L1:
  77 002a F8BD     		pop	{r3, r4, r5, r6, r7, pc}
  78              	.LVL5:
  79              	.L4:
  80              		.loc 1 47 0 discriminator 2
  81 002c FFF7FEFF 		bl	malloc_dma
  82              	.LVL6:
  83 0030 F6E7     		b	.L5
  84              		.cfi_endproc
  85              	.LFE323:
  86              		.size	bouncebuffer_init, .-bouncebuffer_init
  87              		.section	.text.bouncebuffer_setup_read,"ax",%progbits
  88              		.align	1
  89              		.global	bouncebuffer_setup_read
  90              		.syntax unified
  91              		.thumb
  92              		.thumb_func
  93              		.fpu fpv4-sp-d16
  94              		.type	bouncebuffer_setup_read, %function
  95              	bouncebuffer_setup_read:
  96              	.LFB324:
  97              		.loc 1 60 0
  98              		.cfi_startproc
  99              		@ args = 0, pretend = 0, frame = 0
 100              		@ frame_needed = 0, uses_anonymous_args = 0
 101              	.LVL7:
 102 0000 70B5     		push	{r4, r5, r6, lr}
 103              		.cfi_def_cfa_offset 16
 104              		.cfi_offset 4, -16
 105              		.cfi_offset 5, -12
 106              		.cfi_offset 6, -8
 107              		.cfi_offset 14, -4
 108              		.loc 1 60 0
 109 0002 0E46     		mov	r6, r1
 110 0004 1546     		mov	r5, r2
 111              		.loc 1 61 0
 112 0006 0446     		mov	r4, r0
 113 0008 F8B1     		cbz	r0, .L18
 114              		.loc 1 61 0 is_stmt 0 discriminator 1
ARM GAS  /tmp/cc7ORpAK.s 			page 3


 115 000a 0B68     		ldr	r3, [r1]
 116 000c 104A     		ldr	r2, .L22
 117              	.LVL8:
 118 000e 1A40     		ands	r2, r2, r3
 119 0010 B2F1005F 		cmp	r2, #536870912
 120 0014 19D0     		beq	.L18
 121              		.loc 1 66 0 is_stmt 1
 122 0016 4360     		str	r3, [r0, #4]
 123              		.loc 1 67 0
 124 0018 8368     		ldr	r3, [r0, #8]
 125 001a AB42     		cmp	r3, r5
 126 001c 10D2     		bcs	.L12
 127              		.loc 1 68 0
 128 001e 13B1     		cbz	r3, .L13
 129              		.loc 1 69 0
 130 0020 0068     		ldr	r0, [r0]
 131              	.LVL9:
 132 0022 FFF7FEFF 		bl	free
 133              	.LVL10:
 134              	.L13:
 135              		.loc 1 71 0
 136 0026 637B     		ldrb	r3, [r4, #13]	@ zero_extendqisi2
 137 0028 2846     		mov	r0, r5
 138 002a 2BB1     		cbz	r3, .L14
 139              	.LVL11:
 140              		.loc 1 71 0 is_stmt 0 discriminator 1
 141 002c FFF7FEFF 		bl	malloc_sdcard_dma
 142              	.LVL12:
 143              	.L15:
 144              		.loc 1 71 0 discriminator 4
 145 0030 2060     		str	r0, [r4]
 146              		.loc 1 72 0 is_stmt 1 discriminator 4
 147 0032 20B9     		cbnz	r0, .L16
 148              		.loc 1 73 0
 149 0034 A060     		str	r0, [r4, #8]
 150              		.loc 1 74 0
 151 0036 70BD     		pop	{r4, r5, r6, pc}
 152              	.LVL13:
 153              	.L14:
 154              		.loc 1 71 0 discriminator 2
 155 0038 FFF7FEFF 		bl	malloc_dma
 156              	.LVL14:
 157 003c F8E7     		b	.L15
 158              	.L16:
 159              		.loc 1 76 0
 160 003e A560     		str	r5, [r4, #8]
 161              	.L12:
 162              		.loc 1 78 0
 163 0040 2368     		ldr	r3, [r4]
 164 0042 3360     		str	r3, [r6]
 165              		.loc 1 83 0
 166 0044 0120     		movs	r0, #1
 167 0046 2073     		strb	r0, [r4, #12]
 168              		.loc 1 84 0
 169 0048 70BD     		pop	{r4, r5, r6, pc}
 170              	.LVL15:
 171              	.L18:
ARM GAS  /tmp/cc7ORpAK.s 			page 4


 172              		.loc 1 63 0
 173 004a 0120     		movs	r0, #1
 174              	.LVL16:
 175              		.loc 1 85 0
 176 004c 70BD     		pop	{r4, r5, r6, pc}
 177              	.LVL17:
 178              	.L23:
 179 004e 00BF     		.align	2
 180              	.L22:
 181 0050 010000F0 		.word	-268435455
 182              		.cfi_endproc
 183              	.LFE324:
 184              		.size	bouncebuffer_setup_read, .-bouncebuffer_setup_read
 185              		.section	.text.bouncebuffer_finish_read,"ax",%progbits
 186              		.align	1
 187              		.global	bouncebuffer_finish_read
 188              		.syntax unified
 189              		.thumb
 190              		.thumb_func
 191              		.fpu fpv4-sp-d16
 192              		.type	bouncebuffer_finish_read, %function
 193              	bouncebuffer_finish_read:
 194              	.LFB325:
 195              		.loc 1 91 0
 196              		.cfi_startproc
 197              		@ args = 0, pretend = 0, frame = 0
 198              		@ frame_needed = 0, uses_anonymous_args = 0
 199              	.LVL18:
 200 0000 10B5     		push	{r4, lr}
 201              		.cfi_def_cfa_offset 8
 202              		.cfi_offset 4, -8
 203              		.cfi_offset 14, -4
 204              		.loc 1 92 0
 205 0002 0446     		mov	r4, r0
 206 0004 40B1     		cbz	r0, .L24
 207              		.loc 1 92 0 is_stmt 0 discriminator 1
 208 0006 0068     		ldr	r0, [r0]
 209              	.LVL19:
 210 0008 8842     		cmp	r0, r1
 211 000a 05D1     		bne	.L24
 212              		.loc 1 94 0 is_stmt 1
 213 000c 6068     		ldr	r0, [r4, #4]
 214 000e 08B1     		cbz	r0, .L26
 215              		.loc 1 95 0
 216 0010 FFF7FEFF 		bl	memcpy
 217              	.LVL20:
 218              	.L26:
 219              		.loc 1 97 0
 220 0014 0023     		movs	r3, #0
 221 0016 2373     		strb	r3, [r4, #12]
 222              	.L24:
 223 0018 10BD     		pop	{r4, pc}
 224              		.cfi_endproc
 225              	.LFE325:
 226              		.size	bouncebuffer_finish_read, .-bouncebuffer_finish_read
 227              		.section	.text.bouncebuffer_setup_write,"ax",%progbits
 228              		.align	1
ARM GAS  /tmp/cc7ORpAK.s 			page 5


 229              		.global	bouncebuffer_setup_write
 230              		.syntax unified
 231              		.thumb
 232              		.thumb_func
 233              		.fpu fpv4-sp-d16
 234              		.type	bouncebuffer_setup_write, %function
 235              	bouncebuffer_setup_write:
 236              	.LFB326:
 237              		.loc 1 106 0
 238              		.cfi_startproc
 239              		@ args = 0, pretend = 0, frame = 0
 240              		@ frame_needed = 0, uses_anonymous_args = 0
 241              	.LVL21:
 242 0000 70B5     		push	{r4, r5, r6, lr}
 243              		.cfi_def_cfa_offset 16
 244              		.cfi_offset 4, -16
 245              		.cfi_offset 5, -12
 246              		.cfi_offset 6, -8
 247              		.cfi_offset 14, -4
 248              		.loc 1 106 0
 249 0002 0E46     		mov	r6, r1
 250 0004 1546     		mov	r5, r2
 251              		.loc 1 107 0
 252 0006 0446     		mov	r4, r0
 253 0008 50B3     		cbz	r0, .L42
 254              		.loc 1 107 0 is_stmt 0 discriminator 1
 255 000a 0B68     		ldr	r3, [r1]
 256 000c 23F07F63 		bic	r3, r3, #267386880
 257 0010 23F47F23 		bic	r3, r3, #1044480
 258 0014 23F47F63 		bic	r3, r3, #4080
 259 0018 23F00E03 		bic	r3, r3, #14
 260 001c B3F1005F 		cmp	r3, #536870912
 261 0020 1ED0     		beq	.L42
 262              		.loc 1 112 0 is_stmt 1
 263 0022 8368     		ldr	r3, [r0, #8]
 264 0024 9342     		cmp	r3, r2
 265 0026 10D2     		bcs	.L35
 266              		.loc 1 113 0
 267 0028 13B1     		cbz	r3, .L36
 268              		.loc 1 114 0
 269 002a 0068     		ldr	r0, [r0]
 270              	.LVL22:
 271 002c FFF7FEFF 		bl	free
 272              	.LVL23:
 273              	.L36:
 274              		.loc 1 116 0
 275 0030 637B     		ldrb	r3, [r4, #13]	@ zero_extendqisi2
 276 0032 2846     		mov	r0, r5
 277 0034 2BB1     		cbz	r3, .L37
 278              	.LVL24:
 279              		.loc 1 116 0 is_stmt 0 discriminator 1
 280 0036 FFF7FEFF 		bl	malloc_sdcard_dma
 281              	.LVL25:
 282              	.L38:
 283              		.loc 1 116 0 discriminator 4
 284 003a 2060     		str	r0, [r4]
 285              		.loc 1 117 0 is_stmt 1 discriminator 4
ARM GAS  /tmp/cc7ORpAK.s 			page 6


 286 003c 20B9     		cbnz	r0, .L39
 287              		.loc 1 118 0
 288 003e A060     		str	r0, [r4, #8]
 289              		.loc 1 119 0
 290 0040 70BD     		pop	{r4, r5, r6, pc}
 291              	.LVL26:
 292              	.L37:
 293              		.loc 1 116 0 discriminator 2
 294 0042 FFF7FEFF 		bl	malloc_dma
 295              	.LVL27:
 296 0046 F8E7     		b	.L38
 297              	.L39:
 298              		.loc 1 121 0
 299 0048 A560     		str	r5, [r4, #8]
 300              	.L35:
 301              		.loc 1 123 0
 302 004a 3168     		ldr	r1, [r6]
 303 004c 19B1     		cbz	r1, .L40
 304              		.loc 1 124 0
 305 004e 2A46     		mov	r2, r5
 306 0050 2068     		ldr	r0, [r4]
 307 0052 FFF7FEFF 		bl	memcpy
 308              	.LVL28:
 309              	.L40:
 310              		.loc 1 126 0
 311 0056 2368     		ldr	r3, [r4]
 312 0058 3360     		str	r3, [r6]
 313              		.loc 1 131 0
 314 005a 0120     		movs	r0, #1
 315 005c 2073     		strb	r0, [r4, #12]
 316              		.loc 1 132 0
 317 005e 70BD     		pop	{r4, r5, r6, pc}
 318              	.LVL29:
 319              	.L42:
 320              		.loc 1 109 0
 321 0060 0120     		movs	r0, #1
 322              	.LVL30:
 323              		.loc 1 133 0
 324 0062 70BD     		pop	{r4, r5, r6, pc}
 325              		.cfi_endproc
 326              	.LFE326:
 327              		.size	bouncebuffer_setup_write, .-bouncebuffer_setup_write
 328              		.section	.text.bouncebuffer_finish_write,"ax",%progbits
 329              		.align	1
 330              		.global	bouncebuffer_finish_write
 331              		.syntax unified
 332              		.thumb
 333              		.thumb_func
 334              		.fpu fpv4-sp-d16
 335              		.type	bouncebuffer_finish_write, %function
 336              	bouncebuffer_finish_write:
 337              	.LFB327:
 338              		.loc 1 140 0
 339              		.cfi_startproc
 340              		@ args = 0, pretend = 0, frame = 0
 341              		@ frame_needed = 0, uses_anonymous_args = 0
 342              		@ link register save eliminated.
ARM GAS  /tmp/cc7ORpAK.s 			page 7


 343              	.LVL31:
 344              		.loc 1 141 0
 345 0000 20B1     		cbz	r0, .L49
 346              		.loc 1 141 0 is_stmt 0 discriminator 1
 347 0002 0368     		ldr	r3, [r0]
 348 0004 8B42     		cmp	r3, r1
 349              		.loc 1 143 0 is_stmt 1 discriminator 1
 350 0006 04BF     		itt	eq
 351 0008 0023     		moveq	r3, #0
 352 000a 0373     		strbeq	r3, [r0, #12]
 353              	.L49:
 354 000c 7047     		bx	lr
 355              		.cfi_endproc
 356              	.LFE327:
 357              		.size	bouncebuffer_finish_write, .-bouncebuffer_finish_write
 358              		.section	.text.bouncebuffer_abort,"ax",%progbits
 359              		.align	1
 360              		.global	bouncebuffer_abort
 361              		.syntax unified
 362              		.thumb
 363              		.thumb_func
 364              		.fpu fpv4-sp-d16
 365              		.type	bouncebuffer_abort, %function
 366              	bouncebuffer_abort:
 367              	.LFB328:
 368              		.loc 1 151 0
 369              		.cfi_startproc
 370              		@ args = 0, pretend = 0, frame = 0
 371              		@ frame_needed = 0, uses_anonymous_args = 0
 372              		@ link register save eliminated.
 373              	.LVL32:
 374              		.loc 1 152 0
 375 0000 08B1     		cbz	r0, .L54
 376              		.loc 1 153 0
 377 0002 0023     		movs	r3, #0
 378 0004 0373     		strb	r3, [r0, #12]
 379              	.L54:
 380 0006 7047     		bx	lr
 381              		.cfi_endproc
 382              	.LFE328:
 383              		.size	bouncebuffer_abort, .-bouncebuffer_abort
 384              		.text
 385              	.Letext0:
 386              		.file 2 "/opt/gcc-arm-none-eabi-6-2017-q2-update/lib/gcc/arm-none-eabi/6.3.1/include/stddef.h"
 387              		.file 3 "/opt/gcc-arm-none-eabi-6-2017-q2-update/arm-none-eabi/include/machine/_default_types.h"
 388              		.file 4 "/opt/gcc-arm-none-eabi-6-2017-q2-update/arm-none-eabi/include/sys/_stdint.h"
 389              		.file 5 "../../modules/ChibiOS/os/common/ports/ARMCMx/compilers/GCC/chtypes.h"
 390              		.file 6 "../../modules/ChibiOS/os/rt/include/chsystypes.h"
 391              		.file 7 "../../modules/ChibiOS/os/rt/include/chschd.h"
 392              		.file 8 "../../modules/ChibiOS/os/rt/include/chtime.h"
 393              		.file 9 "../../modules/ChibiOS/os/common/ext/ARM/CMSIS/Core/Include/core_cm4.h"
 394              		.file 10 "../../modules/ChibiOS/os/common/ext/ST/STM32F4xx/system_stm32f4xx.h"
 395              		.file 11 "../../modules/ChibiOS/os/common/ext/ST/STM32F4xx/stm32f427xx.h"
 396              		.file 12 "../../modules/ChibiOS/os/common/ports/ARMCMx/chcore.h"
 397              		.file 13 "../../modules/ChibiOS/os/common/ports/ARMCMx/chcore_v7m.h"
 398              		.file 14 "../../modules/ChibiOS/os/rt/include/chtm.h"
 399              		.file 15 "../../modules/ChibiOS/os/rt/include/chsem.h"
ARM GAS  /tmp/cc7ORpAK.s 			page 8


 400              		.file 16 "../../modules/ChibiOS/os/rt/include/chmtx.h"
 401              		.file 17 "../../modules/ChibiOS/os/rt/include/chsys.h"
 402              		.file 18 "../../modules/ChibiOS/os/rt/include/chregistry.h"
 403              		.file 19 "../../modules/ChibiOS/os/rt/include/chevents.h"
 404              		.file 20 "../../modules/ChibiOS/os/oslib/include/chmemcore.h"
 405              		.file 21 "../../modules/ChibiOS/os/oslib/include/chmempools.h"
 406              		.file 22 "../../modules/ChibiOS/os/oslib/include/chfactory.h"
 407              		.file 23 "../../modules/ChibiOS/os/hal/ports/STM32/LLD/DMAv2/stm32_dma.h"
 408              		.file 24 "../../modules/ChibiOS/os/hal/include/hal_queues.h"
 409              		.file 25 "../../modules/ChibiOS/os/hal/include/hal_pal.h"
 410              		.file 26 "../../modules/ChibiOS/os/hal/ports/STM32/LLD/GPIOv2/hal_pal_lld.h"
 411              		.file 27 "../../modules/ChibiOS/os/hal/include/hal_adc.h"
 412              		.file 28 "../../modules/ChibiOS/os/hal/ports/STM32/LLD/ADCv2/hal_adc_lld.h"
 413              		.file 29 "../../modules/ChibiOS/os/hal/include/hal_serial.h"
 414              		.file 30 "../../modules/ChibiOS/os/hal/ports/STM32/LLD/USARTv1/hal_serial_lld.h"
 415              		.file 31 "../../modules/ChibiOS/os/hal/include/hal_usb.h"
 416              		.file 32 "../../modules/ChibiOS/os/hal/ports/STM32/LLD/OTGv1/hal_usb_lld.h"
 417              		.file 33 "../../modules/ChibiOS/os/hal/ports/STM32/LLD/OTGv1/stm32_otg.h"
 418              		.file 34 "../../libraries/AP_HAL_ChibiOS/hwdef/common/stm32_util.h"
 419              		.file 35 "/opt/gcc-arm-none-eabi-6-2017-q2-update/arm-none-eabi/include/sys/lock.h"
 420              		.file 36 "/opt/gcc-arm-none-eabi-6-2017-q2-update/arm-none-eabi/include/sys/_types.h"
 421              		.file 37 "/opt/gcc-arm-none-eabi-6-2017-q2-update/arm-none-eabi/include/sys/reent.h"
 422              		.file 38 "/opt/gcc-arm-none-eabi-6-2017-q2-update/lib/gcc/arm-none-eabi/6.3.1/include/stdarg.h"
 423              		.file 39 "<built-in>"
 424              		.file 40 "../../libraries/AP_HAL_ChibiOS/hwdef/common/stdio.h"
 425              		.file 41 "../../libraries/AP_HAL_ChibiOS/hwdef/common/bouncebuffer.h"