ARM GAS  /tmp/ccIJOfrC.s 			page 1


   1              		.cpu cortex-m4
   2              		.eabi_attribute 27, 1
   3              		.eabi_attribute 28, 1
   4              		.eabi_attribute 20, 1
   5              		.eabi_attribute 21, 1
   6              		.eabi_attribute 23, 3
   7              		.eabi_attribute 24, 1
   8              		.eabi_attribute 25, 1
   9              		.eabi_attribute 26, 1
  10              		.eabi_attribute 30, 4
  11              		.eabi_attribute 34, 1
  12              		.eabi_attribute 18, 4
  13              		.file	"chcond.c"
  14              		.text
  15              	.Ltext0:
  16              		.cfi_sections	.debug_frame
  17              		.section	.text.queue_prio_insert,"ax",%progbits
  18              		.align	1
  19              		.syntax unified
  20              		.thumb
  21              		.thumb_func
  22              		.fpu fpv4-sp-d16
  23              		.type	queue_prio_insert, %function
  24              	queue_prio_insert:
  25              	.LFB172:
  26              		.file 1 "../../modules/ChibiOS/os/rt/include/chschd.h"
  27              		.loc 1 586 0
  28              		.cfi_startproc
  29              		@ args = 0, pretend = 0, frame = 0
  30              		@ frame_needed = 0, uses_anonymous_args = 0
  31              	.LVL0:
  32 0000 10B5     		push	{r4, lr}
  33              		.cfi_def_cfa_offset 8
  34              		.cfi_offset 4, -8
  35              		.cfi_offset 14, -4
  36              		.loc 1 586 0
  37 0002 0B46     		mov	r3, r1
  38              	.LVL1:
  39              	.L3:
  40              		.loc 1 590 0 discriminator 2
  41 0004 1B68     		ldr	r3, [r3]
  42              	.LVL2:
  43              		.loc 1 591 0 discriminator 2
  44 0006 9942     		cmp	r1, r3
  45 0008 05D1     		bne	.L2
  46              	.L4:
  47              		.loc 1 593 0
  48 000a 5A68     		ldr	r2, [r3, #4]
  49              		.loc 1 592 0
  50 000c 0360     		str	r3, [r0]
  51              		.loc 1 593 0
  52 000e 4260     		str	r2, [r0, #4]
  53              		.loc 1 594 0
  54 0010 1060     		str	r0, [r2]
  55              		.loc 1 595 0
  56 0012 5860     		str	r0, [r3, #4]
  57              		.loc 1 596 0
ARM GAS  /tmp/ccIJOfrC.s 			page 2


  58 0014 10BD     		pop	{r4, pc}
  59              	.L2:
  60              		.loc 1 591 0 discriminator 1
  61 0016 9C68     		ldr	r4, [r3, #8]
  62 0018 8268     		ldr	r2, [r0, #8]
  63 001a 9442     		cmp	r4, r2
  64 001c F2D2     		bcs	.L3
  65 001e F4E7     		b	.L4
  66              		.cfi_endproc
  67              	.LFE172:
  68              		.size	queue_prio_insert, .-queue_prio_insert
  69              		.section	.text.chCondObjectInit,"ax",%progbits
  70              		.align	1
  71              		.global	chCondObjectInit
  72              		.syntax unified
  73              		.thumb
  74              		.thumb_func
  75              		.fpu fpv4-sp-d16
  76              		.type	chCondObjectInit, %function
  77              	chCondObjectInit:
  78              	.LFB290:
  79              		.file 2 "../../modules/ChibiOS/os/rt/src/chcond.c"
  80              		.loc 2 75 0
  81              		.cfi_startproc
  82              		@ args = 0, pretend = 0, frame = 0
  83              		@ frame_needed = 0, uses_anonymous_args = 0
  84              		@ link register save eliminated.
  85              	.LVL3:
  86              	.LBB79:
  87              	.LBB80:
  88              		.loc 1 539 0
  89 0000 0060     		str	r0, [r0]
  90              		.loc 1 540 0
  91 0002 4060     		str	r0, [r0, #4]
  92              	.LVL4:
  93 0004 7047     		bx	lr
  94              	.LBE80:
  95              	.LBE79:
  96              		.cfi_endproc
  97              	.LFE290:
  98              		.size	chCondObjectInit, .-chCondObjectInit
  99              		.section	.text.chCondSignal,"ax",%progbits
 100              		.align	1
 101              		.global	chCondSignal
 102              		.syntax unified
 103              		.thumb
 104              		.thumb_func
 105              		.fpu fpv4-sp-d16
 106              		.type	chCondSignal, %function
 107              	chCondSignal:
 108              	.LFB291:
 109              		.loc 2 89 0
 110              		.cfi_startproc
 111              		@ args = 0, pretend = 0, frame = 0
 112              		@ frame_needed = 0, uses_anonymous_args = 0
 113              	.LVL5:
 114 0000 08B5     		push	{r3, lr}
ARM GAS  /tmp/ccIJOfrC.s 			page 3


 115              		.cfi_def_cfa_offset 8
 116              		.cfi_offset 3, -8
 117              		.cfi_offset 14, -4
 118              	.LBB81:
 119              	.LBB82:
 120              	.LBB83:
 121              	.LBB84:
 122              		.file 3 "../../modules/ChibiOS/os/common/ext/ARM/CMSIS/Core/Include/cmsis_gcc.h"
 123              		.loc 3 493 0
 124 0002 2022     		movs	r2, #32
 125              	.LBE84:
 126              	.LBE83:
 127              	.LBE82:
 128              	.LBE81:
 129              		.loc 2 89 0
 130 0004 0346     		mov	r3, r0
 131              	.LBB88:
 132              	.LBB87:
 133              	.LBB86:
 134              	.LBB85:
 135              		.loc 3 493 0
 136              		.syntax unified
 137              	@ 493 "../../modules/ChibiOS/os/common/ext/ARM/CMSIS/Core/Include/cmsis_gcc.h" 1
 138 0006 82F31188 		MSR basepri, r2
 139              	@ 0 "" 2
 140              	.LVL6:
 141              		.thumb
 142              		.syntax unified
 143              	.LBE85:
 144              	.LBE86:
 145              	.LBE87:
 146              	.LBE88:
 147              	.LBB89:
 148              	.LBB90:
 149              		.loc 1 566 0
 150 000a 0068     		ldr	r0, [r0]
 151              	.LVL7:
 152              	.LBE90:
 153              	.LBE89:
 154              		.loc 2 94 0
 155 000c 8342     		cmp	r3, r0
 156 000e 05D0     		beq	.L9
 157              	.LVL8:
 158              	.LBB91:
 159              	.LBB92:
 160              		.loc 1 609 0
 161 0010 0268     		ldr	r2, [r0]
 162 0012 1A60     		str	r2, [r3]
 163              	.LBE92:
 164              	.LBE91:
 165              		.loc 2 95 0
 166 0014 0021     		movs	r1, #0
 167              	.LBB94:
 168              	.LBB93:
 169              		.loc 1 610 0
 170 0016 5360     		str	r3, [r2, #4]
 171              	.LVL9:
ARM GAS  /tmp/ccIJOfrC.s 			page 4


 172              	.LBE93:
 173              	.LBE94:
 174              		.loc 2 95 0
 175 0018 FFF7FEFF 		bl	chSchWakeupS
 176              	.LVL10:
 177              	.L9:
 178              	.LBB95:
 179              	.LBB96:
 180              	.LBB97:
 181              	.LBB98:
 182              	.LBB99:
 183              		.loc 3 493 0
 184 001c 0023     		movs	r3, #0
 185              		.syntax unified
 186              	@ 493 "../../modules/ChibiOS/os/common/ext/ARM/CMSIS/Core/Include/cmsis_gcc.h" 1
 187 001e 83F31188 		MSR basepri, r3
 188              	@ 0 "" 2
 189              	.LVL11:
 190              		.thumb
 191              		.syntax unified
 192 0022 08BD     		pop	{r3, pc}
 193              	.LBE99:
 194              	.LBE98:
 195              	.LBE97:
 196              	.LBE96:
 197              	.LBE95:
 198              		.cfi_endproc
 199              	.LFE291:
 200              		.size	chCondSignal, .-chCondSignal
 201              		.section	.text.chCondSignalI,"ax",%progbits
 202              		.align	1
 203              		.global	chCondSignalI
 204              		.syntax unified
 205              		.thumb
 206              		.thumb_func
 207              		.fpu fpv4-sp-d16
 208              		.type	chCondSignalI, %function
 209              	chCondSignalI:
 210              	.LFB292:
 211              		.loc 2 111 0
 212              		.cfi_startproc
 213              		@ args = 0, pretend = 0, frame = 0
 214              		@ frame_needed = 0, uses_anonymous_args = 0
 215              		@ link register save eliminated.
 216              	.LVL12:
 217              	.LBB100:
 218              	.LBB101:
 219              		.loc 1 566 0
 220 0000 0368     		ldr	r3, [r0]
 221              	.LVL13:
 222              	.LBE101:
 223              	.LBE100:
 224              		.loc 2 116 0
 225 0002 9842     		cmp	r0, r3
 226 0004 07D0     		beq	.L10
 227              	.LVL14:
 228              	.LBB102:
ARM GAS  /tmp/ccIJOfrC.s 			page 5


 229              	.LBB103:
 230              	.LBB104:
 231              		.loc 1 609 0
 232 0006 1A68     		ldr	r2, [r3]
 233 0008 0260     		str	r2, [r0]
 234              		.loc 1 610 0
 235 000a 5060     		str	r0, [r2, #4]
 236              	.LVL15:
 237              	.LBE104:
 238              	.LBE103:
 239              		.loc 2 118 0
 240 000c 0022     		movs	r2, #0
 241 000e 5A62     		str	r2, [r3, #36]
 242              		.loc 2 119 0
 243 0010 1846     		mov	r0, r3
 244              	.LVL16:
 245 0012 FFF7FEBF 		b	chSchReadyI
 246              	.LVL17:
 247              	.L10:
 248 0016 7047     		bx	lr
 249              	.LBE102:
 250              		.cfi_endproc
 251              	.LFE292:
 252              		.size	chCondSignalI, .-chCondSignalI
 253              		.section	.text.chCondBroadcastI,"ax",%progbits
 254              		.align	1
 255              		.global	chCondBroadcastI
 256              		.syntax unified
 257              		.thumb
 258              		.thumb_func
 259              		.fpu fpv4-sp-d16
 260              		.type	chCondBroadcastI, %function
 261              	chCondBroadcastI:
 262              	.LFB294:
 263              		.loc 2 149 0
 264              		.cfi_startproc
 265              		@ args = 0, pretend = 0, frame = 0
 266              		@ frame_needed = 0, uses_anonymous_args = 0
 267              	.LVL18:
 268 0000 38B5     		push	{r3, r4, r5, lr}
 269              		.cfi_def_cfa_offset 16
 270              		.cfi_offset 3, -16
 271              		.cfi_offset 4, -12
 272              		.cfi_offset 5, -8
 273              		.cfi_offset 14, -4
 274              		.loc 2 149 0
 275 0002 0446     		mov	r4, r0
 276              		.loc 2 158 0
 277 0004 6FF00105 		mvn	r5, #1
 278              	.LVL19:
 279              	.L13:
 280              	.LBB105:
 281              	.LBB106:
 282              		.loc 1 566 0
 283 0008 2068     		ldr	r0, [r4]
 284              	.LVL20:
 285              	.LBE106:
ARM GAS  /tmp/ccIJOfrC.s 			page 6


 286              	.LBE105:
 287              		.loc 2 157 0
 288 000a 8442     		cmp	r4, r0
 289 000c 00D1     		bne	.L14
 290              		.loc 2 160 0
 291 000e 38BD     		pop	{r3, r4, r5, pc}
 292              	.LVL21:
 293              	.L14:
 294              	.LBB107:
 295              	.LBB108:
 296              		.loc 1 609 0
 297 0010 0368     		ldr	r3, [r0]
 298 0012 2360     		str	r3, [r4]
 299              		.loc 1 610 0
 300 0014 5C60     		str	r4, [r3, #4]
 301              	.LVL22:
 302              	.LBE108:
 303              	.LBE107:
 304              		.loc 2 158 0
 305 0016 FFF7FEFF 		bl	chSchReadyI
 306              	.LVL23:
 307 001a 4562     		str	r5, [r0, #36]
 308 001c F4E7     		b	.L13
 309              		.cfi_endproc
 310              	.LFE294:
 311              		.size	chCondBroadcastI, .-chCondBroadcastI
 312              		.section	.text.chCondBroadcast,"ax",%progbits
 313              		.align	1
 314              		.global	chCondBroadcast
 315              		.syntax unified
 316              		.thumb
 317              		.thumb_func
 318              		.fpu fpv4-sp-d16
 319              		.type	chCondBroadcast, %function
 320              	chCondBroadcast:
 321              	.LFB293:
 322              		.loc 2 130 0
 323              		.cfi_startproc
 324              		@ args = 0, pretend = 0, frame = 0
 325              		@ frame_needed = 0, uses_anonymous_args = 0
 326              	.LVL24:
 327 0000 08B5     		push	{r3, lr}
 328              		.cfi_def_cfa_offset 8
 329              		.cfi_offset 3, -8
 330              		.cfi_offset 14, -4
 331              	.LBB109:
 332              	.LBB110:
 333              	.LBB111:
 334              	.LBB112:
 335              		.loc 3 493 0
 336 0002 2023     		movs	r3, #32
 337              		.syntax unified
 338              	@ 493 "../../modules/ChibiOS/os/common/ext/ARM/CMSIS/Core/Include/cmsis_gcc.h" 1
 339 0004 83F31188 		MSR basepri, r3
 340              	@ 0 "" 2
 341              	.LVL25:
 342              		.thumb
ARM GAS  /tmp/ccIJOfrC.s 			page 7


 343              		.syntax unified
 344              	.LBE112:
 345              	.LBE111:
 346              	.LBE110:
 347              	.LBE109:
 348              		.loc 2 133 0
 349 0008 FFF7FEFF 		bl	chCondBroadcastI
 350              	.LVL26:
 351              		.loc 2 134 0
 352 000c FFF7FEFF 		bl	chSchRescheduleS
 353              	.LVL27:
 354              	.LBB113:
 355              	.LBB114:
 356              	.LBB115:
 357              	.LBB116:
 358              	.LBB117:
 359              		.loc 3 493 0
 360 0010 0023     		movs	r3, #0
 361              		.syntax unified
 362              	@ 493 "../../modules/ChibiOS/os/common/ext/ARM/CMSIS/Core/Include/cmsis_gcc.h" 1
 363 0012 83F31188 		MSR basepri, r3
 364              	@ 0 "" 2
 365              	.LVL28:
 366              		.thumb
 367              		.syntax unified
 368 0016 08BD     		pop	{r3, pc}
 369              	.LBE117:
 370              	.LBE116:
 371              	.LBE115:
 372              	.LBE114:
 373              	.LBE113:
 374              		.cfi_endproc
 375              	.LFE293:
 376              		.size	chCondBroadcast, .-chCondBroadcast
 377              		.section	.text.chCondWaitS,"ax",%progbits
 378              		.align	1
 379              		.global	chCondWaitS
 380              		.syntax unified
 381              		.thumb
 382              		.thumb_func
 383              		.fpu fpv4-sp-d16
 384              		.type	chCondWaitS, %function
 385              	chCondWaitS:
 386              	.LFB296:
 387              		.loc 2 205 0
 388              		.cfi_startproc
 389              		@ args = 0, pretend = 0, frame = 0
 390              		@ frame_needed = 0, uses_anonymous_args = 0
 391              	.LVL29:
 392              		.loc 2 206 0
 393 0000 0A4B     		ldr	r3, .L17
 394              		.loc 2 205 0
 395 0002 70B5     		push	{r4, r5, r6, lr}
 396              		.cfi_def_cfa_offset 16
 397              		.cfi_offset 4, -16
 398              		.cfi_offset 5, -12
 399              		.cfi_offset 6, -8
ARM GAS  /tmp/ccIJOfrC.s 			page 8


 400              		.cfi_offset 14, -4
 401              		.loc 2 206 0
 402 0004 9C69     		ldr	r4, [r3, #24]
 403              	.LVL30:
 404              	.LBB118:
 405              	.LBB119:
 406              		.file 4 "../../modules/ChibiOS/os/rt/include/chmtx.h"
 407              		.loc 4 161 0
 408 0006 A56B     		ldr	r5, [r4, #56]
 409              	.LBE119:
 410              	.LBE118:
 411              		.loc 2 205 0
 412 0008 0646     		mov	r6, r0
 413              		.loc 2 215 0
 414 000a 2846     		mov	r0, r5
 415              	.LVL31:
 416 000c FFF7FEFF 		bl	chMtxUnlockS
 417              	.LVL32:
 418              		.loc 2 220 0
 419 0010 3146     		mov	r1, r6
 420              		.loc 2 219 0
 421 0012 6662     		str	r6, [r4, #36]
 422              		.loc 2 220 0
 423 0014 2046     		mov	r0, r4
 424 0016 FFF7FEFF 		bl	queue_prio_insert
 425              	.LVL33:
 426              		.loc 2 221 0
 427 001a 0720     		movs	r0, #7
 428 001c FFF7FEFF 		bl	chSchGoSleepS
 429              	.LVL34:
 430              		.loc 2 222 0
 431 0020 646A     		ldr	r4, [r4, #36]
 432              	.LVL35:
 433              		.loc 2 223 0
 434 0022 2846     		mov	r0, r5
 435 0024 FFF7FEFF 		bl	chMtxLockS
 436              	.LVL36:
 437              		.loc 2 226 0
 438 0028 2046     		mov	r0, r4
 439 002a 70BD     		pop	{r4, r5, r6, pc}
 440              	.LVL37:
 441              	.L18:
 442              		.align	2
 443              	.L17:
 444 002c 00000000 		.word	ch
 445              		.cfi_endproc
 446              	.LFE296:
 447              		.size	chCondWaitS, .-chCondWaitS
 448              		.section	.text.chCondWait,"ax",%progbits
 449              		.align	1
 450              		.global	chCondWait
 451              		.syntax unified
 452              		.thumb
 453              		.thumb_func
 454              		.fpu fpv4-sp-d16
 455              		.type	chCondWait, %function
 456              	chCondWait:
ARM GAS  /tmp/ccIJOfrC.s 			page 9


 457              	.LFB295:
 458              		.loc 2 179 0
 459              		.cfi_startproc
 460              		@ args = 0, pretend = 0, frame = 0
 461              		@ frame_needed = 0, uses_anonymous_args = 0
 462              	.LVL38:
 463 0000 08B5     		push	{r3, lr}
 464              		.cfi_def_cfa_offset 8
 465              		.cfi_offset 3, -8
 466              		.cfi_offset 14, -4
 467              	.LBB120:
 468              	.LBB121:
 469              	.LBB122:
 470              	.LBB123:
 471              		.loc 3 493 0
 472 0002 2023     		movs	r3, #32
 473              		.syntax unified
 474              	@ 493 "../../modules/ChibiOS/os/common/ext/ARM/CMSIS/Core/Include/cmsis_gcc.h" 1
 475 0004 83F31188 		MSR basepri, r3
 476              	@ 0 "" 2
 477              	.LVL39:
 478              		.thumb
 479              		.syntax unified
 480              	.LBE123:
 481              	.LBE122:
 482              	.LBE121:
 483              	.LBE120:
 484              		.loc 2 183 0
 485 0008 FFF7FEFF 		bl	chCondWaitS
 486              	.LVL40:
 487              	.LBB124:
 488              	.LBB125:
 489              	.LBB126:
 490              	.LBB127:
 491              	.LBB128:
 492              		.loc 3 493 0
 493 000c 0023     		movs	r3, #0
 494              		.syntax unified
 495              	@ 493 "../../modules/ChibiOS/os/common/ext/ARM/CMSIS/Core/Include/cmsis_gcc.h" 1
 496 000e 83F31188 		MSR basepri, r3
 497              	@ 0 "" 2
 498              	.LVL41:
 499              		.thumb
 500              		.syntax unified
 501              	.LBE128:
 502              	.LBE127:
 503              	.LBE126:
 504              	.LBE125:
 505              	.LBE124:
 506              		.loc 2 186 0
 507 0012 08BD     		pop	{r3, pc}
 508              		.cfi_endproc
 509              	.LFE295:
 510              		.size	chCondWait, .-chCondWait
 511              		.section	.text.chCondWaitTimeoutS,"ax",%progbits
 512              		.align	1
 513              		.global	chCondWaitTimeoutS
ARM GAS  /tmp/ccIJOfrC.s 			page 10


 514              		.syntax unified
 515              		.thumb
 516              		.thumb_func
 517              		.fpu fpv4-sp-d16
 518              		.type	chCondWaitTimeoutS, %function
 519              	chCondWaitTimeoutS:
 520              	.LFB298:
 521              		.loc 2 295 0
 522              		.cfi_startproc
 523              		@ args = 0, pretend = 0, frame = 0
 524              		@ frame_needed = 0, uses_anonymous_args = 0
 525              	.LVL42:
 526 0000 F8B5     		push	{r3, r4, r5, r6, r7, lr}
 527              		.cfi_def_cfa_offset 24
 528              		.cfi_offset 3, -24
 529              		.cfi_offset 4, -20
 530              		.cfi_offset 5, -16
 531              		.cfi_offset 6, -12
 532              		.cfi_offset 7, -8
 533              		.cfi_offset 14, -4
 534              	.LBB129:
 535              	.LBB130:
 536              	.LBB131:
 537              	.LBB132:
 538              		.file 5 "../../modules/ChibiOS/os/rt/include/chthreads.h"
 539              		.loc 5 274 0
 540 0002 0C4E     		ldr	r6, .L25
 541              	.LBE132:
 542              	.LBE131:
 543              		.loc 4 161 0
 544 0004 B369     		ldr	r3, [r6, #24]
 545 0006 9D6B     		ldr	r5, [r3, #56]
 546              	.LBE130:
 547              	.LBE129:
 548              		.loc 2 295 0
 549 0008 0446     		mov	r4, r0
 550              		.loc 2 304 0
 551 000a 2846     		mov	r0, r5
 552              	.LVL43:
 553              		.loc 2 295 0
 554 000c 0F46     		mov	r7, r1
 555              		.loc 2 304 0
 556 000e FFF7FEFF 		bl	chMtxUnlockS
 557              	.LVL44:
 558              		.loc 2 308 0
 559 0012 B069     		ldr	r0, [r6, #24]
 560              		.loc 2 309 0
 561 0014 2146     		mov	r1, r4
 562              		.loc 2 308 0
 563 0016 4462     		str	r4, [r0, #36]
 564              		.loc 2 309 0
 565 0018 FFF7FEFF 		bl	queue_prio_insert
 566              	.LVL45:
 567              		.loc 2 310 0
 568 001c 3946     		mov	r1, r7
 569 001e 0720     		movs	r0, #7
 570 0020 FFF7FEFF 		bl	chSchGoSleepTimeoutS
ARM GAS  /tmp/ccIJOfrC.s 			page 11


 571              	.LVL46:
 572              		.loc 2 311 0
 573 0024 431C     		adds	r3, r0, #1
 574              		.loc 2 310 0
 575 0026 0446     		mov	r4, r0
 576              	.LVL47:
 577              		.loc 2 311 0
 578 0028 02D0     		beq	.L20
 579              		.loc 2 312 0
 580 002a 2846     		mov	r0, r5
 581              	.LVL48:
 582 002c FFF7FEFF 		bl	chMtxLockS
 583              	.LVL49:
 584              	.L20:
 585              		.loc 2 316 0
 586 0030 2046     		mov	r0, r4
 587 0032 F8BD     		pop	{r3, r4, r5, r6, r7, pc}
 588              	.LVL50:
 589              	.L26:
 590              		.align	2
 591              	.L25:
 592 0034 00000000 		.word	ch
 593              		.cfi_endproc
 594              	.LFE298:
 595              		.size	chCondWaitTimeoutS, .-chCondWaitTimeoutS
 596              		.section	.text.chCondWaitTimeout,"ax",%progbits
 597              		.align	1
 598              		.global	chCondWaitTimeout
 599              		.syntax unified
 600              		.thumb
 601              		.thumb_func
 602              		.fpu fpv4-sp-d16
 603              		.type	chCondWaitTimeout, %function
 604              	chCondWaitTimeout:
 605              	.LFB297:
 606              		.loc 2 257 0
 607              		.cfi_startproc
 608              		@ args = 0, pretend = 0, frame = 0
 609              		@ frame_needed = 0, uses_anonymous_args = 0
 610              	.LVL51:
 611 0000 08B5     		push	{r3, lr}
 612              		.cfi_def_cfa_offset 8
 613              		.cfi_offset 3, -8
 614              		.cfi_offset 14, -4
 615              	.LBB133:
 616              	.LBB134:
 617              	.LBB135:
 618              	.LBB136:
 619              		.loc 3 493 0
 620 0002 2023     		movs	r3, #32
 621              		.syntax unified
 622              	@ 493 "../../modules/ChibiOS/os/common/ext/ARM/CMSIS/Core/Include/cmsis_gcc.h" 1
 623 0004 83F31188 		MSR basepri, r3
 624              	@ 0 "" 2
 625              	.LVL52:
 626              		.thumb
 627              		.syntax unified
ARM GAS  /tmp/ccIJOfrC.s 			page 12


 628              	.LBE136:
 629              	.LBE135:
 630              	.LBE134:
 631              	.LBE133:
 632              		.loc 2 261 0
 633 0008 FFF7FEFF 		bl	chCondWaitTimeoutS
 634              	.LVL53:
 635              	.LBB137:
 636              	.LBB138:
 637              	.LBB139:
 638              	.LBB140:
 639              	.LBB141:
 640              		.loc 3 493 0
 641 000c 0023     		movs	r3, #0
 642              		.syntax unified
 643              	@ 493 "../../modules/ChibiOS/os/common/ext/ARM/CMSIS/Core/Include/cmsis_gcc.h" 1
 644 000e 83F31188 		MSR basepri, r3
 645              	@ 0 "" 2
 646              	.LVL54:
 647              		.thumb
 648              		.syntax unified
 649              	.LBE141:
 650              	.LBE140:
 651              	.LBE139:
 652              	.LBE138:
 653              	.LBE137:
 654              		.loc 2 265 0
 655 0012 08BD     		pop	{r3, pc}
 656              		.cfi_endproc
 657              	.LFE297:
 658              		.size	chCondWaitTimeout, .-chCondWaitTimeout
 659              		.text
 660              	.Letext0:
 661              		.file 6 "/opt/gcc-arm-none-eabi-6-2017-q2-update/lib/gcc/arm-none-eabi/6.3.1/include/stddef.h"
 662              		.file 7 "/opt/gcc-arm-none-eabi-6-2017-q2-update/arm-none-eabi/include/machine/_default_types.h"
 663              		.file 8 "/opt/gcc-arm-none-eabi-6-2017-q2-update/arm-none-eabi/include/sys/_stdint.h"
 664              		.file 9 "../../modules/ChibiOS/os/common/ports/ARMCMx/compilers/GCC/chtypes.h"
 665              		.file 10 "../../modules/ChibiOS/os/rt/include/chsystypes.h"
 666              		.file 11 "../../modules/ChibiOS/os/rt/include/chtime.h"
 667              		.file 12 "../../modules/ChibiOS/os/common/ext/ARM/CMSIS/Core/Include/core_cm4.h"
 668              		.file 13 "../../modules/ChibiOS/os/common/ext/ST/STM32F4xx/system_stm32f4xx.h"
 669              		.file 14 "../../modules/ChibiOS/os/common/ports/ARMCMx/chcore.h"
 670              		.file 15 "../../modules/ChibiOS/os/common/ports/ARMCMx/chcore_v7m.h"
 671              		.file 16 "../../modules/ChibiOS/os/rt/include/chtm.h"
 672              		.file 17 "../../modules/ChibiOS/os/rt/include/chsem.h"
 673              		.file 18 "../../modules/ChibiOS/os/rt/include/chsys.h"
 674              		.file 19 "../../modules/ChibiOS/os/rt/include/chregistry.h"
 675              		.file 20 "../../modules/ChibiOS/os/rt/include/chcond.h"
 676              		.file 21 "../../modules/ChibiOS/os/oslib/include/chmemcore.h"
 677              		.file 22 "../../modules/ChibiOS/os/oslib/include/chmempools.h"
 678              		.file 23 "../../modules/ChibiOS/os/oslib/include/chfactory.h"