ARM GAS  /tmp/ccIJOfrC.s 			page 1


   1              		.cpu cortex-m4
   2              		.eabi_attribute 27, 1
   3              		.eabi_attribute 28, 1
   4              		.eabi_attribute 20, 1
   5              		.eabi_attribute 21, 1
   6              		.eabi_attribute 23, 3
   7              		.eabi_attribute 24, 1
   8              		.eabi_attribute 25, 1
   9              		.eabi_attribute 26, 1
  10              		.eabi_attribute 30, 4
  11              		.eabi_attribute 34, 1
  12              		.eabi_attribute 18, 4
  13              		.file	"chcond.c"
  14              		.text
  15              	.Ltext0:
  16              		.cfi_sections	.debug_frame
  17              		.section	.text.queue_prio_insert,"ax",%progbits
  18              		.align	1
  19              		.syntax unified
  20              		.thumb
  21              		.thumb_func
  22              		.fpu fpv4-sp-d16
  23              		.type	queue_prio_insert, %function
  24              	queue_prio_insert:
  25              	.LFB172:
  26              		.file 1 "../../modules/ChibiOS/os/rt/include/chschd.h"
  27              		.loc 1 586 0
  28              		.cfi_startproc
  29              		@ args = 0, pretend = 0, frame = 0
  30              		@ frame_needed = 0, uses_anonymous_args = 0
  31              	.LVL0:
  32 0000 10B5     		push	{r4, lr}
  33              		.cfi_def_cfa_offset 8
  34              		.cfi_offset 4, -8
  35              		.cfi_offset 14, -4
  36              		.loc 1 586 0
  37 0002 0B46     		mov	r3, r1
  38              	.LVL1:
  39              	.L3:
  40              		.loc 1 590 0 discriminator 2
  41 0004 1B68     		ldr	r3, [r3]
  42              	.LVL2:
  43              		.loc 1 591 0 discriminator 2
  44 0006 9942     		cmp	r1, r3
  45 0008 05D1     		bne	.L2
  46              	.L4:
  47              		.loc 1 593 0
  48 000a 5A68     		ldr	r2, [r3, #4]
  49              		.loc 1 592 0
  50 000c 0360     		str	r3, [r0]
  51              		.loc 1 593 0
  52 000e 4260     		str	r2, [r0, #4]
  53              		.loc 1 594 0
  54 0010 1060     		str	r0, [r2]
  55              		.loc 1 595 0
  56 0012 5860     		str	r0, [r3, #4]
  57              		.loc 1 596 0
ARM GAS  /tmp/ccIJOfrC.s 			page 2


  58 0014 10BD     		pop	{r4, pc}
  59              	.L2:
  60              		.loc 1 591 0 discriminator 1
  61 0016 9C68     		ldr	r4, [r3, #8]
  62 0018 8268     		ldr	r2, [r0, #8]
  63 001a 9442     		cmp	r4, r2
  64 001c F2D2     		bcs	.L3
  65 001e F4E7     		b	.L4
  66              		.cfi_endproc
  67              	.LFE172:
  68              		.size	queue_prio_insert, .-queue_prio_insert
  69              		.section	.text.chCondObjectInit,"ax",%progbits
  70              		.align	1
  71              		.global	chCondObjectInit
  72              		.syntax unified
  73              		.thumb
  74              		.thumb_func
  75              		.fpu fpv4-sp-d16
  76              		.type	chCondObjectInit, %function
  77              	chCondObjectInit:
  78              	.LFB290:
  79              		.file 2 "../../modules/ChibiOS/os/rt/src/chcond.c"
  80              		.loc 2 75 0
  81              		.cfi_startproc
  82              		@ args = 0, pretend = 0, frame = 0
  83              		@ frame_needed = 0, uses_anonymous_args = 0
  84              		@ link register save eliminated.
  85              	.LVL3:
  86              	.LBB79:
  87              	.LBB80:
  88              		.loc 1 539 0
  89 0000 0060     		str	r0, [r0]
  90              		.loc 1 540 0
  91 0002 4060     		str	r0, [r0, #4]
  92              	.LVL4:
  93 0004 7047     		bx	lr
  94              	.LBE80:
  95              	.LBE79:
  96              		.cfi_endproc
  97              	.LFE290:
  98              		.size	chCondObjectInit, .-chCondObjectInit
  99              		.section	.text.chCondSignal,"ax",%progbits
 100              		.align	1
 101              		.global	chCondSignal
 102              		.syntax unified
 103              		.thumb
 104              		.thumb_func
 105              		.fpu fpv4-sp-d16
 106              		.type	chCondSignal, %function
 107              	chCondSignal:
 108              	.LFB291:
 109              		.loc 2 89 0
 110              		.cfi_startproc
 111              		@ args = 0, pretend = 0, frame = 0
 112              		@ frame_needed = 0, uses_anonymous_args = 0
 113              	.LVL5:
 114 0000 08B5     		push	{r3, lr}
ARM GAS  /tmp/ccIJOfrC.s 			page 3


 115              		.cfi_def_cfa_offset 8
 116              		.cfi_offset 3, -8
 117              		.cfi_offset 14, -4
 118              	.LBB81:
 119              	.LBB82:
 120              	.LBB83:
 121              	.LBB84:
 122              		.file 3 "../../modules/ChibiOS/os/common/ext/ARM/CMSIS/Core/Include/cmsis_gcc.h"
 123              		.loc 3 493 0
 124 0002 2022     		movs	r2, #32
 125              	.LBE84:
 126              	.LBE83:
 127              	.LBE82:
 128              	.LBE81:
 129              		.loc 2 89 0
 130 0004 0346     		mov	r3, r0
 131              	.LBB88:
 132              	.LBB87:
 133              	.LBB86:
 134              	.LBB85:
 135              		.loc 3 493 0
 136              		.syntax unified
 137              	@ 493 "../../modules/ChibiOS/os/common/ext/ARM/CMSIS/Core/Include/cmsis_gcc.h" 1
 138 0006 82F31188 		MSR basepri, r2
 139              	@ 0 "" 2
 140              	.LVL6:
 141              		.thumb
 142              		.syntax unified
 143              	.LBE85:
 144              	.LBE86:
 145              	.LBE87:
 146              	.LBE88:
 147              	.LBB89:
 148              	.LBB90:
 149              		.loc 1 566 0
 150 000a 0068     		ldr	r0, [r0]
 151              	.LVL7:
 152              	.LBE90:
 153              	.LBE89:
 154              		.loc 2 94 0
 155 000c 8342     		cmp	r3, r0
 156 000e 05D0     		beq	.L9
 157              	.LVL8:
 158              	.LBB91:
 159              	.LBB92:
 160              		.loc 1 609 0
 161 0010 0268     		ldr	r2, [r0]
 162 0012 1A60     		str	r2, [r3]
 163              	.LBE92:
 164              	.LBE91:
 165              		.loc 2 95 0
 166 0014 0021     		movs	r1, #0
 167              	.LBB94:
 168              	.LBB93:
 169              		.loc 1 610 0
 170 0016 5360     		str	r3, [r2, #4]
 171              	.LVL9:
ARM GAS  /tmp/ccIJOfrC.s 			page 4


 172              	.LBE93:
 173              	.LBE94:
 174              		.loc 2 95 0
 175 0018 FFF7FEFF 		bl	chSchWakeupS
 176              	.LVL10:
 177              	.L9:
 178              	.LBB95:
 179              	.LBB96:
 180              	.LBB97:
 181              	.LBB98:
 182              	.LBB99:
 183              		.loc 3 493 0
 184 001c 0023     		movs	r3, #0
 185              		.syntax unified
 186              	@ 493 "../../modules/ChibiOS/os/common/ext/ARM/CMSIS/Core/Include/cmsis_gcc.h" 1
 187 001e 83F31188 		MSR basepri, r3
 188              	@ 0 "" 2
 189              	.LVL11:
 190              		.thumb
 191              		.syntax unified
 192 0022 08BD     		pop	{r3, pc}
 193              	.LBE99:
 194              	.LBE98:
 195              	.LBE97:
 196              	.LBE96:
 197              	.LBE95:
 198              		.cfi_endproc
 199              	.LFE291:
 200              		.size	chCondSignal, .-chCondSignal
 201              		.section	.text.chCondSignalI,"ax",%progbits
 202              		.align	1
 203              		.global	chCondSignalI
 204              		.syntax unified
 205              		.thumb
 206              		.thumb_func
 207              		.fpu fpv4-sp-d16
 208              		.type	chCondSignalI, %function
 209              	chCondSignalI:
 210              	.LFB292:
 211              		.loc 2 111 0
 212              		.cfi_startproc
 213              		@ args = 0, pretend = 0, frame = 0
 214              		@ frame_needed = 0, uses_anonymous_args = 0
 215              		@ link register save eliminated.
 216              	.LVL12:
 217              	.LBB100:
 218              	.LBB101:
 219              		.loc 1 566 0
 220 0000 0368     		ldr	r3, [r0]
 221              	.LVL13:
 222              	.LBE101:
 223              	.LBE100:
 224              		.loc 2 116 0
 225 0002 9842     		cmp	r0, r3
 226 0004 07D0     		beq	.L10
 227              	.LVL14:
 228              	.LBB102:
ARM GAS  /tmp/ccIJOfrC.s 			page 5


 229              	.LBB103:
 230              	.LBB104:
 231              		.loc 1 609 0
 232 0006 1A68     		ldr	r2, [r3]
 233 0008 0260     		str	r2, [r0]
 234              		.loc 1 610 0
 235 000a 5060     		str	r0, [r2, #4]
 236              	.LVL15:
 237              	.LBE104:
 238              	.LBE103:
 239              		.loc 2 118 0
 240 000c 0022     		movs	r2, #0
 241 000e 5A62     		str	r2, [r3, #36]
 242              		.loc 2 119 0
 243 0010 1846     		mov	r0, r3
 244              	.LVL16:
 245 0012 FFF7FEBF 		b	chSchReadyI
 246              	.LVL17:
 247              	.L10:
 248 0016 7047     		bx	lr
 249              	.LBE102:
 250              		.cfi_endproc
 251              	.LFE292:
 252              		.size	chCondSignalI, .-chCondSignalI
 253              		.section	.text.chCondBroadcastI,"ax",%progbits
 254              		.align	1
 255              		.global	chCondBroadcastI
 256              		.syntax unified
 257              		.thumb
 258              		.thumb_func
 259              		.fpu fpv4-sp-d16
 260              		.type	chCondBroadcastI, %function
 261              	chCondBroadcastI:
 262              	.LFB294:
 263              		.loc 2 149 0
 264              		.cfi_startproc
 265              		@ args = 0, pretend = 0, frame = 0
 266              		@ frame_needed = 0, uses_anonymous_args = 0
 267              	.LVL18:
 268 0000 38B5     		push	{r3, r4, r5, lr}
 269              		.cfi_def_cfa_offset 16
 270              		.cfi_offset 3, -16
 271              		.cfi_offset 4, -12
 272              		.cfi_offset 5, -8
 273              		.cfi_offset 14, -4
 274              		.loc 2 149 0
 275 0002 0446     		mov	r4, r0
 276              		.loc 2 158 0
 277 0004 6FF00105 		mvn	r5, #1
 278              	.LVL19:
 279              	.L13:
 280              	.LBB105:
 281              	.LBB106:
 282              		.loc 1 566 0
 283 0008 2068     		ldr	r0, [r4]
 284              	.LVL20:
 285              	.LBE106:
ARM GAS  /tmp/ccIJOfrC.s 			page 6


 286              	.LBE105:
 287              		.loc 2 157 0
 288 000a 8442     		cmp	r4, r0
 289 000c 00D1     		bne	.L14
 290              		.loc 2 160 0
 291 000e 38BD     		pop	{r3, r4, r5, pc}
 292              	.LVL21:
 293              	.L14:
 294              	.LBB107:
 295              	.LBB108:
 296              		.loc 1 609 0
 297 0010 0368     		ldr	r3, [r0]
 298 0012 2360     		str	r3, [r4]
 299              		.loc 1 610 0
 300 0014 5C60     		str	r4, [r3, #4]
 301              	.LVL22:
 302              	.LBE108:
 303              	.LBE107:
 304              		.loc 2 158 0
 305 0016 FFF7FEFF 		bl	chSchReadyI
 306              	.LVL23:
 307 001a 4562     		str	r5, [r0, #36]
 308 001c F4E7     		b	.L13
 309              		.cfi_endproc
 310              	.LFE294:
 311              		.size	chCondBroadcastI, .-chCondBroadcastI
 312              		.section	.text.chCondBroadcast,"ax",%progbits
 313              		.align	1
 314              		.global	chCondBroadcast
 315              		.syntax unified
 316              		.thumb
 317              		.thumb_func
 318              		.fpu fpv4-sp-d16
 319              		.type	chCondBroadcast, %function
 320              	chCondBroadcast:
 321              	.LFB293:
 322              		.loc 2 130 0
 323              		.cfi_startproc
 324              		@ args = 0, pretend = 0, frame = 0
 325              		@ frame_needed = 0, uses_anonymous_args = 0
 326              	.LVL24:
 327 0000 08B5     		push	{r3, lr}
 328              		.cfi_def_cfa_offset 8
 329              		.cfi_offset 3, -8
 330              		.cfi_offset 14, -4
 331              	.LBB109:
 332              	.LBB110:
 333              	.LBB111:
 334              	.LBB112:
 335              		.loc 3 493 0
 336 0002 2023     		movs	r3, #32
 337              		.syntax unified
 338              	@ 493 "../../modules/ChibiOS/os/common/ext/ARM/CMSIS/Core/Include/cmsis_gcc.h" 1
 339 0004 83F31188 		MSR basepri, r3
 340              	@ 0 "" 2
 341              	.LVL25:
 342              		.thumb
ARM GAS  /tmp/ccIJOfrC.s 			page 7


 343              		.syntax unified
 344              	.LBE112:
 345              	.LBE111:
 346              	.LBE110:
 347              	.LBE109:
 348              		.loc 2 133 0
 349 0008 FFF7FEFF 		bl	chCondBroadcastI
 350              	.LVL26:
 351              		.loc 2 134 0
 352 000c FFF7FEFF 		bl	chSchRescheduleS
 353              	.LVL27:
 354              	.LBB113:
 355              	.LBB114:
 356              	.LBB115:
 357              	.LBB116:
 358              	.LBB117:
 359              		.loc 3 493 0
 360 0010 0023     		movs	r3, #0
 361              		.syntax unified
 362              	@ 493 "../../modules/ChibiOS/os/common/ext/ARM/CMSIS/Core/Include/cmsis_gcc.h" 1
 363 0012 83F31188 		MSR basepri, r3
 364              	@ 0 "" 2
 365              	.LVL28:
 366              		.thumb
 367              		.syntax unified
 368 0016 08BD     		pop	{r3, pc}
 369              	.LBE117:
 370              	.LBE116:
 371              	.LBE115:
 372              	.LBE114:
 373              	.LBE113:
 374              		.cfi_endproc
 375              	.LFE293:
 376              		.size	chCondBroadcast, .-chCondBroadcast
 377              		.section	.text.chCondWaitS,"ax",%progbits
 378              		.align	1
 379              		.global	chCondWaitS
 380              		.syntax unified
 381              		.thumb
 382              		.thumb_func
 383              		.fpu fpv4-sp-d16
 384              		.type	chCondWaitS, %function
 385              	chCondWaitS:
 386              	.LFB296:
 387              		.loc 2 205 0
 388              		.cfi_startproc
 389              		@ args = 0, pretend = 0, frame = 0
 390              		@ frame_needed = 0, uses_anonymous_args = 0
 391              	.LVL29:
 392              		.loc 2 206 0
 393 0000 0A4B     		ldr	r3, .L17
 394              		.loc 2 205 0
 395 0002 70B5     		push	{r4, r5, r6, lr}
 396              		.cfi_def_cfa_offset 16
 397              		.cfi_offset 4, -16
 398              		.cfi_offset 5, -12
 399              		.cfi_offset 6, -8
ARM GAS  /tmp/ccIJOfrC.s 			page 8


 400              		.cfi_offset 14, -4
 401              		.loc 2 206 0
 402 0004 9C69     		ldr	r4, [r3, #24]
 403              	.LVL30:
 404              	.LBB118:
 405              	.LBB119:
 406              		.file 4 "../../modules/ChibiOS/os/rt/include/chmtx.h"
 407              		.loc 4 161 0
 408 0006 A56B     		ldr	r5, [r4, #56]
 409              	.LBE119:
 410              	.LBE118:
 411              		.loc 2 205 0
 412 0008 0646     		mov	r6, r0
 413              		.loc 2 215 0
 414 000a 2846     		mov	r0, r5
 415              	.LVL31:
 416 000c FFF7FEFF 		bl	chMtxUnlockS
 417              	.LVL32:
 418              		.loc 2 220 0
 419 0010 3146     		mov	r1, r6
 420              		.loc 2 219 0
 421 0012 6662     		str	r6, [r4, #36]
 422              		.loc 2 220 0
 423 0014 2046     		mov	r0, r4
 424 0016 FFF7FEFF 		bl	queue_prio_insert
 425              	.LVL33:
 426              		.loc 2 221 0
 427 001a 0720     		movs	r0, #7
 428 001c FFF7FEFF 		bl	chSchGoSleepS
 429              	.LVL34:
 430              		.loc 2 222 0
 431 0020 646A     		ldr	r4, [r4, #36]
 432              	.LVL35:
 433              		.loc 2 223 0
 434 0022 2846     		mov	r0, r5
 435 0024 FFF7FEFF 		bl	chMtxLockS
 436              	.LVL36:
 437              		.loc 2 226 0
 438 0028 2046     		mov	r0, r4
 439 002a 70BD     		pop	{r4, r5, r6, pc}
 440              	.LVL37:
 441              	.L18:
 442              		.align	2
 443              	.L17:
 444 002c 00000000 		.word	ch
 445              		.cfi_endproc
 446              	.LFE296:
 447              		.size	chCondWaitS, .-chCondWaitS
 448              		.section	.text.chCondWait,"ax",%progbits
 449              		.align	1
 450              		.global	chCondWait
 451              		.syntax unified
 452              		.thumb
 453              		.thumb_func
 454              		.fpu fpv4-sp-d16
 455              		.type	chCondWait, %function
 456              	chCondWait:
ARM GAS  /tmp/ccIJOfrC.s 			page 9


 457              	.LFB295:
 458              		.loc 2 179 0
 459              		.cfi_startproc
 460              		@ args = 0, pretend = 0, frame = 0
 461              		@ frame_needed = 0, uses_anonymous_args = 0
 462              	.LVL38:
 463 0000 08B5     		push	{r3, lr}
 464              		.cfi_def_cfa_offset 8
 465              		.cfi_offset 3, -8
 466              		.cfi_offset 14, -4
 467              	.LBB120:
 468              	.LBB121:
 469              	.LBB122:
 470              	.LBB123:
 471              		.loc 3 493 0
 472 0002 2023     		movs	r3, #32
 473              		.syntax unified
 474              	@ 493 "../../modules/ChibiOS/os/common/ext/ARM/CMSIS/Core/Include/cmsis_gcc.h" 1
 475 0004 83F31188 		MSR basepri, r3
 476              	@ 0 "" 2
 477              	.LVL39:
 478              		.thumb
 479              		.syntax unified
 480              	.LBE123:
 481              	.LBE122:
 482              	.LBE121:
 483              	.LBE120:
 484              		.loc 2 183 0
 485 0008 FFF7FEFF 		bl	chCondWaitS
 486              	.LVL40:
 487              	.LBB124:
 488              	.LBB125:
 489              	.LBB126:
 490              	.LBB127:
 491              	.LBB128:
 492              		.loc 3 493 0
 493 000c 0023     		movs	r3, #0
 494              		.syntax unified
 495              	@ 493 "../../modules/ChibiOS/os/common/ext/ARM/CMSIS/Core/Include/cmsis_gcc.h" 1
 496 000e 83F31188 		MSR basepri, r3
 497              	@ 0 "" 2
 498              	.LVL41:
 499              		.thumb
 500              		.syntax unified
 501              	.LBE128:
 502              	.LBE127:
 503              	.LBE126:
 504              	.LBE125:
 505              	.LBE124:
 506              		.loc 2 186 0
 507 0012 08BD     		pop	{r3, pc}
 508              		.cfi_endproc
 509              	.LFE295:
 510              		.size	chCondWait, .-chCondWait
 511              		.section	.text.chCondWaitTimeoutS,"ax",%progbits
 512              		.align	1
 513              		.global	chCondWaitTimeoutS
ARM GAS  /tmp/ccIJOfrC.s 			page 10


 514              		.syntax unified
 515              		.thumb
 516              		.thumb_func
 517              		.fpu fpv4-sp-d16
 518              		.type	chCondWaitTimeoutS, %function
 519              	chCondWaitTimeoutS:
 520              	.LFB298:
 521              		.loc 2 295 0
 522              		.cfi_startproc
 523              		@ args = 0, pretend = 0, frame = 0
 524              		@ frame_needed = 0, uses_anonymous_args = 0
 525              	.LVL42:
 526 0000 F8B5     		push	{r3, r4, r5, r6, r7, lr}
 527              		.cfi_def_cfa_offset 24
 528              		.cfi_offset 3, -24
 529              		.cfi_offset 4, -20
 530              		.cfi_offset 5, -16
 531              		.cfi_offset 6, -12
 532              		.cfi_offset 7, -8
 533              		.cfi_offset 14, -4
 534              	.LBB129:
 535              	.LBB130:
 536              	.LBB131:
 537              	.LBB132:
 538              		.file 5 "../../modules/ChibiOS/os/rt/include/chthreads.h"
 539              		.loc 5 274 0
 540 0002 0C4E     		ldr	r6, .L25
 541              	.LBE132:
 542              	.LBE131:
 543              		.loc 4 161 0
 544 0004 B369     		ldr	r3, [r6, #24]
 545 0006 9D6B     		ldr	r5, [r3, #56]
 546              	.LBE130:
 547              	.LBE129:
 548              		.loc 2 295 0
 549 0008 0446     		mov	r4, r0
 550              		.loc 2 304 0
 551 000a 2846     		mov	r0, r5
 552              	.LVL43:
 553              		.loc 2 295 0
 554 000c 0F46     		mov	r7, r1
 555              		.loc 2 304 0
 556 000e FFF7FEFF 		bl	chMtxUnlockS
 557              	.LVL44:
 558              		.loc 2 308 0
 559 0012 B069     		ldr	r0, [r6, #24]
 560              		.loc 2 309 0
 561 0014 2146     		mov	r1, r4
 562              		.loc 2 308 0
 563 0016 4462     		str	r4, [r0, #36]
 564              		.loc 2 309 0
 565 0018 FFF7FEFF 		bl	queue_prio_insert
 566              	.LVL45:
 567              		.loc 2 310 0
 568 001c 3946     		mov	r1, r7
 569 001e 0720     		movs	r0, #7
 570 0020 FFF7FEFF 		bl	chSchGoSleepTimeoutS
ARM GAS  /tmp/ccIJOfrC.s 			page 11


 571              	.LVL46:
 572              		.loc 2 311 0
 573 0024 431C     		adds	r3, r0, #1
 574              		.loc 2 310 0
 575 0026 0446     		mov	r4, r0
 576              	.LVL47:
 577              		.loc 2 311 0
 578 0028 02D0     		beq	.L20
 579              		.loc 2 312 0
 580 002a 2846     		mov	r0, r5
 581              	.LVL48:
 582 002c FFF7FEFF 		bl	chMtxLockS
 583              	.LVL49:
 584              	.L20:
 585              		.loc 2 316 0
 586 0030 2046     		mov	r0, r4
 587 0032 F8BD     		pop	{r3, r4, r5, r6, r7, pc}
 588              	.LVL50:
 589              	.L26:
 590              		.align	2
 591              	.L25:
 592 0034 00000000 		.word	ch
 593              		.cfi_endproc
 594              	.LFE298:
 595              		.size	chCondWaitTimeoutS, .-chCondWaitTimeoutS
 596              		.section	.text.chCondWaitTimeout,"ax",%progbits
 597              		.align	1
 598              		.global	chCondWaitTimeout
 599              		.syntax unified
 600              		.thumb
 601              		.thumb_func
 602              		.fpu fpv4-sp-d16
 603              		.type	chCondWaitTimeout, %function
 604              	chCondWaitTimeout:
 605              	.LFB297:
 606              		.loc 2 257 0
 607              		.cfi_startproc
 608              		@ args = 0, pretend = 0, frame = 0
 609              		@ frame_needed = 0, uses_anonymous_args = 0
 610              	.LVL51:
 611 0000 08B5     		push	{r3, lr}
 612              		.cfi_def_cfa_offset 8
 613              		.cfi_offset 3, -8
 614              		.cfi_offset 14, -4
 615              	.LBB133:
 616              	.LBB134:
 617              	.LBB135:
 618              	.LBB136:
 619              		.loc 3 493 0
 620 0002 2023     		movs	r3, #32
 621              		.syntax unified
 622              	@ 493 "../../modules/ChibiOS/os/common/ext/ARM/CMSIS/Core/Include/cmsis_gcc.h" 1
 623 0004 83F31188 		MSR basepri, r3
 624              	@ 0 "" 2
 625              	.LVL52:
 626              		.thumb
 627              		.syntax unified
ARM GAS  /tmp/ccIJOfrC.s 			page 12


 628              	.LBE136:
 629              	.LBE135:
 630              	.LBE134:
 631              	.LBE133:
 632              		.loc 2 261 0
 633 0008 FFF7FEFF 		bl	chCondWaitTimeoutS
 634              	.LVL53:
 635              	.LBB137:
 636              	.LBB138:
 637              	.LBB139:
 638              	.LBB140:
 639              	.LBB141:
 640              		.loc 3 493 0
 641 000c 0023     		movs	r3, #0
 642              		.syntax unified
 643              	@ 493 "../../modules/ChibiOS/os/common/ext/ARM/CMSIS/Core/Include/cmsis_gcc.h" 1
 644 000e 83F31188 		MSR basepri, r3
 645              	@ 0 "" 2
 646              	.LVL54:
 647              		.thumb
 648              		.syntax unified
 649              	.LBE141:
 650              	.LBE140:
 651              	.LBE139:
 652              	.LBE138:
 653              	.LBE137:
 654              		.loc 2 265 0
 655 0012 08BD     		pop	{r3, pc}
 656              		.cfi_endproc
 657              	.LFE297:
 658              		.size	chCondWaitTimeout, .-chCondWaitTimeout
 659              		.text
 660              	.Letext0:
 661              		.file 6 "/opt/gcc-arm-none-eabi-6-2017-q2-update/lib/gcc/arm-none-eabi/6.3.1/include/stddef.h"
 662              		.file 7 "/opt/gcc-arm-none-eabi-6-2017-q2-update/arm-none-eabi/include/machine/_default_types.h"
 663              		.file 8 "/opt/gcc-arm-none-eabi-6-2017-q2-update/arm-none-eabi/include/sys/_stdint.h"
 664              		.file 9 "../../modules/ChibiOS/os/common/ports/ARMCMx/compilers/GCC/chtypes.h"
 665              		.file 10 "../../modules/ChibiOS/os/rt/include/chsystypes.h"
 666              		.file 11 "../../modules/ChibiOS/os/rt/include/chtime.h"
 667              		.file 12 "../../modules/ChibiOS/os/common/ext/ARM/CMSIS/Core/Include/core_cm4.h"
 668              		.file 13 "../../modules/ChibiOS/os/common/ext/ST/STM32F4xx/system_stm32f4xx.h"
 669              		.file 14 "../../modules/ChibiOS/os/common/ports/ARMCMx/chcore.h"
 670              		.file 15 "../../modules/ChibiOS/os/common/ports/ARMCMx/chcore_v7m.h"
 671              		.file 16 "../../modules/ChibiOS/os/rt/include/chtm.h"
 672              		.file 17 "../../modules/ChibiOS/os/rt/include/chsem.h"
 673              		.file 18 "../../modules/ChibiOS/os/rt/include/chsys.h"
 674              		.file 19 "../../modules/ChibiOS/os/rt/include/chregistry.h"
 675              		.file 20 "../../modules/ChibiOS/os/rt/include/chcond.h"
 676              		.file 21 "../../modules/ChibiOS/os/oslib/include/chmemcore.h"
 677              		.file 22 "../../modules/ChibiOS/os/oslib/include/chmempools.h"
 678              		.file 23 "../../modules/ChibiOS/os/oslib/include/chfactory.h"
 679              		.section	.debug_info,"",%progbits
 680              	.Ldebug_info0:
 681 0000 04130000 		.4byte	0x1304
 682 0004 0400     		.2byte	0x4
 683 0006 00000000 		.4byte	.Ldebug_abbrev0
 684 000a 04       		.byte	0x4
ARM GAS  /tmp/ccIJOfrC.s 			page 13


 685 000b 01       		.uleb128 0x1
 686 000c 52010000 		.4byte	.LASF176
 687 0010 0C       		.byte	0xc
 688 0011 E0070000 		.4byte	.LASF177
 689 0015 D5080000 		.4byte	.LASF178
 690 0019 30000000 		.4byte	.Ldebug_ranges0+0x30
 691 001d 00000000 		.4byte	0
 692 0021 00000000 		.4byte	.Ldebug_line0
 693 0025 02       		.uleb128 0x2
 694 0026 04       		.byte	0x4
 695 0027 05       		.byte	0x5
 696 0028 696E7400 		.ascii	"int\000"
 697 002c 03       		.uleb128 0x3
 698 002d 0D000000 		.4byte	.LASF4
 699 0031 06       		.byte	0x6
 700 0032 D8       		.byte	0xd8
 701 0033 37000000 		.4byte	0x37
 702 0037 04       		.uleb128 0x4
 703 0038 04       		.byte	0x4
 704 0039 07       		.byte	0x7
 705 003a 67030000 		.4byte	.LASF0
 706 003e 04       		.uleb128 0x4
 707 003f 08       		.byte	0x8
 708 0040 05       		.byte	0x5
 709 0041 1E010000 		.4byte	.LASF1
 710 0045 04       		.uleb128 0x4
 711 0046 08       		.byte	0x8
 712 0047 04       		.byte	0x4
 713 0048 FC060000 		.4byte	.LASF2
 714 004c 04       		.uleb128 0x4
 715 004d 01       		.byte	0x1
 716 004e 06       		.byte	0x6
 717 004f 2C010000 		.4byte	.LASF3
 718 0053 03       		.uleb128 0x3
 719 0054 2A000000 		.4byte	.LASF5
 720 0058 07       		.byte	0x7
 721 0059 2B       		.byte	0x2b
 722 005a 5E000000 		.4byte	0x5e
 723 005e 04       		.uleb128 0x4
 724 005f 01       		.byte	0x1
 725 0060 08       		.byte	0x8
 726 0061 BD050000 		.4byte	.LASF6
 727 0065 04       		.uleb128 0x4
 728 0066 02       		.byte	0x2
 729 0067 05       		.byte	0x5
 730 0068 E1050000 		.4byte	.LASF7
 731 006c 03       		.uleb128 0x3
 732 006d E0060000 		.4byte	.LASF8
 733 0071 07       		.byte	0x7
 734 0072 39       		.byte	0x39
 735 0073 77000000 		.4byte	0x77
 736 0077 04       		.uleb128 0x4
 737 0078 02       		.byte	0x2
 738 0079 07       		.byte	0x7
 739 007a 5F070000 		.4byte	.LASF9
 740 007e 03       		.uleb128 0x3
 741 007f 5D040000 		.4byte	.LASF10
ARM GAS  /tmp/ccIJOfrC.s 			page 14


 742 0083 07       		.byte	0x7
 743 0084 4D       		.byte	0x4d
 744 0085 89000000 		.4byte	0x89
 745 0089 04       		.uleb128 0x4
 746 008a 04       		.byte	0x4
 747 008b 05       		.byte	0x5
 748 008c 92020000 		.4byte	.LASF11
 749 0090 03       		.uleb128 0x3
 750 0091 EB020000 		.4byte	.LASF12
 751 0095 07       		.byte	0x7
 752 0096 4F       		.byte	0x4f
 753 0097 9B000000 		.4byte	0x9b
 754 009b 04       		.uleb128 0x4
 755 009c 04       		.byte	0x4
 756 009d 07       		.byte	0x7
 757 009e B3060000 		.4byte	.LASF13
 758 00a2 03       		.uleb128 0x3
 759 00a3 4A050000 		.4byte	.LASF14
 760 00a7 07       		.byte	0x7
 761 00a8 69       		.byte	0x69
 762 00a9 AD000000 		.4byte	0xad
 763 00ad 04       		.uleb128 0x4
 764 00ae 08       		.byte	0x8
 765 00af 07       		.byte	0x7
 766 00b0 AA000000 		.4byte	.LASF15
 767 00b4 03       		.uleb128 0x3
 768 00b5 29080000 		.4byte	.LASF16
 769 00b9 08       		.byte	0x8
 770 00ba 18       		.byte	0x18
 771 00bb 53000000 		.4byte	0x53
 772 00bf 05       		.uleb128 0x5
 773 00c0 B4000000 		.4byte	0xb4
 774 00c4 03       		.uleb128 0x3
 775 00c5 74030000 		.4byte	.LASF17
 776 00c9 08       		.byte	0x8
 777 00ca 24       		.byte	0x24
 778 00cb 6C000000 		.4byte	0x6c
 779 00cf 03       		.uleb128 0x3
 780 00d0 B5050000 		.4byte	.LASF18
 781 00d4 08       		.byte	0x8
 782 00d5 2C       		.byte	0x2c
 783 00d6 7E000000 		.4byte	0x7e
 784 00da 06       		.uleb128 0x6
 785 00db CF000000 		.4byte	0xcf
 786 00df 03       		.uleb128 0x3
 787 00e0 6E060000 		.4byte	.LASF19
 788 00e4 08       		.byte	0x8
 789 00e5 30       		.byte	0x30
 790 00e6 90000000 		.4byte	0x90
 791 00ea 03       		.uleb128 0x3
 792 00eb 21000000 		.4byte	.LASF20
 793 00ef 08       		.byte	0x8
 794 00f0 3C       		.byte	0x3c
 795 00f1 A2000000 		.4byte	0xa2
 796 00f5 03       		.uleb128 0x3
 797 00f6 7D070000 		.4byte	.LASF21
 798 00fa 09       		.byte	0x9
ARM GAS  /tmp/ccIJOfrC.s 			page 15


 799 00fb 27       		.byte	0x27
 800 00fc DF000000 		.4byte	0xdf
 801 0100 03       		.uleb128 0x3
 802 0101 26040000 		.4byte	.LASF22
 803 0105 09       		.byte	0x9
 804 0106 2A       		.byte	0x2a
 805 0107 B4000000 		.4byte	0xb4
 806 010b 03       		.uleb128 0x3
 807 010c A7020000 		.4byte	.LASF23
 808 0110 09       		.byte	0x9
 809 0111 2B       		.byte	0x2b
 810 0112 B4000000 		.4byte	0xb4
 811 0116 03       		.uleb128 0x3
 812 0117 5F050000 		.4byte	.LASF24
 813 011b 09       		.byte	0x9
 814 011c 2C       		.byte	0x2c
 815 011d B4000000 		.4byte	0xb4
 816 0121 03       		.uleb128 0x3
 817 0122 8B050000 		.4byte	.LASF25
 818 0126 09       		.byte	0x9
 819 0127 2E       		.byte	0x2e
 820 0128 DF000000 		.4byte	0xdf
 821 012c 03       		.uleb128 0x3
 822 012d F1030000 		.4byte	.LASF26
 823 0131 09       		.byte	0x9
 824 0132 2F       		.byte	0x2f
 825 0133 CF000000 		.4byte	0xcf
 826 0137 03       		.uleb128 0x3
 827 0138 3C040000 		.4byte	.LASF27
 828 013c 09       		.byte	0x9
 829 013d 31       		.byte	0x31
 830 013e DF000000 		.4byte	0xdf
 831 0142 03       		.uleb128 0x3
 832 0143 54030000 		.4byte	.LASF28
 833 0147 09       		.byte	0x9
 834 0148 33       		.byte	0x33
 835 0149 CF000000 		.4byte	0xcf
 836 014d 03       		.uleb128 0x3
 837 014e F7030000 		.4byte	.LASF29
 838 0152 09       		.byte	0x9
 839 0153 34       		.byte	0x34
 840 0154 DF000000 		.4byte	0xdf
 841 0158 03       		.uleb128 0x3
 842 0159 09080000 		.4byte	.LASF30
 843 015d 0A       		.byte	0xa
 844 015e 34       		.byte	0x34
 845 015f 63010000 		.4byte	0x163
 846 0163 07       		.uleb128 0x7
 847 0164 E7030000 		.4byte	.LASF48
 848 0168 44       		.byte	0x44
 849 0169 01       		.byte	0x1
 850 016a 8E       		.byte	0x8e
 851 016b 41020000 		.4byte	0x241
 852 016f 08       		.uleb128 0x8
 853 0170 C9030000 		.4byte	.LASF31
 854 0174 01       		.byte	0x1
 855 0175 8F       		.byte	0x8f
ARM GAS  /tmp/ccIJOfrC.s 			page 16


 856 0176 76020000 		.4byte	0x276
 857 017a 00       		.byte	0
 858 017b 08       		.uleb128 0x8
 859 017c 24050000 		.4byte	.LASF32
 860 0180 01       		.byte	0x1
 861 0181 90       		.byte	0x90
 862 0182 21010000 		.4byte	0x121
 863 0186 08       		.byte	0x8
 864 0187 09       		.uleb128 0x9
 865 0188 63747800 		.ascii	"ctx\000"
 866 018c 01       		.byte	0x1
 867 018d 91       		.byte	0x91
 868 018e E0040000 		.4byte	0x4e0
 869 0192 0C       		.byte	0xc
 870 0193 08       		.uleb128 0x8
 871 0194 72040000 		.4byte	.LASF33
 872 0198 01       		.byte	0x1
 873 0199 93       		.byte	0x93
 874 019a 4C020000 		.4byte	0x24c
 875 019e 10       		.byte	0x10
 876 019f 08       		.uleb128 0x8
 877 01a0 D1060000 		.4byte	.LASF34
 878 01a4 01       		.byte	0x1
 879 01a5 94       		.byte	0x94
 880 01a6 4C020000 		.4byte	0x24c
 881 01aa 14       		.byte	0x14
 882 01ab 08       		.uleb128 0x8
 883 01ac C4030000 		.4byte	.LASF35
 884 01b0 01       		.byte	0x1
 885 01b1 9B       		.byte	0x9b
 886 01b2 40070000 		.4byte	0x740
 887 01b6 18       		.byte	0x18
 888 01b7 08       		.uleb128 0x8
 889 01b8 C5060000 		.4byte	.LASF36
 890 01bc 01       		.byte	0x1
 891 01bd A4       		.byte	0xa4
 892 01be 57070000 		.4byte	0x757
 893 01c2 1C       		.byte	0x1c
 894 01c3 08       		.uleb128 0x8
 895 01c4 8C020000 		.4byte	.LASF37
 896 01c8 01       		.byte	0x1
 897 01c9 A9       		.byte	0xa9
 898 01ca 0B010000 		.4byte	0x10b
 899 01ce 20       		.byte	0x20
 900 01cf 08       		.uleb128 0x8
 901 01d0 31080000 		.4byte	.LASF38
 902 01d4 01       		.byte	0x1
 903 01d5 AD       		.byte	0xad
 904 01d6 00010000 		.4byte	0x100
 905 01da 21       		.byte	0x21
 906 01db 08       		.uleb128 0x8
 907 01dc 67050000 		.4byte	.LASF39
 908 01e0 01       		.byte	0x1
 909 01e1 B2       		.byte	0xb2
 910 01e2 16010000 		.4byte	0x116
 911 01e6 22       		.byte	0x22
 912 01e7 0A       		.uleb128 0xa
ARM GAS  /tmp/ccIJOfrC.s 			page 17


 913 01e8 7500     		.ascii	"u\000"
 914 01ea 01       		.byte	0x1
 915 01eb 0301     		.2byte	0x103
 916 01ed 6A060000 		.4byte	0x66a
 917 01f1 24       		.byte	0x24
 918 01f2 0B       		.uleb128 0xb
 919 01f3 18030000 		.4byte	.LASF40
 920 01f7 01       		.byte	0x1
 921 01f8 0801     		.2byte	0x108
 922 01fa 52020000 		.4byte	0x252
 923 01fe 28       		.byte	0x28
 924 01ff 0B       		.uleb128 0xb
 925 0200 83020000 		.4byte	.LASF41
 926 0204 01       		.byte	0x1
 927 0205 0E01     		.2byte	0x10e
 928 0207 76020000 		.4byte	0x276
 929 020b 2C       		.byte	0x2c
 930 020c 0B       		.uleb128 0xb
 931 020d FE030000 		.4byte	.LASF42
 932 0211 01       		.byte	0x1
 933 0212 1401     		.2byte	0x114
 934 0214 37010000 		.4byte	0x137
 935 0218 34       		.byte	0x34
 936 0219 0B       		.uleb128 0xb
 937 021a CD080000 		.4byte	.LASF43
 938 021e 01       		.byte	0x1
 939 021f 1B01     		.2byte	0x11b
 940 0221 3A070000 		.4byte	0x73a
 941 0225 38       		.byte	0x38
 942 0226 0B       		.uleb128 0xb
 943 0227 78040000 		.4byte	.LASF44
 944 022b 01       		.byte	0x1
 945 022c 1F01     		.2byte	0x11f
 946 022e 21010000 		.4byte	0x121
 947 0232 3C       		.byte	0x3c
 948 0233 0B       		.uleb128 0xb
 949 0234 CF030000 		.4byte	.LASF45
 950 0238 01       		.byte	0x1
 951 0239 2601     		.2byte	0x126
 952 023b 2E030000 		.4byte	0x32e
 953 023f 40       		.byte	0x40
 954 0240 00       		.byte	0
 955 0241 03       		.uleb128 0x3
 956 0242 92040000 		.4byte	.LASF46
 957 0246 0A       		.byte	0xa
 958 0247 39       		.byte	0x39
 959 0248 4C020000 		.4byte	0x24c
 960 024c 0C       		.uleb128 0xc
 961 024d 04       		.byte	0x4
 962 024e 58010000 		.4byte	0x158
 963 0252 03       		.uleb128 0x3
 964 0253 5A080000 		.4byte	.LASF47
 965 0257 0A       		.byte	0xa
 966 0258 3E       		.byte	0x3e
 967 0259 5D020000 		.4byte	0x25d
 968 025d 07       		.uleb128 0x7
 969 025e 8A060000 		.4byte	.LASF49
ARM GAS  /tmp/ccIJOfrC.s 			page 18


 970 0262 04       		.byte	0x4
 971 0263 01       		.byte	0x1
 972 0264 7C       		.byte	0x7c
 973 0265 76020000 		.4byte	0x276
 974 0269 08       		.uleb128 0x8
 975 026a 0E010000 		.4byte	.LASF50
 976 026e 01       		.byte	0x1
 977 026f 7D       		.byte	0x7d
 978 0270 4C020000 		.4byte	0x24c
 979 0274 00       		.byte	0
 980 0275 00       		.byte	0
 981 0276 03       		.uleb128 0x3
 982 0277 C4070000 		.4byte	.LASF51
 983 027b 0A       		.byte	0xa
 984 027c 45       		.byte	0x45
 985 027d 86020000 		.4byte	0x286
 986 0281 05       		.uleb128 0x5
 987 0282 76020000 		.4byte	0x276
 988 0286 07       		.uleb128 0x7
 989 0287 45000000 		.4byte	.LASF52
 990 028b 08       		.byte	0x8
 991 028c 01       		.byte	0x1
 992 028d 83       		.byte	0x83
 993 028e AB020000 		.4byte	0x2ab
 994 0292 08       		.uleb128 0x8
 995 0293 0E010000 		.4byte	.LASF50
 996 0297 01       		.byte	0x1
 997 0298 84       		.byte	0x84
 998 0299 4C020000 		.4byte	0x24c
 999 029d 00       		.byte	0
 1000 029e 08       		.uleb128 0x8
 1001 029f 34000000 		.4byte	.LASF53
 1002 02a3 01       		.byte	0x1
 1003 02a4 85       		.byte	0x85
 1004 02a5 4C020000 		.4byte	0x24c
 1005 02a9 04       		.byte	0x4
 1006 02aa 00       		.byte	0
 1007 02ab 03       		.uleb128 0x3
 1008 02ac 00000000 		.4byte	.LASF54
 1009 02b0 0A       		.byte	0xa
 1010 02b1 4C       		.byte	0x4c
 1011 02b2 B6020000 		.4byte	0x2b6
 1012 02b6 0D       		.uleb128 0xd
 1013 02b7 2E040000 		.4byte	.LASF55
 1014 02bb 1C       		.byte	0x1c
 1015 02bc 01       		.byte	0x1
 1016 02bd 5E01     		.2byte	0x15e
 1017 02bf 12030000 		.4byte	0x312
 1018 02c3 0B       		.uleb128 0xb
 1019 02c4 C9030000 		.4byte	.LASF31
 1020 02c8 01       		.byte	0x1
 1021 02c9 5F01     		.2byte	0x15f
 1022 02cb 76020000 		.4byte	0x276
 1023 02cf 00       		.byte	0
 1024 02d0 0B       		.uleb128 0xb
 1025 02d1 24050000 		.4byte	.LASF32
 1026 02d5 01       		.byte	0x1
ARM GAS  /tmp/ccIJOfrC.s 			page 19


 1027 02d6 6001     		.2byte	0x160
 1028 02d8 21010000 		.4byte	0x121
 1029 02dc 08       		.byte	0x8
 1030 02dd 0A       		.uleb128 0xa
 1031 02de 63747800 		.ascii	"ctx\000"
 1032 02e2 01       		.byte	0x1
 1033 02e3 6201     		.2byte	0x162
 1034 02e5 E0040000 		.4byte	0x4e0
 1035 02e9 0C       		.byte	0xc
 1036 02ea 0B       		.uleb128 0xb
 1037 02eb 72040000 		.4byte	.LASF33
 1038 02ef 01       		.byte	0x1
 1039 02f0 6501     		.2byte	0x165
 1040 02f2 4C020000 		.4byte	0x24c
 1041 02f6 10       		.byte	0x10
 1042 02f7 0B       		.uleb128 0xb
 1043 02f8 D1060000 		.4byte	.LASF34
 1044 02fc 01       		.byte	0x1
 1045 02fd 6601     		.2byte	0x166
 1046 02ff 4C020000 		.4byte	0x24c
 1047 0303 14       		.byte	0x14
 1048 0304 0B       		.uleb128 0xb
 1049 0305 42050000 		.4byte	.LASF56
 1050 0309 01       		.byte	0x1
 1051 030a 6901     		.2byte	0x169
 1052 030c 4C020000 		.4byte	0x24c
 1053 0310 18       		.byte	0x18
 1054 0311 00       		.byte	0
 1055 0312 03       		.uleb128 0x3
 1056 0313 24070000 		.4byte	.LASF57
 1057 0317 0A       		.byte	0xa
 1058 0318 51       		.byte	0x51
 1059 0319 1D030000 		.4byte	0x31d
 1060 031d 0C       		.uleb128 0xc
 1061 031e 04       		.byte	0x4
 1062 031f 23030000 		.4byte	0x323
 1063 0323 0E       		.uleb128 0xe
 1064 0324 2E030000 		.4byte	0x32e
 1065 0328 0F       		.uleb128 0xf
 1066 0329 2E030000 		.4byte	0x32e
 1067 032d 00       		.byte	0
 1068 032e 10       		.uleb128 0x10
 1069 032f 04       		.byte	0x4
 1070 0330 03       		.uleb128 0x3
 1071 0331 6C050000 		.4byte	.LASF58
 1072 0335 0A       		.byte	0xa
 1073 0336 56       		.byte	0x56
 1074 0337 3B030000 		.4byte	0x33b
 1075 033b 0D       		.uleb128 0xd
 1076 033c 2C060000 		.4byte	.LASF59
 1077 0340 14       		.byte	0x14
 1078 0341 01       		.byte	0x1
 1079 0342 3901     		.2byte	0x139
 1080 0344 8A030000 		.4byte	0x38a
 1081 0348 0B       		.uleb128 0xb
 1082 0349 0E010000 		.4byte	.LASF50
 1083 034d 01       		.byte	0x1
ARM GAS  /tmp/ccIJOfrC.s 			page 20


 1084 034e 3A01     		.2byte	0x13a
 1085 0350 5D070000 		.4byte	0x75d
 1086 0354 00       		.byte	0
 1087 0355 0B       		.uleb128 0xb
 1088 0356 34000000 		.4byte	.LASF53
 1089 035a 01       		.byte	0x1
 1090 035b 3B01     		.2byte	0x13b
 1091 035d 5D070000 		.4byte	0x75d
 1092 0361 04       		.byte	0x4
 1093 0362 0B       		.uleb128 0xb
 1094 0363 14000000 		.4byte	.LASF60
 1095 0367 01       		.byte	0x1
 1096 0368 3C01     		.2byte	0x13c
 1097 036a 61040000 		.4byte	0x461
 1098 036e 08       		.byte	0x8
 1099 036f 0B       		.uleb128 0xb
 1100 0370 BF020000 		.4byte	.LASF61
 1101 0374 01       		.byte	0x1
 1102 0375 3D01     		.2byte	0x13d
 1103 0377 12030000 		.4byte	0x312
 1104 037b 0C       		.byte	0xc
 1105 037c 0A       		.uleb128 0xa
 1106 037d 70617200 		.ascii	"par\000"
 1107 0381 01       		.byte	0x1
 1108 0382 3F01     		.2byte	0x13f
 1109 0384 2E030000 		.4byte	0x32e
 1110 0388 10       		.byte	0x10
 1111 0389 00       		.byte	0
 1112 038a 03       		.uleb128 0x3
 1113 038b DD000000 		.4byte	.LASF62
 1114 038f 0A       		.byte	0xa
 1115 0390 5B       		.byte	0x5b
 1116 0391 95030000 		.4byte	0x395
 1117 0395 0D       		.uleb128 0xd
 1118 0396 A5040000 		.4byte	.LASF63
 1119 039a 10       		.byte	0x10
 1120 039b 01       		.byte	0x1
 1121 039c 4901     		.2byte	0x149
 1122 039e D7030000 		.4byte	0x3d7
 1123 03a2 0B       		.uleb128 0xb
 1124 03a3 0E010000 		.4byte	.LASF50
 1125 03a7 01       		.byte	0x1
 1126 03a8 4A01     		.2byte	0x14a
 1127 03aa 5D070000 		.4byte	0x75d
 1128 03ae 00       		.byte	0
 1129 03af 0B       		.uleb128 0xb
 1130 03b0 34000000 		.4byte	.LASF53
 1131 03b4 01       		.byte	0x1
 1132 03b5 4C01     		.2byte	0x14c
 1133 03b7 5D070000 		.4byte	0x75d
 1134 03bb 04       		.byte	0x4
 1135 03bc 0B       		.uleb128 0xb
 1136 03bd 14000000 		.4byte	.LASF60
 1137 03c1 01       		.byte	0x1
 1138 03c2 4E01     		.2byte	0x14e
 1139 03c4 61040000 		.4byte	0x461
 1140 03c8 08       		.byte	0x8
ARM GAS  /tmp/ccIJOfrC.s 			page 21


 1141 03c9 0B       		.uleb128 0xb
 1142 03ca EB050000 		.4byte	.LASF64
 1143 03ce 01       		.byte	0x1
 1144 03cf 5601     		.2byte	0x156
 1145 03d1 56040000 		.4byte	0x456
 1146 03d5 0C       		.byte	0xc
 1147 03d6 00       		.byte	0
 1148 03d7 03       		.uleb128 0x3
 1149 03d8 56000000 		.4byte	.LASF65
 1150 03dc 0A       		.byte	0xa
 1151 03dd 60       		.byte	0x60
 1152 03de E2030000 		.4byte	0x3e2
 1153 03e2 0D       		.uleb128 0xd
 1154 03e3 08030000 		.4byte	.LASF66
 1155 03e7 04       		.byte	0x4
 1156 03e8 01       		.byte	0x1
 1157 03e9 7001     		.2byte	0x170
 1158 03eb FD030000 		.4byte	0x3fd
 1159 03ef 0B       		.uleb128 0xb
 1160 03f0 3B070000 		.4byte	.LASF67
 1161 03f4 01       		.byte	0x1
 1162 03f5 7801     		.2byte	0x178
 1163 03f7 46070000 		.4byte	0x746
 1164 03fb 00       		.byte	0
 1165 03fc 00       		.byte	0
 1166 03fd 03       		.uleb128 0x3
 1167 03fe 12040000 		.4byte	.LASF68
 1168 0402 0A       		.byte	0xa
 1169 0403 65       		.byte	0x65
 1170 0404 08040000 		.4byte	0x408
 1171 0408 0D       		.uleb128 0xd
 1172 0409 FB050000 		.4byte	.LASF69
 1173 040d 78       		.byte	0x78
 1174 040e 01       		.byte	0x1
 1175 040f 9001     		.2byte	0x190
 1176 0411 56040000 		.4byte	0x456
 1177 0415 0B       		.uleb128 0xb
 1178 0416 20030000 		.4byte	.LASF70
 1179 041a 01       		.byte	0x1
 1180 041b 9401     		.2byte	0x194
 1181 041d AB020000 		.4byte	0x2ab
 1182 0421 00       		.byte	0
 1183 0422 0B       		.uleb128 0xb
 1184 0423 70020000 		.4byte	.LASF71
 1185 0427 01       		.byte	0x1
 1186 0428 9801     		.2byte	0x198
 1187 042a 8A030000 		.4byte	0x38a
 1188 042e 1C       		.byte	0x1c
 1189 042f 0A       		.uleb128 0xa
 1190 0430 64626700 		.ascii	"dbg\000"
 1191 0434 01       		.byte	0x1
 1192 0435 9C01     		.2byte	0x19c
 1193 0437 D7030000 		.4byte	0x3d7
 1194 043b 2C       		.byte	0x2c
 1195 043c 0B       		.uleb128 0xb
 1196 043d CA000000 		.4byte	.LASF72
 1197 0441 01       		.byte	0x1
ARM GAS  /tmp/ccIJOfrC.s 			page 22


 1198 0442 A001     		.2byte	0x1a0
 1199 0444 58010000 		.4byte	0x158
 1200 0448 30       		.byte	0x30
 1201 0449 0A       		.uleb128 0xa
 1202 044a 746D00   		.ascii	"tm\000"
 1203 044d 01       		.byte	0x1
 1204 044e A501     		.2byte	0x1a5
 1205 0450 5F060000 		.4byte	0x65f
 1206 0454 74       		.byte	0x74
 1207 0455 00       		.byte	0
 1208 0456 03       		.uleb128 0x3
 1209 0457 1A070000 		.4byte	.LASF73
 1210 045b 0B       		.byte	0xb
 1211 045c 6D       		.byte	0x6d
 1212 045d DF000000 		.4byte	0xdf
 1213 0461 03       		.uleb128 0x3
 1214 0462 46030000 		.4byte	.LASF74
 1215 0466 0B       		.byte	0xb
 1216 0467 79       		.byte	0x79
 1217 0468 DF000000 		.4byte	0xdf
 1218 046c 04       		.uleb128 0x4
 1219 046d 04       		.byte	0x4
 1220 046e 07       		.byte	0x7
 1221 046f 89040000 		.4byte	.LASF75
 1222 0473 11       		.uleb128 0x11
 1223 0474 F3000000 		.4byte	.LASF76
 1224 0478 0C       		.byte	0xc
 1225 0479 0408     		.2byte	0x804
 1226 047b DA000000 		.4byte	0xda
 1227 047f 12       		.uleb128 0x12
 1228 0480 7D030000 		.4byte	.LASF77
 1229 0484 0D       		.byte	0xd
 1230 0485 4C       		.byte	0x4c
 1231 0486 DF000000 		.4byte	0xdf
 1232 048a 13       		.uleb128 0x13
 1233 048b BF000000 		.4byte	0xbf
 1234 048f 9A040000 		.4byte	0x49a
 1235 0493 14       		.uleb128 0x14
 1236 0494 6C040000 		.4byte	0x46c
 1237 0498 0F       		.byte	0xf
 1238 0499 00       		.byte	0
 1239 049a 05       		.uleb128 0x5
 1240 049b 8A040000 		.4byte	0x48a
 1241 049f 12       		.uleb128 0x12
 1242 04a0 48040000 		.4byte	.LASF78
 1243 04a4 0D       		.byte	0xd
 1244 04a5 4E       		.byte	0x4e
 1245 04a6 9A040000 		.4byte	0x49a
 1246 04aa 13       		.uleb128 0x13
 1247 04ab BF000000 		.4byte	0xbf
 1248 04af BA040000 		.4byte	0x4ba
 1249 04b3 14       		.uleb128 0x14
 1250 04b4 6C040000 		.4byte	0x46c
 1251 04b8 07       		.byte	0x7
 1252 04b9 00       		.byte	0
 1253 04ba 05       		.uleb128 0x5
 1254 04bb AA040000 		.4byte	0x4aa
ARM GAS  /tmp/ccIJOfrC.s 			page 23


 1255 04bf 12       		.uleb128 0x12
 1256 04c0 F8040000 		.4byte	.LASF79
 1257 04c4 0D       		.byte	0xd
 1258 04c5 4F       		.byte	0x4f
 1259 04c6 BA040000 		.4byte	0x4ba
 1260 04ca 03       		.uleb128 0x3
 1261 04cb F6020000 		.4byte	.LASF80
 1262 04cf 0E       		.byte	0xe
 1263 04d0 65       		.byte	0x65
 1264 04d1 2E030000 		.4byte	0x32e
 1265 04d5 03       		.uleb128 0x3
 1266 04d6 67040000 		.4byte	.LASF81
 1267 04da 0E       		.byte	0xe
 1268 04db 6D       		.byte	0x6d
 1269 04dc EA000000 		.4byte	0xea
 1270 04e0 07       		.uleb128 0x7
 1271 04e1 06050000 		.4byte	.LASF82
 1272 04e5 04       		.byte	0x4
 1273 04e6 0E       		.byte	0xe
 1274 04e7 89       		.byte	0x89
 1275 04e8 F8040000 		.4byte	0x4f8
 1276 04ec 09       		.uleb128 0x9
 1277 04ed 737000   		.ascii	"sp\000"
 1278 04f0 0E       		.byte	0xe
 1279 04f1 8A       		.byte	0x8a
 1280 04f2 44060000 		.4byte	0x644
 1281 04f6 00       		.byte	0
 1282 04f7 00       		.byte	0
 1283 04f8 0D       		.uleb128 0xd
 1284 04f9 39000000 		.4byte	.LASF83
 1285 04fd 64       		.byte	0x64
 1286 04fe 0F       		.byte	0xf
 1287 04ff 5901     		.2byte	0x159
 1288 0501 44060000 		.4byte	0x644
 1289 0505 0A       		.uleb128 0xa
 1290 0506 73313600 		.ascii	"s16\000"
 1291 050a 0F       		.byte	0xf
 1292 050b 5B01     		.2byte	0x15b
 1293 050d CA040000 		.4byte	0x4ca
 1294 0511 00       		.byte	0
 1295 0512 0A       		.uleb128 0xa
 1296 0513 73313700 		.ascii	"s17\000"
 1297 0517 0F       		.byte	0xf
 1298 0518 5C01     		.2byte	0x15c
 1299 051a CA040000 		.4byte	0x4ca
 1300 051e 04       		.byte	0x4
 1301 051f 0A       		.uleb128 0xa
 1302 0520 73313800 		.ascii	"s18\000"
 1303 0524 0F       		.byte	0xf
 1304 0525 5D01     		.2byte	0x15d
 1305 0527 CA040000 		.4byte	0x4ca
 1306 052b 08       		.byte	0x8
 1307 052c 0A       		.uleb128 0xa
 1308 052d 73313900 		.ascii	"s19\000"
 1309 0531 0F       		.byte	0xf
 1310 0532 5E01     		.2byte	0x15e
 1311 0534 CA040000 		.4byte	0x4ca
ARM GAS  /tmp/ccIJOfrC.s 			page 24


 1312 0538 0C       		.byte	0xc
 1313 0539 0A       		.uleb128 0xa
 1314 053a 73323000 		.ascii	"s20\000"
 1315 053e 0F       		.byte	0xf
 1316 053f 5F01     		.2byte	0x15f
 1317 0541 CA040000 		.4byte	0x4ca
 1318 0545 10       		.byte	0x10
 1319 0546 0A       		.uleb128 0xa
 1320 0547 73323100 		.ascii	"s21\000"
 1321 054b 0F       		.byte	0xf
 1322 054c 6001     		.2byte	0x160
 1323 054e CA040000 		.4byte	0x4ca
 1324 0552 14       		.byte	0x14
 1325 0553 0A       		.uleb128 0xa
 1326 0554 73323200 		.ascii	"s22\000"
 1327 0558 0F       		.byte	0xf
 1328 0559 6101     		.2byte	0x161
 1329 055b CA040000 		.4byte	0x4ca
 1330 055f 18       		.byte	0x18
 1331 0560 0A       		.uleb128 0xa
 1332 0561 73323300 		.ascii	"s23\000"
 1333 0565 0F       		.byte	0xf
 1334 0566 6201     		.2byte	0x162
 1335 0568 CA040000 		.4byte	0x4ca
 1336 056c 1C       		.byte	0x1c
 1337 056d 0A       		.uleb128 0xa
 1338 056e 73323400 		.ascii	"s24\000"
 1339 0572 0F       		.byte	0xf
 1340 0573 6301     		.2byte	0x163
 1341 0575 CA040000 		.4byte	0x4ca
 1342 0579 20       		.byte	0x20
 1343 057a 0A       		.uleb128 0xa
 1344 057b 73323500 		.ascii	"s25\000"
 1345 057f 0F       		.byte	0xf
 1346 0580 6401     		.2byte	0x164
 1347 0582 CA040000 		.4byte	0x4ca
 1348 0586 24       		.byte	0x24
 1349 0587 0A       		.uleb128 0xa
 1350 0588 73323600 		.ascii	"s26\000"
 1351 058c 0F       		.byte	0xf
 1352 058d 6501     		.2byte	0x165
 1353 058f CA040000 		.4byte	0x4ca
 1354 0593 28       		.byte	0x28
 1355 0594 0A       		.uleb128 0xa
 1356 0595 73323700 		.ascii	"s27\000"
 1357 0599 0F       		.byte	0xf
 1358 059a 6601     		.2byte	0x166
 1359 059c CA040000 		.4byte	0x4ca
 1360 05a0 2C       		.byte	0x2c
 1361 05a1 0A       		.uleb128 0xa
 1362 05a2 73323800 		.ascii	"s28\000"
 1363 05a6 0F       		.byte	0xf
 1364 05a7 6701     		.2byte	0x167
 1365 05a9 CA040000 		.4byte	0x4ca
 1366 05ad 30       		.byte	0x30
 1367 05ae 0A       		.uleb128 0xa
 1368 05af 73323900 		.ascii	"s29\000"
ARM GAS  /tmp/ccIJOfrC.s 			page 25


 1369 05b3 0F       		.byte	0xf
 1370 05b4 6801     		.2byte	0x168
 1371 05b6 CA040000 		.4byte	0x4ca
 1372 05ba 34       		.byte	0x34
 1373 05bb 0A       		.uleb128 0xa
 1374 05bc 73333000 		.ascii	"s30\000"
 1375 05c0 0F       		.byte	0xf
 1376 05c1 6901     		.2byte	0x169
 1377 05c3 CA040000 		.4byte	0x4ca
 1378 05c7 38       		.byte	0x38
 1379 05c8 0A       		.uleb128 0xa
 1380 05c9 73333100 		.ascii	"s31\000"
 1381 05cd 0F       		.byte	0xf
 1382 05ce 6A01     		.2byte	0x16a
 1383 05d0 CA040000 		.4byte	0x4ca
 1384 05d4 3C       		.byte	0x3c
 1385 05d5 0A       		.uleb128 0xa
 1386 05d6 723400   		.ascii	"r4\000"
 1387 05d9 0F       		.byte	0xf
 1388 05da 6C01     		.2byte	0x16c
 1389 05dc CA040000 		.4byte	0x4ca
 1390 05e0 40       		.byte	0x40
 1391 05e1 0A       		.uleb128 0xa
 1392 05e2 723500   		.ascii	"r5\000"
 1393 05e5 0F       		.byte	0xf
 1394 05e6 6D01     		.2byte	0x16d
 1395 05e8 CA040000 		.4byte	0x4ca
 1396 05ec 44       		.byte	0x44
 1397 05ed 0A       		.uleb128 0xa
 1398 05ee 723600   		.ascii	"r6\000"
 1399 05f1 0F       		.byte	0xf
 1400 05f2 6E01     		.2byte	0x16e
 1401 05f4 CA040000 		.4byte	0x4ca
 1402 05f8 48       		.byte	0x48
 1403 05f9 0A       		.uleb128 0xa
 1404 05fa 723700   		.ascii	"r7\000"
 1405 05fd 0F       		.byte	0xf
 1406 05fe 6F01     		.2byte	0x16f
 1407 0600 CA040000 		.4byte	0x4ca
 1408 0604 4C       		.byte	0x4c
 1409 0605 0A       		.uleb128 0xa
 1410 0606 723800   		.ascii	"r8\000"
 1411 0609 0F       		.byte	0xf
 1412 060a 7001     		.2byte	0x170
 1413 060c CA040000 		.4byte	0x4ca
 1414 0610 50       		.byte	0x50
 1415 0611 0A       		.uleb128 0xa
 1416 0612 723900   		.ascii	"r9\000"
 1417 0615 0F       		.byte	0xf
 1418 0616 7101     		.2byte	0x171
 1419 0618 CA040000 		.4byte	0x4ca
 1420 061c 54       		.byte	0x54
 1421 061d 0A       		.uleb128 0xa
 1422 061e 72313000 		.ascii	"r10\000"
 1423 0622 0F       		.byte	0xf
 1424 0623 7201     		.2byte	0x172
 1425 0625 CA040000 		.4byte	0x4ca
ARM GAS  /tmp/ccIJOfrC.s 			page 26


 1426 0629 58       		.byte	0x58
 1427 062a 0A       		.uleb128 0xa
 1428 062b 72313100 		.ascii	"r11\000"
 1429 062f 0F       		.byte	0xf
 1430 0630 7301     		.2byte	0x173
 1431 0632 CA040000 		.4byte	0x4ca
 1432 0636 5C       		.byte	0x5c
 1433 0637 0A       		.uleb128 0xa
 1434 0638 6C7200   		.ascii	"lr\000"
 1435 063b 0F       		.byte	0xf
 1436 063c 7401     		.2byte	0x174
 1437 063e CA040000 		.4byte	0x4ca
 1438 0642 60       		.byte	0x60
 1439 0643 00       		.byte	0
 1440 0644 0C       		.uleb128 0xc
 1441 0645 04       		.byte	0x4
 1442 0646 F8040000 		.4byte	0x4f8
 1443 064a 15       		.uleb128 0x15
 1444 064b 04       		.byte	0x4
 1445 064c 10       		.byte	0x10
 1446 064d 38       		.byte	0x38
 1447 064e 5F060000 		.4byte	0x65f
 1448 0652 08       		.uleb128 0x8
 1449 0653 45070000 		.4byte	.LASF84
 1450 0657 10       		.byte	0x10
 1451 0658 3C       		.byte	0x3c
 1452 0659 F5000000 		.4byte	0xf5
 1453 065d 00       		.byte	0
 1454 065e 00       		.byte	0
 1455 065f 03       		.uleb128 0x3
 1456 0660 13050000 		.4byte	.LASF85
 1457 0664 10       		.byte	0x10
 1458 0665 3D       		.byte	0x3d
 1459 0666 4A060000 		.4byte	0x64a
 1460 066a 16       		.uleb128 0x16
 1461 066b 04       		.byte	0x4
 1462 066c 01       		.byte	0x1
 1463 066d C6       		.byte	0xc6
 1464 066e CC060000 		.4byte	0x6cc
 1465 0672 17       		.uleb128 0x17
 1466 0673 1A000000 		.4byte	.LASF86
 1467 0677 01       		.byte	0x1
 1468 0678 CD       		.byte	0xcd
 1469 0679 2C010000 		.4byte	0x12c
 1470 067d 17       		.uleb128 0x17
 1471 067e C1000000 		.4byte	.LASF87
 1472 0682 01       		.byte	0x1
 1473 0683 D4       		.byte	0xd4
 1474 0684 2C010000 		.4byte	0x12c
 1475 0688 17       		.uleb128 0x17
 1476 0689 41080000 		.4byte	.LASF88
 1477 068d 01       		.byte	0x1
 1478 068e DB       		.byte	0xdb
 1479 068f 2E030000 		.4byte	0x32e
 1480 0693 17       		.uleb128 0x17
 1481 0694 9F030000 		.4byte	.LASF89
 1482 0698 01       		.byte	0x1
ARM GAS  /tmp/ccIJOfrC.s 			page 27


 1483 0699 E2       		.byte	0xe2
 1484 069a CC060000 		.4byte	0x6cc
 1485 069e 17       		.uleb128 0x17
 1486 069f D5000000 		.4byte	.LASF90
 1487 06a3 01       		.byte	0x1
 1488 06a4 E7       		.byte	0xe7
 1489 06a5 2C010000 		.4byte	0x12c
 1490 06a9 17       		.uleb128 0x17
 1491 06aa 8D030000 		.4byte	.LASF91
 1492 06ae 01       		.byte	0x1
 1493 06af F0       		.byte	0xf0
 1494 06b0 F7060000 		.4byte	0x6f7
 1495 06b4 17       		.uleb128 0x17
 1496 06b5 77060000 		.4byte	.LASF92
 1497 06b9 01       		.byte	0x1
 1498 06ba F9       		.byte	0xf9
 1499 06bb 3A070000 		.4byte	0x73a
 1500 06bf 18       		.uleb128 0x18
 1501 06c0 F4050000 		.4byte	.LASF93
 1502 06c4 01       		.byte	0x1
 1503 06c5 0101     		.2byte	0x101
 1504 06c7 37010000 		.4byte	0x137
 1505 06cb 00       		.byte	0
 1506 06cc 0C       		.uleb128 0xc
 1507 06cd 04       		.byte	0x4
 1508 06ce 41020000 		.4byte	0x241
 1509 06d2 07       		.uleb128 0x7
 1510 06d3 3D060000 		.4byte	.LASF94
 1511 06d7 0C       		.byte	0xc
 1512 06d8 11       		.byte	0x11
 1513 06d9 34       		.byte	0x34
 1514 06da F7060000 		.4byte	0x6f7
 1515 06de 08       		.uleb128 0x8
 1516 06df C9030000 		.4byte	.LASF31
 1517 06e3 11       		.byte	0x11
 1518 06e4 35       		.byte	0x35
 1519 06e5 76020000 		.4byte	0x276
 1520 06e9 00       		.byte	0
 1521 06ea 09       		.uleb128 0x9
 1522 06eb 636E7400 		.ascii	"cnt\000"
 1523 06ef 11       		.byte	0x11
 1524 06f0 37       		.byte	0x37
 1525 06f1 42010000 		.4byte	0x142
 1526 06f5 08       		.byte	0x8
 1527 06f6 00       		.byte	0
 1528 06f7 0C       		.uleb128 0xc
 1529 06f8 04       		.byte	0x4
 1530 06f9 D2060000 		.4byte	0x6d2
 1531 06fd 07       		.uleb128 0x7
 1532 06fe 4C070000 		.4byte	.LASF95
 1533 0702 14       		.byte	0x14
 1534 0703 04       		.byte	0x4
 1535 0704 39       		.byte	0x39
 1536 0705 3A070000 		.4byte	0x73a
 1537 0709 08       		.uleb128 0x8
 1538 070a C9030000 		.4byte	.LASF31
 1539 070e 04       		.byte	0x4
ARM GAS  /tmp/ccIJOfrC.s 			page 28


 1540 070f 3A       		.byte	0x3a
 1541 0710 76020000 		.4byte	0x276
 1542 0714 00       		.byte	0
 1543 0715 08       		.uleb128 0x8
 1544 0716 9A060000 		.4byte	.LASF96
 1545 071a 04       		.byte	0x4
 1546 071b 3C       		.byte	0x3c
 1547 071c 4C020000 		.4byte	0x24c
 1548 0720 08       		.byte	0x8
 1549 0721 08       		.uleb128 0x8
 1550 0722 0E010000 		.4byte	.LASF50
 1551 0726 04       		.byte	0x4
 1552 0727 3E       		.byte	0x3e
 1553 0728 9C080000 		.4byte	0x89c
 1554 072c 0C       		.byte	0xc
 1555 072d 09       		.uleb128 0x9
 1556 072e 636E7400 		.ascii	"cnt\000"
 1557 0732 04       		.byte	0x4
 1558 0733 41       		.byte	0x41
 1559 0734 42010000 		.4byte	0x142
 1560 0738 10       		.byte	0x10
 1561 0739 00       		.byte	0
 1562 073a 0C       		.uleb128 0xc
 1563 073b 04       		.byte	0x4
 1564 073c FD060000 		.4byte	0x6fd
 1565 0740 0C       		.uleb128 0xc
 1566 0741 04       		.byte	0x4
 1567 0742 52070000 		.4byte	0x752
 1568 0746 06       		.uleb128 0x6
 1569 0747 40070000 		.4byte	0x740
 1570 074b 04       		.uleb128 0x4
 1571 074c 01       		.byte	0x1
 1572 074d 08       		.byte	0x8
 1573 074e CC060000 		.4byte	.LASF97
 1574 0752 05       		.uleb128 0x5
 1575 0753 4B070000 		.4byte	0x74b
 1576 0757 0C       		.uleb128 0xc
 1577 0758 04       		.byte	0x4
 1578 0759 D5040000 		.4byte	0x4d5
 1579 075d 0C       		.uleb128 0xc
 1580 075e 04       		.byte	0x4
 1581 075f 30030000 		.4byte	0x330
 1582 0763 19       		.uleb128 0x19
 1583 0764 636800   		.ascii	"ch\000"
 1584 0767 01       		.byte	0x1
 1585 0768 C701     		.2byte	0x1c7
 1586 076a FD030000 		.4byte	0x3fd
 1587 076e 13       		.uleb128 0x13
 1588 076f D5040000 		.4byte	0x4d5
 1589 0773 79070000 		.4byte	0x779
 1590 0777 1A       		.uleb128 0x1a
 1591 0778 00       		.byte	0
 1592 0779 11       		.uleb128 0x11
 1593 077a 53060000 		.4byte	.LASF98
 1594 077e 12       		.byte	0x12
 1595 077f 1701     		.2byte	0x117
 1596 0781 6E070000 		.4byte	0x76e
ARM GAS  /tmp/ccIJOfrC.s 			page 29


 1597 0785 15       		.uleb128 0x15
 1598 0786 16       		.byte	0x16
 1599 0787 13       		.byte	0x13
 1600 0788 34       		.byte	0x34
 1601 0789 66080000 		.4byte	0x866
 1602 078d 08       		.uleb128 0x8
 1603 078e 72070000 		.4byte	.LASF99
 1604 0792 13       		.byte	0x13
 1605 0793 35       		.byte	0x35
 1606 0794 66080000 		.4byte	0x866
 1607 0798 00       		.byte	0
 1608 0799 08       		.uleb128 0x8
 1609 079a 26030000 		.4byte	.LASF100
 1610 079e 13       		.byte	0x13
 1611 079f 36       		.byte	0x36
 1612 07a0 B4000000 		.4byte	0xb4
 1613 07a4 04       		.byte	0x4
 1614 07a5 08       		.uleb128 0x8
 1615 07a6 4D010000 		.4byte	.LASF101
 1616 07aa 13       		.byte	0x13
 1617 07ab 37       		.byte	0x37
 1618 07ac B4000000 		.4byte	0xb4
 1619 07b0 05       		.byte	0x5
 1620 07b1 08       		.uleb128 0x8
 1621 07b2 81040000 		.4byte	.LASF102
 1622 07b6 13       		.byte	0x13
 1623 07b7 38       		.byte	0x38
 1624 07b8 C4000000 		.4byte	0xc4
 1625 07bc 06       		.byte	0x6
 1626 07bd 08       		.uleb128 0x8
 1627 07be A9070000 		.4byte	.LASF103
 1628 07c2 13       		.byte	0x13
 1629 07c3 39       		.byte	0x39
 1630 07c4 B4000000 		.4byte	0xb4
 1631 07c8 08       		.byte	0x8
 1632 07c9 08       		.uleb128 0x8
 1633 07ca 65060000 		.4byte	.LASF104
 1634 07ce 13       		.byte	0x13
 1635 07cf 3A       		.byte	0x3a
 1636 07d0 B4000000 		.4byte	0xb4
 1637 07d4 09       		.byte	0x9
 1638 07d5 08       		.uleb128 0x8
 1639 07d6 13010000 		.4byte	.LASF105
 1640 07da 13       		.byte	0x13
 1641 07db 3B       		.byte	0x3b
 1642 07dc B4000000 		.4byte	0xb4
 1643 07e0 0A       		.byte	0xa
 1644 07e1 08       		.uleb128 0x8
 1645 07e2 CB050000 		.4byte	.LASF106
 1646 07e6 13       		.byte	0x13
 1647 07e7 3C       		.byte	0x3c
 1648 07e8 B4000000 		.4byte	0xb4
 1649 07ec 0B       		.byte	0xb
 1650 07ed 08       		.uleb128 0x8
 1651 07ee 1E040000 		.4byte	.LASF107
 1652 07f2 13       		.byte	0x13
 1653 07f3 3D       		.byte	0x3d
ARM GAS  /tmp/ccIJOfrC.s 			page 30


 1654 07f4 B4000000 		.4byte	0xb4
 1655 07f8 0C       		.byte	0xc
 1656 07f9 08       		.uleb128 0x8
 1657 07fa EE040000 		.4byte	.LASF108
 1658 07fe 13       		.byte	0x13
 1659 07ff 3E       		.byte	0x3e
 1660 0800 B4000000 		.4byte	0xb4
 1661 0804 0D       		.byte	0xd
 1662 0805 08       		.uleb128 0x8
 1663 0806 55070000 		.4byte	.LASF109
 1664 080a 13       		.byte	0x13
 1665 080b 3F       		.byte	0x3f
 1666 080c B4000000 		.4byte	0xb4
 1667 0810 0E       		.byte	0xe
 1668 0811 08       		.uleb128 0x8
 1669 0812 12080000 		.4byte	.LASF110
 1670 0816 13       		.byte	0x13
 1671 0817 40       		.byte	0x40
 1672 0818 B4000000 		.4byte	0xb4
 1673 081c 0F       		.byte	0xf
 1674 081d 08       		.uleb128 0x8
 1675 081e D4050000 		.4byte	.LASF111
 1676 0822 13       		.byte	0x13
 1677 0823 41       		.byte	0x41
 1678 0824 B4000000 		.4byte	0xb4
 1679 0828 10       		.byte	0x10
 1680 0829 08       		.uleb128 0x8
 1681 082a 69080000 		.4byte	.LASF112
 1682 082e 13       		.byte	0x13
 1683 082f 42       		.byte	0x42
 1684 0830 B4000000 		.4byte	0xb4
 1685 0834 11       		.byte	0x11
 1686 0835 08       		.uleb128 0x8
 1687 0836 C3080000 		.4byte	.LASF113
 1688 083a 13       		.byte	0x13
 1689 083b 43       		.byte	0x43
 1690 083c B4000000 		.4byte	0xb4
 1691 0840 12       		.byte	0x12
 1692 0841 08       		.uleb128 0x8
 1693 0842 D5030000 		.4byte	.LASF114
 1694 0846 13       		.byte	0x13
 1695 0847 44       		.byte	0x44
 1696 0848 B4000000 		.4byte	0xb4
 1697 084c 13       		.byte	0x13
 1698 084d 08       		.uleb128 0x8
 1699 084e CE020000 		.4byte	.LASF115
 1700 0852 13       		.byte	0x13
 1701 0853 45       		.byte	0x45
 1702 0854 B4000000 		.4byte	0xb4
 1703 0858 14       		.byte	0x14
 1704 0859 08       		.uleb128 0x8
 1705 085a 4A060000 		.4byte	.LASF116
 1706 085e 13       		.byte	0x13
 1707 085f 46       		.byte	0x46
 1708 0860 B4000000 		.4byte	0xb4
 1709 0864 15       		.byte	0x15
 1710 0865 00       		.byte	0
ARM GAS  /tmp/ccIJOfrC.s 			page 31


 1711 0866 13       		.uleb128 0x13
 1712 0867 4B070000 		.4byte	0x74b
 1713 086b 76080000 		.4byte	0x876
 1714 086f 14       		.uleb128 0x14
 1715 0870 6C040000 		.4byte	0x46c
 1716 0874 03       		.byte	0x3
 1717 0875 00       		.byte	0
 1718 0876 03       		.uleb128 0x3
 1719 0877 C4020000 		.4byte	.LASF117
 1720 087b 13       		.byte	0x13
 1721 087c 47       		.byte	0x47
 1722 087d 85070000 		.4byte	0x785
 1723 0881 05       		.uleb128 0x5
 1724 0882 76080000 		.4byte	0x876
 1725 0886 12       		.uleb128 0x12
 1726 0887 A5030000 		.4byte	.LASF118
 1727 088b 13       		.byte	0x13
 1728 088c 6C       		.byte	0x6c
 1729 088d 81080000 		.4byte	0x881
 1730 0891 03       		.uleb128 0x3
 1731 0892 2B030000 		.4byte	.LASF119
 1732 0896 04       		.byte	0x4
 1733 0897 34       		.byte	0x34
 1734 0898 FD060000 		.4byte	0x6fd
 1735 089c 0C       		.uleb128 0xc
 1736 089d 04       		.byte	0x4
 1737 089e 91080000 		.4byte	0x891
 1738 08a2 07       		.uleb128 0x7
 1739 08a3 BC040000 		.4byte	.LASF120
 1740 08a7 08       		.byte	0x8
 1741 08a8 14       		.byte	0x14
 1742 08a9 3B       		.byte	0x3b
 1743 08aa BB080000 		.4byte	0x8bb
 1744 08ae 08       		.uleb128 0x8
 1745 08af C9030000 		.4byte	.LASF31
 1746 08b3 14       		.byte	0x14
 1747 08b4 3C       		.byte	0x3c
 1748 08b5 76020000 		.4byte	0x276
 1749 08b9 00       		.byte	0
 1750 08ba 00       		.byte	0
 1751 08bb 03       		.uleb128 0x3
 1752 08bc 38010000 		.4byte	.LASF121
 1753 08c0 14       		.byte	0x14
 1754 08c1 3E       		.byte	0x3e
 1755 08c2 A2080000 		.4byte	0x8a2
 1756 08c6 04       		.uleb128 0x4
 1757 08c7 01       		.byte	0x1
 1758 08c8 02       		.byte	0x2
 1759 08c9 AF050000 		.4byte	.LASF122
 1760 08cd 03       		.uleb128 0x3
 1761 08ce 8C000000 		.4byte	.LASF123
 1762 08d2 15       		.byte	0x15
 1763 08d3 47       		.byte	0x47
 1764 08d4 D8080000 		.4byte	0x8d8
 1765 08d8 0C       		.uleb128 0xc
 1766 08d9 04       		.byte	0x4
 1767 08da DE080000 		.4byte	0x8de
ARM GAS  /tmp/ccIJOfrC.s 			page 32


 1768 08de 1B       		.uleb128 0x1b
 1769 08df 2E030000 		.4byte	0x32e
 1770 08e3 F2080000 		.4byte	0x8f2
 1771 08e7 0F       		.uleb128 0xf
 1772 08e8 2C000000 		.4byte	0x2c
 1773 08ec 0F       		.uleb128 0xf
 1774 08ed 37000000 		.4byte	0x37
 1775 08f1 00       		.byte	0
 1776 08f2 15       		.uleb128 0x15
 1777 08f3 08       		.byte	0x8
 1778 08f4 15       		.byte	0x15
 1779 08f5 51       		.byte	0x51
 1780 08f6 13090000 		.4byte	0x913
 1781 08fa 08       		.uleb128 0x8
 1782 08fb 01090000 		.4byte	.LASF124
 1783 08ff 15       		.byte	0x15
 1784 0900 55       		.byte	0x55
 1785 0901 13090000 		.4byte	0x913
 1786 0905 00       		.byte	0
 1787 0906 08       		.uleb128 0x8
 1788 0907 56040000 		.4byte	.LASF125
 1789 090b 15       		.byte	0x15
 1790 090c 59       		.byte	0x59
 1791 090d 13090000 		.4byte	0x913
 1792 0911 04       		.byte	0x4
 1793 0912 00       		.byte	0
 1794 0913 0C       		.uleb128 0xc
 1795 0914 04       		.byte	0x4
 1796 0915 B4000000 		.4byte	0xb4
 1797 0919 03       		.uleb128 0x3
 1798 091a 55050000 		.4byte	.LASF126
 1799 091e 15       		.byte	0x15
 1800 091f 5A       		.byte	0x5a
 1801 0920 F2080000 		.4byte	0x8f2
 1802 0924 12       		.uleb128 0x12
 1803 0925 94030000 		.4byte	.LASF127
 1804 0929 15       		.byte	0x15
 1805 092a 65       		.byte	0x65
 1806 092b 19090000 		.4byte	0x919
 1807 092f 07       		.uleb128 0x7
 1808 0930 D4070000 		.4byte	.LASF128
 1809 0934 04       		.byte	0x4
 1810 0935 16       		.byte	0x16
 1811 0936 38       		.byte	0x38
 1812 0937 48090000 		.4byte	0x948
 1813 093b 08       		.uleb128 0x8
 1814 093c 0E010000 		.4byte	.LASF50
 1815 0940 16       		.byte	0x16
 1816 0941 39       		.byte	0x39
 1817 0942 48090000 		.4byte	0x948
 1818 0946 00       		.byte	0
 1819 0947 00       		.byte	0
 1820 0948 0C       		.uleb128 0xc
 1821 0949 04       		.byte	0x4
 1822 094a 2F090000 		.4byte	0x92f
 1823 094e 15       		.uleb128 0x15
 1824 094f 10       		.byte	0x10
ARM GAS  /tmp/ccIJOfrC.s 			page 33


 1825 0950 16       		.byte	0x16
 1826 0951 40       		.byte	0x40
 1827 0952 87090000 		.4byte	0x987
 1828 0956 08       		.uleb128 0x8
 1829 0957 0E010000 		.4byte	.LASF50
 1830 095b 16       		.byte	0x16
 1831 095c 41       		.byte	0x41
 1832 095d 48090000 		.4byte	0x948
 1833 0961 00       		.byte	0
 1834 0962 08       		.uleb128 0x8
 1835 0963 9D070000 		.4byte	.LASF129
 1836 0967 16       		.byte	0x16
 1837 0968 42       		.byte	0x42
 1838 0969 2C000000 		.4byte	0x2c
 1839 096d 04       		.byte	0x4
 1840 096e 08       		.uleb128 0x8
 1841 096f 33030000 		.4byte	.LASF130
 1842 0973 16       		.byte	0x16
 1843 0974 44       		.byte	0x44
 1844 0975 37000000 		.4byte	0x37
 1845 0979 08       		.byte	0x8
 1846 097a 08       		.uleb128 0x8
 1847 097b 65000000 		.4byte	.LASF131
 1848 097f 16       		.byte	0x16
 1849 0980 45       		.byte	0x45
 1850 0981 CD080000 		.4byte	0x8cd
 1851 0985 0C       		.byte	0xc
 1852 0986 00       		.byte	0
 1853 0987 03       		.uleb128 0x3
 1854 0988 B6030000 		.4byte	.LASF132
 1855 098c 16       		.byte	0x16
 1856 098d 47       		.byte	0x47
 1857 098e 4E090000 		.4byte	0x94e
 1858 0992 07       		.uleb128 0x7
 1859 0993 7C050000 		.4byte	.LASF133
 1860 0997 10       		.byte	0x10
 1861 0998 17       		.byte	0x17
 1862 0999 A9       		.byte	0xa9
 1863 099a C3090000 		.4byte	0x9c3
 1864 099e 08       		.uleb128 0x8
 1865 099f 0E010000 		.4byte	.LASF50
 1866 09a3 17       		.byte	0x17
 1867 09a4 AD       		.byte	0xad
 1868 09a5 C3090000 		.4byte	0x9c3
 1869 09a9 00       		.byte	0
 1870 09aa 08       		.uleb128 0x8
 1871 09ab 67050000 		.4byte	.LASF39
 1872 09af 17       		.byte	0x17
 1873 09b0 B1       		.byte	0xb1
 1874 09b1 4D010000 		.4byte	0x14d
 1875 09b5 04       		.byte	0x4
 1876 09b6 08       		.uleb128 0x8
 1877 09b7 C4030000 		.4byte	.LASF35
 1878 09bb 17       		.byte	0x17
 1879 09bc B3       		.byte	0xb3
 1880 09bd C9090000 		.4byte	0x9c9
 1881 09c1 08       		.byte	0x8
ARM GAS  /tmp/ccIJOfrC.s 			page 34


 1882 09c2 00       		.byte	0
 1883 09c3 0C       		.uleb128 0xc
 1884 09c4 04       		.byte	0x4
 1885 09c5 92090000 		.4byte	0x992
 1886 09c9 13       		.uleb128 0x13
 1887 09ca 4B070000 		.4byte	0x74b
 1888 09ce D9090000 		.4byte	0x9d9
 1889 09d2 14       		.uleb128 0x14
 1890 09d3 6C040000 		.4byte	0x46c
 1891 09d7 07       		.byte	0x7
 1892 09d8 00       		.byte	0
 1893 09d9 03       		.uleb128 0x3
 1894 09da 00010000 		.4byte	.LASF134
 1895 09de 17       		.byte	0x17
 1896 09df B7       		.byte	0xb7
 1897 09e0 92090000 		.4byte	0x992
 1898 09e4 07       		.uleb128 0x7
 1899 09e5 E2040000 		.4byte	.LASF135
 1900 09e9 04       		.byte	0x4
 1901 09ea 17       		.byte	0x17
 1902 09eb BC       		.byte	0xbc
 1903 09ec FD090000 		.4byte	0x9fd
 1904 09f0 08       		.uleb128 0x8
 1905 09f1 0E010000 		.4byte	.LASF50
 1906 09f5 17       		.byte	0x17
 1907 09f6 BD       		.byte	0xbd
 1908 09f7 FD090000 		.4byte	0x9fd
 1909 09fb 00       		.byte	0
 1910 09fc 00       		.byte	0
 1911 09fd 0C       		.uleb128 0xc
 1912 09fe 04       		.byte	0x4
 1913 09ff D9090000 		.4byte	0x9d9
 1914 0a03 03       		.uleb128 0x3
 1915 0a04 07040000 		.4byte	.LASF136
 1916 0a08 17       		.byte	0x17
 1917 0a09 BE       		.byte	0xbe
 1918 0a0a E4090000 		.4byte	0x9e4
 1919 0a0e 0D       		.uleb128 0xd
 1920 0a0f B1070000 		.4byte	.LASF137
 1921 0a13 48       		.byte	0x48
 1922 0a14 17       		.byte	0x17
 1923 0a15 3E01     		.2byte	0x13e
 1924 0a17 840A0000 		.4byte	0xa84
 1925 0a1b 0A       		.uleb128 0xa
 1926 0a1c 6D747800 		.ascii	"mtx\000"
 1927 0a20 17       		.byte	0x17
 1928 0a21 4301     		.2byte	0x143
 1929 0a23 91080000 		.4byte	0x891
 1930 0a27 00       		.byte	0
 1931 0a28 0B       		.uleb128 0xb
 1932 0a29 D7060000 		.4byte	.LASF138
 1933 0a2d 17       		.byte	0x17
 1934 0a2e 4A01     		.2byte	0x14a
 1935 0a30 030A0000 		.4byte	0xa03
 1936 0a34 14       		.byte	0x14
 1937 0a35 0B       		.uleb128 0xb
 1938 0a36 23060000 		.4byte	.LASF139
ARM GAS  /tmp/ccIJOfrC.s 			page 35


 1939 0a3a 17       		.byte	0x17
 1940 0a3b 4E01     		.2byte	0x14e
 1941 0a3d 87090000 		.4byte	0x987
 1942 0a41 18       		.byte	0x18
 1943 0a42 0B       		.uleb128 0xb
 1944 0a43 DE030000 		.4byte	.LASF140
 1945 0a47 17       		.byte	0x17
 1946 0a48 5301     		.2byte	0x153
 1947 0a4a 030A0000 		.4byte	0xa03
 1948 0a4e 28       		.byte	0x28
 1949 0a4f 0B       		.uleb128 0xb
 1950 0a50 79000000 		.4byte	.LASF141
 1951 0a54 17       		.byte	0x17
 1952 0a55 5901     		.2byte	0x159
 1953 0a57 030A0000 		.4byte	0xa03
 1954 0a5b 2C       		.byte	0x2c
 1955 0a5c 0B       		.uleb128 0xb
 1956 0a5d 39050000 		.4byte	.LASF142
 1957 0a61 17       		.byte	0x17
 1958 0a62 5D01     		.2byte	0x15d
 1959 0a64 87090000 		.4byte	0x987
 1960 0a68 30       		.byte	0x30
 1961 0a69 0B       		.uleb128 0xb
 1962 0a6a FF020000 		.4byte	.LASF143
 1963 0a6e 17       		.byte	0x17
 1964 0a6f 6301     		.2byte	0x163
 1965 0a71 030A0000 		.4byte	0xa03
 1966 0a75 40       		.byte	0x40
 1967 0a76 0B       		.uleb128 0xb
 1968 0a77 37080000 		.4byte	.LASF144
 1969 0a7b 17       		.byte	0x17
 1970 0a7c 6901     		.2byte	0x169
 1971 0a7e 030A0000 		.4byte	0xa03
 1972 0a82 44       		.byte	0x44
 1973 0a83 00       		.byte	0
 1974 0a84 1C       		.uleb128 0x1c
 1975 0a85 94080000 		.4byte	.LASF145
 1976 0a89 17       		.byte	0x17
 1977 0a8a 7101     		.2byte	0x171
 1978 0a8c 0E0A0000 		.4byte	0xa0e
 1979 0a90 11       		.uleb128 0x11
 1980 0a91 0E060000 		.4byte	.LASF146
 1981 0a95 17       		.byte	0x17
 1982 0a96 7C01     		.2byte	0x17c
 1983 0a98 840A0000 		.4byte	0xa84
 1984 0a9c 1D       		.uleb128 0x1d
 1985 0a9d CF040000 		.4byte	.LASF148
 1986 0aa1 02       		.byte	0x2
 1987 0aa2 2701     		.2byte	0x127
 1988 0aa4 2C010000 		.4byte	0x12c
 1989 0aa8 00000000 		.4byte	.LFB298
 1990 0aac 38000000 		.4byte	.LFE298-.LFB298
 1991 0ab0 01       		.uleb128 0x1
 1992 0ab1 9C       		.byte	0x9c
 1993 0ab2 750B0000 		.4byte	0xb75
 1994 0ab6 1E       		.uleb128 0x1e
 1995 0ab7 637000   		.ascii	"cp\000"
ARM GAS  /tmp/ccIJOfrC.s 			page 36


 1996 0aba 02       		.byte	0x2
 1997 0abb 2701     		.2byte	0x127
 1998 0abd 750B0000 		.4byte	0xb75
 1999 0ac1 00000000 		.4byte	.LLST25
 2000 0ac5 1F       		.uleb128 0x1f
 2001 0ac6 AE030000 		.4byte	.LASF147
 2002 0aca 02       		.byte	0x2
 2003 0acb 2701     		.2byte	0x127
 2004 0acd 61040000 		.4byte	0x461
 2005 0ad1 2C000000 		.4byte	.LLST26
 2006 0ad5 20       		.uleb128 0x20
 2007 0ad6 6D7000   		.ascii	"mp\000"
 2008 0ad9 02       		.byte	0x2
 2009 0ada 2801     		.2byte	0x128
 2010 0adc 9C080000 		.4byte	0x89c
 2011 0ae0 21       		.uleb128 0x21
 2012 0ae1 6D736700 		.ascii	"msg\000"
 2013 0ae5 02       		.byte	0x2
 2014 0ae6 2901     		.2byte	0x129
 2015 0ae8 2C010000 		.4byte	0x12c
 2016 0aec 58000000 		.4byte	.LLST27
 2017 0af0 22       		.uleb128 0x22
 2018 0af1 05060000 		.4byte	.LASF151
 2019 0af5 8B0B0000 		.4byte	0xb8b
 2020 0af9 23       		.uleb128 0x23
 2021 0afa 9E110000 		.4byte	0x119e
 2022 0afe 02000000 		.4byte	.LBB129
 2023 0b02 06000000 		.4byte	.LBE129-.LBB129
 2024 0b06 02       		.byte	0x2
 2025 0b07 2801     		.2byte	0x128
 2026 0b09 1D0B0000 		.4byte	0xb1d
 2027 0b0d 24       		.uleb128 0x24
 2028 0b0e AA110000 		.4byte	0x11aa
 2029 0b12 02000000 		.4byte	.LBB131
 2030 0b16 02000000 		.4byte	.LBE131-.LBB131
 2031 0b1a 04       		.byte	0x4
 2032 0b1b A1       		.byte	0xa1
 2033 0b1c 00       		.byte	0
 2034 0b1d 25       		.uleb128 0x25
 2035 0b1e 12000000 		.4byte	.LVL44
 2036 0b22 B5120000 		.4byte	0x12b5
 2037 0b26 310B0000 		.4byte	0xb31
 2038 0b2a 26       		.uleb128 0x26
 2039 0b2b 01       		.uleb128 0x1
 2040 0b2c 50       		.byte	0x50
 2041 0b2d 02       		.uleb128 0x2
 2042 0b2e 75       		.byte	0x75
 2043 0b2f 00       		.sleb128 0
 2044 0b30 00       		.byte	0
 2045 0b31 25       		.uleb128 0x25
 2046 0b32 1C000000 		.4byte	.LVL45
 2047 0b36 0A120000 		.4byte	0x120a
 2048 0b3a 4B0B0000 		.4byte	0xb4b
 2049 0b3e 26       		.uleb128 0x26
 2050 0b3f 01       		.uleb128 0x1
 2051 0b40 50       		.byte	0x50
 2052 0b41 02       		.uleb128 0x2
ARM GAS  /tmp/ccIJOfrC.s 			page 37


 2053 0b42 70       		.byte	0x70
 2054 0b43 00       		.sleb128 0
 2055 0b44 26       		.uleb128 0x26
 2056 0b45 01       		.uleb128 0x1
 2057 0b46 51       		.byte	0x51
 2058 0b47 02       		.uleb128 0x2
 2059 0b48 74       		.byte	0x74
 2060 0b49 00       		.sleb128 0
 2061 0b4a 00       		.byte	0
 2062 0b4b 25       		.uleb128 0x25
 2063 0b4c 24000000 		.4byte	.LVL46
 2064 0b50 C0120000 		.4byte	0x12c0
 2065 0b54 640B0000 		.4byte	0xb64
 2066 0b58 26       		.uleb128 0x26
 2067 0b59 01       		.uleb128 0x1
 2068 0b5a 50       		.byte	0x50
 2069 0b5b 01       		.uleb128 0x1
 2070 0b5c 37       		.byte	0x37
 2071 0b5d 26       		.uleb128 0x26
 2072 0b5e 01       		.uleb128 0x1
 2073 0b5f 51       		.byte	0x51
 2074 0b60 02       		.uleb128 0x2
 2075 0b61 77       		.byte	0x77
 2076 0b62 00       		.sleb128 0
 2077 0b63 00       		.byte	0
 2078 0b64 27       		.uleb128 0x27
 2079 0b65 30000000 		.4byte	.LVL49
 2080 0b69 CC120000 		.4byte	0x12cc
 2081 0b6d 26       		.uleb128 0x26
 2082 0b6e 01       		.uleb128 0x1
 2083 0b6f 50       		.byte	0x50
 2084 0b70 02       		.uleb128 0x2
 2085 0b71 75       		.byte	0x75
 2086 0b72 00       		.sleb128 0
 2087 0b73 00       		.byte	0
 2088 0b74 00       		.byte	0
 2089 0b75 0C       		.uleb128 0xc
 2090 0b76 04       		.byte	0x4
 2091 0b77 BB080000 		.4byte	0x8bb
 2092 0b7b 13       		.uleb128 0x13
 2093 0b7c 52070000 		.4byte	0x752
 2094 0b80 8B0B0000 		.4byte	0xb8b
 2095 0b84 14       		.uleb128 0x14
 2096 0b85 6C040000 		.4byte	0x46c
 2097 0b89 12       		.byte	0x12
 2098 0b8a 00       		.byte	0
 2099 0b8b 05       		.uleb128 0x5
 2100 0b8c 7B0B0000 		.4byte	0xb7b
 2101 0b90 1D       		.uleb128 0x1d
 2102 0b91 48080000 		.4byte	.LASF149
 2103 0b95 02       		.byte	0x2
 2104 0b96 0101     		.2byte	0x101
 2105 0b98 2C010000 		.4byte	0x12c
 2106 0b9c 00000000 		.4byte	.LFB297
 2107 0ba0 14000000 		.4byte	.LFE297-.LFB297
 2108 0ba4 01       		.uleb128 0x1
 2109 0ba5 9C       		.byte	0x9c
ARM GAS  /tmp/ccIJOfrC.s 			page 38


 2110 0ba6 7F0C0000 		.4byte	0xc7f
 2111 0baa 1E       		.uleb128 0x1e
 2112 0bab 637000   		.ascii	"cp\000"
 2113 0bae 02       		.byte	0x2
 2114 0baf 0101     		.2byte	0x101
 2115 0bb1 750B0000 		.4byte	0xb75
 2116 0bb5 81000000 		.4byte	.LLST28
 2117 0bb9 1F       		.uleb128 0x1f
 2118 0bba AE030000 		.4byte	.LASF147
 2119 0bbe 02       		.byte	0x2
 2120 0bbf 0101     		.2byte	0x101
 2121 0bc1 61040000 		.4byte	0x461
 2122 0bc5 A2000000 		.4byte	.LLST29
 2123 0bc9 28       		.uleb128 0x28
 2124 0bca 6D736700 		.ascii	"msg\000"
 2125 0bce 02       		.byte	0x2
 2126 0bcf 0201     		.2byte	0x102
 2127 0bd1 2C010000 		.4byte	0x12c
 2128 0bd5 01       		.uleb128 0x1
 2129 0bd6 50       		.byte	0x50
 2130 0bd7 23       		.uleb128 0x23
 2131 0bd8 D2110000 		.4byte	0x11d2
 2132 0bdc 02000000 		.4byte	.LBB133
 2133 0be0 06000000 		.4byte	.LBE133-.LBB133
 2134 0be4 02       		.byte	0x2
 2135 0be5 0401     		.2byte	0x104
 2136 0be7 170C0000 		.4byte	0xc17
 2137 0beb 29       		.uleb128 0x29
 2138 0bec 92120000 		.4byte	0x1292
 2139 0bf0 02000000 		.4byte	.LBB134
 2140 0bf4 06000000 		.4byte	.LBE134-.LBB134
 2141 0bf8 12       		.byte	0x12
 2142 0bf9 6301     		.2byte	0x163
 2143 0bfb 29       		.uleb128 0x29
 2144 0bfc 9B120000 		.4byte	0x129b
 2145 0c00 02000000 		.4byte	.LBB135
 2146 0c04 06000000 		.4byte	.LBE135-.LBB135
 2147 0c08 0F       		.byte	0xf
 2148 0c09 6202     		.2byte	0x262
 2149 0c0b 2A       		.uleb128 0x2a
 2150 0c0c A8120000 		.4byte	0x12a8
 2151 0c10 C3000000 		.4byte	.LLST30
 2152 0c14 00       		.byte	0
 2153 0c15 00       		.byte	0
 2154 0c16 00       		.byte	0
 2155 0c17 23       		.uleb128 0x23
 2156 0c18 B7110000 		.4byte	0x11b7
 2157 0c1c 0C000000 		.4byte	.LBB137
 2158 0c20 06000000 		.4byte	.LBE137-.LBB137
 2159 0c24 02       		.byte	0x2
 2160 0c25 0601     		.2byte	0x106
 2161 0c27 660C0000 		.4byte	0xc66
 2162 0c2b 2B       		.uleb128 0x2b
 2163 0c2c 0C000000 		.4byte	.LBB138
 2164 0c30 06000000 		.4byte	.LBE138-.LBB138
 2165 0c34 2C       		.uleb128 0x2c
 2166 0c35 C4110000 		.4byte	0x11c4
ARM GAS  /tmp/ccIJOfrC.s 			page 39


 2167 0c39 29       		.uleb128 0x29
 2168 0c3a 89120000 		.4byte	0x1289
 2169 0c3e 0C000000 		.4byte	.LBB139
 2170 0c42 06000000 		.4byte	.LBE139-.LBB139
 2171 0c46 12       		.byte	0x12
 2172 0c47 7A01     		.2byte	0x17a
 2173 0c49 29       		.uleb128 0x29
 2174 0c4a 9B120000 		.4byte	0x129b
 2175 0c4e 0C000000 		.4byte	.LBB140
 2176 0c52 06000000 		.4byte	.LBE140-.LBB140
 2177 0c56 0F       		.byte	0xf
 2178 0c57 7502     		.2byte	0x275
 2179 0c59 2A       		.uleb128 0x2a
 2180 0c5a A8120000 		.4byte	0x12a8
 2181 0c5e D8000000 		.4byte	.LLST31
 2182 0c62 00       		.byte	0
 2183 0c63 00       		.byte	0
 2184 0c64 00       		.byte	0
 2185 0c65 00       		.byte	0
 2186 0c66 27       		.uleb128 0x27
 2187 0c67 0C000000 		.4byte	.LVL53
 2188 0c6b 9C0A0000 		.4byte	0xa9c
 2189 0c6f 26       		.uleb128 0x26
 2190 0c70 01       		.uleb128 0x1
 2191 0c71 50       		.byte	0x50
 2192 0c72 03       		.uleb128 0x3
 2193 0c73 F3       		.byte	0xf3
 2194 0c74 01       		.uleb128 0x1
 2195 0c75 50       		.byte	0x50
 2196 0c76 26       		.uleb128 0x26
 2197 0c77 01       		.uleb128 0x1
 2198 0c78 51       		.byte	0x51
 2199 0c79 03       		.uleb128 0x3
 2200 0c7a F3       		.byte	0xf3
 2201 0c7b 01       		.uleb128 0x1
 2202 0c7c 51       		.byte	0x51
 2203 0c7d 00       		.byte	0
 2204 0c7e 00       		.byte	0
 2205 0c7f 2D       		.uleb128 0x2d
 2206 0c80 9B020000 		.4byte	.LASF150
 2207 0c84 02       		.byte	0x2
 2208 0c85 CD       		.byte	0xcd
 2209 0c86 2C010000 		.4byte	0x12c
 2210 0c8a 00000000 		.4byte	.LFB296
 2211 0c8e 30000000 		.4byte	.LFE296-.LFB296
 2212 0c92 01       		.uleb128 0x1
 2213 0c93 9C       		.byte	0x9c
 2214 0c94 380D0000 		.4byte	0xd38
 2215 0c98 2E       		.uleb128 0x2e
 2216 0c99 637000   		.ascii	"cp\000"
 2217 0c9c 02       		.byte	0x2
 2218 0c9d CD       		.byte	0xcd
 2219 0c9e 750B0000 		.4byte	0xb75
 2220 0ca2 EC000000 		.4byte	.LLST19
 2221 0ca6 2F       		.uleb128 0x2f
 2222 0ca7 63747000 		.ascii	"ctp\000"
 2223 0cab 02       		.byte	0x2
ARM GAS  /tmp/ccIJOfrC.s 			page 40


 2224 0cac CE       		.byte	0xce
 2225 0cad 4C020000 		.4byte	0x24c
 2226 0cb1 18010000 		.4byte	.LLST20
 2227 0cb5 30       		.uleb128 0x30
 2228 0cb6 6D7000   		.ascii	"mp\000"
 2229 0cb9 02       		.byte	0x2
 2230 0cba CF       		.byte	0xcf
 2231 0cbb 9C080000 		.4byte	0x89c
 2232 0cbf 2F       		.uleb128 0x2f
 2233 0cc0 6D736700 		.ascii	"msg\000"
 2234 0cc4 02       		.byte	0x2
 2235 0cc5 D0       		.byte	0xd0
 2236 0cc6 2C010000 		.4byte	0x12c
 2237 0cca 2B010000 		.4byte	.LLST21
 2238 0cce 22       		.uleb128 0x22
 2239 0ccf 05060000 		.4byte	.LASF151
 2240 0cd3 480D0000 		.4byte	0xd48
 2241 0cd7 24       		.uleb128 0x24
 2242 0cd8 9E110000 		.4byte	0x119e
 2243 0cdc 06000000 		.4byte	.LBB118
 2244 0ce0 02000000 		.4byte	.LBE118-.LBB118
 2245 0ce4 02       		.byte	0x2
 2246 0ce5 CF       		.byte	0xcf
 2247 0ce6 25       		.uleb128 0x25
 2248 0ce7 10000000 		.4byte	.LVL32
 2249 0ceb B5120000 		.4byte	0x12b5
 2250 0cef FA0C0000 		.4byte	0xcfa
 2251 0cf3 26       		.uleb128 0x26
 2252 0cf4 01       		.uleb128 0x1
 2253 0cf5 50       		.byte	0x50
 2254 0cf6 02       		.uleb128 0x2
 2255 0cf7 75       		.byte	0x75
 2256 0cf8 00       		.sleb128 0
 2257 0cf9 00       		.byte	0
 2258 0cfa 25       		.uleb128 0x25
 2259 0cfb 1A000000 		.4byte	.LVL33
 2260 0cff 0A120000 		.4byte	0x120a
 2261 0d03 140D0000 		.4byte	0xd14
 2262 0d07 26       		.uleb128 0x26
 2263 0d08 01       		.uleb128 0x1
 2264 0d09 50       		.byte	0x50
 2265 0d0a 02       		.uleb128 0x2
 2266 0d0b 74       		.byte	0x74
 2267 0d0c 00       		.sleb128 0
 2268 0d0d 26       		.uleb128 0x26
 2269 0d0e 01       		.uleb128 0x1
 2270 0d0f 51       		.byte	0x51
 2271 0d10 02       		.uleb128 0x2
 2272 0d11 76       		.byte	0x76
 2273 0d12 00       		.sleb128 0
 2274 0d13 00       		.byte	0
 2275 0d14 25       		.uleb128 0x25
 2276 0d15 20000000 		.4byte	.LVL34
 2277 0d19 D7120000 		.4byte	0x12d7
 2278 0d1d 270D0000 		.4byte	0xd27
 2279 0d21 26       		.uleb128 0x26
 2280 0d22 01       		.uleb128 0x1
ARM GAS  /tmp/ccIJOfrC.s 			page 41


 2281 0d23 50       		.byte	0x50
 2282 0d24 01       		.uleb128 0x1
 2283 0d25 37       		.byte	0x37
 2284 0d26 00       		.byte	0
 2285 0d27 27       		.uleb128 0x27
 2286 0d28 28000000 		.4byte	.LVL36
 2287 0d2c CC120000 		.4byte	0x12cc
 2288 0d30 26       		.uleb128 0x26
 2289 0d31 01       		.uleb128 0x1
 2290 0d32 50       		.byte	0x50
 2291 0d33 02       		.uleb128 0x2
 2292 0d34 75       		.byte	0x75
 2293 0d35 00       		.sleb128 0
 2294 0d36 00       		.byte	0
 2295 0d37 00       		.byte	0
 2296 0d38 13       		.uleb128 0x13
 2297 0d39 52070000 		.4byte	0x752
 2298 0d3d 480D0000 		.4byte	0xd48
 2299 0d41 14       		.uleb128 0x14
 2300 0d42 6C040000 		.4byte	0x46c
 2301 0d46 0B       		.byte	0xb
 2302 0d47 00       		.byte	0
 2303 0d48 05       		.uleb128 0x5
 2304 0d49 380D0000 		.4byte	0xd38
 2305 0d4d 2D       		.uleb128 0x2d
 2306 0d4e 85070000 		.4byte	.LASF152
 2307 0d52 02       		.byte	0x2
 2308 0d53 B3       		.byte	0xb3
 2309 0d54 2C010000 		.4byte	0x12c
 2310 0d58 00000000 		.4byte	.LFB295
 2311 0d5c 14000000 		.4byte	.LFE295-.LFB295
 2312 0d60 01       		.uleb128 0x1
 2313 0d61 9C       		.byte	0x9c
 2314 0d62 200E0000 		.4byte	0xe20
 2315 0d66 2E       		.uleb128 0x2e
 2316 0d67 637000   		.ascii	"cp\000"
 2317 0d6a 02       		.byte	0x2
 2318 0d6b B3       		.byte	0xb3
 2319 0d6c 750B0000 		.4byte	0xb75
 2320 0d70 49010000 		.4byte	.LLST22
 2321 0d74 31       		.uleb128 0x31
 2322 0d75 6D736700 		.ascii	"msg\000"
 2323 0d79 02       		.byte	0x2
 2324 0d7a B4       		.byte	0xb4
 2325 0d7b 2C010000 		.4byte	0x12c
 2326 0d7f 01       		.uleb128 0x1
 2327 0d80 50       		.byte	0x50
 2328 0d81 32       		.uleb128 0x32
 2329 0d82 D2110000 		.4byte	0x11d2
 2330 0d86 02000000 		.4byte	.LBB120
 2331 0d8a 06000000 		.4byte	.LBE120-.LBB120
 2332 0d8e 02       		.byte	0x2
 2333 0d8f B6       		.byte	0xb6
 2334 0d90 C00D0000 		.4byte	0xdc0
 2335 0d94 29       		.uleb128 0x29
 2336 0d95 92120000 		.4byte	0x1292
 2337 0d99 02000000 		.4byte	.LBB121
ARM GAS  /tmp/ccIJOfrC.s 			page 42


 2338 0d9d 06000000 		.4byte	.LBE121-.LBB121
 2339 0da1 12       		.byte	0x12
 2340 0da2 6301     		.2byte	0x163
 2341 0da4 29       		.uleb128 0x29
 2342 0da5 9B120000 		.4byte	0x129b
 2343 0da9 02000000 		.4byte	.LBB122
 2344 0dad 06000000 		.4byte	.LBE122-.LBB122
 2345 0db1 0F       		.byte	0xf
 2346 0db2 6202     		.2byte	0x262
 2347 0db4 2A       		.uleb128 0x2a
 2348 0db5 A8120000 		.4byte	0x12a8
 2349 0db9 6A010000 		.4byte	.LLST23
 2350 0dbd 00       		.byte	0
 2351 0dbe 00       		.byte	0
 2352 0dbf 00       		.byte	0
 2353 0dc0 32       		.uleb128 0x32
 2354 0dc1 B7110000 		.4byte	0x11b7
 2355 0dc5 0C000000 		.4byte	.LBB124
 2356 0dc9 06000000 		.4byte	.LBE124-.LBB124
 2357 0dcd 02       		.byte	0x2
 2358 0dce B8       		.byte	0xb8
 2359 0dcf 0E0E0000 		.4byte	0xe0e
 2360 0dd3 2B       		.uleb128 0x2b
 2361 0dd4 0C000000 		.4byte	.LBB125
 2362 0dd8 06000000 		.4byte	.LBE125-.LBB125
 2363 0ddc 2C       		.uleb128 0x2c
 2364 0ddd C4110000 		.4byte	0x11c4
 2365 0de1 29       		.uleb128 0x29
 2366 0de2 89120000 		.4byte	0x1289
 2367 0de6 0C000000 		.4byte	.LBB126
 2368 0dea 06000000 		.4byte	.LBE126-.LBB126
 2369 0dee 12       		.byte	0x12
 2370 0def 7A01     		.2byte	0x17a
 2371 0df1 29       		.uleb128 0x29
 2372 0df2 9B120000 		.4byte	0x129b
 2373 0df6 0C000000 		.4byte	.LBB127
 2374 0dfa 06000000 		.4byte	.LBE127-.LBB127
 2375 0dfe 0F       		.byte	0xf
 2376 0dff 7502     		.2byte	0x275
 2377 0e01 2A       		.uleb128 0x2a
 2378 0e02 A8120000 		.4byte	0x12a8
 2379 0e06 7F010000 		.4byte	.LLST24
 2380 0e0a 00       		.byte	0
 2381 0e0b 00       		.byte	0
 2382 0e0c 00       		.byte	0
 2383 0e0d 00       		.byte	0
 2384 0e0e 27       		.uleb128 0x27
 2385 0e0f 0C000000 		.4byte	.LVL40
 2386 0e13 7F0C0000 		.4byte	0xc7f
 2387 0e17 26       		.uleb128 0x26
 2388 0e18 01       		.uleb128 0x1
 2389 0e19 50       		.byte	0x50
 2390 0e1a 03       		.uleb128 0x3
 2391 0e1b F3       		.byte	0xf3
 2392 0e1c 01       		.uleb128 0x1
 2393 0e1d 50       		.byte	0x50
 2394 0e1e 00       		.byte	0
ARM GAS  /tmp/ccIJOfrC.s 			page 43


 2395 0e1f 00       		.byte	0
 2396 0e20 33       		.uleb128 0x33
 2397 0e21 99000000 		.4byte	.LASF153
 2398 0e25 02       		.byte	0x2
 2399 0e26 95       		.byte	0x95
 2400 0e27 00000000 		.4byte	.LFB294
 2401 0e2b 1E000000 		.4byte	.LFE294-.LFB294
 2402 0e2f 01       		.uleb128 0x1
 2403 0e30 9C       		.byte	0x9c
 2404 0e31 A30E0000 		.4byte	0xea3
 2405 0e35 2E       		.uleb128 0x2e
 2406 0e36 637000   		.ascii	"cp\000"
 2407 0e39 02       		.byte	0x2
 2408 0e3a 95       		.byte	0x95
 2409 0e3b 750B0000 		.4byte	0xb75
 2410 0e3f 93010000 		.4byte	.LLST12
 2411 0e43 22       		.uleb128 0x22
 2412 0e44 05060000 		.4byte	.LASF151
 2413 0e48 B30E0000 		.4byte	0xeb3
 2414 0e4c 32       		.uleb128 0x32
 2415 0e4d 4B120000 		.4byte	0x124b
 2416 0e51 08000000 		.4byte	.LBB105
 2417 0e55 02000000 		.4byte	.LBE105-.LBB105
 2418 0e59 02       		.byte	0x2
 2419 0e5a 9D       		.byte	0x9d
 2420 0e5b 690E0000 		.4byte	0xe69
 2421 0e5f 2A       		.uleb128 0x2a
 2422 0e60 5C120000 		.4byte	0x125c
 2423 0e64 B1010000 		.4byte	.LLST13
 2424 0e68 00       		.byte	0
 2425 0e69 32       		.uleb128 0x32
 2426 0e6a DB110000 		.4byte	0x11db
 2427 0e6e 10000000 		.4byte	.LBB107
 2428 0e72 06000000 		.4byte	.LBE107-.LBB107
 2429 0e76 02       		.byte	0x2
 2430 0e77 9E       		.byte	0x9e
 2431 0e78 990E0000 		.4byte	0xe99
 2432 0e7c 2A       		.uleb128 0x2a
 2433 0e7d EC110000 		.4byte	0x11ec
 2434 0e81 C4010000 		.4byte	.LLST14
 2435 0e85 2B       		.uleb128 0x2b
 2436 0e86 10000000 		.4byte	.LBB108
 2437 0e8a 06000000 		.4byte	.LBE108-.LBB108
 2438 0e8e 34       		.uleb128 0x34
 2439 0e8f F8110000 		.4byte	0x11f8
 2440 0e93 D7010000 		.4byte	.LLST15
 2441 0e97 00       		.byte	0
 2442 0e98 00       		.byte	0
 2443 0e99 35       		.uleb128 0x35
 2444 0e9a 1A000000 		.4byte	.LVL23
 2445 0e9e E3120000 		.4byte	0x12e3
 2446 0ea2 00       		.byte	0
 2447 0ea3 13       		.uleb128 0x13
 2448 0ea4 52070000 		.4byte	0x752
 2449 0ea8 B30E0000 		.4byte	0xeb3
 2450 0eac 14       		.uleb128 0x14
 2451 0ead 6C040000 		.4byte	0x46c
ARM GAS  /tmp/ccIJOfrC.s 			page 44


 2452 0eb1 10       		.byte	0x10
 2453 0eb2 00       		.byte	0
 2454 0eb3 05       		.uleb128 0x5
 2455 0eb4 A30E0000 		.4byte	0xea3
 2456 0eb8 33       		.uleb128 0x33
 2457 0eb9 29050000 		.4byte	.LASF154
 2458 0ebd 02       		.byte	0x2
 2459 0ebe 82       		.byte	0x82
 2460 0ebf 00000000 		.4byte	.LFB293
 2461 0ec3 18000000 		.4byte	.LFE293-.LFB293
 2462 0ec7 01       		.uleb128 0x1
 2463 0ec8 9C       		.byte	0x9c
 2464 0ec9 870F0000 		.4byte	0xf87
 2465 0ecd 2E       		.uleb128 0x2e
 2466 0ece 637000   		.ascii	"cp\000"
 2467 0ed1 02       		.byte	0x2
 2468 0ed2 82       		.byte	0x82
 2469 0ed3 750B0000 		.4byte	0xb75
 2470 0ed7 EA010000 		.4byte	.LLST16
 2471 0edb 32       		.uleb128 0x32
 2472 0edc D2110000 		.4byte	0x11d2
 2473 0ee0 02000000 		.4byte	.LBB109
 2474 0ee4 06000000 		.4byte	.LBE109-.LBB109
 2475 0ee8 02       		.byte	0x2
 2476 0ee9 84       		.byte	0x84
 2477 0eea 1A0F0000 		.4byte	0xf1a
 2478 0eee 29       		.uleb128 0x29
 2479 0eef 92120000 		.4byte	0x1292
 2480 0ef3 02000000 		.4byte	.LBB110
 2481 0ef7 06000000 		.4byte	.LBE110-.LBB110
 2482 0efb 12       		.byte	0x12
 2483 0efc 6301     		.2byte	0x163
 2484 0efe 29       		.uleb128 0x29
 2485 0eff 9B120000 		.4byte	0x129b
 2486 0f03 02000000 		.4byte	.LBB111
 2487 0f07 06000000 		.4byte	.LBE111-.LBB111
 2488 0f0b 0F       		.byte	0xf
 2489 0f0c 6202     		.2byte	0x262
 2490 0f0e 2A       		.uleb128 0x2a
 2491 0f0f A8120000 		.4byte	0x12a8
 2492 0f13 0B020000 		.4byte	.LLST17
 2493 0f17 00       		.byte	0
 2494 0f18 00       		.byte	0
 2495 0f19 00       		.byte	0
 2496 0f1a 32       		.uleb128 0x32
 2497 0f1b B7110000 		.4byte	0x11b7
 2498 0f1f 10000000 		.4byte	.LBB113
 2499 0f23 08000000 		.4byte	.LBE113-.LBB113
 2500 0f27 02       		.byte	0x2
 2501 0f28 87       		.byte	0x87
 2502 0f29 680F0000 		.4byte	0xf68
 2503 0f2d 2B       		.uleb128 0x2b
 2504 0f2e 10000000 		.4byte	.LBB114
 2505 0f32 08000000 		.4byte	.LBE114-.LBB114
 2506 0f36 2C       		.uleb128 0x2c
 2507 0f37 C4110000 		.4byte	0x11c4
 2508 0f3b 29       		.uleb128 0x29
ARM GAS  /tmp/ccIJOfrC.s 			page 45


 2509 0f3c 89120000 		.4byte	0x1289
 2510 0f40 10000000 		.4byte	.LBB115
 2511 0f44 08000000 		.4byte	.LBE115-.LBB115
 2512 0f48 12       		.byte	0x12
 2513 0f49 7A01     		.2byte	0x17a
 2514 0f4b 29       		.uleb128 0x29
 2515 0f4c 9B120000 		.4byte	0x129b
 2516 0f50 10000000 		.4byte	.LBB116
 2517 0f54 08000000 		.4byte	.LBE116-.LBB116
 2518 0f58 0F       		.byte	0xf
 2519 0f59 7502     		.2byte	0x275
 2520 0f5b 2A       		.uleb128 0x2a
 2521 0f5c A8120000 		.4byte	0x12a8
 2522 0f60 20020000 		.4byte	.LLST18
 2523 0f64 00       		.byte	0
 2524 0f65 00       		.byte	0
 2525 0f66 00       		.byte	0
 2526 0f67 00       		.byte	0
 2527 0f68 25       		.uleb128 0x25
 2528 0f69 0C000000 		.4byte	.LVL26
 2529 0f6d 200E0000 		.4byte	0xe20
 2530 0f71 7D0F0000 		.4byte	0xf7d
 2531 0f75 26       		.uleb128 0x26
 2532 0f76 01       		.uleb128 0x1
 2533 0f77 50       		.byte	0x50
 2534 0f78 03       		.uleb128 0x3
 2535 0f79 F3       		.byte	0xf3
 2536 0f7a 01       		.uleb128 0x1
 2537 0f7b 50       		.byte	0x50
 2538 0f7c 00       		.byte	0
 2539 0f7d 35       		.uleb128 0x35
 2540 0f7e 10000000 		.4byte	.LVL27
 2541 0f82 EF120000 		.4byte	0x12ef
 2542 0f86 00       		.byte	0
 2543 0f87 33       		.uleb128 0x33
 2544 0f88 A1050000 		.4byte	.LASF155
 2545 0f8c 02       		.byte	0x2
 2546 0f8d 6F       		.byte	0x6f
 2547 0f8e 00000000 		.4byte	.LFB292
 2548 0f92 18000000 		.4byte	.LFE292-.LFB292
 2549 0f96 01       		.uleb128 0x1
 2550 0f97 9C       		.byte	0x9c
 2551 0f98 1E100000 		.4byte	0x101e
 2552 0f9c 2E       		.uleb128 0x2e
 2553 0f9d 637000   		.ascii	"cp\000"
 2554 0fa0 02       		.byte	0x2
 2555 0fa1 6F       		.byte	0x6f
 2556 0fa2 750B0000 		.4byte	0xb75
 2557 0fa6 34020000 		.4byte	.LLST8
 2558 0faa 22       		.uleb128 0x22
 2559 0fab 05060000 		.4byte	.LASF151
 2560 0faf 2E100000 		.4byte	0x102e
 2561 0fb3 36       		.uleb128 0x36
 2562 0fb4 06000000 		.4byte	.LBB102
 2563 0fb8 12000000 		.4byte	.LBE102-.LBB102
 2564 0fbc 04100000 		.4byte	0x1004
 2565 0fc0 30       		.uleb128 0x30
ARM GAS  /tmp/ccIJOfrC.s 			page 46


 2566 0fc1 747000   		.ascii	"tp\000"
 2567 0fc4 02       		.byte	0x2
 2568 0fc5 75       		.byte	0x75
 2569 0fc6 4C020000 		.4byte	0x24c
 2570 0fca 32       		.uleb128 0x32
 2571 0fcb DB110000 		.4byte	0x11db
 2572 0fcf 06000000 		.4byte	.LBB103
 2573 0fd3 06000000 		.4byte	.LBE103-.LBB103
 2574 0fd7 02       		.byte	0x2
 2575 0fd8 75       		.byte	0x75
 2576 0fd9 FA0F0000 		.4byte	0xffa
 2577 0fdd 2A       		.uleb128 0x2a
 2578 0fde EC110000 		.4byte	0x11ec
 2579 0fe2 60020000 		.4byte	.LLST10
 2580 0fe6 2B       		.uleb128 0x2b
 2581 0fe7 06000000 		.4byte	.LBB104
 2582 0feb 06000000 		.4byte	.LBE104-.LBB104
 2583 0fef 34       		.uleb128 0x34
 2584 0ff0 F8110000 		.4byte	0x11f8
 2585 0ff4 73020000 		.4byte	.LLST11
 2586 0ff8 00       		.byte	0
 2587 0ff9 00       		.byte	0
 2588 0ffa 37       		.uleb128 0x37
 2589 0ffb 16000000 		.4byte	.LVL17
 2590 0fff E3120000 		.4byte	0x12e3
 2591 1003 00       		.byte	0
 2592 1004 38       		.uleb128 0x38
 2593 1005 4B120000 		.4byte	0x124b
 2594 1009 00000000 		.4byte	.LBB100
 2595 100d 02000000 		.4byte	.LBE100-.LBB100
 2596 1011 02       		.byte	0x2
 2597 1012 74       		.byte	0x74
 2598 1013 2A       		.uleb128 0x2a
 2599 1014 5C120000 		.4byte	0x125c
 2600 1018 86020000 		.4byte	.LLST9
 2601 101c 00       		.byte	0
 2602 101d 00       		.byte	0
 2603 101e 13       		.uleb128 0x13
 2604 101f 52070000 		.4byte	0x752
 2605 1023 2E100000 		.4byte	0x102e
 2606 1027 14       		.uleb128 0x14
 2607 1028 6C040000 		.4byte	0x46c
 2608 102c 0D       		.byte	0xd
 2609 102d 00       		.byte	0
 2610 102e 05       		.uleb128 0x5
 2611 102f 1E100000 		.4byte	0x101e
 2612 1033 33       		.uleb128 0x33
 2613 1034 39030000 		.4byte	.LASF156
 2614 1038 02       		.byte	0x2
 2615 1039 59       		.byte	0x59
 2616 103a 00000000 		.4byte	.LFB291
 2617 103e 24000000 		.4byte	.LFE291-.LFB291
 2618 1042 01       		.uleb128 0x1
 2619 1043 9C       		.byte	0x9c
 2620 1044 45110000 		.4byte	0x1145
 2621 1048 2E       		.uleb128 0x2e
 2622 1049 637000   		.ascii	"cp\000"
ARM GAS  /tmp/ccIJOfrC.s 			page 47


 2623 104c 02       		.byte	0x2
 2624 104d 59       		.byte	0x59
 2625 104e 750B0000 		.4byte	0xb75
 2626 1052 99020000 		.4byte	.LLST2
 2627 1056 22       		.uleb128 0x22
 2628 1057 05060000 		.4byte	.LASF151
 2629 105b 55110000 		.4byte	0x1155
 2630 105f 39       		.uleb128 0x39
 2631 1060 D2110000 		.4byte	0x11d2
 2632 1064 02000000 		.4byte	.LBB81
 2633 1068 00000000 		.4byte	.Ldebug_ranges0+0
 2634 106c 02       		.byte	0x2
 2635 106d 5D       		.byte	0x5d
 2636 106e 9E100000 		.4byte	0x109e
 2637 1072 3A       		.uleb128 0x3a
 2638 1073 92120000 		.4byte	0x1292
 2639 1077 02000000 		.4byte	.LBB82
 2640 107b 00000000 		.4byte	.Ldebug_ranges0+0
 2641 107f 12       		.byte	0x12
 2642 1080 6301     		.2byte	0x163
 2643 1082 3A       		.uleb128 0x3a
 2644 1083 9B120000 		.4byte	0x129b
 2645 1087 02000000 		.4byte	.LBB83
 2646 108b 00000000 		.4byte	.Ldebug_ranges0+0
 2647 108f 0F       		.byte	0xf
 2648 1090 6202     		.2byte	0x262
 2649 1092 2A       		.uleb128 0x2a
 2650 1093 A8120000 		.4byte	0x12a8
 2651 1097 C5020000 		.4byte	.LLST3
 2652 109b 00       		.byte	0
 2653 109c 00       		.byte	0
 2654 109d 00       		.byte	0
 2655 109e 32       		.uleb128 0x32
 2656 109f 4B120000 		.4byte	0x124b
 2657 10a3 0A000000 		.4byte	.LBB89
 2658 10a7 02000000 		.4byte	.LBE89-.LBB89
 2659 10ab 02       		.byte	0x2
 2660 10ac 5E       		.byte	0x5e
 2661 10ad BB100000 		.4byte	0x10bb
 2662 10b1 2A       		.uleb128 0x2a
 2663 10b2 5C120000 		.4byte	0x125c
 2664 10b6 DA020000 		.4byte	.LLST4
 2665 10ba 00       		.byte	0
 2666 10bb 39       		.uleb128 0x39
 2667 10bc DB110000 		.4byte	0x11db
 2668 10c0 10000000 		.4byte	.LBB91
 2669 10c4 18000000 		.4byte	.Ldebug_ranges0+0x18
 2670 10c8 02       		.byte	0x2
 2671 10c9 5F       		.byte	0x5f
 2672 10ca E7100000 		.4byte	0x10e7
 2673 10ce 2A       		.uleb128 0x2a
 2674 10cf EC110000 		.4byte	0x11ec
 2675 10d3 ED020000 		.4byte	.LLST5
 2676 10d7 3B       		.uleb128 0x3b
 2677 10d8 18000000 		.4byte	.Ldebug_ranges0+0x18
 2678 10dc 34       		.uleb128 0x34
 2679 10dd F8110000 		.4byte	0x11f8
ARM GAS  /tmp/ccIJOfrC.s 			page 48


 2680 10e1 00030000 		.4byte	.LLST6
 2681 10e5 00       		.byte	0
 2682 10e6 00       		.byte	0
 2683 10e7 32       		.uleb128 0x32
 2684 10e8 B7110000 		.4byte	0x11b7
 2685 10ec 1C000000 		.4byte	.LBB95
 2686 10f0 08000000 		.4byte	.LBE95-.LBB95
 2687 10f4 02       		.byte	0x2
 2688 10f5 61       		.byte	0x61
 2689 10f6 35110000 		.4byte	0x1135
 2690 10fa 2B       		.uleb128 0x2b
 2691 10fb 1C000000 		.4byte	.LBB96
 2692 10ff 08000000 		.4byte	.LBE96-.LBB96
 2693 1103 2C       		.uleb128 0x2c
 2694 1104 C4110000 		.4byte	0x11c4
 2695 1108 29       		.uleb128 0x29
 2696 1109 89120000 		.4byte	0x1289
 2697 110d 1C000000 		.4byte	.LBB97
 2698 1111 08000000 		.4byte	.LBE97-.LBB97
 2699 1115 12       		.byte	0x12
 2700 1116 7A01     		.2byte	0x17a
 2701 1118 29       		.uleb128 0x29
 2702 1119 9B120000 		.4byte	0x129b
 2703 111d 1C000000 		.4byte	.LBB98
 2704 1121 08000000 		.4byte	.LBE98-.LBB98
 2705 1125 0F       		.byte	0xf
 2706 1126 7502     		.2byte	0x275
 2707 1128 2A       		.uleb128 0x2a
 2708 1129 A8120000 		.4byte	0x12a8
 2709 112d 13030000 		.4byte	.LLST7
 2710 1131 00       		.byte	0
 2711 1132 00       		.byte	0
 2712 1133 00       		.byte	0
 2713 1134 00       		.byte	0
 2714 1135 27       		.uleb128 0x27
 2715 1136 1C000000 		.4byte	.LVL10
 2716 113a FB120000 		.4byte	0x12fb
 2717 113e 26       		.uleb128 0x26
 2718 113f 01       		.uleb128 0x1
 2719 1140 51       		.byte	0x51
 2720 1141 01       		.uleb128 0x1
 2721 1142 30       		.byte	0x30
 2722 1143 00       		.byte	0
 2723 1144 00       		.byte	0
 2724 1145 13       		.uleb128 0x13
 2725 1146 52070000 		.4byte	0x752
 2726 114a 55110000 		.4byte	0x1155
 2727 114e 14       		.uleb128 0x14
 2728 114f 6C040000 		.4byte	0x46c
 2729 1153 0C       		.byte	0xc
 2730 1154 00       		.byte	0
 2731 1155 05       		.uleb128 0x5
 2732 1156 45110000 		.4byte	0x1145
 2733 115a 33       		.uleb128 0x33
 2734 115b EB060000 		.4byte	.LASF157
 2735 115f 02       		.byte	0x2
 2736 1160 4B       		.byte	0x4b
ARM GAS  /tmp/ccIJOfrC.s 			page 49


 2737 1161 00000000 		.4byte	.LFB290
 2738 1165 06000000 		.4byte	.LFE290-.LFB290
 2739 1169 01       		.uleb128 0x1
 2740 116a 9C       		.byte	0x9c
 2741 116b 9E110000 		.4byte	0x119e
 2742 116f 3C       		.uleb128 0x3c
 2743 1170 637000   		.ascii	"cp\000"
 2744 1173 02       		.byte	0x2
 2745 1174 4B       		.byte	0x4b
 2746 1175 750B0000 		.4byte	0xb75
 2747 1179 01       		.uleb128 0x1
 2748 117a 50       		.byte	0x50
 2749 117b 22       		.uleb128 0x22
 2750 117c 05060000 		.4byte	.LASF151
 2751 1180 B30E0000 		.4byte	0xeb3
 2752 1184 38       		.uleb128 0x38
 2753 1185 6F120000 		.4byte	0x126f
 2754 1189 00000000 		.4byte	.LBB79
 2755 118d 06000000 		.4byte	.LBE79-.LBB79
 2756 1191 02       		.byte	0x2
 2757 1192 4F       		.byte	0x4f
 2758 1193 2A       		.uleb128 0x2a
 2759 1194 7C120000 		.4byte	0x127c
 2760 1198 27030000 		.4byte	.LLST1
 2761 119c 00       		.byte	0
 2762 119d 00       		.byte	0
 2763 119e 3D       		.uleb128 0x3d
 2764 119f A0060000 		.4byte	.LASF158
 2765 11a3 04       		.byte	0x4
 2766 11a4 9F       		.byte	0x9f
 2767 11a5 9C080000 		.4byte	0x89c
 2768 11a9 03       		.byte	0x3
 2769 11aa 3E       		.uleb128 0x3e
 2770 11ab 1B080000 		.4byte	.LASF159
 2771 11af 05       		.byte	0x5
 2772 11b0 1001     		.2byte	0x110
 2773 11b2 4C020000 		.4byte	0x24c
 2774 11b6 03       		.byte	0x3
 2775 11b7 3F       		.uleb128 0x3f
 2776 11b8 88080000 		.4byte	.LASF162
 2777 11bc 12       		.byte	0x12
 2778 11bd 6D01     		.2byte	0x16d
 2779 11bf 03       		.byte	0x3
 2780 11c0 D2110000 		.4byte	0x11d2
 2781 11c4 40       		.uleb128 0x40
 2782 11c5 05060000 		.4byte	.LASF151
 2783 11c9 480D0000 		.4byte	0xd48
 2784 11cd 88080000 		.4byte	.LASF162
 2785 11d1 00       		.byte	0
 2786 11d2 41       		.uleb128 0x41
 2787 11d3 19060000 		.4byte	.LASF164
 2788 11d7 12       		.byte	0x12
 2789 11d8 6101     		.2byte	0x161
 2790 11da 03       		.byte	0x3
 2791 11db 42       		.uleb128 0x42
 2792 11dc 08070000 		.4byte	.LASF160
 2793 11e0 01       		.byte	0x1
ARM GAS  /tmp/ccIJOfrC.s 			page 50


 2794 11e1 5E02     		.2byte	0x25e
 2795 11e3 4C020000 		.4byte	0x24c
 2796 11e7 03       		.byte	0x3
 2797 11e8 04120000 		.4byte	0x1204
 2798 11ec 43       		.uleb128 0x43
 2799 11ed 74717000 		.ascii	"tqp\000"
 2800 11f1 01       		.byte	0x1
 2801 11f2 5E02     		.2byte	0x25e
 2802 11f4 04120000 		.4byte	0x1204
 2803 11f8 20       		.uleb128 0x20
 2804 11f9 747000   		.ascii	"tp\000"
 2805 11fc 01       		.byte	0x1
 2806 11fd 5F02     		.2byte	0x25f
 2807 11ff 4C020000 		.4byte	0x24c
 2808 1203 00       		.byte	0
 2809 1204 0C       		.uleb128 0xc
 2810 1205 04       		.byte	0x4
 2811 1206 76020000 		.4byte	0x276
 2812 120a 44       		.uleb128 0x44
 2813 120b B1080000 		.4byte	.LASF179
 2814 120f 01       		.byte	0x1
 2815 1210 4A02     		.2byte	0x24a
 2816 1212 00000000 		.4byte	.LFB172
 2817 1216 20000000 		.4byte	.LFE172-.LFB172
 2818 121a 01       		.uleb128 0x1
 2819 121b 9C       		.byte	0x9c
 2820 121c 4B120000 		.4byte	0x124b
 2821 1220 45       		.uleb128 0x45
 2822 1221 747000   		.ascii	"tp\000"
 2823 1224 01       		.byte	0x1
 2824 1225 4A02     		.2byte	0x24a
 2825 1227 4C020000 		.4byte	0x24c
 2826 122b 01       		.uleb128 0x1
 2827 122c 50       		.byte	0x50
 2828 122d 45       		.uleb128 0x45
 2829 122e 74717000 		.ascii	"tqp\000"
 2830 1232 01       		.byte	0x1
 2831 1233 4A02     		.2byte	0x24a
 2832 1235 04120000 		.4byte	0x1204
 2833 1239 01       		.uleb128 0x1
 2834 123a 51       		.byte	0x51
 2835 123b 21       		.uleb128 0x21
 2836 123c 637000   		.ascii	"cp\000"
 2837 123f 01       		.byte	0x1
 2838 1240 4C02     		.2byte	0x24c
 2839 1242 4C020000 		.4byte	0x24c
 2840 1246 3A030000 		.4byte	.LLST0
 2841 124a 00       		.byte	0
 2842 124b 42       		.uleb128 0x42
 2843 124c B0020000 		.4byte	.LASF161
 2844 1250 01       		.byte	0x1
 2845 1251 3402     		.2byte	0x234
 2846 1253 C6080000 		.4byte	0x8c6
 2847 1257 03       		.byte	0x3
 2848 1258 69120000 		.4byte	0x1269
 2849 125c 43       		.uleb128 0x43
 2850 125d 74717000 		.ascii	"tqp\000"
ARM GAS  /tmp/ccIJOfrC.s 			page 51


 2851 1261 01       		.byte	0x1
 2852 1262 3402     		.2byte	0x234
 2853 1264 69120000 		.4byte	0x1269
 2854 1268 00       		.byte	0
 2855 1269 0C       		.uleb128 0xc
 2856 126a 04       		.byte	0x4
 2857 126b 81020000 		.4byte	0x281
 2858 126f 3F       		.uleb128 0x3f
 2859 1270 6E000000 		.4byte	.LASF163
 2860 1274 01       		.byte	0x1
 2861 1275 1902     		.2byte	0x219
 2862 1277 03       		.byte	0x3
 2863 1278 89120000 		.4byte	0x1289
 2864 127c 43       		.uleb128 0x43
 2865 127d 74717000 		.ascii	"tqp\000"
 2866 1281 01       		.byte	0x1
 2867 1282 1902     		.2byte	0x219
 2868 1284 04120000 		.4byte	0x1204
 2869 1288 00       		.byte	0
 2870 1289 41       		.uleb128 0x41
 2871 128a 77020000 		.4byte	.LASF165
 2872 128e 0F       		.byte	0xf
 2873 128f 7202     		.2byte	0x272
 2874 1291 03       		.byte	0x3
 2875 1292 41       		.uleb128 0x41
 2876 1293 82000000 		.4byte	.LASF166
 2877 1297 0F       		.byte	0xf
 2878 1298 5A02     		.2byte	0x25a
 2879 129a 03       		.byte	0x3
 2880 129b 3F       		.uleb128 0x3f
 2881 129c 2D070000 		.4byte	.LASF167
 2882 12a0 03       		.byte	0x3
 2883 12a1 EB01     		.2byte	0x1eb
 2884 12a3 03       		.byte	0x3
 2885 12a4 B5120000 		.4byte	0x12b5
 2886 12a8 46       		.uleb128 0x46
 2887 12a9 68020000 		.4byte	.LASF168
 2888 12ad 03       		.byte	0x3
 2889 12ae EB01     		.2byte	0x1eb
 2890 12b0 DF000000 		.4byte	0xdf
 2891 12b4 00       		.byte	0
 2892 12b5 47       		.uleb128 0x47
 2893 12b6 5A030000 		.4byte	.LASF169
 2894 12ba 5A030000 		.4byte	.LASF169
 2895 12be 04       		.byte	0x4
 2896 12bf 6C       		.byte	0x6c
 2897 12c0 48       		.uleb128 0x48
 2898 12c1 73080000 		.4byte	.LASF170
 2899 12c5 73080000 		.4byte	.LASF170
 2900 12c9 01       		.byte	0x1
 2901 12ca D401     		.2byte	0x1d4
 2902 12cc 47       		.uleb128 0x47
 2903 12cd A6080000 		.4byte	.LASF171
 2904 12d1 A6080000 		.4byte	.LASF171
 2905 12d5 04       		.byte	0x4
 2906 12d6 68       		.byte	0x68
 2907 12d7 48       		.uleb128 0x48
ARM GAS  /tmp/ccIJOfrC.s 			page 52


 2908 12d8 93050000 		.4byte	.LASF172
 2909 12dc 93050000 		.4byte	.LASF172
 2910 12e0 01       		.byte	0x1
 2911 12e1 D301     		.2byte	0x1d3
 2912 12e3 48       		.uleb128 0x48
 2913 12e4 7E060000 		.4byte	.LASF173
 2914 12e8 7E060000 		.4byte	.LASF173
 2915 12ec 01       		.byte	0x1
 2916 12ed D101     		.2byte	0x1d1
 2917 12ef 48       		.uleb128 0x48
 2918 12f0 DA020000 		.4byte	.LASF174
 2919 12f4 DA020000 		.4byte	.LASF174
 2920 12f8 01       		.byte	0x1
 2921 12f9 D601     		.2byte	0x1d6
 2922 12fb 48       		.uleb128 0x48
 2923 12fc 90070000 		.4byte	.LASF175
 2924 1300 90070000 		.4byte	.LASF175
 2925 1304 01       		.byte	0x1
 2926 1305 D501     		.2byte	0x1d5
 2927 1307 00       		.byte	0
 2928              		.section	.debug_abbrev,"",%progbits
 2929              	.Ldebug_abbrev0:
 2930 0000 01       		.uleb128 0x1
 2931 0001 11       		.uleb128 0x11
 2932 0002 01       		.byte	0x1
 2933 0003 25       		.uleb128 0x25
 2934 0004 0E       		.uleb128 0xe
 2935 0005 13       		.uleb128 0x13
 2936 0006 0B       		.uleb128 0xb
 2937 0007 03       		.uleb128 0x3
 2938 0008 0E       		.uleb128 0xe
 2939 0009 1B       		.uleb128 0x1b
 2940 000a 0E       		.uleb128 0xe
 2941 000b 55       		.uleb128 0x55
 2942 000c 17       		.uleb128 0x17
 2943 000d 11       		.uleb128 0x11
 2944 000e 01       		.uleb128 0x1
 2945 000f 10       		.uleb128 0x10
 2946 0010 17       		.uleb128 0x17
 2947 0011 00       		.byte	0
 2948 0012 00       		.byte	0
 2949 0013 02       		.uleb128 0x2
 2950 0014 24       		.uleb128 0x24
 2951 0015 00       		.byte	0
 2952 0016 0B       		.uleb128 0xb
 2953 0017 0B       		.uleb128 0xb
 2954 0018 3E       		.uleb128 0x3e
 2955 0019 0B       		.uleb128 0xb
 2956 001a 03       		.uleb128 0x3
 2957 001b 08       		.uleb128 0x8
 2958 001c 00       		.byte	0
 2959 001d 00       		.byte	0
 2960 001e 03       		.uleb128 0x3
 2961 001f 16       		.uleb128 0x16
 2962 0020 00       		.byte	0
 2963 0021 03       		.uleb128 0x3
 2964 0022 0E       		.uleb128 0xe
ARM GAS  /tmp/ccIJOfrC.s 			page 53


 2965 0023 3A       		.uleb128 0x3a
 2966 0024 0B       		.uleb128 0xb
 2967 0025 3B       		.uleb128 0x3b
 2968 0026 0B       		.uleb128 0xb
 2969 0027 49       		.uleb128 0x49
 2970 0028 13       		.uleb128 0x13
 2971 0029 00       		.byte	0
 2972 002a 00       		.byte	0
 2973 002b 04       		.uleb128 0x4
 2974 002c 24       		.uleb128 0x24
 2975 002d 00       		.byte	0
 2976 002e 0B       		.uleb128 0xb
 2977 002f 0B       		.uleb128 0xb
 2978 0030 3E       		.uleb128 0x3e
 2979 0031 0B       		.uleb128 0xb
 2980 0032 03       		.uleb128 0x3
 2981 0033 0E       		.uleb128 0xe
 2982 0034 00       		.byte	0
 2983 0035 00       		.byte	0
 2984 0036 05       		.uleb128 0x5
 2985 0037 26       		.uleb128 0x26
 2986 0038 00       		.byte	0
 2987 0039 49       		.uleb128 0x49
 2988 003a 13       		.uleb128 0x13
 2989 003b 00       		.byte	0
 2990 003c 00       		.byte	0
 2991 003d 06       		.uleb128 0x6
 2992 003e 35       		.uleb128 0x35
 2993 003f 00       		.byte	0
 2994 0040 49       		.uleb128 0x49
 2995 0041 13       		.uleb128 0x13
 2996 0042 00       		.byte	0
 2997 0043 00       		.byte	0
 2998 0044 07       		.uleb128 0x7
 2999 0045 13       		.uleb128 0x13
 3000 0046 01       		.byte	0x1
 3001 0047 03       		.uleb128 0x3
 3002 0048 0E       		.uleb128 0xe
 3003 0049 0B       		.uleb128 0xb
 3004 004a 0B       		.uleb128 0xb
 3005 004b 3A       		.uleb128 0x3a
 3006 004c 0B       		.uleb128 0xb
 3007 004d 3B       		.uleb128 0x3b
 3008 004e 0B       		.uleb128 0xb
 3009 004f 01       		.uleb128 0x1
 3010 0050 13       		.uleb128 0x13
 3011 0051 00       		.byte	0
 3012 0052 00       		.byte	0
 3013 0053 08       		.uleb128 0x8
 3014 0054 0D       		.uleb128 0xd
 3015 0055 00       		.byte	0
 3016 0056 03       		.uleb128 0x3
 3017 0057 0E       		.uleb128 0xe
 3018 0058 3A       		.uleb128 0x3a
 3019 0059 0B       		.uleb128 0xb
 3020 005a 3B       		.uleb128 0x3b
 3021 005b 0B       		.uleb128 0xb
ARM GAS  /tmp/ccIJOfrC.s 			page 54


 3022 005c 49       		.uleb128 0x49
 3023 005d 13       		.uleb128 0x13
 3024 005e 38       		.uleb128 0x38
 3025 005f 0B       		.uleb128 0xb
 3026 0060 00       		.byte	0
 3027 0061 00       		.byte	0
 3028 0062 09       		.uleb128 0x9
 3029 0063 0D       		.uleb128 0xd
 3030 0064 00       		.byte	0
 3031 0065 03       		.uleb128 0x3
 3032 0066 08       		.uleb128 0x8
 3033 0067 3A       		.uleb128 0x3a
 3034 0068 0B       		.uleb128 0xb
 3035 0069 3B       		.uleb128 0x3b
 3036 006a 0B       		.uleb128 0xb
 3037 006b 49       		.uleb128 0x49
 3038 006c 13       		.uleb128 0x13
 3039 006d 38       		.uleb128 0x38
 3040 006e 0B       		.uleb128 0xb
 3041 006f 00       		.byte	0
 3042 0070 00       		.byte	0
 3043 0071 0A       		.uleb128 0xa
 3044 0072 0D       		.uleb128 0xd
 3045 0073 00       		.byte	0
 3046 0074 03       		.uleb128 0x3
 3047 0075 08       		.uleb128 0x8
 3048 0076 3A       		.uleb128 0x3a
 3049 0077 0B       		.uleb128 0xb
 3050 0078 3B       		.uleb128 0x3b
 3051 0079 05       		.uleb128 0x5
 3052 007a 49       		.uleb128 0x49
 3053 007b 13       		.uleb128 0x13
 3054 007c 38       		.uleb128 0x38
 3055 007d 0B       		.uleb128 0xb
 3056 007e 00       		.byte	0
 3057 007f 00       		.byte	0
 3058 0080 0B       		.uleb128 0xb
 3059 0081 0D       		.uleb128 0xd
 3060 0082 00       		.byte	0
 3061 0083 03       		.uleb128 0x3
 3062 0084 0E       		.uleb128 0xe
 3063 0085 3A       		.uleb128 0x3a
 3064 0086 0B       		.uleb128 0xb
 3065 0087 3B       		.uleb128 0x3b
 3066 0088 05       		.uleb128 0x5
 3067 0089 49       		.uleb128 0x49
 3068 008a 13       		.uleb128 0x13
 3069 008b 38       		.uleb128 0x38
 3070 008c 0B       		.uleb128 0xb
 3071 008d 00       		.byte	0
 3072 008e 00       		.byte	0
 3073 008f 0C       		.uleb128 0xc
 3074 0090 0F       		.uleb128 0xf
 3075 0091 00       		.byte	0
 3076 0092 0B       		.uleb128 0xb
 3077 0093 0B       		.uleb128 0xb
 3078 0094 49       		.uleb128 0x49
ARM GAS  /tmp/ccIJOfrC.s 			page 55


 3079 0095 13       		.uleb128 0x13
 3080 0096 00       		.byte	0
 3081 0097 00       		.byte	0
 3082 0098 0D       		.uleb128 0xd
 3083 0099 13       		.uleb128 0x13
 3084 009a 01       		.byte	0x1
 3085 009b 03       		.uleb128 0x3
 3086 009c 0E       		.uleb128 0xe
 3087 009d 0B       		.uleb128 0xb
 3088 009e 0B       		.uleb128 0xb
 3089 009f 3A       		.uleb128 0x3a
 3090 00a0 0B       		.uleb128 0xb
 3091 00a1 3B       		.uleb128 0x3b
 3092 00a2 05       		.uleb128 0x5
 3093 00a3 01       		.uleb128 0x1
 3094 00a4 13       		.uleb128 0x13
 3095 00a5 00       		.byte	0
 3096 00a6 00       		.byte	0
 3097 00a7 0E       		.uleb128 0xe
 3098 00a8 15       		.uleb128 0x15
 3099 00a9 01       		.byte	0x1
 3100 00aa 27       		.uleb128 0x27
 3101 00ab 19       		.uleb128 0x19
 3102 00ac 01       		.uleb128 0x1
 3103 00ad 13       		.uleb128 0x13
 3104 00ae 00       		.byte	0
 3105 00af 00       		.byte	0
 3106 00b0 0F       		.uleb128 0xf
 3107 00b1 05       		.uleb128 0x5
 3108 00b2 00       		.byte	0
 3109 00b3 49       		.uleb128 0x49
 3110 00b4 13       		.uleb128 0x13
 3111 00b5 00       		.byte	0
 3112 00b6 00       		.byte	0
 3113 00b7 10       		.uleb128 0x10
 3114 00b8 0F       		.uleb128 0xf
 3115 00b9 00       		.byte	0
 3116 00ba 0B       		.uleb128 0xb
 3117 00bb 0B       		.uleb128 0xb
 3118 00bc 00       		.byte	0
 3119 00bd 00       		.byte	0
 3120 00be 11       		.uleb128 0x11
 3121 00bf 34       		.uleb128 0x34
 3122 00c0 00       		.byte	0
 3123 00c1 03       		.uleb128 0x3
 3124 00c2 0E       		.uleb128 0xe
 3125 00c3 3A       		.uleb128 0x3a
 3126 00c4 0B       		.uleb128 0xb
 3127 00c5 3B       		.uleb128 0x3b
 3128 00c6 05       		.uleb128 0x5
 3129 00c7 49       		.uleb128 0x49
 3130 00c8 13       		.uleb128 0x13
 3131 00c9 3F       		.uleb128 0x3f
 3132 00ca 19       		.uleb128 0x19
 3133 00cb 3C       		.uleb128 0x3c
 3134 00cc 19       		.uleb128 0x19
 3135 00cd 00       		.byte	0
ARM GAS  /tmp/ccIJOfrC.s 			page 56


 3136 00ce 00       		.byte	0
 3137 00cf 12       		.uleb128 0x12
 3138 00d0 34       		.uleb128 0x34
 3139 00d1 00       		.byte	0
 3140 00d2 03       		.uleb128 0x3
 3141 00d3 0E       		.uleb128 0xe
 3142 00d4 3A       		.uleb128 0x3a
 3143 00d5 0B       		.uleb128 0xb
 3144 00d6 3B       		.uleb128 0x3b
 3145 00d7 0B       		.uleb128 0xb
 3146 00d8 49       		.uleb128 0x49
 3147 00d9 13       		.uleb128 0x13
 3148 00da 3F       		.uleb128 0x3f
 3149 00db 19       		.uleb128 0x19
 3150 00dc 3C       		.uleb128 0x3c
 3151 00dd 19       		.uleb128 0x19
 3152 00de 00       		.byte	0
 3153 00df 00       		.byte	0
 3154 00e0 13       		.uleb128 0x13
 3155 00e1 01       		.uleb128 0x1
 3156 00e2 01       		.byte	0x1
 3157 00e3 49       		.uleb128 0x49
 3158 00e4 13       		.uleb128 0x13
 3159 00e5 01       		.uleb128 0x1
 3160 00e6 13       		.uleb128 0x13
 3161 00e7 00       		.byte	0
 3162 00e8 00       		.byte	0
 3163 00e9 14       		.uleb128 0x14
 3164 00ea 21       		.uleb128 0x21
 3165 00eb 00       		.byte	0
 3166 00ec 49       		.uleb128 0x49
 3167 00ed 13       		.uleb128 0x13
 3168 00ee 2F       		.uleb128 0x2f
 3169 00ef 0B       		.uleb128 0xb
 3170 00f0 00       		.byte	0
 3171 00f1 00       		.byte	0
 3172 00f2 15       		.uleb128 0x15
 3173 00f3 13       		.uleb128 0x13
 3174 00f4 01       		.byte	0x1
 3175 00f5 0B       		.uleb128 0xb
 3176 00f6 0B       		.uleb128 0xb
 3177 00f7 3A       		.uleb128 0x3a
 3178 00f8 0B       		.uleb128 0xb
 3179 00f9 3B       		.uleb128 0x3b
 3180 00fa 0B       		.uleb128 0xb
 3181 00fb 01       		.uleb128 0x1
 3182 00fc 13       		.uleb128 0x13
 3183 00fd 00       		.byte	0
 3184 00fe 00       		.byte	0
 3185 00ff 16       		.uleb128 0x16
 3186 0100 17       		.uleb128 0x17
 3187 0101 01       		.byte	0x1
 3188 0102 0B       		.uleb128 0xb
 3189 0103 0B       		.uleb128 0xb
 3190 0104 3A       		.uleb128 0x3a
 3191 0105 0B       		.uleb128 0xb
 3192 0106 3B       		.uleb128 0x3b
ARM GAS  /tmp/ccIJOfrC.s 			page 57


 3193 0107 0B       		.uleb128 0xb
 3194 0108 01       		.uleb128 0x1
 3195 0109 13       		.uleb128 0x13
 3196 010a 00       		.byte	0
 3197 010b 00       		.byte	0
 3198 010c 17       		.uleb128 0x17
 3199 010d 0D       		.uleb128 0xd
 3200 010e 00       		.byte	0
 3201 010f 03       		.uleb128 0x3
 3202 0110 0E       		.uleb128 0xe
 3203 0111 3A       		.uleb128 0x3a
 3204 0112 0B       		.uleb128 0xb
 3205 0113 3B       		.uleb128 0x3b
 3206 0114 0B       		.uleb128 0xb
 3207 0115 49       		.uleb128 0x49
 3208 0116 13       		.uleb128 0x13
 3209 0117 00       		.byte	0
 3210 0118 00       		.byte	0
 3211 0119 18       		.uleb128 0x18
 3212 011a 0D       		.uleb128 0xd
 3213 011b 00       		.byte	0
 3214 011c 03       		.uleb128 0x3
 3215 011d 0E       		.uleb128 0xe
 3216 011e 3A       		.uleb128 0x3a
 3217 011f 0B       		.uleb128 0xb
 3218 0120 3B       		.uleb128 0x3b
 3219 0121 05       		.uleb128 0x5
 3220 0122 49       		.uleb128 0x49
 3221 0123 13       		.uleb128 0x13
 3222 0124 00       		.byte	0
 3223 0125 00       		.byte	0
 3224 0126 19       		.uleb128 0x19
 3225 0127 34       		.uleb128 0x34
 3226 0128 00       		.byte	0
 3227 0129 03       		.uleb128 0x3
 3228 012a 08       		.uleb128 0x8
 3229 012b 3A       		.uleb128 0x3a
 3230 012c 0B       		.uleb128 0xb
 3231 012d 3B       		.uleb128 0x3b
 3232 012e 05       		.uleb128 0x5
 3233 012f 49       		.uleb128 0x49
 3234 0130 13       		.uleb128 0x13
 3235 0131 3F       		.uleb128 0x3f
 3236 0132 19       		.uleb128 0x19
 3237 0133 3C       		.uleb128 0x3c
 3238 0134 19       		.uleb128 0x19
 3239 0135 00       		.byte	0
 3240 0136 00       		.byte	0
 3241 0137 1A       		.uleb128 0x1a
 3242 0138 21       		.uleb128 0x21
 3243 0139 00       		.byte	0
 3244 013a 00       		.byte	0
 3245 013b 00       		.byte	0
 3246 013c 1B       		.uleb128 0x1b
 3247 013d 15       		.uleb128 0x15
 3248 013e 01       		.byte	0x1
 3249 013f 27       		.uleb128 0x27
ARM GAS  /tmp/ccIJOfrC.s 			page 58


 3250 0140 19       		.uleb128 0x19
 3251 0141 49       		.uleb128 0x49
 3252 0142 13       		.uleb128 0x13
 3253 0143 01       		.uleb128 0x1
 3254 0144 13       		.uleb128 0x13
 3255 0145 00       		.byte	0
 3256 0146 00       		.byte	0
 3257 0147 1C       		.uleb128 0x1c
 3258 0148 16       		.uleb128 0x16
 3259 0149 00       		.byte	0
 3260 014a 03       		.uleb128 0x3
 3261 014b 0E       		.uleb128 0xe
 3262 014c 3A       		.uleb128 0x3a
 3263 014d 0B       		.uleb128 0xb
 3264 014e 3B       		.uleb128 0x3b
 3265 014f 05       		.uleb128 0x5
 3266 0150 49       		.uleb128 0x49
 3267 0151 13       		.uleb128 0x13
 3268 0152 00       		.byte	0
 3269 0153 00       		.byte	0
 3270 0154 1D       		.uleb128 0x1d
 3271 0155 2E       		.uleb128 0x2e
 3272 0156 01       		.byte	0x1
 3273 0157 3F       		.uleb128 0x3f
 3274 0158 19       		.uleb128 0x19
 3275 0159 03       		.uleb128 0x3
 3276 015a 0E       		.uleb128 0xe
 3277 015b 3A       		.uleb128 0x3a
 3278 015c 0B       		.uleb128 0xb
 3279 015d 3B       		.uleb128 0x3b
 3280 015e 05       		.uleb128 0x5
 3281 015f 27       		.uleb128 0x27
 3282 0160 19       		.uleb128 0x19
 3283 0161 49       		.uleb128 0x49
 3284 0162 13       		.uleb128 0x13
 3285 0163 11       		.uleb128 0x11
 3286 0164 01       		.uleb128 0x1
 3287 0165 12       		.uleb128 0x12
 3288 0166 06       		.uleb128 0x6
 3289 0167 40       		.uleb128 0x40
 3290 0168 18       		.uleb128 0x18
 3291 0169 9742     		.uleb128 0x2117
 3292 016b 19       		.uleb128 0x19
 3293 016c 01       		.uleb128 0x1
 3294 016d 13       		.uleb128 0x13
 3295 016e 00       		.byte	0
 3296 016f 00       		.byte	0
 3297 0170 1E       		.uleb128 0x1e
 3298 0171 05       		.uleb128 0x5
 3299 0172 00       		.byte	0
 3300 0173 03       		.uleb128 0x3
 3301 0174 08       		.uleb128 0x8
 3302 0175 3A       		.uleb128 0x3a
 3303 0176 0B       		.uleb128 0xb
 3304 0177 3B       		.uleb128 0x3b
 3305 0178 05       		.uleb128 0x5
 3306 0179 49       		.uleb128 0x49
ARM GAS  /tmp/ccIJOfrC.s 			page 59


 3307 017a 13       		.uleb128 0x13
 3308 017b 02       		.uleb128 0x2
 3309 017c 17       		.uleb128 0x17
 3310 017d 00       		.byte	0
 3311 017e 00       		.byte	0
 3312 017f 1F       		.uleb128 0x1f
 3313 0180 05       		.uleb128 0x5
 3314 0181 00       		.byte	0
 3315 0182 03       		.uleb128 0x3
 3316 0183 0E       		.uleb128 0xe
 3317 0184 3A       		.uleb128 0x3a
 3318 0185 0B       		.uleb128 0xb
 3319 0186 3B       		.uleb128 0x3b
 3320 0187 05       		.uleb128 0x5
 3321 0188 49       		.uleb128 0x49
 3322 0189 13       		.uleb128 0x13
 3323 018a 02       		.uleb128 0x2
 3324 018b 17       		.uleb128 0x17
 3325 018c 00       		.byte	0
 3326 018d 00       		.byte	0
 3327 018e 20       		.uleb128 0x20
 3328 018f 34       		.uleb128 0x34
 3329 0190 00       		.byte	0
 3330 0191 03       		.uleb128 0x3
 3331 0192 08       		.uleb128 0x8
 3332 0193 3A       		.uleb128 0x3a
 3333 0194 0B       		.uleb128 0xb
 3334 0195 3B       		.uleb128 0x3b
 3335 0196 05       		.uleb128 0x5
 3336 0197 49       		.uleb128 0x49
 3337 0198 13       		.uleb128 0x13
 3338 0199 00       		.byte	0
 3339 019a 00       		.byte	0
 3340 019b 21       		.uleb128 0x21
 3341 019c 34       		.uleb128 0x34
 3342 019d 00       		.byte	0
 3343 019e 03       		.uleb128 0x3
 3344 019f 08       		.uleb128 0x8
 3345 01a0 3A       		.uleb128 0x3a
 3346 01a1 0B       		.uleb128 0xb
 3347 01a2 3B       		.uleb128 0x3b
 3348 01a3 05       		.uleb128 0x5
 3349 01a4 49       		.uleb128 0x49
 3350 01a5 13       		.uleb128 0x13
 3351 01a6 02       		.uleb128 0x2
 3352 01a7 17       		.uleb128 0x17
 3353 01a8 00       		.byte	0
 3354 01a9 00       		.byte	0
 3355 01aa 22       		.uleb128 0x22
 3356 01ab 34       		.uleb128 0x34
 3357 01ac 00       		.byte	0
 3358 01ad 03       		.uleb128 0x3
 3359 01ae 0E       		.uleb128 0xe
 3360 01af 49       		.uleb128 0x49
 3361 01b0 13       		.uleb128 0x13
 3362 01b1 34       		.uleb128 0x34
 3363 01b2 19       		.uleb128 0x19
ARM GAS  /tmp/ccIJOfrC.s 			page 60


 3364 01b3 00       		.byte	0
 3365 01b4 00       		.byte	0
 3366 01b5 23       		.uleb128 0x23
 3367 01b6 1D       		.uleb128 0x1d
 3368 01b7 01       		.byte	0x1
 3369 01b8 31       		.uleb128 0x31
 3370 01b9 13       		.uleb128 0x13
 3371 01ba 11       		.uleb128 0x11
 3372 01bb 01       		.uleb128 0x1
 3373 01bc 12       		.uleb128 0x12
 3374 01bd 06       		.uleb128 0x6
 3375 01be 58       		.uleb128 0x58
 3376 01bf 0B       		.uleb128 0xb
 3377 01c0 59       		.uleb128 0x59
 3378 01c1 05       		.uleb128 0x5
 3379 01c2 01       		.uleb128 0x1
 3380 01c3 13       		.uleb128 0x13
 3381 01c4 00       		.byte	0
 3382 01c5 00       		.byte	0
 3383 01c6 24       		.uleb128 0x24
 3384 01c7 1D       		.uleb128 0x1d
 3385 01c8 00       		.byte	0
 3386 01c9 31       		.uleb128 0x31
 3387 01ca 13       		.uleb128 0x13
 3388 01cb 11       		.uleb128 0x11
 3389 01cc 01       		.uleb128 0x1
 3390 01cd 12       		.uleb128 0x12
 3391 01ce 06       		.uleb128 0x6
 3392 01cf 58       		.uleb128 0x58
 3393 01d0 0B       		.uleb128 0xb
 3394 01d1 59       		.uleb128 0x59
 3395 01d2 0B       		.uleb128 0xb
 3396 01d3 00       		.byte	0
 3397 01d4 00       		.byte	0
 3398 01d5 25       		.uleb128 0x25
 3399 01d6 898201   		.uleb128 0x4109
 3400 01d9 01       		.byte	0x1
 3401 01da 11       		.uleb128 0x11
 3402 01db 01       		.uleb128 0x1
 3403 01dc 31       		.uleb128 0x31
 3404 01dd 13       		.uleb128 0x13
 3405 01de 01       		.uleb128 0x1
 3406 01df 13       		.uleb128 0x13
 3407 01e0 00       		.byte	0
 3408 01e1 00       		.byte	0
 3409 01e2 26       		.uleb128 0x26
 3410 01e3 8A8201   		.uleb128 0x410a
 3411 01e6 00       		.byte	0
 3412 01e7 02       		.uleb128 0x2
 3413 01e8 18       		.uleb128 0x18
 3414 01e9 9142     		.uleb128 0x2111
 3415 01eb 18       		.uleb128 0x18
 3416 01ec 00       		.byte	0
 3417 01ed 00       		.byte	0
 3418 01ee 27       		.uleb128 0x27
 3419 01ef 898201   		.uleb128 0x4109
 3420 01f2 01       		.byte	0x1
ARM GAS  /tmp/ccIJOfrC.s 			page 61


 3421 01f3 11       		.uleb128 0x11
 3422 01f4 01       		.uleb128 0x1
 3423 01f5 31       		.uleb128 0x31
 3424 01f6 13       		.uleb128 0x13
 3425 01f7 00       		.byte	0
 3426 01f8 00       		.byte	0
 3427 01f9 28       		.uleb128 0x28
 3428 01fa 34       		.uleb128 0x34
 3429 01fb 00       		.byte	0
 3430 01fc 03       		.uleb128 0x3
 3431 01fd 08       		.uleb128 0x8
 3432 01fe 3A       		.uleb128 0x3a
 3433 01ff 0B       		.uleb128 0xb
 3434 0200 3B       		.uleb128 0x3b
 3435 0201 05       		.uleb128 0x5
 3436 0202 49       		.uleb128 0x49
 3437 0203 13       		.uleb128 0x13
 3438 0204 02       		.uleb128 0x2
 3439 0205 18       		.uleb128 0x18
 3440 0206 00       		.byte	0
 3441 0207 00       		.byte	0
 3442 0208 29       		.uleb128 0x29
 3443 0209 1D       		.uleb128 0x1d
 3444 020a 01       		.byte	0x1
 3445 020b 31       		.uleb128 0x31
 3446 020c 13       		.uleb128 0x13
 3447 020d 11       		.uleb128 0x11
 3448 020e 01       		.uleb128 0x1
 3449 020f 12       		.uleb128 0x12
 3450 0210 06       		.uleb128 0x6
 3451 0211 58       		.uleb128 0x58
 3452 0212 0B       		.uleb128 0xb
 3453 0213 59       		.uleb128 0x59
 3454 0214 05       		.uleb128 0x5
 3455 0215 00       		.byte	0
 3456 0216 00       		.byte	0
 3457 0217 2A       		.uleb128 0x2a
 3458 0218 05       		.uleb128 0x5
 3459 0219 00       		.byte	0
 3460 021a 31       		.uleb128 0x31
 3461 021b 13       		.uleb128 0x13
 3462 021c 02       		.uleb128 0x2
 3463 021d 17       		.uleb128 0x17
 3464 021e 00       		.byte	0
 3465 021f 00       		.byte	0
 3466 0220 2B       		.uleb128 0x2b
 3467 0221 0B       		.uleb128 0xb
 3468 0222 01       		.byte	0x1
 3469 0223 11       		.uleb128 0x11
 3470 0224 01       		.uleb128 0x1
 3471 0225 12       		.uleb128 0x12
 3472 0226 06       		.uleb128 0x6
 3473 0227 00       		.byte	0
 3474 0228 00       		.byte	0
 3475 0229 2C       		.uleb128 0x2c
 3476 022a 34       		.uleb128 0x34
 3477 022b 00       		.byte	0
ARM GAS  /tmp/ccIJOfrC.s 			page 62


 3478 022c 31       		.uleb128 0x31
 3479 022d 13       		.uleb128 0x13
 3480 022e 00       		.byte	0
 3481 022f 00       		.byte	0
 3482 0230 2D       		.uleb128 0x2d
 3483 0231 2E       		.uleb128 0x2e
 3484 0232 01       		.byte	0x1
 3485 0233 3F       		.uleb128 0x3f
 3486 0234 19       		.uleb128 0x19
 3487 0235 03       		.uleb128 0x3
 3488 0236 0E       		.uleb128 0xe
 3489 0237 3A       		.uleb128 0x3a
 3490 0238 0B       		.uleb128 0xb
 3491 0239 3B       		.uleb128 0x3b
 3492 023a 0B       		.uleb128 0xb
 3493 023b 27       		.uleb128 0x27
 3494 023c 19       		.uleb128 0x19
 3495 023d 49       		.uleb128 0x49
 3496 023e 13       		.uleb128 0x13
 3497 023f 11       		.uleb128 0x11
 3498 0240 01       		.uleb128 0x1
 3499 0241 12       		.uleb128 0x12
 3500 0242 06       		.uleb128 0x6
 3501 0243 40       		.uleb128 0x40
 3502 0244 18       		.uleb128 0x18
 3503 0245 9742     		.uleb128 0x2117
 3504 0247 19       		.uleb128 0x19
 3505 0248 01       		.uleb128 0x1
 3506 0249 13       		.uleb128 0x13
 3507 024a 00       		.byte	0
 3508 024b 00       		.byte	0
 3509 024c 2E       		.uleb128 0x2e
 3510 024d 05       		.uleb128 0x5
 3511 024e 00       		.byte	0
 3512 024f 03       		.uleb128 0x3
 3513 0250 08       		.uleb128 0x8
 3514 0251 3A       		.uleb128 0x3a
 3515 0252 0B       		.uleb128 0xb
 3516 0253 3B       		.uleb128 0x3b
 3517 0254 0B       		.uleb128 0xb
 3518 0255 49       		.uleb128 0x49
 3519 0256 13       		.uleb128 0x13
 3520 0257 02       		.uleb128 0x2
 3521 0258 17       		.uleb128 0x17
 3522 0259 00       		.byte	0
 3523 025a 00       		.byte	0
 3524 025b 2F       		.uleb128 0x2f
 3525 025c 34       		.uleb128 0x34
 3526 025d 00       		.byte	0
 3527 025e 03       		.uleb128 0x3
 3528 025f 08       		.uleb128 0x8
 3529 0260 3A       		.uleb128 0x3a
 3530 0261 0B       		.uleb128 0xb
 3531 0262 3B       		.uleb128 0x3b
 3532 0263 0B       		.uleb128 0xb
 3533 0264 49       		.uleb128 0x49
 3534 0265 13       		.uleb128 0x13
ARM GAS  /tmp/ccIJOfrC.s 			page 63


 3535 0266 02       		.uleb128 0x2
 3536 0267 17       		.uleb128 0x17
 3537 0268 00       		.byte	0
 3538 0269 00       		.byte	0
 3539 026a 30       		.uleb128 0x30
 3540 026b 34       		.uleb128 0x34
 3541 026c 00       		.byte	0
 3542 026d 03       		.uleb128 0x3
 3543 026e 08       		.uleb128 0x8
 3544 026f 3A       		.uleb128 0x3a
 3545 0270 0B       		.uleb128 0xb
 3546 0271 3B       		.uleb128 0x3b
 3547 0272 0B       		.uleb128 0xb
 3548 0273 49       		.uleb128 0x49
 3549 0274 13       		.uleb128 0x13
 3550 0275 00       		.byte	0
 3551 0276 00       		.byte	0
 3552 0277 31       		.uleb128 0x31
 3553 0278 34       		.uleb128 0x34
 3554 0279 00       		.byte	0
 3555 027a 03       		.uleb128 0x3
 3556 027b 08       		.uleb128 0x8
 3557 027c 3A       		.uleb128 0x3a
 3558 027d 0B       		.uleb128 0xb
 3559 027e 3B       		.uleb128 0x3b
 3560 027f 0B       		.uleb128 0xb
 3561 0280 49       		.uleb128 0x49
 3562 0281 13       		.uleb128 0x13
 3563 0282 02       		.uleb128 0x2
 3564 0283 18       		.uleb128 0x18
 3565 0284 00       		.byte	0
 3566 0285 00       		.byte	0
 3567 0286 32       		.uleb128 0x32
 3568 0287 1D       		.uleb128 0x1d
 3569 0288 01       		.byte	0x1
 3570 0289 31       		.uleb128 0x31
 3571 028a 13       		.uleb128 0x13
 3572 028b 11       		.uleb128 0x11
 3573 028c 01       		.uleb128 0x1
 3574 028d 12       		.uleb128 0x12
 3575 028e 06       		.uleb128 0x6
 3576 028f 58       		.uleb128 0x58
 3577 0290 0B       		.uleb128 0xb
 3578 0291 59       		.uleb128 0x59
 3579 0292 0B       		.uleb128 0xb
 3580 0293 01       		.uleb128 0x1
 3581 0294 13       		.uleb128 0x13
 3582 0295 00       		.byte	0
 3583 0296 00       		.byte	0
 3584 0297 33       		.uleb128 0x33
 3585 0298 2E       		.uleb128 0x2e
 3586 0299 01       		.byte	0x1
 3587 029a 3F       		.uleb128 0x3f
 3588 029b 19       		.uleb128 0x19
 3589 029c 03       		.uleb128 0x3
 3590 029d 0E       		.uleb128 0xe
 3591 029e 3A       		.uleb128 0x3a
ARM GAS  /tmp/ccIJOfrC.s 			page 64


 3592 029f 0B       		.uleb128 0xb
 3593 02a0 3B       		.uleb128 0x3b
 3594 02a1 0B       		.uleb128 0xb
 3595 02a2 27       		.uleb128 0x27
 3596 02a3 19       		.uleb128 0x19
 3597 02a4 11       		.uleb128 0x11
 3598 02a5 01       		.uleb128 0x1
 3599 02a6 12       		.uleb128 0x12
 3600 02a7 06       		.uleb128 0x6
 3601 02a8 40       		.uleb128 0x40
 3602 02a9 18       		.uleb128 0x18
 3603 02aa 9742     		.uleb128 0x2117
 3604 02ac 19       		.uleb128 0x19
 3605 02ad 01       		.uleb128 0x1
 3606 02ae 13       		.uleb128 0x13
 3607 02af 00       		.byte	0
 3608 02b0 00       		.byte	0
 3609 02b1 34       		.uleb128 0x34
 3610 02b2 34       		.uleb128 0x34
 3611 02b3 00       		.byte	0
 3612 02b4 31       		.uleb128 0x31
 3613 02b5 13       		.uleb128 0x13
 3614 02b6 02       		.uleb128 0x2
 3615 02b7 17       		.uleb128 0x17
 3616 02b8 00       		.byte	0
 3617 02b9 00       		.byte	0
 3618 02ba 35       		.uleb128 0x35
 3619 02bb 898201   		.uleb128 0x4109
 3620 02be 00       		.byte	0
 3621 02bf 11       		.uleb128 0x11
 3622 02c0 01       		.uleb128 0x1
 3623 02c1 31       		.uleb128 0x31
 3624 02c2 13       		.uleb128 0x13
 3625 02c3 00       		.byte	0
 3626 02c4 00       		.byte	0
 3627 02c5 36       		.uleb128 0x36
 3628 02c6 0B       		.uleb128 0xb
 3629 02c7 01       		.byte	0x1
 3630 02c8 11       		.uleb128 0x11
 3631 02c9 01       		.uleb128 0x1
 3632 02ca 12       		.uleb128 0x12
 3633 02cb 06       		.uleb128 0x6
 3634 02cc 01       		.uleb128 0x1
 3635 02cd 13       		.uleb128 0x13
 3636 02ce 00       		.byte	0
 3637 02cf 00       		.byte	0
 3638 02d0 37       		.uleb128 0x37
 3639 02d1 898201   		.uleb128 0x4109
 3640 02d4 00       		.byte	0
 3641 02d5 11       		.uleb128 0x11
 3642 02d6 01       		.uleb128 0x1
 3643 02d7 9542     		.uleb128 0x2115
 3644 02d9 19       		.uleb128 0x19
 3645 02da 31       		.uleb128 0x31
 3646 02db 13       		.uleb128 0x13
 3647 02dc 00       		.byte	0
 3648 02dd 00       		.byte	0
ARM GAS  /tmp/ccIJOfrC.s 			page 65


 3649 02de 38       		.uleb128 0x38
 3650 02df 1D       		.uleb128 0x1d
 3651 02e0 01       		.byte	0x1
 3652 02e1 31       		.uleb128 0x31
 3653 02e2 13       		.uleb128 0x13
 3654 02e3 11       		.uleb128 0x11
 3655 02e4 01       		.uleb128 0x1
 3656 02e5 12       		.uleb128 0x12
 3657 02e6 06       		.uleb128 0x6
 3658 02e7 58       		.uleb128 0x58
 3659 02e8 0B       		.uleb128 0xb
 3660 02e9 59       		.uleb128 0x59
 3661 02ea 0B       		.uleb128 0xb
 3662 02eb 00       		.byte	0
 3663 02ec 00       		.byte	0
 3664 02ed 39       		.uleb128 0x39
 3665 02ee 1D       		.uleb128 0x1d
 3666 02ef 01       		.byte	0x1
 3667 02f0 31       		.uleb128 0x31
 3668 02f1 13       		.uleb128 0x13
 3669 02f2 52       		.uleb128 0x52
 3670 02f3 01       		.uleb128 0x1
 3671 02f4 55       		.uleb128 0x55
 3672 02f5 17       		.uleb128 0x17
 3673 02f6 58       		.uleb128 0x58
 3674 02f7 0B       		.uleb128 0xb
 3675 02f8 59       		.uleb128 0x59
 3676 02f9 0B       		.uleb128 0xb
 3677 02fa 01       		.uleb128 0x1
 3678 02fb 13       		.uleb128 0x13
 3679 02fc 00       		.byte	0
 3680 02fd 00       		.byte	0
 3681 02fe 3A       		.uleb128 0x3a
 3682 02ff 1D       		.uleb128 0x1d
 3683 0300 01       		.byte	0x1
 3684 0301 31       		.uleb128 0x31
 3685 0302 13       		.uleb128 0x13
 3686 0303 52       		.uleb128 0x52
 3687 0304 01       		.uleb128 0x1
 3688 0305 55       		.uleb128 0x55
 3689 0306 17       		.uleb128 0x17
 3690 0307 58       		.uleb128 0x58
 3691 0308 0B       		.uleb128 0xb
 3692 0309 59       		.uleb128 0x59
 3693 030a 05       		.uleb128 0x5
 3694 030b 00       		.byte	0
 3695 030c 00       		.byte	0
 3696 030d 3B       		.uleb128 0x3b
 3697 030e 0B       		.uleb128 0xb
 3698 030f 01       		.byte	0x1
 3699 0310 55       		.uleb128 0x55
 3700 0311 17       		.uleb128 0x17
 3701 0312 00       		.byte	0
 3702 0313 00       		.byte	0
 3703 0314 3C       		.uleb128 0x3c
 3704 0315 05       		.uleb128 0x5
 3705 0316 00       		.byte	0
ARM GAS  /tmp/ccIJOfrC.s 			page 66


 3706 0317 03       		.uleb128 0x3
 3707 0318 08       		.uleb128 0x8
 3708 0319 3A       		.uleb128 0x3a
 3709 031a 0B       		.uleb128 0xb
 3710 031b 3B       		.uleb128 0x3b
 3711 031c 0B       		.uleb128 0xb
 3712 031d 49       		.uleb128 0x49
 3713 031e 13       		.uleb128 0x13
 3714 031f 02       		.uleb128 0x2
 3715 0320 18       		.uleb128 0x18
 3716 0321 00       		.byte	0
 3717 0322 00       		.byte	0
 3718 0323 3D       		.uleb128 0x3d
 3719 0324 2E       		.uleb128 0x2e
 3720 0325 00       		.byte	0
 3721 0326 03       		.uleb128 0x3
 3722 0327 0E       		.uleb128 0xe
 3723 0328 3A       		.uleb128 0x3a
 3724 0329 0B       		.uleb128 0xb
 3725 032a 3B       		.uleb128 0x3b
 3726 032b 0B       		.uleb128 0xb
 3727 032c 27       		.uleb128 0x27
 3728 032d 19       		.uleb128 0x19
 3729 032e 49       		.uleb128 0x49
 3730 032f 13       		.uleb128 0x13
 3731 0330 20       		.uleb128 0x20
 3732 0331 0B       		.uleb128 0xb
 3733 0332 00       		.byte	0
 3734 0333 00       		.byte	0
 3735 0334 3E       		.uleb128 0x3e
 3736 0335 2E       		.uleb128 0x2e
 3737 0336 00       		.byte	0
 3738 0337 03       		.uleb128 0x3
 3739 0338 0E       		.uleb128 0xe
 3740 0339 3A       		.uleb128 0x3a
 3741 033a 0B       		.uleb128 0xb
 3742 033b 3B       		.uleb128 0x3b
 3743 033c 05       		.uleb128 0x5
 3744 033d 27       		.uleb128 0x27
 3745 033e 19       		.uleb128 0x19
 3746 033f 49       		.uleb128 0x49
 3747 0340 13       		.uleb128 0x13
 3748 0341 20       		.uleb128 0x20
 3749 0342 0B       		.uleb128 0xb
 3750 0343 00       		.byte	0
 3751 0344 00       		.byte	0
 3752 0345 3F       		.uleb128 0x3f
 3753 0346 2E       		.uleb128 0x2e
 3754 0347 01       		.byte	0x1
 3755 0348 03       		.uleb128 0x3
 3756 0349 0E       		.uleb128 0xe
 3757 034a 3A       		.uleb128 0x3a
 3758 034b 0B       		.uleb128 0xb
 3759 034c 3B       		.uleb128 0x3b
 3760 034d 05       		.uleb128 0x5
 3761 034e 27       		.uleb128 0x27
 3762 034f 19       		.uleb128 0x19
ARM GAS  /tmp/ccIJOfrC.s 			page 67


 3763 0350 20       		.uleb128 0x20
 3764 0351 0B       		.uleb128 0xb
 3765 0352 01       		.uleb128 0x1
 3766 0353 13       		.uleb128 0x13
 3767 0354 00       		.byte	0
 3768 0355 00       		.byte	0
 3769 0356 40       		.uleb128 0x40
 3770 0357 34       		.uleb128 0x34
 3771 0358 00       		.byte	0
 3772 0359 03       		.uleb128 0x3
 3773 035a 0E       		.uleb128 0xe
 3774 035b 49       		.uleb128 0x49
 3775 035c 13       		.uleb128 0x13
 3776 035d 34       		.uleb128 0x34
 3777 035e 19       		.uleb128 0x19
 3778 035f 1C       		.uleb128 0x1c
 3779 0360 0E       		.uleb128 0xe
 3780 0361 00       		.byte	0
 3781 0362 00       		.byte	0
 3782 0363 41       		.uleb128 0x41
 3783 0364 2E       		.uleb128 0x2e
 3784 0365 00       		.byte	0
 3785 0366 03       		.uleb128 0x3
 3786 0367 0E       		.uleb128 0xe
 3787 0368 3A       		.uleb128 0x3a
 3788 0369 0B       		.uleb128 0xb
 3789 036a 3B       		.uleb128 0x3b
 3790 036b 05       		.uleb128 0x5
 3791 036c 27       		.uleb128 0x27
 3792 036d 19       		.uleb128 0x19
 3793 036e 20       		.uleb128 0x20
 3794 036f 0B       		.uleb128 0xb
 3795 0370 00       		.byte	0
 3796 0371 00       		.byte	0
 3797 0372 42       		.uleb128 0x42
 3798 0373 2E       		.uleb128 0x2e
 3799 0374 01       		.byte	0x1
 3800 0375 03       		.uleb128 0x3
 3801 0376 0E       		.uleb128 0xe
 3802 0377 3A       		.uleb128 0x3a
 3803 0378 0B       		.uleb128 0xb
 3804 0379 3B       		.uleb128 0x3b
 3805 037a 05       		.uleb128 0x5
 3806 037b 27       		.uleb128 0x27
 3807 037c 19       		.uleb128 0x19
 3808 037d 49       		.uleb128 0x49
 3809 037e 13       		.uleb128 0x13
 3810 037f 20       		.uleb128 0x20
 3811 0380 0B       		.uleb128 0xb
 3812 0381 01       		.uleb128 0x1
 3813 0382 13       		.uleb128 0x13
 3814 0383 00       		.byte	0
 3815 0384 00       		.byte	0
 3816 0385 43       		.uleb128 0x43
 3817 0386 05       		.uleb128 0x5
 3818 0387 00       		.byte	0
 3819 0388 03       		.uleb128 0x3
ARM GAS  /tmp/ccIJOfrC.s 			page 68


 3820 0389 08       		.uleb128 0x8
 3821 038a 3A       		.uleb128 0x3a
 3822 038b 0B       		.uleb128 0xb
 3823 038c 3B       		.uleb128 0x3b
 3824 038d 05       		.uleb128 0x5
 3825 038e 49       		.uleb128 0x49
 3826 038f 13       		.uleb128 0x13
 3827 0390 00       		.byte	0
 3828 0391 00       		.byte	0
 3829 0392 44       		.uleb128 0x44
 3830 0393 2E       		.uleb128 0x2e
 3831 0394 01       		.byte	0x1
 3832 0395 03       		.uleb128 0x3
 3833 0396 0E       		.uleb128 0xe
 3834 0397 3A       		.uleb128 0x3a
 3835 0398 0B       		.uleb128 0xb
 3836 0399 3B       		.uleb128 0x3b
 3837 039a 05       		.uleb128 0x5
 3838 039b 27       		.uleb128 0x27
 3839 039c 19       		.uleb128 0x19
 3840 039d 11       		.uleb128 0x11
 3841 039e 01       		.uleb128 0x1
 3842 039f 12       		.uleb128 0x12
 3843 03a0 06       		.uleb128 0x6
 3844 03a1 40       		.uleb128 0x40
 3845 03a2 18       		.uleb128 0x18
 3846 03a3 9742     		.uleb128 0x2117
 3847 03a5 19       		.uleb128 0x19
 3848 03a6 01       		.uleb128 0x1
 3849 03a7 13       		.uleb128 0x13
 3850 03a8 00       		.byte	0
 3851 03a9 00       		.byte	0
 3852 03aa 45       		.uleb128 0x45
 3853 03ab 05       		.uleb128 0x5
 3854 03ac 00       		.byte	0
 3855 03ad 03       		.uleb128 0x3
 3856 03ae 08       		.uleb128 0x8
 3857 03af 3A       		.uleb128 0x3a
 3858 03b0 0B       		.uleb128 0xb
 3859 03b1 3B       		.uleb128 0x3b
 3860 03b2 05       		.uleb128 0x5
 3861 03b3 49       		.uleb128 0x49
 3862 03b4 13       		.uleb128 0x13
 3863 03b5 02       		.uleb128 0x2
 3864 03b6 18       		.uleb128 0x18
 3865 03b7 00       		.byte	0
 3866 03b8 00       		.byte	0
 3867 03b9 46       		.uleb128 0x46
 3868 03ba 05       		.uleb128 0x5
 3869 03bb 00       		.byte	0
 3870 03bc 03       		.uleb128 0x3
 3871 03bd 0E       		.uleb128 0xe
 3872 03be 3A       		.uleb128 0x3a
 3873 03bf 0B       		.uleb128 0xb
 3874 03c0 3B       		.uleb128 0x3b
 3875 03c1 05       		.uleb128 0x5
 3876 03c2 49       		.uleb128 0x49
ARM GAS  /tmp/ccIJOfrC.s 			page 69


 3877 03c3 13       		.uleb128 0x13
 3878 03c4 00       		.byte	0
 3879 03c5 00       		.byte	0
 3880 03c6 47       		.uleb128 0x47
 3881 03c7 2E       		.uleb128 0x2e
 3882 03c8 00       		.byte	0
 3883 03c9 3F       		.uleb128 0x3f
 3884 03ca 19       		.uleb128 0x19
 3885 03cb 3C       		.uleb128 0x3c
 3886 03cc 19       		.uleb128 0x19
 3887 03cd 6E       		.uleb128 0x6e
 3888 03ce 0E       		.uleb128 0xe
 3889 03cf 03       		.uleb128 0x3
 3890 03d0 0E       		.uleb128 0xe
 3891 03d1 3A       		.uleb128 0x3a
 3892 03d2 0B       		.uleb128 0xb
 3893 03d3 3B       		.uleb128 0x3b
 3894 03d4 0B       		.uleb128 0xb
 3895 03d5 00       		.byte	0
 3896 03d6 00       		.byte	0
 3897 03d7 48       		.uleb128 0x48
 3898 03d8 2E       		.uleb128 0x2e
 3899 03d9 00       		.byte	0
 3900 03da 3F       		.uleb128 0x3f
 3901 03db 19       		.uleb128 0x19
 3902 03dc 3C       		.uleb128 0x3c
 3903 03dd 19       		.uleb128 0x19
 3904 03de 6E       		.uleb128 0x6e
 3905 03df 0E       		.uleb128 0xe
 3906 03e0 03       		.uleb128 0x3
 3907 03e1 0E       		.uleb128 0xe
 3908 03e2 3A       		.uleb128 0x3a
 3909 03e3 0B       		.uleb128 0xb
 3910 03e4 3B       		.uleb128 0x3b
 3911 03e5 05       		.uleb128 0x5
 3912 03e6 00       		.byte	0
 3913 03e7 00       		.byte	0
 3914 03e8 00       		.byte	0
 3915              		.section	.debug_loc,"",%progbits
 3916              	.Ldebug_loc0:
 3917              	.LLST25:
 3918 0000 00000000 		.4byte	.LVL42
 3919 0004 0C000000 		.4byte	.LVL43
 3920 0008 0100     		.2byte	0x1
 3921 000a 50       		.byte	0x50
 3922 000b 0C000000 		.4byte	.LVL43
 3923 000f 28000000 		.4byte	.LVL47
 3924 0013 0100     		.2byte	0x1
 3925 0015 54       		.byte	0x54
 3926 0016 28000000 		.4byte	.LVL47
 3927 001a 38000000 		.4byte	.LFE298
 3928 001e 0400     		.2byte	0x4
 3929 0020 F3       		.byte	0xf3
 3930 0021 01       		.uleb128 0x1
 3931 0022 50       		.byte	0x50
 3932 0023 9F       		.byte	0x9f
 3933 0024 00000000 		.4byte	0
ARM GAS  /tmp/ccIJOfrC.s 			page 70


 3934 0028 00000000 		.4byte	0
 3935              	.LLST26:
 3936 002c 00000000 		.4byte	.LVL42
 3937 0030 11000000 		.4byte	.LVL44-1
 3938 0034 0100     		.2byte	0x1
 3939 0036 51       		.byte	0x51
 3940 0037 11000000 		.4byte	.LVL44-1
 3941 003b 34000000 		.4byte	.LVL50
 3942 003f 0100     		.2byte	0x1
 3943 0041 57       		.byte	0x57
 3944 0042 34000000 		.4byte	.LVL50
 3945 0046 38000000 		.4byte	.LFE298
 3946 004a 0400     		.2byte	0x4
 3947 004c F3       		.byte	0xf3
 3948 004d 01       		.uleb128 0x1
 3949 004e 51       		.byte	0x51
 3950 004f 9F       		.byte	0x9f
 3951 0050 00000000 		.4byte	0
 3952 0054 00000000 		.4byte	0
 3953              	.LLST27:
 3954 0058 28000000 		.4byte	.LVL47
 3955 005c 2C000000 		.4byte	.LVL48
 3956 0060 0100     		.2byte	0x1
 3957 0062 50       		.byte	0x50
 3958 0063 2C000000 		.4byte	.LVL48
 3959 0067 34000000 		.4byte	.LVL50
 3960 006b 0100     		.2byte	0x1
 3961 006d 54       		.byte	0x54
 3962 006e 34000000 		.4byte	.LVL50
 3963 0072 38000000 		.4byte	.LFE298
 3964 0076 0100     		.2byte	0x1
 3965 0078 50       		.byte	0x50
 3966 0079 00000000 		.4byte	0
 3967 007d 00000000 		.4byte	0
 3968              	.LLST28:
 3969 0081 00000000 		.4byte	.LVL51
 3970 0085 0B000000 		.4byte	.LVL53-1
 3971 0089 0100     		.2byte	0x1
 3972 008b 50       		.byte	0x50
 3973 008c 0B000000 		.4byte	.LVL53-1
 3974 0090 14000000 		.4byte	.LFE297
 3975 0094 0400     		.2byte	0x4
 3976 0096 F3       		.byte	0xf3
 3977 0097 01       		.uleb128 0x1
 3978 0098 50       		.byte	0x50
 3979 0099 9F       		.byte	0x9f
 3980 009a 00000000 		.4byte	0
 3981 009e 00000000 		.4byte	0
 3982              	.LLST29:
 3983 00a2 00000000 		.4byte	.LVL51
 3984 00a6 0B000000 		.4byte	.LVL53-1
 3985 00aa 0100     		.2byte	0x1
 3986 00ac 51       		.byte	0x51
 3987 00ad 0B000000 		.4byte	.LVL53-1
 3988 00b1 14000000 		.4byte	.LFE297
 3989 00b5 0400     		.2byte	0x4
 3990 00b7 F3       		.byte	0xf3
ARM GAS  /tmp/ccIJOfrC.s 			page 71


 3991 00b8 01       		.uleb128 0x1
 3992 00b9 51       		.byte	0x51
 3993 00ba 9F       		.byte	0x9f
 3994 00bb 00000000 		.4byte	0
 3995 00bf 00000000 		.4byte	0
 3996              	.LLST30:
 3997 00c3 00000000 		.4byte	.LVL51
 3998 00c7 08000000 		.4byte	.LVL52
 3999 00cb 0300     		.2byte	0x3
 4000 00cd 08       		.byte	0x8
 4001 00ce 20       		.byte	0x20
 4002 00cf 9F       		.byte	0x9f
 4003 00d0 00000000 		.4byte	0
 4004 00d4 00000000 		.4byte	0
 4005              	.LLST31:
 4006 00d8 0C000000 		.4byte	.LVL53
 4007 00dc 12000000 		.4byte	.LVL54
 4008 00e0 0200     		.2byte	0x2
 4009 00e2 30       		.byte	0x30
 4010 00e3 9F       		.byte	0x9f
 4011 00e4 00000000 		.4byte	0
 4012 00e8 00000000 		.4byte	0
 4013              	.LLST19:
 4014 00ec 00000000 		.4byte	.LVL29
 4015 00f0 0C000000 		.4byte	.LVL31
 4016 00f4 0100     		.2byte	0x1
 4017 00f6 50       		.byte	0x50
 4018 00f7 0C000000 		.4byte	.LVL31
 4019 00fb 2C000000 		.4byte	.LVL37
 4020 00ff 0100     		.2byte	0x1
 4021 0101 56       		.byte	0x56
 4022 0102 2C000000 		.4byte	.LVL37
 4023 0106 30000000 		.4byte	.LFE296
 4024 010a 0400     		.2byte	0x4
 4025 010c F3       		.byte	0xf3
 4026 010d 01       		.uleb128 0x1
 4027 010e 50       		.byte	0x50
 4028 010f 9F       		.byte	0x9f
 4029 0110 00000000 		.4byte	0
 4030 0114 00000000 		.4byte	0
 4031              	.LLST20:
 4032 0118 06000000 		.4byte	.LVL30
 4033 011c 22000000 		.4byte	.LVL35
 4034 0120 0100     		.2byte	0x1
 4035 0122 54       		.byte	0x54
 4036 0123 00000000 		.4byte	0
 4037 0127 00000000 		.4byte	0
 4038              	.LLST21:
 4039 012b 22000000 		.4byte	.LVL35
 4040 012f 2C000000 		.4byte	.LVL37
 4041 0133 0100     		.2byte	0x1
 4042 0135 54       		.byte	0x54
 4043 0136 2C000000 		.4byte	.LVL37
 4044 013a 30000000 		.4byte	.LFE296
 4045 013e 0100     		.2byte	0x1
 4046 0140 50       		.byte	0x50
 4047 0141 00000000 		.4byte	0
ARM GAS  /tmp/ccIJOfrC.s 			page 72


 4048 0145 00000000 		.4byte	0
 4049              	.LLST22:
 4050 0149 00000000 		.4byte	.LVL38
 4051 014d 0B000000 		.4byte	.LVL40-1
 4052 0151 0100     		.2byte	0x1
 4053 0153 50       		.byte	0x50
 4054 0154 0B000000 		.4byte	.LVL40-1
 4055 0158 14000000 		.4byte	.LFE295
 4056 015c 0400     		.2byte	0x4
 4057 015e F3       		.byte	0xf3
 4058 015f 01       		.uleb128 0x1
 4059 0160 50       		.byte	0x50
 4060 0161 9F       		.byte	0x9f
 4061 0162 00000000 		.4byte	0
 4062 0166 00000000 		.4byte	0
 4063              	.LLST23:
 4064 016a 00000000 		.4byte	.LVL38
 4065 016e 08000000 		.4byte	.LVL39
 4066 0172 0300     		.2byte	0x3
 4067 0174 08       		.byte	0x8
 4068 0175 20       		.byte	0x20
 4069 0176 9F       		.byte	0x9f
 4070 0177 00000000 		.4byte	0
 4071 017b 00000000 		.4byte	0
 4072              	.LLST24:
 4073 017f 0C000000 		.4byte	.LVL40
 4074 0183 12000000 		.4byte	.LVL41
 4075 0187 0200     		.2byte	0x2
 4076 0189 30       		.byte	0x30
 4077 018a 9F       		.byte	0x9f
 4078 018b 00000000 		.4byte	0
 4079 018f 00000000 		.4byte	0
 4080              	.LLST12:
 4081 0193 00000000 		.4byte	.LVL18
 4082 0197 08000000 		.4byte	.LVL19
 4083 019b 0100     		.2byte	0x1
 4084 019d 50       		.byte	0x50
 4085 019e 08000000 		.4byte	.LVL19
 4086 01a2 1E000000 		.4byte	.LFE294
 4087 01a6 0100     		.2byte	0x1
 4088 01a8 54       		.byte	0x54
 4089 01a9 00000000 		.4byte	0
 4090 01ad 00000000 		.4byte	0
 4091              	.LLST13:
 4092 01b1 08000000 		.4byte	.LVL19
 4093 01b5 0A000000 		.4byte	.LVL20
 4094 01b9 0100     		.2byte	0x1
 4095 01bb 54       		.byte	0x54
 4096 01bc 00000000 		.4byte	0
 4097 01c0 00000000 		.4byte	0
 4098              	.LLST14:
 4099 01c4 10000000 		.4byte	.LVL21
 4100 01c8 16000000 		.4byte	.LVL22
 4101 01cc 0100     		.2byte	0x1
 4102 01ce 54       		.byte	0x54
 4103 01cf 00000000 		.4byte	0
 4104 01d3 00000000 		.4byte	0
ARM GAS  /tmp/ccIJOfrC.s 			page 73


 4105              	.LLST15:
 4106 01d7 10000000 		.4byte	.LVL21
 4107 01db 16000000 		.4byte	.LVL22
 4108 01df 0100     		.2byte	0x1
 4109 01e1 50       		.byte	0x50
 4110 01e2 00000000 		.4byte	0
 4111 01e6 00000000 		.4byte	0
 4112              	.LLST16:
 4113 01ea 00000000 		.4byte	.LVL24
 4114 01ee 0B000000 		.4byte	.LVL26-1
 4115 01f2 0100     		.2byte	0x1
 4116 01f4 50       		.byte	0x50
 4117 01f5 0B000000 		.4byte	.LVL26-1
 4118 01f9 18000000 		.4byte	.LFE293
 4119 01fd 0400     		.2byte	0x4
 4120 01ff F3       		.byte	0xf3
 4121 0200 01       		.uleb128 0x1
 4122 0201 50       		.byte	0x50
 4123 0202 9F       		.byte	0x9f
 4124 0203 00000000 		.4byte	0
 4125 0207 00000000 		.4byte	0
 4126              	.LLST17:
 4127 020b 00000000 		.4byte	.LVL24
 4128 020f 08000000 		.4byte	.LVL25
 4129 0213 0300     		.2byte	0x3
 4130 0215 08       		.byte	0x8
 4131 0216 20       		.byte	0x20
 4132 0217 9F       		.byte	0x9f
 4133 0218 00000000 		.4byte	0
 4134 021c 00000000 		.4byte	0
 4135              	.LLST18:
 4136 0220 10000000 		.4byte	.LVL27
 4137 0224 16000000 		.4byte	.LVL28
 4138 0228 0200     		.2byte	0x2
 4139 022a 30       		.byte	0x30
 4140 022b 9F       		.byte	0x9f
 4141 022c 00000000 		.4byte	0
 4142 0230 00000000 		.4byte	0
 4143              	.LLST8:
 4144 0234 00000000 		.4byte	.LVL12
 4145 0238 12000000 		.4byte	.LVL16
 4146 023c 0100     		.2byte	0x1
 4147 023e 50       		.byte	0x50
 4148 023f 12000000 		.4byte	.LVL16
 4149 0243 16000000 		.4byte	.LVL17
 4150 0247 0400     		.2byte	0x4
 4151 0249 F3       		.byte	0xf3
 4152 024a 01       		.uleb128 0x1
 4153 024b 50       		.byte	0x50
 4154 024c 9F       		.byte	0x9f
 4155 024d 16000000 		.4byte	.LVL17
 4156 0251 18000000 		.4byte	.LFE292
 4157 0255 0100     		.2byte	0x1
 4158 0257 50       		.byte	0x50
 4159 0258 00000000 		.4byte	0
 4160 025c 00000000 		.4byte	0
 4161              	.LLST10:
ARM GAS  /tmp/ccIJOfrC.s 			page 74


 4162 0260 06000000 		.4byte	.LVL14
 4163 0264 0C000000 		.4byte	.LVL15
 4164 0268 0100     		.2byte	0x1
 4165 026a 50       		.byte	0x50
 4166 026b 00000000 		.4byte	0
 4167 026f 00000000 		.4byte	0
 4168              	.LLST11:
 4169 0273 06000000 		.4byte	.LVL14
 4170 0277 0C000000 		.4byte	.LVL15
 4171 027b 0100     		.2byte	0x1
 4172 027d 53       		.byte	0x53
 4173 027e 00000000 		.4byte	0
 4174 0282 00000000 		.4byte	0
 4175              	.LLST9:
 4176 0286 00000000 		.4byte	.LVL12
 4177 028a 02000000 		.4byte	.LVL13
 4178 028e 0100     		.2byte	0x1
 4179 0290 50       		.byte	0x50
 4180 0291 00000000 		.4byte	0
 4181 0295 00000000 		.4byte	0
 4182              	.LLST2:
 4183 0299 00000000 		.4byte	.LVL5
 4184 029d 0C000000 		.4byte	.LVL7
 4185 02a1 0100     		.2byte	0x1
 4186 02a3 50       		.byte	0x50
 4187 02a4 0C000000 		.4byte	.LVL7
 4188 02a8 1B000000 		.4byte	.LVL10-1
 4189 02ac 0100     		.2byte	0x1
 4190 02ae 53       		.byte	0x53
 4191 02af 1B000000 		.4byte	.LVL10-1
 4192 02b3 24000000 		.4byte	.LFE291
 4193 02b7 0400     		.2byte	0x4
 4194 02b9 F3       		.byte	0xf3
 4195 02ba 01       		.uleb128 0x1
 4196 02bb 50       		.byte	0x50
 4197 02bc 9F       		.byte	0x9f
 4198 02bd 00000000 		.4byte	0
 4199 02c1 00000000 		.4byte	0
 4200              	.LLST3:
 4201 02c5 00000000 		.4byte	.LVL5
 4202 02c9 0A000000 		.4byte	.LVL6
 4203 02cd 0300     		.2byte	0x3
 4204 02cf 08       		.byte	0x8
 4205 02d0 20       		.byte	0x20
 4206 02d1 9F       		.byte	0x9f
 4207 02d2 00000000 		.4byte	0
 4208 02d6 00000000 		.4byte	0
 4209              	.LLST4:
 4210 02da 0A000000 		.4byte	.LVL6
 4211 02de 0C000000 		.4byte	.LVL7
 4212 02e2 0100     		.2byte	0x1
 4213 02e4 50       		.byte	0x50
 4214 02e5 00000000 		.4byte	0
 4215 02e9 00000000 		.4byte	0
 4216              	.LLST5:
 4217 02ed 10000000 		.4byte	.LVL8
 4218 02f1 18000000 		.4byte	.LVL9
ARM GAS  /tmp/ccIJOfrC.s 			page 75


 4219 02f5 0100     		.2byte	0x1
 4220 02f7 53       		.byte	0x53
 4221 02f8 00000000 		.4byte	0
 4222 02fc 00000000 		.4byte	0
 4223              	.LLST6:
 4224 0300 10000000 		.4byte	.LVL8
 4225 0304 18000000 		.4byte	.LVL9
 4226 0308 0100     		.2byte	0x1
 4227 030a 50       		.byte	0x50
 4228 030b 00000000 		.4byte	0
 4229 030f 00000000 		.4byte	0
 4230              	.LLST7:
 4231 0313 1C000000 		.4byte	.LVL10
 4232 0317 22000000 		.4byte	.LVL11
 4233 031b 0200     		.2byte	0x2
 4234 031d 30       		.byte	0x30
 4235 031e 9F       		.byte	0x9f
 4236 031f 00000000 		.4byte	0
 4237 0323 00000000 		.4byte	0
 4238              	.LLST1:
 4239 0327 00000000 		.4byte	.LVL3
 4240 032b 04000000 		.4byte	.LVL4
 4241 032f 0100     		.2byte	0x1
 4242 0331 50       		.byte	0x50
 4243 0332 00000000 		.4byte	0
 4244 0336 00000000 		.4byte	0
 4245              	.LLST0:
 4246 033a 00000000 		.4byte	.LVL0
 4247 033e 04000000 		.4byte	.LVL1
 4248 0342 0100     		.2byte	0x1
 4249 0344 51       		.byte	0x51
 4250 0345 04000000 		.4byte	.LVL1
 4251 0349 20000000 		.4byte	.LFE172
 4252 034d 0100     		.2byte	0x1
 4253 034f 53       		.byte	0x53
 4254 0350 00000000 		.4byte	0
 4255 0354 00000000 		.4byte	0
 4256              		.section	.debug_aranges,"",%progbits
 4257 0000 64000000 		.4byte	0x64
 4258 0004 0200     		.2byte	0x2
 4259 0006 00000000 		.4byte	.Ldebug_info0
 4260 000a 04       		.byte	0x4
 4261 000b 00       		.byte	0
 4262 000c 0000     		.2byte	0
 4263 000e 0000     		.2byte	0
 4264 0010 00000000 		.4byte	.LFB172
 4265 0014 20000000 		.4byte	.LFE172-.LFB172
 4266 0018 00000000 		.4byte	.LFB290
 4267 001c 06000000 		.4byte	.LFE290-.LFB290
 4268 0020 00000000 		.4byte	.LFB291
 4269 0024 24000000 		.4byte	.LFE291-.LFB291
 4270 0028 00000000 		.4byte	.LFB292
 4271 002c 18000000 		.4byte	.LFE292-.LFB292
 4272 0030 00000000 		.4byte	.LFB294
 4273 0034 1E000000 		.4byte	.LFE294-.LFB294
 4274 0038 00000000 		.4byte	.LFB293
 4275 003c 18000000 		.4byte	.LFE293-.LFB293
ARM GAS  /tmp/ccIJOfrC.s 			page 76


 4276 0040 00000000 		.4byte	.LFB296
 4277 0044 30000000 		.4byte	.LFE296-.LFB296
 4278 0048 00000000 		.4byte	.LFB295
 4279 004c 14000000 		.4byte	.LFE295-.LFB295
 4280 0050 00000000 		.4byte	.LFB298
 4281 0054 38000000 		.4byte	.LFE298-.LFB298
 4282 0058 00000000 		.4byte	.LFB297
 4283 005c 14000000 		.4byte	.LFE297-.LFB297
 4284 0060 00000000 		.4byte	0
 4285 0064 00000000 		.4byte	0
 4286              		.section	.debug_ranges,"",%progbits
 4287              	.Ldebug_ranges0:
 4288 0000 02000000 		.4byte	.LBB81
 4289 0004 04000000 		.4byte	.LBE81
 4290 0008 06000000 		.4byte	.LBB88
 4291 000c 0A000000 		.4byte	.LBE88
 4292 0010 00000000 		.4byte	0
 4293 0014 00000000 		.4byte	0
 4294 0018 10000000 		.4byte	.LBB91
 4295 001c 14000000 		.4byte	.LBE91
 4296 0020 16000000 		.4byte	.LBB94
 4297 0024 18000000 		.4byte	.LBE94
 4298 0028 00000000 		.4byte	0
 4299 002c 00000000 		.4byte	0
 4300 0030 00000000 		.4byte	.LFB172
 4301 0034 20000000 		.4byte	.LFE172
 4302 0038 00000000 		.4byte	.LFB290
 4303 003c 06000000 		.4byte	.LFE290
 4304 0040 00000000 		.4byte	.LFB291
 4305 0044 24000000 		.4byte	.LFE291
 4306 0048 00000000 		.4byte	.LFB292
 4307 004c 18000000 		.4byte	.LFE292
 4308 0050 00000000 		.4byte	.LFB294
 4309 0054 1E000000 		.4byte	.LFE294
 4310 0058 00000000 		.4byte	.LFB293
 4311 005c 18000000 		.4byte	.LFE293
 4312 0060 00000000 		.4byte	.LFB296
 4313 0064 30000000 		.4byte	.LFE296
 4314 0068 00000000 		.4byte	.LFB295
 4315 006c 14000000 		.4byte	.LFE295
 4316 0070 00000000 		.4byte	.LFB298
 4317 0074 38000000 		.4byte	.LFE298
 4318 0078 00000000 		.4byte	.LFB297
 4319 007c 14000000 		.4byte	.LFE297
 4320 0080 00000000 		.4byte	0
 4321 0084 00000000 		.4byte	0
 4322              		.section	.debug_line,"",%progbits
 4323              	.Ldebug_line0:
 4324 0000 2E050000 		.section	.debug_str,"MS",%progbits,1
 4324      02006703 
 4324      00000201 
 4324      FB0E0D00 
 4324      01010101 
 4325              	.LASF54:
 4326 0000 72656164 		.ascii	"ready_list_t\000"
 4326      795F6C69 
 4326      73745F74 
ARM GAS  /tmp/ccIJOfrC.s 			page 77


 4326      00
 4327              	.LASF4:
 4328 000d 73697A65 		.ascii	"size_t\000"
 4328      5F7400
 4329              	.LASF60:
 4330 0014 64656C74 		.ascii	"delta\000"
 4330      6100
 4331              	.LASF86:
 4332 001a 7264796D 		.ascii	"rdymsg\000"
 4332      736700
 4333              	.LASF20:
 4334 0021 75696E74 		.ascii	"uint64_t\000"
 4334      36345F74 
 4334      00
 4335              	.LASF5:
 4336 002a 5F5F7569 		.ascii	"__uint8_t\000"
 4336      6E74385F 
 4336      7400
 4337              	.LASF53:
 4338 0034 70726576 		.ascii	"prev\000"
 4338      00
 4339              	.LASF83:
 4340 0039 706F7274 		.ascii	"port_intctx\000"
 4340      5F696E74 
 4340      63747800 
 4341              	.LASF52:
 4342 0045 63685F74 		.ascii	"ch_threads_queue\000"
 4342      68726561 
 4342      64735F71 
 4342      75657565 
 4342      00
 4343              	.LASF65:
 4344 0056 73797374 		.ascii	"system_debug_t\000"
 4344      656D5F64 
 4344      65627567 
 4344      5F7400
 4345              	.LASF131:
 4346 0065 70726F76 		.ascii	"provider\000"
 4346      69646572 
 4346      00
 4347              	.LASF163:
 4348 006e 71756575 		.ascii	"queue_init\000"
 4348      655F696E 
 4348      697400
 4349              	.LASF141:
 4350 0079 73656D5F 		.ascii	"sem_list\000"
 4350      6C697374 
 4350      00
 4351              	.LASF166:
 4352 0082 706F7274 		.ascii	"port_lock\000"
 4352      5F6C6F63 
 4352      6B00
 4353              	.LASF123:
 4354 008c 6D656D67 		.ascii	"memgetfunc_t\000"
 4354      65746675 
 4354      6E635F74 
 4354      00
ARM GAS  /tmp/ccIJOfrC.s 			page 78


 4355              	.LASF153:
 4356 0099 6368436F 		.ascii	"chCondBroadcastI\000"
 4356      6E644272 
 4356      6F616463 
 4356      61737449 
 4356      00
 4357              	.LASF15:
 4358 00aa 6C6F6E67 		.ascii	"long long unsigned int\000"
 4358      206C6F6E 
 4358      6720756E 
 4358      7369676E 
 4358      65642069 
 4359              	.LASF87:
 4360 00c1 65786974 		.ascii	"exitcode\000"
 4360      636F6465 
 4360      00
 4361              	.LASF72:
 4362 00ca 6D61696E 		.ascii	"mainthread\000"
 4362      74687265 
 4362      616400
 4363              	.LASF90:
 4364 00d5 73656E74 		.ascii	"sentmsg\000"
 4364      6D736700 
 4365              	.LASF62:
 4366 00dd 76697274 		.ascii	"virtual_timers_list_t\000"
 4366      75616C5F 
 4366      74696D65 
 4366      72735F6C 
 4366      6973745F 
 4367              	.LASF76:
 4368 00f3 49544D5F 		.ascii	"ITM_RxBuffer\000"
 4368      52784275 
 4368      66666572 
 4368      00
 4369              	.LASF134:
 4370 0100 64796E5F 		.ascii	"dyn_element_t\000"
 4370      656C656D 
 4370      656E745F 
 4370      7400
 4371              	.LASF50:
 4372 010e 6E657874 		.ascii	"next\000"
 4372      00
 4373              	.LASF105:
 4374 0113 74687265 		.ascii	"threadsize\000"
 4374      61647369 
 4374      7A6500
 4375              	.LASF1:
 4376 011e 6C6F6E67 		.ascii	"long long int\000"
 4376      206C6F6E 
 4376      6720696E 
 4376      7400
 4377              	.LASF3:
 4378 012c 7369676E 		.ascii	"signed char\000"
 4378      65642063 
 4378      68617200 
 4379              	.LASF121:
 4380 0138 636F6E64 		.ascii	"condition_variable_t\000"
ARM GAS  /tmp/ccIJOfrC.s 			page 79


 4380      6974696F 
 4380      6E5F7661 
 4380      72696162 
 4380      6C655F74 
 4381              	.LASF101:
 4382 014d 73697A65 		.ascii	"size\000"
 4382      00
 4383              	.LASF176:
 4384 0152 474E5520 		.ascii	"GNU C11 6.3.1 20170620 (release) [ARM/embedded-6-br"
 4384      43313120 
 4384      362E332E 
 4384      31203230 
 4384      31373036 
 4385 0185 616E6368 		.ascii	"anch revision 249437] -mcpu=cortex-m4 -mfloat-abi=h"
 4385      20726576 
 4385      6973696F 
 4385      6E203234 
 4385      39343337 
 4386 01b8 61726420 		.ascii	"ard -mfpu=fpv4-sp-d16 -mno-thumb-interwork -mthumb "
 4386      2D6D6670 
 4386      753D6670 
 4386      76342D73 
 4386      702D6431 
 4387 01eb 2D67202D 		.ascii	"-g -Os -fomit-frame-pointer -falign-functions=16 -f"
 4387      4F73202D 
 4387      666F6D69 
 4387      742D6672 
 4387      616D652D 
 4388 021e 66756E63 		.ascii	"function-sections -fdata-sections -fno-common -fsin"
 4388      74696F6E 
 4388      2D736563 
 4388      74696F6E 
 4388      73202D66 
 4389 0251 676C652D 		.ascii	"gle-precision-constant\000"
 4389      70726563 
 4389      6973696F 
 4389      6E2D636F 
 4389      6E737461 
 4390              	.LASF168:
 4391 0268 62617365 		.ascii	"basePri\000"
 4391      50726900 
 4392              	.LASF71:
 4393 0270 76746C69 		.ascii	"vtlist\000"
 4393      737400
 4394              	.LASF165:
 4395 0277 706F7274 		.ascii	"port_unlock\000"
 4395      5F756E6C 
 4395      6F636B00 
 4396              	.LASF41:
 4397 0283 6D736771 		.ascii	"msgqueue\000"
 4397      75657565 
 4397      00
 4398              	.LASF37:
 4399 028c 73746174 		.ascii	"state\000"
 4399      6500
 4400              	.LASF11:
 4401 0292 6C6F6E67 		.ascii	"long int\000"
ARM GAS  /tmp/ccIJOfrC.s 			page 80


 4401      20696E74 
 4401      00
 4402              	.LASF150:
 4403 029b 6368436F 		.ascii	"chCondWaitS\000"
 4403      6E645761 
 4403      69745300 
 4404              	.LASF23:
 4405 02a7 74737461 		.ascii	"tstate_t\000"
 4405      74655F74 
 4405      00
 4406              	.LASF161:
 4407 02b0 71756575 		.ascii	"queue_notempty\000"
 4407      655F6E6F 
 4407      74656D70 
 4407      747900
 4408              	.LASF61:
 4409 02bf 66756E63 		.ascii	"func\000"
 4409      00
 4410              	.LASF117:
 4411 02c4 63686465 		.ascii	"chdebug_t\000"
 4411      6275675F 
 4411      7400
 4412              	.LASF115:
 4413 02ce 6F66665F 		.ascii	"off_preempt\000"
 4413      70726565 
 4413      6D707400 
 4414              	.LASF174:
 4415 02da 63685363 		.ascii	"chSchRescheduleS\000"
 4415      68526573 
 4415      63686564 
 4415      756C6553 
 4415      00
 4416              	.LASF12:
 4417 02eb 5F5F7569 		.ascii	"__uint32_t\000"
 4417      6E743332 
 4417      5F7400
 4418              	.LASF80:
 4419 02f6 72656761 		.ascii	"regarm_t\000"
 4419      726D5F74 
 4419      00
 4420              	.LASF143:
 4421 02ff 6D62785F 		.ascii	"mbx_list\000"
 4421      6C697374 
 4421      00
 4422              	.LASF66:
 4423 0308 63685F73 		.ascii	"ch_system_debug\000"
 4423      79737465 
 4423      6D5F6465 
 4423      62756700 
 4424              	.LASF40:
 4425 0318 77616974 		.ascii	"waiting\000"
 4425      696E6700 
 4426              	.LASF70:
 4427 0320 726C6973 		.ascii	"rlist\000"
 4427      7400
 4428              	.LASF100:
 4429 0326 7A65726F 		.ascii	"zero\000"
ARM GAS  /tmp/ccIJOfrC.s 			page 81


 4429      00
 4430              	.LASF119:
 4431 032b 6D757465 		.ascii	"mutex_t\000"
 4431      785F7400 
 4432              	.LASF130:
 4433 0333 616C6967 		.ascii	"align\000"
 4433      6E00
 4434              	.LASF156:
 4435 0339 6368436F 		.ascii	"chCondSignal\000"
 4435      6E645369 
 4435      676E616C 
 4435      00
 4436              	.LASF74:
 4437 0346 73797369 		.ascii	"sysinterval_t\000"
 4437      6E746572 
 4437      76616C5F 
 4437      7400
 4438              	.LASF28:
 4439 0354 636E745F 		.ascii	"cnt_t\000"
 4439      7400
 4440              	.LASF169:
 4441 035a 63684D74 		.ascii	"chMtxUnlockS\000"
 4441      78556E6C 
 4441      6F636B53 
 4441      00
 4442              	.LASF0:
 4443 0367 756E7369 		.ascii	"unsigned int\000"
 4443      676E6564 
 4443      20696E74 
 4443      00
 4444              	.LASF17:
 4445 0374 75696E74 		.ascii	"uint16_t\000"
 4445      31365F74 
 4445      00
 4446              	.LASF77:
 4447 037d 53797374 		.ascii	"SystemCoreClock\000"
 4447      656D436F 
 4447      7265436C 
 4447      6F636B00 
 4448              	.LASF91:
 4449 038d 77747365 		.ascii	"wtsemp\000"
 4449      6D7000
 4450              	.LASF127:
 4451 0394 63685F6D 		.ascii	"ch_memcore\000"
 4451      656D636F 
 4451      726500
 4452              	.LASF89:
 4453 039f 77747472 		.ascii	"wttrp\000"
 4453      7000
 4454              	.LASF118:
 4455 03a5 63685F64 		.ascii	"ch_debug\000"
 4455      65627567 
 4455      00
 4456              	.LASF147:
 4457 03ae 74696D65 		.ascii	"timeout\000"
 4457      6F757400 
 4458              	.LASF132:
ARM GAS  /tmp/ccIJOfrC.s 			page 82


 4459 03b6 6D656D6F 		.ascii	"memory_pool_t\000"
 4459      72795F70 
 4459      6F6F6C5F 
 4459      7400
 4460              	.LASF35:
 4461 03c4 6E616D65 		.ascii	"name\000"
 4461      00
 4462              	.LASF31:
 4463 03c9 71756575 		.ascii	"queue\000"
 4463      6500
 4464              	.LASF45:
 4465 03cf 6D706F6F 		.ascii	"mpool\000"
 4465      6C00
 4466              	.LASF114:
 4467 03d5 6F66665F 		.ascii	"off_refs\000"
 4467      72656673 
 4467      00
 4468              	.LASF140:
 4469 03de 6275665F 		.ascii	"buf_list\000"
 4469      6C697374 
 4469      00
 4470              	.LASF48:
 4471 03e7 63685F74 		.ascii	"ch_thread\000"
 4471      68726561 
 4471      6400
 4472              	.LASF26:
 4473 03f1 6D73675F 		.ascii	"msg_t\000"
 4473      7400
 4474              	.LASF29:
 4475 03f7 75636E74 		.ascii	"ucnt_t\000"
 4475      5F7400
 4476              	.LASF42:
 4477 03fe 6570656E 		.ascii	"epending\000"
 4477      64696E67 
 4477      00
 4478              	.LASF136:
 4479 0407 64796E5F 		.ascii	"dyn_list_t\000"
 4479      6C697374 
 4479      5F7400
 4480              	.LASF68:
 4481 0412 63685F73 		.ascii	"ch_system_t\000"
 4481      79737465 
 4481      6D5F7400 
 4482              	.LASF107:
 4483 041e 6F66665F 		.ascii	"off_ctx\000"
 4483      63747800 
 4484              	.LASF22:
 4485 0426 746D6F64 		.ascii	"tmode_t\000"
 4485      655F7400 
 4486              	.LASF55:
 4487 042e 63685F72 		.ascii	"ch_ready_list\000"
 4487      65616479 
 4487      5F6C6973 
 4487      7400
 4488              	.LASF27:
 4489 043c 6576656E 		.ascii	"eventmask_t\000"
 4489      746D6173 
ARM GAS  /tmp/ccIJOfrC.s 			page 83


 4489      6B5F7400 
 4490              	.LASF78:
 4491 0448 41484250 		.ascii	"AHBPrescTable\000"
 4491      72657363 
 4491      5461626C 
 4491      6500
 4492              	.LASF125:
 4493 0456 656E646D 		.ascii	"endmem\000"
 4493      656D00
 4494              	.LASF10:
 4495 045d 5F5F696E 		.ascii	"__int32_t\000"
 4495      7433325F 
 4495      7400
 4496              	.LASF81:
 4497 0467 73746B61 		.ascii	"stkalign_t\000"
 4497      6C69676E 
 4497      5F7400
 4498              	.LASF33:
 4499 0472 6E657765 		.ascii	"newer\000"
 4499      7200
 4500              	.LASF44:
 4501 0478 7265616C 		.ascii	"realprio\000"
 4501      7072696F 
 4501      00
 4502              	.LASF102:
 4503 0481 76657273 		.ascii	"version\000"
 4503      696F6E00 
 4504              	.LASF75:
 4505 0489 73697A65 		.ascii	"sizetype\000"
 4505      74797065 
 4505      00
 4506              	.LASF46:
 4507 0492 74687265 		.ascii	"thread_reference_t\000"
 4507      61645F72 
 4507      65666572 
 4507      656E6365 
 4507      5F7400
 4508              	.LASF63:
 4509 04a5 63685F76 		.ascii	"ch_virtual_timers_list\000"
 4509      69727475 
 4509      616C5F74 
 4509      696D6572 
 4509      735F6C69 
 4510              	.LASF120:
 4511 04bc 636F6E64 		.ascii	"condition_variable\000"
 4511      6974696F 
 4511      6E5F7661 
 4511      72696162 
 4511      6C6500
 4512              	.LASF148:
 4513 04cf 6368436F 		.ascii	"chCondWaitTimeoutS\000"
 4513      6E645761 
 4513      69745469 
 4513      6D656F75 
 4513      745300
 4514              	.LASF135:
 4515 04e2 63685F64 		.ascii	"ch_dyn_list\000"
ARM GAS  /tmp/ccIJOfrC.s 			page 84


 4515      796E5F6C 
 4515      69737400 
 4516              	.LASF108:
 4517 04ee 6F66665F 		.ascii	"off_newer\000"
 4517      6E657765 
 4517      7200
 4518              	.LASF79:
 4519 04f8 41504250 		.ascii	"APBPrescTable\000"
 4519      72657363 
 4519      5461626C 
 4519      6500
 4520              	.LASF82:
 4521 0506 706F7274 		.ascii	"port_context\000"
 4521      5F636F6E 
 4521      74657874 
 4521      00
 4522              	.LASF85:
 4523 0513 746D5F63 		.ascii	"tm_calibration_t\000"
 4523      616C6962 
 4523      72617469 
 4523      6F6E5F74 
 4523      00
 4524              	.LASF32:
 4525 0524 7072696F 		.ascii	"prio\000"
 4525      00
 4526              	.LASF154:
 4527 0529 6368436F 		.ascii	"chCondBroadcast\000"
 4527      6E644272 
 4527      6F616463 
 4527      61737400 
 4528              	.LASF142:
 4529 0539 73656D5F 		.ascii	"sem_pool\000"
 4529      706F6F6C 
 4529      00
 4530              	.LASF56:
 4531 0542 63757272 		.ascii	"current\000"
 4531      656E7400 
 4532              	.LASF14:
 4533 054a 5F5F7569 		.ascii	"__uint64_t\000"
 4533      6E743634 
 4533      5F7400
 4534              	.LASF126:
 4535 0555 6D656D63 		.ascii	"memcore_t\000"
 4535      6F72655F 
 4535      7400
 4536              	.LASF24:
 4537 055f 74726566 		.ascii	"trefs_t\000"
 4537      735F7400 
 4538              	.LASF39:
 4539 0567 72656673 		.ascii	"refs\000"
 4539      00
 4540              	.LASF58:
 4541 056c 76697274 		.ascii	"virtual_timer_t\000"
 4541      75616C5F 
 4541      74696D65 
 4541      725F7400 
 4542              	.LASF133:
ARM GAS  /tmp/ccIJOfrC.s 			page 85


 4543 057c 63685F64 		.ascii	"ch_dyn_element\000"
 4543      796E5F65 
 4543      6C656D65 
 4543      6E7400
 4544              	.LASF25:
 4545 058b 74707269 		.ascii	"tprio_t\000"
 4545      6F5F7400 
 4546              	.LASF172:
 4547 0593 63685363 		.ascii	"chSchGoSleepS\000"
 4547      68476F53 
 4547      6C656570 
 4547      5300
 4548              	.LASF155:
 4549 05a1 6368436F 		.ascii	"chCondSignalI\000"
 4549      6E645369 
 4549      676E616C 
 4549      4900
 4550              	.LASF122:
 4551 05af 5F426F6F 		.ascii	"_Bool\000"
 4551      6C00
 4552              	.LASF18:
 4553 05b5 696E7433 		.ascii	"int32_t\000"
 4553      325F7400 
 4554              	.LASF6:
 4555 05bd 756E7369 		.ascii	"unsigned char\000"
 4555      676E6564 
 4555      20636861 
 4555      7200
 4556              	.LASF106:
 4557 05cb 6F66665F 		.ascii	"off_prio\000"
 4557      7072696F 
 4557      00
 4558              	.LASF111:
 4559 05d4 6F66665F 		.ascii	"off_stklimit\000"
 4559      73746B6C 
 4559      696D6974 
 4559      00
 4560              	.LASF7:
 4561 05e1 73686F72 		.ascii	"short int\000"
 4561      7420696E 
 4561      7400
 4562              	.LASF64:
 4563 05eb 6C617374 		.ascii	"lasttime\000"
 4563      74696D65 
 4563      00
 4564              	.LASF93:
 4565 05f4 65776D61 		.ascii	"ewmask\000"
 4565      736B00
 4566              	.LASF69:
 4567 05fb 63685F73 		.ascii	"ch_system\000"
 4567      79737465 
 4567      6D00
 4568              	.LASF151:
 4569 0605 5F5F6675 		.ascii	"__func__\000"
 4569      6E635F5F 
 4569      00
 4570              	.LASF146:
ARM GAS  /tmp/ccIJOfrC.s 			page 86


 4571 060e 63685F66 		.ascii	"ch_factory\000"
 4571      6163746F 
 4571      727900
 4572              	.LASF164:
 4573 0619 63685379 		.ascii	"chSysLock\000"
 4573      734C6F63 
 4573      6B00
 4574              	.LASF139:
 4575 0623 6F626A5F 		.ascii	"obj_pool\000"
 4575      706F6F6C 
 4575      00
 4576              	.LASF59:
 4577 062c 63685F76 		.ascii	"ch_virtual_timer\000"
 4577      69727475 
 4577      616C5F74 
 4577      696D6572 
 4577      00
 4578              	.LASF94:
 4579 063d 63685F73 		.ascii	"ch_semaphore\000"
 4579      656D6170 
 4579      686F7265 
 4579      00
 4580              	.LASF116:
 4581 064a 6F66665F 		.ascii	"off_time\000"
 4581      74696D65 
 4581      00
 4582              	.LASF98:
 4583 0653 63685F69 		.ascii	"ch_idle_thread_wa\000"
 4583      646C655F 
 4583      74687265 
 4583      61645F77 
 4583      6100
 4584              	.LASF104:
 4585 0665 74696D65 		.ascii	"timesize\000"
 4585      73697A65 
 4585      00
 4586              	.LASF19:
 4587 066e 75696E74 		.ascii	"uint32_t\000"
 4587      33325F74 
 4587      00
 4588              	.LASF92:
 4589 0677 77746D74 		.ascii	"wtmtxp\000"
 4589      787000
 4590              	.LASF173:
 4591 067e 63685363 		.ascii	"chSchReadyI\000"
 4591      68526561 
 4591      64794900 
 4592              	.LASF49:
 4593 068a 63685F74 		.ascii	"ch_threads_list\000"
 4593      68726561 
 4593      64735F6C 
 4593      69737400 
 4594              	.LASF96:
 4595 069a 6F776E65 		.ascii	"owner\000"
 4595      7200
 4596              	.LASF158:
 4597 06a0 63684D74 		.ascii	"chMtxGetNextMutexX\000"
ARM GAS  /tmp/ccIJOfrC.s 			page 87


 4597      78476574 
 4597      4E657874 
 4597      4D757465 
 4597      785800
 4598              	.LASF13:
 4599 06b3 6C6F6E67 		.ascii	"long unsigned int\000"
 4599      20756E73 
 4599      69676E65 
 4599      6420696E 
 4599      7400
 4600              	.LASF36:
 4601 06c5 77616261 		.ascii	"wabase\000"
 4601      736500
 4602              	.LASF97:
 4603 06cc 63686172 		.ascii	"char\000"
 4603      00
 4604              	.LASF34:
 4605 06d1 6F6C6465 		.ascii	"older\000"
 4605      7200
 4606              	.LASF138:
 4607 06d7 6F626A5F 		.ascii	"obj_list\000"
 4607      6C697374 
 4607      00
 4608              	.LASF8:
 4609 06e0 5F5F7569 		.ascii	"__uint16_t\000"
 4609      6E743136 
 4609      5F7400
 4610              	.LASF157:
 4611 06eb 6368436F 		.ascii	"chCondObjectInit\000"
 4611      6E644F62 
 4611      6A656374 
 4611      496E6974 
 4611      00
 4612              	.LASF2:
 4613 06fc 6C6F6E67 		.ascii	"long double\000"
 4613      20646F75 
 4613      626C6500 
 4614              	.LASF160:
 4615 0708 71756575 		.ascii	"queue_fifo_remove\000"
 4615      655F6669 
 4615      666F5F72 
 4615      656D6F76 
 4615      6500
 4616              	.LASF73:
 4617 071a 73797374 		.ascii	"systime_t\000"
 4617      696D655F 
 4617      7400
 4618              	.LASF57:
 4619 0724 76746675 		.ascii	"vtfunc_t\000"
 4619      6E635F74 
 4619      00
 4620              	.LASF167:
 4621 072d 5F5F7365 		.ascii	"__set_BASEPRI\000"
 4621      745F4241 
 4621      53455052 
 4621      4900
 4622              	.LASF67:
ARM GAS  /tmp/ccIJOfrC.s 			page 88


 4623 073b 70616E69 		.ascii	"panic_msg\000"
 4623      635F6D73 
 4623      6700
 4624              	.LASF84:
 4625 0745 6F666673 		.ascii	"offset\000"
 4625      657400
 4626              	.LASF95:
 4627 074c 63685F6D 		.ascii	"ch_mutex\000"
 4627      75746578 
 4627      00
 4628              	.LASF109:
 4629 0755 6F66665F 		.ascii	"off_older\000"
 4629      6F6C6465 
 4629      7200
 4630              	.LASF9:
 4631 075f 73686F72 		.ascii	"short unsigned int\000"
 4631      7420756E 
 4631      7369676E 
 4631      65642069 
 4631      6E7400
 4632              	.LASF99:
 4633 0772 6964656E 		.ascii	"identifier\000"
 4633      74696669 
 4633      657200
 4634              	.LASF21:
 4635 077d 7274636E 		.ascii	"rtcnt_t\000"
 4635      745F7400 
 4636              	.LASF152:
 4637 0785 6368436F 		.ascii	"chCondWait\000"
 4637      6E645761 
 4637      697400
 4638              	.LASF175:
 4639 0790 63685363 		.ascii	"chSchWakeupS\000"
 4639      6857616B 
 4639      65757053 
 4639      00
 4640              	.LASF129:
 4641 079d 6F626A65 		.ascii	"object_size\000"
 4641      63745F73 
 4641      697A6500 
 4642              	.LASF103:
 4643 07a9 70747273 		.ascii	"ptrsize\000"
 4643      697A6500 
 4644              	.LASF137:
 4645 07b1 63685F6F 		.ascii	"ch_objects_factory\000"
 4645      626A6563 
 4645      74735F66 
 4645      6163746F 
 4645      727900
 4646              	.LASF51:
 4647 07c4 74687265 		.ascii	"threads_queue_t\000"
 4647      6164735F 
 4647      71756575 
 4647      655F7400 
 4648              	.LASF128:
 4649 07d4 706F6F6C 		.ascii	"pool_header\000"
 4649      5F686561 
ARM GAS  /tmp/ccIJOfrC.s 			page 89


 4649      64657200 
 4650              	.LASF177:
 4651 07e0 2E2E2F2E 		.ascii	"../../modules/ChibiOS/os/rt/src/chcond.c\000"
 4651      2E2F6D6F 
 4651      64756C65 
 4651      732F4368 
 4651      6962694F 
 4652              	.LASF30:
 4653 0809 74687265 		.ascii	"thread_t\000"
 4653      61645F74 
 4653      00
 4654              	.LASF110:
 4655 0812 6F66665F 		.ascii	"off_name\000"
 4655      6E616D65 
 4655      00
 4656              	.LASF159:
 4657 081b 63685468 		.ascii	"chThdGetSelfX\000"
 4657      64476574 
 4657      53656C66 
 4657      5800
 4658              	.LASF16:
 4659 0829 75696E74 		.ascii	"uint8_t\000"
 4659      385F7400 
 4660              	.LASF38:
 4661 0831 666C6167 		.ascii	"flags\000"
 4661      7300
 4662              	.LASF144:
 4663 0837 6669666F 		.ascii	"fifo_list\000"
 4663      5F6C6973 
 4663      7400
 4664              	.LASF88:
 4665 0841 77746F62 		.ascii	"wtobjp\000"
 4665      6A7000
 4666              	.LASF149:
 4667 0848 6368436F 		.ascii	"chCondWaitTimeout\000"
 4667      6E645761 
 4667      69745469 
 4667      6D656F75 
 4667      7400
 4668              	.LASF47:
 4669 085a 74687265 		.ascii	"threads_list_t\000"
 4669      6164735F 
 4669      6C697374 
 4669      5F7400
 4670              	.LASF112:
 4671 0869 6F66665F 		.ascii	"off_state\000"
 4671      73746174 
 4671      6500
 4672              	.LASF170:
 4673 0873 63685363 		.ascii	"chSchGoSleepTimeoutS\000"
 4673      68476F53 
 4673      6C656570 
 4673      54696D65 
 4673      6F757453 
 4674              	.LASF162:
 4675 0888 63685379 		.ascii	"chSysUnlock\000"
 4675      73556E6C 
ARM GAS  /tmp/ccIJOfrC.s 			page 90


 4675      6F636B00 
 4676              	.LASF145:
 4677 0894 6F626A65 		.ascii	"objects_factory_t\000"
 4677      6374735F 
 4677      66616374 
 4677      6F72795F 
 4677      7400
 4678              	.LASF171:
 4679 08a6 63684D74 		.ascii	"chMtxLockS\000"
 4679      784C6F63 
 4679      6B5300
 4680              	.LASF179:
 4681 08b1 71756575 		.ascii	"queue_prio_insert\000"
 4681      655F7072 
 4681      696F5F69 
 4681      6E736572 
 4681      7400
 4682              	.LASF113:
 4683 08c3 6F66665F 		.ascii	"off_flags\000"
 4683      666C6167 
 4683      7300
 4684              	.LASF43:
 4685 08cd 6D74786C 		.ascii	"mtxlist\000"
 4685      69737400 
 4686              	.LASF178:
 4687 08d5 2F686F6D 		.ascii	"/home/alex/ArduPilot/ardupilot/build/Pix2.4\000"
 4687      652F616C 
 4687      65782F41 
 4687      72647550 
 4687      696C6F74 
 4688              	.LASF124:
 4689 0901 6E657874 		.ascii	"nextmem\000"
 4689      6D656D00 
 4690              		.ident	"GCC: (GNU Tools for ARM Embedded Processors 6-2017-q2-update) 6.3.1 20170620 (release) [AR
ARM GAS  /tmp/ccIJOfrC.s 			page 91


DEFINED SYMBOLS
                            *ABS*:0000000000000000 chcond.c
     /tmp/ccIJOfrC.s:18     .text.queue_prio_insert:0000000000000000 $t
     /tmp/ccIJOfrC.s:24     .text.queue_prio_insert:0000000000000000 queue_prio_insert
     /tmp/ccIJOfrC.s:70     .text.chCondObjectInit:0000000000000000 $t
     /tmp/ccIJOfrC.s:77     .text.chCondObjectInit:0000000000000000 chCondObjectInit
     /tmp/ccIJOfrC.s:100    .text.chCondSignal:0000000000000000 $t
     /tmp/ccIJOfrC.s:107    .text.chCondSignal:0000000000000000 chCondSignal
     /tmp/ccIJOfrC.s:202    .text.chCondSignalI:0000000000000000 $t
     /tmp/ccIJOfrC.s:209    .text.chCondSignalI:0000000000000000 chCondSignalI
     /tmp/ccIJOfrC.s:254    .text.chCondBroadcastI:0000000000000000 $t
     /tmp/ccIJOfrC.s:261    .text.chCondBroadcastI:0000000000000000 chCondBroadcastI
     /tmp/ccIJOfrC.s:313    .text.chCondBroadcast:0000000000000000 $t
     /tmp/ccIJOfrC.s:320    .text.chCondBroadcast:0000000000000000 chCondBroadcast
     /tmp/ccIJOfrC.s:378    .text.chCondWaitS:0000000000000000 $t
     /tmp/ccIJOfrC.s:385    .text.chCondWaitS:0000000000000000 chCondWaitS
     /tmp/ccIJOfrC.s:444    .text.chCondWaitS:000000000000002c $d
     /tmp/ccIJOfrC.s:449    .text.chCondWait:0000000000000000 $t
     /tmp/ccIJOfrC.s:456    .text.chCondWait:0000000000000000 chCondWait
     /tmp/ccIJOfrC.s:512    .text.chCondWaitTimeoutS:0000000000000000 $t
     /tmp/ccIJOfrC.s:519    .text.chCondWaitTimeoutS:0000000000000000 chCondWaitTimeoutS
     /tmp/ccIJOfrC.s:592    .text.chCondWaitTimeoutS:0000000000000034 $d
     /tmp/ccIJOfrC.s:597    .text.chCondWaitTimeout:0000000000000000 $t
     /tmp/ccIJOfrC.s:604    .text.chCondWaitTimeout:0000000000000000 chCondWaitTimeout
                     .debug_frame:0000000000000010 $d

UNDEFINED SYMBOLS
chSchWakeupS
chSchReadyI
chSchRescheduleS
chMtxUnlockS
chSchGoSleepS
chMtxLockS
ch
chSchGoSleepTimeoutS
