ARM GAS  /tmp/cciEH2BQ.s 			page 1


   1              		.cpu cortex-m4
   2              		.eabi_attribute 27, 1
   3              		.eabi_attribute 28, 1
   4              		.eabi_attribute 20, 1
   5              		.eabi_attribute 21, 1
   6              		.eabi_attribute 23, 3
   7              		.eabi_attribute 24, 1
   8              		.eabi_attribute 25, 1
   9              		.eabi_attribute 26, 1
  10              		.eabi_attribute 30, 4
  11              		.eabi_attribute 34, 1
  12              		.eabi_attribute 18, 4
  13              		.file	"chdynamic.c"
  14              		.text
  15              	.Ltext0:
  16              		.cfi_sections	.debug_frame
  17              		.section	.text.chThdCreateFromHeap,"ax",%progbits
  18              		.align	1
  19              		.global	chThdCreateFromHeap
  20              		.syntax unified
  21              		.thumb
  22              		.thumb_func
  23              		.fpu fpv4-sp-d16
  24              		.type	chThdCreateFromHeap, %function
  25              	chThdCreateFromHeap:
  26              	.LFB290:
  27              		.file 1 "../../modules/ChibiOS/os/rt/src/chdynamic.c"
  28              		.loc 1 84 0
  29              		.cfi_startproc
  30              		@ args = 8, pretend = 0, frame = 24
  31              		@ frame_needed = 0, uses_anonymous_args = 0
  32              	.LVL0:
  33 0000 F0B5     		push	{r4, r5, r6, r7, lr}
  34              		.cfi_def_cfa_offset 20
  35              		.cfi_offset 4, -20
  36              		.cfi_offset 5, -16
  37              		.cfi_offset 6, -12
  38              		.cfi_offset 7, -8
  39              		.cfi_offset 14, -4
  40 0002 1746     		mov	r7, r2
  41 0004 87B0     		sub	sp, sp, #28
  42              		.cfi_def_cfa_offset 48
  43              		.loc 1 88 0
  44 0006 0822     		movs	r2, #8
  45              	.LVL1:
  46              		.loc 1 84 0
  47 0008 0E46     		mov	r6, r1
  48 000a 1D46     		mov	r5, r3
  49              		.loc 1 88 0
  50 000c FFF7FEFF 		bl	chHeapAllocAligned
  51              	.LVL2:
  52              		.loc 1 89 0
  53 0010 0446     		mov	r4, r0
  54 0012 D8B1     		cbz	r0, .L1
  55              		.loc 1 93 0
  56 0014 0C9B     		ldr	r3, [sp, #48]
  57 0016 0493     		str	r3, [sp, #16]
ARM GAS  /tmp/cciEH2BQ.s 			page 2


  58              		.loc 1 96 0
  59 0018 8119     		adds	r1, r0, r6
  60              		.loc 1 93 0
  61 001a 0D9B     		ldr	r3, [sp, #52]
  62 001c 0593     		str	r3, [sp, #20]
  63              		.loc 1 103 0
  64 001e 5522     		movs	r2, #85
  65              		.loc 1 93 0
  66 0020 0097     		str	r7, [sp]
  67 0022 0190     		str	r0, [sp, #4]
  68 0024 0291     		str	r1, [sp, #8]
  69 0026 0395     		str	r5, [sp, #12]
  70              		.loc 1 103 0
  71 0028 FFF7FEFF 		bl	_thread_memfill
  72              	.LVL3:
  73              	.LBB34:
  74              	.LBB35:
  75              	.LBB36:
  76              	.LBB37:
  77              		.file 2 "../../modules/ChibiOS/os/common/ext/ARM/CMSIS/Core/Include/cmsis_gcc.h"
  78              		.loc 2 493 0
  79 002c 2023     		movs	r3, #32
  80              		.syntax unified
  81              	@ 493 "../../modules/ChibiOS/os/common/ext/ARM/CMSIS/Core/Include/cmsis_gcc.h" 1
  82 002e 83F31188 		MSR basepri, r3
  83              	@ 0 "" 2
  84              	.LVL4:
  85              		.thumb
  86              		.syntax unified
  87              	.LBE37:
  88              	.LBE36:
  89              	.LBE35:
  90              	.LBE34:
  91              		.loc 1 109 0
  92 0032 6846     		mov	r0, sp
  93 0034 FFF7FEFF 		bl	chThdCreateSuspendedI
  94              	.LVL5:
  95              		.loc 1 110 0
  96 0038 0123     		movs	r3, #1
  97 003a 80F82130 		strb	r3, [r0, #33]
  98              		.loc 1 111 0
  99 003e 0021     		movs	r1, #0
 100              		.loc 1 109 0
 101 0040 0446     		mov	r4, r0
 102              	.LVL6:
 103              		.loc 1 111 0
 104 0042 FFF7FEFF 		bl	chSchWakeupS
 105              	.LVL7:
 106              	.LBB38:
 107              	.LBB39:
 108              	.LBB40:
 109              	.LBB41:
 110              	.LBB42:
 111              		.loc 2 493 0
 112 0046 0023     		movs	r3, #0
 113              		.syntax unified
 114              	@ 493 "../../modules/ChibiOS/os/common/ext/ARM/CMSIS/Core/Include/cmsis_gcc.h" 1
ARM GAS  /tmp/cciEH2BQ.s 			page 3


 115 0048 83F31188 		MSR basepri, r3
 116              	@ 0 "" 2
 117              	.LVL8:
 118              		.thumb
 119              		.syntax unified
 120              	.L1:
 121              	.LBE42:
 122              	.LBE41:
 123              	.LBE40:
 124              	.LBE39:
 125              	.LBE38:
 126              		.loc 1 115 0
 127 004c 2046     		mov	r0, r4
 128 004e 07B0     		add	sp, sp, #28
 129              		.cfi_def_cfa_offset 20
 130              		@ sp needed
 131 0050 F0BD     		pop	{r4, r5, r6, r7, pc}
 132              		.cfi_endproc
 133              	.LFE290:
 134              		.size	chThdCreateFromHeap, .-chThdCreateFromHeap
 135              		.section	.text.chThdCreateFromMemoryPool,"ax",%progbits
 136              		.align	1
 137              		.global	chThdCreateFromMemoryPool
 138              		.syntax unified
 139              		.thumb
 140              		.thumb_func
 141              		.fpu fpv4-sp-d16
 142              		.type	chThdCreateFromMemoryPool, %function
 143              	chThdCreateFromMemoryPool:
 144              	.LFB291:
 145              		.loc 1 146 0
 146              		.cfi_startproc
 147              		@ args = 4, pretend = 0, frame = 24
 148              		@ frame_needed = 0, uses_anonymous_args = 0
 149              	.LVL9:
 150 0000 2DE9F041 		push	{r4, r5, r6, r7, r8, lr}
 151              		.cfi_def_cfa_offset 24
 152              		.cfi_offset 4, -24
 153              		.cfi_offset 5, -20
 154              		.cfi_offset 6, -16
 155              		.cfi_offset 7, -12
 156              		.cfi_offset 8, -8
 157              		.cfi_offset 14, -4
 158 0004 86B0     		sub	sp, sp, #24
 159              		.cfi_def_cfa_offset 48
 160              		.loc 1 146 0
 161 0006 0546     		mov	r5, r0
 162 0008 8846     		mov	r8, r1
 163 000a 1746     		mov	r7, r2
 164 000c 1E46     		mov	r6, r3
 165              		.loc 1 152 0
 166 000e FFF7FEFF 		bl	chPoolAlloc
 167              	.LVL10:
 168              		.loc 1 153 0
 169 0012 0446     		mov	r4, r0
 170 0014 E8B1     		cbz	r0, .L4
 171              		.loc 1 160 0
ARM GAS  /tmp/cciEH2BQ.s 			page 4


 172 0016 6968     		ldr	r1, [r5, #4]
 173              		.loc 1 157 0
 174 0018 0C9B     		ldr	r3, [sp, #48]
 175 001a 0593     		str	r3, [sp, #20]
 176              		.loc 1 160 0
 177 001c 0144     		add	r1, r1, r0
 178              		.loc 1 167 0
 179 001e 5522     		movs	r2, #85
 180              		.loc 1 157 0
 181 0020 CDF80080 		str	r8, [sp]
 182 0024 0190     		str	r0, [sp, #4]
 183 0026 0291     		str	r1, [sp, #8]
 184 0028 0397     		str	r7, [sp, #12]
 185 002a 0496     		str	r6, [sp, #16]
 186              		.loc 1 167 0
 187 002c FFF7FEFF 		bl	_thread_memfill
 188              	.LVL11:
 189              	.LBB43:
 190              	.LBB44:
 191              	.LBB45:
 192              	.LBB46:
 193              		.loc 2 493 0
 194 0030 2023     		movs	r3, #32
 195              		.syntax unified
 196              	@ 493 "../../modules/ChibiOS/os/common/ext/ARM/CMSIS/Core/Include/cmsis_gcc.h" 1
 197 0032 83F31188 		MSR basepri, r3
 198              	@ 0 "" 2
 199              	.LVL12:
 200              		.thumb
 201              		.syntax unified
 202              	.LBE46:
 203              	.LBE45:
 204              	.LBE44:
 205              	.LBE43:
 206              		.loc 1 173 0
 207 0036 6846     		mov	r0, sp
 208 0038 FFF7FEFF 		bl	chThdCreateSuspendedI
 209              	.LVL13:
 210              		.loc 1 174 0
 211 003c 0223     		movs	r3, #2
 212 003e 80F82130 		strb	r3, [r0, #33]
 213              		.loc 1 175 0
 214 0042 0564     		str	r5, [r0, #64]
 215              		.loc 1 176 0
 216 0044 0021     		movs	r1, #0
 217              		.loc 1 173 0
 218 0046 0446     		mov	r4, r0
 219              	.LVL14:
 220              		.loc 1 176 0
 221 0048 FFF7FEFF 		bl	chSchWakeupS
 222              	.LVL15:
 223              	.LBB47:
 224              	.LBB48:
 225              	.LBB49:
 226              	.LBB50:
 227              	.LBB51:
 228              		.loc 2 493 0
ARM GAS  /tmp/cciEH2BQ.s 			page 5


 229 004c 0023     		movs	r3, #0
 230              		.syntax unified
 231              	@ 493 "../../modules/ChibiOS/os/common/ext/ARM/CMSIS/Core/Include/cmsis_gcc.h" 1
 232 004e 83F31188 		MSR basepri, r3
 233              	@ 0 "" 2
 234              	.LVL16:
 235              		.thumb
 236              		.syntax unified
 237              	.L4:
 238              	.LBE51:
 239              	.LBE50:
 240              	.LBE49:
 241              	.LBE48:
 242              	.LBE47:
 243              		.loc 1 180 0
 244 0052 2046     		mov	r0, r4
 245 0054 06B0     		add	sp, sp, #24
 246              		.cfi_def_cfa_offset 24
 247              		@ sp needed
 248 0056 BDE8F081 		pop	{r4, r5, r6, r7, r8, pc}
 249              		.cfi_endproc
 250              	.LFE291:
 251              		.size	chThdCreateFromMemoryPool, .-chThdCreateFromMemoryPool
 252              		.text
 253              	.Letext0:
 254              		.file 3 "/opt/gcc-arm-none-eabi-6-2017-q2-update/lib/gcc/arm-none-eabi/6.3.1/include/stddef.h"
 255              		.file 4 "/opt/gcc-arm-none-eabi-6-2017-q2-update/arm-none-eabi/include/machine/_default_types.h"
 256              		.file 5 "/opt/gcc-arm-none-eabi-6-2017-q2-update/arm-none-eabi/include/sys/_stdint.h"
 257              		.file 6 "../../modules/ChibiOS/os/common/ports/ARMCMx/compilers/GCC/chtypes.h"
 258              		.file 7 "../../modules/ChibiOS/os/rt/include/chsystypes.h"
 259              		.file 8 "../../modules/ChibiOS/os/rt/include/chschd.h"
 260              		.file 9 "../../modules/ChibiOS/os/rt/include/chtime.h"
 261              		.file 10 "../../modules/ChibiOS/os/common/ext/ARM/CMSIS/Core/Include/core_cm4.h"
 262              		.file 11 "../../modules/ChibiOS/os/common/ext/ST/STM32F4xx/system_stm32f4xx.h"
 263              		.file 12 "../../modules/ChibiOS/os/common/ports/ARMCMx/chcore.h"
 264              		.file 13 "../../modules/ChibiOS/os/common/ports/ARMCMx/chcore_v7m.h"
 265              		.file 14 "../../modules/ChibiOS/os/rt/include/chtm.h"
 266              		.file 15 "../../modules/ChibiOS/os/rt/include/chsem.h"
 267              		.file 16 "../../modules/ChibiOS/os/rt/include/chmtx.h"
 268              		.file 17 "../../modules/ChibiOS/os/rt/include/chsys.h"
 269              		.file 18 "../../modules/ChibiOS/os/rt/include/chthreads.h"
 270              		.file 19 "../../modules/ChibiOS/os/rt/include/chregistry.h"
 271              		.file 20 "../../modules/ChibiOS/os/oslib/include/chmemcore.h"
 272              		.file 21 "../../modules/ChibiOS/os/oslib/include/chmemheaps.h"
 273              		.file 22 "../../modules/ChibiOS/os/oslib/include/chmempools.h"
 274              		.file 23 "../../modules/ChibiOS/os/oslib/include/chfactory.h"
 275              		.section	.debug_info,"",%progbits
 276              	.Ldebug_info0:
 277 0000 7E0F0000 		.4byte	0xf7e
 278 0004 0400     		.2byte	0x4
 279 0006 00000000 		.4byte	.Ldebug_abbrev0
 280 000a 04       		.byte	0x4
 281 000b 01       		.uleb128 0x1
 282 000c 5B010000 		.4byte	.LASF172
 283 0010 0C       		.byte	0xc
 284 0011 F0050000 		.4byte	.LASF173
 285 0015 59080000 		.4byte	.LASF174
ARM GAS  /tmp/cciEH2BQ.s 			page 6


 286 0019 00000000 		.4byte	.Ldebug_ranges0+0
 287 001d 00000000 		.4byte	0
 288 0021 00000000 		.4byte	.Ldebug_line0
 289 0025 02       		.uleb128 0x2
 290 0026 04       		.byte	0x4
 291 0027 05       		.byte	0x5
 292 0028 696E7400 		.ascii	"int\000"
 293 002c 03       		.uleb128 0x3
 294 002d 15000000 		.4byte	.LASF4
 295 0031 03       		.byte	0x3
 296 0032 D8       		.byte	0xd8
 297 0033 37000000 		.4byte	0x37
 298 0037 04       		.uleb128 0x4
 299 0038 04       		.byte	0x4
 300 0039 07       		.byte	0x7
 301 003a 5A030000 		.4byte	.LASF0
 302 003e 04       		.uleb128 0x4
 303 003f 08       		.byte	0x8
 304 0040 05       		.byte	0x5
 305 0041 3C010000 		.4byte	.LASF1
 306 0045 04       		.uleb128 0x4
 307 0046 08       		.byte	0x8
 308 0047 04       		.byte	0x4
 309 0048 9C040000 		.4byte	.LASF2
 310 004c 04       		.uleb128 0x4
 311 004d 01       		.byte	0x1
 312 004e 06       		.byte	0x6
 313 004f 4A010000 		.4byte	.LASF3
 314 0053 03       		.uleb128 0x3
 315 0054 3D000000 		.4byte	.LASF5
 316 0058 04       		.byte	0x4
 317 0059 2B       		.byte	0x2b
 318 005a 5E000000 		.4byte	0x5e
 319 005e 04       		.uleb128 0x4
 320 005f 01       		.byte	0x1
 321 0060 08       		.byte	0x8
 322 0061 93050000 		.4byte	.LASF6
 323 0065 04       		.uleb128 0x4
 324 0066 02       		.byte	0x2
 325 0067 05       		.byte	0x5
 326 0068 B7050000 		.4byte	.LASF7
 327 006c 03       		.uleb128 0x3
 328 006d EF060000 		.4byte	.LASF8
 329 0071 04       		.byte	0x4
 330 0072 39       		.byte	0x39
 331 0073 77000000 		.4byte	0x77
 332 0077 04       		.uleb128 0x4
 333 0078 02       		.byte	0x2
 334 0079 07       		.byte	0x7
 335 007a 66070000 		.4byte	.LASF9
 336 007e 03       		.uleb128 0x3
 337 007f 3D040000 		.4byte	.LASF10
 338 0083 04       		.byte	0x4
 339 0084 4D       		.byte	0x4d
 340 0085 89000000 		.4byte	0x89
 341 0089 04       		.uleb128 0x4
 342 008a 04       		.byte	0x4
ARM GAS  /tmp/cciEH2BQ.s 			page 7


 343 008b 05       		.byte	0x5
 344 008c 9B020000 		.4byte	.LASF11
 345 0090 03       		.uleb128 0x3
 346 0091 F8020000 		.4byte	.LASF12
 347 0095 04       		.byte	0x4
 348 0096 4F       		.byte	0x4f
 349 0097 9B000000 		.4byte	0x9b
 350 009b 04       		.uleb128 0x4
 351 009c 04       		.byte	0x4
 352 009d 07       		.byte	0x7
 353 009e B3060000 		.4byte	.LASF13
 354 00a2 03       		.uleb128 0x3
 355 00a3 21050000 		.4byte	.LASF14
 356 00a7 04       		.byte	0x4
 357 00a8 69       		.byte	0x69
 358 00a9 AD000000 		.4byte	0xad
 359 00ad 04       		.uleb128 0x4
 360 00ae 08       		.byte	0x8
 361 00af 07       		.byte	0x7
 362 00b0 BC000000 		.4byte	.LASF15
 363 00b4 03       		.uleb128 0x3
 364 00b5 E5070000 		.4byte	.LASF16
 365 00b9 05       		.byte	0x5
 366 00ba 18       		.byte	0x18
 367 00bb 53000000 		.4byte	0x53
 368 00bf 05       		.uleb128 0x5
 369 00c0 B4000000 		.4byte	0xb4
 370 00c4 03       		.uleb128 0x3
 371 00c5 67030000 		.4byte	.LASF17
 372 00c9 05       		.byte	0x5
 373 00ca 24       		.byte	0x24
 374 00cb 6C000000 		.4byte	0x6c
 375 00cf 03       		.uleb128 0x3
 376 00d0 8B050000 		.4byte	.LASF18
 377 00d4 05       		.byte	0x5
 378 00d5 2C       		.byte	0x2c
 379 00d6 7E000000 		.4byte	0x7e
 380 00da 06       		.uleb128 0x6
 381 00db CF000000 		.4byte	0xcf
 382 00df 03       		.uleb128 0x3
 383 00e0 88060000 		.4byte	.LASF19
 384 00e4 05       		.byte	0x5
 385 00e5 30       		.byte	0x30
 386 00e6 90000000 		.4byte	0x90
 387 00ea 03       		.uleb128 0x3
 388 00eb 34000000 		.4byte	.LASF20
 389 00ef 05       		.byte	0x5
 390 00f0 3C       		.byte	0x3c
 391 00f1 A2000000 		.4byte	0xa2
 392 00f5 03       		.uleb128 0x3
 393 00f6 84070000 		.4byte	.LASF21
 394 00fa 06       		.byte	0x6
 395 00fb 27       		.byte	0x27
 396 00fc DF000000 		.4byte	0xdf
 397 0100 03       		.uleb128 0x3
 398 0101 06040000 		.4byte	.LASF22
 399 0105 06       		.byte	0x6
ARM GAS  /tmp/cciEH2BQ.s 			page 8


 400 0106 2A       		.byte	0x2a
 401 0107 B4000000 		.4byte	0xb4
 402 010b 03       		.uleb128 0x3
 403 010c B8020000 		.4byte	.LASF23
 404 0110 06       		.byte	0x6
 405 0111 2B       		.byte	0x2b
 406 0112 B4000000 		.4byte	0xb4
 407 0116 03       		.uleb128 0x3
 408 0117 3B050000 		.4byte	.LASF24
 409 011b 06       		.byte	0x6
 410 011c 2C       		.byte	0x2c
 411 011d B4000000 		.4byte	0xb4
 412 0121 03       		.uleb128 0x3
 413 0122 72050000 		.4byte	.LASF25
 414 0126 06       		.byte	0x6
 415 0127 2E       		.byte	0x2e
 416 0128 DF000000 		.4byte	0xdf
 417 012c 03       		.uleb128 0x3
 418 012d D7030000 		.4byte	.LASF26
 419 0131 06       		.byte	0x6
 420 0132 2F       		.byte	0x2f
 421 0133 CF000000 		.4byte	0xcf
 422 0137 03       		.uleb128 0x3
 423 0138 1C040000 		.4byte	.LASF27
 424 013c 06       		.byte	0x6
 425 013d 31       		.byte	0x31
 426 013e DF000000 		.4byte	0xdf
 427 0142 03       		.uleb128 0x3
 428 0143 54030000 		.4byte	.LASF28
 429 0147 06       		.byte	0x6
 430 0148 33       		.byte	0x33
 431 0149 CF000000 		.4byte	0xcf
 432 014d 03       		.uleb128 0x3
 433 014e DD030000 		.4byte	.LASF29
 434 0152 06       		.byte	0x6
 435 0153 34       		.byte	0x34
 436 0154 DF000000 		.4byte	0xdf
 437 0158 03       		.uleb128 0x3
 438 0159 FA060000 		.4byte	.LASF30
 439 015d 07       		.byte	0x7
 440 015e 34       		.byte	0x34
 441 015f 63010000 		.4byte	0x163
 442 0163 07       		.uleb128 0x7
 443 0164 CD030000 		.4byte	.LASF48
 444 0168 44       		.byte	0x44
 445 0169 08       		.byte	0x8
 446 016a 8E       		.byte	0x8e
 447 016b 41020000 		.4byte	0x241
 448 016f 08       		.uleb128 0x8
 449 0170 AF030000 		.4byte	.LASF31
 450 0174 08       		.byte	0x8
 451 0175 8F       		.byte	0x8f
 452 0176 76020000 		.4byte	0x276
 453 017a 00       		.byte	0
 454 017b 08       		.uleb128 0x8
 455 017c 0B050000 		.4byte	.LASF32
 456 0180 08       		.byte	0x8
ARM GAS  /tmp/cciEH2BQ.s 			page 9


 457 0181 90       		.byte	0x90
 458 0182 21010000 		.4byte	0x121
 459 0186 08       		.byte	0x8
 460 0187 09       		.uleb128 0x9
 461 0188 63747800 		.ascii	"ctx\000"
 462 018c 08       		.byte	0x8
 463 018d 91       		.byte	0x91
 464 018e DB040000 		.4byte	0x4db
 465 0192 0C       		.byte	0xc
 466 0193 08       		.uleb128 0x8
 467 0194 52040000 		.4byte	.LASF33
 468 0198 08       		.byte	0x8
 469 0199 93       		.byte	0x93
 470 019a 4C020000 		.4byte	0x24c
 471 019e 10       		.byte	0x10
 472 019f 08       		.uleb128 0x8
 473 01a0 E0060000 		.4byte	.LASF34
 474 01a4 08       		.byte	0x8
 475 01a5 94       		.byte	0x94
 476 01a6 4C020000 		.4byte	0x24c
 477 01aa 14       		.byte	0x14
 478 01ab 08       		.uleb128 0x8
 479 01ac ED030000 		.4byte	.LASF35
 480 01b0 08       		.byte	0x8
 481 01b1 9B       		.byte	0x9b
 482 01b2 3B070000 		.4byte	0x73b
 483 01b6 18       		.byte	0x18
 484 01b7 08       		.uleb128 0x8
 485 01b8 3F060000 		.4byte	.LASF36
 486 01bc 08       		.byte	0x8
 487 01bd A4       		.byte	0xa4
 488 01be 52070000 		.4byte	0x752
 489 01c2 1C       		.byte	0x1c
 490 01c3 08       		.uleb128 0x8
 491 01c4 95020000 		.4byte	.LASF37
 492 01c8 08       		.byte	0x8
 493 01c9 A9       		.byte	0xa9
 494 01ca 0B010000 		.4byte	0x10b
 495 01ce 20       		.byte	0x20
 496 01cf 08       		.uleb128 0x8
 497 01d0 F9070000 		.4byte	.LASF38
 498 01d4 08       		.byte	0x8
 499 01d5 AD       		.byte	0xad
 500 01d6 00010000 		.4byte	0x100
 501 01da 21       		.byte	0x21
 502 01db 08       		.uleb128 0x8
 503 01dc 43050000 		.4byte	.LASF39
 504 01e0 08       		.byte	0x8
 505 01e1 B2       		.byte	0xb2
 506 01e2 16010000 		.4byte	0x116
 507 01e6 22       		.byte	0x22
 508 01e7 0A       		.uleb128 0xa
 509 01e8 7500     		.ascii	"u\000"
 510 01ea 08       		.byte	0x8
 511 01eb 0301     		.2byte	0x103
 512 01ed 65060000 		.4byte	0x665
 513 01f1 24       		.byte	0x24
ARM GAS  /tmp/cciEH2BQ.s 			page 10


 514 01f2 0B       		.uleb128 0xb
 515 01f3 25030000 		.4byte	.LASF40
 516 01f7 08       		.byte	0x8
 517 01f8 0801     		.2byte	0x108
 518 01fa 52020000 		.4byte	0x252
 519 01fe 28       		.byte	0x28
 520 01ff 0B       		.uleb128 0xb
 521 0200 8C020000 		.4byte	.LASF41
 522 0204 08       		.byte	0x8
 523 0205 0E01     		.2byte	0x10e
 524 0207 76020000 		.4byte	0x276
 525 020b 2C       		.byte	0x2c
 526 020c 0B       		.uleb128 0xb
 527 020d E4030000 		.4byte	.LASF42
 528 0211 08       		.byte	0x8
 529 0212 1401     		.2byte	0x114
 530 0214 37010000 		.4byte	0x137
 531 0218 34       		.byte	0x34
 532 0219 0B       		.uleb128 0xb
 533 021a 51080000 		.4byte	.LASF43
 534 021e 08       		.byte	0x8
 535 021f 1B01     		.2byte	0x11b
 536 0221 35070000 		.4byte	0x735
 537 0225 38       		.byte	0x38
 538 0226 0B       		.uleb128 0xb
 539 0227 58040000 		.4byte	.LASF44
 540 022b 08       		.byte	0x8
 541 022c 1F01     		.2byte	0x11f
 542 022e 21010000 		.4byte	0x121
 543 0232 3C       		.byte	0x3c
 544 0233 0B       		.uleb128 0xb
 545 0234 B5030000 		.4byte	.LASF45
 546 0238 08       		.byte	0x8
 547 0239 2601     		.2byte	0x126
 548 023b 29030000 		.4byte	0x329
 549 023f 40       		.byte	0x40
 550 0240 00       		.byte	0
 551 0241 03       		.uleb128 0x3
 552 0242 72040000 		.4byte	.LASF46
 553 0246 07       		.byte	0x7
 554 0247 39       		.byte	0x39
 555 0248 4C020000 		.4byte	0x24c
 556 024c 0C       		.uleb128 0xc
 557 024d 04       		.byte	0x4
 558 024e 58010000 		.4byte	0x158
 559 0252 03       		.uleb128 0x3
 560 0253 10080000 		.4byte	.LASF47
 561 0257 07       		.byte	0x7
 562 0258 3E       		.byte	0x3e
 563 0259 5D020000 		.4byte	0x25d
 564 025d 07       		.uleb128 0x7
 565 025e 98060000 		.4byte	.LASF49
 566 0262 04       		.byte	0x4
 567 0263 08       		.byte	0x8
 568 0264 7C       		.byte	0x7c
 569 0265 76020000 		.4byte	0x276
 570 0269 08       		.uleb128 0x8
ARM GAS  /tmp/cciEH2BQ.s 			page 11


 571 026a 1C000000 		.4byte	.LASF50
 572 026e 08       		.byte	0x8
 573 026f 7D       		.byte	0x7d
 574 0270 4C020000 		.4byte	0x24c
 575 0274 00       		.byte	0
 576 0275 00       		.byte	0
 577 0276 03       		.uleb128 0x3
 578 0277 C0070000 		.4byte	.LASF51
 579 027b 07       		.byte	0x7
 580 027c 45       		.byte	0x45
 581 027d 81020000 		.4byte	0x281
 582 0281 07       		.uleb128 0x7
 583 0282 2B010000 		.4byte	.LASF52
 584 0286 08       		.byte	0x8
 585 0287 08       		.byte	0x8
 586 0288 83       		.byte	0x83
 587 0289 A6020000 		.4byte	0x2a6
 588 028d 08       		.uleb128 0x8
 589 028e 1C000000 		.4byte	.LASF50
 590 0292 08       		.byte	0x8
 591 0293 84       		.byte	0x84
 592 0294 4C020000 		.4byte	0x24c
 593 0298 00       		.byte	0
 594 0299 08       		.uleb128 0x8
 595 029a 47000000 		.4byte	.LASF53
 596 029e 08       		.byte	0x8
 597 029f 85       		.byte	0x85
 598 02a0 4C020000 		.4byte	0x24c
 599 02a4 04       		.byte	0x4
 600 02a5 00       		.byte	0
 601 02a6 03       		.uleb128 0x3
 602 02a7 08000000 		.4byte	.LASF54
 603 02ab 07       		.byte	0x7
 604 02ac 4C       		.byte	0x4c
 605 02ad B1020000 		.4byte	0x2b1
 606 02b1 0D       		.uleb128 0xd
 607 02b2 0E040000 		.4byte	.LASF55
 608 02b6 1C       		.byte	0x1c
 609 02b7 08       		.byte	0x8
 610 02b8 5E01     		.2byte	0x15e
 611 02ba 0D030000 		.4byte	0x30d
 612 02be 0B       		.uleb128 0xb
 613 02bf AF030000 		.4byte	.LASF31
 614 02c3 08       		.byte	0x8
 615 02c4 5F01     		.2byte	0x15f
 616 02c6 76020000 		.4byte	0x276
 617 02ca 00       		.byte	0
 618 02cb 0B       		.uleb128 0xb
 619 02cc 0B050000 		.4byte	.LASF32
 620 02d0 08       		.byte	0x8
 621 02d1 6001     		.2byte	0x160
 622 02d3 21010000 		.4byte	0x121
 623 02d7 08       		.byte	0x8
 624 02d8 0A       		.uleb128 0xa
 625 02d9 63747800 		.ascii	"ctx\000"
 626 02dd 08       		.byte	0x8
 627 02de 6201     		.2byte	0x162
ARM GAS  /tmp/cciEH2BQ.s 			page 12


 628 02e0 DB040000 		.4byte	0x4db
 629 02e4 0C       		.byte	0xc
 630 02e5 0B       		.uleb128 0xb
 631 02e6 52040000 		.4byte	.LASF33
 632 02ea 08       		.byte	0x8
 633 02eb 6501     		.2byte	0x165
 634 02ed 4C020000 		.4byte	0x24c
 635 02f1 10       		.byte	0x10
 636 02f2 0B       		.uleb128 0xb
 637 02f3 E0060000 		.4byte	.LASF34
 638 02f7 08       		.byte	0x8
 639 02f8 6601     		.2byte	0x166
 640 02fa 4C020000 		.4byte	0x24c
 641 02fe 14       		.byte	0x14
 642 02ff 0B       		.uleb128 0xb
 643 0300 19050000 		.4byte	.LASF56
 644 0304 08       		.byte	0x8
 645 0305 6901     		.2byte	0x169
 646 0307 4C020000 		.4byte	0x24c
 647 030b 18       		.byte	0x18
 648 030c 00       		.byte	0
 649 030d 03       		.uleb128 0x3
 650 030e 18070000 		.4byte	.LASF57
 651 0312 07       		.byte	0x7
 652 0313 51       		.byte	0x51
 653 0314 18030000 		.4byte	0x318
 654 0318 0C       		.uleb128 0xc
 655 0319 04       		.byte	0x4
 656 031a 1E030000 		.4byte	0x31e
 657 031e 0E       		.uleb128 0xe
 658 031f 29030000 		.4byte	0x329
 659 0323 0F       		.uleb128 0xf
 660 0324 29030000 		.4byte	0x329
 661 0328 00       		.byte	0
 662 0329 10       		.uleb128 0x10
 663 032a 04       		.byte	0x4
 664 032b 03       		.uleb128 0x3
 665 032c 48050000 		.4byte	.LASF58
 666 0330 07       		.byte	0x7
 667 0331 56       		.byte	0x56
 668 0332 36030000 		.4byte	0x336
 669 0336 0D       		.uleb128 0xd
 670 0337 46060000 		.4byte	.LASF59
 671 033b 14       		.byte	0x14
 672 033c 08       		.byte	0x8
 673 033d 3901     		.2byte	0x139
 674 033f 85030000 		.4byte	0x385
 675 0343 0B       		.uleb128 0xb
 676 0344 1C000000 		.4byte	.LASF50
 677 0348 08       		.byte	0x8
 678 0349 3A01     		.2byte	0x13a
 679 034b 58070000 		.4byte	0x758
 680 034f 00       		.byte	0
 681 0350 0B       		.uleb128 0xb
 682 0351 47000000 		.4byte	.LASF53
 683 0355 08       		.byte	0x8
 684 0356 3B01     		.2byte	0x13b
ARM GAS  /tmp/cciEH2BQ.s 			page 13


 685 0358 58070000 		.4byte	0x758
 686 035c 04       		.byte	0x4
 687 035d 0B       		.uleb128 0xb
 688 035e 21000000 		.4byte	.LASF60
 689 0362 08       		.byte	0x8
 690 0363 3C01     		.2byte	0x13c
 691 0365 5C040000 		.4byte	0x45c
 692 0369 08       		.byte	0x8
 693 036a 0B       		.uleb128 0xb
 694 036b C1020000 		.4byte	.LASF61
 695 036f 08       		.byte	0x8
 696 0370 3D01     		.2byte	0x13d
 697 0372 0D030000 		.4byte	0x30d
 698 0376 0C       		.byte	0xc
 699 0377 0A       		.uleb128 0xa
 700 0378 70617200 		.ascii	"par\000"
 701 037c 08       		.byte	0x8
 702 037d 3F01     		.2byte	0x13f
 703 037f 29030000 		.4byte	0x329
 704 0383 10       		.byte	0x10
 705 0384 00       		.byte	0
 706 0385 03       		.uleb128 0x3
 707 0386 EF000000 		.4byte	.LASF62
 708 038a 07       		.byte	0x7
 709 038b 5B       		.byte	0x5b
 710 038c 90030000 		.4byte	0x390
 711 0390 0D       		.uleb128 0xd
 712 0391 85040000 		.4byte	.LASF63
 713 0395 10       		.byte	0x10
 714 0396 08       		.byte	0x8
 715 0397 4901     		.2byte	0x149
 716 0399 D2030000 		.4byte	0x3d2
 717 039d 0B       		.uleb128 0xb
 718 039e 1C000000 		.4byte	.LASF50
 719 03a2 08       		.byte	0x8
 720 03a3 4A01     		.2byte	0x14a
 721 03a5 58070000 		.4byte	0x758
 722 03a9 00       		.byte	0
 723 03aa 0B       		.uleb128 0xb
 724 03ab 47000000 		.4byte	.LASF53
 725 03af 08       		.byte	0x8
 726 03b0 4C01     		.2byte	0x14c
 727 03b2 58070000 		.4byte	0x758
 728 03b6 04       		.byte	0x4
 729 03b7 0B       		.uleb128 0xb
 730 03b8 21000000 		.4byte	.LASF60
 731 03bc 08       		.byte	0x8
 732 03bd 4E01     		.2byte	0x14e
 733 03bf 5C040000 		.4byte	0x45c
 734 03c3 08       		.byte	0x8
 735 03c4 0B       		.uleb128 0xb
 736 03c5 C1050000 		.4byte	.LASF64
 737 03c9 08       		.byte	0x8
 738 03ca 5601     		.2byte	0x156
 739 03cc 51040000 		.4byte	0x451
 740 03d0 0C       		.byte	0xc
 741 03d1 00       		.byte	0
ARM GAS  /tmp/cciEH2BQ.s 			page 14


 742 03d2 03       		.uleb128 0x3
 743 03d3 5E000000 		.4byte	.LASF65
 744 03d7 07       		.byte	0x7
 745 03d8 60       		.byte	0x60
 746 03d9 DD030000 		.4byte	0x3dd
 747 03dd 0D       		.uleb128 0xd
 748 03de 15030000 		.4byte	.LASF66
 749 03e2 04       		.byte	0x4
 750 03e3 08       		.byte	0x8
 751 03e4 7001     		.2byte	0x170
 752 03e6 F8030000 		.4byte	0x3f8
 753 03ea 0B       		.uleb128 0xb
 754 03eb 2F070000 		.4byte	.LASF67
 755 03ef 08       		.byte	0x8
 756 03f0 7801     		.2byte	0x178
 757 03f2 41070000 		.4byte	0x741
 758 03f6 00       		.byte	0
 759 03f7 00       		.byte	0
 760 03f8 03       		.uleb128 0x3
 761 03f9 F2030000 		.4byte	.LASF68
 762 03fd 07       		.byte	0x7
 763 03fe 65       		.byte	0x65
 764 03ff 03040000 		.4byte	0x403
 765 0403 0D       		.uleb128 0xd
 766 0404 DD050000 		.4byte	.LASF69
 767 0408 78       		.byte	0x78
 768 0409 08       		.byte	0x8
 769 040a 9001     		.2byte	0x190
 770 040c 51040000 		.4byte	0x451
 771 0410 0B       		.uleb128 0xb
 772 0411 2D030000 		.4byte	.LASF70
 773 0415 08       		.byte	0x8
 774 0416 9401     		.2byte	0x194
 775 0418 A6020000 		.4byte	0x2a6
 776 041c 00       		.byte	0
 777 041d 0B       		.uleb128 0xb
 778 041e 79020000 		.4byte	.LASF71
 779 0422 08       		.byte	0x8
 780 0423 9801     		.2byte	0x198
 781 0425 85030000 		.4byte	0x385
 782 0429 1C       		.byte	0x1c
 783 042a 0A       		.uleb128 0xa
 784 042b 64626700 		.ascii	"dbg\000"
 785 042f 08       		.byte	0x8
 786 0430 9C01     		.2byte	0x19c
 787 0432 D2030000 		.4byte	0x3d2
 788 0436 2C       		.byte	0x2c
 789 0437 0B       		.uleb128 0xb
 790 0438 DC000000 		.4byte	.LASF72
 791 043c 08       		.byte	0x8
 792 043d A001     		.2byte	0x1a0
 793 043f 58010000 		.4byte	0x158
 794 0443 30       		.byte	0x30
 795 0444 0A       		.uleb128 0xa
 796 0445 746D00   		.ascii	"tm\000"
 797 0448 08       		.byte	0x8
 798 0449 A501     		.2byte	0x1a5
ARM GAS  /tmp/cciEH2BQ.s 			page 15


 799 044b 5A060000 		.4byte	0x65a
 800 044f 74       		.byte	0x74
 801 0450 00       		.byte	0
 802 0451 03       		.uleb128 0x3
 803 0452 0E070000 		.4byte	.LASF73
 804 0456 09       		.byte	0x9
 805 0457 6D       		.byte	0x6d
 806 0458 DF000000 		.4byte	0xdf
 807 045c 03       		.uleb128 0x3
 808 045d 46030000 		.4byte	.LASF74
 809 0461 09       		.byte	0x9
 810 0462 79       		.byte	0x79
 811 0463 DF000000 		.4byte	0xdf
 812 0467 04       		.uleb128 0x4
 813 0468 04       		.byte	0x4
 814 0469 07       		.byte	0x7
 815 046a 69040000 		.4byte	.LASF75
 816 046e 11       		.uleb128 0x11
 817 046f 05010000 		.4byte	.LASF76
 818 0473 0A       		.byte	0xa
 819 0474 0408     		.2byte	0x804
 820 0476 DA000000 		.4byte	0xda
 821 047a 12       		.uleb128 0x12
 822 047b 70030000 		.4byte	.LASF77
 823 047f 0B       		.byte	0xb
 824 0480 4C       		.byte	0x4c
 825 0481 DF000000 		.4byte	0xdf
 826 0485 13       		.uleb128 0x13
 827 0486 BF000000 		.4byte	0xbf
 828 048a 95040000 		.4byte	0x495
 829 048e 14       		.uleb128 0x14
 830 048f 67040000 		.4byte	0x467
 831 0493 0F       		.byte	0xf
 832 0494 00       		.byte	0
 833 0495 05       		.uleb128 0x5
 834 0496 85040000 		.4byte	0x485
 835 049a 12       		.uleb128 0x12
 836 049b 28040000 		.4byte	.LASF78
 837 049f 0B       		.byte	0xb
 838 04a0 4E       		.byte	0x4e
 839 04a1 95040000 		.4byte	0x495
 840 04a5 13       		.uleb128 0x13
 841 04a6 BF000000 		.4byte	0xbf
 842 04aa B5040000 		.4byte	0x4b5
 843 04ae 14       		.uleb128 0x14
 844 04af 67040000 		.4byte	0x467
 845 04b3 07       		.byte	0x7
 846 04b4 00       		.byte	0
 847 04b5 05       		.uleb128 0x5
 848 04b6 A5040000 		.4byte	0x4a5
 849 04ba 12       		.uleb128 0x12
 850 04bb BE040000 		.4byte	.LASF79
 851 04bf 0B       		.byte	0xb
 852 04c0 4F       		.byte	0x4f
 853 04c1 B5040000 		.4byte	0x4b5
 854 04c5 03       		.uleb128 0x3
 855 04c6 03030000 		.4byte	.LASF80
ARM GAS  /tmp/cciEH2BQ.s 			page 16


 856 04ca 0C       		.byte	0xc
 857 04cb 65       		.byte	0x65
 858 04cc 29030000 		.4byte	0x329
 859 04d0 03       		.uleb128 0x3
 860 04d1 47040000 		.4byte	.LASF81
 861 04d5 0C       		.byte	0xc
 862 04d6 6D       		.byte	0x6d
 863 04d7 EA000000 		.4byte	0xea
 864 04db 07       		.uleb128 0x7
 865 04dc 9D000000 		.4byte	.LASF82
 866 04e0 04       		.byte	0x4
 867 04e1 0C       		.byte	0xc
 868 04e2 89       		.byte	0x89
 869 04e3 F3040000 		.4byte	0x4f3
 870 04e7 09       		.uleb128 0x9
 871 04e8 737000   		.ascii	"sp\000"
 872 04eb 0C       		.byte	0xc
 873 04ec 8A       		.byte	0x8a
 874 04ed 3F060000 		.4byte	0x63f
 875 04f1 00       		.byte	0
 876 04f2 00       		.byte	0
 877 04f3 0D       		.uleb128 0xd
 878 04f4 4C000000 		.4byte	.LASF83
 879 04f8 64       		.byte	0x64
 880 04f9 0D       		.byte	0xd
 881 04fa 5901     		.2byte	0x159
 882 04fc 3F060000 		.4byte	0x63f
 883 0500 0A       		.uleb128 0xa
 884 0501 73313600 		.ascii	"s16\000"
 885 0505 0D       		.byte	0xd
 886 0506 5B01     		.2byte	0x15b
 887 0508 C5040000 		.4byte	0x4c5
 888 050c 00       		.byte	0
 889 050d 0A       		.uleb128 0xa
 890 050e 73313700 		.ascii	"s17\000"
 891 0512 0D       		.byte	0xd
 892 0513 5C01     		.2byte	0x15c
 893 0515 C5040000 		.4byte	0x4c5
 894 0519 04       		.byte	0x4
 895 051a 0A       		.uleb128 0xa
 896 051b 73313800 		.ascii	"s18\000"
 897 051f 0D       		.byte	0xd
 898 0520 5D01     		.2byte	0x15d
 899 0522 C5040000 		.4byte	0x4c5
 900 0526 08       		.byte	0x8
 901 0527 0A       		.uleb128 0xa
 902 0528 73313900 		.ascii	"s19\000"
 903 052c 0D       		.byte	0xd
 904 052d 5E01     		.2byte	0x15e
 905 052f C5040000 		.4byte	0x4c5
 906 0533 0C       		.byte	0xc
 907 0534 0A       		.uleb128 0xa
 908 0535 73323000 		.ascii	"s20\000"
 909 0539 0D       		.byte	0xd
 910 053a 5F01     		.2byte	0x15f
 911 053c C5040000 		.4byte	0x4c5
 912 0540 10       		.byte	0x10
ARM GAS  /tmp/cciEH2BQ.s 			page 17


 913 0541 0A       		.uleb128 0xa
 914 0542 73323100 		.ascii	"s21\000"
 915 0546 0D       		.byte	0xd
 916 0547 6001     		.2byte	0x160
 917 0549 C5040000 		.4byte	0x4c5
 918 054d 14       		.byte	0x14
 919 054e 0A       		.uleb128 0xa
 920 054f 73323200 		.ascii	"s22\000"
 921 0553 0D       		.byte	0xd
 922 0554 6101     		.2byte	0x161
 923 0556 C5040000 		.4byte	0x4c5
 924 055a 18       		.byte	0x18
 925 055b 0A       		.uleb128 0xa
 926 055c 73323300 		.ascii	"s23\000"
 927 0560 0D       		.byte	0xd
 928 0561 6201     		.2byte	0x162
 929 0563 C5040000 		.4byte	0x4c5
 930 0567 1C       		.byte	0x1c
 931 0568 0A       		.uleb128 0xa
 932 0569 73323400 		.ascii	"s24\000"
 933 056d 0D       		.byte	0xd
 934 056e 6301     		.2byte	0x163
 935 0570 C5040000 		.4byte	0x4c5
 936 0574 20       		.byte	0x20
 937 0575 0A       		.uleb128 0xa
 938 0576 73323500 		.ascii	"s25\000"
 939 057a 0D       		.byte	0xd
 940 057b 6401     		.2byte	0x164
 941 057d C5040000 		.4byte	0x4c5
 942 0581 24       		.byte	0x24
 943 0582 0A       		.uleb128 0xa
 944 0583 73323600 		.ascii	"s26\000"
 945 0587 0D       		.byte	0xd
 946 0588 6501     		.2byte	0x165
 947 058a C5040000 		.4byte	0x4c5
 948 058e 28       		.byte	0x28
 949 058f 0A       		.uleb128 0xa
 950 0590 73323700 		.ascii	"s27\000"
 951 0594 0D       		.byte	0xd
 952 0595 6601     		.2byte	0x166
 953 0597 C5040000 		.4byte	0x4c5
 954 059b 2C       		.byte	0x2c
 955 059c 0A       		.uleb128 0xa
 956 059d 73323800 		.ascii	"s28\000"
 957 05a1 0D       		.byte	0xd
 958 05a2 6701     		.2byte	0x167
 959 05a4 C5040000 		.4byte	0x4c5
 960 05a8 30       		.byte	0x30
 961 05a9 0A       		.uleb128 0xa
 962 05aa 73323900 		.ascii	"s29\000"
 963 05ae 0D       		.byte	0xd
 964 05af 6801     		.2byte	0x168
 965 05b1 C5040000 		.4byte	0x4c5
 966 05b5 34       		.byte	0x34
 967 05b6 0A       		.uleb128 0xa
 968 05b7 73333000 		.ascii	"s30\000"
 969 05bb 0D       		.byte	0xd
ARM GAS  /tmp/cciEH2BQ.s 			page 18


 970 05bc 6901     		.2byte	0x169
 971 05be C5040000 		.4byte	0x4c5
 972 05c2 38       		.byte	0x38
 973 05c3 0A       		.uleb128 0xa
 974 05c4 73333100 		.ascii	"s31\000"
 975 05c8 0D       		.byte	0xd
 976 05c9 6A01     		.2byte	0x16a
 977 05cb C5040000 		.4byte	0x4c5
 978 05cf 3C       		.byte	0x3c
 979 05d0 0A       		.uleb128 0xa
 980 05d1 723400   		.ascii	"r4\000"
 981 05d4 0D       		.byte	0xd
 982 05d5 6C01     		.2byte	0x16c
 983 05d7 C5040000 		.4byte	0x4c5
 984 05db 40       		.byte	0x40
 985 05dc 0A       		.uleb128 0xa
 986 05dd 723500   		.ascii	"r5\000"
 987 05e0 0D       		.byte	0xd
 988 05e1 6D01     		.2byte	0x16d
 989 05e3 C5040000 		.4byte	0x4c5
 990 05e7 44       		.byte	0x44
 991 05e8 0A       		.uleb128 0xa
 992 05e9 723600   		.ascii	"r6\000"
 993 05ec 0D       		.byte	0xd
 994 05ed 6E01     		.2byte	0x16e
 995 05ef C5040000 		.4byte	0x4c5
 996 05f3 48       		.byte	0x48
 997 05f4 0A       		.uleb128 0xa
 998 05f5 723700   		.ascii	"r7\000"
 999 05f8 0D       		.byte	0xd
 1000 05f9 6F01     		.2byte	0x16f
 1001 05fb C5040000 		.4byte	0x4c5
 1002 05ff 4C       		.byte	0x4c
 1003 0600 0A       		.uleb128 0xa
 1004 0601 723800   		.ascii	"r8\000"
 1005 0604 0D       		.byte	0xd
 1006 0605 7001     		.2byte	0x170
 1007 0607 C5040000 		.4byte	0x4c5
 1008 060b 50       		.byte	0x50
 1009 060c 0A       		.uleb128 0xa
 1010 060d 723900   		.ascii	"r9\000"
 1011 0610 0D       		.byte	0xd
 1012 0611 7101     		.2byte	0x171
 1013 0613 C5040000 		.4byte	0x4c5
 1014 0617 54       		.byte	0x54
 1015 0618 0A       		.uleb128 0xa
 1016 0619 72313000 		.ascii	"r10\000"
 1017 061d 0D       		.byte	0xd
 1018 061e 7201     		.2byte	0x172
 1019 0620 C5040000 		.4byte	0x4c5
 1020 0624 58       		.byte	0x58
 1021 0625 0A       		.uleb128 0xa
 1022 0626 72313100 		.ascii	"r11\000"
 1023 062a 0D       		.byte	0xd
 1024 062b 7301     		.2byte	0x173
 1025 062d C5040000 		.4byte	0x4c5
 1026 0631 5C       		.byte	0x5c
ARM GAS  /tmp/cciEH2BQ.s 			page 19


 1027 0632 0A       		.uleb128 0xa
 1028 0633 6C7200   		.ascii	"lr\000"
 1029 0636 0D       		.byte	0xd
 1030 0637 7401     		.2byte	0x174
 1031 0639 C5040000 		.4byte	0x4c5
 1032 063d 60       		.byte	0x60
 1033 063e 00       		.byte	0
 1034 063f 0C       		.uleb128 0xc
 1035 0640 04       		.byte	0x4
 1036 0641 F3040000 		.4byte	0x4f3
 1037 0645 15       		.uleb128 0x15
 1038 0646 04       		.byte	0x4
 1039 0647 0E       		.byte	0xe
 1040 0648 38       		.byte	0x38
 1041 0649 5A060000 		.4byte	0x65a
 1042 064d 08       		.uleb128 0x8
 1043 064e 39070000 		.4byte	.LASF84
 1044 0652 0E       		.byte	0xe
 1045 0653 3C       		.byte	0x3c
 1046 0654 F5000000 		.4byte	0xf5
 1047 0658 00       		.byte	0
 1048 0659 00       		.byte	0
 1049 065a 03       		.uleb128 0x3
 1050 065b EC040000 		.4byte	.LASF85
 1051 065f 0E       		.byte	0xe
 1052 0660 3D       		.byte	0x3d
 1053 0661 45060000 		.4byte	0x645
 1054 0665 16       		.uleb128 0x16
 1055 0666 04       		.byte	0x4
 1056 0667 08       		.byte	0x8
 1057 0668 C6       		.byte	0xc6
 1058 0669 C7060000 		.4byte	0x6c7
 1059 066d 17       		.uleb128 0x17
 1060 066e 27000000 		.4byte	.LASF86
 1061 0672 08       		.byte	0x8
 1062 0673 CD       		.byte	0xcd
 1063 0674 2C010000 		.4byte	0x12c
 1064 0678 17       		.uleb128 0x17
 1065 0679 D3000000 		.4byte	.LASF87
 1066 067d 08       		.byte	0x8
 1067 067e D4       		.byte	0xd4
 1068 067f 2C010000 		.4byte	0x12c
 1069 0683 17       		.uleb128 0x17
 1070 0684 09080000 		.4byte	.LASF88
 1071 0688 08       		.byte	0x8
 1072 0689 DB       		.byte	0xdb
 1073 068a 29030000 		.4byte	0x329
 1074 068e 17       		.uleb128 0x17
 1075 068f 87030000 		.4byte	.LASF89
 1076 0693 08       		.byte	0x8
 1077 0694 E2       		.byte	0xe2
 1078 0695 C7060000 		.4byte	0x6c7
 1079 0699 17       		.uleb128 0x17
 1080 069a E7000000 		.4byte	.LASF90
 1081 069e 08       		.byte	0x8
 1082 069f E7       		.byte	0xe7
 1083 06a0 2C010000 		.4byte	0x12c
ARM GAS  /tmp/cciEH2BQ.s 			page 20


 1084 06a4 17       		.uleb128 0x17
 1085 06a5 80030000 		.4byte	.LASF91
 1086 06a9 08       		.byte	0x8
 1087 06aa F0       		.byte	0xf0
 1088 06ab F2060000 		.4byte	0x6f2
 1089 06af 17       		.uleb128 0x17
 1090 06b0 91060000 		.4byte	.LASF92
 1091 06b4 08       		.byte	0x8
 1092 06b5 F9       		.byte	0xf9
 1093 06b6 35070000 		.4byte	0x735
 1094 06ba 18       		.uleb128 0x18
 1095 06bb D6050000 		.4byte	.LASF93
 1096 06bf 08       		.byte	0x8
 1097 06c0 0101     		.2byte	0x101
 1098 06c2 37010000 		.4byte	0x137
 1099 06c6 00       		.byte	0
 1100 06c7 0C       		.uleb128 0xc
 1101 06c8 04       		.byte	0x4
 1102 06c9 41020000 		.4byte	0x241
 1103 06cd 07       		.uleb128 0x7
 1104 06ce 57060000 		.4byte	.LASF94
 1105 06d2 0C       		.byte	0xc
 1106 06d3 0F       		.byte	0xf
 1107 06d4 34       		.byte	0x34
 1108 06d5 F2060000 		.4byte	0x6f2
 1109 06d9 08       		.uleb128 0x8
 1110 06da AF030000 		.4byte	.LASF31
 1111 06de 0F       		.byte	0xf
 1112 06df 35       		.byte	0x35
 1113 06e0 76020000 		.4byte	0x276
 1114 06e4 00       		.byte	0
 1115 06e5 09       		.uleb128 0x9
 1116 06e6 636E7400 		.ascii	"cnt\000"
 1117 06ea 0F       		.byte	0xf
 1118 06eb 37       		.byte	0x37
 1119 06ec 42010000 		.4byte	0x142
 1120 06f0 08       		.byte	0x8
 1121 06f1 00       		.byte	0
 1122 06f2 0C       		.uleb128 0xc
 1123 06f3 04       		.byte	0x4
 1124 06f4 CD060000 		.4byte	0x6cd
 1125 06f8 07       		.uleb128 0x7
 1126 06f9 53070000 		.4byte	.LASF95
 1127 06fd 14       		.byte	0x14
 1128 06fe 10       		.byte	0x10
 1129 06ff 39       		.byte	0x39
 1130 0700 35070000 		.4byte	0x735
 1131 0704 08       		.uleb128 0x8
 1132 0705 AF030000 		.4byte	.LASF31
 1133 0709 10       		.byte	0x10
 1134 070a 3A       		.byte	0x3a
 1135 070b 76020000 		.4byte	0x276
 1136 070f 00       		.byte	0
 1137 0710 08       		.uleb128 0x8
 1138 0711 A8060000 		.4byte	.LASF96
 1139 0715 10       		.byte	0x10
 1140 0716 3C       		.byte	0x3c
ARM GAS  /tmp/cciEH2BQ.s 			page 21


 1141 0717 4C020000 		.4byte	0x24c
 1142 071b 08       		.byte	0x8
 1143 071c 08       		.uleb128 0x8
 1144 071d 1C000000 		.4byte	.LASF50
 1145 0721 10       		.byte	0x10
 1146 0722 3E       		.byte	0x3e
 1147 0723 FE080000 		.4byte	0x8fe
 1148 0727 0C       		.byte	0xc
 1149 0728 09       		.uleb128 0x9
 1150 0729 636E7400 		.ascii	"cnt\000"
 1151 072d 10       		.byte	0x10
 1152 072e 41       		.byte	0x41
 1153 072f 42010000 		.4byte	0x142
 1154 0733 10       		.byte	0x10
 1155 0734 00       		.byte	0
 1156 0735 0C       		.uleb128 0xc
 1157 0736 04       		.byte	0x4
 1158 0737 F8060000 		.4byte	0x6f8
 1159 073b 0C       		.uleb128 0xc
 1160 073c 04       		.byte	0x4
 1161 073d 4D070000 		.4byte	0x74d
 1162 0741 06       		.uleb128 0x6
 1163 0742 3B070000 		.4byte	0x73b
 1164 0746 04       		.uleb128 0x4
 1165 0747 01       		.byte	0x1
 1166 0748 08       		.byte	0x8
 1167 0749 DB060000 		.4byte	.LASF97
 1168 074d 05       		.uleb128 0x5
 1169 074e 46070000 		.4byte	0x746
 1170 0752 0C       		.uleb128 0xc
 1171 0753 04       		.byte	0x4
 1172 0754 D0040000 		.4byte	0x4d0
 1173 0758 0C       		.uleb128 0xc
 1174 0759 04       		.byte	0x4
 1175 075a 2B030000 		.4byte	0x32b
 1176 075e 19       		.uleb128 0x19
 1177 075f 636800   		.ascii	"ch\000"
 1178 0762 08       		.byte	0x8
 1179 0763 C701     		.2byte	0x1c7
 1180 0765 F8030000 		.4byte	0x3f8
 1181 0769 13       		.uleb128 0x13
 1182 076a D0040000 		.4byte	0x4d0
 1183 076e 74070000 		.4byte	0x774
 1184 0772 1A       		.uleb128 0x1a
 1185 0773 00       		.byte	0
 1186 0774 11       		.uleb128 0x11
 1187 0775 6D060000 		.4byte	.LASF98
 1188 0779 11       		.byte	0x11
 1189 077a 1701     		.2byte	0x117
 1190 077c 69070000 		.4byte	0x769
 1191 0780 03       		.uleb128 0x3
 1192 0781 00000000 		.4byte	.LASF99
 1193 0785 12       		.byte	0x12
 1194 0786 34       		.byte	0x34
 1195 0787 18030000 		.4byte	0x318
 1196 078b 15       		.uleb128 0x15
 1197 078c 18       		.byte	0x18
ARM GAS  /tmp/cciEH2BQ.s 			page 22


 1198 078d 12       		.byte	0x12
 1199 078e 39       		.byte	0x39
 1200 078f DC070000 		.4byte	0x7dc
 1201 0793 08       		.uleb128 0x8
 1202 0794 ED030000 		.4byte	.LASF35
 1203 0798 12       		.byte	0x12
 1204 0799 3D       		.byte	0x3d
 1205 079a 3B070000 		.4byte	0x73b
 1206 079e 00       		.byte	0
 1207 079f 08       		.uleb128 0x8
 1208 07a0 E6040000 		.4byte	.LASF100
 1209 07a4 12       		.byte	0x12
 1210 07a5 41       		.byte	0x41
 1211 07a6 52070000 		.4byte	0x752
 1212 07aa 04       		.byte	0x4
 1213 07ab 08       		.uleb128 0x8
 1214 07ac B7000000 		.4byte	.LASF101
 1215 07b0 12       		.byte	0x12
 1216 07b1 45       		.byte	0x45
 1217 07b2 52070000 		.4byte	0x752
 1218 07b6 08       		.byte	0x8
 1219 07b7 08       		.uleb128 0x8
 1220 07b8 0B050000 		.4byte	.LASF32
 1221 07bc 12       		.byte	0x12
 1222 07bd 49       		.byte	0x49
 1223 07be 21010000 		.4byte	0x121
 1224 07c2 0C       		.byte	0xc
 1225 07c3 08       		.uleb128 0x8
 1226 07c4 2E000000 		.4byte	.LASF102
 1227 07c8 12       		.byte	0x12
 1228 07c9 4D       		.byte	0x4d
 1229 07ca 80070000 		.4byte	0x780
 1230 07ce 10       		.byte	0x10
 1231 07cf 09       		.uleb128 0x9
 1232 07d0 61726700 		.ascii	"arg\000"
 1233 07d4 12       		.byte	0x12
 1234 07d5 51       		.byte	0x51
 1235 07d6 29030000 		.4byte	0x329
 1236 07da 14       		.byte	0x14
 1237 07db 00       		.byte	0
 1238 07dc 03       		.uleb128 0x3
 1239 07dd 76000000 		.4byte	.LASF103
 1240 07e1 12       		.byte	0x12
 1241 07e2 52       		.byte	0x52
 1242 07e3 8B070000 		.4byte	0x78b
 1243 07e7 15       		.uleb128 0x15
 1244 07e8 16       		.byte	0x16
 1245 07e9 13       		.byte	0x13
 1246 07ea 34       		.byte	0x34
 1247 07eb C8080000 		.4byte	0x8c8
 1248 07ef 08       		.uleb128 0x8
 1249 07f0 79070000 		.4byte	.LASF104
 1250 07f4 13       		.byte	0x13
 1251 07f5 35       		.byte	0x35
 1252 07f6 C8080000 		.4byte	0x8c8
 1253 07fa 00       		.byte	0
 1254 07fb 08       		.uleb128 0x8
ARM GAS  /tmp/cciEH2BQ.s 			page 23


 1255 07fc 33030000 		.4byte	.LASF105
 1256 0800 13       		.byte	0x13
 1257 0801 36       		.byte	0x36
 1258 0802 B4000000 		.4byte	0xb4
 1259 0806 04       		.byte	0x4
 1260 0807 08       		.uleb128 0x8
 1261 0808 56010000 		.4byte	.LASF106
 1262 080c 13       		.byte	0x13
 1263 080d 37       		.byte	0x37
 1264 080e B4000000 		.4byte	0xb4
 1265 0812 05       		.byte	0x5
 1266 0813 08       		.uleb128 0x8
 1267 0814 61040000 		.4byte	.LASF107
 1268 0818 13       		.byte	0x13
 1269 0819 38       		.byte	0x38
 1270 081a C4000000 		.4byte	0xc4
 1271 081e 06       		.byte	0x6
 1272 081f 08       		.uleb128 0x8
 1273 0820 A5070000 		.4byte	.LASF108
 1274 0824 13       		.byte	0x13
 1275 0825 39       		.byte	0x39
 1276 0826 B4000000 		.4byte	0xb4
 1277 082a 08       		.byte	0x8
 1278 082b 08       		.uleb128 0x8
 1279 082c 7F060000 		.4byte	.LASF109
 1280 0830 13       		.byte	0x13
 1281 0831 3A       		.byte	0x3a
 1282 0832 B4000000 		.4byte	0xb4
 1283 0836 09       		.byte	0x9
 1284 0837 08       		.uleb128 0x8
 1285 0838 7A050000 		.4byte	.LASF110
 1286 083c 13       		.byte	0x13
 1287 083d 3B       		.byte	0x3b
 1288 083e B4000000 		.4byte	0xb4
 1289 0842 0A       		.byte	0xa
 1290 0843 08       		.uleb128 0x8
 1291 0844 A1050000 		.4byte	.LASF111
 1292 0848 13       		.byte	0x13
 1293 0849 3C       		.byte	0x3c
 1294 084a B4000000 		.4byte	0xb4
 1295 084e 0B       		.byte	0xb
 1296 084f 08       		.uleb128 0x8
 1297 0850 FE030000 		.4byte	.LASF112
 1298 0854 13       		.byte	0x13
 1299 0855 3D       		.byte	0x3d
 1300 0856 B4000000 		.4byte	0xb4
 1301 085a 0C       		.byte	0xc
 1302 085b 08       		.uleb128 0x8
 1303 085c B4040000 		.4byte	.LASF113
 1304 0860 13       		.byte	0x13
 1305 0861 3E       		.byte	0x3e
 1306 0862 B4000000 		.4byte	0xb4
 1307 0866 0D       		.byte	0xd
 1308 0867 08       		.uleb128 0x8
 1309 0868 5C070000 		.4byte	.LASF114
 1310 086c 13       		.byte	0x13
 1311 086d 3F       		.byte	0x3f
ARM GAS  /tmp/cciEH2BQ.s 			page 24


 1312 086e B4000000 		.4byte	0xb4
 1313 0872 0E       		.byte	0xe
 1314 0873 08       		.uleb128 0x8
 1315 0874 DC070000 		.4byte	.LASF115
 1316 0878 13       		.byte	0x13
 1317 0879 40       		.byte	0x40
 1318 087a B4000000 		.4byte	0xb4
 1319 087e 0F       		.byte	0xf
 1320 087f 08       		.uleb128 0x8
 1321 0880 AA050000 		.4byte	.LASF116
 1322 0884 13       		.byte	0x13
 1323 0885 41       		.byte	0x41
 1324 0886 B4000000 		.4byte	0xb4
 1325 088a 10       		.byte	0x10
 1326 088b 08       		.uleb128 0x8
 1327 088c 1F080000 		.4byte	.LASF117
 1328 0890 13       		.byte	0x13
 1329 0891 42       		.byte	0x42
 1330 0892 B4000000 		.4byte	0xb4
 1331 0896 11       		.byte	0x11
 1332 0897 08       		.uleb128 0x8
 1333 0898 47080000 		.4byte	.LASF118
 1334 089c 13       		.byte	0x13
 1335 089d 43       		.byte	0x43
 1336 089e B4000000 		.4byte	0xb4
 1337 08a2 12       		.byte	0x12
 1338 08a3 08       		.uleb128 0x8
 1339 08a4 BB030000 		.4byte	.LASF119
 1340 08a8 13       		.byte	0x13
 1341 08a9 44       		.byte	0x44
 1342 08aa B4000000 		.4byte	0xb4
 1343 08ae 13       		.byte	0x13
 1344 08af 08       		.uleb128 0x8
 1345 08b0 DE020000 		.4byte	.LASF120
 1346 08b4 13       		.byte	0x13
 1347 08b5 45       		.byte	0x45
 1348 08b6 B4000000 		.4byte	0xb4
 1349 08ba 14       		.byte	0x14
 1350 08bb 08       		.uleb128 0x8
 1351 08bc 64060000 		.4byte	.LASF121
 1352 08c0 13       		.byte	0x13
 1353 08c1 46       		.byte	0x46
 1354 08c2 B4000000 		.4byte	0xb4
 1355 08c6 15       		.byte	0x15
 1356 08c7 00       		.byte	0
 1357 08c8 13       		.uleb128 0x13
 1358 08c9 46070000 		.4byte	0x746
 1359 08cd D8080000 		.4byte	0x8d8
 1360 08d1 14       		.uleb128 0x14
 1361 08d2 67040000 		.4byte	0x467
 1362 08d6 03       		.byte	0x3
 1363 08d7 00       		.byte	0
 1364 08d8 03       		.uleb128 0x3
 1365 08d9 D4020000 		.4byte	.LASF122
 1366 08dd 13       		.byte	0x13
 1367 08de 47       		.byte	0x47
 1368 08df E7070000 		.4byte	0x7e7
ARM GAS  /tmp/cciEH2BQ.s 			page 25


 1369 08e3 05       		.uleb128 0x5
 1370 08e4 D8080000 		.4byte	0x8d8
 1371 08e8 12       		.uleb128 0x12
 1372 08e9 8D030000 		.4byte	.LASF123
 1373 08ed 13       		.byte	0x13
 1374 08ee 6C       		.byte	0x6c
 1375 08ef E3080000 		.4byte	0x8e3
 1376 08f3 03       		.uleb128 0x3
 1377 08f4 38030000 		.4byte	.LASF124
 1378 08f8 10       		.byte	0x10
 1379 08f9 34       		.byte	0x34
 1380 08fa F8060000 		.4byte	0x6f8
 1381 08fe 0C       		.uleb128 0xc
 1382 08ff 04       		.byte	0x4
 1383 0900 F3080000 		.4byte	0x8f3
 1384 0904 04       		.uleb128 0x4
 1385 0905 01       		.byte	0x1
 1386 0906 02       		.byte	0x2
 1387 0907 85050000 		.4byte	.LASF125
 1388 090b 03       		.uleb128 0x3
 1389 090c AA000000 		.4byte	.LASF126
 1390 0910 14       		.byte	0x14
 1391 0911 47       		.byte	0x47
 1392 0912 16090000 		.4byte	0x916
 1393 0916 0C       		.uleb128 0xc
 1394 0917 04       		.byte	0x4
 1395 0918 1C090000 		.4byte	0x91c
 1396 091c 1B       		.uleb128 0x1b
 1397 091d 29030000 		.4byte	0x329
 1398 0921 30090000 		.4byte	0x930
 1399 0925 0F       		.uleb128 0xf
 1400 0926 2C000000 		.4byte	0x2c
 1401 092a 0F       		.uleb128 0xf
 1402 092b 37000000 		.4byte	0x37
 1403 092f 00       		.byte	0
 1404 0930 03       		.uleb128 0x3
 1405 0931 FD040000 		.4byte	.LASF127
 1406 0935 14       		.byte	0x14
 1407 0936 4C       		.byte	0x4c
 1408 0937 3B090000 		.4byte	0x93b
 1409 093b 0C       		.uleb128 0xc
 1410 093c 04       		.byte	0x4
 1411 093d 41090000 		.4byte	0x941
 1412 0941 1B       		.uleb128 0x1b
 1413 0942 29030000 		.4byte	0x329
 1414 0946 5A090000 		.4byte	0x95a
 1415 094a 0F       		.uleb128 0xf
 1416 094b 2C000000 		.4byte	0x2c
 1417 094f 0F       		.uleb128 0xf
 1418 0950 37000000 		.4byte	0x37
 1419 0954 0F       		.uleb128 0xf
 1420 0955 2C000000 		.4byte	0x2c
 1421 0959 00       		.byte	0
 1422 095a 15       		.uleb128 0x15
 1423 095b 08       		.byte	0x8
 1424 095c 14       		.byte	0x14
 1425 095d 51       		.byte	0x51
ARM GAS  /tmp/cciEH2BQ.s 			page 26


 1426 095e 7B090000 		.4byte	0x97b
 1427 0962 08       		.uleb128 0x8
 1428 0963 8C080000 		.4byte	.LASF128
 1429 0967 14       		.byte	0x14
 1430 0968 55       		.byte	0x55
 1431 0969 7B090000 		.4byte	0x97b
 1432 096d 00       		.byte	0
 1433 096e 08       		.uleb128 0x8
 1434 096f 36040000 		.4byte	.LASF129
 1435 0973 14       		.byte	0x14
 1436 0974 59       		.byte	0x59
 1437 0975 7B090000 		.4byte	0x97b
 1438 0979 04       		.byte	0x4
 1439 097a 00       		.byte	0
 1440 097b 0C       		.uleb128 0xc
 1441 097c 04       		.byte	0x4
 1442 097d B4000000 		.4byte	0xb4
 1443 0981 03       		.uleb128 0x3
 1444 0982 2C050000 		.4byte	.LASF130
 1445 0986 14       		.byte	0x14
 1446 0987 5A       		.byte	0x5a
 1447 0988 5A090000 		.4byte	0x95a
 1448 098c 12       		.uleb128 0x12
 1449 098d 03070000 		.4byte	.LASF131
 1450 0991 14       		.byte	0x14
 1451 0992 65       		.byte	0x65
 1452 0993 81090000 		.4byte	0x981
 1453 0997 03       		.uleb128 0x3
 1454 0998 C6020000 		.4byte	.LASF132
 1455 099c 15       		.byte	0x15
 1456 099d 48       		.byte	0x48
 1457 099e A2090000 		.4byte	0x9a2
 1458 09a2 07       		.uleb128 0x7
 1459 09a3 94080000 		.4byte	.LASF133
 1460 09a7 20       		.byte	0x20
 1461 09a8 15       		.byte	0x15
 1462 09a9 60       		.byte	0x60
 1463 09aa D3090000 		.4byte	0x9d3
 1464 09ae 08       		.uleb128 0x8
 1465 09af 6D000000 		.4byte	.LASF134
 1466 09b3 15       		.byte	0x15
 1467 09b4 61       		.byte	0x61
 1468 09b5 30090000 		.4byte	0x930
 1469 09b9 00       		.byte	0
 1470 09ba 08       		.uleb128 0x8
 1471 09bb 85080000 		.4byte	.LASF135
 1472 09bf 15       		.byte	0x15
 1473 09c0 63       		.byte	0x63
 1474 09c1 D3090000 		.4byte	0x9d3
 1475 09c5 04       		.byte	0x4
 1476 09c6 09       		.uleb128 0x9
 1477 09c7 6D747800 		.ascii	"mtx\000"
 1478 09cb 15       		.byte	0x15
 1479 09cc 65       		.byte	0x65
 1480 09cd F3080000 		.4byte	0x8f3
 1481 09d1 0C       		.byte	0xc
 1482 09d2 00       		.byte	0
ARM GAS  /tmp/cciEH2BQ.s 			page 27


 1483 09d3 03       		.uleb128 0x3
 1484 09d4 EA020000 		.4byte	.LASF136
 1485 09d8 15       		.byte	0x15
 1486 09d9 4D       		.byte	0x4d
 1487 09da DE090000 		.4byte	0x9de
 1488 09de 1C       		.uleb128 0x1c
 1489 09df CA050000 		.4byte	.LASF175
 1490 09e3 08       		.byte	0x8
 1491 09e4 15       		.byte	0x15
 1492 09e5 52       		.byte	0x52
 1493 09e6 010A0000 		.4byte	0xa01
 1494 09ea 17       		.uleb128 0x17
 1495 09eb 26010000 		.4byte	.LASF137
 1496 09ef 15       		.byte	0x15
 1497 09f0 56       		.byte	0x56
 1498 09f1 010A0000 		.4byte	0xa01
 1499 09f5 17       		.uleb128 0x17
 1500 09f6 36050000 		.4byte	.LASF138
 1501 09fa 15       		.byte	0x15
 1502 09fb 5A       		.byte	0x5a
 1503 09fc 280A0000 		.4byte	0xa28
 1504 0a00 00       		.byte	0
 1505 0a01 15       		.uleb128 0x15
 1506 0a02 08       		.byte	0x8
 1507 0a03 15       		.byte	0x15
 1508 0a04 53       		.byte	0x53
 1509 0a05 220A0000 		.4byte	0xa22
 1510 0a09 08       		.uleb128 0x8
 1511 0a0a 1C000000 		.4byte	.LASF50
 1512 0a0e 15       		.byte	0x15
 1513 0a0f 54       		.byte	0x54
 1514 0a10 220A0000 		.4byte	0xa22
 1515 0a14 00       		.byte	0
 1516 0a15 08       		.uleb128 0x8
 1517 0a16 58000000 		.4byte	.LASF139
 1518 0a1a 15       		.byte	0x15
 1519 0a1b 55       		.byte	0x55
 1520 0a1c 2C000000 		.4byte	0x2c
 1521 0a20 04       		.byte	0x4
 1522 0a21 00       		.byte	0
 1523 0a22 0C       		.uleb128 0xc
 1524 0a23 04       		.byte	0x4
 1525 0a24 D3090000 		.4byte	0x9d3
 1526 0a28 15       		.uleb128 0x15
 1527 0a29 08       		.byte	0x8
 1528 0a2a 15       		.byte	0x15
 1529 0a2b 57       		.byte	0x57
 1530 0a2c 490A0000 		.4byte	0xa49
 1531 0a30 08       		.uleb128 0x8
 1532 0a31 AE060000 		.4byte	.LASF140
 1533 0a35 15       		.byte	0x15
 1534 0a36 58       		.byte	0x58
 1535 0a37 490A0000 		.4byte	0xa49
 1536 0a3b 00       		.byte	0
 1537 0a3c 08       		.uleb128 0x8
 1538 0a3d 56010000 		.4byte	.LASF106
 1539 0a41 15       		.byte	0x15
ARM GAS  /tmp/cciEH2BQ.s 			page 28


 1540 0a42 59       		.byte	0x59
 1541 0a43 2C000000 		.4byte	0x2c
 1542 0a47 04       		.byte	0x4
 1543 0a48 00       		.byte	0
 1544 0a49 0C       		.uleb128 0xc
 1545 0a4a 04       		.byte	0x4
 1546 0a4b 97090000 		.4byte	0x997
 1547 0a4f 07       		.uleb128 0x7
 1548 0a50 D0070000 		.4byte	.LASF141
 1549 0a54 04       		.byte	0x4
 1550 0a55 16       		.byte	0x16
 1551 0a56 38       		.byte	0x38
 1552 0a57 680A0000 		.4byte	0xa68
 1553 0a5b 08       		.uleb128 0x8
 1554 0a5c 1C000000 		.4byte	.LASF50
 1555 0a60 16       		.byte	0x16
 1556 0a61 39       		.byte	0x39
 1557 0a62 680A0000 		.4byte	0xa68
 1558 0a66 00       		.byte	0
 1559 0a67 00       		.byte	0
 1560 0a68 0C       		.uleb128 0xc
 1561 0a69 04       		.byte	0x4
 1562 0a6a 4F0A0000 		.4byte	0xa4f
 1563 0a6e 15       		.uleb128 0x15
 1564 0a6f 10       		.byte	0x10
 1565 0a70 16       		.byte	0x16
 1566 0a71 40       		.byte	0x40
 1567 0a72 A70A0000 		.4byte	0xaa7
 1568 0a76 08       		.uleb128 0x8
 1569 0a77 1C000000 		.4byte	.LASF50
 1570 0a7b 16       		.byte	0x16
 1571 0a7c 41       		.byte	0x41
 1572 0a7d 680A0000 		.4byte	0xa68
 1573 0a81 00       		.byte	0
 1574 0a82 08       		.uleb128 0x8
 1575 0a83 99070000 		.4byte	.LASF142
 1576 0a87 16       		.byte	0x16
 1577 0a88 42       		.byte	0x42
 1578 0a89 2C000000 		.4byte	0x2c
 1579 0a8d 04       		.byte	0x4
 1580 0a8e 08       		.uleb128 0x8
 1581 0a8f 40030000 		.4byte	.LASF143
 1582 0a93 16       		.byte	0x16
 1583 0a94 44       		.byte	0x44
 1584 0a95 37000000 		.4byte	0x37
 1585 0a99 08       		.byte	0x8
 1586 0a9a 08       		.uleb128 0x8
 1587 0a9b 6D000000 		.4byte	.LASF134
 1588 0a9f 16       		.byte	0x16
 1589 0aa0 45       		.byte	0x45
 1590 0aa1 0B090000 		.4byte	0x90b
 1591 0aa5 0C       		.byte	0xc
 1592 0aa6 00       		.byte	0
 1593 0aa7 03       		.uleb128 0x3
 1594 0aa8 A1030000 		.4byte	.LASF144
 1595 0aac 16       		.byte	0x16
 1596 0aad 47       		.byte	0x47
ARM GAS  /tmp/cciEH2BQ.s 			page 29


 1597 0aae 6E0A0000 		.4byte	0xa6e
 1598 0ab2 07       		.uleb128 0x7
 1599 0ab3 58050000 		.4byte	.LASF145
 1600 0ab7 10       		.byte	0x10
 1601 0ab8 17       		.byte	0x17
 1602 0ab9 A9       		.byte	0xa9
 1603 0aba E30A0000 		.4byte	0xae3
 1604 0abe 08       		.uleb128 0x8
 1605 0abf 1C000000 		.4byte	.LASF50
 1606 0ac3 17       		.byte	0x17
 1607 0ac4 AD       		.byte	0xad
 1608 0ac5 E30A0000 		.4byte	0xae3
 1609 0ac9 00       		.byte	0
 1610 0aca 08       		.uleb128 0x8
 1611 0acb 43050000 		.4byte	.LASF39
 1612 0acf 17       		.byte	0x17
 1613 0ad0 B1       		.byte	0xb1
 1614 0ad1 4D010000 		.4byte	0x14d
 1615 0ad5 04       		.byte	0x4
 1616 0ad6 08       		.uleb128 0x8
 1617 0ad7 ED030000 		.4byte	.LASF35
 1618 0adb 17       		.byte	0x17
 1619 0adc B3       		.byte	0xb3
 1620 0add E90A0000 		.4byte	0xae9
 1621 0ae1 08       		.byte	0x8
 1622 0ae2 00       		.byte	0
 1623 0ae3 0C       		.uleb128 0xc
 1624 0ae4 04       		.byte	0x4
 1625 0ae5 B20A0000 		.4byte	0xab2
 1626 0ae9 13       		.uleb128 0x13
 1627 0aea 46070000 		.4byte	0x746
 1628 0aee F90A0000 		.4byte	0xaf9
 1629 0af2 14       		.uleb128 0x14
 1630 0af3 67040000 		.4byte	0x467
 1631 0af7 07       		.byte	0x7
 1632 0af8 00       		.byte	0
 1633 0af9 03       		.uleb128 0x3
 1634 0afa 18010000 		.4byte	.LASF146
 1635 0afe 17       		.byte	0x17
 1636 0aff B7       		.byte	0xb7
 1637 0b00 B20A0000 		.4byte	0xab2
 1638 0b04 07       		.uleb128 0x7
 1639 0b05 A8040000 		.4byte	.LASF147
 1640 0b09 04       		.byte	0x4
 1641 0b0a 17       		.byte	0x17
 1642 0b0b BC       		.byte	0xbc
 1643 0b0c 1D0B0000 		.4byte	0xb1d
 1644 0b10 08       		.uleb128 0x8
 1645 0b11 1C000000 		.4byte	.LASF50
 1646 0b15 17       		.byte	0x17
 1647 0b16 BD       		.byte	0xbd
 1648 0b17 1D0B0000 		.4byte	0xb1d
 1649 0b1b 00       		.byte	0
 1650 0b1c 00       		.byte	0
 1651 0b1d 0C       		.uleb128 0xc
 1652 0b1e 04       		.byte	0x4
 1653 0b1f F90A0000 		.4byte	0xaf9
ARM GAS  /tmp/cciEH2BQ.s 			page 30


 1654 0b23 03       		.uleb128 0x3
 1655 0b24 67050000 		.4byte	.LASF148
 1656 0b28 17       		.byte	0x17
 1657 0b29 BE       		.byte	0xbe
 1658 0b2a 040B0000 		.4byte	0xb04
 1659 0b2e 0D       		.uleb128 0xd
 1660 0b2f AD070000 		.4byte	.LASF149
 1661 0b33 48       		.byte	0x48
 1662 0b34 17       		.byte	0x17
 1663 0b35 3E01     		.2byte	0x13e
 1664 0b37 A40B0000 		.4byte	0xba4
 1665 0b3b 0A       		.uleb128 0xa
 1666 0b3c 6D747800 		.ascii	"mtx\000"
 1667 0b40 17       		.byte	0x17
 1668 0b41 4301     		.2byte	0x143
 1669 0b43 F3080000 		.4byte	0x8f3
 1670 0b47 00       		.byte	0
 1671 0b48 0B       		.uleb128 0xb
 1672 0b49 E6060000 		.4byte	.LASF150
 1673 0b4d 17       		.byte	0x17
 1674 0b4e 4A01     		.2byte	0x14a
 1675 0b50 230B0000 		.4byte	0xb23
 1676 0b54 14       		.byte	0x14
 1677 0b55 0B       		.uleb128 0xb
 1678 0b56 36060000 		.4byte	.LASF151
 1679 0b5a 17       		.byte	0x17
 1680 0b5b 4E01     		.2byte	0x14e
 1681 0b5d A70A0000 		.4byte	0xaa7
 1682 0b61 18       		.byte	0x18
 1683 0b62 0B       		.uleb128 0xb
 1684 0b63 C4030000 		.4byte	.LASF152
 1685 0b67 17       		.byte	0x17
 1686 0b68 5301     		.2byte	0x153
 1687 0b6a 230B0000 		.4byte	0xb23
 1688 0b6e 28       		.byte	0x28
 1689 0b6f 0B       		.uleb128 0xb
 1690 0b70 8A000000 		.4byte	.LASF153
 1691 0b74 17       		.byte	0x17
 1692 0b75 5901     		.2byte	0x159
 1693 0b77 230B0000 		.4byte	0xb23
 1694 0b7b 2C       		.byte	0x2c
 1695 0b7c 0B       		.uleb128 0xb
 1696 0b7d 10050000 		.4byte	.LASF154
 1697 0b81 17       		.byte	0x17
 1698 0b82 5D01     		.2byte	0x15d
 1699 0b84 A70A0000 		.4byte	0xaa7
 1700 0b88 30       		.byte	0x30
 1701 0b89 0B       		.uleb128 0xb
 1702 0b8a 0C030000 		.4byte	.LASF155
 1703 0b8e 17       		.byte	0x17
 1704 0b8f 6301     		.2byte	0x163
 1705 0b91 230B0000 		.4byte	0xb23
 1706 0b95 40       		.byte	0x40
 1707 0b96 0B       		.uleb128 0xb
 1708 0b97 FF070000 		.4byte	.LASF156
 1709 0b9b 17       		.byte	0x17
 1710 0b9c 6901     		.2byte	0x169
ARM GAS  /tmp/cciEH2BQ.s 			page 31


 1711 0b9e 230B0000 		.4byte	0xb23
 1712 0ba2 44       		.byte	0x44
 1713 0ba3 00       		.byte	0
 1714 0ba4 1D       		.uleb128 0x1d
 1715 0ba5 35080000 		.4byte	.LASF157
 1716 0ba9 17       		.byte	0x17
 1717 0baa 7101     		.2byte	0x171
 1718 0bac 2E0B0000 		.4byte	0xb2e
 1719 0bb0 11       		.uleb128 0x11
 1720 0bb1 96030000 		.4byte	.LASF158
 1721 0bb5 17       		.byte	0x17
 1722 0bb6 7C01     		.2byte	0x17c
 1723 0bb8 A40B0000 		.4byte	0xba4
 1724 0bbc 1E       		.uleb128 0x1e
 1725 0bbd CC040000 		.4byte	.LASF159
 1726 0bc1 01       		.byte	0x1
 1727 0bc2 91       		.byte	0x91
 1728 0bc3 4C020000 		.4byte	0x24c
 1729 0bc7 00000000 		.4byte	.LFB291
 1730 0bcb 5A000000 		.4byte	.LFE291-.LFB291
 1731 0bcf 01       		.uleb128 0x1
 1732 0bd0 9C       		.byte	0x9c
 1733 0bd1 350D0000 		.4byte	0xd35
 1734 0bd5 1F       		.uleb128 0x1f
 1735 0bd6 6D7000   		.ascii	"mp\000"
 1736 0bd9 01       		.byte	0x1
 1737 0bda 91       		.byte	0x91
 1738 0bdb 350D0000 		.4byte	0xd35
 1739 0bdf 00000000 		.4byte	.LLST8
 1740 0be3 20       		.uleb128 0x20
 1741 0be4 ED030000 		.4byte	.LASF35
 1742 0be8 01       		.byte	0x1
 1743 0be9 91       		.byte	0x91
 1744 0bea 3B070000 		.4byte	0x73b
 1745 0bee 1E000000 		.4byte	.LLST9
 1746 0bf2 20       		.uleb128 0x20
 1747 0bf3 0B050000 		.4byte	.LASF32
 1748 0bf7 01       		.byte	0x1
 1749 0bf8 92       		.byte	0x92
 1750 0bf9 21010000 		.4byte	0x121
 1751 0bfd 3C000000 		.4byte	.LLST10
 1752 0c01 1F       		.uleb128 0x1f
 1753 0c02 706600   		.ascii	"pf\000"
 1754 0c05 01       		.byte	0x1
 1755 0c06 92       		.byte	0x92
 1756 0c07 80070000 		.4byte	0x780
 1757 0c0b 5A000000 		.4byte	.LLST11
 1758 0c0f 21       		.uleb128 0x21
 1759 0c10 61726700 		.ascii	"arg\000"
 1760 0c14 01       		.byte	0x1
 1761 0c15 92       		.byte	0x92
 1762 0c16 29030000 		.4byte	0x329
 1763 0c1a 02       		.uleb128 0x2
 1764 0c1b 91       		.byte	0x91
 1765 0c1c 00       		.sleb128 0
 1766 0c1d 22       		.uleb128 0x22
 1767 0c1e 747000   		.ascii	"tp\000"
ARM GAS  /tmp/cciEH2BQ.s 			page 32


 1768 0c21 01       		.byte	0x1
 1769 0c22 93       		.byte	0x93
 1770 0c23 4C020000 		.4byte	0x24c
 1771 0c27 78000000 		.4byte	.LLST12
 1772 0c2b 22       		.uleb128 0x22
 1773 0c2c 77737000 		.ascii	"wsp\000"
 1774 0c30 01       		.byte	0x1
 1775 0c31 94       		.byte	0x94
 1776 0c32 29030000 		.4byte	0x329
 1777 0c36 96000000 		.4byte	.LLST13
 1778 0c3a 23       		.uleb128 0x23
 1779 0c3b E7050000 		.4byte	.LASF176
 1780 0c3f 4B0D0000 		.4byte	0xd4b
 1781 0c43 24       		.uleb128 0x24
 1782 0c44 746400   		.ascii	"td\000"
 1783 0c47 01       		.byte	0x1
 1784 0c48 9D       		.byte	0x9d
 1785 0c49 DC070000 		.4byte	0x7dc
 1786 0c4d 02       		.uleb128 0x2
 1787 0c4e 91       		.byte	0x91
 1788 0c4f 50       		.sleb128 -48
 1789 0c50 25       		.uleb128 0x25
 1790 0c51 140F0000 		.4byte	0xf14
 1791 0c55 30000000 		.4byte	.LBB43
 1792 0c59 06000000 		.4byte	.LBE43-.LBB43
 1793 0c5d 01       		.byte	0x1
 1794 0c5e AC       		.byte	0xac
 1795 0c5f 8F0C0000 		.4byte	0xc8f
 1796 0c63 26       		.uleb128 0x26
 1797 0c64 260F0000 		.4byte	0xf26
 1798 0c68 30000000 		.4byte	.LBB44
 1799 0c6c 06000000 		.4byte	.LBE44-.LBB44
 1800 0c70 11       		.byte	0x11
 1801 0c71 6301     		.2byte	0x163
 1802 0c73 26       		.uleb128 0x26
 1803 0c74 2F0F0000 		.4byte	0xf2f
 1804 0c78 30000000 		.4byte	.LBB45
 1805 0c7c 06000000 		.4byte	.LBE45-.LBB45
 1806 0c80 0D       		.byte	0xd
 1807 0c81 6202     		.2byte	0x262
 1808 0c83 27       		.uleb128 0x27
 1809 0c84 3C0F0000 		.4byte	0xf3c
 1810 0c88 B4000000 		.4byte	.LLST14
 1811 0c8c 00       		.byte	0
 1812 0c8d 00       		.byte	0
 1813 0c8e 00       		.byte	0
 1814 0c8f 25       		.uleb128 0x25
 1815 0c90 E40E0000 		.4byte	0xee4
 1816 0c94 4C000000 		.4byte	.LBB47
 1817 0c98 06000000 		.4byte	.LBE47-.LBB47
 1818 0c9c 01       		.byte	0x1
 1819 0c9d B1       		.byte	0xb1
 1820 0c9e DD0C0000 		.4byte	0xcdd
 1821 0ca2 28       		.uleb128 0x28
 1822 0ca3 4C000000 		.4byte	.LBB48
 1823 0ca7 06000000 		.4byte	.LBE48-.LBB48
 1824 0cab 29       		.uleb128 0x29
ARM GAS  /tmp/cciEH2BQ.s 			page 33


 1825 0cac F10E0000 		.4byte	0xef1
 1826 0cb0 26       		.uleb128 0x26
 1827 0cb1 1D0F0000 		.4byte	0xf1d
 1828 0cb5 4C000000 		.4byte	.LBB49
 1829 0cb9 06000000 		.4byte	.LBE49-.LBB49
 1830 0cbd 11       		.byte	0x11
 1831 0cbe 7A01     		.2byte	0x17a
 1832 0cc0 26       		.uleb128 0x26
 1833 0cc1 2F0F0000 		.4byte	0xf2f
 1834 0cc5 4C000000 		.4byte	.LBB50
 1835 0cc9 06000000 		.4byte	.LBE50-.LBB50
 1836 0ccd 0D       		.byte	0xd
 1837 0cce 7502     		.2byte	0x275
 1838 0cd0 27       		.uleb128 0x27
 1839 0cd1 3C0F0000 		.4byte	0xf3c
 1840 0cd5 C9000000 		.4byte	.LLST15
 1841 0cd9 00       		.byte	0
 1842 0cda 00       		.byte	0
 1843 0cdb 00       		.byte	0
 1844 0cdc 00       		.byte	0
 1845 0cdd 2A       		.uleb128 0x2a
 1846 0cde 12000000 		.4byte	.LVL10
 1847 0ce2 490F0000 		.4byte	0xf49
 1848 0ce6 F10C0000 		.4byte	0xcf1
 1849 0cea 2B       		.uleb128 0x2b
 1850 0ceb 01       		.uleb128 0x1
 1851 0cec 50       		.byte	0x50
 1852 0ced 02       		.uleb128 0x2
 1853 0cee 75       		.byte	0x75
 1854 0cef 00       		.sleb128 0
 1855 0cf0 00       		.byte	0
 1856 0cf1 2A       		.uleb128 0x2a
 1857 0cf2 30000000 		.4byte	.LVL11
 1858 0cf6 540F0000 		.4byte	0xf54
 1859 0cfa 0B0D0000 		.4byte	0xd0b
 1860 0cfe 2B       		.uleb128 0x2b
 1861 0cff 01       		.uleb128 0x1
 1862 0d00 50       		.byte	0x50
 1863 0d01 02       		.uleb128 0x2
 1864 0d02 74       		.byte	0x74
 1865 0d03 00       		.sleb128 0
 1866 0d04 2B       		.uleb128 0x2b
 1867 0d05 01       		.uleb128 0x1
 1868 0d06 52       		.byte	0x52
 1869 0d07 02       		.uleb128 0x2
 1870 0d08 08       		.byte	0x8
 1871 0d09 55       		.byte	0x55
 1872 0d0a 00       		.byte	0
 1873 0d0b 2A       		.uleb128 0x2a
 1874 0d0c 3C000000 		.4byte	.LVL13
 1875 0d10 5F0F0000 		.4byte	0xf5f
 1876 0d14 1F0D0000 		.4byte	0xd1f
 1877 0d18 2B       		.uleb128 0x2b
 1878 0d19 01       		.uleb128 0x1
 1879 0d1a 50       		.byte	0x50
 1880 0d1b 02       		.uleb128 0x2
 1881 0d1c 7D       		.byte	0x7d
ARM GAS  /tmp/cciEH2BQ.s 			page 34


 1882 0d1d 00       		.sleb128 0
 1883 0d1e 00       		.byte	0
 1884 0d1f 2C       		.uleb128 0x2c
 1885 0d20 4C000000 		.4byte	.LVL15
 1886 0d24 6A0F0000 		.4byte	0xf6a
 1887 0d28 2B       		.uleb128 0x2b
 1888 0d29 01       		.uleb128 0x1
 1889 0d2a 50       		.byte	0x50
 1890 0d2b 02       		.uleb128 0x2
 1891 0d2c 74       		.byte	0x74
 1892 0d2d 00       		.sleb128 0
 1893 0d2e 2B       		.uleb128 0x2b
 1894 0d2f 01       		.uleb128 0x1
 1895 0d30 51       		.byte	0x51
 1896 0d31 01       		.uleb128 0x1
 1897 0d32 30       		.byte	0x30
 1898 0d33 00       		.byte	0
 1899 0d34 00       		.byte	0
 1900 0d35 0C       		.uleb128 0xc
 1901 0d36 04       		.byte	0x4
 1902 0d37 A70A0000 		.4byte	0xaa7
 1903 0d3b 13       		.uleb128 0x13
 1904 0d3c 4D070000 		.4byte	0x74d
 1905 0d40 4B0D0000 		.4byte	0xd4b
 1906 0d44 14       		.uleb128 0x14
 1907 0d45 67040000 		.4byte	0x467
 1908 0d49 19       		.byte	0x19
 1909 0d4a 00       		.byte	0
 1910 0d4b 05       		.uleb128 0x5
 1911 0d4c 3B0D0000 		.4byte	0xd3b
 1912 0d50 1E       		.uleb128 0x1e
 1913 0d51 A4020000 		.4byte	.LASF160
 1914 0d55 01       		.byte	0x1
 1915 0d56 52       		.byte	0x52
 1916 0d57 4C020000 		.4byte	0x24c
 1917 0d5b 00000000 		.4byte	.LFB290
 1918 0d5f 52000000 		.4byte	.LFE290-.LFB290
 1919 0d63 01       		.uleb128 0x1
 1920 0d64 9C       		.byte	0x9c
 1921 0d65 E40E0000 		.4byte	0xee4
 1922 0d69 20       		.uleb128 0x20
 1923 0d6a 12010000 		.4byte	.LASF161
 1924 0d6e 01       		.byte	0x1
 1925 0d6f 52       		.byte	0x52
 1926 0d70 490A0000 		.4byte	0xa49
 1927 0d74 DD000000 		.4byte	.LLST0
 1928 0d78 20       		.uleb128 0x20
 1929 0d79 56010000 		.4byte	.LASF106
 1930 0d7d 01       		.byte	0x1
 1931 0d7e 52       		.byte	0x52
 1932 0d7f 2C000000 		.4byte	0x2c
 1933 0d83 FE000000 		.4byte	.LLST1
 1934 0d87 20       		.uleb128 0x20
 1935 0d88 ED030000 		.4byte	.LASF35
 1936 0d8c 01       		.byte	0x1
 1937 0d8d 53       		.byte	0x53
 1938 0d8e 3B070000 		.4byte	0x73b
ARM GAS  /tmp/cciEH2BQ.s 			page 35


 1939 0d92 1C010000 		.4byte	.LLST2
 1940 0d96 20       		.uleb128 0x20
 1941 0d97 0B050000 		.4byte	.LASF32
 1942 0d9b 01       		.byte	0x1
 1943 0d9c 53       		.byte	0x53
 1944 0d9d 21010000 		.4byte	0x121
 1945 0da1 3A010000 		.4byte	.LLST3
 1946 0da5 21       		.uleb128 0x21
 1947 0da6 706600   		.ascii	"pf\000"
 1948 0da9 01       		.byte	0x1
 1949 0daa 54       		.byte	0x54
 1950 0dab 80070000 		.4byte	0x780
 1951 0daf 02       		.uleb128 0x2
 1952 0db0 91       		.byte	0x91
 1953 0db1 00       		.sleb128 0
 1954 0db2 21       		.uleb128 0x21
 1955 0db3 61726700 		.ascii	"arg\000"
 1956 0db7 01       		.byte	0x1
 1957 0db8 54       		.byte	0x54
 1958 0db9 29030000 		.4byte	0x329
 1959 0dbd 02       		.uleb128 0x2
 1960 0dbe 91       		.byte	0x91
 1961 0dbf 04       		.sleb128 4
 1962 0dc0 22       		.uleb128 0x22
 1963 0dc1 747000   		.ascii	"tp\000"
 1964 0dc4 01       		.byte	0x1
 1965 0dc5 55       		.byte	0x55
 1966 0dc6 4C020000 		.4byte	0x24c
 1967 0dca 58010000 		.4byte	.LLST4
 1968 0dce 22       		.uleb128 0x22
 1969 0dcf 77737000 		.ascii	"wsp\000"
 1970 0dd3 01       		.byte	0x1
 1971 0dd4 56       		.byte	0x56
 1972 0dd5 29030000 		.4byte	0x329
 1973 0dd9 76010000 		.4byte	.LLST5
 1974 0ddd 24       		.uleb128 0x24
 1975 0dde 746400   		.ascii	"td\000"
 1976 0de1 01       		.byte	0x1
 1977 0de2 5D       		.byte	0x5d
 1978 0de3 DC070000 		.4byte	0x7dc
 1979 0de7 02       		.uleb128 0x2
 1980 0de8 91       		.byte	0x91
 1981 0de9 50       		.sleb128 -48
 1982 0dea 25       		.uleb128 0x25
 1983 0deb 140F0000 		.4byte	0xf14
 1984 0def 2C000000 		.4byte	.LBB34
 1985 0df3 06000000 		.4byte	.LBE34-.LBB34
 1986 0df7 01       		.byte	0x1
 1987 0df8 6C       		.byte	0x6c
 1988 0df9 290E0000 		.4byte	0xe29
 1989 0dfd 26       		.uleb128 0x26
 1990 0dfe 260F0000 		.4byte	0xf26
 1991 0e02 2C000000 		.4byte	.LBB35
 1992 0e06 06000000 		.4byte	.LBE35-.LBB35
 1993 0e0a 11       		.byte	0x11
 1994 0e0b 6301     		.2byte	0x163
 1995 0e0d 26       		.uleb128 0x26
ARM GAS  /tmp/cciEH2BQ.s 			page 36


 1996 0e0e 2F0F0000 		.4byte	0xf2f
 1997 0e12 2C000000 		.4byte	.LBB36
 1998 0e16 06000000 		.4byte	.LBE36-.LBB36
 1999 0e1a 0D       		.byte	0xd
 2000 0e1b 6202     		.2byte	0x262
 2001 0e1d 27       		.uleb128 0x27
 2002 0e1e 3C0F0000 		.4byte	0xf3c
 2003 0e22 94010000 		.4byte	.LLST6
 2004 0e26 00       		.byte	0
 2005 0e27 00       		.byte	0
 2006 0e28 00       		.byte	0
 2007 0e29 25       		.uleb128 0x25
 2008 0e2a E40E0000 		.4byte	0xee4
 2009 0e2e 46000000 		.4byte	.LBB38
 2010 0e32 06000000 		.4byte	.LBE38-.LBB38
 2011 0e36 01       		.byte	0x1
 2012 0e37 70       		.byte	0x70
 2013 0e38 770E0000 		.4byte	0xe77
 2014 0e3c 28       		.uleb128 0x28
 2015 0e3d 46000000 		.4byte	.LBB39
 2016 0e41 06000000 		.4byte	.LBE39-.LBB39
 2017 0e45 29       		.uleb128 0x29
 2018 0e46 F10E0000 		.4byte	0xef1
 2019 0e4a 26       		.uleb128 0x26
 2020 0e4b 1D0F0000 		.4byte	0xf1d
 2021 0e4f 46000000 		.4byte	.LBB40
 2022 0e53 06000000 		.4byte	.LBE40-.LBB40
 2023 0e57 11       		.byte	0x11
 2024 0e58 7A01     		.2byte	0x17a
 2025 0e5a 26       		.uleb128 0x26
 2026 0e5b 2F0F0000 		.4byte	0xf2f
 2027 0e5f 46000000 		.4byte	.LBB41
 2028 0e63 06000000 		.4byte	.LBE41-.LBB41
 2029 0e67 0D       		.byte	0xd
 2030 0e68 7502     		.2byte	0x275
 2031 0e6a 27       		.uleb128 0x27
 2032 0e6b 3C0F0000 		.4byte	0xf3c
 2033 0e6f A9010000 		.4byte	.LLST7
 2034 0e73 00       		.byte	0
 2035 0e74 00       		.byte	0
 2036 0e75 00       		.byte	0
 2037 0e76 00       		.byte	0
 2038 0e77 2A       		.uleb128 0x2a
 2039 0e78 10000000 		.4byte	.LVL2
 2040 0e7c 760F0000 		.4byte	0xf76
 2041 0e80 970E0000 		.4byte	0xe97
 2042 0e84 2B       		.uleb128 0x2b
 2043 0e85 01       		.uleb128 0x1
 2044 0e86 50       		.byte	0x50
 2045 0e87 03       		.uleb128 0x3
 2046 0e88 F3       		.byte	0xf3
 2047 0e89 01       		.uleb128 0x1
 2048 0e8a 50       		.byte	0x50
 2049 0e8b 2B       		.uleb128 0x2b
 2050 0e8c 01       		.uleb128 0x1
 2051 0e8d 51       		.byte	0x51
 2052 0e8e 02       		.uleb128 0x2
ARM GAS  /tmp/cciEH2BQ.s 			page 37


 2053 0e8f 76       		.byte	0x76
 2054 0e90 00       		.sleb128 0
 2055 0e91 2B       		.uleb128 0x2b
 2056 0e92 01       		.uleb128 0x1
 2057 0e93 52       		.byte	0x52
 2058 0e94 01       		.uleb128 0x1
 2059 0e95 38       		.byte	0x38
 2060 0e96 00       		.byte	0
 2061 0e97 2A       		.uleb128 0x2a
 2062 0e98 2C000000 		.4byte	.LVL3
 2063 0e9c 540F0000 		.4byte	0xf54
 2064 0ea0 BA0E0000 		.4byte	0xeba
 2065 0ea4 2B       		.uleb128 0x2b
 2066 0ea5 01       		.uleb128 0x1
 2067 0ea6 50       		.byte	0x50
 2068 0ea7 02       		.uleb128 0x2
 2069 0ea8 74       		.byte	0x74
 2070 0ea9 00       		.sleb128 0
 2071 0eaa 2B       		.uleb128 0x2b
 2072 0eab 01       		.uleb128 0x1
 2073 0eac 51       		.byte	0x51
 2074 0ead 05       		.uleb128 0x5
 2075 0eae 74       		.byte	0x74
 2076 0eaf 00       		.sleb128 0
 2077 0eb0 76       		.byte	0x76
 2078 0eb1 00       		.sleb128 0
 2079 0eb2 22       		.byte	0x22
 2080 0eb3 2B       		.uleb128 0x2b
 2081 0eb4 01       		.uleb128 0x1
 2082 0eb5 52       		.byte	0x52
 2083 0eb6 02       		.uleb128 0x2
 2084 0eb7 08       		.byte	0x8
 2085 0eb8 55       		.byte	0x55
 2086 0eb9 00       		.byte	0
 2087 0eba 2A       		.uleb128 0x2a
 2088 0ebb 38000000 		.4byte	.LVL5
 2089 0ebf 5F0F0000 		.4byte	0xf5f
 2090 0ec3 CE0E0000 		.4byte	0xece
 2091 0ec7 2B       		.uleb128 0x2b
 2092 0ec8 01       		.uleb128 0x1
 2093 0ec9 50       		.byte	0x50
 2094 0eca 02       		.uleb128 0x2
 2095 0ecb 7D       		.byte	0x7d
 2096 0ecc 00       		.sleb128 0
 2097 0ecd 00       		.byte	0
 2098 0ece 2C       		.uleb128 0x2c
 2099 0ecf 46000000 		.4byte	.LVL7
 2100 0ed3 6A0F0000 		.4byte	0xf6a
 2101 0ed7 2B       		.uleb128 0x2b
 2102 0ed8 01       		.uleb128 0x1
 2103 0ed9 50       		.byte	0x50
 2104 0eda 02       		.uleb128 0x2
 2105 0edb 74       		.byte	0x74
 2106 0edc 00       		.sleb128 0
 2107 0edd 2B       		.uleb128 0x2b
 2108 0ede 01       		.uleb128 0x1
 2109 0edf 51       		.byte	0x51
ARM GAS  /tmp/cciEH2BQ.s 			page 38


 2110 0ee0 01       		.uleb128 0x1
 2111 0ee1 30       		.byte	0x30
 2112 0ee2 00       		.byte	0
 2113 0ee3 00       		.byte	0
 2114 0ee4 2D       		.uleb128 0x2d
 2115 0ee5 29080000 		.4byte	.LASF165
 2116 0ee9 11       		.byte	0x11
 2117 0eea 6D01     		.2byte	0x16d
 2118 0eec 03       		.byte	0x3
 2119 0eed FF0E0000 		.4byte	0xeff
 2120 0ef1 2E       		.uleb128 0x2e
 2121 0ef2 E7050000 		.4byte	.LASF176
 2122 0ef6 0F0F0000 		.4byte	0xf0f
 2123 0efa 29080000 		.4byte	.LASF165
 2124 0efe 00       		.byte	0
 2125 0eff 13       		.uleb128 0x13
 2126 0f00 4D070000 		.4byte	0x74d
 2127 0f04 0F0F0000 		.4byte	0xf0f
 2128 0f08 14       		.uleb128 0x14
 2129 0f09 67040000 		.4byte	0x467
 2130 0f0d 0B       		.byte	0xb
 2131 0f0e 00       		.byte	0
 2132 0f0f 05       		.uleb128 0x5
 2133 0f10 FF0E0000 		.4byte	0xeff
 2134 0f14 2F       		.uleb128 0x2f
 2135 0f15 1C060000 		.4byte	.LASF162
 2136 0f19 11       		.byte	0x11
 2137 0f1a 6101     		.2byte	0x161
 2138 0f1c 03       		.byte	0x3
 2139 0f1d 2F       		.uleb128 0x2f
 2140 0f1e 80020000 		.4byte	.LASF163
 2141 0f22 0D       		.byte	0xd
 2142 0f23 7202     		.2byte	0x272
 2143 0f25 03       		.byte	0x3
 2144 0f26 2F       		.uleb128 0x2f
 2145 0f27 93000000 		.4byte	.LASF164
 2146 0f2b 0D       		.byte	0xd
 2147 0f2c 5A02     		.2byte	0x25a
 2148 0f2e 03       		.byte	0x3
 2149 0f2f 2D       		.uleb128 0x2d
 2150 0f30 21070000 		.4byte	.LASF166
 2151 0f34 02       		.byte	0x2
 2152 0f35 EB01     		.2byte	0x1eb
 2153 0f37 03       		.byte	0x3
 2154 0f38 490F0000 		.4byte	0xf49
 2155 0f3c 30       		.uleb128 0x30
 2156 0f3d 71020000 		.4byte	.LASF177
 2157 0f41 02       		.byte	0x2
 2158 0f42 EB01     		.2byte	0x1eb
 2159 0f44 DF000000 		.4byte	0xdf
 2160 0f48 00       		.byte	0
 2161 0f49 31       		.uleb128 0x31
 2162 0f4a ED070000 		.4byte	.LASF167
 2163 0f4e ED070000 		.4byte	.LASF167
 2164 0f52 16       		.byte	0x16
 2165 0f53 9A       		.byte	0x9a
 2166 0f54 31       		.uleb128 0x31
ARM GAS  /tmp/cciEH2BQ.s 			page 39


 2167 0f55 26060000 		.4byte	.LASF168
 2168 0f59 26060000 		.4byte	.LASF168
 2169 0f5d 12       		.byte	0x12
 2170 0f5e E1       		.byte	0xe1
 2171 0f5f 31       		.uleb128 0x31
 2172 0f60 C5060000 		.4byte	.LASF169
 2173 0f64 C5060000 		.4byte	.LASF169
 2174 0f68 12       		.byte	0x12
 2175 0f69 E3       		.byte	0xe3
 2176 0f6a 32       		.uleb128 0x32
 2177 0f6b 8C070000 		.4byte	.LASF170
 2178 0f6f 8C070000 		.4byte	.LASF170
 2179 0f73 08       		.byte	0x8
 2180 0f74 D501     		.2byte	0x1d5
 2181 0f76 31       		.uleb128 0x31
 2182 0f77 40070000 		.4byte	.LASF171
 2183 0f7b 40070000 		.4byte	.LASF171
 2184 0f7f 15       		.byte	0x15
 2185 0f80 7F       		.byte	0x7f
 2186 0f81 00       		.byte	0
 2187              		.section	.debug_abbrev,"",%progbits
 2188              	.Ldebug_abbrev0:
 2189 0000 01       		.uleb128 0x1
 2190 0001 11       		.uleb128 0x11
 2191 0002 01       		.byte	0x1
 2192 0003 25       		.uleb128 0x25
 2193 0004 0E       		.uleb128 0xe
 2194 0005 13       		.uleb128 0x13
 2195 0006 0B       		.uleb128 0xb
 2196 0007 03       		.uleb128 0x3
 2197 0008 0E       		.uleb128 0xe
 2198 0009 1B       		.uleb128 0x1b
 2199 000a 0E       		.uleb128 0xe
 2200 000b 55       		.uleb128 0x55
 2201 000c 17       		.uleb128 0x17
 2202 000d 11       		.uleb128 0x11
 2203 000e 01       		.uleb128 0x1
 2204 000f 10       		.uleb128 0x10
 2205 0010 17       		.uleb128 0x17
 2206 0011 00       		.byte	0
 2207 0012 00       		.byte	0
 2208 0013 02       		.uleb128 0x2
 2209 0014 24       		.uleb128 0x24
 2210 0015 00       		.byte	0
 2211 0016 0B       		.uleb128 0xb
 2212 0017 0B       		.uleb128 0xb
 2213 0018 3E       		.uleb128 0x3e
 2214 0019 0B       		.uleb128 0xb
 2215 001a 03       		.uleb128 0x3
 2216 001b 08       		.uleb128 0x8
 2217 001c 00       		.byte	0
 2218 001d 00       		.byte	0
 2219 001e 03       		.uleb128 0x3
 2220 001f 16       		.uleb128 0x16
 2221 0020 00       		.byte	0
 2222 0021 03       		.uleb128 0x3
 2223 0022 0E       		.uleb128 0xe
ARM GAS  /tmp/cciEH2BQ.s 			page 40


 2224 0023 3A       		.uleb128 0x3a
 2225 0024 0B       		.uleb128 0xb
 2226 0025 3B       		.uleb128 0x3b
 2227 0026 0B       		.uleb128 0xb
 2228 0027 49       		.uleb128 0x49
 2229 0028 13       		.uleb128 0x13
 2230 0029 00       		.byte	0
 2231 002a 00       		.byte	0
 2232 002b 04       		.uleb128 0x4
 2233 002c 24       		.uleb128 0x24
 2234 002d 00       		.byte	0
 2235 002e 0B       		.uleb128 0xb
 2236 002f 0B       		.uleb128 0xb
 2237 0030 3E       		.uleb128 0x3e
 2238 0031 0B       		.uleb128 0xb
 2239 0032 03       		.uleb128 0x3
 2240 0033 0E       		.uleb128 0xe
 2241 0034 00       		.byte	0
 2242 0035 00       		.byte	0
 2243 0036 05       		.uleb128 0x5
 2244 0037 26       		.uleb128 0x26
 2245 0038 00       		.byte	0
 2246 0039 49       		.uleb128 0x49
 2247 003a 13       		.uleb128 0x13
 2248 003b 00       		.byte	0
 2249 003c 00       		.byte	0
 2250 003d 06       		.uleb128 0x6
 2251 003e 35       		.uleb128 0x35
 2252 003f 00       		.byte	0
 2253 0040 49       		.uleb128 0x49
 2254 0041 13       		.uleb128 0x13
 2255 0042 00       		.byte	0
 2256 0043 00       		.byte	0
 2257 0044 07       		.uleb128 0x7
 2258 0045 13       		.uleb128 0x13
 2259 0046 01       		.byte	0x1
 2260 0047 03       		.uleb128 0x3
 2261 0048 0E       		.uleb128 0xe
 2262 0049 0B       		.uleb128 0xb
 2263 004a 0B       		.uleb128 0xb
 2264 004b 3A       		.uleb128 0x3a
 2265 004c 0B       		.uleb128 0xb
 2266 004d 3B       		.uleb128 0x3b
 2267 004e 0B       		.uleb128 0xb
 2268 004f 01       		.uleb128 0x1
 2269 0050 13       		.uleb128 0x13
 2270 0051 00       		.byte	0
 2271 0052 00       		.byte	0
 2272 0053 08       		.uleb128 0x8
 2273 0054 0D       		.uleb128 0xd
 2274 0055 00       		.byte	0
 2275 0056 03       		.uleb128 0x3
 2276 0057 0E       		.uleb128 0xe
 2277 0058 3A       		.uleb128 0x3a
 2278 0059 0B       		.uleb128 0xb
 2279 005a 3B       		.uleb128 0x3b
 2280 005b 0B       		.uleb128 0xb
ARM GAS  /tmp/cciEH2BQ.s 			page 41


 2281 005c 49       		.uleb128 0x49
 2282 005d 13       		.uleb128 0x13
 2283 005e 38       		.uleb128 0x38
 2284 005f 0B       		.uleb128 0xb
 2285 0060 00       		.byte	0
 2286 0061 00       		.byte	0
 2287 0062 09       		.uleb128 0x9
 2288 0063 0D       		.uleb128 0xd
 2289 0064 00       		.byte	0
 2290 0065 03       		.uleb128 0x3
 2291 0066 08       		.uleb128 0x8
 2292 0067 3A       		.uleb128 0x3a
 2293 0068 0B       		.uleb128 0xb
 2294 0069 3B       		.uleb128 0x3b
 2295 006a 0B       		.uleb128 0xb
 2296 006b 49       		.uleb128 0x49
 2297 006c 13       		.uleb128 0x13
 2298 006d 38       		.uleb128 0x38
 2299 006e 0B       		.uleb128 0xb
 2300 006f 00       		.byte	0
 2301 0070 00       		.byte	0
 2302 0071 0A       		.uleb128 0xa
 2303 0072 0D       		.uleb128 0xd
 2304 0073 00       		.byte	0
 2305 0074 03       		.uleb128 0x3
 2306 0075 08       		.uleb128 0x8
 2307 0076 3A       		.uleb128 0x3a
 2308 0077 0B       		.uleb128 0xb
 2309 0078 3B       		.uleb128 0x3b
 2310 0079 05       		.uleb128 0x5
 2311 007a 49       		.uleb128 0x49
 2312 007b 13       		.uleb128 0x13
 2313 007c 38       		.uleb128 0x38
 2314 007d 0B       		.uleb128 0xb
 2315 007e 00       		.byte	0
 2316 007f 00       		.byte	0
 2317 0080 0B       		.uleb128 0xb
 2318 0081 0D       		.uleb128 0xd
 2319 0082 00       		.byte	0
 2320 0083 03       		.uleb128 0x3
 2321 0084 0E       		.uleb128 0xe
 2322 0085 3A       		.uleb128 0x3a
 2323 0086 0B       		.uleb128 0xb
 2324 0087 3B       		.uleb128 0x3b
 2325 0088 05       		.uleb128 0x5
 2326 0089 49       		.uleb128 0x49
 2327 008a 13       		.uleb128 0x13
 2328 008b 38       		.uleb128 0x38
 2329 008c 0B       		.uleb128 0xb
 2330 008d 00       		.byte	0
 2331 008e 00       		.byte	0
 2332 008f 0C       		.uleb128 0xc
 2333 0090 0F       		.uleb128 0xf
 2334 0091 00       		.byte	0
 2335 0092 0B       		.uleb128 0xb
 2336 0093 0B       		.uleb128 0xb
 2337 0094 49       		.uleb128 0x49
ARM GAS  /tmp/cciEH2BQ.s 			page 42


 2338 0095 13       		.uleb128 0x13
 2339 0096 00       		.byte	0
 2340 0097 00       		.byte	0
 2341 0098 0D       		.uleb128 0xd
 2342 0099 13       		.uleb128 0x13
 2343 009a 01       		.byte	0x1
 2344 009b 03       		.uleb128 0x3
 2345 009c 0E       		.uleb128 0xe
 2346 009d 0B       		.uleb128 0xb
 2347 009e 0B       		.uleb128 0xb
 2348 009f 3A       		.uleb128 0x3a
 2349 00a0 0B       		.uleb128 0xb
 2350 00a1 3B       		.uleb128 0x3b
 2351 00a2 05       		.uleb128 0x5
 2352 00a3 01       		.uleb128 0x1
 2353 00a4 13       		.uleb128 0x13
 2354 00a5 00       		.byte	0
 2355 00a6 00       		.byte	0
 2356 00a7 0E       		.uleb128 0xe
 2357 00a8 15       		.uleb128 0x15
 2358 00a9 01       		.byte	0x1
 2359 00aa 27       		.uleb128 0x27
 2360 00ab 19       		.uleb128 0x19
 2361 00ac 01       		.uleb128 0x1
 2362 00ad 13       		.uleb128 0x13
 2363 00ae 00       		.byte	0
 2364 00af 00       		.byte	0
 2365 00b0 0F       		.uleb128 0xf
 2366 00b1 05       		.uleb128 0x5
 2367 00b2 00       		.byte	0
 2368 00b3 49       		.uleb128 0x49
 2369 00b4 13       		.uleb128 0x13
 2370 00b5 00       		.byte	0
 2371 00b6 00       		.byte	0
 2372 00b7 10       		.uleb128 0x10
 2373 00b8 0F       		.uleb128 0xf
 2374 00b9 00       		.byte	0
 2375 00ba 0B       		.uleb128 0xb
 2376 00bb 0B       		.uleb128 0xb
 2377 00bc 00       		.byte	0
 2378 00bd 00       		.byte	0
 2379 00be 11       		.uleb128 0x11
 2380 00bf 34       		.uleb128 0x34
 2381 00c0 00       		.byte	0
 2382 00c1 03       		.uleb128 0x3
 2383 00c2 0E       		.uleb128 0xe
 2384 00c3 3A       		.uleb128 0x3a
 2385 00c4 0B       		.uleb128 0xb
 2386 00c5 3B       		.uleb128 0x3b
 2387 00c6 05       		.uleb128 0x5
 2388 00c7 49       		.uleb128 0x49
 2389 00c8 13       		.uleb128 0x13
 2390 00c9 3F       		.uleb128 0x3f
 2391 00ca 19       		.uleb128 0x19
 2392 00cb 3C       		.uleb128 0x3c
 2393 00cc 19       		.uleb128 0x19
 2394 00cd 00       		.byte	0
ARM GAS  /tmp/cciEH2BQ.s 			page 43


 2395 00ce 00       		.byte	0
 2396 00cf 12       		.uleb128 0x12
 2397 00d0 34       		.uleb128 0x34
 2398 00d1 00       		.byte	0
 2399 00d2 03       		.uleb128 0x3
 2400 00d3 0E       		.uleb128 0xe
 2401 00d4 3A       		.uleb128 0x3a
 2402 00d5 0B       		.uleb128 0xb
 2403 00d6 3B       		.uleb128 0x3b
 2404 00d7 0B       		.uleb128 0xb
 2405 00d8 49       		.uleb128 0x49
 2406 00d9 13       		.uleb128 0x13
 2407 00da 3F       		.uleb128 0x3f
 2408 00db 19       		.uleb128 0x19
 2409 00dc 3C       		.uleb128 0x3c
 2410 00dd 19       		.uleb128 0x19
 2411 00de 00       		.byte	0
 2412 00df 00       		.byte	0
 2413 00e0 13       		.uleb128 0x13
 2414 00e1 01       		.uleb128 0x1
 2415 00e2 01       		.byte	0x1
 2416 00e3 49       		.uleb128 0x49
 2417 00e4 13       		.uleb128 0x13
 2418 00e5 01       		.uleb128 0x1
 2419 00e6 13       		.uleb128 0x13
 2420 00e7 00       		.byte	0
 2421 00e8 00       		.byte	0
 2422 00e9 14       		.uleb128 0x14
 2423 00ea 21       		.uleb128 0x21
 2424 00eb 00       		.byte	0
 2425 00ec 49       		.uleb128 0x49
 2426 00ed 13       		.uleb128 0x13
 2427 00ee 2F       		.uleb128 0x2f
 2428 00ef 0B       		.uleb128 0xb
 2429 00f0 00       		.byte	0
 2430 00f1 00       		.byte	0
 2431 00f2 15       		.uleb128 0x15
 2432 00f3 13       		.uleb128 0x13
 2433 00f4 01       		.byte	0x1
 2434 00f5 0B       		.uleb128 0xb
 2435 00f6 0B       		.uleb128 0xb
 2436 00f7 3A       		.uleb128 0x3a
 2437 00f8 0B       		.uleb128 0xb
 2438 00f9 3B       		.uleb128 0x3b
 2439 00fa 0B       		.uleb128 0xb
 2440 00fb 01       		.uleb128 0x1
 2441 00fc 13       		.uleb128 0x13
 2442 00fd 00       		.byte	0
 2443 00fe 00       		.byte	0
 2444 00ff 16       		.uleb128 0x16
 2445 0100 17       		.uleb128 0x17
 2446 0101 01       		.byte	0x1
 2447 0102 0B       		.uleb128 0xb
 2448 0103 0B       		.uleb128 0xb
 2449 0104 3A       		.uleb128 0x3a
 2450 0105 0B       		.uleb128 0xb
 2451 0106 3B       		.uleb128 0x3b
ARM GAS  /tmp/cciEH2BQ.s 			page 44


 2452 0107 0B       		.uleb128 0xb
 2453 0108 01       		.uleb128 0x1
 2454 0109 13       		.uleb128 0x13
 2455 010a 00       		.byte	0
 2456 010b 00       		.byte	0
 2457 010c 17       		.uleb128 0x17
 2458 010d 0D       		.uleb128 0xd
 2459 010e 00       		.byte	0
 2460 010f 03       		.uleb128 0x3
 2461 0110 0E       		.uleb128 0xe
 2462 0111 3A       		.uleb128 0x3a
 2463 0112 0B       		.uleb128 0xb
 2464 0113 3B       		.uleb128 0x3b
 2465 0114 0B       		.uleb128 0xb
 2466 0115 49       		.uleb128 0x49
 2467 0116 13       		.uleb128 0x13
 2468 0117 00       		.byte	0
 2469 0118 00       		.byte	0
 2470 0119 18       		.uleb128 0x18
 2471 011a 0D       		.uleb128 0xd
 2472 011b 00       		.byte	0
 2473 011c 03       		.uleb128 0x3
 2474 011d 0E       		.uleb128 0xe
 2475 011e 3A       		.uleb128 0x3a
 2476 011f 0B       		.uleb128 0xb
 2477 0120 3B       		.uleb128 0x3b
 2478 0121 05       		.uleb128 0x5
 2479 0122 49       		.uleb128 0x49
 2480 0123 13       		.uleb128 0x13
 2481 0124 00       		.byte	0
 2482 0125 00       		.byte	0
 2483 0126 19       		.uleb128 0x19
 2484 0127 34       		.uleb128 0x34
 2485 0128 00       		.byte	0
 2486 0129 03       		.uleb128 0x3
 2487 012a 08       		.uleb128 0x8
 2488 012b 3A       		.uleb128 0x3a
 2489 012c 0B       		.uleb128 0xb
 2490 012d 3B       		.uleb128 0x3b
 2491 012e 05       		.uleb128 0x5
 2492 012f 49       		.uleb128 0x49
 2493 0130 13       		.uleb128 0x13
 2494 0131 3F       		.uleb128 0x3f
 2495 0132 19       		.uleb128 0x19
 2496 0133 3C       		.uleb128 0x3c
 2497 0134 19       		.uleb128 0x19
 2498 0135 00       		.byte	0
 2499 0136 00       		.byte	0
 2500 0137 1A       		.uleb128 0x1a
 2501 0138 21       		.uleb128 0x21
 2502 0139 00       		.byte	0
 2503 013a 00       		.byte	0
 2504 013b 00       		.byte	0
 2505 013c 1B       		.uleb128 0x1b
 2506 013d 15       		.uleb128 0x15
 2507 013e 01       		.byte	0x1
 2508 013f 27       		.uleb128 0x27
ARM GAS  /tmp/cciEH2BQ.s 			page 45


 2509 0140 19       		.uleb128 0x19
 2510 0141 49       		.uleb128 0x49
 2511 0142 13       		.uleb128 0x13
 2512 0143 01       		.uleb128 0x1
 2513 0144 13       		.uleb128 0x13
 2514 0145 00       		.byte	0
 2515 0146 00       		.byte	0
 2516 0147 1C       		.uleb128 0x1c
 2517 0148 17       		.uleb128 0x17
 2518 0149 01       		.byte	0x1
 2519 014a 03       		.uleb128 0x3
 2520 014b 0E       		.uleb128 0xe
 2521 014c 0B       		.uleb128 0xb
 2522 014d 0B       		.uleb128 0xb
 2523 014e 3A       		.uleb128 0x3a
 2524 014f 0B       		.uleb128 0xb
 2525 0150 3B       		.uleb128 0x3b
 2526 0151 0B       		.uleb128 0xb
 2527 0152 01       		.uleb128 0x1
 2528 0153 13       		.uleb128 0x13
 2529 0154 00       		.byte	0
 2530 0155 00       		.byte	0
 2531 0156 1D       		.uleb128 0x1d
 2532 0157 16       		.uleb128 0x16
 2533 0158 00       		.byte	0
 2534 0159 03       		.uleb128 0x3
 2535 015a 0E       		.uleb128 0xe
 2536 015b 3A       		.uleb128 0x3a
 2537 015c 0B       		.uleb128 0xb
 2538 015d 3B       		.uleb128 0x3b
 2539 015e 05       		.uleb128 0x5
 2540 015f 49       		.uleb128 0x49
 2541 0160 13       		.uleb128 0x13
 2542 0161 00       		.byte	0
 2543 0162 00       		.byte	0
 2544 0163 1E       		.uleb128 0x1e
 2545 0164 2E       		.uleb128 0x2e
 2546 0165 01       		.byte	0x1
 2547 0166 3F       		.uleb128 0x3f
 2548 0167 19       		.uleb128 0x19
 2549 0168 03       		.uleb128 0x3
 2550 0169 0E       		.uleb128 0xe
 2551 016a 3A       		.uleb128 0x3a
 2552 016b 0B       		.uleb128 0xb
 2553 016c 3B       		.uleb128 0x3b
 2554 016d 0B       		.uleb128 0xb
 2555 016e 27       		.uleb128 0x27
 2556 016f 19       		.uleb128 0x19
 2557 0170 49       		.uleb128 0x49
 2558 0171 13       		.uleb128 0x13
 2559 0172 11       		.uleb128 0x11
 2560 0173 01       		.uleb128 0x1
 2561 0174 12       		.uleb128 0x12
 2562 0175 06       		.uleb128 0x6
 2563 0176 40       		.uleb128 0x40
 2564 0177 18       		.uleb128 0x18
 2565 0178 9742     		.uleb128 0x2117
ARM GAS  /tmp/cciEH2BQ.s 			page 46


 2566 017a 19       		.uleb128 0x19
 2567 017b 01       		.uleb128 0x1
 2568 017c 13       		.uleb128 0x13
 2569 017d 00       		.byte	0
 2570 017e 00       		.byte	0
 2571 017f 1F       		.uleb128 0x1f
 2572 0180 05       		.uleb128 0x5
 2573 0181 00       		.byte	0
 2574 0182 03       		.uleb128 0x3
 2575 0183 08       		.uleb128 0x8
 2576 0184 3A       		.uleb128 0x3a
 2577 0185 0B       		.uleb128 0xb
 2578 0186 3B       		.uleb128 0x3b
 2579 0187 0B       		.uleb128 0xb
 2580 0188 49       		.uleb128 0x49
 2581 0189 13       		.uleb128 0x13
 2582 018a 02       		.uleb128 0x2
 2583 018b 17       		.uleb128 0x17
 2584 018c 00       		.byte	0
 2585 018d 00       		.byte	0
 2586 018e 20       		.uleb128 0x20
 2587 018f 05       		.uleb128 0x5
 2588 0190 00       		.byte	0
 2589 0191 03       		.uleb128 0x3
 2590 0192 0E       		.uleb128 0xe
 2591 0193 3A       		.uleb128 0x3a
 2592 0194 0B       		.uleb128 0xb
 2593 0195 3B       		.uleb128 0x3b
 2594 0196 0B       		.uleb128 0xb
 2595 0197 49       		.uleb128 0x49
 2596 0198 13       		.uleb128 0x13
 2597 0199 02       		.uleb128 0x2
 2598 019a 17       		.uleb128 0x17
 2599 019b 00       		.byte	0
 2600 019c 00       		.byte	0
 2601 019d 21       		.uleb128 0x21
 2602 019e 05       		.uleb128 0x5
 2603 019f 00       		.byte	0
 2604 01a0 03       		.uleb128 0x3
 2605 01a1 08       		.uleb128 0x8
 2606 01a2 3A       		.uleb128 0x3a
 2607 01a3 0B       		.uleb128 0xb
 2608 01a4 3B       		.uleb128 0x3b
 2609 01a5 0B       		.uleb128 0xb
 2610 01a6 49       		.uleb128 0x49
 2611 01a7 13       		.uleb128 0x13
 2612 01a8 02       		.uleb128 0x2
 2613 01a9 18       		.uleb128 0x18
 2614 01aa 00       		.byte	0
 2615 01ab 00       		.byte	0
 2616 01ac 22       		.uleb128 0x22
 2617 01ad 34       		.uleb128 0x34
 2618 01ae 00       		.byte	0
 2619 01af 03       		.uleb128 0x3
 2620 01b0 08       		.uleb128 0x8
 2621 01b1 3A       		.uleb128 0x3a
 2622 01b2 0B       		.uleb128 0xb
ARM GAS  /tmp/cciEH2BQ.s 			page 47


 2623 01b3 3B       		.uleb128 0x3b
 2624 01b4 0B       		.uleb128 0xb
 2625 01b5 49       		.uleb128 0x49
 2626 01b6 13       		.uleb128 0x13
 2627 01b7 02       		.uleb128 0x2
 2628 01b8 17       		.uleb128 0x17
 2629 01b9 00       		.byte	0
 2630 01ba 00       		.byte	0
 2631 01bb 23       		.uleb128 0x23
 2632 01bc 34       		.uleb128 0x34
 2633 01bd 00       		.byte	0
 2634 01be 03       		.uleb128 0x3
 2635 01bf 0E       		.uleb128 0xe
 2636 01c0 49       		.uleb128 0x49
 2637 01c1 13       		.uleb128 0x13
 2638 01c2 34       		.uleb128 0x34
 2639 01c3 19       		.uleb128 0x19
 2640 01c4 00       		.byte	0
 2641 01c5 00       		.byte	0
 2642 01c6 24       		.uleb128 0x24
 2643 01c7 34       		.uleb128 0x34
 2644 01c8 00       		.byte	0
 2645 01c9 03       		.uleb128 0x3
 2646 01ca 08       		.uleb128 0x8
 2647 01cb 3A       		.uleb128 0x3a
 2648 01cc 0B       		.uleb128 0xb
 2649 01cd 3B       		.uleb128 0x3b
 2650 01ce 0B       		.uleb128 0xb
 2651 01cf 49       		.uleb128 0x49
 2652 01d0 13       		.uleb128 0x13
 2653 01d1 02       		.uleb128 0x2
 2654 01d2 18       		.uleb128 0x18
 2655 01d3 00       		.byte	0
 2656 01d4 00       		.byte	0
 2657 01d5 25       		.uleb128 0x25
 2658 01d6 1D       		.uleb128 0x1d
 2659 01d7 01       		.byte	0x1
 2660 01d8 31       		.uleb128 0x31
 2661 01d9 13       		.uleb128 0x13
 2662 01da 11       		.uleb128 0x11
 2663 01db 01       		.uleb128 0x1
 2664 01dc 12       		.uleb128 0x12
 2665 01dd 06       		.uleb128 0x6
 2666 01de 58       		.uleb128 0x58
 2667 01df 0B       		.uleb128 0xb
 2668 01e0 59       		.uleb128 0x59
 2669 01e1 0B       		.uleb128 0xb
 2670 01e2 01       		.uleb128 0x1
 2671 01e3 13       		.uleb128 0x13
 2672 01e4 00       		.byte	0
 2673 01e5 00       		.byte	0
 2674 01e6 26       		.uleb128 0x26
 2675 01e7 1D       		.uleb128 0x1d
 2676 01e8 01       		.byte	0x1
 2677 01e9 31       		.uleb128 0x31
 2678 01ea 13       		.uleb128 0x13
 2679 01eb 11       		.uleb128 0x11
ARM GAS  /tmp/cciEH2BQ.s 			page 48


 2680 01ec 01       		.uleb128 0x1
 2681 01ed 12       		.uleb128 0x12
 2682 01ee 06       		.uleb128 0x6
 2683 01ef 58       		.uleb128 0x58
 2684 01f0 0B       		.uleb128 0xb
 2685 01f1 59       		.uleb128 0x59
 2686 01f2 05       		.uleb128 0x5
 2687 01f3 00       		.byte	0
 2688 01f4 00       		.byte	0
 2689 01f5 27       		.uleb128 0x27
 2690 01f6 05       		.uleb128 0x5
 2691 01f7 00       		.byte	0
 2692 01f8 31       		.uleb128 0x31
 2693 01f9 13       		.uleb128 0x13
 2694 01fa 02       		.uleb128 0x2
 2695 01fb 17       		.uleb128 0x17
 2696 01fc 00       		.byte	0
 2697 01fd 00       		.byte	0
 2698 01fe 28       		.uleb128 0x28
 2699 01ff 0B       		.uleb128 0xb
 2700 0200 01       		.byte	0x1
 2701 0201 11       		.uleb128 0x11
 2702 0202 01       		.uleb128 0x1
 2703 0203 12       		.uleb128 0x12
 2704 0204 06       		.uleb128 0x6
 2705 0205 00       		.byte	0
 2706 0206 00       		.byte	0
 2707 0207 29       		.uleb128 0x29
 2708 0208 34       		.uleb128 0x34
 2709 0209 00       		.byte	0
 2710 020a 31       		.uleb128 0x31
 2711 020b 13       		.uleb128 0x13
 2712 020c 00       		.byte	0
 2713 020d 00       		.byte	0
 2714 020e 2A       		.uleb128 0x2a
 2715 020f 898201   		.uleb128 0x4109
 2716 0212 01       		.byte	0x1
 2717 0213 11       		.uleb128 0x11
 2718 0214 01       		.uleb128 0x1
 2719 0215 31       		.uleb128 0x31
 2720 0216 13       		.uleb128 0x13
 2721 0217 01       		.uleb128 0x1
 2722 0218 13       		.uleb128 0x13
 2723 0219 00       		.byte	0
 2724 021a 00       		.byte	0
 2725 021b 2B       		.uleb128 0x2b
 2726 021c 8A8201   		.uleb128 0x410a
 2727 021f 00       		.byte	0
 2728 0220 02       		.uleb128 0x2
 2729 0221 18       		.uleb128 0x18
 2730 0222 9142     		.uleb128 0x2111
 2731 0224 18       		.uleb128 0x18
 2732 0225 00       		.byte	0
 2733 0226 00       		.byte	0
 2734 0227 2C       		.uleb128 0x2c
 2735 0228 898201   		.uleb128 0x4109
 2736 022b 01       		.byte	0x1
ARM GAS  /tmp/cciEH2BQ.s 			page 49


 2737 022c 11       		.uleb128 0x11
 2738 022d 01       		.uleb128 0x1
 2739 022e 31       		.uleb128 0x31
 2740 022f 13       		.uleb128 0x13
 2741 0230 00       		.byte	0
 2742 0231 00       		.byte	0
 2743 0232 2D       		.uleb128 0x2d
 2744 0233 2E       		.uleb128 0x2e
 2745 0234 01       		.byte	0x1
 2746 0235 03       		.uleb128 0x3
 2747 0236 0E       		.uleb128 0xe
 2748 0237 3A       		.uleb128 0x3a
 2749 0238 0B       		.uleb128 0xb
 2750 0239 3B       		.uleb128 0x3b
 2751 023a 05       		.uleb128 0x5
 2752 023b 27       		.uleb128 0x27
 2753 023c 19       		.uleb128 0x19
 2754 023d 20       		.uleb128 0x20
 2755 023e 0B       		.uleb128 0xb
 2756 023f 01       		.uleb128 0x1
 2757 0240 13       		.uleb128 0x13
 2758 0241 00       		.byte	0
 2759 0242 00       		.byte	0
 2760 0243 2E       		.uleb128 0x2e
 2761 0244 34       		.uleb128 0x34
 2762 0245 00       		.byte	0
 2763 0246 03       		.uleb128 0x3
 2764 0247 0E       		.uleb128 0xe
 2765 0248 49       		.uleb128 0x49
 2766 0249 13       		.uleb128 0x13
 2767 024a 34       		.uleb128 0x34
 2768 024b 19       		.uleb128 0x19
 2769 024c 1C       		.uleb128 0x1c
 2770 024d 0E       		.uleb128 0xe
 2771 024e 00       		.byte	0
 2772 024f 00       		.byte	0
 2773 0250 2F       		.uleb128 0x2f
 2774 0251 2E       		.uleb128 0x2e
 2775 0252 00       		.byte	0
 2776 0253 03       		.uleb128 0x3
 2777 0254 0E       		.uleb128 0xe
 2778 0255 3A       		.uleb128 0x3a
 2779 0256 0B       		.uleb128 0xb
 2780 0257 3B       		.uleb128 0x3b
 2781 0258 05       		.uleb128 0x5
 2782 0259 27       		.uleb128 0x27
 2783 025a 19       		.uleb128 0x19
 2784 025b 20       		.uleb128 0x20
 2785 025c 0B       		.uleb128 0xb
 2786 025d 00       		.byte	0
 2787 025e 00       		.byte	0
 2788 025f 30       		.uleb128 0x30
 2789 0260 05       		.uleb128 0x5
 2790 0261 00       		.byte	0
 2791 0262 03       		.uleb128 0x3
 2792 0263 0E       		.uleb128 0xe
 2793 0264 3A       		.uleb128 0x3a
ARM GAS  /tmp/cciEH2BQ.s 			page 50


 2794 0265 0B       		.uleb128 0xb
 2795 0266 3B       		.uleb128 0x3b
 2796 0267 05       		.uleb128 0x5
 2797 0268 49       		.uleb128 0x49
 2798 0269 13       		.uleb128 0x13
 2799 026a 00       		.byte	0
 2800 026b 00       		.byte	0
 2801 026c 31       		.uleb128 0x31
 2802 026d 2E       		.uleb128 0x2e
 2803 026e 00       		.byte	0
 2804 026f 3F       		.uleb128 0x3f
 2805 0270 19       		.uleb128 0x19
 2806 0271 3C       		.uleb128 0x3c
 2807 0272 19       		.uleb128 0x19
 2808 0273 6E       		.uleb128 0x6e
 2809 0274 0E       		.uleb128 0xe
 2810 0275 03       		.uleb128 0x3
 2811 0276 0E       		.uleb128 0xe
 2812 0277 3A       		.uleb128 0x3a
 2813 0278 0B       		.uleb128 0xb
 2814 0279 3B       		.uleb128 0x3b
 2815 027a 0B       		.uleb128 0xb
 2816 027b 00       		.byte	0
 2817 027c 00       		.byte	0
 2818 027d 32       		.uleb128 0x32
 2819 027e 2E       		.uleb128 0x2e
 2820 027f 00       		.byte	0
 2821 0280 3F       		.uleb128 0x3f
 2822 0281 19       		.uleb128 0x19
 2823 0282 3C       		.uleb128 0x3c
 2824 0283 19       		.uleb128 0x19
 2825 0284 6E       		.uleb128 0x6e
 2826 0285 0E       		.uleb128 0xe
 2827 0286 03       		.uleb128 0x3
 2828 0287 0E       		.uleb128 0xe
 2829 0288 3A       		.uleb128 0x3a
 2830 0289 0B       		.uleb128 0xb
 2831 028a 3B       		.uleb128 0x3b
 2832 028b 05       		.uleb128 0x5
 2833 028c 00       		.byte	0
 2834 028d 00       		.byte	0
 2835 028e 00       		.byte	0
 2836              		.section	.debug_loc,"",%progbits
 2837              	.Ldebug_loc0:
 2838              	.LLST8:
 2839 0000 00000000 		.4byte	.LVL9
 2840 0004 11000000 		.4byte	.LVL10-1
 2841 0008 0100     		.2byte	0x1
 2842 000a 50       		.byte	0x50
 2843 000b 11000000 		.4byte	.LVL10-1
 2844 000f 5A000000 		.4byte	.LFE291
 2845 0013 0100     		.2byte	0x1
 2846 0015 55       		.byte	0x55
 2847 0016 00000000 		.4byte	0
 2848 001a 00000000 		.4byte	0
 2849              	.LLST9:
 2850 001e 00000000 		.4byte	.LVL9
ARM GAS  /tmp/cciEH2BQ.s 			page 51


 2851 0022 11000000 		.4byte	.LVL10-1
 2852 0026 0100     		.2byte	0x1
 2853 0028 51       		.byte	0x51
 2854 0029 11000000 		.4byte	.LVL10-1
 2855 002d 5A000000 		.4byte	.LFE291
 2856 0031 0100     		.2byte	0x1
 2857 0033 58       		.byte	0x58
 2858 0034 00000000 		.4byte	0
 2859 0038 00000000 		.4byte	0
 2860              	.LLST10:
 2861 003c 00000000 		.4byte	.LVL9
 2862 0040 11000000 		.4byte	.LVL10-1
 2863 0044 0100     		.2byte	0x1
 2864 0046 52       		.byte	0x52
 2865 0047 11000000 		.4byte	.LVL10-1
 2866 004b 5A000000 		.4byte	.LFE291
 2867 004f 0100     		.2byte	0x1
 2868 0051 57       		.byte	0x57
 2869 0052 00000000 		.4byte	0
 2870 0056 00000000 		.4byte	0
 2871              	.LLST11:
 2872 005a 00000000 		.4byte	.LVL9
 2873 005e 11000000 		.4byte	.LVL10-1
 2874 0062 0100     		.2byte	0x1
 2875 0064 53       		.byte	0x53
 2876 0065 11000000 		.4byte	.LVL10-1
 2877 0069 5A000000 		.4byte	.LFE291
 2878 006d 0100     		.2byte	0x1
 2879 006f 56       		.byte	0x56
 2880 0070 00000000 		.4byte	0
 2881 0074 00000000 		.4byte	0
 2882              	.LLST12:
 2883 0078 48000000 		.4byte	.LVL14
 2884 007c 4B000000 		.4byte	.LVL15-1
 2885 0080 0100     		.2byte	0x1
 2886 0082 50       		.byte	0x50
 2887 0083 4B000000 		.4byte	.LVL15-1
 2888 0087 52000000 		.4byte	.LVL16
 2889 008b 0100     		.2byte	0x1
 2890 008d 54       		.byte	0x54
 2891 008e 00000000 		.4byte	0
 2892 0092 00000000 		.4byte	0
 2893              	.LLST13:
 2894 0096 12000000 		.4byte	.LVL10
 2895 009a 2F000000 		.4byte	.LVL11-1
 2896 009e 0100     		.2byte	0x1
 2897 00a0 50       		.byte	0x50
 2898 00a1 2F000000 		.4byte	.LVL11-1
 2899 00a5 48000000 		.4byte	.LVL14
 2900 00a9 0100     		.2byte	0x1
 2901 00ab 54       		.byte	0x54
 2902 00ac 00000000 		.4byte	0
 2903 00b0 00000000 		.4byte	0
 2904              	.LLST14:
 2905 00b4 30000000 		.4byte	.LVL11
 2906 00b8 36000000 		.4byte	.LVL12
 2907 00bc 0300     		.2byte	0x3
ARM GAS  /tmp/cciEH2BQ.s 			page 52


 2908 00be 08       		.byte	0x8
 2909 00bf 20       		.byte	0x20
 2910 00c0 9F       		.byte	0x9f
 2911 00c1 00000000 		.4byte	0
 2912 00c5 00000000 		.4byte	0
 2913              	.LLST15:
 2914 00c9 4C000000 		.4byte	.LVL15
 2915 00cd 52000000 		.4byte	.LVL16
 2916 00d1 0200     		.2byte	0x2
 2917 00d3 30       		.byte	0x30
 2918 00d4 9F       		.byte	0x9f
 2919 00d5 00000000 		.4byte	0
 2920 00d9 00000000 		.4byte	0
 2921              	.LLST0:
 2922 00dd 00000000 		.4byte	.LVL0
 2923 00e1 0F000000 		.4byte	.LVL2-1
 2924 00e5 0100     		.2byte	0x1
 2925 00e7 50       		.byte	0x50
 2926 00e8 0F000000 		.4byte	.LVL2-1
 2927 00ec 52000000 		.4byte	.LFE290
 2928 00f0 0400     		.2byte	0x4
 2929 00f2 F3       		.byte	0xf3
 2930 00f3 01       		.uleb128 0x1
 2931 00f4 50       		.byte	0x50
 2932 00f5 9F       		.byte	0x9f
 2933 00f6 00000000 		.4byte	0
 2934 00fa 00000000 		.4byte	0
 2935              	.LLST1:
 2936 00fe 00000000 		.4byte	.LVL0
 2937 0102 0F000000 		.4byte	.LVL2-1
 2938 0106 0100     		.2byte	0x1
 2939 0108 51       		.byte	0x51
 2940 0109 0F000000 		.4byte	.LVL2-1
 2941 010d 52000000 		.4byte	.LFE290
 2942 0111 0100     		.2byte	0x1
 2943 0113 56       		.byte	0x56
 2944 0114 00000000 		.4byte	0
 2945 0118 00000000 		.4byte	0
 2946              	.LLST2:
 2947 011c 00000000 		.4byte	.LVL0
 2948 0120 08000000 		.4byte	.LVL1
 2949 0124 0100     		.2byte	0x1
 2950 0126 52       		.byte	0x52
 2951 0127 08000000 		.4byte	.LVL1
 2952 012b 52000000 		.4byte	.LFE290
 2953 012f 0100     		.2byte	0x1
 2954 0131 57       		.byte	0x57
 2955 0132 00000000 		.4byte	0
 2956 0136 00000000 		.4byte	0
 2957              	.LLST3:
 2958 013a 00000000 		.4byte	.LVL0
 2959 013e 0F000000 		.4byte	.LVL2-1
 2960 0142 0100     		.2byte	0x1
 2961 0144 53       		.byte	0x53
 2962 0145 0F000000 		.4byte	.LVL2-1
 2963 0149 52000000 		.4byte	.LFE290
 2964 014d 0100     		.2byte	0x1
ARM GAS  /tmp/cciEH2BQ.s 			page 53


 2965 014f 55       		.byte	0x55
 2966 0150 00000000 		.4byte	0
 2967 0154 00000000 		.4byte	0
 2968              	.LLST4:
 2969 0158 42000000 		.4byte	.LVL6
 2970 015c 45000000 		.4byte	.LVL7-1
 2971 0160 0100     		.2byte	0x1
 2972 0162 50       		.byte	0x50
 2973 0163 45000000 		.4byte	.LVL7-1
 2974 0167 4C000000 		.4byte	.LVL8
 2975 016b 0100     		.2byte	0x1
 2976 016d 54       		.byte	0x54
 2977 016e 00000000 		.4byte	0
 2978 0172 00000000 		.4byte	0
 2979              	.LLST5:
 2980 0176 10000000 		.4byte	.LVL2
 2981 017a 2B000000 		.4byte	.LVL3-1
 2982 017e 0100     		.2byte	0x1
 2983 0180 50       		.byte	0x50
 2984 0181 2B000000 		.4byte	.LVL3-1
 2985 0185 42000000 		.4byte	.LVL6
 2986 0189 0100     		.2byte	0x1
 2987 018b 54       		.byte	0x54
 2988 018c 00000000 		.4byte	0
 2989 0190 00000000 		.4byte	0
 2990              	.LLST6:
 2991 0194 2C000000 		.4byte	.LVL3
 2992 0198 32000000 		.4byte	.LVL4
 2993 019c 0300     		.2byte	0x3
 2994 019e 08       		.byte	0x8
 2995 019f 20       		.byte	0x20
 2996 01a0 9F       		.byte	0x9f
 2997 01a1 00000000 		.4byte	0
 2998 01a5 00000000 		.4byte	0
 2999              	.LLST7:
 3000 01a9 46000000 		.4byte	.LVL7
 3001 01ad 4C000000 		.4byte	.LVL8
 3002 01b1 0200     		.2byte	0x2
 3003 01b3 30       		.byte	0x30
 3004 01b4 9F       		.byte	0x9f
 3005 01b5 00000000 		.4byte	0
 3006 01b9 00000000 		.4byte	0
 3007              		.section	.debug_aranges,"",%progbits
 3008 0000 24000000 		.4byte	0x24
 3009 0004 0200     		.2byte	0x2
 3010 0006 00000000 		.4byte	.Ldebug_info0
 3011 000a 04       		.byte	0x4
 3012 000b 00       		.byte	0
 3013 000c 0000     		.2byte	0
 3014 000e 0000     		.2byte	0
 3015 0010 00000000 		.4byte	.LFB290
 3016 0014 52000000 		.4byte	.LFE290-.LFB290
 3017 0018 00000000 		.4byte	.LFB291
 3018 001c 5A000000 		.4byte	.LFE291-.LFB291
 3019 0020 00000000 		.4byte	0
 3020 0024 00000000 		.4byte	0
 3021              		.section	.debug_ranges,"",%progbits
ARM GAS  /tmp/cciEH2BQ.s 			page 54


 3022              	.Ldebug_ranges0:
 3023 0000 00000000 		.4byte	.LFB290
 3024 0004 52000000 		.4byte	.LFE290
 3025 0008 00000000 		.4byte	.LFB291
 3026 000c 5A000000 		.4byte	.LFE291
 3027 0010 00000000 		.4byte	0
 3028 0014 00000000 		.4byte	0
 3029              		.section	.debug_line,"",%progbits
 3030              	.Ldebug_line0:
 3031 0000 EA030000 		.section	.debug_str,"MS",%progbits,1
 3031      02006E03 
 3031      00000201 
 3031      FB0E0D00 
 3031      01010101 
 3032              	.LASF99:
 3033 0000 7466756E 		.ascii	"tfunc_t\000"
 3033      635F7400 
 3034              	.LASF54:
 3035 0008 72656164 		.ascii	"ready_list_t\000"
 3035      795F6C69 
 3035      73745F74 
 3035      00
 3036              	.LASF4:
 3037 0015 73697A65 		.ascii	"size_t\000"
 3037      5F7400
 3038              	.LASF50:
 3039 001c 6E657874 		.ascii	"next\000"
 3039      00
 3040              	.LASF60:
 3041 0021 64656C74 		.ascii	"delta\000"
 3041      6100
 3042              	.LASF86:
 3043 0027 7264796D 		.ascii	"rdymsg\000"
 3043      736700
 3044              	.LASF102:
 3045 002e 66756E63 		.ascii	"funcp\000"
 3045      7000
 3046              	.LASF20:
 3047 0034 75696E74 		.ascii	"uint64_t\000"
 3047      36345F74 
 3047      00
 3048              	.LASF5:
 3049 003d 5F5F7569 		.ascii	"__uint8_t\000"
 3049      6E74385F 
 3049      7400
 3050              	.LASF53:
 3051 0047 70726576 		.ascii	"prev\000"
 3051      00
 3052              	.LASF83:
 3053 004c 706F7274 		.ascii	"port_intctx\000"
 3053      5F696E74 
 3053      63747800 
 3054              	.LASF139:
 3055 0058 70616765 		.ascii	"pages\000"
 3055      7300
 3056              	.LASF65:
 3057 005e 73797374 		.ascii	"system_debug_t\000"
ARM GAS  /tmp/cciEH2BQ.s 			page 55


 3057      656D5F64 
 3057      65627567 
 3057      5F7400
 3058              	.LASF134:
 3059 006d 70726F76 		.ascii	"provider\000"
 3059      69646572 
 3059      00
 3060              	.LASF103:
 3061 0076 74687265 		.ascii	"thread_descriptor_t\000"
 3061      61645F64 
 3061      65736372 
 3061      6970746F 
 3061      725F7400 
 3062              	.LASF153:
 3063 008a 73656D5F 		.ascii	"sem_list\000"
 3063      6C697374 
 3063      00
 3064              	.LASF164:
 3065 0093 706F7274 		.ascii	"port_lock\000"
 3065      5F6C6F63 
 3065      6B00
 3066              	.LASF82:
 3067 009d 706F7274 		.ascii	"port_context\000"
 3067      5F636F6E 
 3067      74657874 
 3067      00
 3068              	.LASF126:
 3069 00aa 6D656D67 		.ascii	"memgetfunc_t\000"
 3069      65746675 
 3069      6E635F74 
 3069      00
 3070              	.LASF101:
 3071 00b7 77656E64 		.ascii	"wend\000"
 3071      00
 3072              	.LASF15:
 3073 00bc 6C6F6E67 		.ascii	"long long unsigned int\000"
 3073      206C6F6E 
 3073      6720756E 
 3073      7369676E 
 3073      65642069 
 3074              	.LASF87:
 3075 00d3 65786974 		.ascii	"exitcode\000"
 3075      636F6465 
 3075      00
 3076              	.LASF72:
 3077 00dc 6D61696E 		.ascii	"mainthread\000"
 3077      74687265 
 3077      616400
 3078              	.LASF90:
 3079 00e7 73656E74 		.ascii	"sentmsg\000"
 3079      6D736700 
 3080              	.LASF62:
 3081 00ef 76697274 		.ascii	"virtual_timers_list_t\000"
 3081      75616C5F 
 3081      74696D65 
 3081      72735F6C 
 3081      6973745F 
ARM GAS  /tmp/cciEH2BQ.s 			page 56


 3082              	.LASF76:
 3083 0105 49544D5F 		.ascii	"ITM_RxBuffer\000"
 3083      52784275 
 3083      66666572 
 3083      00
 3084              	.LASF161:
 3085 0112 68656170 		.ascii	"heapp\000"
 3085      7000
 3086              	.LASF146:
 3087 0118 64796E5F 		.ascii	"dyn_element_t\000"
 3087      656C656D 
 3087      656E745F 
 3087      7400
 3088              	.LASF137:
 3089 0126 66726565 		.ascii	"free\000"
 3089      00
 3090              	.LASF52:
 3091 012b 63685F74 		.ascii	"ch_threads_queue\000"
 3091      68726561 
 3091      64735F71 
 3091      75657565 
 3091      00
 3092              	.LASF1:
 3093 013c 6C6F6E67 		.ascii	"long long int\000"
 3093      206C6F6E 
 3093      6720696E 
 3093      7400
 3094              	.LASF3:
 3095 014a 7369676E 		.ascii	"signed char\000"
 3095      65642063 
 3095      68617200 
 3096              	.LASF106:
 3097 0156 73697A65 		.ascii	"size\000"
 3097      00
 3098              	.LASF172:
 3099 015b 474E5520 		.ascii	"GNU C11 6.3.1 20170620 (release) [ARM/embedded-6-br"
 3099      43313120 
 3099      362E332E 
 3099      31203230 
 3099      31373036 
 3100 018e 616E6368 		.ascii	"anch revision 249437] -mcpu=cortex-m4 -mfloat-abi=h"
 3100      20726576 
 3100      6973696F 
 3100      6E203234 
 3100      39343337 
 3101 01c1 61726420 		.ascii	"ard -mfpu=fpv4-sp-d16 -mno-thumb-interwork -mthumb "
 3101      2D6D6670 
 3101      753D6670 
 3101      76342D73 
 3101      702D6431 
 3102 01f4 2D67202D 		.ascii	"-g -Os -fomit-frame-pointer -falign-functions=16 -f"
 3102      4F73202D 
 3102      666F6D69 
 3102      742D6672 
 3102      616D652D 
 3103 0227 66756E63 		.ascii	"function-sections -fdata-sections -fno-common -fsin"
 3103      74696F6E 
ARM GAS  /tmp/cciEH2BQ.s 			page 57


 3103      2D736563 
 3103      74696F6E 
 3103      73202D66 
 3104 025a 676C652D 		.ascii	"gle-precision-constant\000"
 3104      70726563 
 3104      6973696F 
 3104      6E2D636F 
 3104      6E737461 
 3105              	.LASF177:
 3106 0271 62617365 		.ascii	"basePri\000"
 3106      50726900 
 3107              	.LASF71:
 3108 0279 76746C69 		.ascii	"vtlist\000"
 3108      737400
 3109              	.LASF163:
 3110 0280 706F7274 		.ascii	"port_unlock\000"
 3110      5F756E6C 
 3110      6F636B00 
 3111              	.LASF41:
 3112 028c 6D736771 		.ascii	"msgqueue\000"
 3112      75657565 
 3112      00
 3113              	.LASF37:
 3114 0295 73746174 		.ascii	"state\000"
 3114      6500
 3115              	.LASF11:
 3116 029b 6C6F6E67 		.ascii	"long int\000"
 3116      20696E74 
 3116      00
 3117              	.LASF160:
 3118 02a4 63685468 		.ascii	"chThdCreateFromHeap\000"
 3118      64437265 
 3118      61746546 
 3118      726F6D48 
 3118      65617000 
 3119              	.LASF23:
 3120 02b8 74737461 		.ascii	"tstate_t\000"
 3120      74655F74 
 3120      00
 3121              	.LASF61:
 3122 02c1 66756E63 		.ascii	"func\000"
 3122      00
 3123              	.LASF132:
 3124 02c6 6D656D6F 		.ascii	"memory_heap_t\000"
 3124      72795F68 
 3124      6561705F 
 3124      7400
 3125              	.LASF122:
 3126 02d4 63686465 		.ascii	"chdebug_t\000"
 3126      6275675F 
 3126      7400
 3127              	.LASF120:
 3128 02de 6F66665F 		.ascii	"off_preempt\000"
 3128      70726565 
 3128      6D707400 
 3129              	.LASF136:
 3130 02ea 68656170 		.ascii	"heap_header_t\000"
ARM GAS  /tmp/cciEH2BQ.s 			page 58


 3130      5F686561 
 3130      6465725F 
 3130      7400
 3131              	.LASF12:
 3132 02f8 5F5F7569 		.ascii	"__uint32_t\000"
 3132      6E743332 
 3132      5F7400
 3133              	.LASF80:
 3134 0303 72656761 		.ascii	"regarm_t\000"
 3134      726D5F74 
 3134      00
 3135              	.LASF155:
 3136 030c 6D62785F 		.ascii	"mbx_list\000"
 3136      6C697374 
 3136      00
 3137              	.LASF66:
 3138 0315 63685F73 		.ascii	"ch_system_debug\000"
 3138      79737465 
 3138      6D5F6465 
 3138      62756700 
 3139              	.LASF40:
 3140 0325 77616974 		.ascii	"waiting\000"
 3140      696E6700 
 3141              	.LASF70:
 3142 032d 726C6973 		.ascii	"rlist\000"
 3142      7400
 3143              	.LASF105:
 3144 0333 7A65726F 		.ascii	"zero\000"
 3144      00
 3145              	.LASF124:
 3146 0338 6D757465 		.ascii	"mutex_t\000"
 3146      785F7400 
 3147              	.LASF143:
 3148 0340 616C6967 		.ascii	"align\000"
 3148      6E00
 3149              	.LASF74:
 3150 0346 73797369 		.ascii	"sysinterval_t\000"
 3150      6E746572 
 3150      76616C5F 
 3150      7400
 3151              	.LASF28:
 3152 0354 636E745F 		.ascii	"cnt_t\000"
 3152      7400
 3153              	.LASF0:
 3154 035a 756E7369 		.ascii	"unsigned int\000"
 3154      676E6564 
 3154      20696E74 
 3154      00
 3155              	.LASF17:
 3156 0367 75696E74 		.ascii	"uint16_t\000"
 3156      31365F74 
 3156      00
 3157              	.LASF77:
 3158 0370 53797374 		.ascii	"SystemCoreClock\000"
 3158      656D436F 
 3158      7265436C 
 3158      6F636B00 
ARM GAS  /tmp/cciEH2BQ.s 			page 59


 3159              	.LASF91:
 3160 0380 77747365 		.ascii	"wtsemp\000"
 3160      6D7000
 3161              	.LASF89:
 3162 0387 77747472 		.ascii	"wttrp\000"
 3162      7000
 3163              	.LASF123:
 3164 038d 63685F64 		.ascii	"ch_debug\000"
 3164      65627567 
 3164      00
 3165              	.LASF158:
 3166 0396 63685F66 		.ascii	"ch_factory\000"
 3166      6163746F 
 3166      727900
 3167              	.LASF144:
 3168 03a1 6D656D6F 		.ascii	"memory_pool_t\000"
 3168      72795F70 
 3168      6F6F6C5F 
 3168      7400
 3169              	.LASF31:
 3170 03af 71756575 		.ascii	"queue\000"
 3170      6500
 3171              	.LASF45:
 3172 03b5 6D706F6F 		.ascii	"mpool\000"
 3172      6C00
 3173              	.LASF119:
 3174 03bb 6F66665F 		.ascii	"off_refs\000"
 3174      72656673 
 3174      00
 3175              	.LASF152:
 3176 03c4 6275665F 		.ascii	"buf_list\000"
 3176      6C697374 
 3176      00
 3177              	.LASF48:
 3178 03cd 63685F74 		.ascii	"ch_thread\000"
 3178      68726561 
 3178      6400
 3179              	.LASF26:
 3180 03d7 6D73675F 		.ascii	"msg_t\000"
 3180      7400
 3181              	.LASF29:
 3182 03dd 75636E74 		.ascii	"ucnt_t\000"
 3182      5F7400
 3183              	.LASF42:
 3184 03e4 6570656E 		.ascii	"epending\000"
 3184      64696E67 
 3184      00
 3185              	.LASF35:
 3186 03ed 6E616D65 		.ascii	"name\000"
 3186      00
 3187              	.LASF68:
 3188 03f2 63685F73 		.ascii	"ch_system_t\000"
 3188      79737465 
 3188      6D5F7400 
 3189              	.LASF112:
 3190 03fe 6F66665F 		.ascii	"off_ctx\000"
 3190      63747800 
ARM GAS  /tmp/cciEH2BQ.s 			page 60


 3191              	.LASF22:
 3192 0406 746D6F64 		.ascii	"tmode_t\000"
 3192      655F7400 
 3193              	.LASF55:
 3194 040e 63685F72 		.ascii	"ch_ready_list\000"
 3194      65616479 
 3194      5F6C6973 
 3194      7400
 3195              	.LASF27:
 3196 041c 6576656E 		.ascii	"eventmask_t\000"
 3196      746D6173 
 3196      6B5F7400 
 3197              	.LASF78:
 3198 0428 41484250 		.ascii	"AHBPrescTable\000"
 3198      72657363 
 3198      5461626C 
 3198      6500
 3199              	.LASF129:
 3200 0436 656E646D 		.ascii	"endmem\000"
 3200      656D00
 3201              	.LASF10:
 3202 043d 5F5F696E 		.ascii	"__int32_t\000"
 3202      7433325F 
 3202      7400
 3203              	.LASF81:
 3204 0447 73746B61 		.ascii	"stkalign_t\000"
 3204      6C69676E 
 3204      5F7400
 3205              	.LASF33:
 3206 0452 6E657765 		.ascii	"newer\000"
 3206      7200
 3207              	.LASF44:
 3208 0458 7265616C 		.ascii	"realprio\000"
 3208      7072696F 
 3208      00
 3209              	.LASF107:
 3210 0461 76657273 		.ascii	"version\000"
 3210      696F6E00 
 3211              	.LASF75:
 3212 0469 73697A65 		.ascii	"sizetype\000"
 3212      74797065 
 3212      00
 3213              	.LASF46:
 3214 0472 74687265 		.ascii	"thread_reference_t\000"
 3214      61645F72 
 3214      65666572 
 3214      656E6365 
 3214      5F7400
 3215              	.LASF63:
 3216 0485 63685F76 		.ascii	"ch_virtual_timers_list\000"
 3216      69727475 
 3216      616C5F74 
 3216      696D6572 
 3216      735F6C69 
 3217              	.LASF2:
 3218 049c 6C6F6E67 		.ascii	"long double\000"
 3218      20646F75 
ARM GAS  /tmp/cciEH2BQ.s 			page 61


 3218      626C6500 
 3219              	.LASF147:
 3220 04a8 63685F64 		.ascii	"ch_dyn_list\000"
 3220      796E5F6C 
 3220      69737400 
 3221              	.LASF113:
 3222 04b4 6F66665F 		.ascii	"off_newer\000"
 3222      6E657765 
 3222      7200
 3223              	.LASF79:
 3224 04be 41504250 		.ascii	"APBPrescTable\000"
 3224      72657363 
 3224      5461626C 
 3224      6500
 3225              	.LASF159:
 3226 04cc 63685468 		.ascii	"chThdCreateFromMemoryPool\000"
 3226      64437265 
 3226      61746546 
 3226      726F6D4D 
 3226      656D6F72 
 3227              	.LASF100:
 3228 04e6 77626173 		.ascii	"wbase\000"
 3228      6500
 3229              	.LASF85:
 3230 04ec 746D5F63 		.ascii	"tm_calibration_t\000"
 3230      616C6962 
 3230      72617469 
 3230      6F6E5F74 
 3230      00
 3231              	.LASF127:
 3232 04fd 6D656D67 		.ascii	"memgetfunc2_t\000"
 3232      65746675 
 3232      6E63325F 
 3232      7400
 3233              	.LASF32:
 3234 050b 7072696F 		.ascii	"prio\000"
 3234      00
 3235              	.LASF154:
 3236 0510 73656D5F 		.ascii	"sem_pool\000"
 3236      706F6F6C 
 3236      00
 3237              	.LASF56:
 3238 0519 63757272 		.ascii	"current\000"
 3238      656E7400 
 3239              	.LASF14:
 3240 0521 5F5F7569 		.ascii	"__uint64_t\000"
 3240      6E743634 
 3240      5F7400
 3241              	.LASF130:
 3242 052c 6D656D63 		.ascii	"memcore_t\000"
 3242      6F72655F 
 3242      7400
 3243              	.LASF138:
 3244 0536 75736564 		.ascii	"used\000"
 3244      00
 3245              	.LASF24:
 3246 053b 74726566 		.ascii	"trefs_t\000"
ARM GAS  /tmp/cciEH2BQ.s 			page 62


 3246      735F7400 
 3247              	.LASF39:
 3248 0543 72656673 		.ascii	"refs\000"
 3248      00
 3249              	.LASF58:
 3250 0548 76697274 		.ascii	"virtual_timer_t\000"
 3250      75616C5F 
 3250      74696D65 
 3250      725F7400 
 3251              	.LASF145:
 3252 0558 63685F64 		.ascii	"ch_dyn_element\000"
 3252      796E5F65 
 3252      6C656D65 
 3252      6E7400
 3253              	.LASF148:
 3254 0567 64796E5F 		.ascii	"dyn_list_t\000"
 3254      6C697374 
 3254      5F7400
 3255              	.LASF25:
 3256 0572 74707269 		.ascii	"tprio_t\000"
 3256      6F5F7400 
 3257              	.LASF110:
 3258 057a 74687265 		.ascii	"threadsize\000"
 3258      61647369 
 3258      7A6500
 3259              	.LASF125:
 3260 0585 5F426F6F 		.ascii	"_Bool\000"
 3260      6C00
 3261              	.LASF18:
 3262 058b 696E7433 		.ascii	"int32_t\000"
 3262      325F7400 
 3263              	.LASF6:
 3264 0593 756E7369 		.ascii	"unsigned char\000"
 3264      676E6564 
 3264      20636861 
 3264      7200
 3265              	.LASF111:
 3266 05a1 6F66665F 		.ascii	"off_prio\000"
 3266      7072696F 
 3266      00
 3267              	.LASF116:
 3268 05aa 6F66665F 		.ascii	"off_stklimit\000"
 3268      73746B6C 
 3268      696D6974 
 3268      00
 3269              	.LASF7:
 3270 05b7 73686F72 		.ascii	"short int\000"
 3270      7420696E 
 3270      7400
 3271              	.LASF64:
 3272 05c1 6C617374 		.ascii	"lasttime\000"
 3272      74696D65 
 3272      00
 3273              	.LASF175:
 3274 05ca 68656170 		.ascii	"heap_header\000"
 3274      5F686561 
 3274      64657200 
ARM GAS  /tmp/cciEH2BQ.s 			page 63


 3275              	.LASF93:
 3276 05d6 65776D61 		.ascii	"ewmask\000"
 3276      736B00
 3277              	.LASF69:
 3278 05dd 63685F73 		.ascii	"ch_system\000"
 3278      79737465 
 3278      6D00
 3279              	.LASF176:
 3280 05e7 5F5F6675 		.ascii	"__func__\000"
 3280      6E635F5F 
 3280      00
 3281              	.LASF173:
 3282 05f0 2E2E2F2E 		.ascii	"../../modules/ChibiOS/os/rt/src/chdynamic.c\000"
 3282      2E2F6D6F 
 3282      64756C65 
 3282      732F4368 
 3282      6962694F 
 3283              	.LASF162:
 3284 061c 63685379 		.ascii	"chSysLock\000"
 3284      734C6F63 
 3284      6B00
 3285              	.LASF168:
 3286 0626 5F746872 		.ascii	"_thread_memfill\000"
 3286      6561645F 
 3286      6D656D66 
 3286      696C6C00 
 3287              	.LASF151:
 3288 0636 6F626A5F 		.ascii	"obj_pool\000"
 3288      706F6F6C 
 3288      00
 3289              	.LASF36:
 3290 063f 77616261 		.ascii	"wabase\000"
 3290      736500
 3291              	.LASF59:
 3292 0646 63685F76 		.ascii	"ch_virtual_timer\000"
 3292      69727475 
 3292      616C5F74 
 3292      696D6572 
 3292      00
 3293              	.LASF94:
 3294 0657 63685F73 		.ascii	"ch_semaphore\000"
 3294      656D6170 
 3294      686F7265 
 3294      00
 3295              	.LASF121:
 3296 0664 6F66665F 		.ascii	"off_time\000"
 3296      74696D65 
 3296      00
 3297              	.LASF98:
 3298 066d 63685F69 		.ascii	"ch_idle_thread_wa\000"
 3298      646C655F 
 3298      74687265 
 3298      61645F77 
 3298      6100
 3299              	.LASF109:
 3300 067f 74696D65 		.ascii	"timesize\000"
 3300      73697A65 
ARM GAS  /tmp/cciEH2BQ.s 			page 64


 3300      00
 3301              	.LASF19:
 3302 0688 75696E74 		.ascii	"uint32_t\000"
 3302      33325F74 
 3302      00
 3303              	.LASF92:
 3304 0691 77746D74 		.ascii	"wtmtxp\000"
 3304      787000
 3305              	.LASF49:
 3306 0698 63685F74 		.ascii	"ch_threads_list\000"
 3306      68726561 
 3306      64735F6C 
 3306      69737400 
 3307              	.LASF96:
 3308 06a8 6F776E65 		.ascii	"owner\000"
 3308      7200
 3309              	.LASF140:
 3310 06ae 68656170 		.ascii	"heap\000"
 3310      00
 3311              	.LASF13:
 3312 06b3 6C6F6E67 		.ascii	"long unsigned int\000"
 3312      20756E73 
 3312      69676E65 
 3312      6420696E 
 3312      7400
 3313              	.LASF169:
 3314 06c5 63685468 		.ascii	"chThdCreateSuspendedI\000"
 3314      64437265 
 3314      61746553 
 3314      75737065 
 3314      6E646564 
 3315              	.LASF97:
 3316 06db 63686172 		.ascii	"char\000"
 3316      00
 3317              	.LASF34:
 3318 06e0 6F6C6465 		.ascii	"older\000"
 3318      7200
 3319              	.LASF150:
 3320 06e6 6F626A5F 		.ascii	"obj_list\000"
 3320      6C697374 
 3320      00
 3321              	.LASF8:
 3322 06ef 5F5F7569 		.ascii	"__uint16_t\000"
 3322      6E743136 
 3322      5F7400
 3323              	.LASF30:
 3324 06fa 74687265 		.ascii	"thread_t\000"
 3324      61645F74 
 3324      00
 3325              	.LASF131:
 3326 0703 63685F6D 		.ascii	"ch_memcore\000"
 3326      656D636F 
 3326      726500
 3327              	.LASF73:
 3328 070e 73797374 		.ascii	"systime_t\000"
 3328      696D655F 
 3328      7400
ARM GAS  /tmp/cciEH2BQ.s 			page 65


 3329              	.LASF57:
 3330 0718 76746675 		.ascii	"vtfunc_t\000"
 3330      6E635F74 
 3330      00
 3331              	.LASF166:
 3332 0721 5F5F7365 		.ascii	"__set_BASEPRI\000"
 3332      745F4241 
 3332      53455052 
 3332      4900
 3333              	.LASF67:
 3334 072f 70616E69 		.ascii	"panic_msg\000"
 3334      635F6D73 
 3334      6700
 3335              	.LASF84:
 3336 0739 6F666673 		.ascii	"offset\000"
 3336      657400
 3337              	.LASF171:
 3338 0740 63684865 		.ascii	"chHeapAllocAligned\000"
 3338      6170416C 
 3338      6C6F6341 
 3338      6C69676E 
 3338      656400
 3339              	.LASF95:
 3340 0753 63685F6D 		.ascii	"ch_mutex\000"
 3340      75746578 
 3340      00
 3341              	.LASF114:
 3342 075c 6F66665F 		.ascii	"off_older\000"
 3342      6F6C6465 
 3342      7200
 3343              	.LASF9:
 3344 0766 73686F72 		.ascii	"short unsigned int\000"
 3344      7420756E 
 3344      7369676E 
 3344      65642069 
 3344      6E7400
 3345              	.LASF104:
 3346 0779 6964656E 		.ascii	"identifier\000"
 3346      74696669 
 3346      657200
 3347              	.LASF21:
 3348 0784 7274636E 		.ascii	"rtcnt_t\000"
 3348      745F7400 
 3349              	.LASF170:
 3350 078c 63685363 		.ascii	"chSchWakeupS\000"
 3350      6857616B 
 3350      65757053 
 3350      00
 3351              	.LASF142:
 3352 0799 6F626A65 		.ascii	"object_size\000"
 3352      63745F73 
 3352      697A6500 
 3353              	.LASF108:
 3354 07a5 70747273 		.ascii	"ptrsize\000"
 3354      697A6500 
 3355              	.LASF149:
 3356 07ad 63685F6F 		.ascii	"ch_objects_factory\000"
ARM GAS  /tmp/cciEH2BQ.s 			page 66


 3356      626A6563 
 3356      74735F66 
 3356      6163746F 
 3356      727900
 3357              	.LASF51:
 3358 07c0 74687265 		.ascii	"threads_queue_t\000"
 3358      6164735F 
 3358      71756575 
 3358      655F7400 
 3359              	.LASF141:
 3360 07d0 706F6F6C 		.ascii	"pool_header\000"
 3360      5F686561 
 3360      64657200 
 3361              	.LASF115:
 3362 07dc 6F66665F 		.ascii	"off_name\000"
 3362      6E616D65 
 3362      00
 3363              	.LASF16:
 3364 07e5 75696E74 		.ascii	"uint8_t\000"
 3364      385F7400 
 3365              	.LASF167:
 3366 07ed 6368506F 		.ascii	"chPoolAlloc\000"
 3366      6F6C416C 
 3366      6C6F6300 
 3367              	.LASF38:
 3368 07f9 666C6167 		.ascii	"flags\000"
 3368      7300
 3369              	.LASF156:
 3370 07ff 6669666F 		.ascii	"fifo_list\000"
 3370      5F6C6973 
 3370      7400
 3371              	.LASF88:
 3372 0809 77746F62 		.ascii	"wtobjp\000"
 3372      6A7000
 3373              	.LASF47:
 3374 0810 74687265 		.ascii	"threads_list_t\000"
 3374      6164735F 
 3374      6C697374 
 3374      5F7400
 3375              	.LASF117:
 3376 081f 6F66665F 		.ascii	"off_state\000"
 3376      73746174 
 3376      6500
 3377              	.LASF165:
 3378 0829 63685379 		.ascii	"chSysUnlock\000"
 3378      73556E6C 
 3378      6F636B00 
 3379              	.LASF157:
 3380 0835 6F626A65 		.ascii	"objects_factory_t\000"
 3380      6374735F 
 3380      66616374 
 3380      6F72795F 
 3380      7400
 3381              	.LASF118:
 3382 0847 6F66665F 		.ascii	"off_flags\000"
 3382      666C6167 
 3382      7300
ARM GAS  /tmp/cciEH2BQ.s 			page 67


 3383              	.LASF43:
 3384 0851 6D74786C 		.ascii	"mtxlist\000"
 3384      69737400 
 3385              	.LASF174:
 3386 0859 2F686F6D 		.ascii	"/home/alex/ArduPilot/ardupilot/build/Pix2.4\000"
 3386      652F616C 
 3386      65782F41 
 3386      72647550 
 3386      696C6F74 
 3387              	.LASF135:
 3388 0885 68656164 		.ascii	"header\000"
 3388      657200
 3389              	.LASF128:
 3390 088c 6E657874 		.ascii	"nextmem\000"
 3390      6D656D00 
 3391              	.LASF133:
 3392 0894 6D656D6F 		.ascii	"memory_heap\000"
 3392      72795F68 
 3392      65617000 
 3393              		.ident	"GCC: (GNU Tools for ARM Embedded Processors 6-2017-q2-update) 6.3.1 20170620 (release) [AR
ARM GAS  /tmp/cciEH2BQ.s 			page 68


DEFINED SYMBOLS
                            *ABS*:0000000000000000 chdynamic.c
     /tmp/cciEH2BQ.s:18     .text.chThdCreateFromHeap:0000000000000000 $t
     /tmp/cciEH2BQ.s:25     .text.chThdCreateFromHeap:0000000000000000 chThdCreateFromHeap
     /tmp/cciEH2BQ.s:136    .text.chThdCreateFromMemoryPool:0000000000000000 $t
     /tmp/cciEH2BQ.s:143    .text.chThdCreateFromMemoryPool:0000000000000000 chThdCreateFromMemoryPool
                     .debug_frame:0000000000000010 $d

UNDEFINED SYMBOLS
chHeapAllocAligned
_thread_memfill
chThdCreateSuspendedI
chSchWakeupS
chPoolAlloc
