ARM GAS  /tmp/cciEH2BQ.s 			page 1


   1              		.cpu cortex-m4
   2              		.eabi_attribute 27, 1
   3              		.eabi_attribute 28, 1
   4              		.eabi_attribute 20, 1
   5              		.eabi_attribute 21, 1
   6              		.eabi_attribute 23, 3
   7              		.eabi_attribute 24, 1
   8              		.eabi_attribute 25, 1
   9              		.eabi_attribute 26, 1
  10              		.eabi_attribute 30, 4
  11              		.eabi_attribute 34, 1
  12              		.eabi_attribute 18, 4
  13              		.file	"chdynamic.c"
  14              		.text
  15              	.Ltext0:
  16              		.cfi_sections	.debug_frame
  17              		.section	.text.chThdCreateFromHeap,"ax",%progbits
  18              		.align	1
  19              		.global	chThdCreateFromHeap
  20              		.syntax unified
  21              		.thumb
  22              		.thumb_func
  23              		.fpu fpv4-sp-d16
  24              		.type	chThdCreateFromHeap, %function
  25              	chThdCreateFromHeap:
  26              	.LFB290:
  27              		.file 1 "../../modules/ChibiOS/os/rt/src/chdynamic.c"
  28              		.loc 1 84 0
  29              		.cfi_startproc
  30              		@ args = 8, pretend = 0, frame = 24
  31              		@ frame_needed = 0, uses_anonymous_args = 0
  32              	.LVL0:
  33 0000 F0B5     		push	{r4, r5, r6, r7, lr}
  34              		.cfi_def_cfa_offset 20
  35              		.cfi_offset 4, -20
  36              		.cfi_offset 5, -16
  37              		.cfi_offset 6, -12
  38              		.cfi_offset 7, -8
  39              		.cfi_offset 14, -4
  40 0002 1746     		mov	r7, r2
  41 0004 87B0     		sub	sp, sp, #28
  42              		.cfi_def_cfa_offset 48
  43              		.loc 1 88 0
  44 0006 0822     		movs	r2, #8
  45              	.LVL1:
  46              		.loc 1 84 0
  47 0008 0E46     		mov	r6, r1
  48 000a 1D46     		mov	r5, r3
  49              		.loc 1 88 0
  50 000c FFF7FEFF 		bl	chHeapAllocAligned
  51              	.LVL2:
  52              		.loc 1 89 0
  53 0010 0446     		mov	r4, r0
  54 0012 D8B1     		cbz	r0, .L1
  55              		.loc 1 93 0
  56 0014 0C9B     		ldr	r3, [sp, #48]
  57 0016 0493     		str	r3, [sp, #16]
ARM GAS  /tmp/cciEH2BQ.s 			page 2


  58              		.loc 1 96 0
  59 0018 8119     		adds	r1, r0, r6
  60              		.loc 1 93 0
  61 001a 0D9B     		ldr	r3, [sp, #52]
  62 001c 0593     		str	r3, [sp, #20]
  63              		.loc 1 103 0
  64 001e 5522     		movs	r2, #85
  65              		.loc 1 93 0
  66 0020 0097     		str	r7, [sp]
  67 0022 0190     		str	r0, [sp, #4]
  68 0024 0291     		str	r1, [sp, #8]
  69 0026 0395     		str	r5, [sp, #12]
  70              		.loc 1 103 0
  71 0028 FFF7FEFF 		bl	_thread_memfill
  72              	.LVL3:
  73              	.LBB34:
  74              	.LBB35:
  75              	.LBB36:
  76              	.LBB37:
  77              		.file 2 "../../modules/ChibiOS/os/common/ext/ARM/CMSIS/Core/Include/cmsis_gcc.h"
  78              		.loc 2 493 0
  79 002c 2023     		movs	r3, #32
  80              		.syntax unified
  81              	@ 493 "../../modules/ChibiOS/os/common/ext/ARM/CMSIS/Core/Include/cmsis_gcc.h" 1
  82 002e 83F31188 		MSR basepri, r3
  83              	@ 0 "" 2
  84              	.LVL4:
  85              		.thumb
  86              		.syntax unified
  87              	.LBE37:
  88              	.LBE36:
  89              	.LBE35:
  90              	.LBE34:
  91              		.loc 1 109 0
  92 0032 6846     		mov	r0, sp
  93 0034 FFF7FEFF 		bl	chThdCreateSuspendedI
  94              	.LVL5:
  95              		.loc 1 110 0
  96 0038 0123     		movs	r3, #1
  97 003a 80F82130 		strb	r3, [r0, #33]
  98              		.loc 1 111 0
  99 003e 0021     		movs	r1, #0
 100              		.loc 1 109 0
 101 0040 0446     		mov	r4, r0
 102              	.LVL6:
 103              		.loc 1 111 0
 104 0042 FFF7FEFF 		bl	chSchWakeupS
 105              	.LVL7:
 106              	.LBB38:
 107              	.LBB39:
 108              	.LBB40:
 109              	.LBB41:
 110              	.LBB42:
 111              		.loc 2 493 0
 112 0046 0023     		movs	r3, #0
 113              		.syntax unified
 114              	@ 493 "../../modules/ChibiOS/os/common/ext/ARM/CMSIS/Core/Include/cmsis_gcc.h" 1
ARM GAS  /tmp/cciEH2BQ.s 			page 3


 115 0048 83F31188 		MSR basepri, r3
 116              	@ 0 "" 2
 117              	.LVL8:
 118              		.thumb
 119              		.syntax unified
 120              	.L1:
 121              	.LBE42:
 122              	.LBE41:
 123              	.LBE40:
 124              	.LBE39:
 125              	.LBE38:
 126              		.loc 1 115 0
 127 004c 2046     		mov	r0, r4
 128 004e 07B0     		add	sp, sp, #28
 129              		.cfi_def_cfa_offset 20
 130              		@ sp needed
 131 0050 F0BD     		pop	{r4, r5, r6, r7, pc}
 132              		.cfi_endproc
 133              	.LFE290:
 134              		.size	chThdCreateFromHeap, .-chThdCreateFromHeap
 135              		.section	.text.chThdCreateFromMemoryPool,"ax",%progbits
 136              		.align	1
 137              		.global	chThdCreateFromMemoryPool
 138              		.syntax unified
 139              		.thumb
 140              		.thumb_func
 141              		.fpu fpv4-sp-d16
 142              		.type	chThdCreateFromMemoryPool, %function
 143              	chThdCreateFromMemoryPool:
 144              	.LFB291:
 145              		.loc 1 146 0
 146              		.cfi_startproc
 147              		@ args = 4, pretend = 0, frame = 24
 148              		@ frame_needed = 0, uses_anonymous_args = 0
 149              	.LVL9:
 150 0000 2DE9F041 		push	{r4, r5, r6, r7, r8, lr}
 151              		.cfi_def_cfa_offset 24
 152              		.cfi_offset 4, -24
 153              		.cfi_offset 5, -20
 154              		.cfi_offset 6, -16
 155              		.cfi_offset 7, -12
 156              		.cfi_offset 8, -8
 157              		.cfi_offset 14, -4
 158 0004 86B0     		sub	sp, sp, #24
 159              		.cfi_def_cfa_offset 48
 160              		.loc 1 146 0
 161 0006 0546     		mov	r5, r0
 162 0008 8846     		mov	r8, r1
 163 000a 1746     		mov	r7, r2
 164 000c 1E46     		mov	r6, r3
 165              		.loc 1 152 0
 166 000e FFF7FEFF 		bl	chPoolAlloc
 167              	.LVL10:
 168              		.loc 1 153 0
 169 0012 0446     		mov	r4, r0
 170 0014 E8B1     		cbz	r0, .L4
 171              		.loc 1 160 0
ARM GAS  /tmp/cciEH2BQ.s 			page 4


 172 0016 6968     		ldr	r1, [r5, #4]
 173              		.loc 1 157 0
 174 0018 0C9B     		ldr	r3, [sp, #48]
 175 001a 0593     		str	r3, [sp, #20]
 176              		.loc 1 160 0
 177 001c 0144     		add	r1, r1, r0
 178              		.loc 1 167 0
 179 001e 5522     		movs	r2, #85
 180              		.loc 1 157 0
 181 0020 CDF80080 		str	r8, [sp]
 182 0024 0190     		str	r0, [sp, #4]
 183 0026 0291     		str	r1, [sp, #8]
 184 0028 0397     		str	r7, [sp, #12]
 185 002a 0496     		str	r6, [sp, #16]
 186              		.loc 1 167 0
 187 002c FFF7FEFF 		bl	_thread_memfill
 188              	.LVL11:
 189              	.LBB43:
 190              	.LBB44:
 191              	.LBB45:
 192              	.LBB46:
 193              		.loc 2 493 0
 194 0030 2023     		movs	r3, #32
 195              		.syntax unified
 196              	@ 493 "../../modules/ChibiOS/os/common/ext/ARM/CMSIS/Core/Include/cmsis_gcc.h" 1
 197 0032 83F31188 		MSR basepri, r3
 198              	@ 0 "" 2
 199              	.LVL12:
 200              		.thumb
 201              		.syntax unified
 202              	.LBE46:
 203              	.LBE45:
 204              	.LBE44:
 205              	.LBE43:
 206              		.loc 1 173 0
 207 0036 6846     		mov	r0, sp
 208 0038 FFF7FEFF 		bl	chThdCreateSuspendedI
 209              	.LVL13:
 210              		.loc 1 174 0
 211 003c 0223     		movs	r3, #2
 212 003e 80F82130 		strb	r3, [r0, #33]
 213              		.loc 1 175 0
 214 0042 0564     		str	r5, [r0, #64]
 215              		.loc 1 176 0
 216 0044 0021     		movs	r1, #0
 217              		.loc 1 173 0
 218 0046 0446     		mov	r4, r0
 219              	.LVL14:
 220              		.loc 1 176 0
 221 0048 FFF7FEFF 		bl	chSchWakeupS
 222              	.LVL15:
 223              	.LBB47:
 224              	.LBB48:
 225              	.LBB49:
 226              	.LBB50:
 227              	.LBB51:
 228              		.loc 2 493 0
ARM GAS  /tmp/cciEH2BQ.s 			page 5


 229 004c 0023     		movs	r3, #0
 230              		.syntax unified
 231              	@ 493 "../../modules/ChibiOS/os/common/ext/ARM/CMSIS/Core/Include/cmsis_gcc.h" 1
 232 004e 83F31188 		MSR basepri, r3
 233              	@ 0 "" 2
 234              	.LVL16:
 235              		.thumb
 236              		.syntax unified
 237              	.L4:
 238              	.LBE51:
 239              	.LBE50:
 240              	.LBE49:
 241              	.LBE48:
 242              	.LBE47:
 243              		.loc 1 180 0
 244 0052 2046     		mov	r0, r4
 245 0054 06B0     		add	sp, sp, #24
 246              		.cfi_def_cfa_offset 24
 247              		@ sp needed
 248 0056 BDE8F081 		pop	{r4, r5, r6, r7, r8, pc}
 249              		.cfi_endproc
 250              	.LFE291:
 251              		.size	chThdCreateFromMemoryPool, .-chThdCreateFromMemoryPool
 252              		.text
 253              	.Letext0:
 254              		.file 3 "/opt/gcc-arm-none-eabi-6-2017-q2-update/lib/gcc/arm-none-eabi/6.3.1/include/stddef.h"
 255              		.file 4 "/opt/gcc-arm-none-eabi-6-2017-q2-update/arm-none-eabi/include/machine/_default_types.h"
 256              		.file 5 "/opt/gcc-arm-none-eabi-6-2017-q2-update/arm-none-eabi/include/sys/_stdint.h"
 257              		.file 6 "../../modules/ChibiOS/os/common/ports/ARMCMx/compilers/GCC/chtypes.h"
 258              		.file 7 "../../modules/ChibiOS/os/rt/include/chsystypes.h"
 259              		.file 8 "../../modules/ChibiOS/os/rt/include/chschd.h"
 260              		.file 9 "../../modules/ChibiOS/os/rt/include/chtime.h"
 261              		.file 10 "../../modules/ChibiOS/os/common/ext/ARM/CMSIS/Core/Include/core_cm4.h"
 262              		.file 11 "../../modules/ChibiOS/os/common/ext/ST/STM32F4xx/system_stm32f4xx.h"
 263              		.file 12 "../../modules/ChibiOS/os/common/ports/ARMCMx/chcore.h"
 264              		.file 13 "../../modules/ChibiOS/os/common/ports/ARMCMx/chcore_v7m.h"
 265              		.file 14 "../../modules/ChibiOS/os/rt/include/chtm.h"
 266              		.file 15 "../../modules/ChibiOS/os/rt/include/chsem.h"
 267              		.file 16 "../../modules/ChibiOS/os/rt/include/chmtx.h"
 268              		.file 17 "../../modules/ChibiOS/os/rt/include/chsys.h"
 269              		.file 18 "../../modules/ChibiOS/os/rt/include/chthreads.h"
 270              		.file 19 "../../modules/ChibiOS/os/rt/include/chregistry.h"
 271              		.file 20 "../../modules/ChibiOS/os/oslib/include/chmemcore.h"
 272              		.file 21 "../../modules/ChibiOS/os/oslib/include/chmemheaps.h"
 273              		.file 22 "../../modules/ChibiOS/os/oslib/include/chmempools.h"
 274              		.file 23 "../../modules/ChibiOS/os/oslib/include/chfactory.h"