ARM GAS  /tmp/cczpUTSv.s 			page 1


   1              		.cpu cortex-m4
   2              		.eabi_attribute 27, 1
   3              		.eabi_attribute 28, 1
   4              		.eabi_attribute 20, 1
   5              		.eabi_attribute 21, 1
   6              		.eabi_attribute 23, 3
   7              		.eabi_attribute 24, 1
   8              		.eabi_attribute 25, 1
   9              		.eabi_attribute 26, 1
  10              		.eabi_attribute 30, 4
  11              		.eabi_attribute 34, 1
  12              		.eabi_attribute 18, 4
  13              		.file	"chmempools.c"
  14              		.text
  15              	.Ltext0:
  16              		.cfi_sections	.debug_frame
  17              		.section	.text.chPoolObjectInitAligned,"ax",%progbits
  18              		.align	1
  19              		.global	chPoolObjectInitAligned
  20              		.syntax unified
  21              		.thumb
  22              		.thumb_func
  23              		.fpu fpv4-sp-d16
  24              		.type	chPoolObjectInitAligned, %function
  25              	chPoolObjectInitAligned:
  26              	.LFB290:
  27              		.file 1 "../../modules/ChibiOS/os/oslib/src/chmempools.c"
  28              		.loc 1 78 0
  29              		.cfi_startproc
  30              		@ args = 0, pretend = 0, frame = 0
  31              		@ frame_needed = 0, uses_anonymous_args = 0
  32              	.LVL0:
  33 0000 10B5     		push	{r4, lr}
  34              		.cfi_def_cfa_offset 8
  35              		.cfi_offset 4, -8
  36              		.cfi_offset 14, -4
  37              		.loc 1 85 0
  38 0002 0024     		movs	r4, #0
  39 0004 0460     		str	r4, [r0]
  40              		.loc 1 86 0
  41 0006 4160     		str	r1, [r0, #4]
  42              		.loc 1 87 0
  43 0008 8260     		str	r2, [r0, #8]
  44              		.loc 1 88 0
  45 000a C360     		str	r3, [r0, #12]
  46 000c 10BD     		pop	{r4, pc}
  47              		.cfi_endproc
  48              	.LFE290:
  49              		.size	chPoolObjectInitAligned, .-chPoolObjectInitAligned
  50              		.section	.text.chPoolAllocI,"ax",%progbits
  51              		.align	1
  52              		.global	chPoolAllocI
  53              		.syntax unified
  54              		.thumb
  55              		.thumb_func
  56              		.fpu fpv4-sp-d16
  57              		.type	chPoolAllocI, %function
ARM GAS  /tmp/cczpUTSv.s 			page 2


  58              	chPoolAllocI:
  59              	.LFB292:
  60              		.loc 1 129 0
  61              		.cfi_startproc
  62              		@ args = 0, pretend = 0, frame = 0
  63              		@ frame_needed = 0, uses_anonymous_args = 0
  64              		@ link register save eliminated.
  65              	.LVL1:
  66              		.loc 1 129 0
  67 0000 0346     		mov	r3, r0
  68              		.loc 1 135 0
  69 0002 0068     		ldr	r0, [r0]
  70              	.LVL2:
  71              		.loc 1 137 0
  72 0004 10B1     		cbz	r0, .L3
  73              		.loc 1 138 0
  74 0006 0268     		ldr	r2, [r0]
  75 0008 1A60     		str	r2, [r3]
  76 000a 7047     		bx	lr
  77              	.L3:
  78              		.loc 1 140 0
  79 000c DA68     		ldr	r2, [r3, #12]
  80 000e 12B1     		cbz	r2, .L2
  81              		.loc 1 141 0
  82 0010 9968     		ldr	r1, [r3, #8]
  83 0012 5868     		ldr	r0, [r3, #4]
  84              	.LVL3:
  85 0014 1047     		bx	r2
  86              	.LVL4:
  87              	.L2:
  88              		.loc 1 149 0
  89 0016 7047     		bx	lr
  90              		.cfi_endproc
  91              	.LFE292:
  92              		.size	chPoolAllocI, .-chPoolAllocI
  93              		.section	.text.chPoolAlloc,"ax",%progbits
  94              		.align	1
  95              		.global	chPoolAlloc
  96              		.syntax unified
  97              		.thumb
  98              		.thumb_func
  99              		.fpu fpv4-sp-d16
 100              		.type	chPoolAlloc, %function
 101              	chPoolAlloc:
 102              	.LFB293:
 103              		.loc 1 161 0
 104              		.cfi_startproc
 105              		@ args = 0, pretend = 0, frame = 0
 106              		@ frame_needed = 0, uses_anonymous_args = 0
 107              	.LVL5:
 108 0000 08B5     		push	{r3, lr}
 109              		.cfi_def_cfa_offset 8
 110              		.cfi_offset 3, -8
 111              		.cfi_offset 14, -4
 112              	.LBB64:
 113              	.LBB65:
 114              	.LBB66:
ARM GAS  /tmp/cczpUTSv.s 			page 3


 115              	.LBB67:
 116              		.file 2 "../../modules/ChibiOS/os/common/ext/ARM/CMSIS/Core/Include/cmsis_gcc.h"
 117              		.loc 2 493 0
 118 0002 2023     		movs	r3, #32
 119              		.syntax unified
 120              	@ 493 "../../modules/ChibiOS/os/common/ext/ARM/CMSIS/Core/Include/cmsis_gcc.h" 1
 121 0004 83F31188 		MSR basepri, r3
 122              	@ 0 "" 2
 123              	.LVL6:
 124              		.thumb
 125              		.syntax unified
 126              	.LBE67:
 127              	.LBE66:
 128              	.LBE65:
 129              	.LBE64:
 130              		.loc 1 165 0
 131 0008 FFF7FEFF 		bl	chPoolAllocI
 132              	.LVL7:
 133              	.LBB68:
 134              	.LBB69:
 135              	.LBB70:
 136              	.LBB71:
 137              	.LBB72:
 138              		.loc 2 493 0
 139 000c 0023     		movs	r3, #0
 140              		.syntax unified
 141              	@ 493 "../../modules/ChibiOS/os/common/ext/ARM/CMSIS/Core/Include/cmsis_gcc.h" 1
 142 000e 83F31188 		MSR basepri, r3
 143              	@ 0 "" 2
 144              	.LVL8:
 145              		.thumb
 146              		.syntax unified
 147              	.LBE72:
 148              	.LBE71:
 149              	.LBE70:
 150              	.LBE69:
 151              	.LBE68:
 152              		.loc 1 169 0
 153 0012 08BD     		pop	{r3, pc}
 154              		.cfi_endproc
 155              	.LFE293:
 156              		.size	chPoolAlloc, .-chPoolAlloc
 157              		.section	.text.chPoolFreeI,"ax",%progbits
 158              		.align	1
 159              		.global	chPoolFreeI
 160              		.syntax unified
 161              		.thumb
 162              		.thumb_func
 163              		.fpu fpv4-sp-d16
 164              		.type	chPoolFreeI, %function
 165              	chPoolFreeI:
 166              	.LFB294:
 167              		.loc 1 183 0
 168              		.cfi_startproc
 169              		@ args = 0, pretend = 0, frame = 0
 170              		@ frame_needed = 0, uses_anonymous_args = 0
 171              		@ link register save eliminated.
ARM GAS  /tmp/cczpUTSv.s 			page 4


 172              	.LVL9:
 173              		.loc 1 191 0
 174 0000 0368     		ldr	r3, [r0]
 175 0002 0B60     		str	r3, [r1]
 176              		.loc 1 192 0
 177 0004 0160     		str	r1, [r0]
 178 0006 7047     		bx	lr
 179              		.cfi_endproc
 180              	.LFE294:
 181              		.size	chPoolFreeI, .-chPoolFreeI
 182              		.section	.text.chPoolFree,"ax",%progbits
 183              		.align	1
 184              		.global	chPoolFree
 185              		.syntax unified
 186              		.thumb
 187              		.thumb_func
 188              		.fpu fpv4-sp-d16
 189              		.type	chPoolFree, %function
 190              	chPoolFree:
 191              	.LFB295:
 192              		.loc 1 207 0
 193              		.cfi_startproc
 194              		@ args = 0, pretend = 0, frame = 0
 195              		@ frame_needed = 0, uses_anonymous_args = 0
 196              		@ link register save eliminated.
 197              	.LVL10:
 198              	.LBB73:
 199              	.LBB74:
 200              	.LBB75:
 201              	.LBB76:
 202              		.loc 2 493 0
 203 0000 2023     		movs	r3, #32
 204              		.syntax unified
 205              	@ 493 "../../modules/ChibiOS/os/common/ext/ARM/CMSIS/Core/Include/cmsis_gcc.h" 1
 206 0002 83F31188 		MSR basepri, r3
 207              	@ 0 "" 2
 208              	.LVL11:
 209              		.thumb
 210              		.syntax unified
 211              	.LBE76:
 212              	.LBE75:
 213              	.LBE74:
 214              	.LBE73:
 215              	.LBB77:
 216              	.LBB78:
 217              		.loc 1 191 0
 218 0006 0368     		ldr	r3, [r0]
 219 0008 0B60     		str	r3, [r1]
 220              		.loc 1 192 0
 221 000a 0160     		str	r1, [r0]
 222              	.LVL12:
 223              	.LBE78:
 224              	.LBE77:
 225              	.LBB79:
 226              	.LBB80:
 227              	.LBB81:
 228              	.LBB82:
ARM GAS  /tmp/cczpUTSv.s 			page 5


 229              	.LBB83:
 230              		.loc 2 493 0
 231 000c 0023     		movs	r3, #0
 232              		.syntax unified
 233              	@ 493 "../../modules/ChibiOS/os/common/ext/ARM/CMSIS/Core/Include/cmsis_gcc.h" 1
 234 000e 83F31188 		MSR basepri, r3
 235              	@ 0 "" 2
 236              	.LVL13:
 237              		.thumb
 238              		.syntax unified
 239 0012 7047     		bx	lr
 240              	.LBE83:
 241              	.LBE82:
 242              	.LBE81:
 243              	.LBE80:
 244              	.LBE79:
 245              		.cfi_endproc
 246              	.LFE295:
 247              		.size	chPoolFree, .-chPoolFree
 248              		.section	.text.chPoolLoadArray,"ax",%progbits
 249              		.align	1
 250              		.global	chPoolLoadArray
 251              		.syntax unified
 252              		.thumb
 253              		.thumb_func
 254              		.fpu fpv4-sp-d16
 255              		.type	chPoolLoadArray, %function
 256              	chPoolLoadArray:
 257              	.LFB291:
 258              		.loc 1 106 0
 259              		.cfi_startproc
 260              		@ args = 0, pretend = 0, frame = 0
 261              		@ frame_needed = 0, uses_anonymous_args = 0
 262              	.LVL14:
 263 0000 38B5     		push	{r3, r4, r5, lr}
 264              		.cfi_def_cfa_offset 16
 265              		.cfi_offset 3, -16
 266              		.cfi_offset 4, -12
 267              		.cfi_offset 5, -8
 268              		.cfi_offset 14, -4
 269 0002 0546     		mov	r5, r0
 270 0004 0C46     		mov	r4, r1
 271              	.LVL15:
 272              	.L12:
 273              		.loc 1 110 0
 274 0006 02B9     		cbnz	r2, .L13
 275              		.loc 1 117 0
 276 0008 38BD     		pop	{r3, r4, r5, pc}
 277              	.LVL16:
 278              	.L13:
 279              	.LBB84:
 280              	.LBB85:
 281              		.file 3 "../../modules/ChibiOS/os/oslib/include/chmempools.h"
 282              		.loc 3 212 0
 283 000a 2146     		mov	r1, r4
 284 000c 2846     		mov	r0, r5
 285              	.LVL17:
ARM GAS  /tmp/cczpUTSv.s 			page 6


 286 000e FFF7FEFF 		bl	chPoolFree
 287              	.LVL18:
 288              	.LBE85:
 289              	.LBE84:
 290              		.loc 1 113 0
 291 0012 6B68     		ldr	r3, [r5, #4]
 292              		.loc 1 115 0
 293 0014 013A     		subs	r2, r2, #1
 294              	.LVL19:
 295              		.loc 1 113 0
 296 0016 1C44     		add	r4, r4, r3
 297              	.LVL20:
 298 0018 F5E7     		b	.L12
 299              		.cfi_endproc
 300              	.LFE291:
 301              		.size	chPoolLoadArray, .-chPoolLoadArray
 302              		.section	.text.chGuardedPoolObjectInitAligned,"ax",%progbits
 303              		.align	1
 304              		.global	chGuardedPoolObjectInitAligned
 305              		.syntax unified
 306              		.thumb
 307              		.thumb_func
 308              		.fpu fpv4-sp-d16
 309              		.type	chGuardedPoolObjectInitAligned, %function
 310              	chGuardedPoolObjectInitAligned:
 311              	.LFB296:
 312              		.loc 1 228 0
 313              		.cfi_startproc
 314              		@ args = 0, pretend = 0, frame = 0
 315              		@ frame_needed = 0, uses_anonymous_args = 0
 316              		@ link register save eliminated.
 317              	.LVL21:
 318 0000 10B4     		push	{r4}
 319              		.cfi_def_cfa_offset 4
 320              		.cfi_offset 4, -4
 321              	.LBB86:
 322              	.LBB87:
 323              		.loc 1 85 0
 324 0002 0024     		movs	r4, #0
 325 0004 C460     		str	r4, [r0, #12]
 326              		.loc 1 86 0
 327 0006 0161     		str	r1, [r0, #16]
 328              		.loc 1 88 0
 329 0008 8461     		str	r4, [r0, #24]
 330              	.LVL22:
 331              	.LBE87:
 332              	.LBE86:
 333              		.loc 1 231 0
 334 000a 2146     		mov	r1, r4
 335              	.LVL23:
 336              	.LBB89:
 337              	.LBB88:
 338              		.loc 1 87 0
 339 000c 4261     		str	r2, [r0, #20]
 340              	.LBE88:
 341              	.LBE89:
 342              		.loc 1 232 0
ARM GAS  /tmp/cczpUTSv.s 			page 7


 343 000e 5DF8044B 		ldr	r4, [sp], #4
 344              		.cfi_restore 4
 345              		.cfi_def_cfa_offset 0
 346              		.loc 1 231 0
 347 0012 FFF7FEBF 		b	chSemObjectInit
 348              	.LVL24:
 349              		.cfi_endproc
 350              	.LFE296:
 351              		.size	chGuardedPoolObjectInitAligned, .-chGuardedPoolObjectInitAligned
 352              		.section	.text.chGuardedPoolAllocTimeoutS,"ax",%progbits
 353              		.align	1
 354              		.global	chGuardedPoolAllocTimeoutS
 355              		.syntax unified
 356              		.thumb
 357              		.thumb_func
 358              		.fpu fpv4-sp-d16
 359              		.type	chGuardedPoolAllocTimeoutS, %function
 360              	chGuardedPoolAllocTimeoutS:
 361              	.LFB298:
 362              		.loc 1 276 0
 363              		.cfi_startproc
 364              		@ args = 0, pretend = 0, frame = 0
 365              		@ frame_needed = 0, uses_anonymous_args = 0
 366              	.LVL25:
 367 0000 10B5     		push	{r4, lr}
 368              		.cfi_def_cfa_offset 8
 369              		.cfi_offset 4, -8
 370              		.cfi_offset 14, -4
 371              		.loc 1 276 0
 372 0002 0446     		mov	r4, r0
 373              		.loc 1 279 0
 374 0004 FFF7FEFF 		bl	chSemWaitTimeoutS
 375              	.LVL26:
 376              		.loc 1 280 0
 377 0008 28B9     		cbnz	r0, .L16
 378              		.loc 1 284 0
 379 000a 04F10C00 		add	r0, r4, #12
 380              	.LVL27:
 381              		.loc 1 285 0
 382 000e BDE81040 		pop	{r4, lr}
 383              		.cfi_remember_state
 384              		.cfi_restore 14
 385              		.cfi_restore 4
 386              		.cfi_def_cfa_offset 0
 387              	.LVL28:
 388              		.loc 1 284 0
 389 0012 FFF7FEBF 		b	chPoolAllocI
 390              	.LVL29:
 391              	.L16:
 392              		.cfi_restore_state
 393              		.loc 1 285 0
 394 0016 0020     		movs	r0, #0
 395              	.LVL30:
 396 0018 10BD     		pop	{r4, pc}
 397              		.cfi_endproc
 398              	.LFE298:
 399              		.size	chGuardedPoolAllocTimeoutS, .-chGuardedPoolAllocTimeoutS
ARM GAS  /tmp/cczpUTSv.s 			page 8


 400              		.section	.text.chGuardedPoolAllocTimeout,"ax",%progbits
 401              		.align	1
 402              		.global	chGuardedPoolAllocTimeout
 403              		.syntax unified
 404              		.thumb
 405              		.thumb_func
 406              		.fpu fpv4-sp-d16
 407              		.type	chGuardedPoolAllocTimeout, %function
 408              	chGuardedPoolAllocTimeout:
 409              	.LFB299:
 410              		.loc 1 303 0
 411              		.cfi_startproc
 412              		@ args = 0, pretend = 0, frame = 0
 413              		@ frame_needed = 0, uses_anonymous_args = 0
 414              	.LVL31:
 415 0000 08B5     		push	{r3, lr}
 416              		.cfi_def_cfa_offset 8
 417              		.cfi_offset 3, -8
 418              		.cfi_offset 14, -4
 419              	.LBB90:
 420              	.LBB91:
 421              	.LBB92:
 422              	.LBB93:
 423              		.loc 2 493 0
 424 0002 2023     		movs	r3, #32
 425              		.syntax unified
 426              	@ 493 "../../modules/ChibiOS/os/common/ext/ARM/CMSIS/Core/Include/cmsis_gcc.h" 1
 427 0004 83F31188 		MSR basepri, r3
 428              	@ 0 "" 2
 429              	.LVL32:
 430              		.thumb
 431              		.syntax unified
 432              	.LBE93:
 433              	.LBE92:
 434              	.LBE91:
 435              	.LBE90:
 436              		.loc 1 307 0
 437 0008 FFF7FEFF 		bl	chGuardedPoolAllocTimeoutS
 438              	.LVL33:
 439              	.LBB94:
 440              	.LBB95:
 441              	.LBB96:
 442              	.LBB97:
 443              	.LBB98:
 444              		.loc 2 493 0
 445 000c 0023     		movs	r3, #0
 446              		.syntax unified
 447              	@ 493 "../../modules/ChibiOS/os/common/ext/ARM/CMSIS/Core/Include/cmsis_gcc.h" 1
 448 000e 83F31188 		MSR basepri, r3
 449              	@ 0 "" 2
 450              	.LVL34:
 451              		.thumb
 452              		.syntax unified
 453              	.LBE98:
 454              	.LBE97:
 455              	.LBE96:
 456              	.LBE95:
ARM GAS  /tmp/cczpUTSv.s 			page 9


 457              	.LBE94:
 458              		.loc 1 311 0
 459 0012 08BD     		pop	{r3, pc}
 460              		.cfi_endproc
 461              	.LFE299:
 462              		.size	chGuardedPoolAllocTimeout, .-chGuardedPoolAllocTimeout
 463              		.section	.text.chGuardedPoolFree,"ax",%progbits
 464              		.align	1
 465              		.global	chGuardedPoolFree
 466              		.syntax unified
 467              		.thumb
 468              		.thumb_func
 469              		.fpu fpv4-sp-d16
 470              		.type	chGuardedPoolFree, %function
 471              	chGuardedPoolFree:
 472              	.LFB300:
 473              		.loc 1 325 0
 474              		.cfi_startproc
 475              		@ args = 0, pretend = 0, frame = 0
 476              		@ frame_needed = 0, uses_anonymous_args = 0
 477              	.LVL35:
 478 0000 08B5     		push	{r3, lr}
 479              		.cfi_def_cfa_offset 8
 480              		.cfi_offset 3, -8
 481              		.cfi_offset 14, -4
 482              	.LBB112:
 483              	.LBB113:
 484              	.LBB114:
 485              	.LBB115:
 486              		.loc 2 493 0
 487 0002 2022     		movs	r2, #32
 488              		.syntax unified
 489              	@ 493 "../../modules/ChibiOS/os/common/ext/ARM/CMSIS/Core/Include/cmsis_gcc.h" 1
 490 0004 82F31188 		MSR basepri, r2
 491              	@ 0 "" 2
 492              	.LVL36:
 493              		.thumb
 494              		.syntax unified
 495              	.LBE115:
 496              	.LBE114:
 497              	.LBE113:
 498              	.LBE112:
 499              	.LBB116:
 500              	.LBB117:
 501              	.LBB118:
 502              	.LBB119:
 503              		.loc 1 191 0
 504 0008 C268     		ldr	r2, [r0, #12]
 505 000a 0A60     		str	r2, [r1]
 506              		.loc 1 192 0
 507 000c C160     		str	r1, [r0, #12]
 508              	.LVL37:
 509              	.LBE119:
 510              	.LBE118:
 511              		.loc 3 288 0
 512 000e FFF7FEFF 		bl	chSemSignalI
 513              	.LVL38:
ARM GAS  /tmp/cczpUTSv.s 			page 10


 514              	.LBE117:
 515              	.LBE116:
 516              		.loc 1 329 0
 517 0012 FFF7FEFF 		bl	chSchRescheduleS
 518              	.LVL39:
 519              	.LBB120:
 520              	.LBB121:
 521              	.LBB122:
 522              	.LBB123:
 523              	.LBB124:
 524              		.loc 2 493 0
 525 0016 0023     		movs	r3, #0
 526              		.syntax unified
 527              	@ 493 "../../modules/ChibiOS/os/common/ext/ARM/CMSIS/Core/Include/cmsis_gcc.h" 1
 528 0018 83F31188 		MSR basepri, r3
 529              	@ 0 "" 2
 530              	.LVL40:
 531              		.thumb
 532              		.syntax unified
 533 001c 08BD     		pop	{r3, pc}
 534              	.LBE124:
 535              	.LBE123:
 536              	.LBE122:
 537              	.LBE121:
 538              	.LBE120:
 539              		.cfi_endproc
 540              	.LFE300:
 541              		.size	chGuardedPoolFree, .-chGuardedPoolFree
 542              		.section	.text.chGuardedPoolLoadArray,"ax",%progbits
 543              		.align	1
 544              		.global	chGuardedPoolLoadArray
 545              		.syntax unified
 546              		.thumb
 547              		.thumb_func
 548              		.fpu fpv4-sp-d16
 549              		.type	chGuardedPoolLoadArray, %function
 550              	chGuardedPoolLoadArray:
 551              	.LFB297:
 552              		.loc 1 247 0
 553              		.cfi_startproc
 554              		@ args = 0, pretend = 0, frame = 0
 555              		@ frame_needed = 0, uses_anonymous_args = 0
 556              	.LVL41:
 557 0000 70B5     		push	{r4, r5, r6, lr}
 558              		.cfi_def_cfa_offset 16
 559              		.cfi_offset 4, -16
 560              		.cfi_offset 5, -12
 561              		.cfi_offset 6, -8
 562              		.cfi_offset 14, -4
 563 0002 0646     		mov	r6, r0
 564 0004 0D46     		mov	r5, r1
 565 0006 1446     		mov	r4, r2
 566              	.LVL42:
 567              	.L20:
 568              		.loc 1 251 0
 569 0008 04B9     		cbnz	r4, .L21
 570              		.loc 1 258 0
ARM GAS  /tmp/cczpUTSv.s 			page 11


 571 000a 70BD     		pop	{r4, r5, r6, pc}
 572              	.LVL43:
 573              	.L21:
 574              	.LBB125:
 575              	.LBB126:
 576              		.loc 3 325 0
 577 000c 2946     		mov	r1, r5
 578 000e 3046     		mov	r0, r6
 579 0010 FFF7FEFF 		bl	chGuardedPoolFree
 580              	.LVL44:
 581              	.LBE126:
 582              	.LBE125:
 583              		.loc 1 254 0
 584 0014 3369     		ldr	r3, [r6, #16]
 585              		.loc 1 256 0
 586 0016 013C     		subs	r4, r4, #1
 587              	.LVL45:
 588              		.loc 1 254 0
 589 0018 1D44     		add	r5, r5, r3
 590              	.LVL46:
 591 001a F5E7     		b	.L20
 592              		.cfi_endproc
 593              	.LFE297:
 594              		.size	chGuardedPoolLoadArray, .-chGuardedPoolLoadArray
 595              		.text
 596              	.Letext0:
 597              		.file 4 "/opt/gcc-arm-none-eabi-6-2017-q2-update/lib/gcc/arm-none-eabi/6.3.1/include/stddef.h"
 598              		.file 5 "/opt/gcc-arm-none-eabi-6-2017-q2-update/arm-none-eabi/include/machine/_default_types.h"
 599              		.file 6 "/opt/gcc-arm-none-eabi-6-2017-q2-update/arm-none-eabi/include/sys/_stdint.h"
 600              		.file 7 "../../modules/ChibiOS/os/common/ports/ARMCMx/compilers/GCC/chtypes.h"
 601              		.file 8 "../../modules/ChibiOS/os/rt/include/chsystypes.h"
 602              		.file 9 "../../modules/ChibiOS/os/rt/include/chschd.h"
 603              		.file 10 "../../modules/ChibiOS/os/rt/include/chtime.h"
 604              		.file 11 "../../modules/ChibiOS/os/common/ext/ARM/CMSIS/Core/Include/core_cm4.h"
 605              		.file 12 "../../modules/ChibiOS/os/common/ext/ST/STM32F4xx/system_stm32f4xx.h"
 606              		.file 13 "../../modules/ChibiOS/os/common/ports/ARMCMx/chcore.h"
 607              		.file 14 "../../modules/ChibiOS/os/common/ports/ARMCMx/chcore_v7m.h"
 608              		.file 15 "../../modules/ChibiOS/os/rt/include/chtm.h"
 609              		.file 16 "../../modules/ChibiOS/os/rt/include/chsem.h"
 610              		.file 17 "../../modules/ChibiOS/os/rt/include/chmtx.h"
 611              		.file 18 "../../modules/ChibiOS/os/rt/include/chsys.h"
 612              		.file 19 "../../modules/ChibiOS/os/rt/include/chregistry.h"
 613              		.file 20 "../../modules/ChibiOS/os/oslib/include/chmemcore.h"
 614              		.file 21 "../../modules/ChibiOS/os/oslib/include/chfactory.h"