ARM GAS  /tmp/ccWkTx1E.s 			page 1


   1              		.cpu cortex-m4
   2              		.eabi_attribute 27, 1
   3              		.eabi_attribute 28, 1
   4              		.eabi_attribute 20, 1
   5              		.eabi_attribute 21, 1
   6              		.eabi_attribute 23, 3
   7              		.eabi_attribute 24, 1
   8              		.eabi_attribute 25, 1
   9              		.eabi_attribute 26, 1
  10              		.eabi_attribute 30, 4
  11              		.eabi_attribute 34, 1
  12              		.eabi_attribute 18, 4
  13              		.file	"chmtx.c"
  14              		.text
  15              	.Ltext0:
  16              		.cfi_sections	.debug_frame
  17              		.section	.text.queue_prio_insert,"ax",%progbits
  18              		.align	1
  19              		.syntax unified
  20              		.thumb
  21              		.thumb_func
  22              		.fpu fpv4-sp-d16
  23              		.type	queue_prio_insert, %function
  24              	queue_prio_insert:
  25              	.LFB172:
  26              		.file 1 "../../modules/ChibiOS/os/rt/include/chschd.h"
  27              		.loc 1 586 0
  28              		.cfi_startproc
  29              		@ args = 0, pretend = 0, frame = 0
  30              		@ frame_needed = 0, uses_anonymous_args = 0
  31              	.LVL0:
  32 0000 10B5     		push	{r4, lr}
  33              		.cfi_def_cfa_offset 8
  34              		.cfi_offset 4, -8
  35              		.cfi_offset 14, -4
  36              		.loc 1 586 0
  37 0002 0B46     		mov	r3, r1
  38              	.LVL1:
  39              	.L3:
  40              		.loc 1 590 0 discriminator 2
  41 0004 1B68     		ldr	r3, [r3]
  42              	.LVL2:
  43              		.loc 1 591 0 discriminator 2
  44 0006 9942     		cmp	r1, r3
  45 0008 05D1     		bne	.L2
  46              	.L4:
  47              		.loc 1 593 0
  48 000a 5A68     		ldr	r2, [r3, #4]
  49              		.loc 1 592 0
  50 000c 0360     		str	r3, [r0]
  51              		.loc 1 593 0
  52 000e 4260     		str	r2, [r0, #4]
  53              		.loc 1 594 0
  54 0010 1060     		str	r0, [r2]
  55              		.loc 1 595 0
  56 0012 5860     		str	r0, [r3, #4]
  57              		.loc 1 596 0
ARM GAS  /tmp/ccWkTx1E.s 			page 2


  58 0014 10BD     		pop	{r4, pc}
  59              	.L2:
  60              		.loc 1 591 0 discriminator 1
  61 0016 9C68     		ldr	r4, [r3, #8]
  62 0018 8268     		ldr	r2, [r0, #8]
  63 001a 9442     		cmp	r4, r2
  64 001c F2D2     		bcs	.L3
  65 001e F4E7     		b	.L4
  66              		.cfi_endproc
  67              	.LFE172:
  68              		.size	queue_prio_insert, .-queue_prio_insert
  69              		.section	.text.chMtxObjectInit,"ax",%progbits
  70              		.align	1
  71              		.global	chMtxObjectInit
  72              		.syntax unified
  73              		.thumb
  74              		.thumb_func
  75              		.fpu fpv4-sp-d16
  76              		.type	chMtxObjectInit, %function
  77              	chMtxObjectInit:
  78              	.LFB290:
  79              		.file 2 "../../modules/ChibiOS/os/rt/src/chmtx.c"
  80              		.loc 2 103 0
  81              		.cfi_startproc
  82              		@ args = 0, pretend = 0, frame = 0
  83              		@ frame_needed = 0, uses_anonymous_args = 0
  84              		@ link register save eliminated.
  85              	.LVL3:
  86              		.loc 2 108 0
  87 0000 0023     		movs	r3, #0
  88              	.LBB96:
  89              	.LBB97:
  90              		.loc 1 539 0
  91 0002 0060     		str	r0, [r0]
  92              		.loc 1 540 0
  93 0004 4060     		str	r0, [r0, #4]
  94              	.LVL4:
  95              	.LBE97:
  96              	.LBE96:
  97              		.loc 2 108 0
  98 0006 8360     		str	r3, [r0, #8]
  99              		.loc 2 110 0
 100 0008 0361     		str	r3, [r0, #16]
 101 000a 7047     		bx	lr
 102              		.cfi_endproc
 103              	.LFE290:
 104              		.size	chMtxObjectInit, .-chMtxObjectInit
 105              		.section	.text.chMtxLockS,"ax",%progbits
 106              		.align	1
 107              		.global	chMtxLockS
 108              		.syntax unified
 109              		.thumb
 110              		.thumb_func
 111              		.fpu fpv4-sp-d16
 112              		.type	chMtxLockS, %function
 113              	chMtxLockS:
 114              	.LFB292:
ARM GAS  /tmp/ccWkTx1E.s 			page 3


 115              		.loc 2 139 0
 116              		.cfi_startproc
 117              		@ args = 0, pretend = 0, frame = 0
 118              		@ frame_needed = 0, uses_anonymous_args = 0
 119              	.LVL5:
 120 0000 70B5     		push	{r4, r5, r6, lr}
 121              		.cfi_def_cfa_offset 16
 122              		.cfi_offset 4, -16
 123              		.cfi_offset 5, -12
 124              		.cfi_offset 6, -8
 125              		.cfi_offset 14, -4
 126              		.loc 2 140 0
 127 0002 234B     		ldr	r3, .L18
 128              		.loc 2 146 0
 129 0004 8468     		ldr	r4, [r0, #8]
 130              		.loc 2 140 0
 131 0006 9E69     		ldr	r6, [r3, #24]
 132              	.LVL6:
 133              		.loc 2 139 0
 134 0008 0546     		mov	r5, r0
 135              		.loc 2 146 0
 136 000a 002C     		cmp	r4, #0
 137 000c 38D0     		beq	.L9
 138              		.loc 2 153 0
 139 000e A642     		cmp	r6, r4
 140 0010 0ED1     		bne	.L11
 141              		.loc 2 154 0
 142 0012 0369     		ldr	r3, [r0, #16]
 143 0014 0133     		adds	r3, r3, #1
 144 0016 0361     		str	r3, [r0, #16]
 145 0018 70BD     		pop	{r4, r5, r6, pc}
 146              	.LVL7:
 147              	.L14:
 148              	.LBB105:
 149              	.LBB106:
 150              	.LBB107:
 151              		.loc 1 626 0
 152 001a 94E80C00 		ldm	r4, {r2, r3}
 153 001e 1A60     		str	r2, [r3]
 154              		.loc 1 627 0
 155 0020 2268     		ldr	r2, [r4]
 156 0022 5360     		str	r3, [r2, #4]
 157              	.LVL8:
 158              	.LBE107:
 159              	.LBE106:
 160              		.loc 2 173 0
 161 0024 616A     		ldr	r1, [r4, #36]
 162 0026 2046     		mov	r0, r4
 163 0028 FFF7FEFF 		bl	queue_prio_insert
 164              	.LVL9:
 165              		.loc 2 174 0
 166 002c 636A     		ldr	r3, [r4, #36]
 167 002e 9C68     		ldr	r4, [r3, #8]
 168              	.LVL10:
 169              	.L11:
 170              		.loc 2 165 0
 171 0030 B368     		ldr	r3, [r6, #8]
ARM GAS  /tmp/ccWkTx1E.s 			page 4


 172 0032 A268     		ldr	r2, [r4, #8]
 173 0034 9A42     		cmp	r2, r3
 174 0036 19D2     		bcs	.L13
 175              		.loc 2 167 0
 176 0038 A360     		str	r3, [r4, #8]
 177              		.loc 2 170 0
 178 003a 94F82030 		ldrb	r3, [r4, #32]	@ zero_extendqisi2
 179 003e 062B     		cmp	r3, #6
 180 0040 EBD0     		beq	.L14
 181 0042 072B     		cmp	r3, #7
 182 0044 09D0     		beq	.L15
 183 0046 8BB9     		cbnz	r3, .L13
 184              	.LVL11:
 185              	.LBB108:
 186              	.LBB109:
 187              		.loc 1 626 0
 188 0048 94E80C00 		ldm	r4, {r2, r3}
 189 004c 1A60     		str	r2, [r3]
 190              		.loc 1 627 0
 191 004e 2268     		ldr	r2, [r4]
 192              	.LBE109:
 193              	.LBE108:
 194              		.loc 2 202 0
 195 0050 2046     		mov	r0, r4
 196              	.LBB111:
 197              	.LBB110:
 198              		.loc 1 627 0
 199 0052 5360     		str	r3, [r2, #4]
 200              	.LVL12:
 201              	.LBE110:
 202              	.LBE111:
 203              		.loc 2 202 0
 204 0054 FFF7FEFF 		bl	chSchReadyI
 205              	.LVL13:
 206              		.loc 2 203 0
 207 0058 08E0     		b	.L13
 208              	.L15:
 209              	.LVL14:
 210              	.LBB112:
 211              	.LBB113:
 212              		.loc 1 626 0
 213 005a 94E80C00 		ldm	r4, {r2, r3}
 214 005e 1A60     		str	r2, [r3]
 215              		.loc 1 627 0
 216 0060 2268     		ldr	r2, [r4]
 217 0062 5360     		str	r3, [r2, #4]
 218              	.LVL15:
 219              	.LBE113:
 220              	.LBE112:
 221              		.loc 2 193 0
 222 0064 616A     		ldr	r1, [r4, #36]
 223 0066 2046     		mov	r0, r4
 224 0068 FFF7FEFF 		bl	queue_prio_insert
 225              	.LVL16:
 226              	.L13:
 227              		.loc 2 212 0
 228 006c 3046     		mov	r0, r6
ARM GAS  /tmp/ccWkTx1E.s 			page 5


 229 006e 2946     		mov	r1, r5
 230 0070 FFF7FEFF 		bl	queue_prio_insert
 231              	.LVL17:
 232              		.loc 2 213 0
 233 0074 7562     		str	r5, [r6, #36]
 234              		.loc 2 214 0
 235 0076 0620     		movs	r0, #6
 236              	.LBE105:
 237              		.loc 2 236 0
 238 0078 BDE87040 		pop	{r4, r5, r6, lr}
 239              		.cfi_remember_state
 240              		.cfi_restore 14
 241              		.cfi_restore 6
 242              		.cfi_restore 5
 243              		.cfi_restore 4
 244              		.cfi_def_cfa_offset 0
 245              	.LVL18:
 246              	.LBB114:
 247              		.loc 2 214 0
 248 007c FFF7FEBF 		b	chSchGoSleepS
 249              	.LVL19:
 250              	.L9:
 251              		.cfi_restore_state
 252              	.LBE114:
 253              		.loc 2 229 0
 254 0080 0369     		ldr	r3, [r0, #16]
 255              		.loc 2 232 0
 256 0082 8660     		str	r6, [r0, #8]
 257              		.loc 2 229 0
 258 0084 0133     		adds	r3, r3, #1
 259 0086 0361     		str	r3, [r0, #16]
 260              		.loc 2 233 0
 261 0088 B36B     		ldr	r3, [r6, #56]
 262 008a C360     		str	r3, [r0, #12]
 263              		.loc 2 234 0
 264 008c B063     		str	r0, [r6, #56]
 265 008e 70BD     		pop	{r4, r5, r6, pc}
 266              	.LVL20:
 267              	.L19:
 268              		.align	2
 269              	.L18:
 270 0090 00000000 		.word	ch
 271              		.cfi_endproc
 272              	.LFE292:
 273              		.size	chMtxLockS, .-chMtxLockS
 274              		.section	.text.chMtxLock,"ax",%progbits
 275              		.align	1
 276              		.global	chMtxLock
 277              		.syntax unified
 278              		.thumb
 279              		.thumb_func
 280              		.fpu fpv4-sp-d16
 281              		.type	chMtxLock, %function
 282              	chMtxLock:
 283              	.LFB291:
 284              		.loc 2 123 0
 285              		.cfi_startproc
ARM GAS  /tmp/ccWkTx1E.s 			page 6


 286              		@ args = 0, pretend = 0, frame = 0
 287              		@ frame_needed = 0, uses_anonymous_args = 0
 288              	.LVL21:
 289 0000 08B5     		push	{r3, lr}
 290              		.cfi_def_cfa_offset 8
 291              		.cfi_offset 3, -8
 292              		.cfi_offset 14, -4
 293              	.LBB115:
 294              	.LBB116:
 295              	.LBB117:
 296              	.LBB118:
 297              		.file 3 "../../modules/ChibiOS/os/common/ext/ARM/CMSIS/Core/Include/cmsis_gcc.h"
 298              		.loc 3 493 0
 299 0002 2023     		movs	r3, #32
 300              		.syntax unified
 301              	@ 493 "../../modules/ChibiOS/os/common/ext/ARM/CMSIS/Core/Include/cmsis_gcc.h" 1
 302 0004 83F31188 		MSR basepri, r3
 303              	@ 0 "" 2
 304              	.LVL22:
 305              		.thumb
 306              		.syntax unified
 307              	.LBE118:
 308              	.LBE117:
 309              	.LBE116:
 310              	.LBE115:
 311              		.loc 2 126 0
 312 0008 FFF7FEFF 		bl	chMtxLockS
 313              	.LVL23:
 314              	.LBB119:
 315              	.LBB120:
 316              	.LBB121:
 317              	.LBB122:
 318              	.LBB123:
 319              		.loc 3 493 0
 320 000c 0023     		movs	r3, #0
 321              		.syntax unified
 322              	@ 493 "../../modules/ChibiOS/os/common/ext/ARM/CMSIS/Core/Include/cmsis_gcc.h" 1
 323 000e 83F31188 		MSR basepri, r3
 324              	@ 0 "" 2
 325              	.LVL24:
 326              		.thumb
 327              		.syntax unified
 328 0012 08BD     		pop	{r3, pc}
 329              	.LBE123:
 330              	.LBE122:
 331              	.LBE121:
 332              	.LBE120:
 333              	.LBE119:
 334              		.cfi_endproc
 335              	.LFE291:
 336              		.size	chMtxLock, .-chMtxLock
 337              		.section	.text.chMtxTryLockS,"ax",%progbits
 338              		.align	1
 339              		.global	chMtxTryLockS
 340              		.syntax unified
 341              		.thumb
 342              		.thumb_func
ARM GAS  /tmp/ccWkTx1E.s 			page 7


 343              		.fpu fpv4-sp-d16
 344              		.type	chMtxTryLockS, %function
 345              	chMtxTryLockS:
 346              	.LFB294:
 347              		.loc 2 282 0
 348              		.cfi_startproc
 349              		@ args = 0, pretend = 0, frame = 0
 350              		@ frame_needed = 0, uses_anonymous_args = 0
 351              		@ link register save eliminated.
 352              	.LVL25:
 353              		.loc 2 287 0
 354 0000 8368     		ldr	r3, [r0, #8]
 355 0002 0A4A     		ldr	r2, .L26
 356 0004 3BB1     		cbz	r3, .L22
 357              		.loc 2 292 0
 358 0006 9269     		ldr	r2, [r2, #24]
 359 0008 9342     		cmp	r3, r2
 360 000a 0DD1     		bne	.L24
 361              		.loc 2 293 0
 362 000c 0369     		ldr	r3, [r0, #16]
 363 000e 0133     		adds	r3, r3, #1
 364 0010 0361     		str	r3, [r0, #16]
 365              	.L25:
 366              	.LBB126:
 367              	.LBB127:
 368              		.loc 2 307 0
 369 0012 0120     		movs	r0, #1
 370              	.LVL26:
 371 0014 7047     		bx	lr
 372              	.LVL27:
 373              	.L22:
 374              		.loc 2 303 0
 375 0016 0369     		ldr	r3, [r0, #16]
 376 0018 0133     		adds	r3, r3, #1
 377 001a 0361     		str	r3, [r0, #16]
 378              		.loc 2 305 0
 379 001c 9369     		ldr	r3, [r2, #24]
 380 001e 8360     		str	r3, [r0, #8]
 381              		.loc 2 306 0
 382 0020 9A6B     		ldr	r2, [r3, #56]
 383 0022 C260     		str	r2, [r0, #12]
 384              		.loc 2 307 0
 385 0024 9863     		str	r0, [r3, #56]
 386 0026 F4E7     		b	.L25
 387              	.LVL28:
 388              	.L24:
 389              	.LBE127:
 390              	.LBE126:
 391              		.loc 2 297 0
 392 0028 0020     		movs	r0, #0
 393              	.LVL29:
 394              		.loc 2 309 0
 395 002a 7047     		bx	lr
 396              	.L27:
 397              		.align	2
 398              	.L26:
 399 002c 00000000 		.word	ch
ARM GAS  /tmp/ccWkTx1E.s 			page 8


 400              		.cfi_endproc
 401              	.LFE294:
 402              		.size	chMtxTryLockS, .-chMtxTryLockS
 403              		.section	.text.chMtxTryLock,"ax",%progbits
 404              		.align	1
 405              		.global	chMtxTryLock
 406              		.syntax unified
 407              		.thumb
 408              		.thumb_func
 409              		.fpu fpv4-sp-d16
 410              		.type	chMtxTryLock, %function
 411              	chMtxTryLock:
 412              	.LFB293:
 413              		.loc 2 255 0
 414              		.cfi_startproc
 415              		@ args = 0, pretend = 0, frame = 0
 416              		@ frame_needed = 0, uses_anonymous_args = 0
 417              	.LVL30:
 418 0000 08B5     		push	{r3, lr}
 419              		.cfi_def_cfa_offset 8
 420              		.cfi_offset 3, -8
 421              		.cfi_offset 14, -4
 422              	.LBB128:
 423              	.LBB129:
 424              	.LBB130:
 425              	.LBB131:
 426              		.loc 3 493 0
 427 0002 2023     		movs	r3, #32
 428              		.syntax unified
 429              	@ 493 "../../modules/ChibiOS/os/common/ext/ARM/CMSIS/Core/Include/cmsis_gcc.h" 1
 430 0004 83F31188 		MSR basepri, r3
 431              	@ 0 "" 2
 432              	.LVL31:
 433              		.thumb
 434              		.syntax unified
 435              	.LBE131:
 436              	.LBE130:
 437              	.LBE129:
 438              	.LBE128:
 439              		.loc 2 259 0
 440 0008 FFF7FEFF 		bl	chMtxTryLockS
 441              	.LVL32:
 442              	.LBB132:
 443              	.LBB133:
 444              	.LBB134:
 445              	.LBB135:
 446              	.LBB136:
 447              		.loc 3 493 0
 448 000c 0023     		movs	r3, #0
 449              		.syntax unified
 450              	@ 493 "../../modules/ChibiOS/os/common/ext/ARM/CMSIS/Core/Include/cmsis_gcc.h" 1
 451 000e 83F31188 		MSR basepri, r3
 452              	@ 0 "" 2
 453              	.LVL33:
 454              		.thumb
 455              		.syntax unified
 456              	.LBE136:
ARM GAS  /tmp/ccWkTx1E.s 			page 9


 457              	.LBE135:
 458              	.LBE134:
 459              	.LBE133:
 460              	.LBE132:
 461              		.loc 2 263 0
 462 0012 08BD     		pop	{r3, pc}
 463              		.cfi_endproc
 464              	.LFE293:
 465              		.size	chMtxTryLock, .-chMtxTryLock
 466              		.section	.text.chMtxUnlock,"ax",%progbits
 467              		.align	1
 468              		.global	chMtxUnlock
 469              		.syntax unified
 470              		.thumb
 471              		.thumb_func
 472              		.fpu fpv4-sp-d16
 473              		.type	chMtxUnlock, %function
 474              	chMtxUnlock:
 475              	.LFB295:
 476              		.loc 2 323 0
 477              		.cfi_startproc
 478              		@ args = 0, pretend = 0, frame = 0
 479              		@ frame_needed = 0, uses_anonymous_args = 0
 480              	.LVL34:
 481              		.loc 2 324 0
 482 0000 174A     		ldr	r2, .L35
 483              		.loc 2 323 0
 484 0002 38B5     		push	{r3, r4, r5, lr}
 485              		.cfi_def_cfa_offset 16
 486              		.cfi_offset 3, -16
 487              		.cfi_offset 4, -12
 488              		.cfi_offset 5, -8
 489              		.cfi_offset 14, -4
 490              		.loc 2 324 0
 491 0004 9469     		ldr	r4, [r2, #24]
 492              	.LVL35:
 493              		.loc 2 323 0
 494 0006 0346     		mov	r3, r0
 495              	.LBB137:
 496              	.LBB138:
 497              	.LBB139:
 498              	.LBB140:
 499              		.loc 3 493 0
 500 0008 2022     		movs	r2, #32
 501              		.syntax unified
 502              	@ 493 "../../modules/ChibiOS/os/common/ext/ARM/CMSIS/Core/Include/cmsis_gcc.h" 1
 503 000a 82F31188 		MSR basepri, r2
 504              	@ 0 "" 2
 505              	.LVL36:
 506              		.thumb
 507              		.syntax unified
 508              	.LBE140:
 509              	.LBE139:
 510              	.LBE138:
 511              	.LBE137:
 512              		.loc 2 336 0
 513 000e 0169     		ldr	r1, [r0, #16]
ARM GAS  /tmp/ccWkTx1E.s 			page 10


 514 0010 0139     		subs	r1, r1, #1
 515 0012 0161     		str	r1, [r0, #16]
 516 0014 A1B9     		cbnz	r1, .L30
 517              		.loc 2 344 0
 518 0016 C268     		ldr	r2, [r0, #12]
 519              	.LBB141:
 520              	.LBB142:
 521              	.LBB143:
 522              	.LBB144:
 523              		.loc 1 566 0
 524 0018 0068     		ldr	r0, [r0]
 525              	.LVL37:
 526              	.LBE144:
 527              	.LBE143:
 528              	.LBE142:
 529              	.LBE141:
 530              		.loc 2 344 0
 531 001a A263     		str	r2, [r4, #56]
 532              		.loc 2 347 0
 533 001c 9842     		cmp	r0, r3
 534 001e 1CD0     		beq	.L31
 535              	.LBB145:
 536              		.loc 2 352 0
 537 0020 E16B     		ldr	r1, [r4, #60]
 538              	.LVL38:
 539              	.L32:
 540              		.loc 2 354 0
 541 0022 8AB9     		cbnz	r2, .L34
 542              		.loc 2 372 0
 543 0024 0122     		movs	r2, #1
 544              	.LVL39:
 545              		.loc 2 367 0
 546 0026 A160     		str	r1, [r4, #8]
 547              		.loc 2 372 0
 548 0028 1A61     		str	r2, [r3, #16]
 549              	.LVL40:
 550              	.LBB146:
 551              	.LBB147:
 552              		.loc 1 609 0
 553 002a 0268     		ldr	r2, [r0]
 554 002c 1A60     		str	r2, [r3]
 555              		.loc 1 610 0
 556 002e 5360     		str	r3, [r2, #4]
 557              	.LVL41:
 558              	.LBE147:
 559              	.LBE146:
 560              		.loc 2 376 0
 561 0030 826B     		ldr	r2, [r0, #56]
 562              		.loc 2 375 0
 563 0032 9860     		str	r0, [r3, #8]
 564              		.loc 2 376 0
 565 0034 DA60     		str	r2, [r3, #12]
 566              		.loc 2 377 0
 567 0036 8363     		str	r3, [r0, #56]
 568              		.loc 2 383 0
 569 0038 FFF7FEFF 		bl	chSchReadyI
 570              	.LVL42:
ARM GAS  /tmp/ccWkTx1E.s 			page 11


 571              		.loc 2 384 0
 572 003c FFF7FEFF 		bl	chSchRescheduleS
 573              	.LVL43:
 574              	.L30:
 575              	.LBE145:
 576              	.LBB152:
 577              	.LBB153:
 578              	.LBB154:
 579              	.LBB155:
 580              	.LBB156:
 581              		.loc 3 493 0
 582 0040 0023     		movs	r3, #0
 583              		.syntax unified
 584              	@ 493 "../../modules/ChibiOS/os/common/ext/ARM/CMSIS/Core/Include/cmsis_gcc.h" 1
 585 0042 83F31188 		MSR basepri, r3
 586              	@ 0 "" 2
 587              	.LVL44:
 588              		.thumb
 589              		.syntax unified
 590 0046 38BD     		pop	{r3, r4, r5, pc}
 591              	.LVL45:
 592              	.L34:
 593              	.LBE156:
 594              	.LBE155:
 595              	.LBE154:
 596              	.LBE153:
 597              	.LBE152:
 598              	.LBB157:
 599              	.LBB148:
 600              	.LBB149:
 601              	.LBB150:
 602              	.LBB151:
 603              		.loc 1 566 0
 604 0048 1568     		ldr	r5, [r2]
 605              	.LVL46:
 606              	.LBE151:
 607              	.LBE150:
 608              	.LBE149:
 609              	.LBE148:
 610              		.loc 2 358 0
 611 004a AA42     		cmp	r2, r5
 612 004c 03D0     		beq	.L33
 613 004e AD68     		ldr	r5, [r5, #8]
 614 0050 A942     		cmp	r1, r5
 615 0052 38BF     		it	cc
 616 0054 2946     		movcc	r1, r5
 617              	.LVL47:
 618              	.L33:
 619              		.loc 2 362 0
 620 0056 D268     		ldr	r2, [r2, #12]
 621              	.LVL48:
 622 0058 E3E7     		b	.L32
 623              	.LVL49:
 624              	.L31:
 625              	.LBE157:
 626              		.loc 2 387 0
 627 005a 8160     		str	r1, [r0, #8]
ARM GAS  /tmp/ccWkTx1E.s 			page 12


 628 005c F0E7     		b	.L30
 629              	.L36:
 630 005e 00BF     		.align	2
 631              	.L35:
 632 0060 00000000 		.word	ch
 633              		.cfi_endproc
 634              	.LFE295:
 635              		.size	chMtxUnlock, .-chMtxUnlock
 636              		.section	.text.chMtxUnlockS,"ax",%progbits
 637              		.align	1
 638              		.global	chMtxUnlockS
 639              		.syntax unified
 640              		.thumb
 641              		.thumb_func
 642              		.fpu fpv4-sp-d16
 643              		.type	chMtxUnlockS, %function
 644              	chMtxUnlockS:
 645              	.LFB296:
 646              		.loc 2 410 0
 647              		.cfi_startproc
 648              		@ args = 0, pretend = 0, frame = 0
 649              		@ frame_needed = 0, uses_anonymous_args = 0
 650              		@ link register save eliminated.
 651              	.LVL50:
 652              		.loc 2 422 0
 653 0000 0169     		ldr	r1, [r0, #16]
 654              		.loc 2 411 0
 655 0002 134A     		ldr	r2, .L43
 656              		.loc 2 422 0
 657 0004 0139     		subs	r1, r1, #1
 658              		.loc 2 410 0
 659 0006 30B4     		push	{r4, r5}
 660              		.cfi_def_cfa_offset 8
 661              		.cfi_offset 4, -8
 662              		.cfi_offset 5, -4
 663              		.loc 2 410 0
 664 0008 0346     		mov	r3, r0
 665              		.loc 2 411 0
 666 000a 9469     		ldr	r4, [r2, #24]
 667              	.LVL51:
 668              		.loc 2 422 0
 669 000c 0161     		str	r1, [r0, #16]
 670 000e E9B9     		cbnz	r1, .L37
 671              		.loc 2 430 0
 672 0010 C268     		ldr	r2, [r0, #12]
 673              	.LBB158:
 674              	.LBB159:
 675              	.LBB160:
 676              	.LBB161:
 677              		.loc 1 566 0
 678 0012 0068     		ldr	r0, [r0]
 679              	.LVL52:
 680              	.LBE161:
 681              	.LBE160:
 682              	.LBE159:
 683              	.LBE158:
 684              		.loc 2 430 0
ARM GAS  /tmp/ccWkTx1E.s 			page 13


 685 0014 A263     		str	r2, [r4, #56]
 686              		.loc 2 433 0
 687 0016 9842     		cmp	r0, r3
 688 0018 17D0     		beq	.L39
 689              	.LBB162:
 690              		.loc 2 438 0
 691 001a E16B     		ldr	r1, [r4, #60]
 692              	.LVL53:
 693              	.L40:
 694              		.loc 2 440 0
 695 001c 62B9     		cbnz	r2, .L42
 696              		.loc 2 458 0
 697 001e 0122     		movs	r2, #1
 698              	.LVL54:
 699              		.loc 2 453 0
 700 0020 A160     		str	r1, [r4, #8]
 701              		.loc 2 458 0
 702 0022 1A61     		str	r2, [r3, #16]
 703              	.LVL55:
 704              	.LBB163:
 705              	.LBB164:
 706              		.loc 1 609 0
 707 0024 0268     		ldr	r2, [r0]
 708 0026 1A60     		str	r2, [r3]
 709              		.loc 1 610 0
 710 0028 5360     		str	r3, [r2, #4]
 711              	.LVL56:
 712              	.LBE164:
 713              	.LBE163:
 714              		.loc 2 462 0
 715 002a 826B     		ldr	r2, [r0, #56]
 716              		.loc 2 461 0
 717 002c 9860     		str	r0, [r3, #8]
 718              		.loc 2 462 0
 719 002e DA60     		str	r2, [r3, #12]
 720              	.LBE162:
 721              		.loc 2 472 0
 722 0030 30BC     		pop	{r4, r5}
 723              		.cfi_remember_state
 724              		.cfi_restore 5
 725              		.cfi_restore 4
 726              		.cfi_def_cfa_offset 0
 727              	.LVL57:
 728              	.LBB169:
 729              		.loc 2 463 0
 730 0032 8363     		str	r3, [r0, #56]
 731              		.loc 2 464 0
 732 0034 FFF7FEBF 		b	chSchReadyI
 733              	.LVL58:
 734              	.L42:
 735              		.cfi_restore_state
 736              	.LBB165:
 737              	.LBB166:
 738              	.LBB167:
 739              	.LBB168:
 740              		.loc 1 566 0
 741 0038 1568     		ldr	r5, [r2]
ARM GAS  /tmp/ccWkTx1E.s 			page 14


 742              	.LVL59:
 743              	.LBE168:
 744              	.LBE167:
 745              	.LBE166:
 746              	.LBE165:
 747              		.loc 2 444 0
 748 003a AA42     		cmp	r2, r5
 749 003c 03D0     		beq	.L41
 750 003e AD68     		ldr	r5, [r5, #8]
 751 0040 A942     		cmp	r1, r5
 752 0042 38BF     		it	cc
 753 0044 2946     		movcc	r1, r5
 754              	.LVL60:
 755              	.L41:
 756              		.loc 2 448 0
 757 0046 D268     		ldr	r2, [r2, #12]
 758              	.LVL61:
 759 0048 E8E7     		b	.L40
 760              	.LVL62:
 761              	.L39:
 762              	.LBE169:
 763              		.loc 2 467 0
 764 004a 8160     		str	r1, [r0, #8]
 765              	.L37:
 766              		.loc 2 472 0
 767 004c 30BC     		pop	{r4, r5}
 768              		.cfi_restore 5
 769              		.cfi_restore 4
 770              		.cfi_def_cfa_offset 0
 771              	.LVL63:
 772 004e 7047     		bx	lr
 773              	.L44:
 774              		.align	2
 775              	.L43:
 776 0050 00000000 		.word	ch
 777              		.cfi_endproc
 778              	.LFE296:
 779              		.size	chMtxUnlockS, .-chMtxUnlockS
 780              		.section	.text.chMtxUnlockAllS,"ax",%progbits
 781              		.align	1
 782              		.global	chMtxUnlockAllS
 783              		.syntax unified
 784              		.thumb
 785              		.thumb_func
 786              		.fpu fpv4-sp-d16
 787              		.type	chMtxUnlockAllS, %function
 788              	chMtxUnlockAllS:
 789              	.LFB297:
 790              		.loc 2 487 0
 791              		.cfi_startproc
 792              		@ args = 0, pretend = 0, frame = 0
 793              		@ frame_needed = 0, uses_anonymous_args = 0
 794              		.loc 2 488 0
 795 0000 0E4B     		ldr	r3, .L50
 796              		.loc 2 487 0
 797 0002 70B5     		push	{r4, r5, r6, lr}
 798              		.cfi_def_cfa_offset 16
ARM GAS  /tmp/ccWkTx1E.s 			page 15


 799              		.cfi_offset 4, -16
 800              		.cfi_offset 5, -12
 801              		.cfi_offset 6, -8
 802              		.cfi_offset 14, -4
 803              		.loc 2 488 0
 804 0004 9C69     		ldr	r4, [r3, #24]
 805              	.LVL64:
 806              	.LBB170:
 807              		.loc 2 505 0
 808 0006 0025     		movs	r5, #0
 809              	.LBB171:
 810              		.loc 2 495 0
 811 0008 0126     		movs	r6, #1
 812              	.L46:
 813              	.LBE171:
 814              	.LBE170:
 815              		.loc 2 490 0
 816 000a A36B     		ldr	r3, [r4, #56]
 817 000c 13B9     		cbnz	r3, .L49
 818              		.loc 2 510 0
 819 000e E36B     		ldr	r3, [r4, #60]
 820 0010 A360     		str	r3, [r4, #8]
 821 0012 70BD     		pop	{r4, r5, r6, pc}
 822              	.LVL65:
 823              	.L49:
 824              	.LBB181:
 825              	.LBB176:
 826              	.LBB177:
 827              	.LBB178:
 828              	.LBB179:
 829              		.loc 1 566 0
 830 0014 1868     		ldr	r0, [r3]
 831              	.LBE179:
 832              	.LBE178:
 833              	.LBE177:
 834              	.LBE176:
 835              		.loc 2 492 0
 836 0016 DA68     		ldr	r2, [r3, #12]
 837 0018 A263     		str	r2, [r4, #56]
 838              	.LVL66:
 839              		.loc 2 493 0
 840 001a 8342     		cmp	r3, r0
 841 001c 0AD0     		beq	.L47
 842              	.LBB180:
 843              	.LBB172:
 844              	.LBB173:
 845              		.loc 1 609 0
 846 001e 0268     		ldr	r2, [r0]
 847 0020 1A60     		str	r2, [r3]
 848              	.LBE173:
 849              	.LBE172:
 850              		.loc 2 495 0
 851 0022 1E61     		str	r6, [r3, #16]
 852              	.LVL67:
 853              	.LBB175:
 854              	.LBB174:
 855              		.loc 1 610 0
ARM GAS  /tmp/ccWkTx1E.s 			page 16


 856 0024 5360     		str	r3, [r2, #4]
 857              	.LVL68:
 858              	.LBE174:
 859              	.LBE175:
 860              		.loc 2 499 0
 861 0026 826B     		ldr	r2, [r0, #56]
 862              		.loc 2 498 0
 863 0028 9860     		str	r0, [r3, #8]
 864              		.loc 2 499 0
 865 002a DA60     		str	r2, [r3, #12]
 866              		.loc 2 500 0
 867 002c 8363     		str	r3, [r0, #56]
 868              		.loc 2 501 0
 869 002e FFF7FEFF 		bl	chSchReadyI
 870              	.LVL69:
 871              	.LBE180:
 872 0032 EAE7     		b	.L46
 873              	.LVL70:
 874              	.L47:
 875              		.loc 2 505 0
 876 0034 1D61     		str	r5, [r3, #16]
 877              		.loc 2 507 0
 878 0036 9D60     		str	r5, [r3, #8]
 879 0038 E7E7     		b	.L46
 880              	.L51:
 881 003a 00BF     		.align	2
 882              	.L50:
 883 003c 00000000 		.word	ch
 884              	.LBE181:
 885              		.cfi_endproc
 886              	.LFE297:
 887              		.size	chMtxUnlockAllS, .-chMtxUnlockAllS
 888              		.section	.text.chMtxUnlockAll,"ax",%progbits
 889              		.align	1
 890              		.global	chMtxUnlockAll
 891              		.syntax unified
 892              		.thumb
 893              		.thumb_func
 894              		.fpu fpv4-sp-d16
 895              		.type	chMtxUnlockAll, %function
 896              	chMtxUnlockAll:
 897              	.LFB298:
 898              		.loc 2 524 0
 899              		.cfi_startproc
 900              		@ args = 0, pretend = 0, frame = 0
 901              		@ frame_needed = 0, uses_anonymous_args = 0
 902              		.loc 2 525 0
 903 0000 134B     		ldr	r3, .L62
 904              		.loc 2 524 0
 905 0002 70B5     		push	{r4, r5, r6, lr}
 906              		.cfi_def_cfa_offset 16
 907              		.cfi_offset 4, -16
 908              		.cfi_offset 5, -12
 909              		.cfi_offset 6, -8
 910              		.cfi_offset 14, -4
 911              		.loc 2 525 0
 912 0004 9C69     		ldr	r4, [r3, #24]
ARM GAS  /tmp/ccWkTx1E.s 			page 17


 913              	.LVL71:
 914              	.LBB182:
 915              	.LBB183:
 916              	.LBB184:
 917              	.LBB185:
 918              		.loc 3 493 0
 919 0006 2023     		movs	r3, #32
 920              		.syntax unified
 921              	@ 493 "../../modules/ChibiOS/os/common/ext/ARM/CMSIS/Core/Include/cmsis_gcc.h" 1
 922 0008 83F31188 		MSR basepri, r3
 923              	@ 0 "" 2
 924              	.LVL72:
 925              		.thumb
 926              		.syntax unified
 927              	.LBE185:
 928              	.LBE184:
 929              	.LBE183:
 930              	.LBE182:
 931              		.loc 2 528 0
 932 000c A36B     		ldr	r3, [r4, #56]
 933 000e C3B1     		cbz	r3, .L53
 934              	.LBB186:
 935              	.LBB187:
 936              		.loc 2 534 0
 937 0010 0126     		movs	r6, #1
 938              	.LBE187:
 939              		.loc 2 544 0
 940 0012 0025     		movs	r5, #0
 941              	.L59:
 942              		.loc 2 530 0
 943 0014 A36B     		ldr	r3, [r4, #56]
 944              	.LVL73:
 945              	.LBB192:
 946              	.LBB193:
 947              	.LBB194:
 948              	.LBB195:
 949              		.loc 1 566 0
 950 0016 1868     		ldr	r0, [r3]
 951              	.LBE195:
 952              	.LBE194:
 953              	.LBE193:
 954              	.LBE192:
 955              		.loc 2 531 0
 956 0018 DA68     		ldr	r2, [r3, #12]
 957 001a A263     		str	r2, [r4, #56]
 958              	.LVL74:
 959              		.loc 2 532 0
 960 001c 8342     		cmp	r3, r0
 961 001e 14D0     		beq	.L54
 962              	.LBB196:
 963              	.LBB188:
 964              	.LBB189:
 965              		.loc 1 609 0
 966 0020 0268     		ldr	r2, [r0]
 967 0022 1A60     		str	r2, [r3]
 968              	.LBE189:
 969              	.LBE188:
ARM GAS  /tmp/ccWkTx1E.s 			page 18


 970              		.loc 2 534 0
 971 0024 1E61     		str	r6, [r3, #16]
 972              	.LVL75:
 973              	.LBB191:
 974              	.LBB190:
 975              		.loc 1 610 0
 976 0026 5360     		str	r3, [r2, #4]
 977              	.LVL76:
 978              	.LBE190:
 979              	.LBE191:
 980              		.loc 2 538 0
 981 0028 826B     		ldr	r2, [r0, #56]
 982              		.loc 2 537 0
 983 002a 9860     		str	r0, [r3, #8]
 984              		.loc 2 538 0
 985 002c DA60     		str	r2, [r3, #12]
 986              		.loc 2 539 0
 987 002e 8363     		str	r3, [r0, #56]
 988              		.loc 2 540 0
 989 0030 FFF7FEFF 		bl	chSchReadyI
 990              	.LVL77:
 991              	.L55:
 992              	.LBE196:
 993              	.LBE186:
 994              		.loc 2 548 0
 995 0034 A36B     		ldr	r3, [r4, #56]
 996 0036 002B     		cmp	r3, #0
 997 0038 ECD1     		bne	.L59
 998              		.loc 2 549 0
 999 003a E36B     		ldr	r3, [r4, #60]
 1000 003c A360     		str	r3, [r4, #8]
 1001              		.loc 2 550 0
 1002 003e FFF7FEFF 		bl	chSchRescheduleS
 1003              	.LVL78:
 1004              	.L53:
 1005              	.LBB197:
 1006              	.LBB198:
 1007              	.LBB199:
 1008              	.LBB200:
 1009              	.LBB201:
 1010              		.loc 3 493 0
 1011 0042 0023     		movs	r3, #0
 1012              		.syntax unified
 1013              	@ 493 "../../modules/ChibiOS/os/common/ext/ARM/CMSIS/Core/Include/cmsis_gcc.h" 1
 1014 0044 83F31188 		MSR basepri, r3
 1015              	@ 0 "" 2
 1016              	.LVL79:
 1017              		.thumb
 1018              		.syntax unified
 1019 0048 70BD     		pop	{r4, r5, r6, pc}
 1020              	.LVL80:
 1021              	.L54:
 1022              	.LBE201:
 1023              	.LBE200:
 1024              	.LBE199:
 1025              	.LBE198:
 1026              	.LBE197:
ARM GAS  /tmp/ccWkTx1E.s 			page 19


 1027              	.LBB202:
 1028              		.loc 2 544 0
 1029 004a 1D61     		str	r5, [r3, #16]
 1030              		.loc 2 546 0
 1031 004c 9D60     		str	r5, [r3, #8]
 1032 004e F1E7     		b	.L55
 1033              	.L63:
 1034              		.align	2
 1035              	.L62:
 1036 0050 00000000 		.word	ch
 1037              	.LBE202:
 1038              		.cfi_endproc
 1039              	.LFE298:
 1040              		.size	chMtxUnlockAll, .-chMtxUnlockAll
 1041              		.text
 1042              	.Letext0:
 1043              		.file 4 "/opt/gcc-arm-none-eabi-6-2017-q2-update/lib/gcc/arm-none-eabi/6.3.1/include/stddef.h"
 1044              		.file 5 "/opt/gcc-arm-none-eabi-6-2017-q2-update/arm-none-eabi/include/machine/_default_types.h"
 1045              		.file 6 "/opt/gcc-arm-none-eabi-6-2017-q2-update/arm-none-eabi/include/sys/_stdint.h"
 1046              		.file 7 "../../modules/ChibiOS/os/common/ports/ARMCMx/compilers/GCC/chtypes.h"
 1047              		.file 8 "../../modules/ChibiOS/os/rt/include/chsystypes.h"
 1048              		.file 9 "../../modules/ChibiOS/os/rt/include/chtime.h"
 1049              		.file 10 "../../modules/ChibiOS/os/common/ext/ARM/CMSIS/Core/Include/core_cm4.h"
 1050              		.file 11 "../../modules/ChibiOS/os/common/ext/ST/STM32F4xx/system_stm32f4xx.h"
 1051              		.file 12 "../../modules/ChibiOS/os/common/ports/ARMCMx/chcore.h"
 1052              		.file 13 "../../modules/ChibiOS/os/common/ports/ARMCMx/chcore_v7m.h"
 1053              		.file 14 "../../modules/ChibiOS/os/rt/include/chtm.h"
 1054              		.file 15 "../../modules/ChibiOS/os/rt/include/chsem.h"
 1055              		.file 16 "../../modules/ChibiOS/os/rt/include/chmtx.h"
 1056              		.file 17 "../../modules/ChibiOS/os/rt/include/chsys.h"
 1057              		.file 18 "../../modules/ChibiOS/os/rt/include/chregistry.h"
 1058              		.file 19 "../../modules/ChibiOS/os/oslib/include/chmemcore.h"
 1059              		.file 20 "../../modules/ChibiOS/os/oslib/include/chmempools.h"
 1060              		.file 21 "../../modules/ChibiOS/os/oslib/include/chfactory.h"
 1061              		.section	.debug_info,"",%progbits
 1062              	.Ldebug_info0:
 1063 0000 4A140000 		.4byte	0x144a
 1064 0004 0400     		.2byte	0x4
 1065 0006 00000000 		.4byte	.Ldebug_abbrev0
 1066 000a 04       		.byte	0x4
 1067 000b 01       		.uleb128 0x1
 1068 000c 27010000 		.4byte	.LASF169
 1069 0010 0C       		.byte	0xc
 1070 0011 22070000 		.4byte	.LASF170
 1071 0015 62080000 		.4byte	.LASF171
 1072 0019 F0000000 		.4byte	.Ldebug_ranges0+0xf0
 1073 001d 00000000 		.4byte	0
 1074 0021 00000000 		.4byte	.Ldebug_line0
 1075 0025 02       		.uleb128 0x2
 1076 0026 04       		.byte	0x4
 1077 0027 05       		.byte	0x5
 1078 0028 696E7400 		.ascii	"int\000"
 1079 002c 03       		.uleb128 0x3
 1080 002d 0D000000 		.4byte	.LASF4
 1081 0031 04       		.byte	0x4
 1082 0032 D8       		.byte	0xd8
 1083 0033 37000000 		.4byte	0x37
ARM GAS  /tmp/ccWkTx1E.s 			page 20


 1084 0037 04       		.uleb128 0x4
 1085 0038 04       		.byte	0x4
 1086 0039 07       		.byte	0x7
 1087 003a 4E030000 		.4byte	.LASF0
 1088 003e 04       		.uleb128 0x4
 1089 003f 08       		.byte	0x8
 1090 0040 05       		.byte	0x5
 1091 0041 19030000 		.4byte	.LASF1
 1092 0045 04       		.uleb128 0x4
 1093 0046 08       		.byte	0x8
 1094 0047 04       		.byte	0x4
 1095 0048 A7040000 		.4byte	.LASF2
 1096 004c 04       		.uleb128 0x4
 1097 004d 01       		.byte	0x1
 1098 004e 06       		.byte	0x6
 1099 004f 16010000 		.4byte	.LASF3
 1100 0053 03       		.uleb128 0x3
 1101 0054 2A000000 		.4byte	.LASF5
 1102 0058 05       		.byte	0x5
 1103 0059 2B       		.byte	0x2b
 1104 005a 5E000000 		.4byte	0x5e
 1105 005e 04       		.uleb128 0x4
 1106 005f 01       		.byte	0x1
 1107 0060 08       		.byte	0x8
 1108 0061 A3050000 		.4byte	.LASF6
 1109 0065 04       		.uleb128 0x4
 1110 0066 02       		.byte	0x2
 1111 0067 05       		.byte	0x5
 1112 0068 C7050000 		.4byte	.LASF7
 1113 006c 03       		.uleb128 0x3
 1114 006d C0060000 		.4byte	.LASF8
 1115 0071 05       		.byte	0x5
 1116 0072 39       		.byte	0x39
 1117 0073 77000000 		.4byte	0x77
 1118 0077 04       		.uleb128 0x4
 1119 0078 02       		.byte	0x2
 1120 0079 07       		.byte	0x7
 1121 007a 5D070000 		.4byte	.LASF9
 1122 007e 03       		.uleb128 0x3
 1123 007f 48040000 		.4byte	.LASF10
 1124 0083 05       		.byte	0x5
 1125 0084 4D       		.byte	0x4d
 1126 0085 89000000 		.4byte	0x89
 1127 0089 04       		.uleb128 0x4
 1128 008a 04       		.byte	0x4
 1129 008b 05       		.byte	0x5
 1130 008c 67020000 		.4byte	.LASF11
 1131 0090 03       		.uleb128 0x3
 1132 0091 D2020000 		.4byte	.LASF12
 1133 0095 05       		.byte	0x5
 1134 0096 4F       		.byte	0x4f
 1135 0097 9B000000 		.4byte	0x9b
 1136 009b 04       		.uleb128 0x4
 1137 009c 04       		.byte	0x4
 1138 009d 07       		.byte	0x7
 1139 009e 93060000 		.4byte	.LASF13
 1140 00a2 03       		.uleb128 0x3
ARM GAS  /tmp/ccWkTx1E.s 			page 21


 1141 00a3 33050000 		.4byte	.LASF14
 1142 00a7 05       		.byte	0x5
 1143 00a8 69       		.byte	0x69
 1144 00a9 AD000000 		.4byte	0xad
 1145 00ad 04       		.uleb128 0x4
 1146 00ae 08       		.byte	0x8
 1147 00af 07       		.byte	0x7
 1148 00b0 88000000 		.4byte	.LASF15
 1149 00b4 03       		.uleb128 0x3
 1150 00b5 CF070000 		.4byte	.LASF16
 1151 00b9 06       		.byte	0x6
 1152 00ba 18       		.byte	0x18
 1153 00bb 53000000 		.4byte	0x53
 1154 00bf 05       		.uleb128 0x5
 1155 00c0 B4000000 		.4byte	0xb4
 1156 00c4 03       		.uleb128 0x3
 1157 00c5 5B030000 		.4byte	.LASF17
 1158 00c9 06       		.byte	0x6
 1159 00ca 24       		.byte	0x24
 1160 00cb 6C000000 		.4byte	0x6c
 1161 00cf 03       		.uleb128 0x3
 1162 00d0 9B050000 		.4byte	.LASF18
 1163 00d4 06       		.byte	0x6
 1164 00d5 2C       		.byte	0x2c
 1165 00d6 7E000000 		.4byte	0x7e
 1166 00da 06       		.uleb128 0x6
 1167 00db CF000000 		.4byte	0xcf
 1168 00df 03       		.uleb128 0x3
 1169 00e0 61060000 		.4byte	.LASF19
 1170 00e4 06       		.byte	0x6
 1171 00e5 30       		.byte	0x30
 1172 00e6 90000000 		.4byte	0x90
 1173 00ea 03       		.uleb128 0x3
 1174 00eb 21000000 		.4byte	.LASF20
 1175 00ef 06       		.byte	0x6
 1176 00f0 3C       		.byte	0x3c
 1177 00f1 A2000000 		.4byte	0xa2
 1178 00f5 03       		.uleb128 0x3
 1179 00f6 7B070000 		.4byte	.LASF21
 1180 00fa 07       		.byte	0x7
 1181 00fb 27       		.byte	0x27
 1182 00fc DF000000 		.4byte	0xdf
 1183 0100 03       		.uleb128 0x3
 1184 0101 11040000 		.4byte	.LASF22
 1185 0105 07       		.byte	0x7
 1186 0106 2A       		.byte	0x2a
 1187 0107 B4000000 		.4byte	0xb4
 1188 010b 03       		.uleb128 0x3
 1189 010c 7E020000 		.4byte	.LASF23
 1190 0110 07       		.byte	0x7
 1191 0111 2B       		.byte	0x2b
 1192 0112 B4000000 		.4byte	0xb4
 1193 0116 03       		.uleb128 0x3
 1194 0117 48050000 		.4byte	.LASF24
 1195 011b 07       		.byte	0x7
 1196 011c 2C       		.byte	0x2c
 1197 011d B4000000 		.4byte	0xb4
ARM GAS  /tmp/ccWkTx1E.s 			page 22


 1198 0121 03       		.uleb128 0x3
 1199 0122 74050000 		.4byte	.LASF25
 1200 0126 07       		.byte	0x7
 1201 0127 2E       		.byte	0x2e
 1202 0128 DF000000 		.4byte	0xdf
 1203 012c 03       		.uleb128 0x3
 1204 012d C5030000 		.4byte	.LASF26
 1205 0131 07       		.byte	0x7
 1206 0132 2F       		.byte	0x2f
 1207 0133 CF000000 		.4byte	0xcf
 1208 0137 03       		.uleb128 0x3
 1209 0138 27040000 		.4byte	.LASF27
 1210 013c 07       		.byte	0x7
 1211 013d 31       		.byte	0x31
 1212 013e DF000000 		.4byte	0xdf
 1213 0142 03       		.uleb128 0x3
 1214 0143 3B030000 		.4byte	.LASF28
 1215 0147 07       		.byte	0x7
 1216 0148 33       		.byte	0x33
 1217 0149 CF000000 		.4byte	0xcf
 1218 014d 03       		.uleb128 0x3
 1219 014e CB030000 		.4byte	.LASF29
 1220 0152 07       		.byte	0x7
 1221 0153 34       		.byte	0x34
 1222 0154 DF000000 		.4byte	0xdf
 1223 0158 03       		.uleb128 0x3
 1224 0159 CB060000 		.4byte	.LASF30
 1225 015d 08       		.byte	0x8
 1226 015e 34       		.byte	0x34
 1227 015f 63010000 		.4byte	0x163
 1228 0163 07       		.uleb128 0x7
 1229 0164 BB030000 		.4byte	.LASF48
 1230 0168 44       		.byte	0x44
 1231 0169 01       		.byte	0x1
 1232 016a 8E       		.byte	0x8e
 1233 016b 41020000 		.4byte	0x241
 1234 016f 08       		.uleb128 0x8
 1235 0170 9D030000 		.4byte	.LASF31
 1236 0174 01       		.byte	0x1
 1237 0175 8F       		.byte	0x8f
 1238 0176 76020000 		.4byte	0x276
 1239 017a 00       		.byte	0
 1240 017b 08       		.uleb128 0x8
 1241 017c 1D050000 		.4byte	.LASF32
 1242 0180 01       		.byte	0x1
 1243 0181 90       		.byte	0x90
 1244 0182 21010000 		.4byte	0x121
 1245 0186 08       		.byte	0x8
 1246 0187 09       		.uleb128 0x9
 1247 0188 63747800 		.ascii	"ctx\000"
 1248 018c 01       		.byte	0x1
 1249 018d 91       		.byte	0x91
 1250 018e E0040000 		.4byte	0x4e0
 1251 0192 0C       		.byte	0xc
 1252 0193 08       		.uleb128 0x8
 1253 0194 5D040000 		.4byte	.LASF33
 1254 0198 01       		.byte	0x1
ARM GAS  /tmp/ccWkTx1E.s 			page 23


 1255 0199 93       		.byte	0x93
 1256 019a 4C020000 		.4byte	0x24c
 1257 019e 10       		.byte	0x10
 1258 019f 08       		.uleb128 0x8
 1259 01a0 B1060000 		.4byte	.LASF34
 1260 01a4 01       		.byte	0x1
 1261 01a5 94       		.byte	0x94
 1262 01a6 4C020000 		.4byte	0x24c
 1263 01aa 14       		.byte	0x14
 1264 01ab 08       		.uleb128 0x8
 1265 01ac 98030000 		.4byte	.LASF35
 1266 01b0 01       		.byte	0x1
 1267 01b1 9B       		.byte	0x9b
 1268 01b2 40070000 		.4byte	0x740
 1269 01b6 18       		.byte	0x18
 1270 01b7 08       		.uleb128 0x8
 1271 01b8 A5060000 		.4byte	.LASF36
 1272 01bc 01       		.byte	0x1
 1273 01bd A4       		.byte	0xa4
 1274 01be 57070000 		.4byte	0x757
 1275 01c2 1C       		.byte	0x1c
 1276 01c3 08       		.uleb128 0x8
 1277 01c4 61020000 		.4byte	.LASF37
 1278 01c8 01       		.byte	0x1
 1279 01c9 A9       		.byte	0xa9
 1280 01ca 0B010000 		.4byte	0x10b
 1281 01ce 20       		.byte	0x20
 1282 01cf 08       		.uleb128 0x8
 1283 01d0 E5070000 		.4byte	.LASF38
 1284 01d4 01       		.byte	0x1
 1285 01d5 AD       		.byte	0xad
 1286 01d6 00010000 		.4byte	0x100
 1287 01da 21       		.byte	0x21
 1288 01db 08       		.uleb128 0x8
 1289 01dc 50050000 		.4byte	.LASF39
 1290 01e0 01       		.byte	0x1
 1291 01e1 B2       		.byte	0xb2
 1292 01e2 16010000 		.4byte	0x116
 1293 01e6 22       		.byte	0x22
 1294 01e7 0A       		.uleb128 0xa
 1295 01e8 7500     		.ascii	"u\000"
 1296 01ea 01       		.byte	0x1
 1297 01eb 0301     		.2byte	0x103
 1298 01ed 6A060000 		.4byte	0x66a
 1299 01f1 24       		.byte	0x24
 1300 01f2 0B       		.uleb128 0xb
 1301 01f3 06030000 		.4byte	.LASF40
 1302 01f7 01       		.byte	0x1
 1303 01f8 0801     		.2byte	0x108
 1304 01fa 52020000 		.4byte	0x252
 1305 01fe 28       		.byte	0x28
 1306 01ff 0B       		.uleb128 0xb
 1307 0200 58020000 		.4byte	.LASF41
 1308 0204 01       		.byte	0x1
 1309 0205 0E01     		.2byte	0x10e
 1310 0207 76020000 		.4byte	0x276
 1311 020b 2C       		.byte	0x2c
ARM GAS  /tmp/ccWkTx1E.s 			page 24


 1312 020c 0B       		.uleb128 0xb
 1313 020d D2030000 		.4byte	.LASF42
 1314 0211 01       		.byte	0x1
 1315 0212 1401     		.2byte	0x114
 1316 0214 37010000 		.4byte	0x137
 1317 0218 34       		.byte	0x34
 1318 0219 0B       		.uleb128 0xb
 1319 021a 5A080000 		.4byte	.LASF43
 1320 021e 01       		.byte	0x1
 1321 021f 1B01     		.2byte	0x11b
 1322 0221 3A070000 		.4byte	0x73a
 1323 0225 38       		.byte	0x38
 1324 0226 0B       		.uleb128 0xb
 1325 0227 63040000 		.4byte	.LASF44
 1326 022b 01       		.byte	0x1
 1327 022c 1F01     		.2byte	0x11f
 1328 022e 21010000 		.4byte	0x121
 1329 0232 3C       		.byte	0x3c
 1330 0233 0B       		.uleb128 0xb
 1331 0234 A3030000 		.4byte	.LASF45
 1332 0238 01       		.byte	0x1
 1333 0239 2601     		.2byte	0x126
 1334 023b 2E030000 		.4byte	0x32e
 1335 023f 40       		.byte	0x40
 1336 0240 00       		.byte	0
 1337 0241 03       		.uleb128 0x3
 1338 0242 7D040000 		.4byte	.LASF46
 1339 0246 08       		.byte	0x8
 1340 0247 39       		.byte	0x39
 1341 0248 4C020000 		.4byte	0x24c
 1342 024c 0C       		.uleb128 0xc
 1343 024d 04       		.byte	0x4
 1344 024e 58010000 		.4byte	0x158
 1345 0252 03       		.uleb128 0x3
 1346 0253 FC070000 		.4byte	.LASF47
 1347 0257 08       		.byte	0x8
 1348 0258 3E       		.byte	0x3e
 1349 0259 5D020000 		.4byte	0x25d
 1350 025d 07       		.uleb128 0x7
 1351 025e 7D060000 		.4byte	.LASF49
 1352 0262 04       		.byte	0x4
 1353 0263 01       		.byte	0x1
 1354 0264 7C       		.byte	0x7c
 1355 0265 76020000 		.4byte	0x276
 1356 0269 08       		.uleb128 0x8
 1357 026a EC000000 		.4byte	.LASF50
 1358 026e 01       		.byte	0x1
 1359 026f 7D       		.byte	0x7d
 1360 0270 4C020000 		.4byte	0x24c
 1361 0274 00       		.byte	0
 1362 0275 00       		.byte	0
 1363 0276 03       		.uleb128 0x3
 1364 0277 AA070000 		.4byte	.LASF51
 1365 027b 08       		.byte	0x8
 1366 027c 45       		.byte	0x45
 1367 027d 86020000 		.4byte	0x286
 1368 0281 05       		.uleb128 0x5
ARM GAS  /tmp/ccWkTx1E.s 			page 25


 1369 0282 76020000 		.4byte	0x276
 1370 0286 07       		.uleb128 0x7
 1371 0287 F1000000 		.4byte	.LASF52
 1372 028b 08       		.byte	0x8
 1373 028c 01       		.byte	0x1
 1374 028d 83       		.byte	0x83
 1375 028e AB020000 		.4byte	0x2ab
 1376 0292 08       		.uleb128 0x8
 1377 0293 EC000000 		.4byte	.LASF50
 1378 0297 01       		.byte	0x1
 1379 0298 84       		.byte	0x84
 1380 0299 4C020000 		.4byte	0x24c
 1381 029d 00       		.byte	0
 1382 029e 08       		.uleb128 0x8
 1383 029f 34000000 		.4byte	.LASF53
 1384 02a3 01       		.byte	0x1
 1385 02a4 85       		.byte	0x85
 1386 02a5 4C020000 		.4byte	0x24c
 1387 02a9 04       		.byte	0x4
 1388 02aa 00       		.byte	0
 1389 02ab 03       		.uleb128 0x3
 1390 02ac 00000000 		.4byte	.LASF54
 1391 02b0 08       		.byte	0x8
 1392 02b1 4C       		.byte	0x4c
 1393 02b2 B6020000 		.4byte	0x2b6
 1394 02b6 0D       		.uleb128 0xd
 1395 02b7 19040000 		.4byte	.LASF55
 1396 02bb 1C       		.byte	0x1c
 1397 02bc 01       		.byte	0x1
 1398 02bd 5E01     		.2byte	0x15e
 1399 02bf 12030000 		.4byte	0x312
 1400 02c3 0B       		.uleb128 0xb
 1401 02c4 9D030000 		.4byte	.LASF31
 1402 02c8 01       		.byte	0x1
 1403 02c9 5F01     		.2byte	0x15f
 1404 02cb 76020000 		.4byte	0x276
 1405 02cf 00       		.byte	0
 1406 02d0 0B       		.uleb128 0xb
 1407 02d1 1D050000 		.4byte	.LASF32
 1408 02d5 01       		.byte	0x1
 1409 02d6 6001     		.2byte	0x160
 1410 02d8 21010000 		.4byte	0x121
 1411 02dc 08       		.byte	0x8
 1412 02dd 0A       		.uleb128 0xa
 1413 02de 63747800 		.ascii	"ctx\000"
 1414 02e2 01       		.byte	0x1
 1415 02e3 6201     		.2byte	0x162
 1416 02e5 E0040000 		.4byte	0x4e0
 1417 02e9 0C       		.byte	0xc
 1418 02ea 0B       		.uleb128 0xb
 1419 02eb 5D040000 		.4byte	.LASF33
 1420 02ef 01       		.byte	0x1
 1421 02f0 6501     		.2byte	0x165
 1422 02f2 4C020000 		.4byte	0x24c
 1423 02f6 10       		.byte	0x10
 1424 02f7 0B       		.uleb128 0xb
 1425 02f8 B1060000 		.4byte	.LASF34
ARM GAS  /tmp/ccWkTx1E.s 			page 26


 1426 02fc 01       		.byte	0x1
 1427 02fd 6601     		.2byte	0x166
 1428 02ff 4C020000 		.4byte	0x24c
 1429 0303 14       		.byte	0x14
 1430 0304 0B       		.uleb128 0xb
 1431 0305 2B050000 		.4byte	.LASF56
 1432 0309 01       		.byte	0x1
 1433 030a 6901     		.2byte	0x169
 1434 030c 4C020000 		.4byte	0x24c
 1435 0310 18       		.byte	0x18
 1436 0311 00       		.byte	0
 1437 0312 03       		.uleb128 0x3
 1438 0313 FB060000 		.4byte	.LASF57
 1439 0317 08       		.byte	0x8
 1440 0318 51       		.byte	0x51
 1441 0319 1D030000 		.4byte	0x31d
 1442 031d 0C       		.uleb128 0xc
 1443 031e 04       		.byte	0x4
 1444 031f 23030000 		.4byte	0x323
 1445 0323 0E       		.uleb128 0xe
 1446 0324 2E030000 		.4byte	0x32e
 1447 0328 0F       		.uleb128 0xf
 1448 0329 2E030000 		.4byte	0x32e
 1449 032d 00       		.byte	0
 1450 032e 10       		.uleb128 0x10
 1451 032f 04       		.byte	0x4
 1452 0330 03       		.uleb128 0x3
 1453 0331 55050000 		.4byte	.LASF58
 1454 0335 08       		.byte	0x8
 1455 0336 56       		.byte	0x56
 1456 0337 3B030000 		.4byte	0x33b
 1457 033b 0D       		.uleb128 0xd
 1458 033c 12060000 		.4byte	.LASF59
 1459 0340 14       		.byte	0x14
 1460 0341 01       		.byte	0x1
 1461 0342 3901     		.2byte	0x139
 1462 0344 8A030000 		.4byte	0x38a
 1463 0348 0B       		.uleb128 0xb
 1464 0349 EC000000 		.4byte	.LASF50
 1465 034d 01       		.byte	0x1
 1466 034e 3A01     		.2byte	0x13a
 1467 0350 5D070000 		.4byte	0x75d
 1468 0354 00       		.byte	0
 1469 0355 0B       		.uleb128 0xb
 1470 0356 34000000 		.4byte	.LASF53
 1471 035a 01       		.byte	0x1
 1472 035b 3B01     		.2byte	0x13b
 1473 035d 5D070000 		.4byte	0x75d
 1474 0361 04       		.byte	0x4
 1475 0362 0B       		.uleb128 0xb
 1476 0363 14000000 		.4byte	.LASF60
 1477 0367 01       		.byte	0x1
 1478 0368 3C01     		.2byte	0x13c
 1479 036a 61040000 		.4byte	0x461
 1480 036e 08       		.byte	0x8
 1481 036f 0B       		.uleb128 0xb
 1482 0370 A6020000 		.4byte	.LASF61
ARM GAS  /tmp/ccWkTx1E.s 			page 27


 1483 0374 01       		.byte	0x1
 1484 0375 3D01     		.2byte	0x13d
 1485 0377 12030000 		.4byte	0x312
 1486 037b 0C       		.byte	0xc
 1487 037c 0A       		.uleb128 0xa
 1488 037d 70617200 		.ascii	"par\000"
 1489 0381 01       		.byte	0x1
 1490 0382 3F01     		.2byte	0x13f
 1491 0384 2E030000 		.4byte	0x32e
 1492 0388 10       		.byte	0x10
 1493 0389 00       		.byte	0
 1494 038a 03       		.uleb128 0x3
 1495 038b BB000000 		.4byte	.LASF62
 1496 038f 08       		.byte	0x8
 1497 0390 5B       		.byte	0x5b
 1498 0391 95030000 		.4byte	0x395
 1499 0395 0D       		.uleb128 0xd
 1500 0396 90040000 		.4byte	.LASF63
 1501 039a 10       		.byte	0x10
 1502 039b 01       		.byte	0x1
 1503 039c 4901     		.2byte	0x149
 1504 039e D7030000 		.4byte	0x3d7
 1505 03a2 0B       		.uleb128 0xb
 1506 03a3 EC000000 		.4byte	.LASF50
 1507 03a7 01       		.byte	0x1
 1508 03a8 4A01     		.2byte	0x14a
 1509 03aa 5D070000 		.4byte	0x75d
 1510 03ae 00       		.byte	0
 1511 03af 0B       		.uleb128 0xb
 1512 03b0 34000000 		.4byte	.LASF53
 1513 03b4 01       		.byte	0x1
 1514 03b5 4C01     		.2byte	0x14c
 1515 03b7 5D070000 		.4byte	0x75d
 1516 03bb 04       		.byte	0x4
 1517 03bc 0B       		.uleb128 0xb
 1518 03bd 14000000 		.4byte	.LASF60
 1519 03c1 01       		.byte	0x1
 1520 03c2 4E01     		.2byte	0x14e
 1521 03c4 61040000 		.4byte	0x461
 1522 03c8 08       		.byte	0x8
 1523 03c9 0B       		.uleb128 0xb
 1524 03ca D1050000 		.4byte	.LASF64
 1525 03ce 01       		.byte	0x1
 1526 03cf 5601     		.2byte	0x156
 1527 03d1 56040000 		.4byte	0x456
 1528 03d5 0C       		.byte	0xc
 1529 03d6 00       		.byte	0
 1530 03d7 03       		.uleb128 0x3
 1531 03d8 45000000 		.4byte	.LASF65
 1532 03dc 08       		.byte	0x8
 1533 03dd 60       		.byte	0x60
 1534 03de E2030000 		.4byte	0x3e2
 1535 03e2 0D       		.uleb128 0xd
 1536 03e3 F6020000 		.4byte	.LASF66
 1537 03e7 04       		.byte	0x4
 1538 03e8 01       		.byte	0x1
 1539 03e9 7001     		.2byte	0x170
ARM GAS  /tmp/ccWkTx1E.s 			page 28


 1540 03eb FD030000 		.4byte	0x3fd
 1541 03ef 0B       		.uleb128 0xb
 1542 03f0 18070000 		.4byte	.LASF67
 1543 03f4 01       		.byte	0x1
 1544 03f5 7801     		.2byte	0x178
 1545 03f7 46070000 		.4byte	0x746
 1546 03fb 00       		.byte	0
 1547 03fc 00       		.byte	0
 1548 03fd 03       		.uleb128 0x3
 1549 03fe E6030000 		.4byte	.LASF68
 1550 0402 08       		.byte	0x8
 1551 0403 65       		.byte	0x65
 1552 0404 08040000 		.4byte	0x408
 1553 0408 0D       		.uleb128 0xd
 1554 0409 E1050000 		.4byte	.LASF69
 1555 040d 78       		.byte	0x78
 1556 040e 01       		.byte	0x1
 1557 040f 9001     		.2byte	0x190
 1558 0411 56040000 		.4byte	0x456
 1559 0415 0B       		.uleb128 0xb
 1560 0416 0E030000 		.4byte	.LASF70
 1561 041a 01       		.byte	0x1
 1562 041b 9401     		.2byte	0x194
 1563 041d AB020000 		.4byte	0x2ab
 1564 0421 00       		.byte	0
 1565 0422 0B       		.uleb128 0xb
 1566 0423 45020000 		.4byte	.LASF71
 1567 0427 01       		.byte	0x1
 1568 0428 9801     		.2byte	0x198
 1569 042a 8A030000 		.4byte	0x38a
 1570 042e 1C       		.byte	0x1c
 1571 042f 0A       		.uleb128 0xa
 1572 0430 64626700 		.ascii	"dbg\000"
 1573 0434 01       		.byte	0x1
 1574 0435 9C01     		.2byte	0x19c
 1575 0437 D7030000 		.4byte	0x3d7
 1576 043b 2C       		.byte	0x2c
 1577 043c 0B       		.uleb128 0xb
 1578 043d A8000000 		.4byte	.LASF72
 1579 0441 01       		.byte	0x1
 1580 0442 A001     		.2byte	0x1a0
 1581 0444 58010000 		.4byte	0x158
 1582 0448 30       		.byte	0x30
 1583 0449 0A       		.uleb128 0xa
 1584 044a 746D00   		.ascii	"tm\000"
 1585 044d 01       		.byte	0x1
 1586 044e A501     		.2byte	0x1a5
 1587 0450 5F060000 		.4byte	0x65f
 1588 0454 74       		.byte	0x74
 1589 0455 00       		.byte	0
 1590 0456 03       		.uleb128 0x3
 1591 0457 F1060000 		.4byte	.LASF73
 1592 045b 09       		.byte	0x9
 1593 045c 6D       		.byte	0x6d
 1594 045d DF000000 		.4byte	0xdf
 1595 0461 03       		.uleb128 0x3
 1596 0462 2D030000 		.4byte	.LASF74
ARM GAS  /tmp/ccWkTx1E.s 			page 29


 1597 0466 09       		.byte	0x9
 1598 0467 79       		.byte	0x79
 1599 0468 DF000000 		.4byte	0xdf
 1600 046c 04       		.uleb128 0x4
 1601 046d 04       		.byte	0x4
 1602 046e 07       		.byte	0x7
 1603 046f 74040000 		.4byte	.LASF75
 1604 0473 11       		.uleb128 0x11
 1605 0474 D1000000 		.4byte	.LASF76
 1606 0478 0A       		.byte	0xa
 1607 0479 0408     		.2byte	0x804
 1608 047b DA000000 		.4byte	0xda
 1609 047f 12       		.uleb128 0x12
 1610 0480 64030000 		.4byte	.LASF77
 1611 0484 0B       		.byte	0xb
 1612 0485 4C       		.byte	0x4c
 1613 0486 DF000000 		.4byte	0xdf
 1614 048a 13       		.uleb128 0x13
 1615 048b BF000000 		.4byte	0xbf
 1616 048f 9A040000 		.4byte	0x49a
 1617 0493 14       		.uleb128 0x14
 1618 0494 6C040000 		.4byte	0x46c
 1619 0498 0F       		.byte	0xf
 1620 0499 00       		.byte	0
 1621 049a 05       		.uleb128 0x5
 1622 049b 8A040000 		.4byte	0x48a
 1623 049f 12       		.uleb128 0x12
 1624 04a0 33040000 		.4byte	.LASF78
 1625 04a4 0B       		.byte	0xb
 1626 04a5 4E       		.byte	0x4e
 1627 04a6 9A040000 		.4byte	0x49a
 1628 04aa 13       		.uleb128 0x13
 1629 04ab BF000000 		.4byte	0xbf
 1630 04af BA040000 		.4byte	0x4ba
 1631 04b3 14       		.uleb128 0x14
 1632 04b4 6C040000 		.4byte	0x46c
 1633 04b8 07       		.byte	0x7
 1634 04b9 00       		.byte	0
 1635 04ba 05       		.uleb128 0x5
 1636 04bb AA040000 		.4byte	0x4aa
 1637 04bf 12       		.uleb128 0x12
 1638 04c0 D7040000 		.4byte	.LASF79
 1639 04c4 0B       		.byte	0xb
 1640 04c5 4F       		.byte	0x4f
 1641 04c6 BA040000 		.4byte	0x4ba
 1642 04ca 03       		.uleb128 0x3
 1643 04cb DD020000 		.4byte	.LASF80
 1644 04cf 0C       		.byte	0xc
 1645 04d0 65       		.byte	0x65
 1646 04d1 2E030000 		.4byte	0x32e
 1647 04d5 03       		.uleb128 0x3
 1648 04d6 52040000 		.4byte	.LASF81
 1649 04da 0C       		.byte	0xc
 1650 04db 6D       		.byte	0x6d
 1651 04dc EA000000 		.4byte	0xea
 1652 04e0 07       		.uleb128 0x7
 1653 04e1 FF040000 		.4byte	.LASF82
ARM GAS  /tmp/ccWkTx1E.s 			page 30


 1654 04e5 04       		.byte	0x4
 1655 04e6 0C       		.byte	0xc
 1656 04e7 89       		.byte	0x89
 1657 04e8 F8040000 		.4byte	0x4f8
 1658 04ec 09       		.uleb128 0x9
 1659 04ed 737000   		.ascii	"sp\000"
 1660 04f0 0C       		.byte	0xc
 1661 04f1 8A       		.byte	0x8a
 1662 04f2 44060000 		.4byte	0x644
 1663 04f6 00       		.byte	0
 1664 04f7 00       		.byte	0
 1665 04f8 0D       		.uleb128 0xd
 1666 04f9 39000000 		.4byte	.LASF83
 1667 04fd 64       		.byte	0x64
 1668 04fe 0D       		.byte	0xd
 1669 04ff 5901     		.2byte	0x159
 1670 0501 44060000 		.4byte	0x644
 1671 0505 0A       		.uleb128 0xa
 1672 0506 73313600 		.ascii	"s16\000"
 1673 050a 0D       		.byte	0xd
 1674 050b 5B01     		.2byte	0x15b
 1675 050d CA040000 		.4byte	0x4ca
 1676 0511 00       		.byte	0
 1677 0512 0A       		.uleb128 0xa
 1678 0513 73313700 		.ascii	"s17\000"
 1679 0517 0D       		.byte	0xd
 1680 0518 5C01     		.2byte	0x15c
 1681 051a CA040000 		.4byte	0x4ca
 1682 051e 04       		.byte	0x4
 1683 051f 0A       		.uleb128 0xa
 1684 0520 73313800 		.ascii	"s18\000"
 1685 0524 0D       		.byte	0xd
 1686 0525 5D01     		.2byte	0x15d
 1687 0527 CA040000 		.4byte	0x4ca
 1688 052b 08       		.byte	0x8
 1689 052c 0A       		.uleb128 0xa
 1690 052d 73313900 		.ascii	"s19\000"
 1691 0531 0D       		.byte	0xd
 1692 0532 5E01     		.2byte	0x15e
 1693 0534 CA040000 		.4byte	0x4ca
 1694 0538 0C       		.byte	0xc
 1695 0539 0A       		.uleb128 0xa
 1696 053a 73323000 		.ascii	"s20\000"
 1697 053e 0D       		.byte	0xd
 1698 053f 5F01     		.2byte	0x15f
 1699 0541 CA040000 		.4byte	0x4ca
 1700 0545 10       		.byte	0x10
 1701 0546 0A       		.uleb128 0xa
 1702 0547 73323100 		.ascii	"s21\000"
 1703 054b 0D       		.byte	0xd
 1704 054c 6001     		.2byte	0x160
 1705 054e CA040000 		.4byte	0x4ca
 1706 0552 14       		.byte	0x14
 1707 0553 0A       		.uleb128 0xa
 1708 0554 73323200 		.ascii	"s22\000"
 1709 0558 0D       		.byte	0xd
 1710 0559 6101     		.2byte	0x161
ARM GAS  /tmp/ccWkTx1E.s 			page 31


 1711 055b CA040000 		.4byte	0x4ca
 1712 055f 18       		.byte	0x18
 1713 0560 0A       		.uleb128 0xa
 1714 0561 73323300 		.ascii	"s23\000"
 1715 0565 0D       		.byte	0xd
 1716 0566 6201     		.2byte	0x162
 1717 0568 CA040000 		.4byte	0x4ca
 1718 056c 1C       		.byte	0x1c
 1719 056d 0A       		.uleb128 0xa
 1720 056e 73323400 		.ascii	"s24\000"
 1721 0572 0D       		.byte	0xd
 1722 0573 6301     		.2byte	0x163
 1723 0575 CA040000 		.4byte	0x4ca
 1724 0579 20       		.byte	0x20
 1725 057a 0A       		.uleb128 0xa
 1726 057b 73323500 		.ascii	"s25\000"
 1727 057f 0D       		.byte	0xd
 1728 0580 6401     		.2byte	0x164
 1729 0582 CA040000 		.4byte	0x4ca
 1730 0586 24       		.byte	0x24
 1731 0587 0A       		.uleb128 0xa
 1732 0588 73323600 		.ascii	"s26\000"
 1733 058c 0D       		.byte	0xd
 1734 058d 6501     		.2byte	0x165
 1735 058f CA040000 		.4byte	0x4ca
 1736 0593 28       		.byte	0x28
 1737 0594 0A       		.uleb128 0xa
 1738 0595 73323700 		.ascii	"s27\000"
 1739 0599 0D       		.byte	0xd
 1740 059a 6601     		.2byte	0x166
 1741 059c CA040000 		.4byte	0x4ca
 1742 05a0 2C       		.byte	0x2c
 1743 05a1 0A       		.uleb128 0xa
 1744 05a2 73323800 		.ascii	"s28\000"
 1745 05a6 0D       		.byte	0xd
 1746 05a7 6701     		.2byte	0x167
 1747 05a9 CA040000 		.4byte	0x4ca
 1748 05ad 30       		.byte	0x30
 1749 05ae 0A       		.uleb128 0xa
 1750 05af 73323900 		.ascii	"s29\000"
 1751 05b3 0D       		.byte	0xd
 1752 05b4 6801     		.2byte	0x168
 1753 05b6 CA040000 		.4byte	0x4ca
 1754 05ba 34       		.byte	0x34
 1755 05bb 0A       		.uleb128 0xa
 1756 05bc 73333000 		.ascii	"s30\000"
 1757 05c0 0D       		.byte	0xd
 1758 05c1 6901     		.2byte	0x169
 1759 05c3 CA040000 		.4byte	0x4ca
 1760 05c7 38       		.byte	0x38
 1761 05c8 0A       		.uleb128 0xa
 1762 05c9 73333100 		.ascii	"s31\000"
 1763 05cd 0D       		.byte	0xd
 1764 05ce 6A01     		.2byte	0x16a
 1765 05d0 CA040000 		.4byte	0x4ca
 1766 05d4 3C       		.byte	0x3c
 1767 05d5 0A       		.uleb128 0xa
ARM GAS  /tmp/ccWkTx1E.s 			page 32


 1768 05d6 723400   		.ascii	"r4\000"
 1769 05d9 0D       		.byte	0xd
 1770 05da 6C01     		.2byte	0x16c
 1771 05dc CA040000 		.4byte	0x4ca
 1772 05e0 40       		.byte	0x40
 1773 05e1 0A       		.uleb128 0xa
 1774 05e2 723500   		.ascii	"r5\000"
 1775 05e5 0D       		.byte	0xd
 1776 05e6 6D01     		.2byte	0x16d
 1777 05e8 CA040000 		.4byte	0x4ca
 1778 05ec 44       		.byte	0x44
 1779 05ed 0A       		.uleb128 0xa
 1780 05ee 723600   		.ascii	"r6\000"
 1781 05f1 0D       		.byte	0xd
 1782 05f2 6E01     		.2byte	0x16e
 1783 05f4 CA040000 		.4byte	0x4ca
 1784 05f8 48       		.byte	0x48
 1785 05f9 0A       		.uleb128 0xa
 1786 05fa 723700   		.ascii	"r7\000"
 1787 05fd 0D       		.byte	0xd
 1788 05fe 6F01     		.2byte	0x16f
 1789 0600 CA040000 		.4byte	0x4ca
 1790 0604 4C       		.byte	0x4c
 1791 0605 0A       		.uleb128 0xa
 1792 0606 723800   		.ascii	"r8\000"
 1793 0609 0D       		.byte	0xd
 1794 060a 7001     		.2byte	0x170
 1795 060c CA040000 		.4byte	0x4ca
 1796 0610 50       		.byte	0x50
 1797 0611 0A       		.uleb128 0xa
 1798 0612 723900   		.ascii	"r9\000"
 1799 0615 0D       		.byte	0xd
 1800 0616 7101     		.2byte	0x171
 1801 0618 CA040000 		.4byte	0x4ca
 1802 061c 54       		.byte	0x54
 1803 061d 0A       		.uleb128 0xa
 1804 061e 72313000 		.ascii	"r10\000"
 1805 0622 0D       		.byte	0xd
 1806 0623 7201     		.2byte	0x172
 1807 0625 CA040000 		.4byte	0x4ca
 1808 0629 58       		.byte	0x58
 1809 062a 0A       		.uleb128 0xa
 1810 062b 72313100 		.ascii	"r11\000"
 1811 062f 0D       		.byte	0xd
 1812 0630 7301     		.2byte	0x173
 1813 0632 CA040000 		.4byte	0x4ca
 1814 0636 5C       		.byte	0x5c
 1815 0637 0A       		.uleb128 0xa
 1816 0638 6C7200   		.ascii	"lr\000"
 1817 063b 0D       		.byte	0xd
 1818 063c 7401     		.2byte	0x174
 1819 063e CA040000 		.4byte	0x4ca
 1820 0642 60       		.byte	0x60
 1821 0643 00       		.byte	0
 1822 0644 0C       		.uleb128 0xc
 1823 0645 04       		.byte	0x4
 1824 0646 F8040000 		.4byte	0x4f8
ARM GAS  /tmp/ccWkTx1E.s 			page 33


 1825 064a 15       		.uleb128 0x15
 1826 064b 04       		.byte	0x4
 1827 064c 0E       		.byte	0xe
 1828 064d 38       		.byte	0x38
 1829 064e 5F060000 		.4byte	0x65f
 1830 0652 08       		.uleb128 0x8
 1831 0653 E6020000 		.4byte	.LASF84
 1832 0657 0E       		.byte	0xe
 1833 0658 3C       		.byte	0x3c
 1834 0659 F5000000 		.4byte	0xf5
 1835 065d 00       		.byte	0
 1836 065e 00       		.byte	0
 1837 065f 03       		.uleb128 0x3
 1838 0660 0C050000 		.4byte	.LASF85
 1839 0664 0E       		.byte	0xe
 1840 0665 3D       		.byte	0x3d
 1841 0666 4A060000 		.4byte	0x64a
 1842 066a 16       		.uleb128 0x16
 1843 066b 04       		.byte	0x4
 1844 066c 01       		.byte	0x1
 1845 066d C6       		.byte	0xc6
 1846 066e CC060000 		.4byte	0x6cc
 1847 0672 17       		.uleb128 0x17
 1848 0673 1A000000 		.4byte	.LASF86
 1849 0677 01       		.byte	0x1
 1850 0678 CD       		.byte	0xcd
 1851 0679 2C010000 		.4byte	0x12c
 1852 067d 17       		.uleb128 0x17
 1853 067e 9F000000 		.4byte	.LASF87
 1854 0682 01       		.byte	0x1
 1855 0683 D4       		.byte	0xd4
 1856 0684 2C010000 		.4byte	0x12c
 1857 0688 17       		.uleb128 0x17
 1858 0689 F5070000 		.4byte	.LASF88
 1859 068d 01       		.byte	0x1
 1860 068e DB       		.byte	0xdb
 1861 068f 2E030000 		.4byte	0x32e
 1862 0693 17       		.uleb128 0x17
 1863 0694 7B030000 		.4byte	.LASF89
 1864 0698 01       		.byte	0x1
 1865 0699 E2       		.byte	0xe2
 1866 069a CC060000 		.4byte	0x6cc
 1867 069e 17       		.uleb128 0x17
 1868 069f B3000000 		.4byte	.LASF90
 1869 06a3 01       		.byte	0x1
 1870 06a4 E7       		.byte	0xe7
 1871 06a5 2C010000 		.4byte	0x12c
 1872 06a9 17       		.uleb128 0x17
 1873 06aa 74030000 		.4byte	.LASF91
 1874 06ae 01       		.byte	0x1
 1875 06af F0       		.byte	0xf0
 1876 06b0 F7060000 		.4byte	0x6f7
 1877 06b4 17       		.uleb128 0x17
 1878 06b5 6A060000 		.4byte	.LASF92
 1879 06b9 01       		.byte	0x1
 1880 06ba F9       		.byte	0xf9
 1881 06bb 3A070000 		.4byte	0x73a
ARM GAS  /tmp/ccWkTx1E.s 			page 34


 1882 06bf 18       		.uleb128 0x18
 1883 06c0 DA050000 		.4byte	.LASF93
 1884 06c4 01       		.byte	0x1
 1885 06c5 0101     		.2byte	0x101
 1886 06c7 37010000 		.4byte	0x137
 1887 06cb 00       		.byte	0
 1888 06cc 0C       		.uleb128 0xc
 1889 06cd 04       		.byte	0x4
 1890 06ce 41020000 		.4byte	0x241
 1891 06d2 07       		.uleb128 0x7
 1892 06d3 30060000 		.4byte	.LASF94
 1893 06d7 0C       		.byte	0xc
 1894 06d8 0F       		.byte	0xf
 1895 06d9 34       		.byte	0x34
 1896 06da F7060000 		.4byte	0x6f7
 1897 06de 08       		.uleb128 0x8
 1898 06df 9D030000 		.4byte	.LASF31
 1899 06e3 0F       		.byte	0xf
 1900 06e4 35       		.byte	0x35
 1901 06e5 76020000 		.4byte	0x276
 1902 06e9 00       		.byte	0
 1903 06ea 09       		.uleb128 0x9
 1904 06eb 636E7400 		.ascii	"cnt\000"
 1905 06ef 0F       		.byte	0xf
 1906 06f0 37       		.byte	0x37
 1907 06f1 42010000 		.4byte	0x142
 1908 06f5 08       		.byte	0x8
 1909 06f6 00       		.byte	0
 1910 06f7 0C       		.uleb128 0xc
 1911 06f8 04       		.byte	0x4
 1912 06f9 D2060000 		.4byte	0x6d2
 1913 06fd 07       		.uleb128 0x7
 1914 06fe 4A070000 		.4byte	.LASF95
 1915 0702 14       		.byte	0x14
 1916 0703 10       		.byte	0x10
 1917 0704 39       		.byte	0x39
 1918 0705 3A070000 		.4byte	0x73a
 1919 0709 08       		.uleb128 0x8
 1920 070a 9D030000 		.4byte	.LASF31
 1921 070e 10       		.byte	0x10
 1922 070f 3A       		.byte	0x3a
 1923 0710 76020000 		.4byte	0x276
 1924 0714 00       		.byte	0
 1925 0715 08       		.uleb128 0x8
 1926 0716 8D060000 		.4byte	.LASF96
 1927 071a 10       		.byte	0x10
 1928 071b 3C       		.byte	0x3c
 1929 071c 4C020000 		.4byte	0x24c
 1930 0720 08       		.byte	0x8
 1931 0721 08       		.uleb128 0x8
 1932 0722 EC000000 		.4byte	.LASF50
 1933 0726 10       		.byte	0x10
 1934 0727 3E       		.byte	0x3e
 1935 0728 9C080000 		.4byte	0x89c
 1936 072c 0C       		.byte	0xc
 1937 072d 09       		.uleb128 0x9
 1938 072e 636E7400 		.ascii	"cnt\000"
ARM GAS  /tmp/ccWkTx1E.s 			page 35


 1939 0732 10       		.byte	0x10
 1940 0733 41       		.byte	0x41
 1941 0734 42010000 		.4byte	0x142
 1942 0738 10       		.byte	0x10
 1943 0739 00       		.byte	0
 1944 073a 0C       		.uleb128 0xc
 1945 073b 04       		.byte	0x4
 1946 073c FD060000 		.4byte	0x6fd
 1947 0740 0C       		.uleb128 0xc
 1948 0741 04       		.byte	0x4
 1949 0742 52070000 		.4byte	0x752
 1950 0746 06       		.uleb128 0x6
 1951 0747 40070000 		.4byte	0x740
 1952 074b 04       		.uleb128 0x4
 1953 074c 01       		.byte	0x1
 1954 074d 08       		.byte	0x8
 1955 074e AC060000 		.4byte	.LASF97
 1956 0752 05       		.uleb128 0x5
 1957 0753 4B070000 		.4byte	0x74b
 1958 0757 0C       		.uleb128 0xc
 1959 0758 04       		.byte	0x4
 1960 0759 D5040000 		.4byte	0x4d5
 1961 075d 0C       		.uleb128 0xc
 1962 075e 04       		.byte	0x4
 1963 075f 30030000 		.4byte	0x330
 1964 0763 19       		.uleb128 0x19
 1965 0764 636800   		.ascii	"ch\000"
 1966 0767 01       		.byte	0x1
 1967 0768 C701     		.2byte	0x1c7
 1968 076a FD030000 		.4byte	0x3fd
 1969 076e 13       		.uleb128 0x13
 1970 076f D5040000 		.4byte	0x4d5
 1971 0773 79070000 		.4byte	0x779
 1972 0777 1A       		.uleb128 0x1a
 1973 0778 00       		.byte	0
 1974 0779 11       		.uleb128 0x11
 1975 077a 46060000 		.4byte	.LASF98
 1976 077e 11       		.byte	0x11
 1977 077f 1701     		.2byte	0x117
 1978 0781 6E070000 		.4byte	0x76e
 1979 0785 15       		.uleb128 0x15
 1980 0786 16       		.byte	0x16
 1981 0787 12       		.byte	0x12
 1982 0788 34       		.byte	0x34
 1983 0789 66080000 		.4byte	0x866
 1984 078d 08       		.uleb128 0x8
 1985 078e 70070000 		.4byte	.LASF99
 1986 0792 12       		.byte	0x12
 1987 0793 35       		.byte	0x35
 1988 0794 66080000 		.4byte	0x866
 1989 0798 00       		.byte	0
 1990 0799 08       		.uleb128 0x8
 1991 079a 14030000 		.4byte	.LASF100
 1992 079e 12       		.byte	0x12
 1993 079f 36       		.byte	0x36
 1994 07a0 B4000000 		.4byte	0xb4
 1995 07a4 04       		.byte	0x4
ARM GAS  /tmp/ccWkTx1E.s 			page 36


 1996 07a5 08       		.uleb128 0x8
 1997 07a6 22010000 		.4byte	.LASF101
 1998 07aa 12       		.byte	0x12
 1999 07ab 37       		.byte	0x37
 2000 07ac B4000000 		.4byte	0xb4
 2001 07b0 05       		.byte	0x5
 2002 07b1 08       		.uleb128 0x8
 2003 07b2 6C040000 		.4byte	.LASF102
 2004 07b6 12       		.byte	0x12
 2005 07b7 38       		.byte	0x38
 2006 07b8 C4000000 		.4byte	0xc4
 2007 07bc 06       		.byte	0x6
 2008 07bd 08       		.uleb128 0x8
 2009 07be 8F070000 		.4byte	.LASF103
 2010 07c2 12       		.byte	0x12
 2011 07c3 39       		.byte	0x39
 2012 07c4 B4000000 		.4byte	0xb4
 2013 07c8 08       		.byte	0x8
 2014 07c9 08       		.uleb128 0x8
 2015 07ca 58060000 		.4byte	.LASF104
 2016 07ce 12       		.byte	0x12
 2017 07cf 3A       		.byte	0x3a
 2018 07d0 B4000000 		.4byte	0xb4
 2019 07d4 09       		.byte	0x9
 2020 07d5 08       		.uleb128 0x8
 2021 07d6 8A050000 		.4byte	.LASF105
 2022 07da 12       		.byte	0x12
 2023 07db 3B       		.byte	0x3b
 2024 07dc B4000000 		.4byte	0xb4
 2025 07e0 0A       		.byte	0xa
 2026 07e1 08       		.uleb128 0x8
 2027 07e2 B1050000 		.4byte	.LASF106
 2028 07e6 12       		.byte	0x12
 2029 07e7 3C       		.byte	0x3c
 2030 07e8 B4000000 		.4byte	0xb4
 2031 07ec 0B       		.byte	0xb
 2032 07ed 08       		.uleb128 0x8
 2033 07ee 01040000 		.4byte	.LASF107
 2034 07f2 12       		.byte	0x12
 2035 07f3 3D       		.byte	0x3d
 2036 07f4 B4000000 		.4byte	0xb4
 2037 07f8 0C       		.byte	0xc
 2038 07f9 08       		.uleb128 0x8
 2039 07fa CD040000 		.4byte	.LASF108
 2040 07fe 12       		.byte	0x12
 2041 07ff 3E       		.byte	0x3e
 2042 0800 B4000000 		.4byte	0xb4
 2043 0804 0D       		.byte	0xd
 2044 0805 08       		.uleb128 0x8
 2045 0806 53070000 		.4byte	.LASF109
 2046 080a 12       		.byte	0x12
 2047 080b 3F       		.byte	0x3f
 2048 080c B4000000 		.4byte	0xb4
 2049 0810 0E       		.byte	0xe
 2050 0811 08       		.uleb128 0x8
 2051 0812 C6070000 		.4byte	.LASF110
 2052 0816 12       		.byte	0x12
ARM GAS  /tmp/ccWkTx1E.s 			page 37


 2053 0817 40       		.byte	0x40
 2054 0818 B4000000 		.4byte	0xb4
 2055 081c 0F       		.byte	0xf
 2056 081d 08       		.uleb128 0x8
 2057 081e BA050000 		.4byte	.LASF111
 2058 0822 12       		.byte	0x12
 2059 0823 41       		.byte	0x41
 2060 0824 B4000000 		.4byte	0xb4
 2061 0828 10       		.byte	0x10
 2062 0829 08       		.uleb128 0x8
 2063 082a 0B080000 		.4byte	.LASF112
 2064 082e 12       		.byte	0x12
 2065 082f 42       		.byte	0x42
 2066 0830 B4000000 		.4byte	0xb4
 2067 0834 11       		.byte	0x11
 2068 0835 08       		.uleb128 0x8
 2069 0836 50080000 		.4byte	.LASF113
 2070 083a 12       		.byte	0x12
 2071 083b 43       		.byte	0x43
 2072 083c B4000000 		.4byte	0xb4
 2073 0840 12       		.byte	0x12
 2074 0841 08       		.uleb128 0x8
 2075 0842 A9030000 		.4byte	.LASF114
 2076 0846 12       		.byte	0x12
 2077 0847 44       		.byte	0x44
 2078 0848 B4000000 		.4byte	0xb4
 2079 084c 13       		.byte	0x13
 2080 084d 08       		.uleb128 0x8
 2081 084e B5020000 		.4byte	.LASF115
 2082 0852 12       		.byte	0x12
 2083 0853 45       		.byte	0x45
 2084 0854 B4000000 		.4byte	0xb4
 2085 0858 14       		.byte	0x14
 2086 0859 08       		.uleb128 0x8
 2087 085a 3D060000 		.4byte	.LASF116
 2088 085e 12       		.byte	0x12
 2089 085f 46       		.byte	0x46
 2090 0860 B4000000 		.4byte	0xb4
 2091 0864 15       		.byte	0x15
 2092 0865 00       		.byte	0
 2093 0866 13       		.uleb128 0x13
 2094 0867 4B070000 		.4byte	0x74b
 2095 086b 76080000 		.4byte	0x876
 2096 086f 14       		.uleb128 0x14
 2097 0870 6C040000 		.4byte	0x46c
 2098 0874 03       		.byte	0x3
 2099 0875 00       		.byte	0
 2100 0876 03       		.uleb128 0x3
 2101 0877 AB020000 		.4byte	.LASF117
 2102 087b 12       		.byte	0x12
 2103 087c 47       		.byte	0x47
 2104 087d 85070000 		.4byte	0x785
 2105 0881 05       		.uleb128 0x5
 2106 0882 76080000 		.4byte	0x876
 2107 0886 12       		.uleb128 0x12
 2108 0887 81030000 		.4byte	.LASF118
 2109 088b 12       		.byte	0x12
ARM GAS  /tmp/ccWkTx1E.s 			page 38


 2110 088c 6C       		.byte	0x6c
 2111 088d 81080000 		.4byte	0x881
 2112 0891 03       		.uleb128 0x3
 2113 0892 02010000 		.4byte	.LASF119
 2114 0896 10       		.byte	0x10
 2115 0897 34       		.byte	0x34
 2116 0898 FD060000 		.4byte	0x6fd
 2117 089c 0C       		.uleb128 0xc
 2118 089d 04       		.byte	0x4
 2119 089e 91080000 		.4byte	0x891
 2120 08a2 04       		.uleb128 0x4
 2121 08a3 01       		.byte	0x1
 2122 08a4 02       		.byte	0x2
 2123 08a5 95050000 		.4byte	.LASF120
 2124 08a9 03       		.uleb128 0x3
 2125 08aa 7B000000 		.4byte	.LASF121
 2126 08ae 13       		.byte	0x13
 2127 08af 47       		.byte	0x47
 2128 08b0 B4080000 		.4byte	0x8b4
 2129 08b4 0C       		.uleb128 0xc
 2130 08b5 04       		.byte	0x4
 2131 08b6 BA080000 		.4byte	0x8ba
 2132 08ba 1B       		.uleb128 0x1b
 2133 08bb 2E030000 		.4byte	0x32e
 2134 08bf CE080000 		.4byte	0x8ce
 2135 08c3 0F       		.uleb128 0xf
 2136 08c4 2C000000 		.4byte	0x2c
 2137 08c8 0F       		.uleb128 0xf
 2138 08c9 37000000 		.4byte	0x37
 2139 08cd 00       		.byte	0
 2140 08ce 15       		.uleb128 0x15
 2141 08cf 08       		.byte	0x8
 2142 08d0 13       		.byte	0x13
 2143 08d1 51       		.byte	0x51
 2144 08d2 EF080000 		.4byte	0x8ef
 2145 08d6 08       		.uleb128 0x8
 2146 08d7 8E080000 		.4byte	.LASF122
 2147 08db 13       		.byte	0x13
 2148 08dc 55       		.byte	0x55
 2149 08dd EF080000 		.4byte	0x8ef
 2150 08e1 00       		.byte	0
 2151 08e2 08       		.uleb128 0x8
 2152 08e3 41040000 		.4byte	.LASF123
 2153 08e7 13       		.byte	0x13
 2154 08e8 59       		.byte	0x59
 2155 08e9 EF080000 		.4byte	0x8ef
 2156 08ed 04       		.byte	0x4
 2157 08ee 00       		.byte	0
 2158 08ef 0C       		.uleb128 0xc
 2159 08f0 04       		.byte	0x4
 2160 08f1 B4000000 		.4byte	0xb4
 2161 08f5 03       		.uleb128 0x3
 2162 08f6 3E050000 		.4byte	.LASF124
 2163 08fa 13       		.byte	0x13
 2164 08fb 5A       		.byte	0x5a
 2165 08fc CE080000 		.4byte	0x8ce
 2166 0900 12       		.uleb128 0x12
ARM GAS  /tmp/ccWkTx1E.s 			page 39


 2167 0901 D4060000 		.4byte	.LASF125
 2168 0905 13       		.byte	0x13
 2169 0906 65       		.byte	0x65
 2170 0907 F5080000 		.4byte	0x8f5
 2171 090b 07       		.uleb128 0x7
 2172 090c BA070000 		.4byte	.LASF126
 2173 0910 04       		.byte	0x4
 2174 0911 14       		.byte	0x14
 2175 0912 38       		.byte	0x38
 2176 0913 24090000 		.4byte	0x924
 2177 0917 08       		.uleb128 0x8
 2178 0918 EC000000 		.4byte	.LASF50
 2179 091c 14       		.byte	0x14
 2180 091d 39       		.byte	0x39
 2181 091e 24090000 		.4byte	0x924
 2182 0922 00       		.byte	0
 2183 0923 00       		.byte	0
 2184 0924 0C       		.uleb128 0xc
 2185 0925 04       		.byte	0x4
 2186 0926 0B090000 		.4byte	0x90b
 2187 092a 15       		.uleb128 0x15
 2188 092b 10       		.byte	0x10
 2189 092c 14       		.byte	0x14
 2190 092d 40       		.byte	0x40
 2191 092e 63090000 		.4byte	0x963
 2192 0932 08       		.uleb128 0x8
 2193 0933 EC000000 		.4byte	.LASF50
 2194 0937 14       		.byte	0x14
 2195 0938 41       		.byte	0x41
 2196 0939 24090000 		.4byte	0x924
 2197 093d 00       		.byte	0
 2198 093e 08       		.uleb128 0x8
 2199 093f 83070000 		.4byte	.LASF127
 2200 0943 14       		.byte	0x14
 2201 0944 42       		.byte	0x42
 2202 0945 2C000000 		.4byte	0x2c
 2203 0949 04       		.byte	0x4
 2204 094a 08       		.uleb128 0x8
 2205 094b 27030000 		.4byte	.LASF128
 2206 094f 14       		.byte	0x14
 2207 0950 44       		.byte	0x44
 2208 0951 37000000 		.4byte	0x37
 2209 0955 08       		.byte	0x8
 2210 0956 08       		.uleb128 0x8
 2211 0957 54000000 		.4byte	.LASF129
 2212 095b 14       		.byte	0x14
 2213 095c 45       		.byte	0x45
 2214 095d A9080000 		.4byte	0x8a9
 2215 0961 0C       		.byte	0xc
 2216 0962 00       		.byte	0
 2217 0963 03       		.uleb128 0x3
 2218 0964 8A030000 		.4byte	.LASF130
 2219 0968 14       		.byte	0x14
 2220 0969 47       		.byte	0x47
 2221 096a 2A090000 		.4byte	0x92a
 2222 096e 07       		.uleb128 0x7
 2223 096f 65050000 		.4byte	.LASF131
ARM GAS  /tmp/ccWkTx1E.s 			page 40


 2224 0973 10       		.byte	0x10
 2225 0974 15       		.byte	0x15
 2226 0975 A9       		.byte	0xa9
 2227 0976 9F090000 		.4byte	0x99f
 2228 097a 08       		.uleb128 0x8
 2229 097b EC000000 		.4byte	.LASF50
 2230 097f 15       		.byte	0x15
 2231 0980 AD       		.byte	0xad
 2232 0981 9F090000 		.4byte	0x99f
 2233 0985 00       		.byte	0
 2234 0986 08       		.uleb128 0x8
 2235 0987 50050000 		.4byte	.LASF39
 2236 098b 15       		.byte	0x15
 2237 098c B1       		.byte	0xb1
 2238 098d 4D010000 		.4byte	0x14d
 2239 0991 04       		.byte	0x4
 2240 0992 08       		.uleb128 0x8
 2241 0993 98030000 		.4byte	.LASF35
 2242 0997 15       		.byte	0x15
 2243 0998 B3       		.byte	0xb3
 2244 0999 A5090000 		.4byte	0x9a5
 2245 099d 08       		.byte	0x8
 2246 099e 00       		.byte	0
 2247 099f 0C       		.uleb128 0xc
 2248 09a0 04       		.byte	0x4
 2249 09a1 6E090000 		.4byte	0x96e
 2250 09a5 13       		.uleb128 0x13
 2251 09a6 4B070000 		.4byte	0x74b
 2252 09aa B5090000 		.4byte	0x9b5
 2253 09ae 14       		.uleb128 0x14
 2254 09af 6C040000 		.4byte	0x46c
 2255 09b3 07       		.byte	0x7
 2256 09b4 00       		.byte	0
 2257 09b5 03       		.uleb128 0x3
 2258 09b6 DE000000 		.4byte	.LASF132
 2259 09ba 15       		.byte	0x15
 2260 09bb B7       		.byte	0xb7
 2261 09bc 6E090000 		.4byte	0x96e
 2262 09c0 07       		.uleb128 0x7
 2263 09c1 C1040000 		.4byte	.LASF133
 2264 09c5 04       		.byte	0x4
 2265 09c6 15       		.byte	0x15
 2266 09c7 BC       		.byte	0xbc
 2267 09c8 D9090000 		.4byte	0x9d9
 2268 09cc 08       		.uleb128 0x8
 2269 09cd EC000000 		.4byte	.LASF50
 2270 09d1 15       		.byte	0x15
 2271 09d2 BD       		.byte	0xbd
 2272 09d3 D9090000 		.4byte	0x9d9
 2273 09d7 00       		.byte	0
 2274 09d8 00       		.byte	0
 2275 09d9 0C       		.uleb128 0xc
 2276 09da 04       		.byte	0x4
 2277 09db B5090000 		.4byte	0x9b5
 2278 09df 03       		.uleb128 0x3
 2279 09e0 DB030000 		.4byte	.LASF134
 2280 09e4 15       		.byte	0x15
ARM GAS  /tmp/ccWkTx1E.s 			page 41


 2281 09e5 BE       		.byte	0xbe
 2282 09e6 C0090000 		.4byte	0x9c0
 2283 09ea 0D       		.uleb128 0xd
 2284 09eb 97070000 		.4byte	.LASF135
 2285 09ef 48       		.byte	0x48
 2286 09f0 15       		.byte	0x15
 2287 09f1 3E01     		.2byte	0x13e
 2288 09f3 600A0000 		.4byte	0xa60
 2289 09f7 0A       		.uleb128 0xa
 2290 09f8 6D747800 		.ascii	"mtx\000"
 2291 09fc 15       		.byte	0x15
 2292 09fd 4301     		.2byte	0x143
 2293 09ff 91080000 		.4byte	0x891
 2294 0a03 00       		.byte	0
 2295 0a04 0B       		.uleb128 0xb
 2296 0a05 B7060000 		.4byte	.LASF136
 2297 0a09 15       		.byte	0x15
 2298 0a0a 4A01     		.2byte	0x14a
 2299 0a0c DF090000 		.4byte	0x9df
 2300 0a10 14       		.byte	0x14
 2301 0a11 0B       		.uleb128 0xb
 2302 0a12 09060000 		.4byte	.LASF137
 2303 0a16 15       		.byte	0x15
 2304 0a17 4E01     		.2byte	0x14e
 2305 0a19 63090000 		.4byte	0x963
 2306 0a1d 18       		.byte	0x18
 2307 0a1e 0B       		.uleb128 0xb
 2308 0a1f B2030000 		.4byte	.LASF138
 2309 0a23 15       		.byte	0x15
 2310 0a24 5301     		.2byte	0x153
 2311 0a26 DF090000 		.4byte	0x9df
 2312 0a2a 28       		.byte	0x28
 2313 0a2b 0B       		.uleb128 0xb
 2314 0a2c 68000000 		.4byte	.LASF139
 2315 0a30 15       		.byte	0x15
 2316 0a31 5901     		.2byte	0x159
 2317 0a33 DF090000 		.4byte	0x9df
 2318 0a37 2C       		.byte	0x2c
 2319 0a38 0B       		.uleb128 0xb
 2320 0a39 22050000 		.4byte	.LASF140
 2321 0a3d 15       		.byte	0x15
 2322 0a3e 5D01     		.2byte	0x15d
 2323 0a40 63090000 		.4byte	0x963
 2324 0a44 30       		.byte	0x30
 2325 0a45 0B       		.uleb128 0xb
 2326 0a46 ED020000 		.4byte	.LASF141
 2327 0a4a 15       		.byte	0x15
 2328 0a4b 6301     		.2byte	0x163
 2329 0a4d DF090000 		.4byte	0x9df
 2330 0a51 40       		.byte	0x40
 2331 0a52 0B       		.uleb128 0xb
 2332 0a53 EB070000 		.4byte	.LASF142
 2333 0a57 15       		.byte	0x15
 2334 0a58 6901     		.2byte	0x169
 2335 0a5a DF090000 		.4byte	0x9df
 2336 0a5e 44       		.byte	0x44
 2337 0a5f 00       		.byte	0
ARM GAS  /tmp/ccWkTx1E.s 			page 42


 2338 0a60 1C       		.uleb128 0x1c
 2339 0a61 21080000 		.4byte	.LASF143
 2340 0a65 15       		.byte	0x15
 2341 0a66 7101     		.2byte	0x171
 2342 0a68 EA090000 		.4byte	0x9ea
 2343 0a6c 11       		.uleb128 0x11
 2344 0a6d F4050000 		.4byte	.LASF144
 2345 0a71 15       		.byte	0x15
 2346 0a72 7C01     		.2byte	0x17c
 2347 0a74 600A0000 		.4byte	0xa60
 2348 0a78 1D       		.uleb128 0x1d
 2349 0a79 F2030000 		.4byte	.LASF145
 2350 0a7d 02       		.byte	0x2
 2351 0a7e 0C02     		.2byte	0x20c
 2352 0a80 00000000 		.4byte	.LFB298
 2353 0a84 54000000 		.4byte	.LFE298-.LFB298
 2354 0a88 01       		.uleb128 0x1
 2355 0a89 9C       		.byte	0x9c
 2356 0a8a C40B0000 		.4byte	0xbc4
 2357 0a8e 1E       		.uleb128 0x1e
 2358 0a8f 63747000 		.ascii	"ctp\000"
 2359 0a93 02       		.byte	0x2
 2360 0a94 0D02     		.2byte	0x20d
 2361 0a96 4C020000 		.4byte	0x24c
 2362 0a9a 01       		.uleb128 0x1
 2363 0a9b 54       		.byte	0x54
 2364 0a9c 1F       		.uleb128 0x1f
 2365 0a9d A8000000 		.4byte	.Ldebug_ranges0+0xa8
 2366 0aa1 2B0B0000 		.4byte	0xb2b
 2367 0aa5 20       		.uleb128 0x20
 2368 0aa6 6D7000   		.ascii	"mp\000"
 2369 0aa9 02       		.byte	0x2
 2370 0aaa 1202     		.2byte	0x212
 2371 0aac 9C080000 		.4byte	0x89c
 2372 0ab0 00000000 		.4byte	.LLST37
 2373 0ab4 1F       		.uleb128 0x1f
 2374 0ab5 C0000000 		.4byte	.Ldebug_ranges0+0xc0
 2375 0ab9 FF0A0000 		.4byte	0xaff
 2376 0abd 21       		.uleb128 0x21
 2377 0abe 747000   		.ascii	"tp\000"
 2378 0ac1 02       		.byte	0x2
 2379 0ac2 1802     		.2byte	0x218
 2380 0ac4 4C020000 		.4byte	0x24c
 2381 0ac8 22       		.uleb128 0x22
 2382 0ac9 0B130000 		.4byte	0x130b
 2383 0acd 20000000 		.4byte	.LBB188
 2384 0ad1 D8000000 		.4byte	.Ldebug_ranges0+0xd8
 2385 0ad5 02       		.byte	0x2
 2386 0ad6 1802     		.2byte	0x218
 2387 0ad8 F50A0000 		.4byte	0xaf5
 2388 0adc 23       		.uleb128 0x23
 2389 0add 1C130000 		.4byte	0x131c
 2390 0ae1 1E000000 		.4byte	.LLST38
 2391 0ae5 24       		.uleb128 0x24
 2392 0ae6 D8000000 		.4byte	.Ldebug_ranges0+0xd8
 2393 0aea 25       		.uleb128 0x25
 2394 0aeb 28130000 		.4byte	0x1328
ARM GAS  /tmp/ccWkTx1E.s 			page 43


 2395 0aef 31000000 		.4byte	.LLST39
 2396 0af3 00       		.byte	0
 2397 0af4 00       		.byte	0
 2398 0af5 26       		.uleb128 0x26
 2399 0af6 34000000 		.4byte	.LVL77
 2400 0afa 29140000 		.4byte	0x1429
 2401 0afe 00       		.byte	0
 2402 0aff 27       		.uleb128 0x27
 2403 0b00 AF120000 		.4byte	0x12af
 2404 0b04 16000000 		.4byte	.LBB192
 2405 0b08 02000000 		.4byte	.LBE192-.LBB192
 2406 0b0c 02       		.byte	0x2
 2407 0b0d 1402     		.2byte	0x214
 2408 0b0f 28       		.uleb128 0x28
 2409 0b10 BF120000 		.4byte	0x12bf
 2410 0b14 29       		.uleb128 0x29
 2411 0b15 7B130000 		.4byte	0x137b
 2412 0b19 16000000 		.4byte	.LBB194
 2413 0b1d 02000000 		.4byte	.LBE194-.LBB194
 2414 0b21 10       		.byte	0x10
 2415 0b22 84       		.byte	0x84
 2416 0b23 28       		.uleb128 0x28
 2417 0b24 8C130000 		.4byte	0x138c
 2418 0b28 00       		.byte	0
 2419 0b29 00       		.byte	0
 2420 0b2a 00       		.byte	0
 2421 0b2b 2A       		.uleb128 0x2a
 2422 0b2c E5120000 		.4byte	0x12e5
 2423 0b30 06000000 		.4byte	.LBB182
 2424 0b34 06000000 		.4byte	.LBE182-.LBB182
 2425 0b38 02       		.byte	0x2
 2426 0b39 0F02     		.2byte	0x20f
 2427 0b3b 6B0B0000 		.4byte	0xb6b
 2428 0b3f 27       		.uleb128 0x27
 2429 0b40 C2130000 		.4byte	0x13c2
 2430 0b44 06000000 		.4byte	.LBB183
 2431 0b48 06000000 		.4byte	.LBE183-.LBB183
 2432 0b4c 11       		.byte	0x11
 2433 0b4d 6301     		.2byte	0x163
 2434 0b4f 27       		.uleb128 0x27
 2435 0b50 CB130000 		.4byte	0x13cb
 2436 0b54 06000000 		.4byte	.LBB184
 2437 0b58 06000000 		.4byte	.LBE184-.LBB184
 2438 0b5c 0D       		.byte	0xd
 2439 0b5d 6202     		.2byte	0x262
 2440 0b5f 23       		.uleb128 0x23
 2441 0b60 D8130000 		.4byte	0x13d8
 2442 0b64 44000000 		.4byte	.LLST36
 2443 0b68 00       		.byte	0
 2444 0b69 00       		.byte	0
 2445 0b6a 00       		.byte	0
 2446 0b6b 2A       		.uleb128 0x2a
 2447 0b6c CA120000 		.4byte	0x12ca
 2448 0b70 42000000 		.4byte	.LBB197
 2449 0b74 08000000 		.4byte	.LBE197-.LBB197
 2450 0b78 02       		.byte	0x2
 2451 0b79 2802     		.2byte	0x228
ARM GAS  /tmp/ccWkTx1E.s 			page 44


 2452 0b7b BA0B0000 		.4byte	0xbba
 2453 0b7f 2B       		.uleb128 0x2b
 2454 0b80 42000000 		.4byte	.LBB198
 2455 0b84 08000000 		.4byte	.LBE198-.LBB198
 2456 0b88 2C       		.uleb128 0x2c
 2457 0b89 D7120000 		.4byte	0x12d7
 2458 0b8d 27       		.uleb128 0x27
 2459 0b8e B9130000 		.4byte	0x13b9
 2460 0b92 42000000 		.4byte	.LBB199
 2461 0b96 08000000 		.4byte	.LBE199-.LBB199
 2462 0b9a 11       		.byte	0x11
 2463 0b9b 7A01     		.2byte	0x17a
 2464 0b9d 27       		.uleb128 0x27
 2465 0b9e CB130000 		.4byte	0x13cb
 2466 0ba2 42000000 		.4byte	.LBB200
 2467 0ba6 08000000 		.4byte	.LBE200-.LBB200
 2468 0baa 0D       		.byte	0xd
 2469 0bab 7502     		.2byte	0x275
 2470 0bad 23       		.uleb128 0x23
 2471 0bae D8130000 		.4byte	0x13d8
 2472 0bb2 59000000 		.4byte	.LLST40
 2473 0bb6 00       		.byte	0
 2474 0bb7 00       		.byte	0
 2475 0bb8 00       		.byte	0
 2476 0bb9 00       		.byte	0
 2477 0bba 26       		.uleb128 0x26
 2478 0bbb 42000000 		.4byte	.LVL78
 2479 0bbf 35140000 		.4byte	0x1435
 2480 0bc3 00       		.byte	0
 2481 0bc4 1D       		.uleb128 0x1d
 2482 0bc5 96020000 		.4byte	.LASF146
 2483 0bc9 02       		.byte	0x2
 2484 0bca E701     		.2byte	0x1e7
 2485 0bcc 00000000 		.4byte	.LFB297
 2486 0bd0 40000000 		.4byte	.LFE297-.LFB297
 2487 0bd4 01       		.uleb128 0x1
 2488 0bd5 9C       		.byte	0x9c
 2489 0bd6 740C0000 		.4byte	0xc74
 2490 0bda 1E       		.uleb128 0x1e
 2491 0bdb 63747000 		.ascii	"ctp\000"
 2492 0bdf 02       		.byte	0x2
 2493 0be0 E801     		.2byte	0x1e8
 2494 0be2 4C020000 		.4byte	0x24c
 2495 0be6 01       		.uleb128 0x1
 2496 0be7 54       		.byte	0x54
 2497 0be8 24       		.uleb128 0x24
 2498 0be9 60000000 		.4byte	.Ldebug_ranges0+0x60
 2499 0bed 20       		.uleb128 0x20
 2500 0bee 6D7000   		.ascii	"mp\000"
 2501 0bf1 02       		.byte	0x2
 2502 0bf2 EB01     		.2byte	0x1eb
 2503 0bf4 9C080000 		.4byte	0x89c
 2504 0bf8 6D000000 		.4byte	.LLST33
 2505 0bfc 1F       		.uleb128 0x1f
 2506 0bfd 78000000 		.4byte	.Ldebug_ranges0+0x78
 2507 0c01 470C0000 		.4byte	0xc47
 2508 0c05 21       		.uleb128 0x21
ARM GAS  /tmp/ccWkTx1E.s 			page 45


 2509 0c06 747000   		.ascii	"tp\000"
 2510 0c09 02       		.byte	0x2
 2511 0c0a F101     		.2byte	0x1f1
 2512 0c0c 4C020000 		.4byte	0x24c
 2513 0c10 22       		.uleb128 0x22
 2514 0c11 0B130000 		.4byte	0x130b
 2515 0c15 1E000000 		.4byte	.LBB172
 2516 0c19 90000000 		.4byte	.Ldebug_ranges0+0x90
 2517 0c1d 02       		.byte	0x2
 2518 0c1e F101     		.2byte	0x1f1
 2519 0c20 3D0C0000 		.4byte	0xc3d
 2520 0c24 23       		.uleb128 0x23
 2521 0c25 1C130000 		.4byte	0x131c
 2522 0c29 8B000000 		.4byte	.LLST34
 2523 0c2d 24       		.uleb128 0x24
 2524 0c2e 90000000 		.4byte	.Ldebug_ranges0+0x90
 2525 0c32 25       		.uleb128 0x25
 2526 0c33 28130000 		.4byte	0x1328
 2527 0c37 9E000000 		.4byte	.LLST35
 2528 0c3b 00       		.byte	0
 2529 0c3c 00       		.byte	0
 2530 0c3d 26       		.uleb128 0x26
 2531 0c3e 32000000 		.4byte	.LVL69
 2532 0c42 29140000 		.4byte	0x1429
 2533 0c46 00       		.byte	0
 2534 0c47 27       		.uleb128 0x27
 2535 0c48 AF120000 		.4byte	0x12af
 2536 0c4c 14000000 		.4byte	.LBB176
 2537 0c50 02000000 		.4byte	.LBE176-.LBB176
 2538 0c54 02       		.byte	0x2
 2539 0c55 ED01     		.2byte	0x1ed
 2540 0c57 28       		.uleb128 0x28
 2541 0c58 BF120000 		.4byte	0x12bf
 2542 0c5c 29       		.uleb128 0x29
 2543 0c5d 7B130000 		.4byte	0x137b
 2544 0c61 14000000 		.4byte	.LBB178
 2545 0c65 02000000 		.4byte	.LBE178-.LBB178
 2546 0c69 10       		.byte	0x10
 2547 0c6a 84       		.byte	0x84
 2548 0c6b 28       		.uleb128 0x28
 2549 0c6c 8C130000 		.4byte	0x138c
 2550 0c70 00       		.byte	0
 2551 0c71 00       		.byte	0
 2552 0c72 00       		.byte	0
 2553 0c73 00       		.byte	0
 2554 0c74 1D       		.uleb128 0x1d
 2555 0c75 41030000 		.4byte	.LASF147
 2556 0c79 02       		.byte	0x2
 2557 0c7a 9A01     		.2byte	0x19a
 2558 0c7c 00000000 		.4byte	.LFB296
 2559 0c80 54000000 		.4byte	.LFE296-.LFB296
 2560 0c84 01       		.uleb128 0x1
 2561 0c85 9C       		.byte	0x9c
 2562 0c86 840D0000 		.4byte	0xd84
 2563 0c8a 2D       		.uleb128 0x2d
 2564 0c8b 6D7000   		.ascii	"mp\000"
 2565 0c8e 02       		.byte	0x2
ARM GAS  /tmp/ccWkTx1E.s 			page 46


 2566 0c8f 9A01     		.2byte	0x19a
 2567 0c91 9C080000 		.4byte	0x89c
 2568 0c95 B1000000 		.4byte	.LLST25
 2569 0c99 20       		.uleb128 0x20
 2570 0c9a 63747000 		.ascii	"ctp\000"
 2571 0c9e 02       		.byte	0x2
 2572 0c9f 9B01     		.2byte	0x19b
 2573 0ca1 4C020000 		.4byte	0x24c
 2574 0ca5 E8000000 		.4byte	.LLST26
 2575 0ca9 20       		.uleb128 0x20
 2576 0caa 6C6D7000 		.ascii	"lmp\000"
 2577 0cae 02       		.byte	0x2
 2578 0caf 9C01     		.2byte	0x19c
 2579 0cb1 9C080000 		.4byte	0x89c
 2580 0cb5 06010000 		.4byte	.LLST27
 2581 0cb9 2E       		.uleb128 0x2e
 2582 0cba EB050000 		.4byte	.LASF150
 2583 0cbe 940D0000 		.4byte	0xd94
 2584 0cc2 1F       		.uleb128 0x1f
 2585 0cc3 48000000 		.4byte	.Ldebug_ranges0+0x48
 2586 0cc7 580D0000 		.4byte	0xd58
 2587 0ccb 21       		.uleb128 0x21
 2588 0ccc 747000   		.ascii	"tp\000"
 2589 0ccf 02       		.byte	0x2
 2590 0cd0 B201     		.2byte	0x1b2
 2591 0cd2 4C020000 		.4byte	0x24c
 2592 0cd6 2F       		.uleb128 0x2f
 2593 0cd7 09040000 		.4byte	.LASF148
 2594 0cdb 02       		.byte	0x2
 2595 0cdc B601     		.2byte	0x1b6
 2596 0cde 21010000 		.4byte	0x121
 2597 0ce2 24010000 		.4byte	.LLST28
 2598 0ce6 2A       		.uleb128 0x2a
 2599 0ce7 0B130000 		.4byte	0x130b
 2600 0ceb 24000000 		.4byte	.LBB163
 2601 0cef 06000000 		.4byte	.LBE163-.LBB163
 2602 0cf3 02       		.byte	0x2
 2603 0cf4 CC01     		.2byte	0x1cc
 2604 0cf6 170D0000 		.4byte	0xd17
 2605 0cfa 23       		.uleb128 0x23
 2606 0cfb 1C130000 		.4byte	0x131c
 2607 0cff 42010000 		.4byte	.LLST29
 2608 0d03 2B       		.uleb128 0x2b
 2609 0d04 24000000 		.4byte	.LBB164
 2610 0d08 06000000 		.4byte	.LBE164-.LBB164
 2611 0d0c 25       		.uleb128 0x25
 2612 0d0d 28130000 		.4byte	0x1328
 2613 0d11 55010000 		.4byte	.LLST30
 2614 0d15 00       		.byte	0
 2615 0d16 00       		.byte	0
 2616 0d17 2A       		.uleb128 0x2a
 2617 0d18 AF120000 		.4byte	0x12af
 2618 0d1c 38000000 		.4byte	.LBB165
 2619 0d20 02000000 		.4byte	.LBE165-.LBB165
 2620 0d24 02       		.byte	0x2
 2621 0d25 BC01     		.2byte	0x1bc
 2622 0d27 4E0D0000 		.4byte	0xd4e
ARM GAS  /tmp/ccWkTx1E.s 			page 47


 2623 0d2b 23       		.uleb128 0x23
 2624 0d2c BF120000 		.4byte	0x12bf
 2625 0d30 68010000 		.4byte	.LLST31
 2626 0d34 29       		.uleb128 0x29
 2627 0d35 7B130000 		.4byte	0x137b
 2628 0d39 38000000 		.4byte	.LBB167
 2629 0d3d 02000000 		.4byte	.LBE167-.LBB167
 2630 0d41 10       		.byte	0x10
 2631 0d42 84       		.byte	0x84
 2632 0d43 23       		.uleb128 0x23
 2633 0d44 8C130000 		.4byte	0x138c
 2634 0d48 68010000 		.4byte	.LLST31
 2635 0d4c 00       		.byte	0
 2636 0d4d 00       		.byte	0
 2637 0d4e 30       		.uleb128 0x30
 2638 0d4f 38000000 		.4byte	.LVL58
 2639 0d53 29140000 		.4byte	0x1429
 2640 0d57 00       		.byte	0
 2641 0d58 27       		.uleb128 0x27
 2642 0d59 AF120000 		.4byte	0x12af
 2643 0d5d 12000000 		.4byte	.LBB158
 2644 0d61 02000000 		.4byte	.LBE158-.LBB158
 2645 0d65 02       		.byte	0x2
 2646 0d66 B101     		.2byte	0x1b1
 2647 0d68 28       		.uleb128 0x28
 2648 0d69 BF120000 		.4byte	0x12bf
 2649 0d6d 29       		.uleb128 0x29
 2650 0d6e 7B130000 		.4byte	0x137b
 2651 0d72 12000000 		.4byte	.LBB160
 2652 0d76 02000000 		.4byte	.LBE160-.LBB160
 2653 0d7a 10       		.byte	0x10
 2654 0d7b 84       		.byte	0x84
 2655 0d7c 28       		.uleb128 0x28
 2656 0d7d 8C130000 		.4byte	0x138c
 2657 0d81 00       		.byte	0
 2658 0d82 00       		.byte	0
 2659 0d83 00       		.byte	0
 2660 0d84 13       		.uleb128 0x13
 2661 0d85 52070000 		.4byte	0x752
 2662 0d89 940D0000 		.4byte	0xd94
 2663 0d8d 14       		.uleb128 0x14
 2664 0d8e 6C040000 		.4byte	0x46c
 2665 0d92 0C       		.byte	0xc
 2666 0d93 00       		.byte	0
 2667 0d94 05       		.uleb128 0x5
 2668 0d95 840D0000 		.4byte	0xd84
 2669 0d99 1D       		.uleb128 0x1d
 2670 0d9a 0A010000 		.4byte	.LASF149
 2671 0d9e 02       		.byte	0x2
 2672 0d9f 4301     		.2byte	0x143
 2673 0da1 00000000 		.4byte	.LFB295
 2674 0da5 64000000 		.4byte	.LFE295-.LFB295
 2675 0da9 01       		.uleb128 0x1
 2676 0daa 9C       		.byte	0x9c
 2677 0dab 3F0F0000 		.4byte	0xf3f
 2678 0daf 2D       		.uleb128 0x2d
 2679 0db0 6D7000   		.ascii	"mp\000"
ARM GAS  /tmp/ccWkTx1E.s 			page 48


 2680 0db3 02       		.byte	0x2
 2681 0db4 4301     		.2byte	0x143
 2682 0db6 9C080000 		.4byte	0x89c
 2683 0dba 7B010000 		.4byte	.LLST16
 2684 0dbe 1E       		.uleb128 0x1e
 2685 0dbf 63747000 		.ascii	"ctp\000"
 2686 0dc3 02       		.byte	0x2
 2687 0dc4 4401     		.2byte	0x144
 2688 0dc6 4C020000 		.4byte	0x24c
 2689 0dca 01       		.uleb128 0x1
 2690 0dcb 54       		.byte	0x54
 2691 0dcc 20       		.uleb128 0x20
 2692 0dcd 6C6D7000 		.ascii	"lmp\000"
 2693 0dd1 02       		.byte	0x2
 2694 0dd2 4501     		.2byte	0x145
 2695 0dd4 9C080000 		.4byte	0x89c
 2696 0dd8 B2010000 		.4byte	.LLST17
 2697 0ddc 2E       		.uleb128 0x2e
 2698 0ddd EB050000 		.4byte	.LASF150
 2699 0de1 4F0F0000 		.4byte	0xf4f
 2700 0de5 1F       		.uleb128 0x1f
 2701 0de6 30000000 		.4byte	.Ldebug_ranges0+0x30
 2702 0dea 840E0000 		.4byte	0xe84
 2703 0dee 21       		.uleb128 0x21
 2704 0def 747000   		.ascii	"tp\000"
 2705 0df2 02       		.byte	0x2
 2706 0df3 5C01     		.2byte	0x15c
 2707 0df5 4C020000 		.4byte	0x24c
 2708 0df9 2F       		.uleb128 0x2f
 2709 0dfa 09040000 		.4byte	.LASF148
 2710 0dfe 02       		.byte	0x2
 2711 0dff 6001     		.2byte	0x160
 2712 0e01 21010000 		.4byte	0x121
 2713 0e05 D0010000 		.4byte	.LLST19
 2714 0e09 2A       		.uleb128 0x2a
 2715 0e0a 0B130000 		.4byte	0x130b
 2716 0e0e 2A000000 		.4byte	.LBB146
 2717 0e12 06000000 		.4byte	.LBE146-.LBB146
 2718 0e16 02       		.byte	0x2
 2719 0e17 7601     		.2byte	0x176
 2720 0e19 3A0E0000 		.4byte	0xe3a
 2721 0e1d 23       		.uleb128 0x23
 2722 0e1e 1C130000 		.4byte	0x131c
 2723 0e22 EE010000 		.4byte	.LLST20
 2724 0e26 2B       		.uleb128 0x2b
 2725 0e27 2A000000 		.4byte	.LBB147
 2726 0e2b 06000000 		.4byte	.LBE147-.LBB147
 2727 0e2f 25       		.uleb128 0x25
 2728 0e30 28130000 		.4byte	0x1328
 2729 0e34 01020000 		.4byte	.LLST21
 2730 0e38 00       		.byte	0
 2731 0e39 00       		.byte	0
 2732 0e3a 2A       		.uleb128 0x2a
 2733 0e3b AF120000 		.4byte	0x12af
 2734 0e3f 48000000 		.4byte	.LBB148
 2735 0e43 02000000 		.4byte	.LBE148-.LBB148
 2736 0e47 02       		.byte	0x2
ARM GAS  /tmp/ccWkTx1E.s 			page 49


 2737 0e48 6601     		.2byte	0x166
 2738 0e4a 710E0000 		.4byte	0xe71
 2739 0e4e 23       		.uleb128 0x23
 2740 0e4f BF120000 		.4byte	0x12bf
 2741 0e53 14020000 		.4byte	.LLST22
 2742 0e57 29       		.uleb128 0x29
 2743 0e58 7B130000 		.4byte	0x137b
 2744 0e5c 48000000 		.4byte	.LBB150
 2745 0e60 02000000 		.4byte	.LBE150-.LBB150
 2746 0e64 10       		.byte	0x10
 2747 0e65 84       		.byte	0x84
 2748 0e66 23       		.uleb128 0x23
 2749 0e67 8C130000 		.4byte	0x138c
 2750 0e6b 14020000 		.4byte	.LLST22
 2751 0e6f 00       		.byte	0
 2752 0e70 00       		.byte	0
 2753 0e71 26       		.uleb128 0x26
 2754 0e72 3C000000 		.4byte	.LVL42
 2755 0e76 29140000 		.4byte	0x1429
 2756 0e7a 26       		.uleb128 0x26
 2757 0e7b 40000000 		.4byte	.LVL43
 2758 0e7f 35140000 		.4byte	0x1435
 2759 0e83 00       		.byte	0
 2760 0e84 2A       		.uleb128 0x2a
 2761 0e85 E5120000 		.4byte	0x12e5
 2762 0e89 08000000 		.4byte	.LBB137
 2763 0e8d 06000000 		.4byte	.LBE137-.LBB137
 2764 0e91 02       		.byte	0x2
 2765 0e92 4901     		.2byte	0x149
 2766 0e94 C40E0000 		.4byte	0xec4
 2767 0e98 27       		.uleb128 0x27
 2768 0e99 C2130000 		.4byte	0x13c2
 2769 0e9d 08000000 		.4byte	.LBB138
 2770 0ea1 06000000 		.4byte	.LBE138-.LBB138
 2771 0ea5 11       		.byte	0x11
 2772 0ea6 6301     		.2byte	0x163
 2773 0ea8 27       		.uleb128 0x27
 2774 0ea9 CB130000 		.4byte	0x13cb
 2775 0ead 08000000 		.4byte	.LBB139
 2776 0eb1 06000000 		.4byte	.LBE139-.LBB139
 2777 0eb5 0D       		.byte	0xd
 2778 0eb6 6202     		.2byte	0x262
 2779 0eb8 23       		.uleb128 0x23
 2780 0eb9 D8130000 		.4byte	0x13d8
 2781 0ebd 27020000 		.4byte	.LLST18
 2782 0ec1 00       		.byte	0
 2783 0ec2 00       		.byte	0
 2784 0ec3 00       		.byte	0
 2785 0ec4 2A       		.uleb128 0x2a
 2786 0ec5 AF120000 		.4byte	0x12af
 2787 0ec9 18000000 		.4byte	.LBB141
 2788 0ecd 02000000 		.4byte	.LBE141-.LBB141
 2789 0ed1 02       		.byte	0x2
 2790 0ed2 5B01     		.2byte	0x15b
 2791 0ed4 F30E0000 		.4byte	0xef3
 2792 0ed8 28       		.uleb128 0x28
 2793 0ed9 BF120000 		.4byte	0x12bf
ARM GAS  /tmp/ccWkTx1E.s 			page 50


 2794 0edd 29       		.uleb128 0x29
 2795 0ede 7B130000 		.4byte	0x137b
 2796 0ee2 18000000 		.4byte	.LBB143
 2797 0ee6 02000000 		.4byte	.LBE143-.LBB143
 2798 0eea 10       		.byte	0x10
 2799 0eeb 84       		.byte	0x84
 2800 0eec 28       		.uleb128 0x28
 2801 0eed 8C130000 		.4byte	0x138c
 2802 0ef1 00       		.byte	0
 2803 0ef2 00       		.byte	0
 2804 0ef3 27       		.uleb128 0x27
 2805 0ef4 CA120000 		.4byte	0x12ca
 2806 0ef8 40000000 		.4byte	.LBB152
 2807 0efc 08000000 		.4byte	.LBE152-.LBB152
 2808 0f00 02       		.byte	0x2
 2809 0f01 8901     		.2byte	0x189
 2810 0f03 2B       		.uleb128 0x2b
 2811 0f04 40000000 		.4byte	.LBB153
 2812 0f08 08000000 		.4byte	.LBE153-.LBB153
 2813 0f0c 2C       		.uleb128 0x2c
 2814 0f0d D7120000 		.4byte	0x12d7
 2815 0f11 27       		.uleb128 0x27
 2816 0f12 B9130000 		.4byte	0x13b9
 2817 0f16 40000000 		.4byte	.LBB154
 2818 0f1a 08000000 		.4byte	.LBE154-.LBB154
 2819 0f1e 11       		.byte	0x11
 2820 0f1f 7A01     		.2byte	0x17a
 2821 0f21 27       		.uleb128 0x27
 2822 0f22 CB130000 		.4byte	0x13cb
 2823 0f26 40000000 		.4byte	.LBB155
 2824 0f2a 08000000 		.4byte	.LBE155-.LBB155
 2825 0f2e 0D       		.byte	0xd
 2826 0f2f 7502     		.2byte	0x275
 2827 0f31 23       		.uleb128 0x23
 2828 0f32 D8130000 		.4byte	0x13d8
 2829 0f36 3C020000 		.4byte	.LLST24
 2830 0f3a 00       		.byte	0
 2831 0f3b 00       		.byte	0
 2832 0f3c 00       		.byte	0
 2833 0f3d 00       		.byte	0
 2834 0f3e 00       		.byte	0
 2835 0f3f 13       		.uleb128 0x13
 2836 0f40 52070000 		.4byte	0x752
 2837 0f44 4F0F0000 		.4byte	0xf4f
 2838 0f48 14       		.uleb128 0x14
 2839 0f49 6C040000 		.4byte	0x46c
 2840 0f4d 0B       		.byte	0xb
 2841 0f4e 00       		.byte	0
 2842 0f4f 05       		.uleb128 0x5
 2843 0f50 3F0F0000 		.4byte	0xf3f
 2844 0f54 31       		.uleb128 0x31
 2845 0f55 D7070000 		.4byte	.LASF154
 2846 0f59 02       		.byte	0x2
 2847 0f5a 1A01     		.2byte	0x11a
 2848 0f5c A2080000 		.4byte	0x8a2
 2849 0f60 01       		.byte	0x1
 2850 0f61 7E0F0000 		.4byte	0xf7e
ARM GAS  /tmp/ccWkTx1E.s 			page 51


 2851 0f65 32       		.uleb128 0x32
 2852 0f66 6D7000   		.ascii	"mp\000"
 2853 0f69 02       		.byte	0x2
 2854 0f6a 1A01     		.2byte	0x11a
 2855 0f6c 9C080000 		.4byte	0x89c
 2856 0f70 33       		.uleb128 0x33
 2857 0f71 EB050000 		.4byte	.LASF150
 2858 0f75 8E0F0000 		.4byte	0xf8e
 2859 0f79 D7070000 		.4byte	.LASF154
 2860 0f7d 00       		.byte	0
 2861 0f7e 13       		.uleb128 0x13
 2862 0f7f 52070000 		.4byte	0x752
 2863 0f83 8E0F0000 		.4byte	0xf8e
 2864 0f87 14       		.uleb128 0x14
 2865 0f88 6C040000 		.4byte	0x46c
 2866 0f8c 0D       		.byte	0xd
 2867 0f8d 00       		.byte	0
 2868 0f8e 05       		.uleb128 0x5
 2869 0f8f 7E0F0000 		.4byte	0xf7e
 2870 0f93 34       		.uleb128 0x34
 2871 0f94 23060000 		.4byte	.LASF172
 2872 0f98 02       		.byte	0x2
 2873 0f99 FF       		.byte	0xff
 2874 0f9a A2080000 		.4byte	0x8a2
 2875 0f9e 00000000 		.4byte	.LFB293
 2876 0fa2 14000000 		.4byte	.LFE293-.LFB293
 2877 0fa6 01       		.uleb128 0x1
 2878 0fa7 9C       		.byte	0x9c
 2879 0fa8 67100000 		.4byte	0x1067
 2880 0fac 35       		.uleb128 0x35
 2881 0fad 6D7000   		.ascii	"mp\000"
 2882 0fb0 02       		.byte	0x2
 2883 0fb1 FF       		.byte	0xff
 2884 0fb2 9C080000 		.4byte	0x89c
 2885 0fb6 50020000 		.4byte	.LLST13
 2886 0fba 1E       		.uleb128 0x1e
 2887 0fbb 6200     		.ascii	"b\000"
 2888 0fbd 02       		.byte	0x2
 2889 0fbe 0001     		.2byte	0x100
 2890 0fc0 A2080000 		.4byte	0x8a2
 2891 0fc4 01       		.uleb128 0x1
 2892 0fc5 50       		.byte	0x50
 2893 0fc6 2A       		.uleb128 0x2a
 2894 0fc7 E5120000 		.4byte	0x12e5
 2895 0fcb 02000000 		.4byte	.LBB128
 2896 0fcf 06000000 		.4byte	.LBE128-.LBB128
 2897 0fd3 02       		.byte	0x2
 2898 0fd4 0201     		.2byte	0x102
 2899 0fd6 06100000 		.4byte	0x1006
 2900 0fda 27       		.uleb128 0x27
 2901 0fdb C2130000 		.4byte	0x13c2
 2902 0fdf 02000000 		.4byte	.LBB129
 2903 0fe3 06000000 		.4byte	.LBE129-.LBB129
 2904 0fe7 11       		.byte	0x11
 2905 0fe8 6301     		.2byte	0x163
 2906 0fea 27       		.uleb128 0x27
 2907 0feb CB130000 		.4byte	0x13cb
ARM GAS  /tmp/ccWkTx1E.s 			page 52


 2908 0fef 02000000 		.4byte	.LBB130
 2909 0ff3 06000000 		.4byte	.LBE130-.LBB130
 2910 0ff7 0D       		.byte	0xd
 2911 0ff8 6202     		.2byte	0x262
 2912 0ffa 23       		.uleb128 0x23
 2913 0ffb D8130000 		.4byte	0x13d8
 2914 0fff 71020000 		.4byte	.LLST14
 2915 1003 00       		.byte	0
 2916 1004 00       		.byte	0
 2917 1005 00       		.byte	0
 2918 1006 2A       		.uleb128 0x2a
 2919 1007 CA120000 		.4byte	0x12ca
 2920 100b 0C000000 		.4byte	.LBB132
 2921 100f 06000000 		.4byte	.LBE132-.LBB132
 2922 1013 02       		.byte	0x2
 2923 1014 0401     		.2byte	0x104
 2924 1016 55100000 		.4byte	0x1055
 2925 101a 2B       		.uleb128 0x2b
 2926 101b 0C000000 		.4byte	.LBB133
 2927 101f 06000000 		.4byte	.LBE133-.LBB133
 2928 1023 2C       		.uleb128 0x2c
 2929 1024 D7120000 		.4byte	0x12d7
 2930 1028 27       		.uleb128 0x27
 2931 1029 B9130000 		.4byte	0x13b9
 2932 102d 0C000000 		.4byte	.LBB134
 2933 1031 06000000 		.4byte	.LBE134-.LBB134
 2934 1035 11       		.byte	0x11
 2935 1036 7A01     		.2byte	0x17a
 2936 1038 27       		.uleb128 0x27
 2937 1039 CB130000 		.4byte	0x13cb
 2938 103d 0C000000 		.4byte	.LBB135
 2939 1041 06000000 		.4byte	.LBE135-.LBB135
 2940 1045 0D       		.byte	0xd
 2941 1046 7502     		.2byte	0x275
 2942 1048 23       		.uleb128 0x23
 2943 1049 D8130000 		.4byte	0x13d8
 2944 104d 86020000 		.4byte	.LLST15
 2945 1051 00       		.byte	0
 2946 1052 00       		.byte	0
 2947 1053 00       		.byte	0
 2948 1054 00       		.byte	0
 2949 1055 36       		.uleb128 0x36
 2950 1056 0C000000 		.4byte	.LVL32
 2951 105a 540F0000 		.4byte	0xf54
 2952 105e 37       		.uleb128 0x37
 2953 105f 01       		.uleb128 0x1
 2954 1060 50       		.byte	0x50
 2955 1061 03       		.uleb128 0x3
 2956 1062 F3       		.byte	0xf3
 2957 1063 01       		.uleb128 0x1
 2958 1064 50       		.byte	0x50
 2959 1065 00       		.byte	0
 2960 1066 00       		.byte	0
 2961 1067 38       		.uleb128 0x38
 2962 1068 33080000 		.4byte	.LASF151
 2963 106c 02       		.byte	0x2
 2964 106d 8B       		.byte	0x8b
ARM GAS  /tmp/ccWkTx1E.s 			page 53


 2965 106e 00000000 		.4byte	.LFB292
 2966 1072 94000000 		.4byte	.LFE292-.LFB292
 2967 1076 01       		.uleb128 0x1
 2968 1077 9C       		.byte	0x9c
 2969 1078 7F110000 		.4byte	0x117f
 2970 107c 35       		.uleb128 0x35
 2971 107d 6D7000   		.ascii	"mp\000"
 2972 1080 02       		.byte	0x2
 2973 1081 8B       		.byte	0x8b
 2974 1082 9C080000 		.4byte	0x89c
 2975 1086 9A020000 		.4byte	.LLST2
 2976 108a 39       		.uleb128 0x39
 2977 108b 63747000 		.ascii	"ctp\000"
 2978 108f 02       		.byte	0x2
 2979 1090 8C       		.byte	0x8c
 2980 1091 4C020000 		.4byte	0x24c
 2981 1095 DC020000 		.4byte	.LLST3
 2982 1099 2E       		.uleb128 0x2e
 2983 109a EB050000 		.4byte	.LASF150
 2984 109e 8F110000 		.4byte	0x118f
 2985 10a2 24       		.uleb128 0x24
 2986 10a3 00000000 		.4byte	.Ldebug_ranges0+0
 2987 10a7 39       		.uleb128 0x39
 2988 10a8 747000   		.ascii	"tp\000"
 2989 10ab 02       		.byte	0x2
 2990 10ac A1       		.byte	0xa1
 2991 10ad 4C020000 		.4byte	0x24c
 2992 10b1 FA020000 		.4byte	.LLST4
 2993 10b5 3A       		.uleb128 0x3a
 2994 10b6 EE120000 		.4byte	0x12ee
 2995 10ba 1A000000 		.4byte	.LBB106
 2996 10be 0A000000 		.4byte	.LBE106-.LBB106
 2997 10c2 02       		.byte	0x2
 2998 10c3 AD       		.byte	0xad
 2999 10c4 D2100000 		.4byte	0x10d2
 3000 10c8 23       		.uleb128 0x23
 3001 10c9 FF120000 		.4byte	0x12ff
 3002 10cd 0D030000 		.4byte	.LLST5
 3003 10d1 00       		.byte	0
 3004 10d2 3B       		.uleb128 0x3b
 3005 10d3 EE120000 		.4byte	0x12ee
 3006 10d7 48000000 		.4byte	.LBB108
 3007 10db 18000000 		.4byte	.Ldebug_ranges0+0x18
 3008 10df 02       		.byte	0x2
 3009 10e0 CA       		.byte	0xca
 3010 10e1 EF100000 		.4byte	0x10ef
 3011 10e5 23       		.uleb128 0x23
 3012 10e6 FF120000 		.4byte	0x12ff
 3013 10ea 20030000 		.4byte	.LLST6
 3014 10ee 00       		.byte	0
 3015 10ef 3A       		.uleb128 0x3a
 3016 10f0 EE120000 		.4byte	0x12ee
 3017 10f4 5A000000 		.4byte	.LBB112
 3018 10f8 0A000000 		.4byte	.LBE112-.LBB112
 3019 10fc 02       		.byte	0x2
 3020 10fd C1       		.byte	0xc1
 3021 10fe 0C110000 		.4byte	0x110c
ARM GAS  /tmp/ccWkTx1E.s 			page 54


 3022 1102 23       		.uleb128 0x23
 3023 1103 FF120000 		.4byte	0x12ff
 3024 1107 33030000 		.4byte	.LLST7
 3025 110b 00       		.byte	0
 3026 110c 3C       		.uleb128 0x3c
 3027 110d 2C000000 		.4byte	.LVL9
 3028 1111 3A130000 		.4byte	0x133a
 3029 1115 26110000 		.4byte	0x1126
 3030 1119 37       		.uleb128 0x37
 3031 111a 01       		.uleb128 0x1
 3032 111b 50       		.byte	0x50
 3033 111c 02       		.uleb128 0x2
 3034 111d 74       		.byte	0x74
 3035 111e 00       		.sleb128 0
 3036 111f 37       		.uleb128 0x37
 3037 1120 01       		.uleb128 0x1
 3038 1121 51       		.byte	0x51
 3039 1122 02       		.uleb128 0x2
 3040 1123 71       		.byte	0x71
 3041 1124 00       		.sleb128 0
 3042 1125 00       		.byte	0
 3043 1126 3C       		.uleb128 0x3c
 3044 1127 58000000 		.4byte	.LVL13
 3045 112b 29140000 		.4byte	0x1429
 3046 112f 3A110000 		.4byte	0x113a
 3047 1133 37       		.uleb128 0x37
 3048 1134 01       		.uleb128 0x1
 3049 1135 50       		.byte	0x50
 3050 1136 02       		.uleb128 0x2
 3051 1137 74       		.byte	0x74
 3052 1138 00       		.sleb128 0
 3053 1139 00       		.byte	0
 3054 113a 3C       		.uleb128 0x3c
 3055 113b 6C000000 		.4byte	.LVL16
 3056 113f 3A130000 		.4byte	0x133a
 3057 1143 54110000 		.4byte	0x1154
 3058 1147 37       		.uleb128 0x37
 3059 1148 01       		.uleb128 0x1
 3060 1149 50       		.byte	0x50
 3061 114a 02       		.uleb128 0x2
 3062 114b 74       		.byte	0x74
 3063 114c 00       		.sleb128 0
 3064 114d 37       		.uleb128 0x37
 3065 114e 01       		.uleb128 0x1
 3066 114f 51       		.byte	0x51
 3067 1150 02       		.uleb128 0x2
 3068 1151 71       		.byte	0x71
 3069 1152 00       		.sleb128 0
 3070 1153 00       		.byte	0
 3071 1154 3C       		.uleb128 0x3c
 3072 1155 74000000 		.4byte	.LVL17
 3073 1159 3A130000 		.4byte	0x133a
 3074 115d 6E110000 		.4byte	0x116e
 3075 1161 37       		.uleb128 0x37
 3076 1162 01       		.uleb128 0x1
 3077 1163 50       		.byte	0x50
 3078 1164 02       		.uleb128 0x2
ARM GAS  /tmp/ccWkTx1E.s 			page 55


 3079 1165 70       		.byte	0x70
 3080 1166 00       		.sleb128 0
 3081 1167 37       		.uleb128 0x37
 3082 1168 01       		.uleb128 0x1
 3083 1169 51       		.byte	0x51
 3084 116a 02       		.uleb128 0x2
 3085 116b 71       		.byte	0x71
 3086 116c 00       		.sleb128 0
 3087 116d 00       		.byte	0
 3088 116e 3D       		.uleb128 0x3d
 3089 116f 80000000 		.4byte	.LVL19
 3090 1173 41140000 		.4byte	0x1441
 3091 1177 37       		.uleb128 0x37
 3092 1178 01       		.uleb128 0x1
 3093 1179 50       		.byte	0x50
 3094 117a 01       		.uleb128 0x1
 3095 117b 36       		.byte	0x36
 3096 117c 00       		.byte	0
 3097 117d 00       		.byte	0
 3098 117e 00       		.byte	0
 3099 117f 13       		.uleb128 0x13
 3100 1180 52070000 		.4byte	0x752
 3101 1184 8F110000 		.4byte	0x118f
 3102 1188 14       		.uleb128 0x14
 3103 1189 6C040000 		.4byte	0x46c
 3104 118d 0A       		.byte	0xa
 3105 118e 00       		.byte	0
 3106 118f 05       		.uleb128 0x5
 3107 1190 7F110000 		.4byte	0x117f
 3108 1194 38       		.uleb128 0x38
 3109 1195 E5040000 		.4byte	.LASF152
 3110 1199 02       		.byte	0x2
 3111 119a 7B       		.byte	0x7b
 3112 119b 00000000 		.4byte	.LFB291
 3113 119f 14000000 		.4byte	.LFE291-.LFB291
 3114 11a3 01       		.uleb128 0x1
 3115 11a4 9C       		.byte	0x9c
 3116 11a5 56120000 		.4byte	0x1256
 3117 11a9 35       		.uleb128 0x35
 3118 11aa 6D7000   		.ascii	"mp\000"
 3119 11ad 02       		.byte	0x2
 3120 11ae 7B       		.byte	0x7b
 3121 11af 9C080000 		.4byte	0x89c
 3122 11b3 46030000 		.4byte	.LLST8
 3123 11b7 3A       		.uleb128 0x3a
 3124 11b8 E5120000 		.4byte	0x12e5
 3125 11bc 02000000 		.4byte	.LBB115
 3126 11c0 06000000 		.4byte	.LBE115-.LBB115
 3127 11c4 02       		.byte	0x2
 3128 11c5 7D       		.byte	0x7d
 3129 11c6 F6110000 		.4byte	0x11f6
 3130 11ca 27       		.uleb128 0x27
 3131 11cb C2130000 		.4byte	0x13c2
 3132 11cf 02000000 		.4byte	.LBB116
 3133 11d3 06000000 		.4byte	.LBE116-.LBB116
 3134 11d7 11       		.byte	0x11
 3135 11d8 6301     		.2byte	0x163
ARM GAS  /tmp/ccWkTx1E.s 			page 56


 3136 11da 27       		.uleb128 0x27
 3137 11db CB130000 		.4byte	0x13cb
 3138 11df 02000000 		.4byte	.LBB117
 3139 11e3 06000000 		.4byte	.LBE117-.LBB117
 3140 11e7 0D       		.byte	0xd
 3141 11e8 6202     		.2byte	0x262
 3142 11ea 23       		.uleb128 0x23
 3143 11eb D8130000 		.4byte	0x13d8
 3144 11ef 67030000 		.4byte	.LLST9
 3145 11f3 00       		.byte	0
 3146 11f4 00       		.byte	0
 3147 11f5 00       		.byte	0
 3148 11f6 3A       		.uleb128 0x3a
 3149 11f7 CA120000 		.4byte	0x12ca
 3150 11fb 0C000000 		.4byte	.LBB119
 3151 11ff 08000000 		.4byte	.LBE119-.LBB119
 3152 1203 02       		.byte	0x2
 3153 1204 7F       		.byte	0x7f
 3154 1205 44120000 		.4byte	0x1244
 3155 1209 2B       		.uleb128 0x2b
 3156 120a 0C000000 		.4byte	.LBB120
 3157 120e 08000000 		.4byte	.LBE120-.LBB120
 3158 1212 2C       		.uleb128 0x2c
 3159 1213 D7120000 		.4byte	0x12d7
 3160 1217 27       		.uleb128 0x27
 3161 1218 B9130000 		.4byte	0x13b9
 3162 121c 0C000000 		.4byte	.LBB121
 3163 1220 08000000 		.4byte	.LBE121-.LBB121
 3164 1224 11       		.byte	0x11
 3165 1225 7A01     		.2byte	0x17a
 3166 1227 27       		.uleb128 0x27
 3167 1228 CB130000 		.4byte	0x13cb
 3168 122c 0C000000 		.4byte	.LBB122
 3169 1230 08000000 		.4byte	.LBE122-.LBB122
 3170 1234 0D       		.byte	0xd
 3171 1235 7502     		.2byte	0x275
 3172 1237 23       		.uleb128 0x23
 3173 1238 D8130000 		.4byte	0x13d8
 3174 123c 7C030000 		.4byte	.LLST10
 3175 1240 00       		.byte	0
 3176 1241 00       		.byte	0
 3177 1242 00       		.byte	0
 3178 1243 00       		.byte	0
 3179 1244 36       		.uleb128 0x36
 3180 1245 0C000000 		.4byte	.LVL23
 3181 1249 67100000 		.4byte	0x1067
 3182 124d 37       		.uleb128 0x37
 3183 124e 01       		.uleb128 0x1
 3184 124f 50       		.byte	0x50
 3185 1250 03       		.uleb128 0x3
 3186 1251 F3       		.byte	0xf3
 3187 1252 01       		.uleb128 0x1
 3188 1253 50       		.byte	0x50
 3189 1254 00       		.byte	0
 3190 1255 00       		.byte	0
 3191 1256 38       		.uleb128 0x38
 3192 1257 EF040000 		.4byte	.LASF153
ARM GAS  /tmp/ccWkTx1E.s 			page 57


 3193 125b 02       		.byte	0x2
 3194 125c 67       		.byte	0x67
 3195 125d 00000000 		.4byte	.LFB290
 3196 1261 0C000000 		.4byte	.LFE290-.LFB290
 3197 1265 01       		.uleb128 0x1
 3198 1266 9C       		.byte	0x9c
 3199 1267 9A120000 		.4byte	0x129a
 3200 126b 3E       		.uleb128 0x3e
 3201 126c 6D7000   		.ascii	"mp\000"
 3202 126f 02       		.byte	0x2
 3203 1270 67       		.byte	0x67
 3204 1271 9C080000 		.4byte	0x89c
 3205 1275 01       		.uleb128 0x1
 3206 1276 50       		.byte	0x50
 3207 1277 2E       		.uleb128 0x2e
 3208 1278 EB050000 		.4byte	.LASF150
 3209 127c AA120000 		.4byte	0x12aa
 3210 1280 29       		.uleb128 0x29
 3211 1281 9F130000 		.4byte	0x139f
 3212 1285 02000000 		.4byte	.LBB96
 3213 1289 04000000 		.4byte	.LBE96-.LBB96
 3214 128d 02       		.byte	0x2
 3215 128e 6B       		.byte	0x6b
 3216 128f 23       		.uleb128 0x23
 3217 1290 AC130000 		.4byte	0x13ac
 3218 1294 90030000 		.4byte	.LLST1
 3219 1298 00       		.byte	0
 3220 1299 00       		.byte	0
 3221 129a 13       		.uleb128 0x13
 3222 129b 52070000 		.4byte	0x752
 3223 129f AA120000 		.4byte	0x12aa
 3224 12a3 14       		.uleb128 0x14
 3225 12a4 6C040000 		.4byte	0x46c
 3226 12a8 0F       		.byte	0xf
 3227 12a9 00       		.byte	0
 3228 12aa 05       		.uleb128 0x5
 3229 12ab 9A120000 		.4byte	0x129a
 3230 12af 3F       		.uleb128 0x3f
 3231 12b0 04070000 		.4byte	.LASF156
 3232 12b4 10       		.byte	0x10
 3233 12b5 80       		.byte	0x80
 3234 12b6 A2080000 		.4byte	0x8a2
 3235 12ba 03       		.byte	0x3
 3236 12bb CA120000 		.4byte	0x12ca
 3237 12bf 40       		.uleb128 0x40
 3238 12c0 6D7000   		.ascii	"mp\000"
 3239 12c3 10       		.byte	0x10
 3240 12c4 80       		.byte	0x80
 3241 12c5 9C080000 		.4byte	0x89c
 3242 12c9 00       		.byte	0
 3243 12ca 41       		.uleb128 0x41
 3244 12cb 15080000 		.4byte	.LASF155
 3245 12cf 11       		.byte	0x11
 3246 12d0 6D01     		.2byte	0x16d
 3247 12d2 03       		.byte	0x3
 3248 12d3 E5120000 		.4byte	0x12e5
 3249 12d7 33       		.uleb128 0x33
ARM GAS  /tmp/ccWkTx1E.s 			page 58


 3250 12d8 EB050000 		.4byte	.LASF150
 3251 12dc 4F0F0000 		.4byte	0xf4f
 3252 12e0 15080000 		.4byte	.LASF155
 3253 12e4 00       		.byte	0
 3254 12e5 42       		.uleb128 0x42
 3255 12e6 FF050000 		.4byte	.LASF161
 3256 12ea 11       		.byte	0x11
 3257 12eb 6101     		.2byte	0x161
 3258 12ed 03       		.byte	0x3
 3259 12ee 43       		.uleb128 0x43
 3260 12ef 70020000 		.4byte	.LASF157
 3261 12f3 01       		.byte	0x1
 3262 12f4 7002     		.2byte	0x270
 3263 12f6 4C020000 		.4byte	0x24c
 3264 12fa 03       		.byte	0x3
 3265 12fb 0B130000 		.4byte	0x130b
 3266 12ff 32       		.uleb128 0x32
 3267 1300 747000   		.ascii	"tp\000"
 3268 1303 01       		.byte	0x1
 3269 1304 7002     		.2byte	0x270
 3270 1306 4C020000 		.4byte	0x24c
 3271 130a 00       		.byte	0
 3272 130b 43       		.uleb128 0x43
 3273 130c DF060000 		.4byte	.LASF158
 3274 1310 01       		.byte	0x1
 3275 1311 5E02     		.2byte	0x25e
 3276 1313 4C020000 		.4byte	0x24c
 3277 1317 03       		.byte	0x3
 3278 1318 34130000 		.4byte	0x1334
 3279 131c 32       		.uleb128 0x32
 3280 131d 74717000 		.ascii	"tqp\000"
 3281 1321 01       		.byte	0x1
 3282 1322 5E02     		.2byte	0x25e
 3283 1324 34130000 		.4byte	0x1334
 3284 1328 21       		.uleb128 0x21
 3285 1329 747000   		.ascii	"tp\000"
 3286 132c 01       		.byte	0x1
 3287 132d 5F02     		.2byte	0x25f
 3288 132f 4C020000 		.4byte	0x24c
 3289 1333 00       		.byte	0
 3290 1334 0C       		.uleb128 0xc
 3291 1335 04       		.byte	0x4
 3292 1336 76020000 		.4byte	0x276
 3293 133a 44       		.uleb128 0x44
 3294 133b 3E080000 		.4byte	.LASF173
 3295 133f 01       		.byte	0x1
 3296 1340 4A02     		.2byte	0x24a
 3297 1342 00000000 		.4byte	.LFB172
 3298 1346 20000000 		.4byte	.LFE172-.LFB172
 3299 134a 01       		.uleb128 0x1
 3300 134b 9C       		.byte	0x9c
 3301 134c 7B130000 		.4byte	0x137b
 3302 1350 45       		.uleb128 0x45
 3303 1351 747000   		.ascii	"tp\000"
 3304 1354 01       		.byte	0x1
 3305 1355 4A02     		.2byte	0x24a
 3306 1357 4C020000 		.4byte	0x24c
ARM GAS  /tmp/ccWkTx1E.s 			page 59


 3307 135b 01       		.uleb128 0x1
 3308 135c 50       		.byte	0x50
 3309 135d 45       		.uleb128 0x45
 3310 135e 74717000 		.ascii	"tqp\000"
 3311 1362 01       		.byte	0x1
 3312 1363 4A02     		.2byte	0x24a
 3313 1365 34130000 		.4byte	0x1334
 3314 1369 01       		.uleb128 0x1
 3315 136a 51       		.byte	0x51
 3316 136b 20       		.uleb128 0x20
 3317 136c 637000   		.ascii	"cp\000"
 3318 136f 01       		.byte	0x1
 3319 1370 4C02     		.2byte	0x24c
 3320 1372 4C020000 		.4byte	0x24c
 3321 1376 A3030000 		.4byte	.LLST0
 3322 137a 00       		.byte	0
 3323 137b 43       		.uleb128 0x43
 3324 137c 87020000 		.4byte	.LASF159
 3325 1380 01       		.byte	0x1
 3326 1381 3402     		.2byte	0x234
 3327 1383 A2080000 		.4byte	0x8a2
 3328 1387 03       		.byte	0x3
 3329 1388 99130000 		.4byte	0x1399
 3330 138c 32       		.uleb128 0x32
 3331 138d 74717000 		.ascii	"tqp\000"
 3332 1391 01       		.byte	0x1
 3333 1392 3402     		.2byte	0x234
 3334 1394 99130000 		.4byte	0x1399
 3335 1398 00       		.byte	0
 3336 1399 0C       		.uleb128 0xc
 3337 139a 04       		.byte	0x4
 3338 139b 81020000 		.4byte	0x281
 3339 139f 41       		.uleb128 0x41
 3340 13a0 5D000000 		.4byte	.LASF160
 3341 13a4 01       		.byte	0x1
 3342 13a5 1902     		.2byte	0x219
 3343 13a7 03       		.byte	0x3
 3344 13a8 B9130000 		.4byte	0x13b9
 3345 13ac 32       		.uleb128 0x32
 3346 13ad 74717000 		.ascii	"tqp\000"
 3347 13b1 01       		.byte	0x1
 3348 13b2 1902     		.2byte	0x219
 3349 13b4 34130000 		.4byte	0x1334
 3350 13b8 00       		.byte	0
 3351 13b9 42       		.uleb128 0x42
 3352 13ba 4C020000 		.4byte	.LASF162
 3353 13be 0D       		.byte	0xd
 3354 13bf 7202     		.2byte	0x272
 3355 13c1 03       		.byte	0x3
 3356 13c2 42       		.uleb128 0x42
 3357 13c3 71000000 		.4byte	.LASF163
 3358 13c7 0D       		.byte	0xd
 3359 13c8 5A02     		.2byte	0x25a
 3360 13ca 03       		.byte	0x3
 3361 13cb 41       		.uleb128 0x41
 3362 13cc B3040000 		.4byte	.LASF164
 3363 13d0 03       		.byte	0x3
ARM GAS  /tmp/ccWkTx1E.s 			page 60


 3364 13d1 EB01     		.2byte	0x1eb
 3365 13d3 03       		.byte	0x3
 3366 13d4 E5130000 		.4byte	0x13e5
 3367 13d8 46       		.uleb128 0x46
 3368 13d9 3D020000 		.4byte	.LASF165
 3369 13dd 03       		.byte	0x3
 3370 13de EB01     		.2byte	0x1eb
 3371 13e0 DF000000 		.4byte	0xdf
 3372 13e4 00       		.byte	0
 3373 13e5 47       		.uleb128 0x47
 3374 13e6 540F0000 		.4byte	0xf54
 3375 13ea 00000000 		.4byte	.LFB294
 3376 13ee 30000000 		.4byte	.LFE294-.LFB294
 3377 13f2 01       		.uleb128 0x1
 3378 13f3 9C       		.byte	0x9c
 3379 13f4 29140000 		.4byte	0x1429
 3380 13f8 23       		.uleb128 0x23
 3381 13f9 650F0000 		.4byte	0xf65
 3382 13fd C1030000 		.4byte	.LLST11
 3383 1401 2C       		.uleb128 0x2c
 3384 1402 700F0000 		.4byte	0xf70
 3385 1406 2B       		.uleb128 0x2b
 3386 1407 12000000 		.4byte	.LBB126
 3387 140b 16000000 		.4byte	.LBE126-.LBB126
 3388 140f 23       		.uleb128 0x23
 3389 1410 650F0000 		.4byte	0xf65
 3390 1414 FB030000 		.4byte	.LLST12
 3391 1418 2B       		.uleb128 0x2b
 3392 1419 12000000 		.4byte	.LBB127
 3393 141d 16000000 		.4byte	.LBE127-.LBB127
 3394 1421 2C       		.uleb128 0x2c
 3395 1422 01140000 		.4byte	0x1401
 3396 1426 00       		.byte	0
 3397 1427 00       		.byte	0
 3398 1428 00       		.byte	0
 3399 1429 48       		.uleb128 0x48
 3400 142a 71060000 		.4byte	.LASF166
 3401 142e 71060000 		.4byte	.LASF166
 3402 1432 01       		.byte	0x1
 3403 1433 D101     		.2byte	0x1d1
 3404 1435 48       		.uleb128 0x48
 3405 1436 C1020000 		.4byte	.LASF167
 3406 143a C1020000 		.4byte	.LASF167
 3407 143e 01       		.byte	0x1
 3408 143f D601     		.2byte	0x1d6
 3409 1441 48       		.uleb128 0x48
 3410 1442 7C050000 		.4byte	.LASF168
 3411 1446 7C050000 		.4byte	.LASF168
 3412 144a 01       		.byte	0x1
 3413 144b D301     		.2byte	0x1d3
 3414 144d 00       		.byte	0
 3415              		.section	.debug_abbrev,"",%progbits
 3416              	.Ldebug_abbrev0:
 3417 0000 01       		.uleb128 0x1
 3418 0001 11       		.uleb128 0x11
 3419 0002 01       		.byte	0x1
 3420 0003 25       		.uleb128 0x25
ARM GAS  /tmp/ccWkTx1E.s 			page 61


 3421 0004 0E       		.uleb128 0xe
 3422 0005 13       		.uleb128 0x13
 3423 0006 0B       		.uleb128 0xb
 3424 0007 03       		.uleb128 0x3
 3425 0008 0E       		.uleb128 0xe
 3426 0009 1B       		.uleb128 0x1b
 3427 000a 0E       		.uleb128 0xe
 3428 000b 55       		.uleb128 0x55
 3429 000c 17       		.uleb128 0x17
 3430 000d 11       		.uleb128 0x11
 3431 000e 01       		.uleb128 0x1
 3432 000f 10       		.uleb128 0x10
 3433 0010 17       		.uleb128 0x17
 3434 0011 00       		.byte	0
 3435 0012 00       		.byte	0
 3436 0013 02       		.uleb128 0x2
 3437 0014 24       		.uleb128 0x24
 3438 0015 00       		.byte	0
 3439 0016 0B       		.uleb128 0xb
 3440 0017 0B       		.uleb128 0xb
 3441 0018 3E       		.uleb128 0x3e
 3442 0019 0B       		.uleb128 0xb
 3443 001a 03       		.uleb128 0x3
 3444 001b 08       		.uleb128 0x8
 3445 001c 00       		.byte	0
 3446 001d 00       		.byte	0
 3447 001e 03       		.uleb128 0x3
 3448 001f 16       		.uleb128 0x16
 3449 0020 00       		.byte	0
 3450 0021 03       		.uleb128 0x3
 3451 0022 0E       		.uleb128 0xe
 3452 0023 3A       		.uleb128 0x3a
 3453 0024 0B       		.uleb128 0xb
 3454 0025 3B       		.uleb128 0x3b
 3455 0026 0B       		.uleb128 0xb
 3456 0027 49       		.uleb128 0x49
 3457 0028 13       		.uleb128 0x13
 3458 0029 00       		.byte	0
 3459 002a 00       		.byte	0
 3460 002b 04       		.uleb128 0x4
 3461 002c 24       		.uleb128 0x24
 3462 002d 00       		.byte	0
 3463 002e 0B       		.uleb128 0xb
 3464 002f 0B       		.uleb128 0xb
 3465 0030 3E       		.uleb128 0x3e
 3466 0031 0B       		.uleb128 0xb
 3467 0032 03       		.uleb128 0x3
 3468 0033 0E       		.uleb128 0xe
 3469 0034 00       		.byte	0
 3470 0035 00       		.byte	0
 3471 0036 05       		.uleb128 0x5
 3472 0037 26       		.uleb128 0x26
 3473 0038 00       		.byte	0
 3474 0039 49       		.uleb128 0x49
 3475 003a 13       		.uleb128 0x13
 3476 003b 00       		.byte	0
 3477 003c 00       		.byte	0
ARM GAS  /tmp/ccWkTx1E.s 			page 62


 3478 003d 06       		.uleb128 0x6
 3479 003e 35       		.uleb128 0x35
 3480 003f 00       		.byte	0
 3481 0040 49       		.uleb128 0x49
 3482 0041 13       		.uleb128 0x13
 3483 0042 00       		.byte	0
 3484 0043 00       		.byte	0
 3485 0044 07       		.uleb128 0x7
 3486 0045 13       		.uleb128 0x13
 3487 0046 01       		.byte	0x1
 3488 0047 03       		.uleb128 0x3
 3489 0048 0E       		.uleb128 0xe
 3490 0049 0B       		.uleb128 0xb
 3491 004a 0B       		.uleb128 0xb
 3492 004b 3A       		.uleb128 0x3a
 3493 004c 0B       		.uleb128 0xb
 3494 004d 3B       		.uleb128 0x3b
 3495 004e 0B       		.uleb128 0xb
 3496 004f 01       		.uleb128 0x1
 3497 0050 13       		.uleb128 0x13
 3498 0051 00       		.byte	0
 3499 0052 00       		.byte	0
 3500 0053 08       		.uleb128 0x8
 3501 0054 0D       		.uleb128 0xd
 3502 0055 00       		.byte	0
 3503 0056 03       		.uleb128 0x3
 3504 0057 0E       		.uleb128 0xe
 3505 0058 3A       		.uleb128 0x3a
 3506 0059 0B       		.uleb128 0xb
 3507 005a 3B       		.uleb128 0x3b
 3508 005b 0B       		.uleb128 0xb
 3509 005c 49       		.uleb128 0x49
 3510 005d 13       		.uleb128 0x13
 3511 005e 38       		.uleb128 0x38
 3512 005f 0B       		.uleb128 0xb
 3513 0060 00       		.byte	0
 3514 0061 00       		.byte	0
 3515 0062 09       		.uleb128 0x9
 3516 0063 0D       		.uleb128 0xd
 3517 0064 00       		.byte	0
 3518 0065 03       		.uleb128 0x3
 3519 0066 08       		.uleb128 0x8
 3520 0067 3A       		.uleb128 0x3a
 3521 0068 0B       		.uleb128 0xb
 3522 0069 3B       		.uleb128 0x3b
 3523 006a 0B       		.uleb128 0xb
 3524 006b 49       		.uleb128 0x49
 3525 006c 13       		.uleb128 0x13
 3526 006d 38       		.uleb128 0x38
 3527 006e 0B       		.uleb128 0xb
 3528 006f 00       		.byte	0
 3529 0070 00       		.byte	0
 3530 0071 0A       		.uleb128 0xa
 3531 0072 0D       		.uleb128 0xd
 3532 0073 00       		.byte	0
 3533 0074 03       		.uleb128 0x3
 3534 0075 08       		.uleb128 0x8
ARM GAS  /tmp/ccWkTx1E.s 			page 63


 3535 0076 3A       		.uleb128 0x3a
 3536 0077 0B       		.uleb128 0xb
 3537 0078 3B       		.uleb128 0x3b
 3538 0079 05       		.uleb128 0x5
 3539 007a 49       		.uleb128 0x49
 3540 007b 13       		.uleb128 0x13
 3541 007c 38       		.uleb128 0x38
 3542 007d 0B       		.uleb128 0xb
 3543 007e 00       		.byte	0
 3544 007f 00       		.byte	0
 3545 0080 0B       		.uleb128 0xb
 3546 0081 0D       		.uleb128 0xd
 3547 0082 00       		.byte	0
 3548 0083 03       		.uleb128 0x3
 3549 0084 0E       		.uleb128 0xe
 3550 0085 3A       		.uleb128 0x3a
 3551 0086 0B       		.uleb128 0xb
 3552 0087 3B       		.uleb128 0x3b
 3553 0088 05       		.uleb128 0x5
 3554 0089 49       		.uleb128 0x49
 3555 008a 13       		.uleb128 0x13
 3556 008b 38       		.uleb128 0x38
 3557 008c 0B       		.uleb128 0xb
 3558 008d 00       		.byte	0
 3559 008e 00       		.byte	0
 3560 008f 0C       		.uleb128 0xc
 3561 0090 0F       		.uleb128 0xf
 3562 0091 00       		.byte	0
 3563 0092 0B       		.uleb128 0xb
 3564 0093 0B       		.uleb128 0xb
 3565 0094 49       		.uleb128 0x49
 3566 0095 13       		.uleb128 0x13
 3567 0096 00       		.byte	0
 3568 0097 00       		.byte	0
 3569 0098 0D       		.uleb128 0xd
 3570 0099 13       		.uleb128 0x13
 3571 009a 01       		.byte	0x1
 3572 009b 03       		.uleb128 0x3
 3573 009c 0E       		.uleb128 0xe
 3574 009d 0B       		.uleb128 0xb
 3575 009e 0B       		.uleb128 0xb
 3576 009f 3A       		.uleb128 0x3a
 3577 00a0 0B       		.uleb128 0xb
 3578 00a1 3B       		.uleb128 0x3b
 3579 00a2 05       		.uleb128 0x5
 3580 00a3 01       		.uleb128 0x1
 3581 00a4 13       		.uleb128 0x13
 3582 00a5 00       		.byte	0
 3583 00a6 00       		.byte	0
 3584 00a7 0E       		.uleb128 0xe
 3585 00a8 15       		.uleb128 0x15
 3586 00a9 01       		.byte	0x1
 3587 00aa 27       		.uleb128 0x27
 3588 00ab 19       		.uleb128 0x19
 3589 00ac 01       		.uleb128 0x1
 3590 00ad 13       		.uleb128 0x13
 3591 00ae 00       		.byte	0
ARM GAS  /tmp/ccWkTx1E.s 			page 64


 3592 00af 00       		.byte	0
 3593 00b0 0F       		.uleb128 0xf
 3594 00b1 05       		.uleb128 0x5
 3595 00b2 00       		.byte	0
 3596 00b3 49       		.uleb128 0x49
 3597 00b4 13       		.uleb128 0x13
 3598 00b5 00       		.byte	0
 3599 00b6 00       		.byte	0
 3600 00b7 10       		.uleb128 0x10
 3601 00b8 0F       		.uleb128 0xf
 3602 00b9 00       		.byte	0
 3603 00ba 0B       		.uleb128 0xb
 3604 00bb 0B       		.uleb128 0xb
 3605 00bc 00       		.byte	0
 3606 00bd 00       		.byte	0
 3607 00be 11       		.uleb128 0x11
 3608 00bf 34       		.uleb128 0x34
 3609 00c0 00       		.byte	0
 3610 00c1 03       		.uleb128 0x3
 3611 00c2 0E       		.uleb128 0xe
 3612 00c3 3A       		.uleb128 0x3a
 3613 00c4 0B       		.uleb128 0xb
 3614 00c5 3B       		.uleb128 0x3b
 3615 00c6 05       		.uleb128 0x5
 3616 00c7 49       		.uleb128 0x49
 3617 00c8 13       		.uleb128 0x13
 3618 00c9 3F       		.uleb128 0x3f
 3619 00ca 19       		.uleb128 0x19
 3620 00cb 3C       		.uleb128 0x3c
 3621 00cc 19       		.uleb128 0x19
 3622 00cd 00       		.byte	0
 3623 00ce 00       		.byte	0
 3624 00cf 12       		.uleb128 0x12
 3625 00d0 34       		.uleb128 0x34
 3626 00d1 00       		.byte	0
 3627 00d2 03       		.uleb128 0x3
 3628 00d3 0E       		.uleb128 0xe
 3629 00d4 3A       		.uleb128 0x3a
 3630 00d5 0B       		.uleb128 0xb
 3631 00d6 3B       		.uleb128 0x3b
 3632 00d7 0B       		.uleb128 0xb
 3633 00d8 49       		.uleb128 0x49
 3634 00d9 13       		.uleb128 0x13
 3635 00da 3F       		.uleb128 0x3f
 3636 00db 19       		.uleb128 0x19
 3637 00dc 3C       		.uleb128 0x3c
 3638 00dd 19       		.uleb128 0x19
 3639 00de 00       		.byte	0
 3640 00df 00       		.byte	0
 3641 00e0 13       		.uleb128 0x13
 3642 00e1 01       		.uleb128 0x1
 3643 00e2 01       		.byte	0x1
 3644 00e3 49       		.uleb128 0x49
 3645 00e4 13       		.uleb128 0x13
 3646 00e5 01       		.uleb128 0x1
 3647 00e6 13       		.uleb128 0x13
 3648 00e7 00       		.byte	0
ARM GAS  /tmp/ccWkTx1E.s 			page 65


 3649 00e8 00       		.byte	0
 3650 00e9 14       		.uleb128 0x14
 3651 00ea 21       		.uleb128 0x21
 3652 00eb 00       		.byte	0
 3653 00ec 49       		.uleb128 0x49
 3654 00ed 13       		.uleb128 0x13
 3655 00ee 2F       		.uleb128 0x2f
 3656 00ef 0B       		.uleb128 0xb
 3657 00f0 00       		.byte	0
 3658 00f1 00       		.byte	0
 3659 00f2 15       		.uleb128 0x15
 3660 00f3 13       		.uleb128 0x13
 3661 00f4 01       		.byte	0x1
 3662 00f5 0B       		.uleb128 0xb
 3663 00f6 0B       		.uleb128 0xb
 3664 00f7 3A       		.uleb128 0x3a
 3665 00f8 0B       		.uleb128 0xb
 3666 00f9 3B       		.uleb128 0x3b
 3667 00fa 0B       		.uleb128 0xb
 3668 00fb 01       		.uleb128 0x1
 3669 00fc 13       		.uleb128 0x13
 3670 00fd 00       		.byte	0
 3671 00fe 00       		.byte	0
 3672 00ff 16       		.uleb128 0x16
 3673 0100 17       		.uleb128 0x17
 3674 0101 01       		.byte	0x1
 3675 0102 0B       		.uleb128 0xb
 3676 0103 0B       		.uleb128 0xb
 3677 0104 3A       		.uleb128 0x3a
 3678 0105 0B       		.uleb128 0xb
 3679 0106 3B       		.uleb128 0x3b
 3680 0107 0B       		.uleb128 0xb
 3681 0108 01       		.uleb128 0x1
 3682 0109 13       		.uleb128 0x13
 3683 010a 00       		.byte	0
 3684 010b 00       		.byte	0
 3685 010c 17       		.uleb128 0x17
 3686 010d 0D       		.uleb128 0xd
 3687 010e 00       		.byte	0
 3688 010f 03       		.uleb128 0x3
 3689 0110 0E       		.uleb128 0xe
 3690 0111 3A       		.uleb128 0x3a
 3691 0112 0B       		.uleb128 0xb
 3692 0113 3B       		.uleb128 0x3b
 3693 0114 0B       		.uleb128 0xb
 3694 0115 49       		.uleb128 0x49
 3695 0116 13       		.uleb128 0x13
 3696 0117 00       		.byte	0
 3697 0118 00       		.byte	0
 3698 0119 18       		.uleb128 0x18
 3699 011a 0D       		.uleb128 0xd
 3700 011b 00       		.byte	0
 3701 011c 03       		.uleb128 0x3
 3702 011d 0E       		.uleb128 0xe
 3703 011e 3A       		.uleb128 0x3a
 3704 011f 0B       		.uleb128 0xb
 3705 0120 3B       		.uleb128 0x3b
ARM GAS  /tmp/ccWkTx1E.s 			page 66


 3706 0121 05       		.uleb128 0x5
 3707 0122 49       		.uleb128 0x49
 3708 0123 13       		.uleb128 0x13
 3709 0124 00       		.byte	0
 3710 0125 00       		.byte	0
 3711 0126 19       		.uleb128 0x19
 3712 0127 34       		.uleb128 0x34
 3713 0128 00       		.byte	0
 3714 0129 03       		.uleb128 0x3
 3715 012a 08       		.uleb128 0x8
 3716 012b 3A       		.uleb128 0x3a
 3717 012c 0B       		.uleb128 0xb
 3718 012d 3B       		.uleb128 0x3b
 3719 012e 05       		.uleb128 0x5
 3720 012f 49       		.uleb128 0x49
 3721 0130 13       		.uleb128 0x13
 3722 0131 3F       		.uleb128 0x3f
 3723 0132 19       		.uleb128 0x19
 3724 0133 3C       		.uleb128 0x3c
 3725 0134 19       		.uleb128 0x19
 3726 0135 00       		.byte	0
 3727 0136 00       		.byte	0
 3728 0137 1A       		.uleb128 0x1a
 3729 0138 21       		.uleb128 0x21
 3730 0139 00       		.byte	0
 3731 013a 00       		.byte	0
 3732 013b 00       		.byte	0
 3733 013c 1B       		.uleb128 0x1b
 3734 013d 15       		.uleb128 0x15
 3735 013e 01       		.byte	0x1
 3736 013f 27       		.uleb128 0x27
 3737 0140 19       		.uleb128 0x19
 3738 0141 49       		.uleb128 0x49
 3739 0142 13       		.uleb128 0x13
 3740 0143 01       		.uleb128 0x1
 3741 0144 13       		.uleb128 0x13
 3742 0145 00       		.byte	0
 3743 0146 00       		.byte	0
 3744 0147 1C       		.uleb128 0x1c
 3745 0148 16       		.uleb128 0x16
 3746 0149 00       		.byte	0
 3747 014a 03       		.uleb128 0x3
 3748 014b 0E       		.uleb128 0xe
 3749 014c 3A       		.uleb128 0x3a
 3750 014d 0B       		.uleb128 0xb
 3751 014e 3B       		.uleb128 0x3b
 3752 014f 05       		.uleb128 0x5
 3753 0150 49       		.uleb128 0x49
 3754 0151 13       		.uleb128 0x13
 3755 0152 00       		.byte	0
 3756 0153 00       		.byte	0
 3757 0154 1D       		.uleb128 0x1d
 3758 0155 2E       		.uleb128 0x2e
 3759 0156 01       		.byte	0x1
 3760 0157 3F       		.uleb128 0x3f
 3761 0158 19       		.uleb128 0x19
 3762 0159 03       		.uleb128 0x3
ARM GAS  /tmp/ccWkTx1E.s 			page 67


 3763 015a 0E       		.uleb128 0xe
 3764 015b 3A       		.uleb128 0x3a
 3765 015c 0B       		.uleb128 0xb
 3766 015d 3B       		.uleb128 0x3b
 3767 015e 05       		.uleb128 0x5
 3768 015f 27       		.uleb128 0x27
 3769 0160 19       		.uleb128 0x19
 3770 0161 11       		.uleb128 0x11
 3771 0162 01       		.uleb128 0x1
 3772 0163 12       		.uleb128 0x12
 3773 0164 06       		.uleb128 0x6
 3774 0165 40       		.uleb128 0x40
 3775 0166 18       		.uleb128 0x18
 3776 0167 9742     		.uleb128 0x2117
 3777 0169 19       		.uleb128 0x19
 3778 016a 01       		.uleb128 0x1
 3779 016b 13       		.uleb128 0x13
 3780 016c 00       		.byte	0
 3781 016d 00       		.byte	0
 3782 016e 1E       		.uleb128 0x1e
 3783 016f 34       		.uleb128 0x34
 3784 0170 00       		.byte	0
 3785 0171 03       		.uleb128 0x3
 3786 0172 08       		.uleb128 0x8
 3787 0173 3A       		.uleb128 0x3a
 3788 0174 0B       		.uleb128 0xb
 3789 0175 3B       		.uleb128 0x3b
 3790 0176 05       		.uleb128 0x5
 3791 0177 49       		.uleb128 0x49
 3792 0178 13       		.uleb128 0x13
 3793 0179 02       		.uleb128 0x2
 3794 017a 18       		.uleb128 0x18
 3795 017b 00       		.byte	0
 3796 017c 00       		.byte	0
 3797 017d 1F       		.uleb128 0x1f
 3798 017e 0B       		.uleb128 0xb
 3799 017f 01       		.byte	0x1
 3800 0180 55       		.uleb128 0x55
 3801 0181 17       		.uleb128 0x17
 3802 0182 01       		.uleb128 0x1
 3803 0183 13       		.uleb128 0x13
 3804 0184 00       		.byte	0
 3805 0185 00       		.byte	0
 3806 0186 20       		.uleb128 0x20
 3807 0187 34       		.uleb128 0x34
 3808 0188 00       		.byte	0
 3809 0189 03       		.uleb128 0x3
 3810 018a 08       		.uleb128 0x8
 3811 018b 3A       		.uleb128 0x3a
 3812 018c 0B       		.uleb128 0xb
 3813 018d 3B       		.uleb128 0x3b
 3814 018e 05       		.uleb128 0x5
 3815 018f 49       		.uleb128 0x49
 3816 0190 13       		.uleb128 0x13
 3817 0191 02       		.uleb128 0x2
 3818 0192 17       		.uleb128 0x17
 3819 0193 00       		.byte	0
ARM GAS  /tmp/ccWkTx1E.s 			page 68


 3820 0194 00       		.byte	0
 3821 0195 21       		.uleb128 0x21
 3822 0196 34       		.uleb128 0x34
 3823 0197 00       		.byte	0
 3824 0198 03       		.uleb128 0x3
 3825 0199 08       		.uleb128 0x8
 3826 019a 3A       		.uleb128 0x3a
 3827 019b 0B       		.uleb128 0xb
 3828 019c 3B       		.uleb128 0x3b
 3829 019d 05       		.uleb128 0x5
 3830 019e 49       		.uleb128 0x49
 3831 019f 13       		.uleb128 0x13
 3832 01a0 00       		.byte	0
 3833 01a1 00       		.byte	0
 3834 01a2 22       		.uleb128 0x22
 3835 01a3 1D       		.uleb128 0x1d
 3836 01a4 01       		.byte	0x1
 3837 01a5 31       		.uleb128 0x31
 3838 01a6 13       		.uleb128 0x13
 3839 01a7 52       		.uleb128 0x52
 3840 01a8 01       		.uleb128 0x1
 3841 01a9 55       		.uleb128 0x55
 3842 01aa 17       		.uleb128 0x17
 3843 01ab 58       		.uleb128 0x58
 3844 01ac 0B       		.uleb128 0xb
 3845 01ad 59       		.uleb128 0x59
 3846 01ae 05       		.uleb128 0x5
 3847 01af 01       		.uleb128 0x1
 3848 01b0 13       		.uleb128 0x13
 3849 01b1 00       		.byte	0
 3850 01b2 00       		.byte	0
 3851 01b3 23       		.uleb128 0x23
 3852 01b4 05       		.uleb128 0x5
 3853 01b5 00       		.byte	0
 3854 01b6 31       		.uleb128 0x31
 3855 01b7 13       		.uleb128 0x13
 3856 01b8 02       		.uleb128 0x2
 3857 01b9 17       		.uleb128 0x17
 3858 01ba 00       		.byte	0
 3859 01bb 00       		.byte	0
 3860 01bc 24       		.uleb128 0x24
 3861 01bd 0B       		.uleb128 0xb
 3862 01be 01       		.byte	0x1
 3863 01bf 55       		.uleb128 0x55
 3864 01c0 17       		.uleb128 0x17
 3865 01c1 00       		.byte	0
 3866 01c2 00       		.byte	0
 3867 01c3 25       		.uleb128 0x25
 3868 01c4 34       		.uleb128 0x34
 3869 01c5 00       		.byte	0
 3870 01c6 31       		.uleb128 0x31
 3871 01c7 13       		.uleb128 0x13
 3872 01c8 02       		.uleb128 0x2
 3873 01c9 17       		.uleb128 0x17
 3874 01ca 00       		.byte	0
 3875 01cb 00       		.byte	0
 3876 01cc 26       		.uleb128 0x26
ARM GAS  /tmp/ccWkTx1E.s 			page 69


 3877 01cd 898201   		.uleb128 0x4109
 3878 01d0 00       		.byte	0
 3879 01d1 11       		.uleb128 0x11
 3880 01d2 01       		.uleb128 0x1
 3881 01d3 31       		.uleb128 0x31
 3882 01d4 13       		.uleb128 0x13
 3883 01d5 00       		.byte	0
 3884 01d6 00       		.byte	0
 3885 01d7 27       		.uleb128 0x27
 3886 01d8 1D       		.uleb128 0x1d
 3887 01d9 01       		.byte	0x1
 3888 01da 31       		.uleb128 0x31
 3889 01db 13       		.uleb128 0x13
 3890 01dc 11       		.uleb128 0x11
 3891 01dd 01       		.uleb128 0x1
 3892 01de 12       		.uleb128 0x12
 3893 01df 06       		.uleb128 0x6
 3894 01e0 58       		.uleb128 0x58
 3895 01e1 0B       		.uleb128 0xb
 3896 01e2 59       		.uleb128 0x59
 3897 01e3 05       		.uleb128 0x5
 3898 01e4 00       		.byte	0
 3899 01e5 00       		.byte	0
 3900 01e6 28       		.uleb128 0x28
 3901 01e7 05       		.uleb128 0x5
 3902 01e8 00       		.byte	0
 3903 01e9 31       		.uleb128 0x31
 3904 01ea 13       		.uleb128 0x13
 3905 01eb 00       		.byte	0
 3906 01ec 00       		.byte	0
 3907 01ed 29       		.uleb128 0x29
 3908 01ee 1D       		.uleb128 0x1d
 3909 01ef 01       		.byte	0x1
 3910 01f0 31       		.uleb128 0x31
 3911 01f1 13       		.uleb128 0x13
 3912 01f2 11       		.uleb128 0x11
 3913 01f3 01       		.uleb128 0x1
 3914 01f4 12       		.uleb128 0x12
 3915 01f5 06       		.uleb128 0x6
 3916 01f6 58       		.uleb128 0x58
 3917 01f7 0B       		.uleb128 0xb
 3918 01f8 59       		.uleb128 0x59
 3919 01f9 0B       		.uleb128 0xb
 3920 01fa 00       		.byte	0
 3921 01fb 00       		.byte	0
 3922 01fc 2A       		.uleb128 0x2a
 3923 01fd 1D       		.uleb128 0x1d
 3924 01fe 01       		.byte	0x1
 3925 01ff 31       		.uleb128 0x31
 3926 0200 13       		.uleb128 0x13
 3927 0201 11       		.uleb128 0x11
 3928 0202 01       		.uleb128 0x1
 3929 0203 12       		.uleb128 0x12
 3930 0204 06       		.uleb128 0x6
 3931 0205 58       		.uleb128 0x58
 3932 0206 0B       		.uleb128 0xb
 3933 0207 59       		.uleb128 0x59
ARM GAS  /tmp/ccWkTx1E.s 			page 70


 3934 0208 05       		.uleb128 0x5
 3935 0209 01       		.uleb128 0x1
 3936 020a 13       		.uleb128 0x13
 3937 020b 00       		.byte	0
 3938 020c 00       		.byte	0
 3939 020d 2B       		.uleb128 0x2b
 3940 020e 0B       		.uleb128 0xb
 3941 020f 01       		.byte	0x1
 3942 0210 11       		.uleb128 0x11
 3943 0211 01       		.uleb128 0x1
 3944 0212 12       		.uleb128 0x12
 3945 0213 06       		.uleb128 0x6
 3946 0214 00       		.byte	0
 3947 0215 00       		.byte	0
 3948 0216 2C       		.uleb128 0x2c
 3949 0217 34       		.uleb128 0x34
 3950 0218 00       		.byte	0
 3951 0219 31       		.uleb128 0x31
 3952 021a 13       		.uleb128 0x13
 3953 021b 00       		.byte	0
 3954 021c 00       		.byte	0
 3955 021d 2D       		.uleb128 0x2d
 3956 021e 05       		.uleb128 0x5
 3957 021f 00       		.byte	0
 3958 0220 03       		.uleb128 0x3
 3959 0221 08       		.uleb128 0x8
 3960 0222 3A       		.uleb128 0x3a
 3961 0223 0B       		.uleb128 0xb
 3962 0224 3B       		.uleb128 0x3b
 3963 0225 05       		.uleb128 0x5
 3964 0226 49       		.uleb128 0x49
 3965 0227 13       		.uleb128 0x13
 3966 0228 02       		.uleb128 0x2
 3967 0229 17       		.uleb128 0x17
 3968 022a 00       		.byte	0
 3969 022b 00       		.byte	0
 3970 022c 2E       		.uleb128 0x2e
 3971 022d 34       		.uleb128 0x34
 3972 022e 00       		.byte	0
 3973 022f 03       		.uleb128 0x3
 3974 0230 0E       		.uleb128 0xe
 3975 0231 49       		.uleb128 0x49
 3976 0232 13       		.uleb128 0x13
 3977 0233 34       		.uleb128 0x34
 3978 0234 19       		.uleb128 0x19
 3979 0235 00       		.byte	0
 3980 0236 00       		.byte	0
 3981 0237 2F       		.uleb128 0x2f
 3982 0238 34       		.uleb128 0x34
 3983 0239 00       		.byte	0
 3984 023a 03       		.uleb128 0x3
 3985 023b 0E       		.uleb128 0xe
 3986 023c 3A       		.uleb128 0x3a
 3987 023d 0B       		.uleb128 0xb
 3988 023e 3B       		.uleb128 0x3b
 3989 023f 05       		.uleb128 0x5
 3990 0240 49       		.uleb128 0x49
ARM GAS  /tmp/ccWkTx1E.s 			page 71


 3991 0241 13       		.uleb128 0x13
 3992 0242 02       		.uleb128 0x2
 3993 0243 17       		.uleb128 0x17
 3994 0244 00       		.byte	0
 3995 0245 00       		.byte	0
 3996 0246 30       		.uleb128 0x30
 3997 0247 898201   		.uleb128 0x4109
 3998 024a 00       		.byte	0
 3999 024b 11       		.uleb128 0x11
 4000 024c 01       		.uleb128 0x1
 4001 024d 9542     		.uleb128 0x2115
 4002 024f 19       		.uleb128 0x19
 4003 0250 31       		.uleb128 0x31
 4004 0251 13       		.uleb128 0x13
 4005 0252 00       		.byte	0
 4006 0253 00       		.byte	0
 4007 0254 31       		.uleb128 0x31
 4008 0255 2E       		.uleb128 0x2e
 4009 0256 01       		.byte	0x1
 4010 0257 3F       		.uleb128 0x3f
 4011 0258 19       		.uleb128 0x19
 4012 0259 03       		.uleb128 0x3
 4013 025a 0E       		.uleb128 0xe
 4014 025b 3A       		.uleb128 0x3a
 4015 025c 0B       		.uleb128 0xb
 4016 025d 3B       		.uleb128 0x3b
 4017 025e 05       		.uleb128 0x5
 4018 025f 27       		.uleb128 0x27
 4019 0260 19       		.uleb128 0x19
 4020 0261 49       		.uleb128 0x49
 4021 0262 13       		.uleb128 0x13
 4022 0263 20       		.uleb128 0x20
 4023 0264 0B       		.uleb128 0xb
 4024 0265 01       		.uleb128 0x1
 4025 0266 13       		.uleb128 0x13
 4026 0267 00       		.byte	0
 4027 0268 00       		.byte	0
 4028 0269 32       		.uleb128 0x32
 4029 026a 05       		.uleb128 0x5
 4030 026b 00       		.byte	0
 4031 026c 03       		.uleb128 0x3
 4032 026d 08       		.uleb128 0x8
 4033 026e 3A       		.uleb128 0x3a
 4034 026f 0B       		.uleb128 0xb
 4035 0270 3B       		.uleb128 0x3b
 4036 0271 05       		.uleb128 0x5
 4037 0272 49       		.uleb128 0x49
 4038 0273 13       		.uleb128 0x13
 4039 0274 00       		.byte	0
 4040 0275 00       		.byte	0
 4041 0276 33       		.uleb128 0x33
 4042 0277 34       		.uleb128 0x34
 4043 0278 00       		.byte	0
 4044 0279 03       		.uleb128 0x3
 4045 027a 0E       		.uleb128 0xe
 4046 027b 49       		.uleb128 0x49
 4047 027c 13       		.uleb128 0x13
ARM GAS  /tmp/ccWkTx1E.s 			page 72


 4048 027d 34       		.uleb128 0x34
 4049 027e 19       		.uleb128 0x19
 4050 027f 1C       		.uleb128 0x1c
 4051 0280 0E       		.uleb128 0xe
 4052 0281 00       		.byte	0
 4053 0282 00       		.byte	0
 4054 0283 34       		.uleb128 0x34
 4055 0284 2E       		.uleb128 0x2e
 4056 0285 01       		.byte	0x1
 4057 0286 3F       		.uleb128 0x3f
 4058 0287 19       		.uleb128 0x19
 4059 0288 03       		.uleb128 0x3
 4060 0289 0E       		.uleb128 0xe
 4061 028a 3A       		.uleb128 0x3a
 4062 028b 0B       		.uleb128 0xb
 4063 028c 3B       		.uleb128 0x3b
 4064 028d 0B       		.uleb128 0xb
 4065 028e 27       		.uleb128 0x27
 4066 028f 19       		.uleb128 0x19
 4067 0290 49       		.uleb128 0x49
 4068 0291 13       		.uleb128 0x13
 4069 0292 11       		.uleb128 0x11
 4070 0293 01       		.uleb128 0x1
 4071 0294 12       		.uleb128 0x12
 4072 0295 06       		.uleb128 0x6
 4073 0296 40       		.uleb128 0x40
 4074 0297 18       		.uleb128 0x18
 4075 0298 9742     		.uleb128 0x2117
 4076 029a 19       		.uleb128 0x19
 4077 029b 01       		.uleb128 0x1
 4078 029c 13       		.uleb128 0x13
 4079 029d 00       		.byte	0
 4080 029e 00       		.byte	0
 4081 029f 35       		.uleb128 0x35
 4082 02a0 05       		.uleb128 0x5
 4083 02a1 00       		.byte	0
 4084 02a2 03       		.uleb128 0x3
 4085 02a3 08       		.uleb128 0x8
 4086 02a4 3A       		.uleb128 0x3a
 4087 02a5 0B       		.uleb128 0xb
 4088 02a6 3B       		.uleb128 0x3b
 4089 02a7 0B       		.uleb128 0xb
 4090 02a8 49       		.uleb128 0x49
 4091 02a9 13       		.uleb128 0x13
 4092 02aa 02       		.uleb128 0x2
 4093 02ab 17       		.uleb128 0x17
 4094 02ac 00       		.byte	0
 4095 02ad 00       		.byte	0
 4096 02ae 36       		.uleb128 0x36
 4097 02af 898201   		.uleb128 0x4109
 4098 02b2 01       		.byte	0x1
 4099 02b3 11       		.uleb128 0x11
 4100 02b4 01       		.uleb128 0x1
 4101 02b5 31       		.uleb128 0x31
 4102 02b6 13       		.uleb128 0x13
 4103 02b7 00       		.byte	0
 4104 02b8 00       		.byte	0
ARM GAS  /tmp/ccWkTx1E.s 			page 73


 4105 02b9 37       		.uleb128 0x37
 4106 02ba 8A8201   		.uleb128 0x410a
 4107 02bd 00       		.byte	0
 4108 02be 02       		.uleb128 0x2
 4109 02bf 18       		.uleb128 0x18
 4110 02c0 9142     		.uleb128 0x2111
 4111 02c2 18       		.uleb128 0x18
 4112 02c3 00       		.byte	0
 4113 02c4 00       		.byte	0
 4114 02c5 38       		.uleb128 0x38
 4115 02c6 2E       		.uleb128 0x2e
 4116 02c7 01       		.byte	0x1
 4117 02c8 3F       		.uleb128 0x3f
 4118 02c9 19       		.uleb128 0x19
 4119 02ca 03       		.uleb128 0x3
 4120 02cb 0E       		.uleb128 0xe
 4121 02cc 3A       		.uleb128 0x3a
 4122 02cd 0B       		.uleb128 0xb
 4123 02ce 3B       		.uleb128 0x3b
 4124 02cf 0B       		.uleb128 0xb
 4125 02d0 27       		.uleb128 0x27
 4126 02d1 19       		.uleb128 0x19
 4127 02d2 11       		.uleb128 0x11
 4128 02d3 01       		.uleb128 0x1
 4129 02d4 12       		.uleb128 0x12
 4130 02d5 06       		.uleb128 0x6
 4131 02d6 40       		.uleb128 0x40
 4132 02d7 18       		.uleb128 0x18
 4133 02d8 9742     		.uleb128 0x2117
 4134 02da 19       		.uleb128 0x19
 4135 02db 01       		.uleb128 0x1
 4136 02dc 13       		.uleb128 0x13
 4137 02dd 00       		.byte	0
 4138 02de 00       		.byte	0
 4139 02df 39       		.uleb128 0x39
 4140 02e0 34       		.uleb128 0x34
 4141 02e1 00       		.byte	0
 4142 02e2 03       		.uleb128 0x3
 4143 02e3 08       		.uleb128 0x8
 4144 02e4 3A       		.uleb128 0x3a
 4145 02e5 0B       		.uleb128 0xb
 4146 02e6 3B       		.uleb128 0x3b
 4147 02e7 0B       		.uleb128 0xb
 4148 02e8 49       		.uleb128 0x49
 4149 02e9 13       		.uleb128 0x13
 4150 02ea 02       		.uleb128 0x2
 4151 02eb 17       		.uleb128 0x17
 4152 02ec 00       		.byte	0
 4153 02ed 00       		.byte	0
 4154 02ee 3A       		.uleb128 0x3a
 4155 02ef 1D       		.uleb128 0x1d
 4156 02f0 01       		.byte	0x1
 4157 02f1 31       		.uleb128 0x31
 4158 02f2 13       		.uleb128 0x13
 4159 02f3 11       		.uleb128 0x11
 4160 02f4 01       		.uleb128 0x1
 4161 02f5 12       		.uleb128 0x12
ARM GAS  /tmp/ccWkTx1E.s 			page 74


 4162 02f6 06       		.uleb128 0x6
 4163 02f7 58       		.uleb128 0x58
 4164 02f8 0B       		.uleb128 0xb
 4165 02f9 59       		.uleb128 0x59
 4166 02fa 0B       		.uleb128 0xb
 4167 02fb 01       		.uleb128 0x1
 4168 02fc 13       		.uleb128 0x13
 4169 02fd 00       		.byte	0
 4170 02fe 00       		.byte	0
 4171 02ff 3B       		.uleb128 0x3b
 4172 0300 1D       		.uleb128 0x1d
 4173 0301 01       		.byte	0x1
 4174 0302 31       		.uleb128 0x31
 4175 0303 13       		.uleb128 0x13
 4176 0304 52       		.uleb128 0x52
 4177 0305 01       		.uleb128 0x1
 4178 0306 55       		.uleb128 0x55
 4179 0307 17       		.uleb128 0x17
 4180 0308 58       		.uleb128 0x58
 4181 0309 0B       		.uleb128 0xb
 4182 030a 59       		.uleb128 0x59
 4183 030b 0B       		.uleb128 0xb
 4184 030c 01       		.uleb128 0x1
 4185 030d 13       		.uleb128 0x13
 4186 030e 00       		.byte	0
 4187 030f 00       		.byte	0
 4188 0310 3C       		.uleb128 0x3c
 4189 0311 898201   		.uleb128 0x4109
 4190 0314 01       		.byte	0x1
 4191 0315 11       		.uleb128 0x11
 4192 0316 01       		.uleb128 0x1
 4193 0317 31       		.uleb128 0x31
 4194 0318 13       		.uleb128 0x13
 4195 0319 01       		.uleb128 0x1
 4196 031a 13       		.uleb128 0x13
 4197 031b 00       		.byte	0
 4198 031c 00       		.byte	0
 4199 031d 3D       		.uleb128 0x3d
 4200 031e 898201   		.uleb128 0x4109
 4201 0321 01       		.byte	0x1
 4202 0322 11       		.uleb128 0x11
 4203 0323 01       		.uleb128 0x1
 4204 0324 9542     		.uleb128 0x2115
 4205 0326 19       		.uleb128 0x19
 4206 0327 31       		.uleb128 0x31
 4207 0328 13       		.uleb128 0x13
 4208 0329 00       		.byte	0
 4209 032a 00       		.byte	0
 4210 032b 3E       		.uleb128 0x3e
 4211 032c 05       		.uleb128 0x5
 4212 032d 00       		.byte	0
 4213 032e 03       		.uleb128 0x3
 4214 032f 08       		.uleb128 0x8
 4215 0330 3A       		.uleb128 0x3a
 4216 0331 0B       		.uleb128 0xb
 4217 0332 3B       		.uleb128 0x3b
 4218 0333 0B       		.uleb128 0xb
ARM GAS  /tmp/ccWkTx1E.s 			page 75


 4219 0334 49       		.uleb128 0x49
 4220 0335 13       		.uleb128 0x13
 4221 0336 02       		.uleb128 0x2
 4222 0337 18       		.uleb128 0x18
 4223 0338 00       		.byte	0
 4224 0339 00       		.byte	0
 4225 033a 3F       		.uleb128 0x3f
 4226 033b 2E       		.uleb128 0x2e
 4227 033c 01       		.byte	0x1
 4228 033d 03       		.uleb128 0x3
 4229 033e 0E       		.uleb128 0xe
 4230 033f 3A       		.uleb128 0x3a
 4231 0340 0B       		.uleb128 0xb
 4232 0341 3B       		.uleb128 0x3b
 4233 0342 0B       		.uleb128 0xb
 4234 0343 27       		.uleb128 0x27
 4235 0344 19       		.uleb128 0x19
 4236 0345 49       		.uleb128 0x49
 4237 0346 13       		.uleb128 0x13
 4238 0347 20       		.uleb128 0x20
 4239 0348 0B       		.uleb128 0xb
 4240 0349 01       		.uleb128 0x1
 4241 034a 13       		.uleb128 0x13
 4242 034b 00       		.byte	0
 4243 034c 00       		.byte	0
 4244 034d 40       		.uleb128 0x40
 4245 034e 05       		.uleb128 0x5
 4246 034f 00       		.byte	0
 4247 0350 03       		.uleb128 0x3
 4248 0351 08       		.uleb128 0x8
 4249 0352 3A       		.uleb128 0x3a
 4250 0353 0B       		.uleb128 0xb
 4251 0354 3B       		.uleb128 0x3b
 4252 0355 0B       		.uleb128 0xb
 4253 0356 49       		.uleb128 0x49
 4254 0357 13       		.uleb128 0x13
 4255 0358 00       		.byte	0
 4256 0359 00       		.byte	0
 4257 035a 41       		.uleb128 0x41
 4258 035b 2E       		.uleb128 0x2e
 4259 035c 01       		.byte	0x1
 4260 035d 03       		.uleb128 0x3
 4261 035e 0E       		.uleb128 0xe
 4262 035f 3A       		.uleb128 0x3a
 4263 0360 0B       		.uleb128 0xb
 4264 0361 3B       		.uleb128 0x3b
 4265 0362 05       		.uleb128 0x5
 4266 0363 27       		.uleb128 0x27
 4267 0364 19       		.uleb128 0x19
 4268 0365 20       		.uleb128 0x20
 4269 0366 0B       		.uleb128 0xb
 4270 0367 01       		.uleb128 0x1
 4271 0368 13       		.uleb128 0x13
 4272 0369 00       		.byte	0
 4273 036a 00       		.byte	0
 4274 036b 42       		.uleb128 0x42
 4275 036c 2E       		.uleb128 0x2e
ARM GAS  /tmp/ccWkTx1E.s 			page 76


 4276 036d 00       		.byte	0
 4277 036e 03       		.uleb128 0x3
 4278 036f 0E       		.uleb128 0xe
 4279 0370 3A       		.uleb128 0x3a
 4280 0371 0B       		.uleb128 0xb
 4281 0372 3B       		.uleb128 0x3b
 4282 0373 05       		.uleb128 0x5
 4283 0374 27       		.uleb128 0x27
 4284 0375 19       		.uleb128 0x19
 4285 0376 20       		.uleb128 0x20
 4286 0377 0B       		.uleb128 0xb
 4287 0378 00       		.byte	0
 4288 0379 00       		.byte	0
 4289 037a 43       		.uleb128 0x43
 4290 037b 2E       		.uleb128 0x2e
 4291 037c 01       		.byte	0x1
 4292 037d 03       		.uleb128 0x3
 4293 037e 0E       		.uleb128 0xe
 4294 037f 3A       		.uleb128 0x3a
 4295 0380 0B       		.uleb128 0xb
 4296 0381 3B       		.uleb128 0x3b
 4297 0382 05       		.uleb128 0x5
 4298 0383 27       		.uleb128 0x27
 4299 0384 19       		.uleb128 0x19
 4300 0385 49       		.uleb128 0x49
 4301 0386 13       		.uleb128 0x13
 4302 0387 20       		.uleb128 0x20
 4303 0388 0B       		.uleb128 0xb
 4304 0389 01       		.uleb128 0x1
 4305 038a 13       		.uleb128 0x13
 4306 038b 00       		.byte	0
 4307 038c 00       		.byte	0
 4308 038d 44       		.uleb128 0x44
 4309 038e 2E       		.uleb128 0x2e
 4310 038f 01       		.byte	0x1
 4311 0390 03       		.uleb128 0x3
 4312 0391 0E       		.uleb128 0xe
 4313 0392 3A       		.uleb128 0x3a
 4314 0393 0B       		.uleb128 0xb
 4315 0394 3B       		.uleb128 0x3b
 4316 0395 05       		.uleb128 0x5
 4317 0396 27       		.uleb128 0x27
 4318 0397 19       		.uleb128 0x19
 4319 0398 11       		.uleb128 0x11
 4320 0399 01       		.uleb128 0x1
 4321 039a 12       		.uleb128 0x12
 4322 039b 06       		.uleb128 0x6
 4323 039c 40       		.uleb128 0x40
 4324 039d 18       		.uleb128 0x18
 4325 039e 9742     		.uleb128 0x2117
 4326 03a0 19       		.uleb128 0x19
 4327 03a1 01       		.uleb128 0x1
 4328 03a2 13       		.uleb128 0x13
 4329 03a3 00       		.byte	0
 4330 03a4 00       		.byte	0
 4331 03a5 45       		.uleb128 0x45
 4332 03a6 05       		.uleb128 0x5
ARM GAS  /tmp/ccWkTx1E.s 			page 77


 4333 03a7 00       		.byte	0
 4334 03a8 03       		.uleb128 0x3
 4335 03a9 08       		.uleb128 0x8
 4336 03aa 3A       		.uleb128 0x3a
 4337 03ab 0B       		.uleb128 0xb
 4338 03ac 3B       		.uleb128 0x3b
 4339 03ad 05       		.uleb128 0x5
 4340 03ae 49       		.uleb128 0x49
 4341 03af 13       		.uleb128 0x13
 4342 03b0 02       		.uleb128 0x2
 4343 03b1 18       		.uleb128 0x18
 4344 03b2 00       		.byte	0
 4345 03b3 00       		.byte	0
 4346 03b4 46       		.uleb128 0x46
 4347 03b5 05       		.uleb128 0x5
 4348 03b6 00       		.byte	0
 4349 03b7 03       		.uleb128 0x3
 4350 03b8 0E       		.uleb128 0xe
 4351 03b9 3A       		.uleb128 0x3a
 4352 03ba 0B       		.uleb128 0xb
 4353 03bb 3B       		.uleb128 0x3b
 4354 03bc 05       		.uleb128 0x5
 4355 03bd 49       		.uleb128 0x49
 4356 03be 13       		.uleb128 0x13
 4357 03bf 00       		.byte	0
 4358 03c0 00       		.byte	0
 4359 03c1 47       		.uleb128 0x47
 4360 03c2 2E       		.uleb128 0x2e
 4361 03c3 01       		.byte	0x1
 4362 03c4 31       		.uleb128 0x31
 4363 03c5 13       		.uleb128 0x13
 4364 03c6 11       		.uleb128 0x11
 4365 03c7 01       		.uleb128 0x1
 4366 03c8 12       		.uleb128 0x12
 4367 03c9 06       		.uleb128 0x6
 4368 03ca 40       		.uleb128 0x40
 4369 03cb 18       		.uleb128 0x18
 4370 03cc 9742     		.uleb128 0x2117
 4371 03ce 19       		.uleb128 0x19
 4372 03cf 01       		.uleb128 0x1
 4373 03d0 13       		.uleb128 0x13
 4374 03d1 00       		.byte	0
 4375 03d2 00       		.byte	0
 4376 03d3 48       		.uleb128 0x48
 4377 03d4 2E       		.uleb128 0x2e
 4378 03d5 00       		.byte	0
 4379 03d6 3F       		.uleb128 0x3f
 4380 03d7 19       		.uleb128 0x19
 4381 03d8 3C       		.uleb128 0x3c
 4382 03d9 19       		.uleb128 0x19
 4383 03da 6E       		.uleb128 0x6e
 4384 03db 0E       		.uleb128 0xe
 4385 03dc 03       		.uleb128 0x3
 4386 03dd 0E       		.uleb128 0xe
 4387 03de 3A       		.uleb128 0x3a
 4388 03df 0B       		.uleb128 0xb
 4389 03e0 3B       		.uleb128 0x3b
ARM GAS  /tmp/ccWkTx1E.s 			page 78


 4390 03e1 05       		.uleb128 0x5
 4391 03e2 00       		.byte	0
 4392 03e3 00       		.byte	0
 4393 03e4 00       		.byte	0
 4394              		.section	.debug_loc,"",%progbits
 4395              	.Ldebug_loc0:
 4396              	.LLST37:
 4397 0000 16000000 		.4byte	.LVL73
 4398 0004 33000000 		.4byte	.LVL77-1
 4399 0008 0100     		.2byte	0x1
 4400 000a 53       		.byte	0x53
 4401 000b 4A000000 		.4byte	.LVL80
 4402 000f 54000000 		.4byte	.LFE298
 4403 0013 0100     		.2byte	0x1
 4404 0015 53       		.byte	0x53
 4405 0016 00000000 		.4byte	0
 4406 001a 00000000 		.4byte	0
 4407              	.LLST38:
 4408 001e 26000000 		.4byte	.LVL75
 4409 0022 28000000 		.4byte	.LVL76
 4410 0026 0100     		.2byte	0x1
 4411 0028 53       		.byte	0x53
 4412 0029 00000000 		.4byte	0
 4413 002d 00000000 		.4byte	0
 4414              	.LLST39:
 4415 0031 26000000 		.4byte	.LVL75
 4416 0035 28000000 		.4byte	.LVL76
 4417 0039 0100     		.2byte	0x1
 4418 003b 50       		.byte	0x50
 4419 003c 00000000 		.4byte	0
 4420 0040 00000000 		.4byte	0
 4421              	.LLST36:
 4422 0044 06000000 		.4byte	.LVL71
 4423 0048 0C000000 		.4byte	.LVL72
 4424 004c 0300     		.2byte	0x3
 4425 004e 08       		.byte	0x8
 4426 004f 20       		.byte	0x20
 4427 0050 9F       		.byte	0x9f
 4428 0051 00000000 		.4byte	0
 4429 0055 00000000 		.4byte	0
 4430              	.LLST40:
 4431 0059 42000000 		.4byte	.LVL78
 4432 005d 48000000 		.4byte	.LVL79
 4433 0061 0200     		.2byte	0x2
 4434 0063 30       		.byte	0x30
 4435 0064 9F       		.byte	0x9f
 4436 0065 00000000 		.4byte	0
 4437 0069 00000000 		.4byte	0
 4438              	.LLST33:
 4439 006d 14000000 		.4byte	.LVL65
 4440 0071 31000000 		.4byte	.LVL69-1
 4441 0075 0100     		.2byte	0x1
 4442 0077 53       		.byte	0x53
 4443 0078 34000000 		.4byte	.LVL70
 4444 007c 40000000 		.4byte	.LFE297
 4445 0080 0100     		.2byte	0x1
 4446 0082 53       		.byte	0x53
ARM GAS  /tmp/ccWkTx1E.s 			page 79


 4447 0083 00000000 		.4byte	0
 4448 0087 00000000 		.4byte	0
 4449              	.LLST34:
 4450 008b 24000000 		.4byte	.LVL67
 4451 008f 26000000 		.4byte	.LVL68
 4452 0093 0100     		.2byte	0x1
 4453 0095 53       		.byte	0x53
 4454 0096 00000000 		.4byte	0
 4455 009a 00000000 		.4byte	0
 4456              	.LLST35:
 4457 009e 24000000 		.4byte	.LVL67
 4458 00a2 26000000 		.4byte	.LVL68
 4459 00a6 0100     		.2byte	0x1
 4460 00a8 50       		.byte	0x50
 4461 00a9 00000000 		.4byte	0
 4462 00ad 00000000 		.4byte	0
 4463              	.LLST25:
 4464 00b1 00000000 		.4byte	.LVL50
 4465 00b5 14000000 		.4byte	.LVL52
 4466 00b9 0100     		.2byte	0x1
 4467 00bb 50       		.byte	0x50
 4468 00bc 14000000 		.4byte	.LVL52
 4469 00c0 37000000 		.4byte	.LVL58-1
 4470 00c4 0100     		.2byte	0x1
 4471 00c6 53       		.byte	0x53
 4472 00c7 37000000 		.4byte	.LVL58-1
 4473 00cb 38000000 		.4byte	.LVL58
 4474 00cf 0400     		.2byte	0x4
 4475 00d1 F3       		.byte	0xf3
 4476 00d2 01       		.uleb128 0x1
 4477 00d3 50       		.byte	0x50
 4478 00d4 9F       		.byte	0x9f
 4479 00d5 38000000 		.4byte	.LVL58
 4480 00d9 54000000 		.4byte	.LFE296
 4481 00dd 0100     		.2byte	0x1
 4482 00df 53       		.byte	0x53
 4483 00e0 00000000 		.4byte	0
 4484 00e4 00000000 		.4byte	0
 4485              	.LLST26:
 4486 00e8 0C000000 		.4byte	.LVL51
 4487 00ec 32000000 		.4byte	.LVL57
 4488 00f0 0100     		.2byte	0x1
 4489 00f2 54       		.byte	0x54
 4490 00f3 38000000 		.4byte	.LVL58
 4491 00f7 4E000000 		.4byte	.LVL63
 4492 00fb 0100     		.2byte	0x1
 4493 00fd 54       		.byte	0x54
 4494 00fe 00000000 		.4byte	0
 4495 0102 00000000 		.4byte	0
 4496              	.LLST27:
 4497 0106 1C000000 		.4byte	.LVL53
 4498 010a 20000000 		.4byte	.LVL54
 4499 010e 0100     		.2byte	0x1
 4500 0110 52       		.byte	0x52
 4501 0111 38000000 		.4byte	.LVL58
 4502 0115 4A000000 		.4byte	.LVL62
 4503 0119 0100     		.2byte	0x1
ARM GAS  /tmp/ccWkTx1E.s 			page 80


 4504 011b 52       		.byte	0x52
 4505 011c 00000000 		.4byte	0
 4506 0120 00000000 		.4byte	0
 4507              	.LLST28:
 4508 0124 1C000000 		.4byte	.LVL53
 4509 0128 37000000 		.4byte	.LVL58-1
 4510 012c 0100     		.2byte	0x1
 4511 012e 51       		.byte	0x51
 4512 012f 38000000 		.4byte	.LVL58
 4513 0133 4A000000 		.4byte	.LVL62
 4514 0137 0100     		.2byte	0x1
 4515 0139 51       		.byte	0x51
 4516 013a 00000000 		.4byte	0
 4517 013e 00000000 		.4byte	0
 4518              	.LLST29:
 4519 0142 24000000 		.4byte	.LVL55
 4520 0146 2A000000 		.4byte	.LVL56
 4521 014a 0100     		.2byte	0x1
 4522 014c 53       		.byte	0x53
 4523 014d 00000000 		.4byte	0
 4524 0151 00000000 		.4byte	0
 4525              	.LLST30:
 4526 0155 24000000 		.4byte	.LVL55
 4527 0159 2A000000 		.4byte	.LVL56
 4528 015d 0100     		.2byte	0x1
 4529 015f 50       		.byte	0x50
 4530 0160 00000000 		.4byte	0
 4531 0164 00000000 		.4byte	0
 4532              	.LLST31:
 4533 0168 38000000 		.4byte	.LVL58
 4534 016c 3A000000 		.4byte	.LVL59
 4535 0170 0100     		.2byte	0x1
 4536 0172 52       		.byte	0x52
 4537 0173 00000000 		.4byte	0
 4538 0177 00000000 		.4byte	0
 4539              	.LLST16:
 4540 017b 00000000 		.4byte	.LVL34
 4541 017f 1A000000 		.4byte	.LVL37
 4542 0183 0100     		.2byte	0x1
 4543 0185 50       		.byte	0x50
 4544 0186 1A000000 		.4byte	.LVL37
 4545 018a 3B000000 		.4byte	.LVL42-1
 4546 018e 0100     		.2byte	0x1
 4547 0190 53       		.byte	0x53
 4548 0191 3B000000 		.4byte	.LVL42-1
 4549 0195 48000000 		.4byte	.LVL45
 4550 0199 0400     		.2byte	0x4
 4551 019b F3       		.byte	0xf3
 4552 019c 01       		.uleb128 0x1
 4553 019d 50       		.byte	0x50
 4554 019e 9F       		.byte	0x9f
 4555 019f 48000000 		.4byte	.LVL45
 4556 01a3 64000000 		.4byte	.LFE295
 4557 01a7 0100     		.2byte	0x1
 4558 01a9 53       		.byte	0x53
 4559 01aa 00000000 		.4byte	0
 4560 01ae 00000000 		.4byte	0
ARM GAS  /tmp/ccWkTx1E.s 			page 81


 4561              	.LLST17:
 4562 01b2 22000000 		.4byte	.LVL38
 4563 01b6 26000000 		.4byte	.LVL39
 4564 01ba 0100     		.2byte	0x1
 4565 01bc 52       		.byte	0x52
 4566 01bd 48000000 		.4byte	.LVL45
 4567 01c1 5A000000 		.4byte	.LVL49
 4568 01c5 0100     		.2byte	0x1
 4569 01c7 52       		.byte	0x52
 4570 01c8 00000000 		.4byte	0
 4571 01cc 00000000 		.4byte	0
 4572              	.LLST19:
 4573 01d0 22000000 		.4byte	.LVL38
 4574 01d4 3B000000 		.4byte	.LVL42-1
 4575 01d8 0100     		.2byte	0x1
 4576 01da 51       		.byte	0x51
 4577 01db 48000000 		.4byte	.LVL45
 4578 01df 5A000000 		.4byte	.LVL49
 4579 01e3 0100     		.2byte	0x1
 4580 01e5 51       		.byte	0x51
 4581 01e6 00000000 		.4byte	0
 4582 01ea 00000000 		.4byte	0
 4583              	.LLST20:
 4584 01ee 2A000000 		.4byte	.LVL40
 4585 01f2 30000000 		.4byte	.LVL41
 4586 01f6 0100     		.2byte	0x1
 4587 01f8 53       		.byte	0x53
 4588 01f9 00000000 		.4byte	0
 4589 01fd 00000000 		.4byte	0
 4590              	.LLST21:
 4591 0201 2A000000 		.4byte	.LVL40
 4592 0205 30000000 		.4byte	.LVL41
 4593 0209 0100     		.2byte	0x1
 4594 020b 50       		.byte	0x50
 4595 020c 00000000 		.4byte	0
 4596 0210 00000000 		.4byte	0
 4597              	.LLST22:
 4598 0214 48000000 		.4byte	.LVL45
 4599 0218 4A000000 		.4byte	.LVL46
 4600 021c 0100     		.2byte	0x1
 4601 021e 52       		.byte	0x52
 4602 021f 00000000 		.4byte	0
 4603 0223 00000000 		.4byte	0
 4604              	.LLST18:
 4605 0227 06000000 		.4byte	.LVL35
 4606 022b 0E000000 		.4byte	.LVL36
 4607 022f 0300     		.2byte	0x3
 4608 0231 08       		.byte	0x8
 4609 0232 20       		.byte	0x20
 4610 0233 9F       		.byte	0x9f
 4611 0234 00000000 		.4byte	0
 4612 0238 00000000 		.4byte	0
 4613              	.LLST24:
 4614 023c 40000000 		.4byte	.LVL43
 4615 0240 46000000 		.4byte	.LVL44
 4616 0244 0200     		.2byte	0x2
 4617 0246 30       		.byte	0x30
ARM GAS  /tmp/ccWkTx1E.s 			page 82


 4618 0247 9F       		.byte	0x9f
 4619 0248 00000000 		.4byte	0
 4620 024c 00000000 		.4byte	0
 4621              	.LLST13:
 4622 0250 00000000 		.4byte	.LVL30
 4623 0254 0B000000 		.4byte	.LVL32-1
 4624 0258 0100     		.2byte	0x1
 4625 025a 50       		.byte	0x50
 4626 025b 0B000000 		.4byte	.LVL32-1
 4627 025f 14000000 		.4byte	.LFE293
 4628 0263 0400     		.2byte	0x4
 4629 0265 F3       		.byte	0xf3
 4630 0266 01       		.uleb128 0x1
 4631 0267 50       		.byte	0x50
 4632 0268 9F       		.byte	0x9f
 4633 0269 00000000 		.4byte	0
 4634 026d 00000000 		.4byte	0
 4635              	.LLST14:
 4636 0271 00000000 		.4byte	.LVL30
 4637 0275 08000000 		.4byte	.LVL31
 4638 0279 0300     		.2byte	0x3
 4639 027b 08       		.byte	0x8
 4640 027c 20       		.byte	0x20
 4641 027d 9F       		.byte	0x9f
 4642 027e 00000000 		.4byte	0
 4643 0282 00000000 		.4byte	0
 4644              	.LLST15:
 4645 0286 0C000000 		.4byte	.LVL32
 4646 028a 12000000 		.4byte	.LVL33
 4647 028e 0200     		.2byte	0x2
 4648 0290 30       		.byte	0x30
 4649 0291 9F       		.byte	0x9f
 4650 0292 00000000 		.4byte	0
 4651 0296 00000000 		.4byte	0
 4652              	.LLST2:
 4653 029a 00000000 		.4byte	.LVL5
 4654 029e 1A000000 		.4byte	.LVL7
 4655 02a2 0100     		.2byte	0x1
 4656 02a4 50       		.byte	0x50
 4657 02a5 1A000000 		.4byte	.LVL7
 4658 02a9 7C000000 		.4byte	.LVL18
 4659 02ad 0100     		.2byte	0x1
 4660 02af 55       		.byte	0x55
 4661 02b0 7C000000 		.4byte	.LVL18
 4662 02b4 7F000000 		.4byte	.LVL19-1
 4663 02b8 0100     		.2byte	0x1
 4664 02ba 51       		.byte	0x51
 4665 02bb 7F000000 		.4byte	.LVL19-1
 4666 02bf 80000000 		.4byte	.LVL19
 4667 02c3 0400     		.2byte	0x4
 4668 02c5 F3       		.byte	0xf3
 4669 02c6 01       		.uleb128 0x1
 4670 02c7 50       		.byte	0x50
 4671 02c8 9F       		.byte	0x9f
 4672 02c9 80000000 		.4byte	.LVL19
 4673 02cd 94000000 		.4byte	.LFE292
 4674 02d1 0100     		.2byte	0x1
ARM GAS  /tmp/ccWkTx1E.s 			page 83


 4675 02d3 50       		.byte	0x50
 4676 02d4 00000000 		.4byte	0
 4677 02d8 00000000 		.4byte	0
 4678              	.LLST3:
 4679 02dc 08000000 		.4byte	.LVL6
 4680 02e0 7C000000 		.4byte	.LVL18
 4681 02e4 0100     		.2byte	0x1
 4682 02e6 56       		.byte	0x56
 4683 02e7 80000000 		.4byte	.LVL19
 4684 02eb 90000000 		.4byte	.LVL20
 4685 02ef 0100     		.2byte	0x1
 4686 02f1 56       		.byte	0x56
 4687 02f2 00000000 		.4byte	0
 4688 02f6 00000000 		.4byte	0
 4689              	.LLST4:
 4690 02fa 1A000000 		.4byte	.LVL7
 4691 02fe 7C000000 		.4byte	.LVL18
 4692 0302 0100     		.2byte	0x1
 4693 0304 54       		.byte	0x54
 4694 0305 00000000 		.4byte	0
 4695 0309 00000000 		.4byte	0
 4696              	.LLST5:
 4697 030d 1A000000 		.4byte	.LVL7
 4698 0311 24000000 		.4byte	.LVL8
 4699 0315 0100     		.2byte	0x1
 4700 0317 54       		.byte	0x54
 4701 0318 00000000 		.4byte	0
 4702 031c 00000000 		.4byte	0
 4703              	.LLST6:
 4704 0320 48000000 		.4byte	.LVL11
 4705 0324 54000000 		.4byte	.LVL12
 4706 0328 0100     		.2byte	0x1
 4707 032a 54       		.byte	0x54
 4708 032b 00000000 		.4byte	0
 4709 032f 00000000 		.4byte	0
 4710              	.LLST7:
 4711 0333 5A000000 		.4byte	.LVL14
 4712 0337 64000000 		.4byte	.LVL15
 4713 033b 0100     		.2byte	0x1
 4714 033d 54       		.byte	0x54
 4715 033e 00000000 		.4byte	0
 4716 0342 00000000 		.4byte	0
 4717              	.LLST8:
 4718 0346 00000000 		.4byte	.LVL21
 4719 034a 0B000000 		.4byte	.LVL23-1
 4720 034e 0100     		.2byte	0x1
 4721 0350 50       		.byte	0x50
 4722 0351 0B000000 		.4byte	.LVL23-1
 4723 0355 14000000 		.4byte	.LFE291
 4724 0359 0400     		.2byte	0x4
 4725 035b F3       		.byte	0xf3
 4726 035c 01       		.uleb128 0x1
 4727 035d 50       		.byte	0x50
 4728 035e 9F       		.byte	0x9f
 4729 035f 00000000 		.4byte	0
 4730 0363 00000000 		.4byte	0
 4731              	.LLST9:
ARM GAS  /tmp/ccWkTx1E.s 			page 84


 4732 0367 00000000 		.4byte	.LVL21
 4733 036b 08000000 		.4byte	.LVL22
 4734 036f 0300     		.2byte	0x3
 4735 0371 08       		.byte	0x8
 4736 0372 20       		.byte	0x20
 4737 0373 9F       		.byte	0x9f
 4738 0374 00000000 		.4byte	0
 4739 0378 00000000 		.4byte	0
 4740              	.LLST10:
 4741 037c 0C000000 		.4byte	.LVL23
 4742 0380 12000000 		.4byte	.LVL24
 4743 0384 0200     		.2byte	0x2
 4744 0386 30       		.byte	0x30
 4745 0387 9F       		.byte	0x9f
 4746 0388 00000000 		.4byte	0
 4747 038c 00000000 		.4byte	0
 4748              	.LLST1:
 4749 0390 00000000 		.4byte	.LVL3
 4750 0394 06000000 		.4byte	.LVL4
 4751 0398 0100     		.2byte	0x1
 4752 039a 50       		.byte	0x50
 4753 039b 00000000 		.4byte	0
 4754 039f 00000000 		.4byte	0
 4755              	.LLST0:
 4756 03a3 00000000 		.4byte	.LVL0
 4757 03a7 04000000 		.4byte	.LVL1
 4758 03ab 0100     		.2byte	0x1
 4759 03ad 51       		.byte	0x51
 4760 03ae 04000000 		.4byte	.LVL1
 4761 03b2 20000000 		.4byte	.LFE172
 4762 03b6 0100     		.2byte	0x1
 4763 03b8 53       		.byte	0x53
 4764 03b9 00000000 		.4byte	0
 4765 03bd 00000000 		.4byte	0
 4766              	.LLST11:
 4767 03c1 00000000 		.4byte	.LVL25
 4768 03c5 14000000 		.4byte	.LVL26
 4769 03c9 0100     		.2byte	0x1
 4770 03cb 50       		.byte	0x50
 4771 03cc 14000000 		.4byte	.LVL26
 4772 03d0 16000000 		.4byte	.LVL27
 4773 03d4 0400     		.2byte	0x4
 4774 03d6 F3       		.byte	0xf3
 4775 03d7 01       		.uleb128 0x1
 4776 03d8 50       		.byte	0x50
 4777 03d9 9F       		.byte	0x9f
 4778 03da 16000000 		.4byte	.LVL27
 4779 03de 2A000000 		.4byte	.LVL29
 4780 03e2 0100     		.2byte	0x1
 4781 03e4 50       		.byte	0x50
 4782 03e5 2A000000 		.4byte	.LVL29
 4783 03e9 30000000 		.4byte	.LFE294
 4784 03ed 0400     		.2byte	0x4
 4785 03ef F3       		.byte	0xf3
 4786 03f0 01       		.uleb128 0x1
 4787 03f1 50       		.byte	0x50
 4788 03f2 9F       		.byte	0x9f
ARM GAS  /tmp/ccWkTx1E.s 			page 85


 4789 03f3 00000000 		.4byte	0
 4790 03f7 00000000 		.4byte	0
 4791              	.LLST12:
 4792 03fb 16000000 		.4byte	.LVL27
 4793 03ff 28000000 		.4byte	.LVL28
 4794 0403 0100     		.2byte	0x1
 4795 0405 50       		.byte	0x50
 4796 0406 00000000 		.4byte	0
 4797 040a 00000000 		.4byte	0
 4798              		.section	.debug_aranges,"",%progbits
 4799 0000 64000000 		.4byte	0x64
 4800 0004 0200     		.2byte	0x2
 4801 0006 00000000 		.4byte	.Ldebug_info0
 4802 000a 04       		.byte	0x4
 4803 000b 00       		.byte	0
 4804 000c 0000     		.2byte	0
 4805 000e 0000     		.2byte	0
 4806 0010 00000000 		.4byte	.LFB172
 4807 0014 20000000 		.4byte	.LFE172-.LFB172
 4808 0018 00000000 		.4byte	.LFB290
 4809 001c 0C000000 		.4byte	.LFE290-.LFB290
 4810 0020 00000000 		.4byte	.LFB292
 4811 0024 94000000 		.4byte	.LFE292-.LFB292
 4812 0028 00000000 		.4byte	.LFB291
 4813 002c 14000000 		.4byte	.LFE291-.LFB291
 4814 0030 00000000 		.4byte	.LFB294
 4815 0034 30000000 		.4byte	.LFE294-.LFB294
 4816 0038 00000000 		.4byte	.LFB293
 4817 003c 14000000 		.4byte	.LFE293-.LFB293
 4818 0040 00000000 		.4byte	.LFB295
 4819 0044 64000000 		.4byte	.LFE295-.LFB295
 4820 0048 00000000 		.4byte	.LFB296
 4821 004c 54000000 		.4byte	.LFE296-.LFB296
 4822 0050 00000000 		.4byte	.LFB297
 4823 0054 40000000 		.4byte	.LFE297-.LFB297
 4824 0058 00000000 		.4byte	.LFB298
 4825 005c 54000000 		.4byte	.LFE298-.LFB298
 4826 0060 00000000 		.4byte	0
 4827 0064 00000000 		.4byte	0
 4828              		.section	.debug_ranges,"",%progbits
 4829              	.Ldebug_ranges0:
 4830 0000 1A000000 		.4byte	.LBB105
 4831 0004 78000000 		.4byte	.LBE105
 4832 0008 7C000000 		.4byte	.LBB114
 4833 000c 80000000 		.4byte	.LBE114
 4834 0010 00000000 		.4byte	0
 4835 0014 00000000 		.4byte	0
 4836 0018 48000000 		.4byte	.LBB108
 4837 001c 50000000 		.4byte	.LBE108
 4838 0020 52000000 		.4byte	.LBB111
 4839 0024 54000000 		.4byte	.LBE111
 4840 0028 00000000 		.4byte	0
 4841 002c 00000000 		.4byte	0
 4842 0030 20000000 		.4byte	.LBB145
 4843 0034 40000000 		.4byte	.LBE145
 4844 0038 48000000 		.4byte	.LBB157
 4845 003c 5A000000 		.4byte	.LBE157
ARM GAS  /tmp/ccWkTx1E.s 			page 86


 4846 0040 00000000 		.4byte	0
 4847 0044 00000000 		.4byte	0
 4848 0048 1A000000 		.4byte	.LBB162
 4849 004c 30000000 		.4byte	.LBE162
 4850 0050 32000000 		.4byte	.LBB169
 4851 0054 4A000000 		.4byte	.LBE169
 4852 0058 00000000 		.4byte	0
 4853 005c 00000000 		.4byte	0
 4854 0060 06000000 		.4byte	.LBB170
 4855 0064 0A000000 		.4byte	.LBE170
 4856 0068 14000000 		.4byte	.LBB181
 4857 006c 40000000 		.4byte	.LBE181
 4858 0070 00000000 		.4byte	0
 4859 0074 00000000 		.4byte	0
 4860 0078 08000000 		.4byte	.LBB171
 4861 007c 0A000000 		.4byte	.LBE171
 4862 0080 1E000000 		.4byte	.LBB180
 4863 0084 32000000 		.4byte	.LBE180
 4864 0088 00000000 		.4byte	0
 4865 008c 00000000 		.4byte	0
 4866 0090 1E000000 		.4byte	.LBB172
 4867 0094 22000000 		.4byte	.LBE172
 4868 0098 24000000 		.4byte	.LBB175
 4869 009c 26000000 		.4byte	.LBE175
 4870 00a0 00000000 		.4byte	0
 4871 00a4 00000000 		.4byte	0
 4872 00a8 10000000 		.4byte	.LBB186
 4873 00ac 34000000 		.4byte	.LBE186
 4874 00b0 4A000000 		.4byte	.LBB202
 4875 00b4 54000000 		.4byte	.LBE202
 4876 00b8 00000000 		.4byte	0
 4877 00bc 00000000 		.4byte	0
 4878 00c0 10000000 		.4byte	.LBB187
 4879 00c4 12000000 		.4byte	.LBE187
 4880 00c8 20000000 		.4byte	.LBB196
 4881 00cc 34000000 		.4byte	.LBE196
 4882 00d0 00000000 		.4byte	0
 4883 00d4 00000000 		.4byte	0
 4884 00d8 20000000 		.4byte	.LBB188
 4885 00dc 24000000 		.4byte	.LBE188
 4886 00e0 26000000 		.4byte	.LBB191
 4887 00e4 28000000 		.4byte	.LBE191
 4888 00e8 00000000 		.4byte	0
 4889 00ec 00000000 		.4byte	0
 4890 00f0 00000000 		.4byte	.LFB172
 4891 00f4 20000000 		.4byte	.LFE172
 4892 00f8 00000000 		.4byte	.LFB290
 4893 00fc 0C000000 		.4byte	.LFE290
 4894 0100 00000000 		.4byte	.LFB292
 4895 0104 94000000 		.4byte	.LFE292
 4896 0108 00000000 		.4byte	.LFB291
 4897 010c 14000000 		.4byte	.LFE291
 4898 0110 00000000 		.4byte	.LFB294
 4899 0114 30000000 		.4byte	.LFE294
 4900 0118 00000000 		.4byte	.LFB293
 4901 011c 14000000 		.4byte	.LFE293
 4902 0120 00000000 		.4byte	.LFB295
ARM GAS  /tmp/ccWkTx1E.s 			page 87


 4903 0124 64000000 		.4byte	.LFE295
 4904 0128 00000000 		.4byte	.LFB296
 4905 012c 54000000 		.4byte	.LFE296
 4906 0130 00000000 		.4byte	.LFB297
 4907 0134 40000000 		.4byte	.LFE297
 4908 0138 00000000 		.4byte	.LFB298
 4909 013c 54000000 		.4byte	.LFE298
 4910 0140 00000000 		.4byte	0
 4911 0144 00000000 		.4byte	0
 4912              		.section	.debug_line,"",%progbits
 4913              	.Ldebug_line0:
 4914 0000 D1050000 		.section	.debug_str,"MS",%progbits,1
 4914      02004B03 
 4914      00000201 
 4914      FB0E0D00 
 4914      01010101 
 4915              	.LASF54:
 4916 0000 72656164 		.ascii	"ready_list_t\000"
 4916      795F6C69 
 4916      73745F74 
 4916      00
 4917              	.LASF4:
 4918 000d 73697A65 		.ascii	"size_t\000"
 4918      5F7400
 4919              	.LASF60:
 4920 0014 64656C74 		.ascii	"delta\000"
 4920      6100
 4921              	.LASF86:
 4922 001a 7264796D 		.ascii	"rdymsg\000"
 4922      736700
 4923              	.LASF20:
 4924 0021 75696E74 		.ascii	"uint64_t\000"
 4924      36345F74 
 4924      00
 4925              	.LASF5:
 4926 002a 5F5F7569 		.ascii	"__uint8_t\000"
 4926      6E74385F 
 4926      7400
 4927              	.LASF53:
 4928 0034 70726576 		.ascii	"prev\000"
 4928      00
 4929              	.LASF83:
 4930 0039 706F7274 		.ascii	"port_intctx\000"
 4930      5F696E74 
 4930      63747800 
 4931              	.LASF65:
 4932 0045 73797374 		.ascii	"system_debug_t\000"
 4932      656D5F64 
 4932      65627567 
 4932      5F7400
 4933              	.LASF129:
 4934 0054 70726F76 		.ascii	"provider\000"
 4934      69646572 
 4934      00
 4935              	.LASF160:
 4936 005d 71756575 		.ascii	"queue_init\000"
 4936      655F696E 
ARM GAS  /tmp/ccWkTx1E.s 			page 88


 4936      697400
 4937              	.LASF139:
 4938 0068 73656D5F 		.ascii	"sem_list\000"
 4938      6C697374 
 4938      00
 4939              	.LASF163:
 4940 0071 706F7274 		.ascii	"port_lock\000"
 4940      5F6C6F63 
 4940      6B00
 4941              	.LASF121:
 4942 007b 6D656D67 		.ascii	"memgetfunc_t\000"
 4942      65746675 
 4942      6E635F74 
 4942      00
 4943              	.LASF15:
 4944 0088 6C6F6E67 		.ascii	"long long unsigned int\000"
 4944      206C6F6E 
 4944      6720756E 
 4944      7369676E 
 4944      65642069 
 4945              	.LASF87:
 4946 009f 65786974 		.ascii	"exitcode\000"
 4946      636F6465 
 4946      00
 4947              	.LASF72:
 4948 00a8 6D61696E 		.ascii	"mainthread\000"
 4948      74687265 
 4948      616400
 4949              	.LASF90:
 4950 00b3 73656E74 		.ascii	"sentmsg\000"
 4950      6D736700 
 4951              	.LASF62:
 4952 00bb 76697274 		.ascii	"virtual_timers_list_t\000"
 4952      75616C5F 
 4952      74696D65 
 4952      72735F6C 
 4952      6973745F 
 4953              	.LASF76:
 4954 00d1 49544D5F 		.ascii	"ITM_RxBuffer\000"
 4954      52784275 
 4954      66666572 
 4954      00
 4955              	.LASF132:
 4956 00de 64796E5F 		.ascii	"dyn_element_t\000"
 4956      656C656D 
 4956      656E745F 
 4956      7400
 4957              	.LASF50:
 4958 00ec 6E657874 		.ascii	"next\000"
 4958      00
 4959              	.LASF52:
 4960 00f1 63685F74 		.ascii	"ch_threads_queue\000"
 4960      68726561 
 4960      64735F71 
 4960      75657565 
 4960      00
 4961              	.LASF119:
ARM GAS  /tmp/ccWkTx1E.s 			page 89


 4962 0102 6D757465 		.ascii	"mutex_t\000"
 4962      785F7400 
 4963              	.LASF149:
 4964 010a 63684D74 		.ascii	"chMtxUnlock\000"
 4964      78556E6C 
 4964      6F636B00 
 4965              	.LASF3:
 4966 0116 7369676E 		.ascii	"signed char\000"
 4966      65642063 
 4966      68617200 
 4967              	.LASF101:
 4968 0122 73697A65 		.ascii	"size\000"
 4968      00
 4969              	.LASF169:
 4970 0127 474E5520 		.ascii	"GNU C11 6.3.1 20170620 (release) [ARM/embedded-6-br"
 4970      43313120 
 4970      362E332E 
 4970      31203230 
 4970      31373036 
 4971 015a 616E6368 		.ascii	"anch revision 249437] -mcpu=cortex-m4 -mfloat-abi=h"
 4971      20726576 
 4971      6973696F 
 4971      6E203234 
 4971      39343337 
 4972 018d 61726420 		.ascii	"ard -mfpu=fpv4-sp-d16 -mno-thumb-interwork -mthumb "
 4972      2D6D6670 
 4972      753D6670 
 4972      76342D73 
 4972      702D6431 
 4973 01c0 2D67202D 		.ascii	"-g -Os -fomit-frame-pointer -falign-functions=16 -f"
 4973      4F73202D 
 4973      666F6D69 
 4973      742D6672 
 4973      616D652D 
 4974 01f3 66756E63 		.ascii	"function-sections -fdata-sections -fno-common -fsin"
 4974      74696F6E 
 4974      2D736563 
 4974      74696F6E 
 4974      73202D66 
 4975 0226 676C652D 		.ascii	"gle-precision-constant\000"
 4975      70726563 
 4975      6973696F 
 4975      6E2D636F 
 4975      6E737461 
 4976              	.LASF165:
 4977 023d 62617365 		.ascii	"basePri\000"
 4977      50726900 
 4978              	.LASF71:
 4979 0245 76746C69 		.ascii	"vtlist\000"
 4979      737400
 4980              	.LASF162:
 4981 024c 706F7274 		.ascii	"port_unlock\000"
 4981      5F756E6C 
 4981      6F636B00 
 4982              	.LASF41:
 4983 0258 6D736771 		.ascii	"msgqueue\000"
 4983      75657565 
ARM GAS  /tmp/ccWkTx1E.s 			page 90


 4983      00
 4984              	.LASF37:
 4985 0261 73746174 		.ascii	"state\000"
 4985      6500
 4986              	.LASF11:
 4987 0267 6C6F6E67 		.ascii	"long int\000"
 4987      20696E74 
 4987      00
 4988              	.LASF157:
 4989 0270 71756575 		.ascii	"queue_dequeue\000"
 4989      655F6465 
 4989      71756575 
 4989      6500
 4990              	.LASF23:
 4991 027e 74737461 		.ascii	"tstate_t\000"
 4991      74655F74 
 4991      00
 4992              	.LASF159:
 4993 0287 71756575 		.ascii	"queue_notempty\000"
 4993      655F6E6F 
 4993      74656D70 
 4993      747900
 4994              	.LASF146:
 4995 0296 63684D74 		.ascii	"chMtxUnlockAllS\000"
 4995      78556E6C 
 4995      6F636B41 
 4995      6C6C5300 
 4996              	.LASF61:
 4997 02a6 66756E63 		.ascii	"func\000"
 4997      00
 4998              	.LASF117:
 4999 02ab 63686465 		.ascii	"chdebug_t\000"
 4999      6275675F 
 4999      7400
 5000              	.LASF115:
 5001 02b5 6F66665F 		.ascii	"off_preempt\000"
 5001      70726565 
 5001      6D707400 
 5002              	.LASF167:
 5003 02c1 63685363 		.ascii	"chSchRescheduleS\000"
 5003      68526573 
 5003      63686564 
 5003      756C6553 
 5003      00
 5004              	.LASF12:
 5005 02d2 5F5F7569 		.ascii	"__uint32_t\000"
 5005      6E743332 
 5005      5F7400
 5006              	.LASF80:
 5007 02dd 72656761 		.ascii	"regarm_t\000"
 5007      726D5F74 
 5007      00
 5008              	.LASF84:
 5009 02e6 6F666673 		.ascii	"offset\000"
 5009      657400
 5010              	.LASF141:
 5011 02ed 6D62785F 		.ascii	"mbx_list\000"
ARM GAS  /tmp/ccWkTx1E.s 			page 91


 5011      6C697374 
 5011      00
 5012              	.LASF66:
 5013 02f6 63685F73 		.ascii	"ch_system_debug\000"
 5013      79737465 
 5013      6D5F6465 
 5013      62756700 
 5014              	.LASF40:
 5015 0306 77616974 		.ascii	"waiting\000"
 5015      696E6700 
 5016              	.LASF70:
 5017 030e 726C6973 		.ascii	"rlist\000"
 5017      7400
 5018              	.LASF100:
 5019 0314 7A65726F 		.ascii	"zero\000"
 5019      00
 5020              	.LASF1:
 5021 0319 6C6F6E67 		.ascii	"long long int\000"
 5021      206C6F6E 
 5021      6720696E 
 5021      7400
 5022              	.LASF128:
 5023 0327 616C6967 		.ascii	"align\000"
 5023      6E00
 5024              	.LASF74:
 5025 032d 73797369 		.ascii	"sysinterval_t\000"
 5025      6E746572 
 5025      76616C5F 
 5025      7400
 5026              	.LASF28:
 5027 033b 636E745F 		.ascii	"cnt_t\000"
 5027      7400
 5028              	.LASF147:
 5029 0341 63684D74 		.ascii	"chMtxUnlockS\000"
 5029      78556E6C 
 5029      6F636B53 
 5029      00
 5030              	.LASF0:
 5031 034e 756E7369 		.ascii	"unsigned int\000"
 5031      676E6564 
 5031      20696E74 
 5031      00
 5032              	.LASF17:
 5033 035b 75696E74 		.ascii	"uint16_t\000"
 5033      31365F74 
 5033      00
 5034              	.LASF77:
 5035 0364 53797374 		.ascii	"SystemCoreClock\000"
 5035      656D436F 
 5035      7265436C 
 5035      6F636B00 
 5036              	.LASF91:
 5037 0374 77747365 		.ascii	"wtsemp\000"
 5037      6D7000
 5038              	.LASF89:
 5039 037b 77747472 		.ascii	"wttrp\000"
 5039      7000
ARM GAS  /tmp/ccWkTx1E.s 			page 92


 5040              	.LASF118:
 5041 0381 63685F64 		.ascii	"ch_debug\000"
 5041      65627567 
 5041      00
 5042              	.LASF130:
 5043 038a 6D656D6F 		.ascii	"memory_pool_t\000"
 5043      72795F70 
 5043      6F6F6C5F 
 5043      7400
 5044              	.LASF35:
 5045 0398 6E616D65 		.ascii	"name\000"
 5045      00
 5046              	.LASF31:
 5047 039d 71756575 		.ascii	"queue\000"
 5047      6500
 5048              	.LASF45:
 5049 03a3 6D706F6F 		.ascii	"mpool\000"
 5049      6C00
 5050              	.LASF114:
 5051 03a9 6F66665F 		.ascii	"off_refs\000"
 5051      72656673 
 5051      00
 5052              	.LASF138:
 5053 03b2 6275665F 		.ascii	"buf_list\000"
 5053      6C697374 
 5053      00
 5054              	.LASF48:
 5055 03bb 63685F74 		.ascii	"ch_thread\000"
 5055      68726561 
 5055      6400
 5056              	.LASF26:
 5057 03c5 6D73675F 		.ascii	"msg_t\000"
 5057      7400
 5058              	.LASF29:
 5059 03cb 75636E74 		.ascii	"ucnt_t\000"
 5059      5F7400
 5060              	.LASF42:
 5061 03d2 6570656E 		.ascii	"epending\000"
 5061      64696E67 
 5061      00
 5062              	.LASF134:
 5063 03db 64796E5F 		.ascii	"dyn_list_t\000"
 5063      6C697374 
 5063      5F7400
 5064              	.LASF68:
 5065 03e6 63685F73 		.ascii	"ch_system_t\000"
 5065      79737465 
 5065      6D5F7400 
 5066              	.LASF145:
 5067 03f2 63684D74 		.ascii	"chMtxUnlockAll\000"
 5067      78556E6C 
 5067      6F636B41 
 5067      6C6C00
 5068              	.LASF107:
 5069 0401 6F66665F 		.ascii	"off_ctx\000"
 5069      63747800 
 5070              	.LASF148:
ARM GAS  /tmp/ccWkTx1E.s 			page 93


 5071 0409 6E657770 		.ascii	"newprio\000"
 5071      72696F00 
 5072              	.LASF22:
 5073 0411 746D6F64 		.ascii	"tmode_t\000"
 5073      655F7400 
 5074              	.LASF55:
 5075 0419 63685F72 		.ascii	"ch_ready_list\000"
 5075      65616479 
 5075      5F6C6973 
 5075      7400
 5076              	.LASF27:
 5077 0427 6576656E 		.ascii	"eventmask_t\000"
 5077      746D6173 
 5077      6B5F7400 
 5078              	.LASF78:
 5079 0433 41484250 		.ascii	"AHBPrescTable\000"
 5079      72657363 
 5079      5461626C 
 5079      6500
 5080              	.LASF123:
 5081 0441 656E646D 		.ascii	"endmem\000"
 5081      656D00
 5082              	.LASF10:
 5083 0448 5F5F696E 		.ascii	"__int32_t\000"
 5083      7433325F 
 5083      7400
 5084              	.LASF81:
 5085 0452 73746B61 		.ascii	"stkalign_t\000"
 5085      6C69676E 
 5085      5F7400
 5086              	.LASF33:
 5087 045d 6E657765 		.ascii	"newer\000"
 5087      7200
 5088              	.LASF44:
 5089 0463 7265616C 		.ascii	"realprio\000"
 5089      7072696F 
 5089      00
 5090              	.LASF102:
 5091 046c 76657273 		.ascii	"version\000"
 5091      696F6E00 
 5092              	.LASF75:
 5093 0474 73697A65 		.ascii	"sizetype\000"
 5093      74797065 
 5093      00
 5094              	.LASF46:
 5095 047d 74687265 		.ascii	"thread_reference_t\000"
 5095      61645F72 
 5095      65666572 
 5095      656E6365 
 5095      5F7400
 5096              	.LASF63:
 5097 0490 63685F76 		.ascii	"ch_virtual_timers_list\000"
 5097      69727475 
 5097      616C5F74 
 5097      696D6572 
 5097      735F6C69 
 5098              	.LASF2:
ARM GAS  /tmp/ccWkTx1E.s 			page 94


 5099 04a7 6C6F6E67 		.ascii	"long double\000"
 5099      20646F75 
 5099      626C6500 
 5100              	.LASF164:
 5101 04b3 5F5F7365 		.ascii	"__set_BASEPRI\000"
 5101      745F4241 
 5101      53455052 
 5101      4900
 5102              	.LASF133:
 5103 04c1 63685F64 		.ascii	"ch_dyn_list\000"
 5103      796E5F6C 
 5103      69737400 
 5104              	.LASF108:
 5105 04cd 6F66665F 		.ascii	"off_newer\000"
 5105      6E657765 
 5105      7200
 5106              	.LASF79:
 5107 04d7 41504250 		.ascii	"APBPrescTable\000"
 5107      72657363 
 5107      5461626C 
 5107      6500
 5108              	.LASF152:
 5109 04e5 63684D74 		.ascii	"chMtxLock\000"
 5109      784C6F63 
 5109      6B00
 5110              	.LASF153:
 5111 04ef 63684D74 		.ascii	"chMtxObjectInit\000"
 5111      784F626A 
 5111      65637449 
 5111      6E697400 
 5112              	.LASF82:
 5113 04ff 706F7274 		.ascii	"port_context\000"
 5113      5F636F6E 
 5113      74657874 
 5113      00
 5114              	.LASF85:
 5115 050c 746D5F63 		.ascii	"tm_calibration_t\000"
 5115      616C6962 
 5115      72617469 
 5115      6F6E5F74 
 5115      00
 5116              	.LASF32:
 5117 051d 7072696F 		.ascii	"prio\000"
 5117      00
 5118              	.LASF140:
 5119 0522 73656D5F 		.ascii	"sem_pool\000"
 5119      706F6F6C 
 5119      00
 5120              	.LASF56:
 5121 052b 63757272 		.ascii	"current\000"
 5121      656E7400 
 5122              	.LASF14:
 5123 0533 5F5F7569 		.ascii	"__uint64_t\000"
 5123      6E743634 
 5123      5F7400
 5124              	.LASF124:
 5125 053e 6D656D63 		.ascii	"memcore_t\000"
ARM GAS  /tmp/ccWkTx1E.s 			page 95


 5125      6F72655F 
 5125      7400
 5126              	.LASF24:
 5127 0548 74726566 		.ascii	"trefs_t\000"
 5127      735F7400 
 5128              	.LASF39:
 5129 0550 72656673 		.ascii	"refs\000"
 5129      00
 5130              	.LASF58:
 5131 0555 76697274 		.ascii	"virtual_timer_t\000"
 5131      75616C5F 
 5131      74696D65 
 5131      725F7400 
 5132              	.LASF131:
 5133 0565 63685F64 		.ascii	"ch_dyn_element\000"
 5133      796E5F65 
 5133      6C656D65 
 5133      6E7400
 5134              	.LASF25:
 5135 0574 74707269 		.ascii	"tprio_t\000"
 5135      6F5F7400 
 5136              	.LASF168:
 5137 057c 63685363 		.ascii	"chSchGoSleepS\000"
 5137      68476F53 
 5137      6C656570 
 5137      5300
 5138              	.LASF105:
 5139 058a 74687265 		.ascii	"threadsize\000"
 5139      61647369 
 5139      7A6500
 5140              	.LASF120:
 5141 0595 5F426F6F 		.ascii	"_Bool\000"
 5141      6C00
 5142              	.LASF18:
 5143 059b 696E7433 		.ascii	"int32_t\000"
 5143      325F7400 
 5144              	.LASF6:
 5145 05a3 756E7369 		.ascii	"unsigned char\000"
 5145      676E6564 
 5145      20636861 
 5145      7200
 5146              	.LASF106:
 5147 05b1 6F66665F 		.ascii	"off_prio\000"
 5147      7072696F 
 5147      00
 5148              	.LASF111:
 5149 05ba 6F66665F 		.ascii	"off_stklimit\000"
 5149      73746B6C 
 5149      696D6974 
 5149      00
 5150              	.LASF7:
 5151 05c7 73686F72 		.ascii	"short int\000"
 5151      7420696E 
 5151      7400
 5152              	.LASF64:
 5153 05d1 6C617374 		.ascii	"lasttime\000"
 5153      74696D65 
ARM GAS  /tmp/ccWkTx1E.s 			page 96


 5153      00
 5154              	.LASF93:
 5155 05da 65776D61 		.ascii	"ewmask\000"
 5155      736B00
 5156              	.LASF69:
 5157 05e1 63685F73 		.ascii	"ch_system\000"
 5157      79737465 
 5157      6D00
 5158              	.LASF150:
 5159 05eb 5F5F6675 		.ascii	"__func__\000"
 5159      6E635F5F 
 5159      00
 5160              	.LASF144:
 5161 05f4 63685F66 		.ascii	"ch_factory\000"
 5161      6163746F 
 5161      727900
 5162              	.LASF161:
 5163 05ff 63685379 		.ascii	"chSysLock\000"
 5163      734C6F63 
 5163      6B00
 5164              	.LASF137:
 5165 0609 6F626A5F 		.ascii	"obj_pool\000"
 5165      706F6F6C 
 5165      00
 5166              	.LASF59:
 5167 0612 63685F76 		.ascii	"ch_virtual_timer\000"
 5167      69727475 
 5167      616C5F74 
 5167      696D6572 
 5167      00
 5168              	.LASF172:
 5169 0623 63684D74 		.ascii	"chMtxTryLock\000"
 5169      78547279 
 5169      4C6F636B 
 5169      00
 5170              	.LASF94:
 5171 0630 63685F73 		.ascii	"ch_semaphore\000"
 5171      656D6170 
 5171      686F7265 
 5171      00
 5172              	.LASF116:
 5173 063d 6F66665F 		.ascii	"off_time\000"
 5173      74696D65 
 5173      00
 5174              	.LASF98:
 5175 0646 63685F69 		.ascii	"ch_idle_thread_wa\000"
 5175      646C655F 
 5175      74687265 
 5175      61645F77 
 5175      6100
 5176              	.LASF104:
 5177 0658 74696D65 		.ascii	"timesize\000"
 5177      73697A65 
 5177      00
 5178              	.LASF19:
 5179 0661 75696E74 		.ascii	"uint32_t\000"
 5179      33325F74 
ARM GAS  /tmp/ccWkTx1E.s 			page 97


 5179      00
 5180              	.LASF92:
 5181 066a 77746D74 		.ascii	"wtmtxp\000"
 5181      787000
 5182              	.LASF166:
 5183 0671 63685363 		.ascii	"chSchReadyI\000"
 5183      68526561 
 5183      64794900 
 5184              	.LASF49:
 5185 067d 63685F74 		.ascii	"ch_threads_list\000"
 5185      68726561 
 5185      64735F6C 
 5185      69737400 
 5186              	.LASF96:
 5187 068d 6F776E65 		.ascii	"owner\000"
 5187      7200
 5188              	.LASF13:
 5189 0693 6C6F6E67 		.ascii	"long unsigned int\000"
 5189      20756E73 
 5189      69676E65 
 5189      6420696E 
 5189      7400
 5190              	.LASF36:
 5191 06a5 77616261 		.ascii	"wabase\000"
 5191      736500
 5192              	.LASF97:
 5193 06ac 63686172 		.ascii	"char\000"
 5193      00
 5194              	.LASF34:
 5195 06b1 6F6C6465 		.ascii	"older\000"
 5195      7200
 5196              	.LASF136:
 5197 06b7 6F626A5F 		.ascii	"obj_list\000"
 5197      6C697374 
 5197      00
 5198              	.LASF8:
 5199 06c0 5F5F7569 		.ascii	"__uint16_t\000"
 5199      6E743136 
 5199      5F7400
 5200              	.LASF30:
 5201 06cb 74687265 		.ascii	"thread_t\000"
 5201      61645F74 
 5201      00
 5202              	.LASF125:
 5203 06d4 63685F6D 		.ascii	"ch_memcore\000"
 5203      656D636F 
 5203      726500
 5204              	.LASF158:
 5205 06df 71756575 		.ascii	"queue_fifo_remove\000"
 5205      655F6669 
 5205      666F5F72 
 5205      656D6F76 
 5205      6500
 5206              	.LASF73:
 5207 06f1 73797374 		.ascii	"systime_t\000"
 5207      696D655F 
 5207      7400
ARM GAS  /tmp/ccWkTx1E.s 			page 98


 5208              	.LASF57:
 5209 06fb 76746675 		.ascii	"vtfunc_t\000"
 5209      6E635F74 
 5209      00
 5210              	.LASF156:
 5211 0704 63684D74 		.ascii	"chMtxQueueNotEmptyS\000"
 5211      78517565 
 5211      75654E6F 
 5211      74456D70 
 5211      74795300 
 5212              	.LASF67:
 5213 0718 70616E69 		.ascii	"panic_msg\000"
 5213      635F6D73 
 5213      6700
 5214              	.LASF170:
 5215 0722 2E2E2F2E 		.ascii	"../../modules/ChibiOS/os/rt/src/chmtx.c\000"
 5215      2E2F6D6F 
 5215      64756C65 
 5215      732F4368 
 5215      6962694F 
 5216              	.LASF95:
 5217 074a 63685F6D 		.ascii	"ch_mutex\000"
 5217      75746578 
 5217      00
 5218              	.LASF109:
 5219 0753 6F66665F 		.ascii	"off_older\000"
 5219      6F6C6465 
 5219      7200
 5220              	.LASF9:
 5221 075d 73686F72 		.ascii	"short unsigned int\000"
 5221      7420756E 
 5221      7369676E 
 5221      65642069 
 5221      6E7400
 5222              	.LASF99:
 5223 0770 6964656E 		.ascii	"identifier\000"
 5223      74696669 
 5223      657200
 5224              	.LASF21:
 5225 077b 7274636E 		.ascii	"rtcnt_t\000"
 5225      745F7400 
 5226              	.LASF127:
 5227 0783 6F626A65 		.ascii	"object_size\000"
 5227      63745F73 
 5227      697A6500 
 5228              	.LASF103:
 5229 078f 70747273 		.ascii	"ptrsize\000"
 5229      697A6500 
 5230              	.LASF135:
 5231 0797 63685F6F 		.ascii	"ch_objects_factory\000"
 5231      626A6563 
 5231      74735F66 
 5231      6163746F 
 5231      727900
 5232              	.LASF51:
 5233 07aa 74687265 		.ascii	"threads_queue_t\000"
 5233      6164735F 
ARM GAS  /tmp/ccWkTx1E.s 			page 99


 5233      71756575 
 5233      655F7400 
 5234              	.LASF126:
 5235 07ba 706F6F6C 		.ascii	"pool_header\000"
 5235      5F686561 
 5235      64657200 
 5236              	.LASF110:
 5237 07c6 6F66665F 		.ascii	"off_name\000"
 5237      6E616D65 
 5237      00
 5238              	.LASF16:
 5239 07cf 75696E74 		.ascii	"uint8_t\000"
 5239      385F7400 
 5240              	.LASF154:
 5241 07d7 63684D74 		.ascii	"chMtxTryLockS\000"
 5241      78547279 
 5241      4C6F636B 
 5241      5300
 5242              	.LASF38:
 5243 07e5 666C6167 		.ascii	"flags\000"
 5243      7300
 5244              	.LASF142:
 5245 07eb 6669666F 		.ascii	"fifo_list\000"
 5245      5F6C6973 
 5245      7400
 5246              	.LASF88:
 5247 07f5 77746F62 		.ascii	"wtobjp\000"
 5247      6A7000
 5248              	.LASF47:
 5249 07fc 74687265 		.ascii	"threads_list_t\000"
 5249      6164735F 
 5249      6C697374 
 5249      5F7400
 5250              	.LASF112:
 5251 080b 6F66665F 		.ascii	"off_state\000"
 5251      73746174 
 5251      6500
 5252              	.LASF155:
 5253 0815 63685379 		.ascii	"chSysUnlock\000"
 5253      73556E6C 
 5253      6F636B00 
 5254              	.LASF143:
 5255 0821 6F626A65 		.ascii	"objects_factory_t\000"
 5255      6374735F 
 5255      66616374 
 5255      6F72795F 
 5255      7400
 5256              	.LASF151:
 5257 0833 63684D74 		.ascii	"chMtxLockS\000"
 5257      784C6F63 
 5257      6B5300
 5258              	.LASF173:
 5259 083e 71756575 		.ascii	"queue_prio_insert\000"
 5259      655F7072 
 5259      696F5F69 
 5259      6E736572 
 5259      7400
ARM GAS  /tmp/ccWkTx1E.s 			page 100


 5260              	.LASF113:
 5261 0850 6F66665F 		.ascii	"off_flags\000"
 5261      666C6167 
 5261      7300
 5262              	.LASF43:
 5263 085a 6D74786C 		.ascii	"mtxlist\000"
 5263      69737400 
 5264              	.LASF171:
 5265 0862 2F686F6D 		.ascii	"/home/alex/ArduPilot/ardupilot/build/Pix2.4\000"
 5265      652F616C 
 5265      65782F41 
 5265      72647550 
 5265      696C6F74 
 5266              	.LASF122:
 5267 088e 6E657874 		.ascii	"nextmem\000"
 5267      6D656D00 
 5268              		.ident	"GCC: (GNU Tools for ARM Embedded Processors 6-2017-q2-update) 6.3.1 20170620 (release) [AR
ARM GAS  /tmp/ccWkTx1E.s 			page 101


DEFINED SYMBOLS
                            *ABS*:0000000000000000 chmtx.c
     /tmp/ccWkTx1E.s:18     .text.queue_prio_insert:0000000000000000 $t
     /tmp/ccWkTx1E.s:24     .text.queue_prio_insert:0000000000000000 queue_prio_insert
     /tmp/ccWkTx1E.s:70     .text.chMtxObjectInit:0000000000000000 $t
     /tmp/ccWkTx1E.s:77     .text.chMtxObjectInit:0000000000000000 chMtxObjectInit
     /tmp/ccWkTx1E.s:106    .text.chMtxLockS:0000000000000000 $t
     /tmp/ccWkTx1E.s:113    .text.chMtxLockS:0000000000000000 chMtxLockS
     /tmp/ccWkTx1E.s:270    .text.chMtxLockS:0000000000000090 $d
     /tmp/ccWkTx1E.s:275    .text.chMtxLock:0000000000000000 $t
     /tmp/ccWkTx1E.s:282    .text.chMtxLock:0000000000000000 chMtxLock
     /tmp/ccWkTx1E.s:338    .text.chMtxTryLockS:0000000000000000 $t
     /tmp/ccWkTx1E.s:345    .text.chMtxTryLockS:0000000000000000 chMtxTryLockS
     /tmp/ccWkTx1E.s:399    .text.chMtxTryLockS:000000000000002c $d
     /tmp/ccWkTx1E.s:404    .text.chMtxTryLock:0000000000000000 $t
     /tmp/ccWkTx1E.s:411    .text.chMtxTryLock:0000000000000000 chMtxTryLock
     /tmp/ccWkTx1E.s:467    .text.chMtxUnlock:0000000000000000 $t
     /tmp/ccWkTx1E.s:474    .text.chMtxUnlock:0000000000000000 chMtxUnlock
     /tmp/ccWkTx1E.s:632    .text.chMtxUnlock:0000000000000060 $d
     /tmp/ccWkTx1E.s:637    .text.chMtxUnlockS:0000000000000000 $t
     /tmp/ccWkTx1E.s:644    .text.chMtxUnlockS:0000000000000000 chMtxUnlockS
     /tmp/ccWkTx1E.s:776    .text.chMtxUnlockS:0000000000000050 $d
     /tmp/ccWkTx1E.s:781    .text.chMtxUnlockAllS:0000000000000000 $t
     /tmp/ccWkTx1E.s:788    .text.chMtxUnlockAllS:0000000000000000 chMtxUnlockAllS
     /tmp/ccWkTx1E.s:883    .text.chMtxUnlockAllS:000000000000003c $d
     /tmp/ccWkTx1E.s:889    .text.chMtxUnlockAll:0000000000000000 $t
     /tmp/ccWkTx1E.s:896    .text.chMtxUnlockAll:0000000000000000 chMtxUnlockAll
     /tmp/ccWkTx1E.s:1036   .text.chMtxUnlockAll:0000000000000050 $d
                     .debug_frame:0000000000000010 $d

UNDEFINED SYMBOLS
chSchReadyI
chSchGoSleepS
ch
chSchRescheduleS
