ARM GAS  /tmp/ccWkTx1E.s 			page 1


   1              		.cpu cortex-m4
   2              		.eabi_attribute 27, 1
   3              		.eabi_attribute 28, 1
   4              		.eabi_attribute 20, 1
   5              		.eabi_attribute 21, 1
   6              		.eabi_attribute 23, 3
   7              		.eabi_attribute 24, 1
   8              		.eabi_attribute 25, 1
   9              		.eabi_attribute 26, 1
  10              		.eabi_attribute 30, 4
  11              		.eabi_attribute 34, 1
  12              		.eabi_attribute 18, 4
  13              		.file	"chmtx.c"
  14              		.text
  15              	.Ltext0:
  16              		.cfi_sections	.debug_frame
  17              		.section	.text.queue_prio_insert,"ax",%progbits
  18              		.align	1
  19              		.syntax unified
  20              		.thumb
  21              		.thumb_func
  22              		.fpu fpv4-sp-d16
  23              		.type	queue_prio_insert, %function
  24              	queue_prio_insert:
  25              	.LFB172:
  26              		.file 1 "../../modules/ChibiOS/os/rt/include/chschd.h"
  27              		.loc 1 586 0
  28              		.cfi_startproc
  29              		@ args = 0, pretend = 0, frame = 0
  30              		@ frame_needed = 0, uses_anonymous_args = 0
  31              	.LVL0:
  32 0000 10B5     		push	{r4, lr}
  33              		.cfi_def_cfa_offset 8
  34              		.cfi_offset 4, -8
  35              		.cfi_offset 14, -4
  36              		.loc 1 586 0
  37 0002 0B46     		mov	r3, r1
  38              	.LVL1:
  39              	.L3:
  40              		.loc 1 590 0 discriminator 2
  41 0004 1B68     		ldr	r3, [r3]
  42              	.LVL2:
  43              		.loc 1 591 0 discriminator 2
  44 0006 9942     		cmp	r1, r3
  45 0008 05D1     		bne	.L2
  46              	.L4:
  47              		.loc 1 593 0
  48 000a 5A68     		ldr	r2, [r3, #4]
  49              		.loc 1 592 0
  50 000c 0360     		str	r3, [r0]
  51              		.loc 1 593 0
  52 000e 4260     		str	r2, [r0, #4]
  53              		.loc 1 594 0
  54 0010 1060     		str	r0, [r2]
  55              		.loc 1 595 0
  56 0012 5860     		str	r0, [r3, #4]
  57              		.loc 1 596 0
ARM GAS  /tmp/ccWkTx1E.s 			page 2


  58 0014 10BD     		pop	{r4, pc}
  59              	.L2:
  60              		.loc 1 591 0 discriminator 1
  61 0016 9C68     		ldr	r4, [r3, #8]
  62 0018 8268     		ldr	r2, [r0, #8]
  63 001a 9442     		cmp	r4, r2
  64 001c F2D2     		bcs	.L3
  65 001e F4E7     		b	.L4
  66              		.cfi_endproc
  67              	.LFE172:
  68              		.size	queue_prio_insert, .-queue_prio_insert
  69              		.section	.text.chMtxObjectInit,"ax",%progbits
  70              		.align	1
  71              		.global	chMtxObjectInit
  72              		.syntax unified
  73              		.thumb
  74              		.thumb_func
  75              		.fpu fpv4-sp-d16
  76              		.type	chMtxObjectInit, %function
  77              	chMtxObjectInit:
  78              	.LFB290:
  79              		.file 2 "../../modules/ChibiOS/os/rt/src/chmtx.c"
  80              		.loc 2 103 0
  81              		.cfi_startproc
  82              		@ args = 0, pretend = 0, frame = 0
  83              		@ frame_needed = 0, uses_anonymous_args = 0
  84              		@ link register save eliminated.
  85              	.LVL3:
  86              		.loc 2 108 0
  87 0000 0023     		movs	r3, #0
  88              	.LBB96:
  89              	.LBB97:
  90              		.loc 1 539 0
  91 0002 0060     		str	r0, [r0]
  92              		.loc 1 540 0
  93 0004 4060     		str	r0, [r0, #4]
  94              	.LVL4:
  95              	.LBE97:
  96              	.LBE96:
  97              		.loc 2 108 0
  98 0006 8360     		str	r3, [r0, #8]
  99              		.loc 2 110 0
 100 0008 0361     		str	r3, [r0, #16]
 101 000a 7047     		bx	lr
 102              		.cfi_endproc
 103              	.LFE290:
 104              		.size	chMtxObjectInit, .-chMtxObjectInit
 105              		.section	.text.chMtxLockS,"ax",%progbits
 106              		.align	1
 107              		.global	chMtxLockS
 108              		.syntax unified
 109              		.thumb
 110              		.thumb_func
 111              		.fpu fpv4-sp-d16
 112              		.type	chMtxLockS, %function
 113              	chMtxLockS:
 114              	.LFB292:
ARM GAS  /tmp/ccWkTx1E.s 			page 3


 115              		.loc 2 139 0
 116              		.cfi_startproc
 117              		@ args = 0, pretend = 0, frame = 0
 118              		@ frame_needed = 0, uses_anonymous_args = 0
 119              	.LVL5:
 120 0000 70B5     		push	{r4, r5, r6, lr}
 121              		.cfi_def_cfa_offset 16
 122              		.cfi_offset 4, -16
 123              		.cfi_offset 5, -12
 124              		.cfi_offset 6, -8
 125              		.cfi_offset 14, -4
 126              		.loc 2 140 0
 127 0002 234B     		ldr	r3, .L18
 128              		.loc 2 146 0
 129 0004 8468     		ldr	r4, [r0, #8]
 130              		.loc 2 140 0
 131 0006 9E69     		ldr	r6, [r3, #24]
 132              	.LVL6:
 133              		.loc 2 139 0
 134 0008 0546     		mov	r5, r0
 135              		.loc 2 146 0
 136 000a 002C     		cmp	r4, #0
 137 000c 38D0     		beq	.L9
 138              		.loc 2 153 0
 139 000e A642     		cmp	r6, r4
 140 0010 0ED1     		bne	.L11
 141              		.loc 2 154 0
 142 0012 0369     		ldr	r3, [r0, #16]
 143 0014 0133     		adds	r3, r3, #1
 144 0016 0361     		str	r3, [r0, #16]
 145 0018 70BD     		pop	{r4, r5, r6, pc}
 146              	.LVL7:
 147              	.L14:
 148              	.LBB105:
 149              	.LBB106:
 150              	.LBB107:
 151              		.loc 1 626 0
 152 001a 94E80C00 		ldm	r4, {r2, r3}
 153 001e 1A60     		str	r2, [r3]
 154              		.loc 1 627 0
 155 0020 2268     		ldr	r2, [r4]
 156 0022 5360     		str	r3, [r2, #4]
 157              	.LVL8:
 158              	.LBE107:
 159              	.LBE106:
 160              		.loc 2 173 0
 161 0024 616A     		ldr	r1, [r4, #36]
 162 0026 2046     		mov	r0, r4
 163 0028 FFF7FEFF 		bl	queue_prio_insert
 164              	.LVL9:
 165              		.loc 2 174 0
 166 002c 636A     		ldr	r3, [r4, #36]
 167 002e 9C68     		ldr	r4, [r3, #8]
 168              	.LVL10:
 169              	.L11:
 170              		.loc 2 165 0
 171 0030 B368     		ldr	r3, [r6, #8]
ARM GAS  /tmp/ccWkTx1E.s 			page 4


 172 0032 A268     		ldr	r2, [r4, #8]
 173 0034 9A42     		cmp	r2, r3
 174 0036 19D2     		bcs	.L13
 175              		.loc 2 167 0
 176 0038 A360     		str	r3, [r4, #8]
 177              		.loc 2 170 0
 178 003a 94F82030 		ldrb	r3, [r4, #32]	@ zero_extendqisi2
 179 003e 062B     		cmp	r3, #6
 180 0040 EBD0     		beq	.L14
 181 0042 072B     		cmp	r3, #7
 182 0044 09D0     		beq	.L15
 183 0046 8BB9     		cbnz	r3, .L13
 184              	.LVL11:
 185              	.LBB108:
 186              	.LBB109:
 187              		.loc 1 626 0
 188 0048 94E80C00 		ldm	r4, {r2, r3}
 189 004c 1A60     		str	r2, [r3]
 190              		.loc 1 627 0
 191 004e 2268     		ldr	r2, [r4]
 192              	.LBE109:
 193              	.LBE108:
 194              		.loc 2 202 0
 195 0050 2046     		mov	r0, r4
 196              	.LBB111:
 197              	.LBB110:
 198              		.loc 1 627 0
 199 0052 5360     		str	r3, [r2, #4]
 200              	.LVL12:
 201              	.LBE110:
 202              	.LBE111:
 203              		.loc 2 202 0
 204 0054 FFF7FEFF 		bl	chSchReadyI
 205              	.LVL13:
 206              		.loc 2 203 0
 207 0058 08E0     		b	.L13
 208              	.L15:
 209              	.LVL14:
 210              	.LBB112:
 211              	.LBB113:
 212              		.loc 1 626 0
 213 005a 94E80C00 		ldm	r4, {r2, r3}
 214 005e 1A60     		str	r2, [r3]
 215              		.loc 1 627 0
 216 0060 2268     		ldr	r2, [r4]
 217 0062 5360     		str	r3, [r2, #4]
 218              	.LVL15:
 219              	.LBE113:
 220              	.LBE112:
 221              		.loc 2 193 0
 222 0064 616A     		ldr	r1, [r4, #36]
 223 0066 2046     		mov	r0, r4
 224 0068 FFF7FEFF 		bl	queue_prio_insert
 225              	.LVL16:
 226              	.L13:
 227              		.loc 2 212 0
 228 006c 3046     		mov	r0, r6
ARM GAS  /tmp/ccWkTx1E.s 			page 5


 229 006e 2946     		mov	r1, r5
 230 0070 FFF7FEFF 		bl	queue_prio_insert
 231              	.LVL17:
 232              		.loc 2 213 0
 233 0074 7562     		str	r5, [r6, #36]
 234              		.loc 2 214 0
 235 0076 0620     		movs	r0, #6
 236              	.LBE105:
 237              		.loc 2 236 0
 238 0078 BDE87040 		pop	{r4, r5, r6, lr}
 239              		.cfi_remember_state
 240              		.cfi_restore 14
 241              		.cfi_restore 6
 242              		.cfi_restore 5
 243              		.cfi_restore 4
 244              		.cfi_def_cfa_offset 0
 245              	.LVL18:
 246              	.LBB114:
 247              		.loc 2 214 0
 248 007c FFF7FEBF 		b	chSchGoSleepS
 249              	.LVL19:
 250              	.L9:
 251              		.cfi_restore_state
 252              	.LBE114:
 253              		.loc 2 229 0
 254 0080 0369     		ldr	r3, [r0, #16]
 255              		.loc 2 232 0
 256 0082 8660     		str	r6, [r0, #8]
 257              		.loc 2 229 0
 258 0084 0133     		adds	r3, r3, #1
 259 0086 0361     		str	r3, [r0, #16]
 260              		.loc 2 233 0
 261 0088 B36B     		ldr	r3, [r6, #56]
 262 008a C360     		str	r3, [r0, #12]
 263              		.loc 2 234 0
 264 008c B063     		str	r0, [r6, #56]
 265 008e 70BD     		pop	{r4, r5, r6, pc}
 266              	.LVL20:
 267              	.L19:
 268              		.align	2
 269              	.L18:
 270 0090 00000000 		.word	ch
 271              		.cfi_endproc
 272              	.LFE292:
 273              		.size	chMtxLockS, .-chMtxLockS
 274              		.section	.text.chMtxLock,"ax",%progbits
 275              		.align	1
 276              		.global	chMtxLock
 277              		.syntax unified
 278              		.thumb
 279              		.thumb_func
 280              		.fpu fpv4-sp-d16
 281              		.type	chMtxLock, %function
 282              	chMtxLock:
 283              	.LFB291:
 284              		.loc 2 123 0
 285              		.cfi_startproc
ARM GAS  /tmp/ccWkTx1E.s 			page 6


 286              		@ args = 0, pretend = 0, frame = 0
 287              		@ frame_needed = 0, uses_anonymous_args = 0
 288              	.LVL21:
 289 0000 08B5     		push	{r3, lr}
 290              		.cfi_def_cfa_offset 8
 291              		.cfi_offset 3, -8
 292              		.cfi_offset 14, -4
 293              	.LBB115:
 294              	.LBB116:
 295              	.LBB117:
 296              	.LBB118:
 297              		.file 3 "../../modules/ChibiOS/os/common/ext/ARM/CMSIS/Core/Include/cmsis_gcc.h"
 298              		.loc 3 493 0
 299 0002 2023     		movs	r3, #32
 300              		.syntax unified
 301              	@ 493 "../../modules/ChibiOS/os/common/ext/ARM/CMSIS/Core/Include/cmsis_gcc.h" 1
 302 0004 83F31188 		MSR basepri, r3
 303              	@ 0 "" 2
 304              	.LVL22:
 305              		.thumb
 306              		.syntax unified
 307              	.LBE118:
 308              	.LBE117:
 309              	.LBE116:
 310              	.LBE115:
 311              		.loc 2 126 0
 312 0008 FFF7FEFF 		bl	chMtxLockS
 313              	.LVL23:
 314              	.LBB119:
 315              	.LBB120:
 316              	.LBB121:
 317              	.LBB122:
 318              	.LBB123:
 319              		.loc 3 493 0
 320 000c 0023     		movs	r3, #0
 321              		.syntax unified
 322              	@ 493 "../../modules/ChibiOS/os/common/ext/ARM/CMSIS/Core/Include/cmsis_gcc.h" 1
 323 000e 83F31188 		MSR basepri, r3
 324              	@ 0 "" 2
 325              	.LVL24:
 326              		.thumb
 327              		.syntax unified
 328 0012 08BD     		pop	{r3, pc}
 329              	.LBE123:
 330              	.LBE122:
 331              	.LBE121:
 332              	.LBE120:
 333              	.LBE119:
 334              		.cfi_endproc
 335              	.LFE291:
 336              		.size	chMtxLock, .-chMtxLock
 337              		.section	.text.chMtxTryLockS,"ax",%progbits
 338              		.align	1
 339              		.global	chMtxTryLockS
 340              		.syntax unified
 341              		.thumb
 342              		.thumb_func
ARM GAS  /tmp/ccWkTx1E.s 			page 7


 343              		.fpu fpv4-sp-d16
 344              		.type	chMtxTryLockS, %function
 345              	chMtxTryLockS:
 346              	.LFB294:
 347              		.loc 2 282 0
 348              		.cfi_startproc
 349              		@ args = 0, pretend = 0, frame = 0
 350              		@ frame_needed = 0, uses_anonymous_args = 0
 351              		@ link register save eliminated.
 352              	.LVL25:
 353              		.loc 2 287 0
 354 0000 8368     		ldr	r3, [r0, #8]
 355 0002 0A4A     		ldr	r2, .L26
 356 0004 3BB1     		cbz	r3, .L22
 357              		.loc 2 292 0
 358 0006 9269     		ldr	r2, [r2, #24]
 359 0008 9342     		cmp	r3, r2
 360 000a 0DD1     		bne	.L24
 361              		.loc 2 293 0
 362 000c 0369     		ldr	r3, [r0, #16]
 363 000e 0133     		adds	r3, r3, #1
 364 0010 0361     		str	r3, [r0, #16]
 365              	.L25:
 366              	.LBB126:
 367              	.LBB127:
 368              		.loc 2 307 0
 369 0012 0120     		movs	r0, #1
 370              	.LVL26:
 371 0014 7047     		bx	lr
 372              	.LVL27:
 373              	.L22:
 374              		.loc 2 303 0
 375 0016 0369     		ldr	r3, [r0, #16]
 376 0018 0133     		adds	r3, r3, #1
 377 001a 0361     		str	r3, [r0, #16]
 378              		.loc 2 305 0
 379 001c 9369     		ldr	r3, [r2, #24]
 380 001e 8360     		str	r3, [r0, #8]
 381              		.loc 2 306 0
 382 0020 9A6B     		ldr	r2, [r3, #56]
 383 0022 C260     		str	r2, [r0, #12]
 384              		.loc 2 307 0
 385 0024 9863     		str	r0, [r3, #56]
 386 0026 F4E7     		b	.L25
 387              	.LVL28:
 388              	.L24:
 389              	.LBE127:
 390              	.LBE126:
 391              		.loc 2 297 0
 392 0028 0020     		movs	r0, #0
 393              	.LVL29:
 394              		.loc 2 309 0
 395 002a 7047     		bx	lr
 396              	.L27:
 397              		.align	2
 398              	.L26:
 399 002c 00000000 		.word	ch
ARM GAS  /tmp/ccWkTx1E.s 			page 8


 400              		.cfi_endproc
 401              	.LFE294:
 402              		.size	chMtxTryLockS, .-chMtxTryLockS
 403              		.section	.text.chMtxTryLock,"ax",%progbits
 404              		.align	1
 405              		.global	chMtxTryLock
 406              		.syntax unified
 407              		.thumb
 408              		.thumb_func
 409              		.fpu fpv4-sp-d16
 410              		.type	chMtxTryLock, %function
 411              	chMtxTryLock:
 412              	.LFB293:
 413              		.loc 2 255 0
 414              		.cfi_startproc
 415              		@ args = 0, pretend = 0, frame = 0
 416              		@ frame_needed = 0, uses_anonymous_args = 0
 417              	.LVL30:
 418 0000 08B5     		push	{r3, lr}
 419              		.cfi_def_cfa_offset 8
 420              		.cfi_offset 3, -8
 421              		.cfi_offset 14, -4
 422              	.LBB128:
 423              	.LBB129:
 424              	.LBB130:
 425              	.LBB131:
 426              		.loc 3 493 0
 427 0002 2023     		movs	r3, #32
 428              		.syntax unified
 429              	@ 493 "../../modules/ChibiOS/os/common/ext/ARM/CMSIS/Core/Include/cmsis_gcc.h" 1
 430 0004 83F31188 		MSR basepri, r3
 431              	@ 0 "" 2
 432              	.LVL31:
 433              		.thumb
 434              		.syntax unified
 435              	.LBE131:
 436              	.LBE130:
 437              	.LBE129:
 438              	.LBE128:
 439              		.loc 2 259 0
 440 0008 FFF7FEFF 		bl	chMtxTryLockS
 441              	.LVL32:
 442              	.LBB132:
 443              	.LBB133:
 444              	.LBB134:
 445              	.LBB135:
 446              	.LBB136:
 447              		.loc 3 493 0
 448 000c 0023     		movs	r3, #0
 449              		.syntax unified
 450              	@ 493 "../../modules/ChibiOS/os/common/ext/ARM/CMSIS/Core/Include/cmsis_gcc.h" 1
 451 000e 83F31188 		MSR basepri, r3
 452              	@ 0 "" 2
 453              	.LVL33:
 454              		.thumb
 455              		.syntax unified
 456              	.LBE136:
ARM GAS  /tmp/ccWkTx1E.s 			page 9


 457              	.LBE135:
 458              	.LBE134:
 459              	.LBE133:
 460              	.LBE132:
 461              		.loc 2 263 0
 462 0012 08BD     		pop	{r3, pc}
 463              		.cfi_endproc
 464              	.LFE293:
 465              		.size	chMtxTryLock, .-chMtxTryLock
 466              		.section	.text.chMtxUnlock,"ax",%progbits
 467              		.align	1
 468              		.global	chMtxUnlock
 469              		.syntax unified
 470              		.thumb
 471              		.thumb_func
 472              		.fpu fpv4-sp-d16
 473              		.type	chMtxUnlock, %function
 474              	chMtxUnlock:
 475              	.LFB295:
 476              		.loc 2 323 0
 477              		.cfi_startproc
 478              		@ args = 0, pretend = 0, frame = 0
 479              		@ frame_needed = 0, uses_anonymous_args = 0
 480              	.LVL34:
 481              		.loc 2 324 0
 482 0000 174A     		ldr	r2, .L35
 483              		.loc 2 323 0
 484 0002 38B5     		push	{r3, r4, r5, lr}
 485              		.cfi_def_cfa_offset 16
 486              		.cfi_offset 3, -16
 487              		.cfi_offset 4, -12
 488              		.cfi_offset 5, -8
 489              		.cfi_offset 14, -4
 490              		.loc 2 324 0
 491 0004 9469     		ldr	r4, [r2, #24]
 492              	.LVL35:
 493              		.loc 2 323 0
 494 0006 0346     		mov	r3, r0
 495              	.LBB137:
 496              	.LBB138:
 497              	.LBB139:
 498              	.LBB140:
 499              		.loc 3 493 0
 500 0008 2022     		movs	r2, #32
 501              		.syntax unified
 502              	@ 493 "../../modules/ChibiOS/os/common/ext/ARM/CMSIS/Core/Include/cmsis_gcc.h" 1
 503 000a 82F31188 		MSR basepri, r2
 504              	@ 0 "" 2
 505              	.LVL36:
 506              		.thumb
 507              		.syntax unified
 508              	.LBE140:
 509              	.LBE139:
 510              	.LBE138:
 511              	.LBE137:
 512              		.loc 2 336 0
 513 000e 0169     		ldr	r1, [r0, #16]
ARM GAS  /tmp/ccWkTx1E.s 			page 10


 514 0010 0139     		subs	r1, r1, #1
 515 0012 0161     		str	r1, [r0, #16]
 516 0014 A1B9     		cbnz	r1, .L30
 517              		.loc 2 344 0
 518 0016 C268     		ldr	r2, [r0, #12]
 519              	.LBB141:
 520              	.LBB142:
 521              	.LBB143:
 522              	.LBB144:
 523              		.loc 1 566 0
 524 0018 0068     		ldr	r0, [r0]
 525              	.LVL37:
 526              	.LBE144:
 527              	.LBE143:
 528              	.LBE142:
 529              	.LBE141:
 530              		.loc 2 344 0
 531 001a A263     		str	r2, [r4, #56]
 532              		.loc 2 347 0
 533 001c 9842     		cmp	r0, r3
 534 001e 1CD0     		beq	.L31
 535              	.LBB145:
 536              		.loc 2 352 0
 537 0020 E16B     		ldr	r1, [r4, #60]
 538              	.LVL38:
 539              	.L32:
 540              		.loc 2 354 0
 541 0022 8AB9     		cbnz	r2, .L34
 542              		.loc 2 372 0
 543 0024 0122     		movs	r2, #1
 544              	.LVL39:
 545              		.loc 2 367 0
 546 0026 A160     		str	r1, [r4, #8]
 547              		.loc 2 372 0
 548 0028 1A61     		str	r2, [r3, #16]
 549              	.LVL40:
 550              	.LBB146:
 551              	.LBB147:
 552              		.loc 1 609 0
 553 002a 0268     		ldr	r2, [r0]
 554 002c 1A60     		str	r2, [r3]
 555              		.loc 1 610 0
 556 002e 5360     		str	r3, [r2, #4]
 557              	.LVL41:
 558              	.LBE147:
 559              	.LBE146:
 560              		.loc 2 376 0
 561 0030 826B     		ldr	r2, [r0, #56]
 562              		.loc 2 375 0
 563 0032 9860     		str	r0, [r3, #8]
 564              		.loc 2 376 0
 565 0034 DA60     		str	r2, [r3, #12]
 566              		.loc 2 377 0
 567 0036 8363     		str	r3, [r0, #56]
 568              		.loc 2 383 0
 569 0038 FFF7FEFF 		bl	chSchReadyI
 570              	.LVL42:
ARM GAS  /tmp/ccWkTx1E.s 			page 11


 571              		.loc 2 384 0
 572 003c FFF7FEFF 		bl	chSchRescheduleS
 573              	.LVL43:
 574              	.L30:
 575              	.LBE145:
 576              	.LBB152:
 577              	.LBB153:
 578              	.LBB154:
 579              	.LBB155:
 580              	.LBB156:
 581              		.loc 3 493 0
 582 0040 0023     		movs	r3, #0
 583              		.syntax unified
 584              	@ 493 "../../modules/ChibiOS/os/common/ext/ARM/CMSIS/Core/Include/cmsis_gcc.h" 1
 585 0042 83F31188 		MSR basepri, r3
 586              	@ 0 "" 2
 587              	.LVL44:
 588              		.thumb
 589              		.syntax unified
 590 0046 38BD     		pop	{r3, r4, r5, pc}
 591              	.LVL45:
 592              	.L34:
 593              	.LBE156:
 594              	.LBE155:
 595              	.LBE154:
 596              	.LBE153:
 597              	.LBE152:
 598              	.LBB157:
 599              	.LBB148:
 600              	.LBB149:
 601              	.LBB150:
 602              	.LBB151:
 603              		.loc 1 566 0
 604 0048 1568     		ldr	r5, [r2]
 605              	.LVL46:
 606              	.LBE151:
 607              	.LBE150:
 608              	.LBE149:
 609              	.LBE148:
 610              		.loc 2 358 0
 611 004a AA42     		cmp	r2, r5
 612 004c 03D0     		beq	.L33
 613 004e AD68     		ldr	r5, [r5, #8]
 614 0050 A942     		cmp	r1, r5
 615 0052 38BF     		it	cc
 616 0054 2946     		movcc	r1, r5
 617              	.LVL47:
 618              	.L33:
 619              		.loc 2 362 0
 620 0056 D268     		ldr	r2, [r2, #12]
 621              	.LVL48:
 622 0058 E3E7     		b	.L32
 623              	.LVL49:
 624              	.L31:
 625              	.LBE157:
 626              		.loc 2 387 0
 627 005a 8160     		str	r1, [r0, #8]
ARM GAS  /tmp/ccWkTx1E.s 			page 12


 628 005c F0E7     		b	.L30
 629              	.L36:
 630 005e 00BF     		.align	2
 631              	.L35:
 632 0060 00000000 		.word	ch
 633              		.cfi_endproc
 634              	.LFE295:
 635              		.size	chMtxUnlock, .-chMtxUnlock
 636              		.section	.text.chMtxUnlockS,"ax",%progbits
 637              		.align	1
 638              		.global	chMtxUnlockS
 639              		.syntax unified
 640              		.thumb
 641              		.thumb_func
 642              		.fpu fpv4-sp-d16
 643              		.type	chMtxUnlockS, %function
 644              	chMtxUnlockS:
 645              	.LFB296:
 646              		.loc 2 410 0
 647              		.cfi_startproc
 648              		@ args = 0, pretend = 0, frame = 0
 649              		@ frame_needed = 0, uses_anonymous_args = 0
 650              		@ link register save eliminated.
 651              	.LVL50:
 652              		.loc 2 422 0
 653 0000 0169     		ldr	r1, [r0, #16]
 654              		.loc 2 411 0
 655 0002 134A     		ldr	r2, .L43
 656              		.loc 2 422 0
 657 0004 0139     		subs	r1, r1, #1
 658              		.loc 2 410 0
 659 0006 30B4     		push	{r4, r5}
 660              		.cfi_def_cfa_offset 8
 661              		.cfi_offset 4, -8
 662              		.cfi_offset 5, -4
 663              		.loc 2 410 0
 664 0008 0346     		mov	r3, r0
 665              		.loc 2 411 0
 666 000a 9469     		ldr	r4, [r2, #24]
 667              	.LVL51:
 668              		.loc 2 422 0
 669 000c 0161     		str	r1, [r0, #16]
 670 000e E9B9     		cbnz	r1, .L37
 671              		.loc 2 430 0
 672 0010 C268     		ldr	r2, [r0, #12]
 673              	.LBB158:
 674              	.LBB159:
 675              	.LBB160:
 676              	.LBB161:
 677              		.loc 1 566 0
 678 0012 0068     		ldr	r0, [r0]
 679              	.LVL52:
 680              	.LBE161:
 681              	.LBE160:
 682              	.LBE159:
 683              	.LBE158:
 684              		.loc 2 430 0
ARM GAS  /tmp/ccWkTx1E.s 			page 13


 685 0014 A263     		str	r2, [r4, #56]
 686              		.loc 2 433 0
 687 0016 9842     		cmp	r0, r3
 688 0018 17D0     		beq	.L39
 689              	.LBB162:
 690              		.loc 2 438 0
 691 001a E16B     		ldr	r1, [r4, #60]
 692              	.LVL53:
 693              	.L40:
 694              		.loc 2 440 0
 695 001c 62B9     		cbnz	r2, .L42
 696              		.loc 2 458 0
 697 001e 0122     		movs	r2, #1
 698              	.LVL54:
 699              		.loc 2 453 0
 700 0020 A160     		str	r1, [r4, #8]
 701              		.loc 2 458 0
 702 0022 1A61     		str	r2, [r3, #16]
 703              	.LVL55:
 704              	.LBB163:
 705              	.LBB164:
 706              		.loc 1 609 0
 707 0024 0268     		ldr	r2, [r0]
 708 0026 1A60     		str	r2, [r3]
 709              		.loc 1 610 0
 710 0028 5360     		str	r3, [r2, #4]
 711              	.LVL56:
 712              	.LBE164:
 713              	.LBE163:
 714              		.loc 2 462 0
 715 002a 826B     		ldr	r2, [r0, #56]
 716              		.loc 2 461 0
 717 002c 9860     		str	r0, [r3, #8]
 718              		.loc 2 462 0
 719 002e DA60     		str	r2, [r3, #12]
 720              	.LBE162:
 721              		.loc 2 472 0
 722 0030 30BC     		pop	{r4, r5}
 723              		.cfi_remember_state
 724              		.cfi_restore 5
 725              		.cfi_restore 4
 726              		.cfi_def_cfa_offset 0
 727              	.LVL57:
 728              	.LBB169:
 729              		.loc 2 463 0
 730 0032 8363     		str	r3, [r0, #56]
 731              		.loc 2 464 0
 732 0034 FFF7FEBF 		b	chSchReadyI
 733              	.LVL58:
 734              	.L42:
 735              		.cfi_restore_state
 736              	.LBB165:
 737              	.LBB166:
 738              	.LBB167:
 739              	.LBB168:
 740              		.loc 1 566 0
 741 0038 1568     		ldr	r5, [r2]
ARM GAS  /tmp/ccWkTx1E.s 			page 14


 742              	.LVL59:
 743              	.LBE168:
 744              	.LBE167:
 745              	.LBE166:
 746              	.LBE165:
 747              		.loc 2 444 0
 748 003a AA42     		cmp	r2, r5
 749 003c 03D0     		beq	.L41
 750 003e AD68     		ldr	r5, [r5, #8]
 751 0040 A942     		cmp	r1, r5
 752 0042 38BF     		it	cc
 753 0044 2946     		movcc	r1, r5
 754              	.LVL60:
 755              	.L41:
 756              		.loc 2 448 0
 757 0046 D268     		ldr	r2, [r2, #12]
 758              	.LVL61:
 759 0048 E8E7     		b	.L40
 760              	.LVL62:
 761              	.L39:
 762              	.LBE169:
 763              		.loc 2 467 0
 764 004a 8160     		str	r1, [r0, #8]
 765              	.L37:
 766              		.loc 2 472 0
 767 004c 30BC     		pop	{r4, r5}
 768              		.cfi_restore 5
 769              		.cfi_restore 4
 770              		.cfi_def_cfa_offset 0
 771              	.LVL63:
 772 004e 7047     		bx	lr
 773              	.L44:
 774              		.align	2
 775              	.L43:
 776 0050 00000000 		.word	ch
 777              		.cfi_endproc
 778              	.LFE296:
 779              		.size	chMtxUnlockS, .-chMtxUnlockS
 780              		.section	.text.chMtxUnlockAllS,"ax",%progbits
 781              		.align	1
 782              		.global	chMtxUnlockAllS
 783              		.syntax unified
 784              		.thumb
 785              		.thumb_func
 786              		.fpu fpv4-sp-d16
 787              		.type	chMtxUnlockAllS, %function
 788              	chMtxUnlockAllS:
 789              	.LFB297:
 790              		.loc 2 487 0
 791              		.cfi_startproc
 792              		@ args = 0, pretend = 0, frame = 0
 793              		@ frame_needed = 0, uses_anonymous_args = 0
 794              		.loc 2 488 0
 795 0000 0E4B     		ldr	r3, .L50
 796              		.loc 2 487 0
 797 0002 70B5     		push	{r4, r5, r6, lr}
 798              		.cfi_def_cfa_offset 16
ARM GAS  /tmp/ccWkTx1E.s 			page 15


 799              		.cfi_offset 4, -16
 800              		.cfi_offset 5, -12
 801              		.cfi_offset 6, -8
 802              		.cfi_offset 14, -4
 803              		.loc 2 488 0
 804 0004 9C69     		ldr	r4, [r3, #24]
 805              	.LVL64:
 806              	.LBB170:
 807              		.loc 2 505 0
 808 0006 0025     		movs	r5, #0
 809              	.LBB171:
 810              		.loc 2 495 0
 811 0008 0126     		movs	r6, #1
 812              	.L46:
 813              	.LBE171:
 814              	.LBE170:
 815              		.loc 2 490 0
 816 000a A36B     		ldr	r3, [r4, #56]
 817 000c 13B9     		cbnz	r3, .L49
 818              		.loc 2 510 0
 819 000e E36B     		ldr	r3, [r4, #60]
 820 0010 A360     		str	r3, [r4, #8]
 821 0012 70BD     		pop	{r4, r5, r6, pc}
 822              	.LVL65:
 823              	.L49:
 824              	.LBB181:
 825              	.LBB176:
 826              	.LBB177:
 827              	.LBB178:
 828              	.LBB179:
 829              		.loc 1 566 0
 830 0014 1868     		ldr	r0, [r3]
 831              	.LBE179:
 832              	.LBE178:
 833              	.LBE177:
 834              	.LBE176:
 835              		.loc 2 492 0
 836 0016 DA68     		ldr	r2, [r3, #12]
 837 0018 A263     		str	r2, [r4, #56]
 838              	.LVL66:
 839              		.loc 2 493 0
 840 001a 8342     		cmp	r3, r0
 841 001c 0AD0     		beq	.L47
 842              	.LBB180:
 843              	.LBB172:
 844              	.LBB173:
 845              		.loc 1 609 0
 846 001e 0268     		ldr	r2, [r0]
 847 0020 1A60     		str	r2, [r3]
 848              	.LBE173:
 849              	.LBE172:
 850              		.loc 2 495 0
 851 0022 1E61     		str	r6, [r3, #16]
 852              	.LVL67:
 853              	.LBB175:
 854              	.LBB174:
 855              		.loc 1 610 0
ARM GAS  /tmp/ccWkTx1E.s 			page 16


 856 0024 5360     		str	r3, [r2, #4]
 857              	.LVL68:
 858              	.LBE174:
 859              	.LBE175:
 860              		.loc 2 499 0
 861 0026 826B     		ldr	r2, [r0, #56]
 862              		.loc 2 498 0
 863 0028 9860     		str	r0, [r3, #8]
 864              		.loc 2 499 0
 865 002a DA60     		str	r2, [r3, #12]
 866              		.loc 2 500 0
 867 002c 8363     		str	r3, [r0, #56]
 868              		.loc 2 501 0
 869 002e FFF7FEFF 		bl	chSchReadyI
 870              	.LVL69:
 871              	.LBE180:
 872 0032 EAE7     		b	.L46
 873              	.LVL70:
 874              	.L47:
 875              		.loc 2 505 0
 876 0034 1D61     		str	r5, [r3, #16]
 877              		.loc 2 507 0
 878 0036 9D60     		str	r5, [r3, #8]
 879 0038 E7E7     		b	.L46
 880              	.L51:
 881 003a 00BF     		.align	2
 882              	.L50:
 883 003c 00000000 		.word	ch
 884              	.LBE181:
 885              		.cfi_endproc
 886              	.LFE297:
 887              		.size	chMtxUnlockAllS, .-chMtxUnlockAllS
 888              		.section	.text.chMtxUnlockAll,"ax",%progbits
 889              		.align	1
 890              		.global	chMtxUnlockAll
 891              		.syntax unified
 892              		.thumb
 893              		.thumb_func
 894              		.fpu fpv4-sp-d16
 895              		.type	chMtxUnlockAll, %function
 896              	chMtxUnlockAll:
 897              	.LFB298:
 898              		.loc 2 524 0
 899              		.cfi_startproc
 900              		@ args = 0, pretend = 0, frame = 0
 901              		@ frame_needed = 0, uses_anonymous_args = 0
 902              		.loc 2 525 0
 903 0000 134B     		ldr	r3, .L62
 904              		.loc 2 524 0
 905 0002 70B5     		push	{r4, r5, r6, lr}
 906              		.cfi_def_cfa_offset 16
 907              		.cfi_offset 4, -16
 908              		.cfi_offset 5, -12
 909              		.cfi_offset 6, -8
 910              		.cfi_offset 14, -4
 911              		.loc 2 525 0
 912 0004 9C69     		ldr	r4, [r3, #24]
ARM GAS  /tmp/ccWkTx1E.s 			page 17


 913              	.LVL71:
 914              	.LBB182:
 915              	.LBB183:
 916              	.LBB184:
 917              	.LBB185:
 918              		.loc 3 493 0
 919 0006 2023     		movs	r3, #32
 920              		.syntax unified
 921              	@ 493 "../../modules/ChibiOS/os/common/ext/ARM/CMSIS/Core/Include/cmsis_gcc.h" 1
 922 0008 83F31188 		MSR basepri, r3
 923              	@ 0 "" 2
 924              	.LVL72:
 925              		.thumb
 926              		.syntax unified
 927              	.LBE185:
 928              	.LBE184:
 929              	.LBE183:
 930              	.LBE182:
 931              		.loc 2 528 0
 932 000c A36B     		ldr	r3, [r4, #56]
 933 000e C3B1     		cbz	r3, .L53
 934              	.LBB186:
 935              	.LBB187:
 936              		.loc 2 534 0
 937 0010 0126     		movs	r6, #1
 938              	.LBE187:
 939              		.loc 2 544 0
 940 0012 0025     		movs	r5, #0
 941              	.L59:
 942              		.loc 2 530 0
 943 0014 A36B     		ldr	r3, [r4, #56]
 944              	.LVL73:
 945              	.LBB192:
 946              	.LBB193:
 947              	.LBB194:
 948              	.LBB195:
 949              		.loc 1 566 0
 950 0016 1868     		ldr	r0, [r3]
 951              	.LBE195:
 952              	.LBE194:
 953              	.LBE193:
 954              	.LBE192:
 955              		.loc 2 531 0
 956 0018 DA68     		ldr	r2, [r3, #12]
 957 001a A263     		str	r2, [r4, #56]
 958              	.LVL74:
 959              		.loc 2 532 0
 960 001c 8342     		cmp	r3, r0
 961 001e 14D0     		beq	.L54
 962              	.LBB196:
 963              	.LBB188:
 964              	.LBB189:
 965              		.loc 1 609 0
 966 0020 0268     		ldr	r2, [r0]
 967 0022 1A60     		str	r2, [r3]
 968              	.LBE189:
 969              	.LBE188:
ARM GAS  /tmp/ccWkTx1E.s 			page 18


 970              		.loc 2 534 0
 971 0024 1E61     		str	r6, [r3, #16]
 972              	.LVL75:
 973              	.LBB191:
 974              	.LBB190:
 975              		.loc 1 610 0
 976 0026 5360     		str	r3, [r2, #4]
 977              	.LVL76:
 978              	.LBE190:
 979              	.LBE191:
 980              		.loc 2 538 0
 981 0028 826B     		ldr	r2, [r0, #56]
 982              		.loc 2 537 0
 983 002a 9860     		str	r0, [r3, #8]
 984              		.loc 2 538 0
 985 002c DA60     		str	r2, [r3, #12]
 986              		.loc 2 539 0
 987 002e 8363     		str	r3, [r0, #56]
 988              		.loc 2 540 0
 989 0030 FFF7FEFF 		bl	chSchReadyI
 990              	.LVL77:
 991              	.L55:
 992              	.LBE196:
 993              	.LBE186:
 994              		.loc 2 548 0
 995 0034 A36B     		ldr	r3, [r4, #56]
 996 0036 002B     		cmp	r3, #0
 997 0038 ECD1     		bne	.L59
 998              		.loc 2 549 0
 999 003a E36B     		ldr	r3, [r4, #60]
 1000 003c A360     		str	r3, [r4, #8]
 1001              		.loc 2 550 0
 1002 003e FFF7FEFF 		bl	chSchRescheduleS
 1003              	.LVL78:
 1004              	.L53:
 1005              	.LBB197:
 1006              	.LBB198:
 1007              	.LBB199:
 1008              	.LBB200:
 1009              	.LBB201:
 1010              		.loc 3 493 0
 1011 0042 0023     		movs	r3, #0
 1012              		.syntax unified
 1013              	@ 493 "../../modules/ChibiOS/os/common/ext/ARM/CMSIS/Core/Include/cmsis_gcc.h" 1
 1014 0044 83F31188 		MSR basepri, r3
 1015              	@ 0 "" 2
 1016              	.LVL79:
 1017              		.thumb
 1018              		.syntax unified
 1019 0048 70BD     		pop	{r4, r5, r6, pc}
 1020              	.LVL80:
 1021              	.L54:
 1022              	.LBE201:
 1023              	.LBE200:
 1024              	.LBE199:
 1025              	.LBE198:
 1026              	.LBE197:
ARM GAS  /tmp/ccWkTx1E.s 			page 19


 1027              	.LBB202:
 1028              		.loc 2 544 0
 1029 004a 1D61     		str	r5, [r3, #16]
 1030              		.loc 2 546 0
 1031 004c 9D60     		str	r5, [r3, #8]
 1032 004e F1E7     		b	.L55
 1033              	.L63:
 1034              		.align	2
 1035              	.L62:
 1036 0050 00000000 		.word	ch
 1037              	.LBE202:
 1038              		.cfi_endproc
 1039              	.LFE298:
 1040              		.size	chMtxUnlockAll, .-chMtxUnlockAll
 1041              		.text
 1042              	.Letext0:
 1043              		.file 4 "/opt/gcc-arm-none-eabi-6-2017-q2-update/lib/gcc/arm-none-eabi/6.3.1/include/stddef.h"
 1044              		.file 5 "/opt/gcc-arm-none-eabi-6-2017-q2-update/arm-none-eabi/include/machine/_default_types.h"
 1045              		.file 6 "/opt/gcc-arm-none-eabi-6-2017-q2-update/arm-none-eabi/include/sys/_stdint.h"
 1046              		.file 7 "../../modules/ChibiOS/os/common/ports/ARMCMx/compilers/GCC/chtypes.h"
 1047              		.file 8 "../../modules/ChibiOS/os/rt/include/chsystypes.h"
 1048              		.file 9 "../../modules/ChibiOS/os/rt/include/chtime.h"
 1049              		.file 10 "../../modules/ChibiOS/os/common/ext/ARM/CMSIS/Core/Include/core_cm4.h"
 1050              		.file 11 "../../modules/ChibiOS/os/common/ext/ST/STM32F4xx/system_stm32f4xx.h"
 1051              		.file 12 "../../modules/ChibiOS/os/common/ports/ARMCMx/chcore.h"
 1052              		.file 13 "../../modules/ChibiOS/os/common/ports/ARMCMx/chcore_v7m.h"
 1053              		.file 14 "../../modules/ChibiOS/os/rt/include/chtm.h"
 1054              		.file 15 "../../modules/ChibiOS/os/rt/include/chsem.h"
 1055              		.file 16 "../../modules/ChibiOS/os/rt/include/chmtx.h"
 1056              		.file 17 "../../modules/ChibiOS/os/rt/include/chsys.h"
 1057              		.file 18 "../../modules/ChibiOS/os/rt/include/chregistry.h"
 1058              		.file 19 "../../modules/ChibiOS/os/oslib/include/chmemcore.h"
 1059              		.file 20 "../../modules/ChibiOS/os/oslib/include/chmempools.h"
 1060              		.file 21 "../../modules/ChibiOS/os/oslib/include/chfactory.h"