ARM GAS  /tmp/ccuUrixa.s 			page 1


   1              		.cpu cortex-m4
   2              		.eabi_attribute 27, 1
   3              		.eabi_attribute 28, 1
   4              		.eabi_attribute 20, 1
   5              		.eabi_attribute 21, 1
   6              		.eabi_attribute 23, 3
   7              		.eabi_attribute 24, 1
   8              		.eabi_attribute 25, 1
   9              		.eabi_attribute 26, 1
  10              		.eabi_attribute 30, 4
  11              		.eabi_attribute 34, 1
  12              		.eabi_attribute 18, 4
  13              		.file	"chprintf.c"
  14              		.text
  15              	.Ltext0:
  16              		.cfi_sections	.debug_frame
  17              		.section	.text.long_to_string_with_divisor,"ax",%progbits
  18              		.align	1
  19              		.syntax unified
  20              		.thumb
  21              		.thumb_func
  22              		.fpu fpv4-sp-d16
  23              		.type	long_to_string_with_divisor, %function
  24              	long_to_string_with_divisor:
  25              	.LFB323:
  26              		.file 1 "../../modules/ChibiOS/os/hal/lib/streams/chprintf.c"
  27              		.loc 1 41 0
  28              		.cfi_startproc
  29              		@ args = 0, pretend = 0, frame = 0
  30              		@ frame_needed = 0, uses_anonymous_args = 0
  31              	.LVL0:
  32 0000 F0B5     		push	{r4, r5, r6, r7, lr}
  33              		.cfi_def_cfa_offset 20
  34              		.cfi_offset 4, -20
  35              		.cfi_offset 5, -16
  36              		.cfi_offset 6, -12
  37              		.cfi_offset 7, -8
  38              		.cfi_offset 14, -4
  39              		.loc 1 53 0
  40 0002 00F10B05 		add	r5, r0, #11
  41              		.loc 1 48 0
  42 0006 002B     		cmp	r3, #0
  43 0008 08BF     		it	eq
  44 000a 0B46     		moveq	r3, r1
  45              	.LVL1:
  46              		.loc 1 53 0
  47 000c 2C46     		mov	r4, r5
  48              	.LVL2:
  49              	.L4:
  50              		.loc 1 55 0
  51 000e B1FBF2F7 		udiv	r7, r1, r2
  52 0012 02FB1711 		mls	r1, r2, r7, r1
  53              	.LVL3:
  54              		.loc 1 56 0
  55 0016 01F13006 		add	r6, r1, #48
  56              	.LVL4:
  57              		.loc 1 57 0
ARM GAS  /tmp/ccuUrixa.s 			page 2


  58 001a 392E     		cmp	r6, #57
  59              		.loc 1 58 0
  60 001c C8BF     		it	gt
  61 001e 01F13706 		addgt	r6, r1, #55
  62              	.LVL5:
  63              		.loc 1 59 0
  64 0022 04F8016D 		strb	r6, [r4, #-1]!
  65              	.LVL6:
  66              		.loc 1 61 0
  67 0026 B3FBF2F3 		udiv	r3, r3, r2
  68              	.LVL7:
  69              		.loc 1 60 0
  70 002a 3946     		mov	r1, r7
  71              	.LVL8:
  72              		.loc 1 61 0
  73 002c 002B     		cmp	r3, #0
  74 002e EED1     		bne	.L4
  75              	.LVL9:
  76              		.loc 1 63 0
  77 0030 2B1B     		subs	r3, r5, r4
  78              	.LVL10:
  79 0032 421E     		subs	r2, r0, #1
  80              	.LVL11:
  81 0034 E118     		adds	r1, r4, r3
  82              	.LVL12:
  83              	.L5:
  84              		.loc 1 65 0 discriminator 1
  85 0036 14F8015B 		ldrb	r5, [r4], #1	@ zero_extendqisi2
  86              	.LVL13:
  87 003a 02F8015F 		strb	r5, [r2, #1]!
  88              		.loc 1 66 0 discriminator 1
  89 003e 8C42     		cmp	r4, r1
  90 0040 F9D1     		bne	.L5
  91              		.loc 1 69 0
  92 0042 1844     		add	r0, r0, r3
  93 0044 F0BD     		pop	{r4, r5, r6, r7, pc}
  94              		.cfi_endproc
  95              	.LFE323:
  96              		.size	long_to_string_with_divisor, .-long_to_string_with_divisor
  97              		.global	__aeabi_d2f
  98              		.global	__aeabi_f2d
  99              		.global	__aeabi_i2d
 100              		.global	__aeabi_dsub
 101              		.global	__aeabi_ui2d
 102              		.global	__aeabi_dmul
 103              		.global	__aeabi_d2iz
 104              		.section	.text.chvprintf,"ax",%progbits
 105              		.align	1
 106              		.global	chvprintf
 107              		.syntax unified
 108              		.thumb
 109              		.thumb_func
 110              		.fpu fpv4-sp-d16
 111              		.type	chvprintf, %function
 112              	chvprintf:
 113              	.LFB326:
 114              		.loc 1 122 0
ARM GAS  /tmp/ccuUrixa.s 			page 3


 115              		.cfi_startproc
 116              		@ args = 0, pretend = 0, frame = 48
 117              		@ frame_needed = 0, uses_anonymous_args = 0
 118              	.LVL14:
 119 0000 2DE9F04F 		push	{r4, r5, r6, r7, r8, r9, r10, fp, lr}
 120              		.cfi_def_cfa_offset 36
 121              		.cfi_offset 4, -36
 122              		.cfi_offset 5, -32
 123              		.cfi_offset 6, -28
 124              		.cfi_offset 7, -24
 125              		.cfi_offset 8, -20
 126              		.cfi_offset 9, -16
 127              		.cfi_offset 10, -12
 128              		.cfi_offset 11, -8
 129              		.cfi_offset 14, -4
 130 0004 2DED028B 		vpush.64	{d8}
 131              		.cfi_def_cfa_offset 44
 132              		.cfi_offset 80, -44
 133              		.cfi_offset 81, -40
 134 0008 0746     		mov	r7, r0
 135 000a 8DB0     		sub	sp, sp, #52
 136              		.cfi_def_cfa_offset 96
 137              		.loc 1 122 0
 138 000c 1346     		mov	r3, r2
 139              	.LVL15:
 140              		.loc 1 125 0
 141 000e 4FF00008 		mov	r8, #0
 142              	.LVL16:
 143              	.L10:
 144              		.loc 1 136 0
 145 0012 0A78     		ldrb	r2, [r1]	@ zero_extendqisi2
 146              	.LVL17:
 147 0014 4C1C     		adds	r4, r1, #1
 148              	.LVL18:
 149              		.loc 1 137 0
 150 0016 002A     		cmp	r2, #0
 151 0018 00F05481 		beq	.L159
 152              	.LVL19:
 153              		.loc 1 139 0
 154 001c 252A     		cmp	r2, #37
 155 001e 09D0     		beq	.L12
 156              		.loc 1 140 0
 157 0020 3968     		ldr	r1, [r7]
 158 0022 0193     		str	r3, [sp, #4]
 159 0024 CD68     		ldr	r5, [r1, #12]
 160 0026 3846     		mov	r0, r7
 161 0028 1146     		mov	r1, r2
 162 002a A847     		blx	r5
 163              	.LVL20:
 164              		.loc 1 141 0
 165 002c 08F10108 		add	r8, r8, #1
 166              	.LVL21:
 167              		.loc 1 142 0
 168 0030 019B     		ldr	r3, [sp, #4]
 169 0032 9DE0     		b	.L13
 170              	.LVL22:
 171              	.L12:
ARM GAS  /tmp/ccuUrixa.s 			page 4


 172              		.loc 1 147 0
 173 0034 4A78     		ldrb	r2, [r1, #1]	@ zero_extendqisi2
 174              	.LVL23:
 175 0036 2D2A     		cmp	r2, #45
 176              		.loc 1 148 0
 177 0038 04BF     		itt	eq
 178 003a 8C1C     		addeq	r4, r1, #2
 179              	.LVL24:
 180              		.loc 1 149 0
 181 003c 0122     		moveq	r2, #1
 182              		.loc 1 152 0
 183 003e 2578     		ldrb	r5, [r4]	@ zero_extendqisi2
 184              		.loc 1 146 0
 185 0040 18BF     		it	ne
 186 0042 0022     		movne	r2, #0
 187              		.loc 1 152 0
 188 0044 302D     		cmp	r5, #48
 189              		.loc 1 146 0
 190 0046 0192     		str	r2, [sp, #4]
 191              	.LVL25:
 192              		.loc 1 153 0
 193 0048 0CBF     		ite	eq
 194 004a 0134     		addeq	r4, r4, #1
 195              	.LVL26:
 196              		.loc 1 151 0
 197 004c 2025     		movne	r5, #32
 198              	.LVL27:
 199              		.loc 1 156 0
 200 004e 0026     		movs	r6, #0
 201              	.LVL28:
 202              	.L18:
 203              		.loc 1 158 0
 204 0050 14F8012B 		ldrb	r2, [r4], #1	@ zero_extendqisi2
 205              	.LVL29:
 206              		.loc 1 159 0
 207 0054 A2F13001 		sub	r1, r2, #48
 208 0058 C9B2     		uxtb	r1, r1
 209 005a 0929     		cmp	r1, #9
 210 005c 03D9     		bls	.L16
 211              		.loc 1 161 0
 212 005e 2A2A     		cmp	r2, #42
 213 0060 05D1     		bne	.L17
 214              	.LVL30:
 215              		.loc 1 162 0
 216 0062 1978     		ldrb	r1, [r3]	@ zero_extendqisi2
 217              	.LVL31:
 218 0064 0433     		adds	r3, r3, #4
 219              	.LVL32:
 220              	.L16:
 221              		.loc 1 165 0
 222 0066 0A22     		movs	r2, #10
 223 0068 02FB0616 		mla	r6, r2, r6, r1
 224              	.LVL33:
 225              		.loc 1 158 0
 226 006c F0E7     		b	.L18
 227              	.LVL34:
 228              	.L17:
ARM GAS  /tmp/ccuUrixa.s 			page 5


 229              		.loc 1 168 0
 230 006e 2E2A     		cmp	r2, #46
 231 0070 4FF0000B 		mov	fp, #0
 232 0074 0ED1     		bne	.L19
 233              	.LVL35:
 234              	.L21:
 235              		.loc 1 170 0
 236 0076 14F8012B 		ldrb	r2, [r4], #1	@ zero_extendqisi2
 237              	.LVL36:
 238              		.loc 1 171 0
 239 007a A2F13001 		sub	r1, r2, #48
 240 007e C9B2     		uxtb	r1, r1
 241 0080 0929     		cmp	r1, #9
 242 0082 03D9     		bls	.L20
 243              		.loc 1 173 0
 244 0084 2A2A     		cmp	r2, #42
 245 0086 05D1     		bne	.L19
 246              	.LVL37:
 247              		.loc 1 174 0
 248 0088 1978     		ldrb	r1, [r3]	@ zero_extendqisi2
 249              	.LVL38:
 250 008a 0433     		adds	r3, r3, #4
 251              	.LVL39:
 252              	.L20:
 253              		.loc 1 178 0
 254 008c 0A22     		movs	r2, #10
 255 008e 02FB0B1B 		mla	fp, r2, fp, r1
 256              	.LVL40:
 257              		.loc 1 170 0
 258 0092 F0E7     		b	.L21
 259              	.LVL41:
 260              	.L19:
 261              		.loc 1 182 0
 262 0094 02F0DF01 		and	r1, r2, #223
 263 0098 4C29     		cmp	r1, #76
 264 009a 03D1     		bne	.L23
 265              	.LVL42:
 266              		.loc 1 184 0
 267 009c 2178     		ldrb	r1, [r4]	@ zero_extendqisi2
 268 009e 09B1     		cbz	r1, .L23
 269              		.loc 1 185 0
 270 00a0 0134     		adds	r4, r4, #1
 271              	.LVL43:
 272 00a2 0A46     		mov	r2, r1
 273              	.LVL44:
 274              	.L23:
 275              		.loc 1 191 0
 276 00a4 642A     		cmp	r2, #100
 277 00a6 1BD0     		beq	.L39
 278 00a8 00F2E080 		bhi	.L58
 279 00ac 4F2A     		cmp	r2, #79
 280 00ae 00F00781 		beq	.L59
 281 00b2 00F2D180 		bhi	.L60
 282 00b6 442A     		cmp	r2, #68
 283 00b8 12D0     		beq	.L39
 284 00ba 492A     		cmp	r2, #73
 285              	.L165:
ARM GAS  /tmp/ccuUrixa.s 			page 6


 286 00bc 10D0     		beq	.L39
 287              	.L24:
 288              	.LVL45:
 289              		.loc 1 248 0
 290 00be 0DF1300A 		add	r10, sp, #48
 291              		.loc 1 249 0
 292 00c2 9946     		mov	r9, r3
 293              		.loc 1 248 0
 294 00c4 0AF8182D 		strb	r2, [r10, #-24]!
 295 00c8 07E0     		b	.L167
 296              	.LVL46:
 297              	.L30:
 298              		.loc 1 194 0
 299 00ca 0DF1300A 		add	r10, sp, #48
 300 00ce 03F10409 		add	r9, r3, #4
 301              	.LVL47:
 302 00d2 1B68     		ldr	r3, [r3]
 303 00d4 0AF8183D 		strb	r3, [r10, #-24]!
 304              		.loc 1 193 0
 305 00d8 2025     		movs	r5, #32
 306              	.LVL48:
 307              	.L167:
 308              		.loc 1 248 0
 309 00da 0DF11900 		add	r0, sp, #25
 310              	.LVL49:
 311              		.loc 1 249 0
 312 00de 12E0     		b	.L35
 313              	.LVL50:
 314              	.L39:
 315              		.loc 1 212 0
 316 00e0 1968     		ldr	r1, [r3]
 317              		.loc 1 213 0
 318 00e2 0029     		cmp	r1, #0
 319              		.loc 1 212 0
 320 00e4 03F10409 		add	r9, r3, #4
 321              	.LVL51:
 322              		.loc 1 214 0
 323 00e8 BFBF     		itttt	lt
 324 00ea 2D23     		movlt	r3, #45
 325 00ec 8DF81830 		strblt	r3, [sp, #24]
 326              		.loc 1 215 0
 327 00f0 4942     		rsblt	r1, r1, #0
 328              	.LVL52:
 329              		.loc 1 214 0
 330 00f2 0DF11900 		addlt	r0, sp, #25
 331              		.loc 1 144 0
 332 00f6 A8BF     		it	ge
 333 00f8 06A8     		addge	r0, sp, #24
 334              	.LVL53:
 335              	.LBB8:
 336              	.LBB9:
 337              		.loc 1 73 0
 338 00fa 0023     		movs	r3, #0
 339 00fc 0A22     		movs	r2, #10
 340              	.LVL54:
 341              	.L166:
 342              	.LBE9:
ARM GAS  /tmp/ccuUrixa.s 			page 7


 343              	.LBE8:
 344              	.LBB10:
 345              	.LBB11:
 346 00fe FFF7FEFF 		bl	long_to_string_with_divisor
 347              	.LVL55:
 348              	.LBE11:
 349              	.LBE10:
 350              		.loc 1 145 0
 351 0102 0DF1180A 		add	r10, sp, #24
 352              	.LVL56:
 353              	.L35:
 354              		.loc 1 251 0
 355 0106 A0EB0A0B 		sub	fp, r0, r10
 356              	.LVL57:
 357              		.loc 1 254 0
 358 010a 019A     		ldr	r2, [sp, #4]
 359              		.loc 1 252 0
 360 010c A6EB0B06 		sub	r6, r6, fp
 361              	.LVL58:
 362 0110 26EAE673 		bic	r3, r6, r6, asr #31
 363              	.LVL59:
 364              		.loc 1 254 0
 365 0114 002A     		cmp	r2, #0
 366 0116 40F08C80 		bne	.L69
 367              		.loc 1 255 0
 368 011a 5E42     		negs	r6, r3
 369              	.LVL60:
 370              		.loc 1 256 0
 371 011c DBB1     		cbz	r3, .L49
 372              		.loc 1 257 0
 373 011e 9AF80010 		ldrb	r1, [r10]	@ zero_extendqisi2
 374 0122 2D29     		cmp	r1, #45
 375 0124 0DD1     		bne	.L51
 376              		.loc 1 257 0 is_stmt 0 discriminator 1
 377 0126 302D     		cmp	r5, #48
 378 0128 0BD1     		bne	.L51
 379              		.loc 1 258 0 is_stmt 1
 380 012a 3A68     		ldr	r2, [r7]
 381 012c 0193     		str	r3, [sp, #4]
 382              	.LVL61:
 383 012e D268     		ldr	r2, [r2, #12]
 384 0130 3846     		mov	r0, r7
 385              	.LVL62:
 386 0132 9047     		blx	r2
 387              	.LVL63:
 388              		.loc 1 260 0
 389 0134 019B     		ldr	r3, [sp, #4]
 390              		.loc 1 258 0
 391 0136 0AF1010A 		add	r10, r10, #1
 392              	.LVL64:
 393              		.loc 1 259 0
 394 013a 08F10108 		add	r8, r8, #1
 395              	.LVL65:
 396              		.loc 1 260 0
 397 013e 0BF1FF3B 		add	fp, fp, #-1
 398              	.LVL66:
 399              	.L51:
ARM GAS  /tmp/ccuUrixa.s 			page 8


 400              		.loc 1 263 0 discriminator 1
 401 0142 3A68     		ldr	r2, [r7]
 402 0144 0193     		str	r3, [sp, #4]
 403 0146 D268     		ldr	r2, [r2, #12]
 404 0148 2946     		mov	r1, r5
 405 014a 3846     		mov	r0, r7
 406 014c 9047     		blx	r2
 407              	.LVL67:
 408              		.loc 1 265 0 discriminator 1
 409 014e 0136     		adds	r6, r6, #1
 410              	.LVL68:
 411 0150 019B     		ldr	r3, [sp, #4]
 412 0152 F6D1     		bne	.L51
 413 0154 9844     		add	r8, r8, r3
 414              	.L49:
 415 0156 5B46     		mov	r3, fp
 416              	.LVL69:
 417              	.L52:
 418              		.loc 1 267 0
 419 0158 013B     		subs	r3, r3, #1
 420              	.LVL70:
 421 015a 6CD5     		bpl	.L53
 422 015c BBF1000F 		cmp	fp, #0
 423 0160 A8BF     		it	ge
 424 0162 D844     		addge	r8, r8, fp
 425 0164 B246     		mov	r10, r6
 426              	.LVL71:
 427              	.L54:
 428              		.loc 1 272 0
 429 0166 BAF1000F 		cmp	r10, #0
 430 016a 6DD1     		bne	.L55
 431 016c B044     		add	r8, r8, r6
 432 016e 4B46     		mov	r3, r9
 433              	.LVL72:
 434              	.L13:
 435 0170 2146     		mov	r1, r4
 436 0172 4EE7     		b	.L10
 437              	.LVL73:
 438              	.L33:
 439              		.loc 1 221 0
 440 0174 0733     		adds	r3, r3, #7
 441              	.LVL74:
 442 0176 23F00703 		bic	r3, r3, #7
 443              	.LVL75:
 444 017a D3E90001 		ldrd	r0, [r3]
 445 017e 03F10809 		add	r9, r3, #8
 446              	.LVL76:
 447 0182 FFF7FEFF 		bl	__aeabi_d2f
 448              	.LVL77:
 449 0186 08EE100A 		vmov	s16, r0
 450              	.LVL78:
 451              		.loc 1 222 0
 452 018a B5EEC08A 		vcmpe.f32	s16, #0
 453 018e F1EE10FA 		vmrs	APSR_nzcv, FPSCR
 454              	.LVL79:
 455              		.loc 1 224 0
 456 0192 44BF     		itt	mi
ARM GAS  /tmp/ccuUrixa.s 			page 9


 457 0194 B1EE488A 		vnegmi.f32	s16, s16
 458              	.LVL80:
 459              		.loc 1 223 0
 460 0198 2D23     		movmi	r3, #45
 461              		.loc 1 226 0
 462 019a 18EE100A 		vmov	r0, s16
 463              		.loc 1 223 0
 464 019e 4ABF     		itet	mi
 465 01a0 0DF1190A 		addmi	r10, sp, #25
 466              		.loc 1 144 0
 467 01a4 0DF1180A 		addpl	r10, sp, #24
 468              	.LVL81:
 469              		.loc 1 223 0
 470 01a8 8DF81830 		strbmi	r3, [sp, #24]
 471              		.loc 1 226 0
 472 01ac FFF7FEFF 		bl	__aeabi_f2d
 473              	.LVL82:
 474              	.LBB13:
 475              	.LBB14:
 476              		.loc 1 84 0
 477 01b0 0BF1FF33 		add	r3, fp, #-1
 478              		.loc 1 85 0
 479 01b4 092B     		cmp	r3, #9
 480 01b6 28BF     		it	cs
 481 01b8 4FF0090B 		movcs	fp, #9
 482              	.LVL83:
 483              		.loc 1 88 0
 484 01bc FDEEC87A 		vcvt.s32.f32	s15, s16
 485              		.loc 1 86 0
 486 01c0 434B     		ldr	r3, .L184
 487              	.LVL84:
 488              		.loc 1 88 0
 489 01c2 CDED027A 		vstr.32	s15, [sp, #8]	@ int
 490              		.loc 1 86 0
 491 01c6 0BF1FF3B 		add	fp, fp, #-1
 492              	.LBE14:
 493              	.LBE13:
 494              		.loc 1 226 0
 495 01ca CDE90401 		strd	r0, [sp, #16]
 496              	.LVL85:
 497              	.LBB16:
 498              	.LBB15:
 499              		.loc 1 86 0
 500 01ce 53F82BB0 		ldr	fp, [r3, fp, lsl #2]
 501              	.LVL86:
 502              		.loc 1 89 0
 503 01d2 17EE901A 		vmov	r1, s15	@ int
 504 01d6 0A22     		movs	r2, #10
 505 01d8 0023     		movs	r3, #0
 506 01da 5046     		mov	r0, r10
 507              	.LVL87:
 508 01dc FFF7FEFF 		bl	long_to_string_with_divisor
 509              	.LVL88:
 510              		.loc 1 90 0
 511 01e0 8246     		mov	r10, r0
 512              	.LVL89:
 513 01e2 2E23     		movs	r3, #46
ARM GAS  /tmp/ccuUrixa.s 			page 10


 514 01e4 0AF8013B 		strb	r3, [r10], #1
 515              	.LVL90:
 516              		.loc 1 91 0
 517 01e8 0298     		ldr	r0, [sp, #8]
 518 01ea FFF7FEFF 		bl	__aeabi_i2d
 519              	.LVL91:
 520 01ee 0246     		mov	r2, r0
 521 01f0 0B46     		mov	r3, r1
 522 01f2 DDE90401 		ldrd	r0, [sp, #16]
 523 01f6 FFF7FEFF 		bl	__aeabi_dsub
 524              	.LVL92:
 525 01fa CDE90201 		strd	r0, [sp, #8]
 526              	.LVL93:
 527 01fe 5846     		mov	r0, fp
 528 0200 FFF7FEFF 		bl	__aeabi_ui2d
 529              	.LVL94:
 530 0204 0246     		mov	r2, r0
 531 0206 0B46     		mov	r3, r1
 532 0208 DDE90201 		ldrd	r0, [sp, #8]
 533 020c FFF7FEFF 		bl	__aeabi_dmul
 534              	.LVL95:
 535              		.loc 1 92 0
 536 0210 0A23     		movs	r3, #10
 537 0212 BBFBF3FB 		udiv	fp, fp, r3
 538              	.LVL96:
 539              		.loc 1 91 0
 540 0216 FFF7FEFF 		bl	__aeabi_d2iz
 541              	.LVL97:
 542              		.loc 1 92 0
 543 021a 5B46     		mov	r3, fp
 544 021c 0146     		mov	r1, r0
 545 021e 0A22     		movs	r2, #10
 546 0220 5046     		mov	r0, r10
 547 0222 6CE7     		b	.L166
 548              	.L27:
 549              	.LVL98:
 550              	.L71:
 551              	.LBE15:
 552              	.LBE16:
 553              		.loc 1 231 0
 554 0224 1022     		movs	r2, #16
 555              	.LVL99:
 556              	.L46:
 557              		.loc 1 244 0
 558 0226 03F10409 		add	r9, r3, #4
 559              	.LVL100:
 560 022a 1968     		ldr	r1, [r3]
 561              	.LVL101:
 562              	.LBB17:
 563              	.LBB12:
 564              		.loc 1 73 0
 565 022c 06A8     		add	r0, sp, #24
 566              	.LVL102:
 567 022e 0023     		movs	r3, #0
 568 0230 65E7     		b	.L166
 569              	.LVL103:
 570              	.L69:
ARM GAS  /tmp/ccuUrixa.s 			page 11


 571              	.LBE12:
 572              	.LBE17:
 573 0232 1E46     		mov	r6, r3
 574 0234 8FE7     		b	.L49
 575              	.LVL104:
 576              	.L53:
 577              		.loc 1 268 0
 578 0236 3A68     		ldr	r2, [r7]
 579 0238 1AF8011B 		ldrb	r1, [r10], #1	@ zero_extendqisi2
 580              	.LVL105:
 581 023c D268     		ldr	r2, [r2, #12]
 582 023e 0193     		str	r3, [sp, #4]
 583              	.LVL106:
 584 0240 3846     		mov	r0, r7
 585 0242 9047     		blx	r2
 586              	.LVL107:
 587 0244 019B     		ldr	r3, [sp, #4]
 588 0246 87E7     		b	.L52
 589              	.LVL108:
 590              	.L55:
 591              		.loc 1 273 0
 592 0248 3B68     		ldr	r3, [r7]
 593 024a 2946     		mov	r1, r5
 594 024c DB68     		ldr	r3, [r3, #12]
 595 024e 3846     		mov	r0, r7
 596 0250 9847     		blx	r3
 597              	.LVL109:
 598              		.loc 1 275 0
 599 0252 0AF1FF3A 		add	r10, r10, #-1
 600              	.LVL110:
 601 0256 86E7     		b	.L54
 602              	.LVL111:
 603              	.L60:
 604              		.loc 1 191 0
 605 0258 582A     		cmp	r2, #88
 606 025a E3D0     		beq	.L71
 607 025c 632A     		cmp	r2, #99
 608 025e 3FF434AF 		beq	.L30
 609 0262 552A     		cmp	r2, #85
 610 0264 7FF42BAF 		bne	.L24
 611              	.L70:
 612              		.loc 1 235 0
 613 0268 0A22     		movs	r2, #10
 614              	.LVL112:
 615 026a DCE7     		b	.L46
 616              	.LVL113:
 617              	.L58:
 618              		.loc 1 191 0
 619 026c 6F2A     		cmp	r2, #111
 620 026e 27D0     		beq	.L59
 621 0270 04D8     		bhi	.L61
 622 0272 662A     		cmp	r2, #102
 623 0274 3FF47EAF 		beq	.L33
 624 0278 692A     		cmp	r2, #105
 625 027a 1FE7     		b	.L165
 626              	.L61:
 627 027c 752A     		cmp	r2, #117
ARM GAS  /tmp/ccuUrixa.s 			page 12


 628 027e F3D0     		beq	.L70
 629 0280 782A     		cmp	r2, #120
 630 0282 CFD0     		beq	.L71
 631 0284 732A     		cmp	r2, #115
 632 0286 7FF41AAF 		bne	.L24
 633              	.LVL114:
 634              		.loc 1 198 0
 635 028a D3F800A0 		ldr	r10, [r3]
 636 028e 03F10409 		add	r9, r3, #4
 637              	.LVL115:
 638              		.loc 1 199 0
 639 0292 104B     		ldr	r3, .L184+4
 640 0294 BAF1000F 		cmp	r10, #0
 641 0298 08BF     		it	eq
 642 029a 9A46     		moveq	r10, r3
 643              	.LVL116:
 644              		.loc 1 201 0
 645 029c 47F6FF73 		movw	r3, #32767
 646 02a0 BBF1000F 		cmp	fp, #0
 647 02a4 08BF     		it	eq
 648 02a6 9B46     		moveq	fp, r3
 649              	.LVL117:
 650 02a8 5346     		mov	r3, r10
 651              	.LVL118:
 652              	.L38:
 653 02aa 1846     		mov	r0, r3
 654              	.LVL119:
 655 02ac 0133     		adds	r3, r3, #1
 656              		.loc 1 202 0 discriminator 1
 657 02ae 0278     		ldrb	r2, [r0]	@ zero_extendqisi2
 658 02b0 22B1     		cbz	r2, .L66
 659              	.LVL120:
 660 02b2 ABEB0302 		sub	r2, fp, r3
 661              		.loc 1 202 0 is_stmt 0 discriminator 3
 662 02b6 1AEB020F 		cmn	r10, r2
 663 02ba F6D5     		bpl	.L38
 664              	.LVL121:
 665              	.L66:
 666              		.loc 1 197 0 is_stmt 1
 667 02bc 2025     		movs	r5, #32
 668 02be 22E7     		b	.L35
 669              	.LVL122:
 670              	.L59:
 671              		.loc 1 239 0
 672 02c0 0822     		movs	r2, #8
 673              	.LVL123:
 674 02c2 B0E7     		b	.L46
 675              	.LVL124:
 676              	.L159:
 677              		.loc 1 278 0
 678 02c4 4046     		mov	r0, r8
 679 02c6 0DB0     		add	sp, sp, #52
 680              		.cfi_def_cfa_offset 44
 681              		@ sp needed
 682 02c8 BDEC028B 		vldm	sp!, {d8}
 683              		.cfi_restore 80
 684              		.cfi_restore 81
ARM GAS  /tmp/ccuUrixa.s 			page 13


 685              		.cfi_def_cfa_offset 36
 686 02cc BDE8F08F 		pop	{r4, r5, r6, r7, r8, r9, r10, fp, pc}
 687              	.LVL125:
 688              	.L185:
 689              		.align	2
 690              	.L184:
 691 02d0 00000000 		.word	.LANCHOR0
 692 02d4 00000000 		.word	.LC0
 693              		.cfi_endproc
 694              	.LFE326:
 695              		.size	chvprintf, .-chvprintf
 696              		.section	.text.chprintf,"ax",%progbits
 697              		.align	1
 698              		.global	chprintf
 699              		.syntax unified
 700              		.thumb
 701              		.thumb_func
 702              		.fpu fpv4-sp-d16
 703              		.type	chprintf, %function
 704              	chprintf:
 705              	.LFB327:
 706              		.loc 1 305 0
 707              		.cfi_startproc
 708              		@ args = 4, pretend = 12, frame = 8
 709              		@ frame_needed = 0, uses_anonymous_args = 1
 710              	.LVL126:
 711 0000 0EB4     		push	{r1, r2, r3}
 712              		.cfi_def_cfa_offset 12
 713              		.cfi_offset 1, -12
 714              		.cfi_offset 2, -8
 715              		.cfi_offset 3, -4
 716 0002 03B5     		push	{r0, r1, lr}
 717              		.cfi_def_cfa_offset 24
 718              		.cfi_offset 14, -16
 719              		.loc 1 305 0
 720 0004 03AA     		add	r2, sp, #12
 721 0006 52F8041B 		ldr	r1, [r2], #4
 722              		.loc 1 309 0
 723 000a 0192     		str	r2, [sp, #4]
 724              		.loc 1 310 0
 725 000c FFF7FEFF 		bl	chvprintf
 726              	.LVL127:
 727              		.loc 1 314 0
 728 0010 02B0     		add	sp, sp, #8
 729              		.cfi_def_cfa_offset 16
 730              		@ sp needed
 731 0012 5DF804EB 		ldr	lr, [sp], #4
 732              		.cfi_restore 14
 733              		.cfi_def_cfa_offset 12
 734 0016 03B0     		add	sp, sp, #12
 735              		.cfi_restore 3
 736              		.cfi_restore 2
 737              		.cfi_restore 1
 738              		.cfi_def_cfa_offset 0
 739 0018 7047     		bx	lr
 740              		.cfi_endproc
 741              	.LFE327:
ARM GAS  /tmp/ccuUrixa.s 			page 14


 742              		.size	chprintf, .-chprintf
 743              		.section	.text.chvsnprintf,"ax",%progbits
 744              		.align	1
 745              		.global	chvsnprintf
 746              		.syntax unified
 747              		.thumb
 748              		.thumb_func
 749              		.fpu fpv4-sp-d16
 750              		.type	chvsnprintf, %function
 751              	chvsnprintf:
 752              	.LFB329:
 753              		.loc 1 384 0
 754              		.cfi_startproc
 755              		@ args = 0, pretend = 0, frame = 24
 756              		@ frame_needed = 0, uses_anonymous_args = 0
 757              	.LVL128:
 758 0000 F0B5     		push	{r4, r5, r6, r7, lr}
 759              		.cfi_def_cfa_offset 20
 760              		.cfi_offset 4, -20
 761              		.cfi_offset 5, -16
 762              		.cfi_offset 6, -12
 763              		.cfi_offset 7, -8
 764              		.cfi_offset 14, -4
 765 0002 0546     		mov	r5, r0
 766 0004 87B0     		sub	sp, sp, #28
 767              		.cfi_def_cfa_offset 48
 768              		.loc 1 384 0
 769 0006 1646     		mov	r6, r2
 770 0008 1F46     		mov	r7, r3
 771              		.loc 1 390 0
 772 000a 0C46     		mov	r4, r1
 773 000c 89B1     		cbz	r1, .L190
 774              		.loc 1 391 0
 775 000e 4A1E     		subs	r2, r1, #1
 776              	.LVL129:
 777              	.L188:
 778              		.loc 1 397 0
 779 0010 0023     		movs	r3, #0
 780              	.LVL130:
 781 0012 2946     		mov	r1, r5
 782              	.LVL131:
 783 0014 01A8     		add	r0, sp, #4
 784              	.LVL132:
 785 0016 FFF7FEFF 		bl	msObjectInit
 786              	.LVL133:
 787              		.loc 1 401 0
 788 001a 3A46     		mov	r2, r7
 789 001c 3146     		mov	r1, r6
 790 001e 01A8     		add	r0, sp, #4
 791              	.LVL134:
 792 0020 FFF7FEFF 		bl	chvprintf
 793              	.LVL135:
 794              		.loc 1 404 0
 795 0024 049B     		ldr	r3, [sp, #16]
 796 0026 9C42     		cmp	r4, r3
 797              		.loc 1 405 0
 798 0028 84BF     		itt	hi
ARM GAS  /tmp/ccuUrixa.s 			page 15


 799 002a 0022     		movhi	r2, #0
 800 002c EA54     		strbhi	r2, [r5, r3]
 801              		.loc 1 410 0
 802 002e 07B0     		add	sp, sp, #28
 803              		.cfi_remember_state
 804              		.cfi_def_cfa_offset 20
 805              		@ sp needed
 806 0030 F0BD     		pop	{r4, r5, r6, r7, pc}
 807              	.LVL136:
 808              	.L190:
 809              		.cfi_restore_state
 810              		.loc 1 393 0
 811 0032 0A46     		mov	r2, r1
 812              	.LVL137:
 813 0034 ECE7     		b	.L188
 814              		.cfi_endproc
 815              	.LFE329:
 816              		.size	chvsnprintf, .-chvsnprintf
 817              		.section	.text.chsnprintf,"ax",%progbits
 818              		.align	1
 819              		.global	chsnprintf
 820              		.syntax unified
 821              		.thumb
 822              		.thumb_func
 823              		.fpu fpv4-sp-d16
 824              		.type	chsnprintf, %function
 825              	chsnprintf:
 826              	.LFB328:
 827              		.loc 1 343 0
 828              		.cfi_startproc
 829              		@ args = 4, pretend = 8, frame = 8
 830              		@ frame_needed = 0, uses_anonymous_args = 1
 831              	.LVL138:
 832 0000 0CB4     		push	{r2, r3}
 833              		.cfi_def_cfa_offset 8
 834              		.cfi_offset 2, -8
 835              		.cfi_offset 3, -4
 836 0002 07B5     		push	{r0, r1, r2, lr}
 837              		.cfi_def_cfa_offset 24
 838              		.cfi_offset 14, -12
 839              		.loc 1 343 0
 840 0004 04AB     		add	r3, sp, #16
 841 0006 53F8042B 		ldr	r2, [r3], #4
 842              		.loc 1 348 0
 843 000a 0193     		str	r3, [sp, #4]
 844              		.loc 1 349 0
 845 000c FFF7FEFF 		bl	chvsnprintf
 846              	.LVL139:
 847              		.loc 1 354 0
 848 0010 03B0     		add	sp, sp, #12
 849              		.cfi_def_cfa_offset 12
 850              		@ sp needed
 851 0012 5DF804EB 		ldr	lr, [sp], #4
 852              		.cfi_restore 14
 853              		.cfi_def_cfa_offset 8
 854 0016 02B0     		add	sp, sp, #8
 855              		.cfi_restore 3
ARM GAS  /tmp/ccuUrixa.s 			page 16


 856              		.cfi_restore 2
 857              		.cfi_def_cfa_offset 0
 858 0018 7047     		bx	lr
 859              		.cfi_endproc
 860              	.LFE328:
 861              		.size	chsnprintf, .-chsnprintf
 862              		.section	.rodata.chvprintf.str1.1,"aMS",%progbits,1
 863              	.LC0:
 864 0000 286E756C 		.ascii	"(null)\000"
 864      6C2900
 865              		.section	.rodata.pow10,"a",%progbits
 866              		.align	2
 867              		.set	.LANCHOR0,. + 0
 868              		.type	pow10, %object
 869              		.size	pow10, 36
 870              	pow10:
 871 0000 0A000000 		.word	10
 872 0004 64000000 		.word	100
 873 0008 E8030000 		.word	1000
 874 000c 10270000 		.word	10000
 875 0010 A0860100 		.word	100000
 876 0014 40420F00 		.word	1000000
 877 0018 80969800 		.word	10000000
 878 001c 00E1F505 		.word	100000000
 879 0020 00CA9A3B 		.word	1000000000
 880              		.text
 881              	.Letext0:
 882              		.file 2 "/opt/gcc-arm-none-eabi-6-2017-q2-update/lib/gcc/arm-none-eabi/6.3.1/include/stddef.h"
 883              		.file 3 "/opt/gcc-arm-none-eabi-6-2017-q2-update/arm-none-eabi/include/machine/_default_types.h"
 884              		.file 4 "/opt/gcc-arm-none-eabi-6-2017-q2-update/arm-none-eabi/include/sys/_stdint.h"
 885              		.file 5 "/opt/gcc-arm-none-eabi-6-2017-q2-update/arm-none-eabi/include/stdint.h"
 886              		.file 6 "../../modules/ChibiOS/os/common/ports/ARMCMx/compilers/GCC/chtypes.h"
 887              		.file 7 "../../modules/ChibiOS/os/rt/include/chsystypes.h"
 888              		.file 8 "../../modules/ChibiOS/os/rt/include/chschd.h"
 889              		.file 9 "../../modules/ChibiOS/os/rt/include/chtime.h"
 890              		.file 10 "../../modules/ChibiOS/os/common/ext/ARM/CMSIS/Core/Include/core_cm4.h"
 891              		.file 11 "../../modules/ChibiOS/os/common/ext/ST/STM32F4xx/system_stm32f4xx.h"
 892              		.file 12 "../../modules/ChibiOS/os/common/ext/ST/STM32F4xx/stm32f427xx.h"
 893              		.file 13 "../../modules/ChibiOS/os/common/ports/ARMCMx/chcore.h"
 894              		.file 14 "../../modules/ChibiOS/os/common/ports/ARMCMx/chcore_v7m.h"
 895              		.file 15 "../../modules/ChibiOS/os/hal/ports/STM32/LLD/TIMv1/stm32_tim.h"
 896              		.file 16 "../../modules/ChibiOS/os/rt/include/chtm.h"
 897              		.file 17 "../../modules/ChibiOS/os/rt/include/chsem.h"
 898              		.file 18 "../../modules/ChibiOS/os/rt/include/chmtx.h"
 899              		.file 19 "../../modules/ChibiOS/os/rt/include/chsys.h"
 900              		.file 20 "../../modules/ChibiOS/os/rt/include/chregistry.h"
 901              		.file 21 "../../modules/ChibiOS/os/rt/include/chevents.h"
 902              		.file 22 "../../modules/ChibiOS/os/oslib/include/chmemcore.h"
 903              		.file 23 "../../modules/ChibiOS/os/oslib/include/chmempools.h"
 904              		.file 24 "../../modules/ChibiOS/os/oslib/include/chfactory.h"
 905              		.file 25 "../../modules/ChibiOS/os/hal/ports/STM32/LLD/DMAv2/stm32_dma.h"
 906              		.file 26 "../../modules/ChibiOS/os/hal/include/hal_streams.h"
 907              		.file 27 "../../modules/ChibiOS/os/hal/include/hal_ioblock.h"
 908              		.file 28 "../../modules/ChibiOS/os/hal/include/hal_queues.h"
 909              		.file 29 "../../modules/ChibiOS/os/hal/include/hal_pal.h"
 910              		.file 30 "../../modules/ChibiOS/os/hal/ports/STM32/LLD/GPIOv2/stm32_gpio.h"
 911              		.file 31 "../../modules/ChibiOS/os/hal/ports/STM32/LLD/GPIOv2/hal_pal_lld.h"
ARM GAS  /tmp/ccuUrixa.s 			page 17


 912              		.file 32 "../../modules/ChibiOS/os/hal/include/hal_adc.h"
 913              		.file 33 "../../modules/ChibiOS/os/hal/ports/STM32/LLD/ADCv2/hal_adc_lld.h"
 914              		.file 34 "../../modules/ChibiOS/os/hal/include/hal_i2c.h"
 915              		.file 35 "../../modules/ChibiOS/os/hal/ports/STM32/LLD/I2Cv1/hal_i2c_lld.h"
 916              		.file 36 "../../modules/ChibiOS/os/hal/include/hal_pwm.h"
 917              		.file 37 "../../modules/ChibiOS/os/hal/ports/STM32/LLD/TIMv1/hal_pwm_lld.h"
 918              		.file 38 "../../modules/ChibiOS/os/hal/include/hal_serial.h"
 919              		.file 39 "../../modules/ChibiOS/os/hal/ports/STM32/LLD/USARTv1/hal_serial_lld.h"
 920              		.file 40 "../../modules/ChibiOS/os/hal/include/hal_sdc.h"
 921              		.file 41 "../../modules/ChibiOS/os/hal/ports/STM32/LLD/SDIOv1/hal_sdc_lld.h"
 922              		.file 42 "../../modules/ChibiOS/os/hal/include/hal_spi.h"
 923              		.file 43 "../../modules/ChibiOS/os/hal/ports/STM32/LLD/SPIv1/hal_spi_lld.h"
 924              		.file 44 "../../modules/ChibiOS/os/hal/include/hal_usb.h"
 925              		.file 45 "../../modules/ChibiOS/os/hal/ports/STM32/LLD/OTGv1/hal_usb_lld.h"
 926              		.file 46 "../../modules/ChibiOS/os/hal/ports/STM32/LLD/OTGv1/stm32_otg.h"
 927              		.file 47 "/opt/gcc-arm-none-eabi-6-2017-q2-update/lib/gcc/arm-none-eabi/6.3.1/include/stdarg.h"
 928              		.file 48 "<built-in>"
 929              		.file 49 "../../modules/ChibiOS/os/hal/lib/streams/memstreams.h"