ARM GAS  /tmp/cc7cIEMz.s 			page 1


   1              		.cpu cortex-m4
   2              		.eabi_attribute 27, 1
   3              		.eabi_attribute 28, 1
   4              		.eabi_attribute 20, 1
   5              		.eabi_attribute 21, 1
   6              		.eabi_attribute 23, 3
   7              		.eabi_attribute 24, 1
   8              		.eabi_attribute 25, 1
   9              		.eabi_attribute 26, 1
  10              		.eabi_attribute 30, 4
  11              		.eabi_attribute 34, 1
  12              		.eabi_attribute 18, 4
  13              		.file	"chregistry.c"
  14              		.text
  15              	.Ltext0:
  16              		.cfi_sections	.debug_frame
  17              		.section	.text.chRegFirstThread,"ax",%progbits
  18              		.align	1
  19              		.global	chRegFirstThread
  20              		.syntax unified
  21              		.thumb
  22              		.thumb_func
  23              		.fpu fpv4-sp-d16
  24              		.type	chRegFirstThread, %function
  25              	chRegFirstThread:
  26              	.LFB290:
  27              		.file 1 "../../modules/ChibiOS/os/rt/src/chregistry.c"
  28              		.loc 1 134 0
  29              		.cfi_startproc
  30              		@ args = 0, pretend = 0, frame = 0
  31              		@ frame_needed = 0, uses_anonymous_args = 0
  32              		@ link register save eliminated.
  33              	.LVL0:
  34              	.LBB38:
  35              	.LBB39:
  36              	.LBB40:
  37              	.LBB41:
  38              		.file 2 "../../modules/ChibiOS/os/common/ext/ARM/CMSIS/Core/Include/cmsis_gcc.h"
  39              		.loc 2 493 0
  40 0000 2023     		movs	r3, #32
  41              		.syntax unified
  42              	@ 493 "../../modules/ChibiOS/os/common/ext/ARM/CMSIS/Core/Include/cmsis_gcc.h" 1
  43 0002 83F31188 		MSR basepri, r3
  44              	@ 0 "" 2
  45              	.LVL1:
  46              		.thumb
  47              		.syntax unified
  48              	.LBE41:
  49              	.LBE40:
  50              	.LBE39:
  51              	.LBE38:
  52              		.loc 1 138 0
  53 0006 054B     		ldr	r3, .L2
  54 0008 1869     		ldr	r0, [r3, #16]
  55              	.LVL2:
  56              		.loc 1 140 0
  57 000a 90F82230 		ldrb	r3, [r0, #34]	@ zero_extendqisi2
ARM GAS  /tmp/cc7cIEMz.s 			page 2


  58 000e 0133     		adds	r3, r3, #1
  59 0010 80F82230 		strb	r3, [r0, #34]
  60              	.LVL3:
  61              	.LBB42:
  62              	.LBB43:
  63              	.LBB44:
  64              	.LBB45:
  65              	.LBB46:
  66              		.loc 2 493 0
  67 0014 0023     		movs	r3, #0
  68              		.syntax unified
  69              	@ 493 "../../modules/ChibiOS/os/common/ext/ARM/CMSIS/Core/Include/cmsis_gcc.h" 1
  70 0016 83F31188 		MSR basepri, r3
  71              	@ 0 "" 2
  72              	.LVL4:
  73              		.thumb
  74              		.syntax unified
  75              	.LBE46:
  76              	.LBE45:
  77              	.LBE44:
  78              	.LBE43:
  79              	.LBE42:
  80              		.loc 1 145 0
  81 001a 7047     		bx	lr
  82              	.L3:
  83              		.align	2
  84              	.L2:
  85 001c 00000000 		.word	ch
  86              		.cfi_endproc
  87              	.LFE290:
  88              		.size	chRegFirstThread, .-chRegFirstThread
  89              		.section	.text.chRegNextThread,"ax",%progbits
  90              		.align	1
  91              		.global	chRegNextThread
  92              		.syntax unified
  93              		.thumb
  94              		.thumb_func
  95              		.fpu fpv4-sp-d16
  96              		.type	chRegNextThread, %function
  97              	chRegNextThread:
  98              	.LFB291:
  99              		.loc 1 158 0
 100              		.cfi_startproc
 101              		@ args = 0, pretend = 0, frame = 0
 102              		@ frame_needed = 0, uses_anonymous_args = 0
 103              	.LVL5:
 104 0000 10B5     		push	{r4, lr}
 105              		.cfi_def_cfa_offset 8
 106              		.cfi_offset 4, -8
 107              		.cfi_offset 14, -4
 108              	.LBB47:
 109              	.LBB48:
 110              	.LBB49:
 111              	.LBB50:
 112              		.loc 2 493 0
 113 0002 2023     		movs	r3, #32
 114              		.syntax unified
ARM GAS  /tmp/cc7cIEMz.s 			page 3


 115              	@ 493 "../../modules/ChibiOS/os/common/ext/ARM/CMSIS/Core/Include/cmsis_gcc.h" 1
 116 0004 83F31188 		MSR basepri, r3
 117              	@ 0 "" 2
 118              	.LVL6:
 119              		.thumb
 120              		.syntax unified
 121              	.LBE50:
 122              	.LBE49:
 123              	.LBE48:
 124              	.LBE47:
 125              		.loc 1 164 0
 126 0008 094B     		ldr	r3, .L7
 127              		.loc 1 162 0
 128 000a 0469     		ldr	r4, [r0, #16]
 129              	.LVL7:
 130              		.loc 1 164 0
 131 000c 9C42     		cmp	r4, r3
 132              		.loc 1 171 0
 133 000e 18BF     		it	ne
 134 0010 94F82230 		ldrbne	r3, [r4, #34]	@ zero_extendqisi2
 135 0014 4FF00002 		mov	r2, #0
 136 0018 1ABF     		itte	ne
 137 001a 0133     		addne	r3, r3, #1
 138 001c 84F82230 		strbne	r3, [r4, #34]
 139              		.loc 1 166 0
 140 0020 1446     		moveq	r4, r2
 141              	.LVL8:
 142              	.LBB51:
 143              	.LBB52:
 144              	.LBB53:
 145              	.LBB54:
 146              	.LBB55:
 147              		.loc 2 493 0
 148              		.syntax unified
 149              	@ 493 "../../modules/ChibiOS/os/common/ext/ARM/CMSIS/Core/Include/cmsis_gcc.h" 1
 150 0022 82F31188 		MSR basepri, r2
 151              	@ 0 "" 2
 152              	.LVL9:
 153              		.thumb
 154              		.syntax unified
 155              	.LBE55:
 156              	.LBE54:
 157              	.LBE53:
 158              	.LBE52:
 159              	.LBE51:
 160              		.loc 1 176 0
 161 0026 FFF7FEFF 		bl	chThdRelease
 162              	.LVL10:
 163              		.loc 1 180 0
 164 002a 2046     		mov	r0, r4
 165 002c 10BD     		pop	{r4, pc}
 166              	.LVL11:
 167              	.L8:
 168 002e 00BF     		.align	2
 169              	.L7:
 170 0030 00000000 		.word	ch
 171              		.cfi_endproc
ARM GAS  /tmp/cc7cIEMz.s 			page 4


 172              	.LFE291:
 173              		.size	chRegNextThread, .-chRegNextThread
 174              		.section	.text.chRegFindThreadByName,"ax",%progbits
 175              		.align	1
 176              		.global	chRegFindThreadByName
 177              		.syntax unified
 178              		.thumb
 179              		.thumb_func
 180              		.fpu fpv4-sp-d16
 181              		.type	chRegFindThreadByName, %function
 182              	chRegFindThreadByName:
 183              	.LFB292:
 184              		.loc 1 194 0
 185              		.cfi_startproc
 186              		@ args = 0, pretend = 0, frame = 0
 187              		@ frame_needed = 0, uses_anonymous_args = 0
 188              	.LVL12:
 189 0000 38B5     		push	{r3, r4, r5, lr}
 190              		.cfi_def_cfa_offset 16
 191              		.cfi_offset 3, -16
 192              		.cfi_offset 4, -12
 193              		.cfi_offset 5, -8
 194              		.cfi_offset 14, -4
 195              		.loc 1 194 0
 196 0002 0546     		mov	r5, r0
 197              		.loc 1 198 0
 198 0004 FFF7FEFF 		bl	chRegFirstThread
 199              	.LVL13:
 200 0008 0446     		mov	r4, r0
 201              	.LVL14:
 202              	.L11:
 203              		.loc 1 200 0
 204 000a 2946     		mov	r1, r5
 205 000c A069     		ldr	r0, [r4, #24]
 206              	.LVL15:
 207 000e FFF7FEFF 		bl	strcmp
 208              	.LVL16:
 209 0012 28B1     		cbz	r0, .L9
 210              		.loc 1 203 0
 211 0014 2046     		mov	r0, r4
 212 0016 FFF7FEFF 		bl	chRegNextThread
 213              	.LVL17:
 214              		.loc 1 204 0
 215 001a 0446     		mov	r4, r0
 216              	.LVL18:
 217 001c 0028     		cmp	r0, #0
 218 001e F4D1     		bne	.L11
 219              	.LVL19:
 220              	.L9:
 221              		.loc 1 207 0
 222 0020 2046     		mov	r0, r4
 223 0022 38BD     		pop	{r3, r4, r5, pc}
 224              		.cfi_endproc
 225              	.LFE292:
 226              		.size	chRegFindThreadByName, .-chRegFindThreadByName
 227              		.section	.text.chRegFindThreadByPointer,"ax",%progbits
 228              		.align	1
ARM GAS  /tmp/cc7cIEMz.s 			page 5


 229              		.global	chRegFindThreadByPointer
 230              		.syntax unified
 231              		.thumb
 232              		.thumb_func
 233              		.fpu fpv4-sp-d16
 234              		.type	chRegFindThreadByPointer, %function
 235              	chRegFindThreadByPointer:
 236              	.LFB293:
 237              		.loc 1 221 0
 238              		.cfi_startproc
 239              		@ args = 0, pretend = 0, frame = 0
 240              		@ frame_needed = 0, uses_anonymous_args = 0
 241              	.LVL20:
 242 0000 10B5     		push	{r4, lr}
 243              		.cfi_def_cfa_offset 8
 244              		.cfi_offset 4, -8
 245              		.cfi_offset 14, -4
 246              		.loc 1 221 0
 247 0002 0446     		mov	r4, r0
 248              		.loc 1 225 0
 249 0004 FFF7FEFF 		bl	chRegFirstThread
 250              	.LVL21:
 251              	.L18:
 252              		.loc 1 227 0
 253 0008 A042     		cmp	r0, r4
 254 000a 03D0     		beq	.L16
 255              		.loc 1 230 0
 256 000c FFF7FEFF 		bl	chRegNextThread
 257              	.LVL22:
 258              		.loc 1 231 0
 259 0010 0028     		cmp	r0, #0
 260 0012 F9D1     		bne	.L18
 261              	.L16:
 262              		.loc 1 234 0
 263 0014 10BD     		pop	{r4, pc}
 264              		.cfi_endproc
 265              	.LFE293:
 266              		.size	chRegFindThreadByPointer, .-chRegFindThreadByPointer
 267              		.section	.text.chRegFindThreadByWorkingArea,"ax",%progbits
 268              		.align	1
 269              		.global	chRegFindThreadByWorkingArea
 270              		.syntax unified
 271              		.thumb
 272              		.thumb_func
 273              		.fpu fpv4-sp-d16
 274              		.type	chRegFindThreadByWorkingArea, %function
 275              	chRegFindThreadByWorkingArea:
 276              	.LFB294:
 277              		.loc 1 250 0
 278              		.cfi_startproc
 279              		@ args = 0, pretend = 0, frame = 0
 280              		@ frame_needed = 0, uses_anonymous_args = 0
 281              	.LVL23:
 282 0000 10B5     		push	{r4, lr}
 283              		.cfi_def_cfa_offset 8
 284              		.cfi_offset 4, -8
 285              		.cfi_offset 14, -4
ARM GAS  /tmp/cc7cIEMz.s 			page 6


 286              		.loc 1 250 0
 287 0002 0446     		mov	r4, r0
 288              		.loc 1 254 0
 289 0004 FFF7FEFF 		bl	chRegFirstThread
 290              	.LVL24:
 291              	.L23:
 292              		.loc 1 256 0
 293 0008 C369     		ldr	r3, [r0, #28]
 294 000a 9C42     		cmp	r4, r3
 295 000c 03D0     		beq	.L21
 296              		.loc 1 259 0
 297 000e FFF7FEFF 		bl	chRegNextThread
 298              	.LVL25:
 299              		.loc 1 260 0
 300 0012 0028     		cmp	r0, #0
 301 0014 F8D1     		bne	.L23
 302              	.L21:
 303              		.loc 1 263 0
 304 0016 10BD     		pop	{r4, pc}
 305              		.cfi_endproc
 306              	.LFE294:
 307              		.size	chRegFindThreadByWorkingArea, .-chRegFindThreadByWorkingArea
 308              		.global	ch_debug
 309              		.section	.rodata.ch_debug,"a",%progbits
 310              		.align	1
 311              		.type	ch_debug, %object
 312              		.size	ch_debug, 22
 313              	ch_debug:
 314 0000 6D       		.byte	109
 315 0001 61       		.byte	97
 316 0002 69       		.byte	105
 317 0003 6E       		.byte	110
 318 0004 00       		.byte	0
 319 0005 16       		.byte	22
 320 0006 0030     		.short	12288
 321 0008 04       		.byte	4
 322 0009 04       		.byte	4
 323 000a 44       		.byte	68
 324 000b 08       		.byte	8
 325 000c 0C       		.byte	12
 326 000d 10       		.byte	16
 327 000e 14       		.byte	20
 328 000f 18       		.byte	24
 329 0010 1C       		.byte	28
 330 0011 20       		.byte	32
 331 0012 21       		.byte	33
 332 0013 22       		.byte	34
 333 0014 00       		.byte	0
 334 0015 00       		.byte	0
 335              		.text
 336              	.Letext0:
 337              		.file 3 "/opt/gcc-arm-none-eabi-6-2017-q2-update/lib/gcc/arm-none-eabi/6.3.1/include/stddef.h"
 338              		.file 4 "/opt/gcc-arm-none-eabi-6-2017-q2-update/arm-none-eabi/include/machine/_default_types.h"
 339              		.file 5 "/opt/gcc-arm-none-eabi-6-2017-q2-update/arm-none-eabi/include/sys/lock.h"
 340              		.file 6 "/opt/gcc-arm-none-eabi-6-2017-q2-update/arm-none-eabi/include/sys/_types.h"
 341              		.file 7 "/opt/gcc-arm-none-eabi-6-2017-q2-update/arm-none-eabi/include/sys/reent.h"
 342              		.file 8 "/opt/gcc-arm-none-eabi-6-2017-q2-update/arm-none-eabi/include/sys/_stdint.h"
ARM GAS  /tmp/cc7cIEMz.s 			page 7


 343              		.file 9 "../../modules/ChibiOS/os/common/ports/ARMCMx/compilers/GCC/chtypes.h"
 344              		.file 10 "../../modules/ChibiOS/os/rt/include/chsystypes.h"
 345              		.file 11 "../../modules/ChibiOS/os/rt/include/chschd.h"
 346              		.file 12 "../../modules/ChibiOS/os/rt/include/chtime.h"
 347              		.file 13 "../../modules/ChibiOS/os/common/ext/ARM/CMSIS/Core/Include/core_cm4.h"
 348              		.file 14 "../../modules/ChibiOS/os/common/ext/ST/STM32F4xx/system_stm32f4xx.h"
 349              		.file 15 "../../modules/ChibiOS/os/common/ports/ARMCMx/chcore.h"
 350              		.file 16 "../../modules/ChibiOS/os/common/ports/ARMCMx/chcore_v7m.h"
 351              		.file 17 "../../modules/ChibiOS/os/rt/include/chtm.h"
 352              		.file 18 "../../modules/ChibiOS/os/rt/include/chsem.h"
 353              		.file 19 "../../modules/ChibiOS/os/rt/include/chmtx.h"
 354              		.file 20 "../../modules/ChibiOS/os/rt/include/chsys.h"
 355              		.file 21 "../../modules/ChibiOS/os/rt/include/chregistry.h"
 356              		.file 22 "../../modules/ChibiOS/os/oslib/include/chmemcore.h"
 357              		.file 23 "../../modules/ChibiOS/os/oslib/include/chmempools.h"
 358              		.file 24 "../../modules/ChibiOS/os/oslib/include/chfactory.h"
 359              		.file 25 "../../modules/ChibiOS/os/rt/include/chthreads.h"
 360              		.file 26 "/opt/gcc-arm-none-eabi-6-2017-q2-update/arm-none-eabi/include/string.h"