ARM GAS  /tmp/cc7cIEMz.s 			page 1


   1              		.cpu cortex-m4
   2              		.eabi_attribute 27, 1
   3              		.eabi_attribute 28, 1
   4              		.eabi_attribute 20, 1
   5              		.eabi_attribute 21, 1
   6              		.eabi_attribute 23, 3
   7              		.eabi_attribute 24, 1
   8              		.eabi_attribute 25, 1
   9              		.eabi_attribute 26, 1
  10              		.eabi_attribute 30, 4
  11              		.eabi_attribute 34, 1
  12              		.eabi_attribute 18, 4
  13              		.file	"chregistry.c"
  14              		.text
  15              	.Ltext0:
  16              		.cfi_sections	.debug_frame
  17              		.section	.text.chRegFirstThread,"ax",%progbits
  18              		.align	1
  19              		.global	chRegFirstThread
  20              		.syntax unified
  21              		.thumb
  22              		.thumb_func
  23              		.fpu fpv4-sp-d16
  24              		.type	chRegFirstThread, %function
  25              	chRegFirstThread:
  26              	.LFB290:
  27              		.file 1 "../../modules/ChibiOS/os/rt/src/chregistry.c"
  28              		.loc 1 134 0
  29              		.cfi_startproc
  30              		@ args = 0, pretend = 0, frame = 0
  31              		@ frame_needed = 0, uses_anonymous_args = 0
  32              		@ link register save eliminated.
  33              	.LVL0:
  34              	.LBB38:
  35              	.LBB39:
  36              	.LBB40:
  37              	.LBB41:
  38              		.file 2 "../../modules/ChibiOS/os/common/ext/ARM/CMSIS/Core/Include/cmsis_gcc.h"
  39              		.loc 2 493 0
  40 0000 2023     		movs	r3, #32
  41              		.syntax unified
  42              	@ 493 "../../modules/ChibiOS/os/common/ext/ARM/CMSIS/Core/Include/cmsis_gcc.h" 1
  43 0002 83F31188 		MSR basepri, r3
  44              	@ 0 "" 2
  45              	.LVL1:
  46              		.thumb
  47              		.syntax unified
  48              	.LBE41:
  49              	.LBE40:
  50              	.LBE39:
  51              	.LBE38:
  52              		.loc 1 138 0
  53 0006 054B     		ldr	r3, .L2
  54 0008 1869     		ldr	r0, [r3, #16]
  55              	.LVL2:
  56              		.loc 1 140 0
  57 000a 90F82230 		ldrb	r3, [r0, #34]	@ zero_extendqisi2
ARM GAS  /tmp/cc7cIEMz.s 			page 2


  58 000e 0133     		adds	r3, r3, #1
  59 0010 80F82230 		strb	r3, [r0, #34]
  60              	.LVL3:
  61              	.LBB42:
  62              	.LBB43:
  63              	.LBB44:
  64              	.LBB45:
  65              	.LBB46:
  66              		.loc 2 493 0
  67 0014 0023     		movs	r3, #0
  68              		.syntax unified
  69              	@ 493 "../../modules/ChibiOS/os/common/ext/ARM/CMSIS/Core/Include/cmsis_gcc.h" 1
  70 0016 83F31188 		MSR basepri, r3
  71              	@ 0 "" 2
  72              	.LVL4:
  73              		.thumb
  74              		.syntax unified
  75              	.LBE46:
  76              	.LBE45:
  77              	.LBE44:
  78              	.LBE43:
  79              	.LBE42:
  80              		.loc 1 145 0
  81 001a 7047     		bx	lr
  82              	.L3:
  83              		.align	2
  84              	.L2:
  85 001c 00000000 		.word	ch
  86              		.cfi_endproc
  87              	.LFE290:
  88              		.size	chRegFirstThread, .-chRegFirstThread
  89              		.section	.text.chRegNextThread,"ax",%progbits
  90              		.align	1
  91              		.global	chRegNextThread
  92              		.syntax unified
  93              		.thumb
  94              		.thumb_func
  95              		.fpu fpv4-sp-d16
  96              		.type	chRegNextThread, %function
  97              	chRegNextThread:
  98              	.LFB291:
  99              		.loc 1 158 0
 100              		.cfi_startproc
 101              		@ args = 0, pretend = 0, frame = 0
 102              		@ frame_needed = 0, uses_anonymous_args = 0
 103              	.LVL5:
 104 0000 10B5     		push	{r4, lr}
 105              		.cfi_def_cfa_offset 8
 106              		.cfi_offset 4, -8
 107              		.cfi_offset 14, -4
 108              	.LBB47:
 109              	.LBB48:
 110              	.LBB49:
 111              	.LBB50:
 112              		.loc 2 493 0
 113 0002 2023     		movs	r3, #32
 114              		.syntax unified
ARM GAS  /tmp/cc7cIEMz.s 			page 3


 115              	@ 493 "../../modules/ChibiOS/os/common/ext/ARM/CMSIS/Core/Include/cmsis_gcc.h" 1
 116 0004 83F31188 		MSR basepri, r3
 117              	@ 0 "" 2
 118              	.LVL6:
 119              		.thumb
 120              		.syntax unified
 121              	.LBE50:
 122              	.LBE49:
 123              	.LBE48:
 124              	.LBE47:
 125              		.loc 1 164 0
 126 0008 094B     		ldr	r3, .L7
 127              		.loc 1 162 0
 128 000a 0469     		ldr	r4, [r0, #16]
 129              	.LVL7:
 130              		.loc 1 164 0
 131 000c 9C42     		cmp	r4, r3
 132              		.loc 1 171 0
 133 000e 18BF     		it	ne
 134 0010 94F82230 		ldrbne	r3, [r4, #34]	@ zero_extendqisi2
 135 0014 4FF00002 		mov	r2, #0
 136 0018 1ABF     		itte	ne
 137 001a 0133     		addne	r3, r3, #1
 138 001c 84F82230 		strbne	r3, [r4, #34]
 139              		.loc 1 166 0
 140 0020 1446     		moveq	r4, r2
 141              	.LVL8:
 142              	.LBB51:
 143              	.LBB52:
 144              	.LBB53:
 145              	.LBB54:
 146              	.LBB55:
 147              		.loc 2 493 0
 148              		.syntax unified
 149              	@ 493 "../../modules/ChibiOS/os/common/ext/ARM/CMSIS/Core/Include/cmsis_gcc.h" 1
 150 0022 82F31188 		MSR basepri, r2
 151              	@ 0 "" 2
 152              	.LVL9:
 153              		.thumb
 154              		.syntax unified
 155              	.LBE55:
 156              	.LBE54:
 157              	.LBE53:
 158              	.LBE52:
 159              	.LBE51:
 160              		.loc 1 176 0
 161 0026 FFF7FEFF 		bl	chThdRelease
 162              	.LVL10:
 163              		.loc 1 180 0
 164 002a 2046     		mov	r0, r4
 165 002c 10BD     		pop	{r4, pc}
 166              	.LVL11:
 167              	.L8:
 168 002e 00BF     		.align	2
 169              	.L7:
 170 0030 00000000 		.word	ch
 171              		.cfi_endproc
ARM GAS  /tmp/cc7cIEMz.s 			page 4


 172              	.LFE291:
 173              		.size	chRegNextThread, .-chRegNextThread
 174              		.section	.text.chRegFindThreadByName,"ax",%progbits
 175              		.align	1
 176              		.global	chRegFindThreadByName
 177              		.syntax unified
 178              		.thumb
 179              		.thumb_func
 180              		.fpu fpv4-sp-d16
 181              		.type	chRegFindThreadByName, %function
 182              	chRegFindThreadByName:
 183              	.LFB292:
 184              		.loc 1 194 0
 185              		.cfi_startproc
 186              		@ args = 0, pretend = 0, frame = 0
 187              		@ frame_needed = 0, uses_anonymous_args = 0
 188              	.LVL12:
 189 0000 38B5     		push	{r3, r4, r5, lr}
 190              		.cfi_def_cfa_offset 16
 191              		.cfi_offset 3, -16
 192              		.cfi_offset 4, -12
 193              		.cfi_offset 5, -8
 194              		.cfi_offset 14, -4
 195              		.loc 1 194 0
 196 0002 0546     		mov	r5, r0
 197              		.loc 1 198 0
 198 0004 FFF7FEFF 		bl	chRegFirstThread
 199              	.LVL13:
 200 0008 0446     		mov	r4, r0
 201              	.LVL14:
 202              	.L11:
 203              		.loc 1 200 0
 204 000a 2946     		mov	r1, r5
 205 000c A069     		ldr	r0, [r4, #24]
 206              	.LVL15:
 207 000e FFF7FEFF 		bl	strcmp
 208              	.LVL16:
 209 0012 28B1     		cbz	r0, .L9
 210              		.loc 1 203 0
 211 0014 2046     		mov	r0, r4
 212 0016 FFF7FEFF 		bl	chRegNextThread
 213              	.LVL17:
 214              		.loc 1 204 0
 215 001a 0446     		mov	r4, r0
 216              	.LVL18:
 217 001c 0028     		cmp	r0, #0
 218 001e F4D1     		bne	.L11
 219              	.LVL19:
 220              	.L9:
 221              		.loc 1 207 0
 222 0020 2046     		mov	r0, r4
 223 0022 38BD     		pop	{r3, r4, r5, pc}
 224              		.cfi_endproc
 225              	.LFE292:
 226              		.size	chRegFindThreadByName, .-chRegFindThreadByName
 227              		.section	.text.chRegFindThreadByPointer,"ax",%progbits
 228              		.align	1
ARM GAS  /tmp/cc7cIEMz.s 			page 5


 229              		.global	chRegFindThreadByPointer
 230              		.syntax unified
 231              		.thumb
 232              		.thumb_func
 233              		.fpu fpv4-sp-d16
 234              		.type	chRegFindThreadByPointer, %function
 235              	chRegFindThreadByPointer:
 236              	.LFB293:
 237              		.loc 1 221 0
 238              		.cfi_startproc
 239              		@ args = 0, pretend = 0, frame = 0
 240              		@ frame_needed = 0, uses_anonymous_args = 0
 241              	.LVL20:
 242 0000 10B5     		push	{r4, lr}
 243              		.cfi_def_cfa_offset 8
 244              		.cfi_offset 4, -8
 245              		.cfi_offset 14, -4
 246              		.loc 1 221 0
 247 0002 0446     		mov	r4, r0
 248              		.loc 1 225 0
 249 0004 FFF7FEFF 		bl	chRegFirstThread
 250              	.LVL21:
 251              	.L18:
 252              		.loc 1 227 0
 253 0008 A042     		cmp	r0, r4
 254 000a 03D0     		beq	.L16
 255              		.loc 1 230 0
 256 000c FFF7FEFF 		bl	chRegNextThread
 257              	.LVL22:
 258              		.loc 1 231 0
 259 0010 0028     		cmp	r0, #0
 260 0012 F9D1     		bne	.L18
 261              	.L16:
 262              		.loc 1 234 0
 263 0014 10BD     		pop	{r4, pc}
 264              		.cfi_endproc
 265              	.LFE293:
 266              		.size	chRegFindThreadByPointer, .-chRegFindThreadByPointer
 267              		.section	.text.chRegFindThreadByWorkingArea,"ax",%progbits
 268              		.align	1
 269              		.global	chRegFindThreadByWorkingArea
 270              		.syntax unified
 271              		.thumb
 272              		.thumb_func
 273              		.fpu fpv4-sp-d16
 274              		.type	chRegFindThreadByWorkingArea, %function
 275              	chRegFindThreadByWorkingArea:
 276              	.LFB294:
 277              		.loc 1 250 0
 278              		.cfi_startproc
 279              		@ args = 0, pretend = 0, frame = 0
 280              		@ frame_needed = 0, uses_anonymous_args = 0
 281              	.LVL23:
 282 0000 10B5     		push	{r4, lr}
 283              		.cfi_def_cfa_offset 8
 284              		.cfi_offset 4, -8
 285              		.cfi_offset 14, -4
ARM GAS  /tmp/cc7cIEMz.s 			page 6


 286              		.loc 1 250 0
 287 0002 0446     		mov	r4, r0
 288              		.loc 1 254 0
 289 0004 FFF7FEFF 		bl	chRegFirstThread
 290              	.LVL24:
 291              	.L23:
 292              		.loc 1 256 0
 293 0008 C369     		ldr	r3, [r0, #28]
 294 000a 9C42     		cmp	r4, r3
 295 000c 03D0     		beq	.L21
 296              		.loc 1 259 0
 297 000e FFF7FEFF 		bl	chRegNextThread
 298              	.LVL25:
 299              		.loc 1 260 0
 300 0012 0028     		cmp	r0, #0
 301 0014 F8D1     		bne	.L23
 302              	.L21:
 303              		.loc 1 263 0
 304 0016 10BD     		pop	{r4, pc}
 305              		.cfi_endproc
 306              	.LFE294:
 307              		.size	chRegFindThreadByWorkingArea, .-chRegFindThreadByWorkingArea
 308              		.global	ch_debug
 309              		.section	.rodata.ch_debug,"a",%progbits
 310              		.align	1
 311              		.type	ch_debug, %object
 312              		.size	ch_debug, 22
 313              	ch_debug:
 314 0000 6D       		.byte	109
 315 0001 61       		.byte	97
 316 0002 69       		.byte	105
 317 0003 6E       		.byte	110
 318 0004 00       		.byte	0
 319 0005 16       		.byte	22
 320 0006 0030     		.short	12288
 321 0008 04       		.byte	4
 322 0009 04       		.byte	4
 323 000a 44       		.byte	68
 324 000b 08       		.byte	8
 325 000c 0C       		.byte	12
 326 000d 10       		.byte	16
 327 000e 14       		.byte	20
 328 000f 18       		.byte	24
 329 0010 1C       		.byte	28
 330 0011 20       		.byte	32
 331 0012 21       		.byte	33
 332 0013 22       		.byte	34
 333 0014 00       		.byte	0
 334 0015 00       		.byte	0
 335              		.text
 336              	.Letext0:
 337              		.file 3 "/opt/gcc-arm-none-eabi-6-2017-q2-update/lib/gcc/arm-none-eabi/6.3.1/include/stddef.h"
 338              		.file 4 "/opt/gcc-arm-none-eabi-6-2017-q2-update/arm-none-eabi/include/machine/_default_types.h"
 339              		.file 5 "/opt/gcc-arm-none-eabi-6-2017-q2-update/arm-none-eabi/include/sys/lock.h"
 340              		.file 6 "/opt/gcc-arm-none-eabi-6-2017-q2-update/arm-none-eabi/include/sys/_types.h"
 341              		.file 7 "/opt/gcc-arm-none-eabi-6-2017-q2-update/arm-none-eabi/include/sys/reent.h"
 342              		.file 8 "/opt/gcc-arm-none-eabi-6-2017-q2-update/arm-none-eabi/include/sys/_stdint.h"
ARM GAS  /tmp/cc7cIEMz.s 			page 7


 343              		.file 9 "../../modules/ChibiOS/os/common/ports/ARMCMx/compilers/GCC/chtypes.h"
 344              		.file 10 "../../modules/ChibiOS/os/rt/include/chsystypes.h"
 345              		.file 11 "../../modules/ChibiOS/os/rt/include/chschd.h"
 346              		.file 12 "../../modules/ChibiOS/os/rt/include/chtime.h"
 347              		.file 13 "../../modules/ChibiOS/os/common/ext/ARM/CMSIS/Core/Include/core_cm4.h"
 348              		.file 14 "../../modules/ChibiOS/os/common/ext/ST/STM32F4xx/system_stm32f4xx.h"
 349              		.file 15 "../../modules/ChibiOS/os/common/ports/ARMCMx/chcore.h"
 350              		.file 16 "../../modules/ChibiOS/os/common/ports/ARMCMx/chcore_v7m.h"
 351              		.file 17 "../../modules/ChibiOS/os/rt/include/chtm.h"
 352              		.file 18 "../../modules/ChibiOS/os/rt/include/chsem.h"
 353              		.file 19 "../../modules/ChibiOS/os/rt/include/chmtx.h"
 354              		.file 20 "../../modules/ChibiOS/os/rt/include/chsys.h"
 355              		.file 21 "../../modules/ChibiOS/os/rt/include/chregistry.h"
 356              		.file 22 "../../modules/ChibiOS/os/oslib/include/chmemcore.h"
 357              		.file 23 "../../modules/ChibiOS/os/oslib/include/chmempools.h"
 358              		.file 24 "../../modules/ChibiOS/os/oslib/include/chfactory.h"
 359              		.file 25 "../../modules/ChibiOS/os/rt/include/chthreads.h"
 360              		.file 26 "/opt/gcc-arm-none-eabi-6-2017-q2-update/arm-none-eabi/include/string.h"
 361              		.section	.debug_info,"",%progbits
 362              	.Ldebug_info0:
 363 0000 C7150000 		.4byte	0x15c7
 364 0004 0400     		.2byte	0x4
 365 0006 00000000 		.4byte	.Ldebug_abbrev0
 366 000a 04       		.byte	0x4
 367 000b 01       		.uleb128 0x1
 368 000c 39030000 		.4byte	.LASF270
 369 0010 0C       		.byte	0xc
 370 0011 C8040000 		.4byte	.LASF271
 371 0015 95080000 		.4byte	.LASF272
 372 0019 00000000 		.4byte	.Ldebug_ranges0+0
 373 001d 00000000 		.4byte	0
 374 0021 00000000 		.4byte	.Ldebug_line0
 375 0025 02       		.uleb128 0x2
 376 0026 04       		.byte	0x4
 377 0027 05       		.byte	0x5
 378 0028 696E7400 		.ascii	"int\000"
 379 002c 03       		.uleb128 0x3
 380 002d 08000000 		.4byte	.LASF4
 381 0031 03       		.byte	0x3
 382 0032 D8       		.byte	0xd8
 383 0033 37000000 		.4byte	0x37
 384 0037 04       		.uleb128 0x4
 385 0038 04       		.byte	0x4
 386 0039 07       		.byte	0x7
 387 003a 05070000 		.4byte	.LASF0
 388 003e 04       		.uleb128 0x4
 389 003f 08       		.byte	0x8
 390 0040 05       		.byte	0x5
 391 0041 76060000 		.4byte	.LASF1
 392 0045 04       		.uleb128 0x4
 393 0046 08       		.byte	0x8
 394 0047 04       		.byte	0x4
 395 0048 CF070000 		.4byte	.LASF2
 396 004c 04       		.uleb128 0x4
 397 004d 01       		.byte	0x1
 398 004e 06       		.byte	0x6
 399 004f 57020000 		.4byte	.LASF3
ARM GAS  /tmp/cc7cIEMz.s 			page 8


 400 0053 03       		.uleb128 0x3
 401 0054 77010000 		.4byte	.LASF5
 402 0058 04       		.byte	0x4
 403 0059 2B       		.byte	0x2b
 404 005a 5E000000 		.4byte	0x5e
 405 005e 04       		.uleb128 0x4
 406 005f 01       		.byte	0x1
 407 0060 08       		.byte	0x8
 408 0061 9D020000 		.4byte	.LASF6
 409 0065 04       		.uleb128 0x4
 410 0066 02       		.byte	0x2
 411 0067 05       		.byte	0x5
 412 0068 030A0000 		.4byte	.LASF7
 413 006c 03       		.uleb128 0x3
 414 006d 20030000 		.4byte	.LASF8
 415 0071 04       		.byte	0x4
 416 0072 39       		.byte	0x39
 417 0073 77000000 		.4byte	0x77
 418 0077 04       		.uleb128 0x4
 419 0078 02       		.byte	0x2
 420 0079 07       		.byte	0x7
 421 007a 440B0000 		.4byte	.LASF9
 422 007e 03       		.uleb128 0x3
 423 007f AB0B0000 		.4byte	.LASF10
 424 0083 04       		.byte	0x4
 425 0084 4D       		.byte	0x4d
 426 0085 89000000 		.4byte	0x89
 427 0089 04       		.uleb128 0x4
 428 008a 04       		.byte	0x4
 429 008b 05       		.byte	0x5
 430 008c AA010000 		.4byte	.LASF11
 431 0090 03       		.uleb128 0x3
 432 0091 58060000 		.4byte	.LASF12
 433 0095 04       		.byte	0x4
 434 0096 4F       		.byte	0x4f
 435 0097 9B000000 		.4byte	0x9b
 436 009b 04       		.uleb128 0x4
 437 009c 04       		.byte	0x4
 438 009d 07       		.byte	0x7
 439 009e 2B050000 		.4byte	.LASF13
 440 00a2 03       		.uleb128 0x3
 441 00a3 05050000 		.4byte	.LASF14
 442 00a7 04       		.byte	0x4
 443 00a8 69       		.byte	0x69
 444 00a9 AD000000 		.4byte	0xad
 445 00ad 04       		.uleb128 0x4
 446 00ae 08       		.byte	0x8
 447 00af 07       		.byte	0x7
 448 00b0 7E080000 		.4byte	.LASF15
 449 00b4 03       		.uleb128 0x3
 450 00b5 BC0A0000 		.4byte	.LASF16
 451 00b9 05       		.byte	0x5
 452 00ba 22       		.byte	0x22
 453 00bb BF000000 		.4byte	0xbf
 454 00bf 05       		.uleb128 0x5
 455 00c0 04       		.byte	0x4
 456 00c1 C5000000 		.4byte	0xc5
ARM GAS  /tmp/cc7cIEMz.s 			page 9


 457 00c5 06       		.uleb128 0x6
 458 00c6 A6040000 		.4byte	.LASF124
 459 00ca 03       		.uleb128 0x3
 460 00cb 310B0000 		.4byte	.LASF17
 461 00cf 06       		.byte	0x6
 462 00d0 2C       		.byte	0x2c
 463 00d1 89000000 		.4byte	0x89
 464 00d5 03       		.uleb128 0x3
 465 00d6 20080000 		.4byte	.LASF18
 466 00da 06       		.byte	0x6
 467 00db 72       		.byte	0x72
 468 00dc 89000000 		.4byte	0x89
 469 00e0 07       		.uleb128 0x7
 470 00e1 99090000 		.4byte	.LASF19
 471 00e5 03       		.byte	0x3
 472 00e6 6501     		.2byte	0x165
 473 00e8 37000000 		.4byte	0x37
 474 00ec 08       		.uleb128 0x8
 475 00ed 04       		.byte	0x4
 476 00ee 06       		.byte	0x6
 477 00ef A6       		.byte	0xa6
 478 00f0 0B010000 		.4byte	0x10b
 479 00f4 09       		.uleb128 0x9
 480 00f5 68010000 		.4byte	.LASF20
 481 00f9 06       		.byte	0x6
 482 00fa A8       		.byte	0xa8
 483 00fb E0000000 		.4byte	0xe0
 484 00ff 09       		.uleb128 0x9
 485 0100 28080000 		.4byte	.LASF21
 486 0104 06       		.byte	0x6
 487 0105 A9       		.byte	0xa9
 488 0106 0B010000 		.4byte	0x10b
 489 010a 00       		.byte	0
 490 010b 0A       		.uleb128 0xa
 491 010c 5E000000 		.4byte	0x5e
 492 0110 1B010000 		.4byte	0x11b
 493 0114 0B       		.uleb128 0xb
 494 0115 1B010000 		.4byte	0x11b
 495 0119 03       		.byte	0x3
 496 011a 00       		.byte	0
 497 011b 04       		.uleb128 0x4
 498 011c 04       		.byte	0x4
 499 011d 07       		.byte	0x7
 500 011e 18000000 		.4byte	.LASF22
 501 0122 0C       		.uleb128 0xc
 502 0123 08       		.byte	0x8
 503 0124 06       		.byte	0x6
 504 0125 A3       		.byte	0xa3
 505 0126 43010000 		.4byte	0x143
 506 012a 0D       		.uleb128 0xd
 507 012b A7070000 		.4byte	.LASF23
 508 012f 06       		.byte	0x6
 509 0130 A5       		.byte	0xa5
 510 0131 25000000 		.4byte	0x25
 511 0135 00       		.byte	0
 512 0136 0D       		.uleb128 0xd
 513 0137 2C000000 		.4byte	.LASF24
ARM GAS  /tmp/cc7cIEMz.s 			page 10


 514 013b 06       		.byte	0x6
 515 013c AA       		.byte	0xaa
 516 013d EC000000 		.4byte	0xec
 517 0141 04       		.byte	0x4
 518 0142 00       		.byte	0
 519 0143 03       		.uleb128 0x3
 520 0144 82090000 		.4byte	.LASF25
 521 0148 06       		.byte	0x6
 522 0149 AB       		.byte	0xab
 523 014a 22010000 		.4byte	0x122
 524 014e 03       		.uleb128 0x3
 525 014f 5C090000 		.4byte	.LASF26
 526 0153 06       		.byte	0x6
 527 0154 AF       		.byte	0xaf
 528 0155 B4000000 		.4byte	0xb4
 529 0159 0E       		.uleb128 0xe
 530 015a 04       		.byte	0x4
 531 015b 05       		.uleb128 0x5
 532 015c 04       		.byte	0x4
 533 015d 61010000 		.4byte	0x161
 534 0161 04       		.uleb128 0x4
 535 0162 01       		.byte	0x1
 536 0163 08       		.byte	0x8
 537 0164 06030000 		.4byte	.LASF27
 538 0168 0F       		.uleb128 0xf
 539 0169 61010000 		.4byte	0x161
 540 016d 03       		.uleb128 0x3
 541 016e 090B0000 		.4byte	.LASF28
 542 0172 07       		.byte	0x7
 543 0173 16       		.byte	0x16
 544 0174 9B000000 		.4byte	0x9b
 545 0178 10       		.uleb128 0x10
 546 0179 25060000 		.4byte	.LASF33
 547 017d 18       		.byte	0x18
 548 017e 07       		.byte	0x7
 549 017f 2F       		.byte	0x2f
 550 0180 CB010000 		.4byte	0x1cb
 551 0184 0D       		.uleb128 0xd
 552 0185 AE090000 		.4byte	.LASF29
 553 0189 07       		.byte	0x7
 554 018a 31       		.byte	0x31
 555 018b CB010000 		.4byte	0x1cb
 556 018f 00       		.byte	0
 557 0190 11       		.uleb128 0x11
 558 0191 5F6B00   		.ascii	"_k\000"
 559 0194 07       		.byte	0x7
 560 0195 32       		.byte	0x32
 561 0196 25000000 		.4byte	0x25
 562 019a 04       		.byte	0x4
 563 019b 0D       		.uleb128 0xd
 564 019c 3D060000 		.4byte	.LASF30
 565 01a0 07       		.byte	0x7
 566 01a1 32       		.byte	0x32
 567 01a2 25000000 		.4byte	0x25
 568 01a6 08       		.byte	0x8
 569 01a7 0D       		.uleb128 0xd
 570 01a8 F5060000 		.4byte	.LASF31
ARM GAS  /tmp/cc7cIEMz.s 			page 11


 571 01ac 07       		.byte	0x7
 572 01ad 32       		.byte	0x32
 573 01ae 25000000 		.4byte	0x25
 574 01b2 0C       		.byte	0xc
 575 01b3 0D       		.uleb128 0xd
 576 01b4 93040000 		.4byte	.LASF32
 577 01b8 07       		.byte	0x7
 578 01b9 32       		.byte	0x32
 579 01ba 25000000 		.4byte	0x25
 580 01be 10       		.byte	0x10
 581 01bf 11       		.uleb128 0x11
 582 01c0 5F7800   		.ascii	"_x\000"
 583 01c3 07       		.byte	0x7
 584 01c4 33       		.byte	0x33
 585 01c5 D1010000 		.4byte	0x1d1
 586 01c9 14       		.byte	0x14
 587 01ca 00       		.byte	0
 588 01cb 05       		.uleb128 0x5
 589 01cc 04       		.byte	0x4
 590 01cd 78010000 		.4byte	0x178
 591 01d1 0A       		.uleb128 0xa
 592 01d2 6D010000 		.4byte	0x16d
 593 01d6 E1010000 		.4byte	0x1e1
 594 01da 0B       		.uleb128 0xb
 595 01db 1B010000 		.4byte	0x11b
 596 01df 00       		.byte	0
 597 01e0 00       		.byte	0
 598 01e1 10       		.uleb128 0x10
 599 01e2 DA000000 		.4byte	.LASF34
 600 01e6 24       		.byte	0x24
 601 01e7 07       		.byte	0x7
 602 01e8 37       		.byte	0x37
 603 01e9 5A020000 		.4byte	0x25a
 604 01ed 0D       		.uleb128 0xd
 605 01ee F6000000 		.4byte	.LASF35
 606 01f2 07       		.byte	0x7
 607 01f3 39       		.byte	0x39
 608 01f4 25000000 		.4byte	0x25
 609 01f8 00       		.byte	0
 610 01f9 0D       		.uleb128 0xd
 611 01fa E20B0000 		.4byte	.LASF36
 612 01fe 07       		.byte	0x7
 613 01ff 3A       		.byte	0x3a
 614 0200 25000000 		.4byte	0x25
 615 0204 04       		.byte	0x4
 616 0205 0D       		.uleb128 0xd
 617 0206 570B0000 		.4byte	.LASF37
 618 020a 07       		.byte	0x7
 619 020b 3B       		.byte	0x3b
 620 020c 25000000 		.4byte	0x25
 621 0210 08       		.byte	0x8
 622 0211 0D       		.uleb128 0xd
 623 0212 37070000 		.4byte	.LASF38
 624 0216 07       		.byte	0x7
 625 0217 3C       		.byte	0x3c
 626 0218 25000000 		.4byte	0x25
 627 021c 0C       		.byte	0xc
ARM GAS  /tmp/cc7cIEMz.s 			page 12


 628 021d 0D       		.uleb128 0xd
 629 021e 1A020000 		.4byte	.LASF39
 630 0222 07       		.byte	0x7
 631 0223 3D       		.byte	0x3d
 632 0224 25000000 		.4byte	0x25
 633 0228 10       		.byte	0x10
 634 0229 0D       		.uleb128 0xd
 635 022a 670A0000 		.4byte	.LASF40
 636 022e 07       		.byte	0x7
 637 022f 3E       		.byte	0x3e
 638 0230 25000000 		.4byte	0x25
 639 0234 14       		.byte	0x14
 640 0235 0D       		.uleb128 0xd
 641 0236 BC070000 		.4byte	.LASF41
 642 023a 07       		.byte	0x7
 643 023b 3F       		.byte	0x3f
 644 023c 25000000 		.4byte	0x25
 645 0240 18       		.byte	0x18
 646 0241 0D       		.uleb128 0xd
 647 0242 DB070000 		.4byte	.LASF42
 648 0246 07       		.byte	0x7
 649 0247 40       		.byte	0x40
 650 0248 25000000 		.4byte	0x25
 651 024c 1C       		.byte	0x1c
 652 024d 0D       		.uleb128 0xd
 653 024e D20B0000 		.4byte	.LASF43
 654 0252 07       		.byte	0x7
 655 0253 41       		.byte	0x41
 656 0254 25000000 		.4byte	0x25
 657 0258 20       		.byte	0x20
 658 0259 00       		.byte	0
 659 025a 12       		.uleb128 0x12
 660 025b 87010000 		.4byte	.LASF44
 661 025f 0801     		.2byte	0x108
 662 0261 07       		.byte	0x7
 663 0262 4A       		.byte	0x4a
 664 0263 9A020000 		.4byte	0x29a
 665 0267 0D       		.uleb128 0xd
 666 0268 CA0B0000 		.4byte	.LASF45
 667 026c 07       		.byte	0x7
 668 026d 4B       		.byte	0x4b
 669 026e 9A020000 		.4byte	0x29a
 670 0272 00       		.byte	0
 671 0273 0D       		.uleb128 0xd
 672 0274 D3080000 		.4byte	.LASF46
 673 0278 07       		.byte	0x7
 674 0279 4C       		.byte	0x4c
 675 027a 9A020000 		.4byte	0x29a
 676 027e 80       		.byte	0x80
 677 027f 13       		.uleb128 0x13
 678 0280 430A0000 		.4byte	.LASF47
 679 0284 07       		.byte	0x7
 680 0285 4E       		.byte	0x4e
 681 0286 6D010000 		.4byte	0x16d
 682 028a 0001     		.2byte	0x100
 683 028c 13       		.uleb128 0x13
 684 028d B40A0000 		.4byte	.LASF48
ARM GAS  /tmp/cc7cIEMz.s 			page 13


 685 0291 07       		.byte	0x7
 686 0292 51       		.byte	0x51
 687 0293 6D010000 		.4byte	0x16d
 688 0297 0401     		.2byte	0x104
 689 0299 00       		.byte	0
 690 029a 0A       		.uleb128 0xa
 691 029b 59010000 		.4byte	0x159
 692 029f AA020000 		.4byte	0x2aa
 693 02a3 0B       		.uleb128 0xb
 694 02a4 1B010000 		.4byte	0x11b
 695 02a8 1F       		.byte	0x1f
 696 02a9 00       		.byte	0
 697 02aa 12       		.uleb128 0x12
 698 02ab 9F070000 		.4byte	.LASF49
 699 02af 9001     		.2byte	0x190
 700 02b1 07       		.byte	0x7
 701 02b2 5D       		.byte	0x5d
 702 02b3 E8020000 		.4byte	0x2e8
 703 02b7 0D       		.uleb128 0xd
 704 02b8 AE090000 		.4byte	.LASF29
 705 02bc 07       		.byte	0x7
 706 02bd 5E       		.byte	0x5e
 707 02be E8020000 		.4byte	0x2e8
 708 02c2 00       		.byte	0
 709 02c3 0D       		.uleb128 0xd
 710 02c4 920A0000 		.4byte	.LASF50
 711 02c8 07       		.byte	0x7
 712 02c9 5F       		.byte	0x5f
 713 02ca 25000000 		.4byte	0x25
 714 02ce 04       		.byte	0x4
 715 02cf 0D       		.uleb128 0xd
 716 02d0 0B030000 		.4byte	.LASF51
 717 02d4 07       		.byte	0x7
 718 02d5 61       		.byte	0x61
 719 02d6 EE020000 		.4byte	0x2ee
 720 02da 08       		.byte	0x8
 721 02db 0D       		.uleb128 0xd
 722 02dc 87010000 		.4byte	.LASF44
 723 02e0 07       		.byte	0x7
 724 02e1 62       		.byte	0x62
 725 02e2 5A020000 		.4byte	0x25a
 726 02e6 88       		.byte	0x88
 727 02e7 00       		.byte	0
 728 02e8 05       		.uleb128 0x5
 729 02e9 04       		.byte	0x4
 730 02ea AA020000 		.4byte	0x2aa
 731 02ee 0A       		.uleb128 0xa
 732 02ef FE020000 		.4byte	0x2fe
 733 02f3 FE020000 		.4byte	0x2fe
 734 02f7 0B       		.uleb128 0xb
 735 02f8 1B010000 		.4byte	0x11b
 736 02fc 1F       		.byte	0x1f
 737 02fd 00       		.byte	0
 738 02fe 05       		.uleb128 0x5
 739 02ff 04       		.byte	0x4
 740 0300 04030000 		.4byte	0x304
 741 0304 14       		.uleb128 0x14
ARM GAS  /tmp/cc7cIEMz.s 			page 14


 742 0305 10       		.uleb128 0x10
 743 0306 9F0A0000 		.4byte	.LASF52
 744 030a 08       		.byte	0x8
 745 030b 07       		.byte	0x7
 746 030c 75       		.byte	0x75
 747 030d 2A030000 		.4byte	0x32a
 748 0311 0D       		.uleb128 0xd
 749 0312 15090000 		.4byte	.LASF53
 750 0316 07       		.byte	0x7
 751 0317 76       		.byte	0x76
 752 0318 2A030000 		.4byte	0x32a
 753 031c 00       		.byte	0
 754 031d 0D       		.uleb128 0xd
 755 031e D5010000 		.4byte	.LASF54
 756 0322 07       		.byte	0x7
 757 0323 77       		.byte	0x77
 758 0324 25000000 		.4byte	0x25
 759 0328 04       		.byte	0x4
 760 0329 00       		.byte	0
 761 032a 05       		.uleb128 0x5
 762 032b 04       		.byte	0x4
 763 032c 5E000000 		.4byte	0x5e
 764 0330 10       		.uleb128 0x10
 765 0331 52050000 		.4byte	.LASF55
 766 0335 68       		.byte	0x68
 767 0336 07       		.byte	0x7
 768 0337 B5       		.byte	0xb5
 769 0338 5A040000 		.4byte	0x45a
 770 033c 11       		.uleb128 0x11
 771 033d 5F7000   		.ascii	"_p\000"
 772 0340 07       		.byte	0x7
 773 0341 B6       		.byte	0xb6
 774 0342 2A030000 		.4byte	0x32a
 775 0346 00       		.byte	0
 776 0347 11       		.uleb128 0x11
 777 0348 5F7200   		.ascii	"_r\000"
 778 034b 07       		.byte	0x7
 779 034c B7       		.byte	0xb7
 780 034d 25000000 		.4byte	0x25
 781 0351 04       		.byte	0x4
 782 0352 11       		.uleb128 0x11
 783 0353 5F7700   		.ascii	"_w\000"
 784 0356 07       		.byte	0x7
 785 0357 B8       		.byte	0xb8
 786 0358 25000000 		.4byte	0x25
 787 035c 08       		.byte	0x8
 788 035d 0D       		.uleb128 0xd
 789 035e 7E070000 		.4byte	.LASF56
 790 0362 07       		.byte	0x7
 791 0363 B9       		.byte	0xb9
 792 0364 65000000 		.4byte	0x65
 793 0368 0C       		.byte	0xc
 794 0369 0D       		.uleb128 0xd
 795 036a 81010000 		.4byte	.LASF57
 796 036e 07       		.byte	0x7
 797 036f BA       		.byte	0xba
 798 0370 65000000 		.4byte	0x65
ARM GAS  /tmp/cc7cIEMz.s 			page 15


 799 0374 0E       		.byte	0xe
 800 0375 11       		.uleb128 0x11
 801 0376 5F626600 		.ascii	"_bf\000"
 802 037a 07       		.byte	0x7
 803 037b BB       		.byte	0xbb
 804 037c 05030000 		.4byte	0x305
 805 0380 10       		.byte	0x10
 806 0381 0D       		.uleb128 0xd
 807 0382 7D0A0000 		.4byte	.LASF58
 808 0386 07       		.byte	0x7
 809 0387 BC       		.byte	0xbc
 810 0388 25000000 		.4byte	0x25
 811 038c 18       		.byte	0x18
 812 038d 0D       		.uleb128 0xd
 813 038e 84040000 		.4byte	.LASF59
 814 0392 07       		.byte	0x7
 815 0393 C3       		.byte	0xc3
 816 0394 59010000 		.4byte	0x159
 817 0398 1C       		.byte	0x1c
 818 0399 0D       		.uleb128 0xd
 819 039a 65000000 		.4byte	.LASF60
 820 039e 07       		.byte	0x7
 821 039f C5       		.byte	0xc5
 822 03a0 B5050000 		.4byte	0x5b5
 823 03a4 20       		.byte	0x20
 824 03a5 0D       		.uleb128 0xd
 825 03a6 85000000 		.4byte	.LASF61
 826 03aa 07       		.byte	0x7
 827 03ab C7       		.byte	0xc7
 828 03ac E4050000 		.4byte	0x5e4
 829 03b0 24       		.byte	0x24
 830 03b1 0D       		.uleb128 0xd
 831 03b2 1A080000 		.4byte	.LASF62
 832 03b6 07       		.byte	0x7
 833 03b7 CA       		.byte	0xca
 834 03b8 08060000 		.4byte	0x608
 835 03bc 28       		.byte	0x28
 836 03bd 0D       		.uleb128 0xd
 837 03be 10030000 		.4byte	.LASF63
 838 03c2 07       		.byte	0x7
 839 03c3 CB       		.byte	0xcb
 840 03c4 22060000 		.4byte	0x622
 841 03c8 2C       		.byte	0x2c
 842 03c9 11       		.uleb128 0x11
 843 03ca 5F756200 		.ascii	"_ub\000"
 844 03ce 07       		.byte	0x7
 845 03cf CE       		.byte	0xce
 846 03d0 05030000 		.4byte	0x305
 847 03d4 30       		.byte	0x30
 848 03d5 11       		.uleb128 0x11
 849 03d6 5F757000 		.ascii	"_up\000"
 850 03da 07       		.byte	0x7
 851 03db CF       		.byte	0xcf
 852 03dc 2A030000 		.4byte	0x32a
 853 03e0 38       		.byte	0x38
 854 03e1 11       		.uleb128 0x11
 855 03e2 5F757200 		.ascii	"_ur\000"
ARM GAS  /tmp/cc7cIEMz.s 			page 16


 856 03e6 07       		.byte	0x7
 857 03e7 D0       		.byte	0xd0
 858 03e8 25000000 		.4byte	0x25
 859 03ec 3C       		.byte	0x3c
 860 03ed 0D       		.uleb128 0xd
 861 03ee 46070000 		.4byte	.LASF64
 862 03f2 07       		.byte	0x7
 863 03f3 D3       		.byte	0xd3
 864 03f4 28060000 		.4byte	0x628
 865 03f8 40       		.byte	0x40
 866 03f9 0D       		.uleb128 0xd
 867 03fa F0000000 		.4byte	.LASF65
 868 03fe 07       		.byte	0x7
 869 03ff D4       		.byte	0xd4
 870 0400 38060000 		.4byte	0x638
 871 0404 43       		.byte	0x43
 872 0405 11       		.uleb128 0x11
 873 0406 5F6C6200 		.ascii	"_lb\000"
 874 040a 07       		.byte	0x7
 875 040b D7       		.byte	0xd7
 876 040c 05030000 		.4byte	0x305
 877 0410 44       		.byte	0x44
 878 0411 0D       		.uleb128 0xd
 879 0412 0C090000 		.4byte	.LASF66
 880 0416 07       		.byte	0x7
 881 0417 DA       		.byte	0xda
 882 0418 25000000 		.4byte	0x25
 883 041c 4C       		.byte	0x4c
 884 041d 0D       		.uleb128 0xd
 885 041e C0040000 		.4byte	.LASF67
 886 0422 07       		.byte	0x7
 887 0423 DB       		.byte	0xdb
 888 0424 CA000000 		.4byte	0xca
 889 0428 50       		.byte	0x50
 890 0429 0D       		.uleb128 0xd
 891 042a B4090000 		.4byte	.LASF68
 892 042e 07       		.byte	0x7
 893 042f DE       		.byte	0xde
 894 0430 78040000 		.4byte	0x478
 895 0434 54       		.byte	0x54
 896 0435 0D       		.uleb128 0xd
 897 0436 1E010000 		.4byte	.LASF69
 898 043a 07       		.byte	0x7
 899 043b E2       		.byte	0xe2
 900 043c 4E010000 		.4byte	0x14e
 901 0440 58       		.byte	0x58
 902 0441 0D       		.uleb128 0xd
 903 0442 62070000 		.4byte	.LASF70
 904 0446 07       		.byte	0x7
 905 0447 E4       		.byte	0xe4
 906 0448 43010000 		.4byte	0x143
 907 044c 5C       		.byte	0x5c
 908 044d 0D       		.uleb128 0xd
 909 044e 65050000 		.4byte	.LASF71
 910 0452 07       		.byte	0x7
 911 0453 E5       		.byte	0xe5
 912 0454 25000000 		.4byte	0x25
ARM GAS  /tmp/cc7cIEMz.s 			page 17


 913 0458 64       		.byte	0x64
 914 0459 00       		.byte	0
 915 045a 15       		.uleb128 0x15
 916 045b 25000000 		.4byte	0x25
 917 045f 78040000 		.4byte	0x478
 918 0463 16       		.uleb128 0x16
 919 0464 78040000 		.4byte	0x478
 920 0468 16       		.uleb128 0x16
 921 0469 59010000 		.4byte	0x159
 922 046d 16       		.uleb128 0x16
 923 046e 5B010000 		.4byte	0x15b
 924 0472 16       		.uleb128 0x16
 925 0473 25000000 		.4byte	0x25
 926 0477 00       		.byte	0
 927 0478 05       		.uleb128 0x5
 928 0479 04       		.byte	0x4
 929 047a 83040000 		.4byte	0x483
 930 047e 0F       		.uleb128 0xf
 931 047f 78040000 		.4byte	0x478
 932 0483 17       		.uleb128 0x17
 933 0484 D7020000 		.4byte	.LASF72
 934 0488 2804     		.2byte	0x428
 935 048a 07       		.byte	0x7
 936 048b 3902     		.2byte	0x239
 937 048d B5050000 		.4byte	0x5b5
 938 0491 18       		.uleb128 0x18
 939 0492 BC050000 		.4byte	.LASF73
 940 0496 07       		.byte	0x7
 941 0497 3B02     		.2byte	0x23b
 942 0499 25000000 		.4byte	0x25
 943 049d 00       		.byte	0
 944 049e 18       		.uleb128 0x18
 945 049f 32030000 		.4byte	.LASF74
 946 04a3 07       		.byte	0x7
 947 04a4 4002     		.2byte	0x240
 948 04a6 8F060000 		.4byte	0x68f
 949 04aa 04       		.byte	0x4
 950 04ab 18       		.uleb128 0x18
 951 04ac FE080000 		.4byte	.LASF75
 952 04b0 07       		.byte	0x7
 953 04b1 4002     		.2byte	0x240
 954 04b3 8F060000 		.4byte	0x68f
 955 04b7 08       		.byte	0x8
 956 04b8 18       		.uleb128 0x18
 957 04b9 4C070000 		.4byte	.LASF76
 958 04bd 07       		.byte	0x7
 959 04be 4002     		.2byte	0x240
 960 04c0 8F060000 		.4byte	0x68f
 961 04c4 0C       		.byte	0xc
 962 04c5 18       		.uleb128 0x18
 963 04c6 8D0A0000 		.4byte	.LASF77
 964 04ca 07       		.byte	0x7
 965 04cb 4202     		.2byte	0x242
 966 04cd 25000000 		.4byte	0x25
 967 04d1 10       		.byte	0x10
 968 04d2 18       		.uleb128 0x18
 969 04d3 63060000 		.4byte	.LASF78
ARM GAS  /tmp/cc7cIEMz.s 			page 18


 970 04d7 07       		.byte	0x7
 971 04d8 4302     		.2byte	0x243
 972 04da 71080000 		.4byte	0x871
 973 04de 14       		.byte	0x14
 974 04df 18       		.uleb128 0x18
 975 04e0 BE020000 		.4byte	.LASF79
 976 04e4 07       		.byte	0x7
 977 04e5 4602     		.2byte	0x246
 978 04e7 25000000 		.4byte	0x25
 979 04eb 30       		.byte	0x30
 980 04ec 18       		.uleb128 0x18
 981 04ed 010B0000 		.4byte	.LASF80
 982 04f1 07       		.byte	0x7
 983 04f2 4702     		.2byte	0x247
 984 04f4 86080000 		.4byte	0x886
 985 04f8 34       		.byte	0x34
 986 04f9 18       		.uleb128 0x18
 987 04fa 5A050000 		.4byte	.LASF81
 988 04fe 07       		.byte	0x7
 989 04ff 4902     		.2byte	0x249
 990 0501 25000000 		.4byte	0x25
 991 0505 38       		.byte	0x38
 992 0506 18       		.uleb128 0x18
 993 0507 45060000 		.4byte	.LASF82
 994 050b 07       		.byte	0x7
 995 050c 4B02     		.2byte	0x24b
 996 050e 97080000 		.4byte	0x897
 997 0512 3C       		.byte	0x3c
 998 0513 18       		.uleb128 0x18
 999 0514 200B0000 		.4byte	.LASF83
 1000 0518 07       		.byte	0x7
 1001 0519 4E02     		.2byte	0x24e
 1002 051b CB010000 		.4byte	0x1cb
 1003 051f 40       		.byte	0x40
 1004 0520 18       		.uleb128 0x18
 1005 0521 CB010000 		.4byte	.LASF84
 1006 0525 07       		.byte	0x7
 1007 0526 4F02     		.2byte	0x24f
 1008 0528 25000000 		.4byte	0x25
 1009 052c 44       		.byte	0x44
 1010 052d 18       		.uleb128 0x18
 1011 052e 26050000 		.4byte	.LASF85
 1012 0532 07       		.byte	0x7
 1013 0533 5002     		.2byte	0x250
 1014 0535 CB010000 		.4byte	0x1cb
 1015 0539 48       		.byte	0x48
 1016 053a 18       		.uleb128 0x18
 1017 053b CC060000 		.4byte	.LASF86
 1018 053f 07       		.byte	0x7
 1019 0540 5102     		.2byte	0x251
 1020 0542 9D080000 		.4byte	0x89d
 1021 0546 4C       		.byte	0x4c
 1022 0547 18       		.uleb128 0x18
 1023 0548 A1000000 		.4byte	.LASF87
 1024 054c 07       		.byte	0x7
 1025 054d 5402     		.2byte	0x254
 1026 054f 25000000 		.4byte	0x25
ARM GAS  /tmp/cc7cIEMz.s 			page 19


 1027 0553 50       		.byte	0x50
 1028 0554 18       		.uleb128 0x18
 1029 0555 F5040000 		.4byte	.LASF88
 1030 0559 07       		.byte	0x7
 1031 055a 5502     		.2byte	0x255
 1032 055c 5B010000 		.4byte	0x15b
 1033 0560 54       		.byte	0x54
 1034 0561 18       		.uleb128 0x18
 1035 0562 41070000 		.4byte	.LASF89
 1036 0566 07       		.byte	0x7
 1037 0567 7802     		.2byte	0x278
 1038 0569 4F080000 		.4byte	0x84f
 1039 056d 58       		.byte	0x58
 1040 056e 19       		.uleb128 0x19
 1041 056f 9F070000 		.4byte	.LASF49
 1042 0573 07       		.byte	0x7
 1043 0574 7C02     		.2byte	0x27c
 1044 0576 E8020000 		.4byte	0x2e8
 1045 057a 4801     		.2byte	0x148
 1046 057c 19       		.uleb128 0x19
 1047 057d 4F060000 		.4byte	.LASF90
 1048 0581 07       		.byte	0x7
 1049 0582 7D02     		.2byte	0x27d
 1050 0584 AA020000 		.4byte	0x2aa
 1051 0588 4C01     		.2byte	0x14c
 1052 058a 19       		.uleb128 0x19
 1053 058b AD040000 		.4byte	.LASF91
 1054 058f 07       		.byte	0x7
 1055 0590 8102     		.2byte	0x281
 1056 0592 AE080000 		.4byte	0x8ae
 1057 0596 DC02     		.2byte	0x2dc
 1058 0598 19       		.uleb128 0x19
 1059 0599 AC060000 		.4byte	.LASF92
 1060 059d 07       		.byte	0x7
 1061 059e 8602     		.2byte	0x286
 1062 05a0 54060000 		.4byte	0x654
 1063 05a4 E002     		.2byte	0x2e0
 1064 05a6 19       		.uleb128 0x19
 1065 05a7 4A000000 		.4byte	.LASF93
 1066 05ab 07       		.byte	0x7
 1067 05ac 8702     		.2byte	0x287
 1068 05ae BA080000 		.4byte	0x8ba
 1069 05b2 EC02     		.2byte	0x2ec
 1070 05b4 00       		.byte	0
 1071 05b5 05       		.uleb128 0x5
 1072 05b6 04       		.byte	0x4
 1073 05b7 5A040000 		.4byte	0x45a
 1074 05bb 15       		.uleb128 0x15
 1075 05bc 25000000 		.4byte	0x25
 1076 05c0 D9050000 		.4byte	0x5d9
 1077 05c4 16       		.uleb128 0x16
 1078 05c5 78040000 		.4byte	0x478
 1079 05c9 16       		.uleb128 0x16
 1080 05ca 59010000 		.4byte	0x159
 1081 05ce 16       		.uleb128 0x16
 1082 05cf D9050000 		.4byte	0x5d9
 1083 05d3 16       		.uleb128 0x16
ARM GAS  /tmp/cc7cIEMz.s 			page 20


 1084 05d4 25000000 		.4byte	0x25
 1085 05d8 00       		.byte	0
 1086 05d9 05       		.uleb128 0x5
 1087 05da 04       		.byte	0x4
 1088 05db 68010000 		.4byte	0x168
 1089 05df 1A       		.uleb128 0x1a
 1090 05e0 D9050000 		.4byte	0x5d9
 1091 05e4 05       		.uleb128 0x5
 1092 05e5 04       		.byte	0x4
 1093 05e6 BB050000 		.4byte	0x5bb
 1094 05ea 15       		.uleb128 0x15
 1095 05eb D5000000 		.4byte	0xd5
 1096 05ef 08060000 		.4byte	0x608
 1097 05f3 16       		.uleb128 0x16
 1098 05f4 78040000 		.4byte	0x478
 1099 05f8 16       		.uleb128 0x16
 1100 05f9 59010000 		.4byte	0x159
 1101 05fd 16       		.uleb128 0x16
 1102 05fe D5000000 		.4byte	0xd5
 1103 0602 16       		.uleb128 0x16
 1104 0603 25000000 		.4byte	0x25
 1105 0607 00       		.byte	0
 1106 0608 05       		.uleb128 0x5
 1107 0609 04       		.byte	0x4
 1108 060a EA050000 		.4byte	0x5ea
 1109 060e 15       		.uleb128 0x15
 1110 060f 25000000 		.4byte	0x25
 1111 0613 22060000 		.4byte	0x622
 1112 0617 16       		.uleb128 0x16
 1113 0618 78040000 		.4byte	0x478
 1114 061c 16       		.uleb128 0x16
 1115 061d 59010000 		.4byte	0x159
 1116 0621 00       		.byte	0
 1117 0622 05       		.uleb128 0x5
 1118 0623 04       		.byte	0x4
 1119 0624 0E060000 		.4byte	0x60e
 1120 0628 0A       		.uleb128 0xa
 1121 0629 5E000000 		.4byte	0x5e
 1122 062d 38060000 		.4byte	0x638
 1123 0631 0B       		.uleb128 0xb
 1124 0632 1B010000 		.4byte	0x11b
 1125 0636 02       		.byte	0x2
 1126 0637 00       		.byte	0
 1127 0638 0A       		.uleb128 0xa
 1128 0639 5E000000 		.4byte	0x5e
 1129 063d 48060000 		.4byte	0x648
 1130 0641 0B       		.uleb128 0xb
 1131 0642 1B010000 		.4byte	0x11b
 1132 0646 00       		.byte	0
 1133 0647 00       		.byte	0
 1134 0648 07       		.uleb128 0x7
 1135 0649 6D090000 		.4byte	.LASF94
 1136 064d 07       		.byte	0x7
 1137 064e 1F01     		.2byte	0x11f
 1138 0650 30030000 		.4byte	0x330
 1139 0654 1B       		.uleb128 0x1b
 1140 0655 E2060000 		.4byte	.LASF95
ARM GAS  /tmp/cc7cIEMz.s 			page 21


 1141 0659 0C       		.byte	0xc
 1142 065a 07       		.byte	0x7
 1143 065b 2301     		.2byte	0x123
 1144 065d 89060000 		.4byte	0x689
 1145 0661 18       		.uleb128 0x18
 1146 0662 AE090000 		.4byte	.LASF29
 1147 0666 07       		.byte	0x7
 1148 0667 2501     		.2byte	0x125
 1149 0669 89060000 		.4byte	0x689
 1150 066d 00       		.byte	0
 1151 066e 18       		.uleb128 0x18
 1152 066f 92060000 		.4byte	.LASF96
 1153 0673 07       		.byte	0x7
 1154 0674 2601     		.2byte	0x126
 1155 0676 25000000 		.4byte	0x25
 1156 067a 04       		.byte	0x4
 1157 067b 18       		.uleb128 0x18
 1158 067c D6060000 		.4byte	.LASF97
 1159 0680 07       		.byte	0x7
 1160 0681 2701     		.2byte	0x127
 1161 0683 8F060000 		.4byte	0x68f
 1162 0687 08       		.byte	0x8
 1163 0688 00       		.byte	0
 1164 0689 05       		.uleb128 0x5
 1165 068a 04       		.byte	0x4
 1166 068b 54060000 		.4byte	0x654
 1167 068f 05       		.uleb128 0x5
 1168 0690 04       		.byte	0x4
 1169 0691 48060000 		.4byte	0x648
 1170 0695 1B       		.uleb128 0x1b
 1171 0696 F6080000 		.4byte	.LASF98
 1172 069a 0E       		.byte	0xe
 1173 069b 07       		.byte	0x7
 1174 069c 3F01     		.2byte	0x13f
 1175 069e CA060000 		.4byte	0x6ca
 1176 06a2 18       		.uleb128 0x18
 1177 06a3 0B080000 		.4byte	.LASF99
 1178 06a7 07       		.byte	0x7
 1179 06a8 4001     		.2byte	0x140
 1180 06aa CA060000 		.4byte	0x6ca
 1181 06ae 00       		.byte	0
 1182 06af 18       		.uleb128 0x18
 1183 06b0 2C010000 		.4byte	.LASF100
 1184 06b4 07       		.byte	0x7
 1185 06b5 4101     		.2byte	0x141
 1186 06b7 CA060000 		.4byte	0x6ca
 1187 06bb 06       		.byte	0x6
 1188 06bc 18       		.uleb128 0x18
 1189 06bd 3F0B0000 		.4byte	.LASF101
 1190 06c1 07       		.byte	0x7
 1191 06c2 4201     		.2byte	0x142
 1192 06c4 77000000 		.4byte	0x77
 1193 06c8 0C       		.byte	0xc
 1194 06c9 00       		.byte	0
 1195 06ca 0A       		.uleb128 0xa
 1196 06cb 77000000 		.4byte	0x77
 1197 06cf DA060000 		.4byte	0x6da
ARM GAS  /tmp/cc7cIEMz.s 			page 22


 1198 06d3 0B       		.uleb128 0xb
 1199 06d4 1B010000 		.4byte	0x11b
 1200 06d8 02       		.byte	0x2
 1201 06d9 00       		.byte	0
 1202 06da 1C       		.uleb128 0x1c
 1203 06db D0       		.byte	0xd0
 1204 06dc 07       		.byte	0x7
 1205 06dd 5902     		.2byte	0x259
 1206 06df DB070000 		.4byte	0x7db
 1207 06e3 18       		.uleb128 0x18
 1208 06e4 40020000 		.4byte	.LASF102
 1209 06e8 07       		.byte	0x7
 1210 06e9 5B02     		.2byte	0x25b
 1211 06eb 37000000 		.4byte	0x37
 1212 06ef 00       		.byte	0
 1213 06f0 18       		.uleb128 0x18
 1214 06f1 21090000 		.4byte	.LASF103
 1215 06f5 07       		.byte	0x7
 1216 06f6 5C02     		.2byte	0x25c
 1217 06f8 5B010000 		.4byte	0x15b
 1218 06fc 04       		.byte	0x4
 1219 06fd 18       		.uleb128 0x18
 1220 06fe 94000000 		.4byte	.LASF104
 1221 0702 07       		.byte	0x7
 1222 0703 5D02     		.2byte	0x25d
 1223 0705 DB070000 		.4byte	0x7db
 1224 0709 08       		.byte	0x8
 1225 070a 18       		.uleb128 0x18
 1226 070b E0010000 		.4byte	.LASF105
 1227 070f 07       		.byte	0x7
 1228 0710 5E02     		.2byte	0x25e
 1229 0712 E1010000 		.4byte	0x1e1
 1230 0716 24       		.byte	0x24
 1231 0717 18       		.uleb128 0x18
 1232 0718 BD060000 		.4byte	.LASF106
 1233 071c 07       		.byte	0x7
 1234 071d 5F02     		.2byte	0x25f
 1235 071f 25000000 		.4byte	0x25
 1236 0723 48       		.byte	0x48
 1237 0724 18       		.uleb128 0x18
 1238 0725 73070000 		.4byte	.LASF107
 1239 0729 07       		.byte	0x7
 1240 072a 6002     		.2byte	0x260
 1241 072c AD000000 		.4byte	0xad
 1242 0730 50       		.byte	0x50
 1243 0731 18       		.uleb128 0x18
 1244 0732 8D090000 		.4byte	.LASF108
 1245 0736 07       		.byte	0x7
 1246 0737 6102     		.2byte	0x261
 1247 0739 95060000 		.4byte	0x695
 1248 073d 58       		.byte	0x58
 1249 073e 18       		.uleb128 0x18
 1250 073f F6090000 		.4byte	.LASF109
 1251 0743 07       		.byte	0x7
 1252 0744 6202     		.2byte	0x262
 1253 0746 43010000 		.4byte	0x143
 1254 074a 68       		.byte	0x68
ARM GAS  /tmp/cc7cIEMz.s 			page 23


 1255 074b 18       		.uleb128 0x18
 1256 074c 6B080000 		.4byte	.LASF110
 1257 0750 07       		.byte	0x7
 1258 0751 6302     		.2byte	0x263
 1259 0753 43010000 		.4byte	0x143
 1260 0757 70       		.byte	0x70
 1261 0758 18       		.uleb128 0x18
 1262 0759 54070000 		.4byte	.LASF111
 1263 075d 07       		.byte	0x7
 1264 075e 6402     		.2byte	0x264
 1265 0760 43010000 		.4byte	0x143
 1266 0764 78       		.byte	0x78
 1267 0765 18       		.uleb128 0x18
 1268 0766 FF000000 		.4byte	.LASF112
 1269 076a 07       		.byte	0x7
 1270 076b 6502     		.2byte	0x265
 1271 076d EB070000 		.4byte	0x7eb
 1272 0771 80       		.byte	0x80
 1273 0772 18       		.uleb128 0x18
 1274 0773 F0050000 		.4byte	.LASF113
 1275 0777 07       		.byte	0x7
 1276 0778 6602     		.2byte	0x266
 1277 077a FB070000 		.4byte	0x7fb
 1278 077e 88       		.byte	0x88
 1279 077f 18       		.uleb128 0x18
 1280 0780 020C0000 		.4byte	.LASF114
 1281 0784 07       		.byte	0x7
 1282 0785 6702     		.2byte	0x267
 1283 0787 25000000 		.4byte	0x25
 1284 078b A0       		.byte	0xa0
 1285 078c 18       		.uleb128 0x18
 1286 078d 9C010000 		.4byte	.LASF115
 1287 0791 07       		.byte	0x7
 1288 0792 6802     		.2byte	0x268
 1289 0794 43010000 		.4byte	0x143
 1290 0798 A4       		.byte	0xa4
 1291 0799 18       		.uleb128 0x18
 1292 079a 39090000 		.4byte	.LASF116
 1293 079e 07       		.byte	0x7
 1294 079f 6902     		.2byte	0x269
 1295 07a1 43010000 		.4byte	0x143
 1296 07a5 AC       		.byte	0xac
 1297 07a6 18       		.uleb128 0x18
 1298 07a7 8C0B0000 		.4byte	.LASF117
 1299 07ab 07       		.byte	0x7
 1300 07ac 6A02     		.2byte	0x26a
 1301 07ae 43010000 		.4byte	0x143
 1302 07b2 B4       		.byte	0xb4
 1303 07b3 18       		.uleb128 0x18
 1304 07b4 28070000 		.4byte	.LASF118
 1305 07b8 07       		.byte	0x7
 1306 07b9 6B02     		.2byte	0x26b
 1307 07bb 43010000 		.4byte	0x143
 1308 07bf BC       		.byte	0xbc
 1309 07c0 18       		.uleb128 0x18
 1310 07c1 DF000000 		.4byte	.LASF119
 1311 07c5 07       		.byte	0x7
ARM GAS  /tmp/cc7cIEMz.s 			page 24


 1312 07c6 6C02     		.2byte	0x26c
 1313 07c8 43010000 		.4byte	0x143
 1314 07cc C4       		.byte	0xc4
 1315 07cd 18       		.uleb128 0x18
 1316 07ce 1F070000 		.4byte	.LASF120
 1317 07d2 07       		.byte	0x7
 1318 07d3 6D02     		.2byte	0x26d
 1319 07d5 25000000 		.4byte	0x25
 1320 07d9 CC       		.byte	0xcc
 1321 07da 00       		.byte	0
 1322 07db 0A       		.uleb128 0xa
 1323 07dc 61010000 		.4byte	0x161
 1324 07e0 EB070000 		.4byte	0x7eb
 1325 07e4 0B       		.uleb128 0xb
 1326 07e5 1B010000 		.4byte	0x11b
 1327 07e9 19       		.byte	0x19
 1328 07ea 00       		.byte	0
 1329 07eb 0A       		.uleb128 0xa
 1330 07ec 61010000 		.4byte	0x161
 1331 07f0 FB070000 		.4byte	0x7fb
 1332 07f4 0B       		.uleb128 0xb
 1333 07f5 1B010000 		.4byte	0x11b
 1334 07f9 07       		.byte	0x7
 1335 07fa 00       		.byte	0
 1336 07fb 0A       		.uleb128 0xa
 1337 07fc 61010000 		.4byte	0x161
 1338 0800 0B080000 		.4byte	0x80b
 1339 0804 0B       		.uleb128 0xb
 1340 0805 1B010000 		.4byte	0x11b
 1341 0809 17       		.byte	0x17
 1342 080a 00       		.byte	0
 1343 080b 1C       		.uleb128 0x1c
 1344 080c F0       		.byte	0xf0
 1345 080d 07       		.byte	0x7
 1346 080e 7202     		.2byte	0x272
 1347 0810 2F080000 		.4byte	0x82f
 1348 0814 18       		.uleb128 0x18
 1349 0815 D40A0000 		.4byte	.LASF121
 1350 0819 07       		.byte	0x7
 1351 081a 7502     		.2byte	0x275
 1352 081c 2F080000 		.4byte	0x82f
 1353 0820 00       		.byte	0
 1354 0821 18       		.uleb128 0x18
 1355 0822 B4060000 		.4byte	.LASF122
 1356 0826 07       		.byte	0x7
 1357 0827 7602     		.2byte	0x276
 1358 0829 3F080000 		.4byte	0x83f
 1359 082d 78       		.byte	0x78
 1360 082e 00       		.byte	0
 1361 082f 0A       		.uleb128 0xa
 1362 0830 2A030000 		.4byte	0x32a
 1363 0834 3F080000 		.4byte	0x83f
 1364 0838 0B       		.uleb128 0xb
 1365 0839 1B010000 		.4byte	0x11b
 1366 083d 1D       		.byte	0x1d
 1367 083e 00       		.byte	0
 1368 083f 0A       		.uleb128 0xa
ARM GAS  /tmp/cc7cIEMz.s 			page 25


 1369 0840 37000000 		.4byte	0x37
 1370 0844 4F080000 		.4byte	0x84f
 1371 0848 0B       		.uleb128 0xb
 1372 0849 1B010000 		.4byte	0x11b
 1373 084d 1D       		.byte	0x1d
 1374 084e 00       		.byte	0
 1375 084f 1D       		.uleb128 0x1d
 1376 0850 F0       		.byte	0xf0
 1377 0851 07       		.byte	0x7
 1378 0852 5702     		.2byte	0x257
 1379 0854 71080000 		.4byte	0x871
 1380 0858 1E       		.uleb128 0x1e
 1381 0859 D7020000 		.4byte	.LASF72
 1382 085d 07       		.byte	0x7
 1383 085e 6E02     		.2byte	0x26e
 1384 0860 DA060000 		.4byte	0x6da
 1385 0864 1E       		.uleb128 0x1e
 1386 0865 D2000000 		.4byte	.LASF123
 1387 0869 07       		.byte	0x7
 1388 086a 7702     		.2byte	0x277
 1389 086c 0B080000 		.4byte	0x80b
 1390 0870 00       		.byte	0
 1391 0871 0A       		.uleb128 0xa
 1392 0872 61010000 		.4byte	0x161
 1393 0876 81080000 		.4byte	0x881
 1394 087a 0B       		.uleb128 0xb
 1395 087b 1B010000 		.4byte	0x11b
 1396 087f 18       		.byte	0x18
 1397 0880 00       		.byte	0
 1398 0881 06       		.uleb128 0x6
 1399 0882 21000000 		.4byte	.LASF125
 1400 0886 05       		.uleb128 0x5
 1401 0887 04       		.byte	0x4
 1402 0888 81080000 		.4byte	0x881
 1403 088c 1F       		.uleb128 0x1f
 1404 088d 97080000 		.4byte	0x897
 1405 0891 16       		.uleb128 0x16
 1406 0892 78040000 		.4byte	0x478
 1407 0896 00       		.byte	0
 1408 0897 05       		.uleb128 0x5
 1409 0898 04       		.byte	0x4
 1410 0899 8C080000 		.4byte	0x88c
 1411 089d 05       		.uleb128 0x5
 1412 089e 04       		.byte	0x4
 1413 089f CB010000 		.4byte	0x1cb
 1414 08a3 1F       		.uleb128 0x1f
 1415 08a4 AE080000 		.4byte	0x8ae
 1416 08a8 16       		.uleb128 0x16
 1417 08a9 25000000 		.4byte	0x25
 1418 08ad 00       		.byte	0
 1419 08ae 05       		.uleb128 0x5
 1420 08af 04       		.byte	0x4
 1421 08b0 B4080000 		.4byte	0x8b4
 1422 08b4 05       		.uleb128 0x5
 1423 08b5 04       		.byte	0x4
 1424 08b6 A3080000 		.4byte	0x8a3
 1425 08ba 0A       		.uleb128 0xa
ARM GAS  /tmp/cc7cIEMz.s 			page 26


 1426 08bb 48060000 		.4byte	0x648
 1427 08bf CA080000 		.4byte	0x8ca
 1428 08c3 0B       		.uleb128 0xb
 1429 08c4 1B010000 		.4byte	0x11b
 1430 08c8 02       		.byte	0x2
 1431 08c9 00       		.byte	0
 1432 08ca 20       		.uleb128 0x20
 1433 08cb BF010000 		.4byte	.LASF126
 1434 08cf 07       		.byte	0x7
 1435 08d0 FE02     		.2byte	0x2fe
 1436 08d2 78040000 		.4byte	0x478
 1437 08d6 20       		.uleb128 0x20
 1438 08d7 DE020000 		.4byte	.LASF127
 1439 08db 07       		.byte	0x7
 1440 08dc FF02     		.2byte	0x2ff
 1441 08de 7E040000 		.4byte	0x47e
 1442 08e2 03       		.uleb128 0x3
 1443 08e3 6A020000 		.4byte	.LASF128
 1444 08e7 08       		.byte	0x8
 1445 08e8 18       		.byte	0x18
 1446 08e9 53000000 		.4byte	0x53
 1447 08ed 0F       		.uleb128 0xf
 1448 08ee E2080000 		.4byte	0x8e2
 1449 08f2 03       		.uleb128 0x3
 1450 08f3 C1080000 		.4byte	.LASF129
 1451 08f7 08       		.byte	0x8
 1452 08f8 24       		.byte	0x24
 1453 08f9 6C000000 		.4byte	0x6c
 1454 08fd 03       		.uleb128 0x3
 1455 08fe 8C000000 		.4byte	.LASF130
 1456 0902 08       		.byte	0x8
 1457 0903 2C       		.byte	0x2c
 1458 0904 7E000000 		.4byte	0x7e
 1459 0908 1A       		.uleb128 0x1a
 1460 0909 FD080000 		.4byte	0x8fd
 1461 090d 03       		.uleb128 0x3
 1462 090e 170B0000 		.4byte	.LASF131
 1463 0912 08       		.byte	0x8
 1464 0913 30       		.byte	0x30
 1465 0914 90000000 		.4byte	0x90
 1466 0918 03       		.uleb128 0x3
 1467 0919 0D0A0000 		.4byte	.LASF132
 1468 091d 08       		.byte	0x8
 1469 091e 3C       		.byte	0x3c
 1470 091f A2000000 		.4byte	0xa2
 1471 0923 03       		.uleb128 0x3
 1472 0924 12070000 		.4byte	.LASF133
 1473 0928 09       		.byte	0x9
 1474 0929 27       		.byte	0x27
 1475 092a 0D090000 		.4byte	0x90d
 1476 092e 03       		.uleb128 0x3
 1477 092f C0090000 		.4byte	.LASF134
 1478 0933 09       		.byte	0x9
 1479 0934 2A       		.byte	0x2a
 1480 0935 E2080000 		.4byte	0x8e2
 1481 0939 03       		.uleb128 0x3
 1482 093a EF010000 		.4byte	.LASF135
ARM GAS  /tmp/cc7cIEMz.s 			page 27


 1483 093e 09       		.byte	0x9
 1484 093f 2B       		.byte	0x2b
 1485 0940 E2080000 		.4byte	0x8e2
 1486 0944 03       		.uleb128 0x3
 1487 0945 CC0A0000 		.4byte	.LASF136
 1488 0949 09       		.byte	0x9
 1489 094a 2C       		.byte	0x2c
 1490 094b E2080000 		.4byte	0x8e2
 1491 094f 03       		.uleb128 0x3
 1492 0950 6B000000 		.4byte	.LASF137
 1493 0954 09       		.byte	0x9
 1494 0955 2E       		.byte	0x2e
 1495 0956 0D090000 		.4byte	0x90d
 1496 095a 03       		.uleb128 0x3
 1497 095b DF080000 		.4byte	.LASF138
 1498 095f 09       		.byte	0x9
 1499 0960 2F       		.byte	0x2f
 1500 0961 FD080000 		.4byte	0x8fd
 1501 0965 03       		.uleb128 0x3
 1502 0966 72020000 		.4byte	.LASF139
 1503 096a 09       		.byte	0x9
 1504 096b 31       		.byte	0x31
 1505 096c 0D090000 		.4byte	0x90d
 1506 0970 03       		.uleb128 0x3
 1507 0971 7E040000 		.4byte	.LASF140
 1508 0975 09       		.byte	0x9
 1509 0976 33       		.byte	0x33
 1510 0977 FD080000 		.4byte	0x8fd
 1511 097b 03       		.uleb128 0x3
 1512 097c 05060000 		.4byte	.LASF141
 1513 0980 09       		.byte	0x9
 1514 0981 34       		.byte	0x34
 1515 0982 0D090000 		.4byte	0x90d
 1516 0986 03       		.uleb128 0x3
 1517 0987 C6070000 		.4byte	.LASF142
 1518 098b 0A       		.byte	0xa
 1519 098c 34       		.byte	0x34
 1520 098d 91090000 		.4byte	0x991
 1521 0991 10       		.uleb128 0x10
 1522 0992 8A050000 		.4byte	.LASF143
 1523 0996 44       		.byte	0x44
 1524 0997 0B       		.byte	0xb
 1525 0998 8E       		.byte	0x8e
 1526 0999 6F0A0000 		.4byte	0xa6f
 1527 099d 0D       		.uleb128 0xd
 1528 099e 1B090000 		.4byte	.LASF144
 1529 09a2 0B       		.byte	0xb
 1530 09a3 8F       		.byte	0x8f
 1531 09a4 A40A0000 		.4byte	0xaa4
 1532 09a8 00       		.byte	0
 1533 09a9 0D       		.uleb128 0xd
 1534 09aa 52010000 		.4byte	.LASF145
 1535 09ae 0B       		.byte	0xb
 1536 09af 90       		.byte	0x90
 1537 09b0 4F090000 		.4byte	0x94f
 1538 09b4 08       		.byte	0x8
 1539 09b5 11       		.uleb128 0x11
ARM GAS  /tmp/cc7cIEMz.s 			page 28


 1540 09b6 63747800 		.ascii	"ctx\000"
 1541 09ba 0B       		.byte	0xb
 1542 09bb 91       		.byte	0x91
 1543 09bc 000D0000 		.4byte	0xd00
 1544 09c0 0C       		.byte	0xc
 1545 09c1 0D       		.uleb128 0xd
 1546 09c2 110B0000 		.4byte	.LASF146
 1547 09c6 0B       		.byte	0xb
 1548 09c7 93       		.byte	0x93
 1549 09c8 7A0A0000 		.4byte	0xa7a
 1550 09cc 10       		.byte	0x10
 1551 09cd 0D       		.uleb128 0xd
 1552 09ce EA050000 		.4byte	.LASF147
 1553 09d2 0B       		.byte	0xb
 1554 09d3 94       		.byte	0x94
 1555 09d4 7A0A0000 		.4byte	0xa7a
 1556 09d8 14       		.byte	0x14
 1557 09d9 0D       		.uleb128 0xd
 1558 09da D9090000 		.4byte	.LASF148
 1559 09de 0B       		.byte	0xb
 1560 09df 9B       		.byte	0x9b
 1561 09e0 D9050000 		.4byte	0x5d9
 1562 09e4 18       		.byte	0x18
 1563 09e5 0D       		.uleb128 0xd
 1564 09e6 92090000 		.4byte	.LASF149
 1565 09ea 0B       		.byte	0xb
 1566 09eb A4       		.byte	0xa4
 1567 09ec 600F0000 		.4byte	0xf60
 1568 09f0 1C       		.byte	0x1c
 1569 09f1 0D       		.uleb128 0xd
 1570 09f2 18010000 		.4byte	.LASF150
 1571 09f6 0B       		.byte	0xb
 1572 09f7 A9       		.byte	0xa9
 1573 09f8 39090000 		.4byte	0x939
 1574 09fc 20       		.byte	0x20
 1575 09fd 0D       		.uleb128 0xd
 1576 09fe 4F040000 		.4byte	.LASF151
 1577 0a02 0B       		.byte	0xb
 1578 0a03 AD       		.byte	0xad
 1579 0a04 2E090000 		.4byte	0x92e
 1580 0a08 21       		.byte	0x21
 1581 0a09 0D       		.uleb128 0xd
 1582 0a0a 1A070000 		.4byte	.LASF152
 1583 0a0e 0B       		.byte	0xb
 1584 0a0f B2       		.byte	0xb2
 1585 0a10 44090000 		.4byte	0x944
 1586 0a14 22       		.byte	0x22
 1587 0a15 21       		.uleb128 0x21
 1588 0a16 7500     		.ascii	"u\000"
 1589 0a18 0B       		.byte	0xb
 1590 0a19 0301     		.2byte	0x103
 1591 0a1b 8A0E0000 		.4byte	0xe8a
 1592 0a1f 24       		.byte	0x24
 1593 0a20 18       		.uleb128 0x18
 1594 0a21 970A0000 		.4byte	.LASF153
 1595 0a25 0B       		.byte	0xb
 1596 0a26 0801     		.2byte	0x108
ARM GAS  /tmp/cc7cIEMz.s 			page 29


 1597 0a28 800A0000 		.4byte	0xa80
 1598 0a2c 28       		.byte	0x28
 1599 0a2d 18       		.uleb128 0x18
 1600 0a2e 3A0A0000 		.4byte	.LASF154
 1601 0a32 0B       		.byte	0xb
 1602 0a33 0E01     		.2byte	0x10e
 1603 0a35 A40A0000 		.4byte	0xaa4
 1604 0a39 2C       		.byte	0x2c
 1605 0a3a 18       		.uleb128 0x18
 1606 0a3b F8010000 		.4byte	.LASF155
 1607 0a3f 0B       		.byte	0xb
 1608 0a40 1401     		.2byte	0x114
 1609 0a42 65090000 		.4byte	0x965
 1610 0a46 34       		.byte	0x34
 1611 0a47 18       		.uleb128 0x18
 1612 0a48 6E060000 		.4byte	.LASF156
 1613 0a4c 0B       		.byte	0xb
 1614 0a4d 1B01     		.2byte	0x11b
 1615 0a4f 5A0F0000 		.4byte	0xf5a
 1616 0a53 38       		.byte	0x38
 1617 0a54 18       		.uleb128 0x18
 1618 0a55 FC050000 		.4byte	.LASF157
 1619 0a59 0B       		.byte	0xb
 1620 0a5a 1F01     		.2byte	0x11f
 1621 0a5c 4F090000 		.4byte	0x94f
 1622 0a60 3C       		.byte	0x3c
 1623 0a61 18       		.uleb128 0x18
 1624 0a62 67040000 		.4byte	.LASF158
 1625 0a66 0B       		.byte	0xb
 1626 0a67 2601     		.2byte	0x126
 1627 0a69 59010000 		.4byte	0x159
 1628 0a6d 40       		.byte	0x40
 1629 0a6e 00       		.byte	0
 1630 0a6f 03       		.uleb128 0x3
 1631 0a70 8C070000 		.4byte	.LASF159
 1632 0a74 0A       		.byte	0xa
 1633 0a75 39       		.byte	0x39
 1634 0a76 7A0A0000 		.4byte	0xa7a
 1635 0a7a 05       		.uleb128 0x5
 1636 0a7b 04       		.byte	0x4
 1637 0a7c 86090000 		.4byte	0x986
 1638 0a80 03       		.uleb128 0x3
 1639 0a81 E80A0000 		.4byte	.LASF160
 1640 0a85 0A       		.byte	0xa
 1641 0a86 3E       		.byte	0x3e
 1642 0a87 8B0A0000 		.4byte	0xa8b
 1643 0a8b 10       		.uleb128 0x10
 1644 0a8c 2D060000 		.4byte	.LASF161
 1645 0a90 04       		.byte	0x4
 1646 0a91 0B       		.byte	0xb
 1647 0a92 7C       		.byte	0x7c
 1648 0a93 A40A0000 		.4byte	0xaa4
 1649 0a97 0D       		.uleb128 0xd
 1650 0a98 DD0B0000 		.4byte	.LASF162
 1651 0a9c 0B       		.byte	0xb
 1652 0a9d 7D       		.byte	0x7d
 1653 0a9e 7A0A0000 		.4byte	0xa7a
ARM GAS  /tmp/cc7cIEMz.s 			page 30


 1654 0aa2 00       		.byte	0
 1655 0aa3 00       		.byte	0
 1656 0aa4 03       		.uleb128 0x3
 1657 0aa5 01020000 		.4byte	.LASF163
 1658 0aa9 0A       		.byte	0xa
 1659 0aaa 45       		.byte	0x45
 1660 0aab AF0A0000 		.4byte	0xaaf
 1661 0aaf 10       		.uleb128 0x10
 1662 0ab0 E5080000 		.4byte	.LASF164
 1663 0ab4 08       		.byte	0x8
 1664 0ab5 0B       		.byte	0xb
 1665 0ab6 83       		.byte	0x83
 1666 0ab7 D40A0000 		.4byte	0xad4
 1667 0abb 0D       		.uleb128 0xd
 1668 0abc DD0B0000 		.4byte	.LASF162
 1669 0ac0 0B       		.byte	0xb
 1670 0ac1 84       		.byte	0x84
 1671 0ac2 7A0A0000 		.4byte	0xa7a
 1672 0ac6 00       		.byte	0
 1673 0ac7 0D       		.uleb128 0xd
 1674 0ac8 9D0B0000 		.4byte	.LASF165
 1675 0acc 0B       		.byte	0xb
 1676 0acd 85       		.byte	0x85
 1677 0ace 7A0A0000 		.4byte	0xa7a
 1678 0ad2 04       		.byte	0x4
 1679 0ad3 00       		.byte	0
 1680 0ad4 03       		.uleb128 0x3
 1681 0ad5 DD050000 		.4byte	.LASF166
 1682 0ad9 0A       		.byte	0xa
 1683 0ada 4C       		.byte	0x4c
 1684 0adb DF0A0000 		.4byte	0xadf
 1685 0adf 1B       		.uleb128 0x1b
 1686 0ae0 98040000 		.4byte	.LASF167
 1687 0ae4 1C       		.byte	0x1c
 1688 0ae5 0B       		.byte	0xb
 1689 0ae6 5E01     		.2byte	0x15e
 1690 0ae8 3B0B0000 		.4byte	0xb3b
 1691 0aec 18       		.uleb128 0x18
 1692 0aed 1B090000 		.4byte	.LASF144
 1693 0af1 0B       		.byte	0xb
 1694 0af2 5F01     		.2byte	0x15f
 1695 0af4 A40A0000 		.4byte	0xaa4
 1696 0af8 00       		.byte	0
 1697 0af9 18       		.uleb128 0x18
 1698 0afa 52010000 		.4byte	.LASF145
 1699 0afe 0B       		.byte	0xb
 1700 0aff 6001     		.2byte	0x160
 1701 0b01 4F090000 		.4byte	0x94f
 1702 0b05 08       		.byte	0x8
 1703 0b06 21       		.uleb128 0x21
 1704 0b07 63747800 		.ascii	"ctx\000"
 1705 0b0b 0B       		.byte	0xb
 1706 0b0c 6201     		.2byte	0x162
 1707 0b0e 000D0000 		.4byte	0xd00
 1708 0b12 0C       		.byte	0xc
 1709 0b13 18       		.uleb128 0x18
 1710 0b14 110B0000 		.4byte	.LASF146
ARM GAS  /tmp/cc7cIEMz.s 			page 31


 1711 0b18 0B       		.byte	0xb
 1712 0b19 6501     		.2byte	0x165
 1713 0b1b 7A0A0000 		.4byte	0xa7a
 1714 0b1f 10       		.byte	0x10
 1715 0b20 18       		.uleb128 0x18
 1716 0b21 EA050000 		.4byte	.LASF147
 1717 0b25 0B       		.byte	0xb
 1718 0b26 6601     		.2byte	0x166
 1719 0b28 7A0A0000 		.4byte	0xa7a
 1720 0b2c 14       		.byte	0x14
 1721 0b2d 18       		.uleb128 0x18
 1722 0b2e 6B070000 		.4byte	.LASF168
 1723 0b32 0B       		.byte	0xb
 1724 0b33 6901     		.2byte	0x169
 1725 0b35 7A0A0000 		.4byte	0xa7a
 1726 0b39 18       		.byte	0x18
 1727 0b3a 00       		.byte	0
 1728 0b3b 03       		.uleb128 0x3
 1729 0b3c A9000000 		.4byte	.LASF169
 1730 0b40 0A       		.byte	0xa
 1731 0b41 51       		.byte	0x51
 1732 0b42 460B0000 		.4byte	0xb46
 1733 0b46 05       		.uleb128 0x5
 1734 0b47 04       		.byte	0x4
 1735 0b48 4C0B0000 		.4byte	0xb4c
 1736 0b4c 1F       		.uleb128 0x1f
 1737 0b4d 570B0000 		.4byte	0xb57
 1738 0b51 16       		.uleb128 0x16
 1739 0b52 59010000 		.4byte	0x159
 1740 0b56 00       		.byte	0
 1741 0b57 03       		.uleb128 0x3
 1742 0b58 CD050000 		.4byte	.LASF170
 1743 0b5c 0A       		.byte	0xa
 1744 0b5d 56       		.byte	0x56
 1745 0b5e 620B0000 		.4byte	0xb62
 1746 0b62 1B       		.uleb128 0x1b
 1747 0b63 5A080000 		.4byte	.LASF171
 1748 0b67 14       		.byte	0x14
 1749 0b68 0B       		.byte	0xb
 1750 0b69 3901     		.2byte	0x139
 1751 0b6b B10B0000 		.4byte	0xbb1
 1752 0b6f 18       		.uleb128 0x18
 1753 0b70 DD0B0000 		.4byte	.LASF162
 1754 0b74 0B       		.byte	0xb
 1755 0b75 3A01     		.2byte	0x13a
 1756 0b77 660F0000 		.4byte	0xf66
 1757 0b7b 00       		.byte	0
 1758 0b7c 18       		.uleb128 0x18
 1759 0b7d 9D0B0000 		.4byte	.LASF165
 1760 0b81 0B       		.byte	0xb
 1761 0b82 3B01     		.2byte	0x13b
 1762 0b84 660F0000 		.4byte	0xf66
 1763 0b88 04       		.byte	0x4
 1764 0b89 18       		.uleb128 0x18
 1765 0b8a 06090000 		.4byte	.LASF172
 1766 0b8e 0B       		.byte	0xb
 1767 0b8f 3C01     		.2byte	0x13c
ARM GAS  /tmp/cc7cIEMz.s 			page 32


 1768 0b91 880C0000 		.4byte	0xc88
 1769 0b95 08       		.byte	0x8
 1770 0b96 18       		.uleb128 0x18
 1771 0b97 160A0000 		.4byte	.LASF173
 1772 0b9b 0B       		.byte	0xb
 1773 0b9c 3D01     		.2byte	0x13d
 1774 0b9e 3B0B0000 		.4byte	0xb3b
 1775 0ba2 0C       		.byte	0xc
 1776 0ba3 21       		.uleb128 0x21
 1777 0ba4 70617200 		.ascii	"par\000"
 1778 0ba8 0B       		.byte	0xb
 1779 0ba9 3F01     		.2byte	0x13f
 1780 0bab 59010000 		.4byte	0x159
 1781 0baf 10       		.byte	0x10
 1782 0bb0 00       		.byte	0
 1783 0bb1 03       		.uleb128 0x3
 1784 0bb2 94050000 		.4byte	.LASF174
 1785 0bb6 0A       		.byte	0xa
 1786 0bb7 5B       		.byte	0x5b
 1787 0bb8 BC0B0000 		.4byte	0xbbc
 1788 0bbc 1B       		.uleb128 0x1b
 1789 0bbd BB000000 		.4byte	.LASF175
 1790 0bc1 10       		.byte	0x10
 1791 0bc2 0B       		.byte	0xb
 1792 0bc3 4901     		.2byte	0x149
 1793 0bc5 FE0B0000 		.4byte	0xbfe
 1794 0bc9 18       		.uleb128 0x18
 1795 0bca DD0B0000 		.4byte	.LASF162
 1796 0bce 0B       		.byte	0xb
 1797 0bcf 4A01     		.2byte	0x14a
 1798 0bd1 660F0000 		.4byte	0xf66
 1799 0bd5 00       		.byte	0
 1800 0bd6 18       		.uleb128 0x18
 1801 0bd7 9D0B0000 		.4byte	.LASF165
 1802 0bdb 0B       		.byte	0xb
 1803 0bdc 4C01     		.2byte	0x14c
 1804 0bde 660F0000 		.4byte	0xf66
 1805 0be2 04       		.byte	0x4
 1806 0be3 18       		.uleb128 0x18
 1807 0be4 06090000 		.4byte	.LASF172
 1808 0be8 0B       		.byte	0xb
 1809 0be9 4E01     		.2byte	0x14e
 1810 0beb 880C0000 		.4byte	0xc88
 1811 0bef 08       		.byte	0x8
 1812 0bf0 18       		.uleb128 0x18
 1813 0bf1 AB020000 		.4byte	.LASF176
 1814 0bf5 0B       		.byte	0xb
 1815 0bf6 5601     		.2byte	0x156
 1816 0bf8 7D0C0000 		.4byte	0xc7d
 1817 0bfc 0C       		.byte	0xc
 1818 0bfd 00       		.byte	0
 1819 0bfe 03       		.uleb128 0x3
 1820 0bff F1020000 		.4byte	.LASF177
 1821 0c03 0A       		.byte	0xa
 1822 0c04 60       		.byte	0x60
 1823 0c05 090C0000 		.4byte	0xc09
 1824 0c09 1B       		.uleb128 0x1b
ARM GAS  /tmp/cc7cIEMz.s 			page 33


 1825 0c0a 4C0A0000 		.4byte	.LASF178
 1826 0c0e 04       		.byte	0x4
 1827 0c0f 0B       		.byte	0xb
 1828 0c10 7001     		.2byte	0x170
 1829 0c12 240C0000 		.4byte	0xc24
 1830 0c16 18       		.uleb128 0x18
 1831 0c17 B4020000 		.4byte	.LASF179
 1832 0c1b 0B       		.byte	0xb
 1833 0c1c 7801     		.2byte	0x178
 1834 0c1e DF050000 		.4byte	0x5df
 1835 0c22 00       		.byte	0
 1836 0c23 00       		.byte	0
 1837 0c24 03       		.uleb128 0x3
 1838 0c25 610B0000 		.4byte	.LASF180
 1839 0c29 0A       		.byte	0xa
 1840 0c2a 65       		.byte	0x65
 1841 0c2b 2F0C0000 		.4byte	0xc2f
 1842 0c2f 1B       		.uleb128 0x1b
 1843 0c30 F70A0000 		.4byte	.LASF181
 1844 0c34 78       		.byte	0x78
 1845 0c35 0B       		.byte	0xb
 1846 0c36 9001     		.2byte	0x190
 1847 0c38 7D0C0000 		.4byte	0xc7d
 1848 0c3c 18       		.uleb128 0x18
 1849 0c3d BA090000 		.4byte	.LASF182
 1850 0c41 0B       		.byte	0xb
 1851 0c42 9401     		.2byte	0x194
 1852 0c44 D40A0000 		.4byte	0xad4
 1853 0c48 00       		.byte	0
 1854 0c49 18       		.uleb128 0x18
 1855 0c4a 860A0000 		.4byte	.LASF183
 1856 0c4e 0B       		.byte	0xb
 1857 0c4f 9801     		.2byte	0x198
 1858 0c51 B10B0000 		.4byte	0xbb1
 1859 0c55 1C       		.byte	0x1c
 1860 0c56 21       		.uleb128 0x21
 1861 0c57 64626700 		.ascii	"dbg\000"
 1862 0c5b 0B       		.byte	0xb
 1863 0c5c 9C01     		.2byte	0x19c
 1864 0c5e FE0B0000 		.4byte	0xbfe
 1865 0c62 2C       		.byte	0x2c
 1866 0c63 18       		.uleb128 0x18
 1867 0c64 51090000 		.4byte	.LASF184
 1868 0c68 0B       		.byte	0xb
 1869 0c69 A001     		.2byte	0x1a0
 1870 0c6b 86090000 		.4byte	0x986
 1871 0c6f 30       		.byte	0x30
 1872 0c70 21       		.uleb128 0x21
 1873 0c71 746D00   		.ascii	"tm\000"
 1874 0c74 0B       		.byte	0xb
 1875 0c75 A501     		.2byte	0x1a5
 1876 0c77 7F0E0000 		.4byte	0xe7f
 1877 0c7b 74       		.byte	0x74
 1878 0c7c 00       		.byte	0
 1879 0c7d 03       		.uleb128 0x3
 1880 0c7e 34000000 		.4byte	.LASF185
 1881 0c82 0C       		.byte	0xc
ARM GAS  /tmp/cc7cIEMz.s 			page 34


 1882 0c83 6D       		.byte	0x6d
 1883 0c84 0D090000 		.4byte	0x90d
 1884 0c88 03       		.uleb128 0x3
 1885 0c89 84060000 		.4byte	.LASF186
 1886 0c8d 0C       		.byte	0xc
 1887 0c8e 79       		.byte	0x79
 1888 0c8f 0D090000 		.4byte	0x90d
 1889 0c93 20       		.uleb128 0x20
 1890 0c94 E8060000 		.4byte	.LASF187
 1891 0c98 0D       		.byte	0xd
 1892 0c99 0408     		.2byte	0x804
 1893 0c9b 08090000 		.4byte	0x908
 1894 0c9f 22       		.uleb128 0x22
 1895 0ca0 6D050000 		.4byte	.LASF188
 1896 0ca4 0E       		.byte	0xe
 1897 0ca5 4C       		.byte	0x4c
 1898 0ca6 0D090000 		.4byte	0x90d
 1899 0caa 0A       		.uleb128 0xa
 1900 0cab ED080000 		.4byte	0x8ed
 1901 0caf BA0C0000 		.4byte	0xcba
 1902 0cb3 0B       		.uleb128 0xb
 1903 0cb4 1B010000 		.4byte	0x11b
 1904 0cb8 0F       		.byte	0xf
 1905 0cb9 00       		.byte	0
 1906 0cba 0F       		.uleb128 0xf
 1907 0cbb AA0C0000 		.4byte	0xcaa
 1908 0cbf 22       		.uleb128 0x22
 1909 0cc0 4C080000 		.4byte	.LASF189
 1910 0cc4 0E       		.byte	0xe
 1911 0cc5 4E       		.byte	0x4e
 1912 0cc6 BA0C0000 		.4byte	0xcba
 1913 0cca 0A       		.uleb128 0xa
 1914 0ccb ED080000 		.4byte	0x8ed
 1915 0ccf DA0C0000 		.4byte	0xcda
 1916 0cd3 0B       		.uleb128 0xb
 1917 0cd4 1B010000 		.4byte	0x11b
 1918 0cd8 07       		.byte	0x7
 1919 0cd9 00       		.byte	0
 1920 0cda 0F       		.uleb128 0xf
 1921 0cdb CA0C0000 		.4byte	0xcca
 1922 0cdf 22       		.uleb128 0x22
 1923 0ce0 E8090000 		.4byte	.LASF190
 1924 0ce4 0E       		.byte	0xe
 1925 0ce5 4F       		.byte	0x4f
 1926 0ce6 DA0C0000 		.4byte	0xcda
 1927 0cea 03       		.uleb128 0x3
 1928 0ceb 11020000 		.4byte	.LASF191
 1929 0cef 0F       		.byte	0xf
 1930 0cf0 65       		.byte	0x65
 1931 0cf1 59010000 		.4byte	0x159
 1932 0cf5 03       		.uleb128 0x3
 1933 0cf6 55040000 		.4byte	.LASF192
 1934 0cfa 0F       		.byte	0xf
 1935 0cfb 6D       		.byte	0x6d
 1936 0cfc 18090000 		.4byte	0x918
 1937 0d00 10       		.uleb128 0x10
 1938 0d01 DB0A0000 		.4byte	.LASF193
ARM GAS  /tmp/cc7cIEMz.s 			page 35


 1939 0d05 04       		.byte	0x4
 1940 0d06 0F       		.byte	0xf
 1941 0d07 89       		.byte	0x89
 1942 0d08 180D0000 		.4byte	0xd18
 1943 0d0c 11       		.uleb128 0x11
 1944 0d0d 737000   		.ascii	"sp\000"
 1945 0d10 0F       		.byte	0xf
 1946 0d11 8A       		.byte	0x8a
 1947 0d12 640E0000 		.4byte	0xe64
 1948 0d16 00       		.byte	0
 1949 0d17 00       		.byte	0
 1950 0d18 1B       		.uleb128 0x1b
 1951 0d19 ED070000 		.4byte	.LASF194
 1952 0d1d 64       		.byte	0x64
 1953 0d1e 10       		.byte	0x10
 1954 0d1f 5901     		.2byte	0x159
 1955 0d21 640E0000 		.4byte	0xe64
 1956 0d25 21       		.uleb128 0x21
 1957 0d26 73313600 		.ascii	"s16\000"
 1958 0d2a 10       		.byte	0x10
 1959 0d2b 5B01     		.2byte	0x15b
 1960 0d2d EA0C0000 		.4byte	0xcea
 1961 0d31 00       		.byte	0
 1962 0d32 21       		.uleb128 0x21
 1963 0d33 73313700 		.ascii	"s17\000"
 1964 0d37 10       		.byte	0x10
 1965 0d38 5C01     		.2byte	0x15c
 1966 0d3a EA0C0000 		.4byte	0xcea
 1967 0d3e 04       		.byte	0x4
 1968 0d3f 21       		.uleb128 0x21
 1969 0d40 73313800 		.ascii	"s18\000"
 1970 0d44 10       		.byte	0x10
 1971 0d45 5D01     		.2byte	0x15d
 1972 0d47 EA0C0000 		.4byte	0xcea
 1973 0d4b 08       		.byte	0x8
 1974 0d4c 21       		.uleb128 0x21
 1975 0d4d 73313900 		.ascii	"s19\000"
 1976 0d51 10       		.byte	0x10
 1977 0d52 5E01     		.2byte	0x15e
 1978 0d54 EA0C0000 		.4byte	0xcea
 1979 0d58 0C       		.byte	0xc
 1980 0d59 21       		.uleb128 0x21
 1981 0d5a 73323000 		.ascii	"s20\000"
 1982 0d5e 10       		.byte	0x10
 1983 0d5f 5F01     		.2byte	0x15f
 1984 0d61 EA0C0000 		.4byte	0xcea
 1985 0d65 10       		.byte	0x10
 1986 0d66 21       		.uleb128 0x21
 1987 0d67 73323100 		.ascii	"s21\000"
 1988 0d6b 10       		.byte	0x10
 1989 0d6c 6001     		.2byte	0x160
 1990 0d6e EA0C0000 		.4byte	0xcea
 1991 0d72 14       		.byte	0x14
 1992 0d73 21       		.uleb128 0x21
 1993 0d74 73323200 		.ascii	"s22\000"
 1994 0d78 10       		.byte	0x10
 1995 0d79 6101     		.2byte	0x161
ARM GAS  /tmp/cc7cIEMz.s 			page 36


 1996 0d7b EA0C0000 		.4byte	0xcea
 1997 0d7f 18       		.byte	0x18
 1998 0d80 21       		.uleb128 0x21
 1999 0d81 73323300 		.ascii	"s23\000"
 2000 0d85 10       		.byte	0x10
 2001 0d86 6201     		.2byte	0x162
 2002 0d88 EA0C0000 		.4byte	0xcea
 2003 0d8c 1C       		.byte	0x1c
 2004 0d8d 21       		.uleb128 0x21
 2005 0d8e 73323400 		.ascii	"s24\000"
 2006 0d92 10       		.byte	0x10
 2007 0d93 6301     		.2byte	0x163
 2008 0d95 EA0C0000 		.4byte	0xcea
 2009 0d99 20       		.byte	0x20
 2010 0d9a 21       		.uleb128 0x21
 2011 0d9b 73323500 		.ascii	"s25\000"
 2012 0d9f 10       		.byte	0x10
 2013 0da0 6401     		.2byte	0x164
 2014 0da2 EA0C0000 		.4byte	0xcea
 2015 0da6 24       		.byte	0x24
 2016 0da7 21       		.uleb128 0x21
 2017 0da8 73323600 		.ascii	"s26\000"
 2018 0dac 10       		.byte	0x10
 2019 0dad 6501     		.2byte	0x165
 2020 0daf EA0C0000 		.4byte	0xcea
 2021 0db3 28       		.byte	0x28
 2022 0db4 21       		.uleb128 0x21
 2023 0db5 73323700 		.ascii	"s27\000"
 2024 0db9 10       		.byte	0x10
 2025 0dba 6601     		.2byte	0x166
 2026 0dbc EA0C0000 		.4byte	0xcea
 2027 0dc0 2C       		.byte	0x2c
 2028 0dc1 21       		.uleb128 0x21
 2029 0dc2 73323800 		.ascii	"s28\000"
 2030 0dc6 10       		.byte	0x10
 2031 0dc7 6701     		.2byte	0x167
 2032 0dc9 EA0C0000 		.4byte	0xcea
 2033 0dcd 30       		.byte	0x30
 2034 0dce 21       		.uleb128 0x21
 2035 0dcf 73323900 		.ascii	"s29\000"
 2036 0dd3 10       		.byte	0x10
 2037 0dd4 6801     		.2byte	0x168
 2038 0dd6 EA0C0000 		.4byte	0xcea
 2039 0dda 34       		.byte	0x34
 2040 0ddb 21       		.uleb128 0x21
 2041 0ddc 73333000 		.ascii	"s30\000"
 2042 0de0 10       		.byte	0x10
 2043 0de1 6901     		.2byte	0x169
 2044 0de3 EA0C0000 		.4byte	0xcea
 2045 0de7 38       		.byte	0x38
 2046 0de8 21       		.uleb128 0x21
 2047 0de9 73333100 		.ascii	"s31\000"
 2048 0ded 10       		.byte	0x10
 2049 0dee 6A01     		.2byte	0x16a
 2050 0df0 EA0C0000 		.4byte	0xcea
 2051 0df4 3C       		.byte	0x3c
 2052 0df5 21       		.uleb128 0x21
ARM GAS  /tmp/cc7cIEMz.s 			page 37


 2053 0df6 723400   		.ascii	"r4\000"
 2054 0df9 10       		.byte	0x10
 2055 0dfa 6C01     		.2byte	0x16c
 2056 0dfc EA0C0000 		.4byte	0xcea
 2057 0e00 40       		.byte	0x40
 2058 0e01 21       		.uleb128 0x21
 2059 0e02 723500   		.ascii	"r5\000"
 2060 0e05 10       		.byte	0x10
 2061 0e06 6D01     		.2byte	0x16d
 2062 0e08 EA0C0000 		.4byte	0xcea
 2063 0e0c 44       		.byte	0x44
 2064 0e0d 21       		.uleb128 0x21
 2065 0e0e 723600   		.ascii	"r6\000"
 2066 0e11 10       		.byte	0x10
 2067 0e12 6E01     		.2byte	0x16e
 2068 0e14 EA0C0000 		.4byte	0xcea
 2069 0e18 48       		.byte	0x48
 2070 0e19 21       		.uleb128 0x21
 2071 0e1a 723700   		.ascii	"r7\000"
 2072 0e1d 10       		.byte	0x10
 2073 0e1e 6F01     		.2byte	0x16f
 2074 0e20 EA0C0000 		.4byte	0xcea
 2075 0e24 4C       		.byte	0x4c
 2076 0e25 21       		.uleb128 0x21
 2077 0e26 723800   		.ascii	"r8\000"
 2078 0e29 10       		.byte	0x10
 2079 0e2a 7001     		.2byte	0x170
 2080 0e2c EA0C0000 		.4byte	0xcea
 2081 0e30 50       		.byte	0x50
 2082 0e31 21       		.uleb128 0x21
 2083 0e32 723900   		.ascii	"r9\000"
 2084 0e35 10       		.byte	0x10
 2085 0e36 7101     		.2byte	0x171
 2086 0e38 EA0C0000 		.4byte	0xcea
 2087 0e3c 54       		.byte	0x54
 2088 0e3d 21       		.uleb128 0x21
 2089 0e3e 72313000 		.ascii	"r10\000"
 2090 0e42 10       		.byte	0x10
 2091 0e43 7201     		.2byte	0x172
 2092 0e45 EA0C0000 		.4byte	0xcea
 2093 0e49 58       		.byte	0x58
 2094 0e4a 21       		.uleb128 0x21
 2095 0e4b 72313100 		.ascii	"r11\000"
 2096 0e4f 10       		.byte	0x10
 2097 0e50 7301     		.2byte	0x173
 2098 0e52 EA0C0000 		.4byte	0xcea
 2099 0e56 5C       		.byte	0x5c
 2100 0e57 21       		.uleb128 0x21
 2101 0e58 6C7200   		.ascii	"lr\000"
 2102 0e5b 10       		.byte	0x10
 2103 0e5c 7401     		.2byte	0x174
 2104 0e5e EA0C0000 		.4byte	0xcea
 2105 0e62 60       		.byte	0x60
 2106 0e63 00       		.byte	0
 2107 0e64 05       		.uleb128 0x5
 2108 0e65 04       		.byte	0x4
 2109 0e66 180D0000 		.4byte	0xd18
ARM GAS  /tmp/cc7cIEMz.s 			page 38


 2110 0e6a 0C       		.uleb128 0xc
 2111 0e6b 04       		.byte	0x4
 2112 0e6c 11       		.byte	0x11
 2113 0e6d 38       		.byte	0x38
 2114 0e6e 7F0E0000 		.4byte	0xe7f
 2115 0e72 0D       		.uleb128 0xd
 2116 0e73 85070000 		.4byte	.LASF195
 2117 0e77 11       		.byte	0x11
 2118 0e78 3C       		.byte	0x3c
 2119 0e79 23090000 		.4byte	0x923
 2120 0e7d 00       		.byte	0
 2121 0e7e 00       		.byte	0
 2122 0e7f 03       		.uleb128 0x3
 2123 0e80 C8090000 		.4byte	.LASF196
 2124 0e84 11       		.byte	0x11
 2125 0e85 3D       		.byte	0x3d
 2126 0e86 6A0E0000 		.4byte	0xe6a
 2127 0e8a 08       		.uleb128 0x8
 2128 0e8b 04       		.byte	0x4
 2129 0e8c 0B       		.byte	0xb
 2130 0e8d C6       		.byte	0xc6
 2131 0e8e EC0E0000 		.4byte	0xeec
 2132 0e92 09       		.uleb128 0x9
 2133 0e93 380B0000 		.4byte	.LASF197
 2134 0e97 0B       		.byte	0xb
 2135 0e98 CD       		.byte	0xcd
 2136 0e99 5A090000 		.4byte	0x95a
 2137 0e9d 09       		.uleb128 0x9
 2138 0e9e 6E010000 		.4byte	.LASF198
 2139 0ea2 0B       		.byte	0xb
 2140 0ea3 D4       		.byte	0xd4
 2141 0ea4 5A090000 		.4byte	0x95a
 2142 0ea8 09       		.uleb128 0x9
 2143 0ea9 2B030000 		.4byte	.LASF199
 2144 0ead 0B       		.byte	0xb
 2145 0eae DB       		.byte	0xdb
 2146 0eaf 59010000 		.4byte	0x159
 2147 0eb3 09       		.uleb128 0x9
 2148 0eb4 7E020000 		.4byte	.LASF200
 2149 0eb8 0B       		.byte	0xb
 2150 0eb9 E2       		.byte	0xe2
 2151 0eba EC0E0000 		.4byte	0xeec
 2152 0ebe 09       		.uleb128 0x9
 2153 0ebf E5070000 		.4byte	.LASF201
 2154 0ec3 0B       		.byte	0xb
 2155 0ec4 E7       		.byte	0xe7
 2156 0ec5 5A090000 		.4byte	0x95a
 2157 0ec9 09       		.uleb128 0x9
 2158 0eca 0F0C0000 		.4byte	.LASF202
 2159 0ece 0B       		.byte	0xb
 2160 0ecf F0       		.byte	0xf0
 2161 0ed0 170F0000 		.4byte	0xf17
 2162 0ed4 09       		.uleb128 0x9
 2163 0ed5 8C040000 		.4byte	.LASF203
 2164 0ed9 0B       		.byte	0xb
 2165 0eda F9       		.byte	0xf9
 2166 0edb 5A0F0000 		.4byte	0xf5a
ARM GAS  /tmp/cc7cIEMz.s 			page 39


 2167 0edf 1E       		.uleb128 0x1e
 2168 0ee0 63020000 		.4byte	.LASF204
 2169 0ee4 0B       		.byte	0xb
 2170 0ee5 0101     		.2byte	0x101
 2171 0ee7 65090000 		.4byte	0x965
 2172 0eeb 00       		.byte	0
 2173 0eec 05       		.uleb128 0x5
 2174 0eed 04       		.byte	0x4
 2175 0eee 6F0A0000 		.4byte	0xa6f
 2176 0ef2 10       		.uleb128 0x10
 2177 0ef3 7D050000 		.4byte	.LASF205
 2178 0ef7 0C       		.byte	0xc
 2179 0ef8 12       		.byte	0x12
 2180 0ef9 34       		.byte	0x34
 2181 0efa 170F0000 		.4byte	0xf17
 2182 0efe 0D       		.uleb128 0xd
 2183 0eff 1B090000 		.4byte	.LASF144
 2184 0f03 12       		.byte	0x12
 2185 0f04 35       		.byte	0x35
 2186 0f05 A40A0000 		.4byte	0xaa4
 2187 0f09 00       		.byte	0
 2188 0f0a 11       		.uleb128 0x11
 2189 0f0b 636E7400 		.ascii	"cnt\000"
 2190 0f0f 12       		.byte	0x12
 2191 0f10 37       		.byte	0x37
 2192 0f11 70090000 		.4byte	0x970
 2193 0f15 08       		.byte	0x8
 2194 0f16 00       		.byte	0
 2195 0f17 05       		.uleb128 0x5
 2196 0f18 04       		.byte	0x4
 2197 0f19 F20E0000 		.4byte	0xef2
 2198 0f1d 10       		.uleb128 0x10
 2199 0f1e 310A0000 		.4byte	.LASF206
 2200 0f22 14       		.byte	0x14
 2201 0f23 13       		.byte	0x13
 2202 0f24 39       		.byte	0x39
 2203 0f25 5A0F0000 		.4byte	0xf5a
 2204 0f29 0D       		.uleb128 0xd
 2205 0f2a 1B090000 		.4byte	.LASF144
 2206 0f2e 13       		.byte	0x13
 2207 0f2f 3A       		.byte	0x3a
 2208 0f30 A40A0000 		.4byte	0xaa4
 2209 0f34 00       		.byte	0
 2210 0f35 0D       		.uleb128 0xd
 2211 0f36 5F000000 		.4byte	.LASF207
 2212 0f3a 13       		.byte	0x13
 2213 0f3b 3C       		.byte	0x3c
 2214 0f3c 7A0A0000 		.4byte	0xa7a
 2215 0f40 08       		.byte	0x8
 2216 0f41 0D       		.uleb128 0xd
 2217 0f42 DD0B0000 		.4byte	.LASF162
 2218 0f46 13       		.byte	0x13
 2219 0f47 3E       		.byte	0x3e
 2220 0f48 A5100000 		.4byte	0x10a5
 2221 0f4c 0C       		.byte	0xc
 2222 0f4d 11       		.uleb128 0x11
 2223 0f4e 636E7400 		.ascii	"cnt\000"
ARM GAS  /tmp/cc7cIEMz.s 			page 40


 2224 0f52 13       		.byte	0x13
 2225 0f53 41       		.byte	0x41
 2226 0f54 70090000 		.4byte	0x970
 2227 0f58 10       		.byte	0x10
 2228 0f59 00       		.byte	0
 2229 0f5a 05       		.uleb128 0x5
 2230 0f5b 04       		.byte	0x4
 2231 0f5c 1D0F0000 		.4byte	0xf1d
 2232 0f60 05       		.uleb128 0x5
 2233 0f61 04       		.byte	0x4
 2234 0f62 F50C0000 		.4byte	0xcf5
 2235 0f66 05       		.uleb128 0x5
 2236 0f67 04       		.byte	0x4
 2237 0f68 570B0000 		.4byte	0xb57
 2238 0f6c 23       		.uleb128 0x23
 2239 0f6d 636800   		.ascii	"ch\000"
 2240 0f70 0B       		.byte	0xb
 2241 0f71 C701     		.2byte	0x1c7
 2242 0f73 240C0000 		.4byte	0xc24
 2243 0f77 0A       		.uleb128 0xa
 2244 0f78 F50C0000 		.4byte	0xcf5
 2245 0f7c 820F0000 		.4byte	0xf82
 2246 0f80 24       		.uleb128 0x24
 2247 0f81 00       		.byte	0
 2248 0f82 20       		.uleb128 0x20
 2249 0f83 AA050000 		.4byte	.LASF208
 2250 0f87 14       		.byte	0x14
 2251 0f88 1701     		.2byte	0x117
 2252 0f8a 770F0000 		.4byte	0xf77
 2253 0f8e 0C       		.uleb128 0xc
 2254 0f8f 16       		.byte	0x16
 2255 0f90 15       		.byte	0x15
 2256 0f91 34       		.byte	0x34
 2257 0f92 6F100000 		.4byte	0x106f
 2258 0f96 0D       		.uleb128 0xd
 2259 0f97 F70B0000 		.4byte	.LASF209
 2260 0f9b 15       		.byte	0x15
 2261 0f9c 35       		.byte	0x35
 2262 0f9d 6F100000 		.4byte	0x106f
 2263 0fa1 00       		.byte	0
 2264 0fa2 0D       		.uleb128 0xd
 2265 0fa3 DB010000 		.4byte	.LASF210
 2266 0fa7 15       		.byte	0x15
 2267 0fa8 36       		.byte	0x36
 2268 0fa9 E2080000 		.4byte	0x8e2
 2269 0fad 04       		.byte	0x4
 2270 0fae 0D       		.uleb128 0xd
 2271 0faf 79080000 		.4byte	.LASF211
 2272 0fb3 15       		.byte	0x15
 2273 0fb4 37       		.byte	0x37
 2274 0fb5 E2080000 		.4byte	0x8e2
 2275 0fb9 05       		.byte	0x5
 2276 0fba 0D       		.uleb128 0xd
 2277 0fbb 65090000 		.4byte	.LASF212
 2278 0fbf 15       		.byte	0x15
 2279 0fc0 38       		.byte	0x38
 2280 0fc1 F2080000 		.4byte	0x8f2
ARM GAS  /tmp/cc7cIEMz.s 			page 41


 2281 0fc5 06       		.byte	0x6
 2282 0fc6 0D       		.uleb128 0xd
 2283 0fc7 6D040000 		.4byte	.LASF213
 2284 0fcb 15       		.byte	0x15
 2285 0fcc 39       		.byte	0x39
 2286 0fcd E2080000 		.4byte	0x8e2
 2287 0fd1 08       		.byte	0x8
 2288 0fd2 0D       		.uleb128 0xd
 2289 0fd3 A20B0000 		.4byte	.LASF214
 2290 0fd7 15       		.byte	0x15
 2291 0fd8 3A       		.byte	0x3a
 2292 0fd9 E2080000 		.4byte	0x8e2
 2293 0fdd 09       		.byte	0x9
 2294 0fde 0D       		.uleb128 0xd
 2295 0fdf 3D050000 		.4byte	.LASF215
 2296 0fe3 15       		.byte	0x15
 2297 0fe4 3B       		.byte	0x3b
 2298 0fe5 E2080000 		.4byte	0x8e2
 2299 0fe9 0A       		.byte	0xa
 2300 0fea 0D       		.uleb128 0xd
 2301 0feb 0F000000 		.4byte	.LASF216
 2302 0fef 15       		.byte	0x15
 2303 0ff0 3C       		.byte	0x3c
 2304 0ff1 E2080000 		.4byte	0x8e2
 2305 0ff5 0B       		.byte	0xb
 2306 0ff6 0D       		.uleb128 0xd
 2307 0ff7 00000000 		.4byte	.LASF217
 2308 0ffb 15       		.byte	0x15
 2309 0ffc 3D       		.byte	0x3d
 2310 0ffd E2080000 		.4byte	0x8e2
 2311 1001 0C       		.byte	0xc
 2312 1002 0D       		.uleb128 0xd
 2313 1003 FB060000 		.4byte	.LASF218
 2314 1007 15       		.byte	0x15
 2315 1008 3E       		.byte	0x3e
 2316 1009 E2080000 		.4byte	0x8e2
 2317 100d 0D       		.byte	0xd
 2318 100e 0D       		.uleb128 0xd
 2319 100f 48010000 		.4byte	.LASF219
 2320 1013 15       		.byte	0x15
 2321 1014 3F       		.byte	0x3f
 2322 1015 E2080000 		.4byte	0x8e2
 2323 1019 0E       		.byte	0xe
 2324 101a 0D       		.uleb128 0xd
 2325 101b CA080000 		.4byte	.LASF220
 2326 101f 15       		.byte	0x15
 2327 1020 40       		.byte	0x40
 2328 1021 E2080000 		.4byte	0x8e2
 2329 1025 0F       		.byte	0xf
 2330 1026 0D       		.uleb128 0xd
 2331 1027 0C060000 		.4byte	.LASF221
 2332 102b 15       		.byte	0x15
 2333 102c 41       		.byte	0x41
 2334 102d E2080000 		.4byte	0x8e2
 2335 1031 10       		.byte	0x10
 2336 1032 0D       		.uleb128 0xd
 2337 1033 10050000 		.4byte	.LASF222
ARM GAS  /tmp/cc7cIEMz.s 			page 42


 2338 1037 15       		.byte	0x15
 2339 1038 42       		.byte	0x42
 2340 1039 E2080000 		.4byte	0x8e2
 2341 103d 11       		.byte	0x11
 2342 103e 0D       		.uleb128 0xd
 2343 103f C00B0000 		.4byte	.LASF223
 2344 1043 15       		.byte	0x15
 2345 1044 43       		.byte	0x43
 2346 1045 E2080000 		.4byte	0x8e2
 2347 1049 12       		.byte	0x12
 2348 104a 0D       		.uleb128 0xd
 2349 104b 280B0000 		.4byte	.LASF224
 2350 104f 15       		.byte	0x15
 2351 1050 44       		.byte	0x44
 2352 1051 E2080000 		.4byte	0x8e2
 2353 1055 13       		.byte	0x13
 2354 1056 0D       		.uleb128 0xd
 2355 1057 3E000000 		.4byte	.LASF225
 2356 105b 15       		.byte	0x15
 2357 105c 45       		.byte	0x45
 2358 105d E2080000 		.4byte	0x8e2
 2359 1061 14       		.byte	0x14
 2360 1062 0D       		.uleb128 0xd
 2361 1063 75040000 		.4byte	.LASF226
 2362 1067 15       		.byte	0x15
 2363 1068 46       		.byte	0x46
 2364 1069 E2080000 		.4byte	0x8e2
 2365 106d 15       		.byte	0x15
 2366 106e 00       		.byte	0
 2367 106f 0A       		.uleb128 0xa
 2368 1070 61010000 		.4byte	0x161
 2369 1074 7F100000 		.4byte	0x107f
 2370 1078 0B       		.uleb128 0xb
 2371 1079 1B010000 		.4byte	0x11b
 2372 107d 03       		.byte	0x3
 2373 107e 00       		.byte	0
 2374 107f 03       		.uleb128 0x3
 2375 1080 6D0B0000 		.4byte	.LASF227
 2376 1084 15       		.byte	0x15
 2377 1085 47       		.byte	0x47
 2378 1086 8E0F0000 		.4byte	0xf8e
 2379 108a 0F       		.uleb128 0xf
 2380 108b 7F100000 		.4byte	0x107f
 2381 108f 22       		.uleb128 0x22
 2382 1090 73000000 		.4byte	.LASF228
 2383 1094 15       		.byte	0x15
 2384 1095 6C       		.byte	0x6c
 2385 1096 8A100000 		.4byte	0x108a
 2386 109a 03       		.uleb128 0x3
 2387 109b C40A0000 		.4byte	.LASF229
 2388 109f 13       		.byte	0x13
 2389 10a0 34       		.byte	0x34
 2390 10a1 1D0F0000 		.4byte	0xf1d
 2391 10a5 05       		.uleb128 0x5
 2392 10a6 04       		.byte	0x4
 2393 10a7 9A100000 		.4byte	0x109a
 2394 10ab 04       		.uleb128 0x4
ARM GAS  /tmp/cc7cIEMz.s 			page 43


 2395 10ac 01       		.byte	0x1
 2396 10ad 02       		.byte	0x2
 2397 10ae 00030000 		.4byte	.LASF230
 2398 10b2 03       		.uleb128 0x3
 2399 10b3 AF070000 		.4byte	.LASF231
 2400 10b7 16       		.byte	0x16
 2401 10b8 47       		.byte	0x47
 2402 10b9 BD100000 		.4byte	0x10bd
 2403 10bd 05       		.uleb128 0x5
 2404 10be 04       		.byte	0x4
 2405 10bf C3100000 		.4byte	0x10c3
 2406 10c3 15       		.uleb128 0x15
 2407 10c4 59010000 		.4byte	0x159
 2408 10c8 D7100000 		.4byte	0x10d7
 2409 10cc 16       		.uleb128 0x16
 2410 10cd 2C000000 		.4byte	0x2c
 2411 10d1 16       		.uleb128 0x16
 2412 10d2 37000000 		.4byte	0x37
 2413 10d6 00       		.byte	0
 2414 10d7 0C       		.uleb128 0xc
 2415 10d8 08       		.byte	0x8
 2416 10d9 16       		.byte	0x16
 2417 10da 51       		.byte	0x51
 2418 10db F8100000 		.4byte	0x10f8
 2419 10df 0D       		.uleb128 0xd
 2420 10e0 FD040000 		.4byte	.LASF232
 2421 10e4 16       		.byte	0x16
 2422 10e5 55       		.byte	0x55
 2423 10e6 F8100000 		.4byte	0x10f8
 2424 10ea 00       		.byte	0
 2425 10eb 0D       		.uleb128 0xd
 2426 10ec 95010000 		.4byte	.LASF233
 2427 10f0 16       		.byte	0x16
 2428 10f1 59       		.byte	0x59
 2429 10f2 F8100000 		.4byte	0x10f8
 2430 10f6 04       		.byte	0x4
 2431 10f7 00       		.byte	0
 2432 10f8 05       		.uleb128 0x5
 2433 10f9 04       		.byte	0x4
 2434 10fa E2080000 		.4byte	0x8e2
 2435 10fe 03       		.uleb128 0x3
 2436 10ff 4D020000 		.4byte	.LASF234
 2437 1103 16       		.byte	0x16
 2438 1104 5A       		.byte	0x5a
 2439 1105 D7100000 		.4byte	0x10d7
 2440 1109 22       		.uleb128 0x22
 2441 110a B50B0000 		.4byte	.LASF235
 2442 110e 16       		.byte	0x16
 2443 110f 65       		.byte	0x65
 2444 1110 FE100000 		.4byte	0x10fe
 2445 1114 10       		.uleb128 0x10
 2446 1115 19060000 		.4byte	.LASF236
 2447 1119 04       		.byte	0x4
 2448 111a 17       		.byte	0x17
 2449 111b 38       		.byte	0x38
 2450 111c 2D110000 		.4byte	0x112d
 2451 1120 0D       		.uleb128 0xd
ARM GAS  /tmp/cc7cIEMz.s 			page 44


 2452 1121 DD0B0000 		.4byte	.LASF162
 2453 1125 17       		.byte	0x17
 2454 1126 39       		.byte	0x39
 2455 1127 2D110000 		.4byte	0x112d
 2456 112b 00       		.byte	0
 2457 112c 00       		.byte	0
 2458 112d 05       		.uleb128 0x5
 2459 112e 04       		.byte	0x4
 2460 112f 14110000 		.4byte	0x1114
 2461 1133 0C       		.uleb128 0xc
 2462 1134 10       		.byte	0x10
 2463 1135 17       		.byte	0x17
 2464 1136 40       		.byte	0x40
 2465 1137 6C110000 		.4byte	0x116c
 2466 113b 0D       		.uleb128 0xd
 2467 113c DD0B0000 		.4byte	.LASF162
 2468 1140 17       		.byte	0x17
 2469 1141 41       		.byte	0x41
 2470 1142 2D110000 		.4byte	0x112d
 2471 1146 00       		.byte	0
 2472 1147 0D       		.uleb128 0xd
 2473 1148 710A0000 		.4byte	.LASF237
 2474 114c 17       		.byte	0x17
 2475 114d 42       		.byte	0x42
 2476 114e 2C000000 		.4byte	0x2c
 2477 1152 04       		.byte	0x4
 2478 1153 0D       		.uleb128 0xd
 2479 1154 DC060000 		.4byte	.LASF238
 2480 1158 17       		.byte	0x17
 2481 1159 44       		.byte	0x44
 2482 115a 37000000 		.4byte	0x37
 2483 115e 08       		.byte	0x8
 2484 115f 0D       		.uleb128 0xd
 2485 1160 7C000000 		.4byte	.LASF239
 2486 1164 17       		.byte	0x17
 2487 1165 45       		.byte	0x45
 2488 1166 B2100000 		.4byte	0x10b2
 2489 116a 0C       		.byte	0xc
 2490 116b 00       		.byte	0
 2491 116c 03       		.uleb128 0x3
 2492 116d A0090000 		.4byte	.LASF240
 2493 1171 17       		.byte	0x17
 2494 1172 47       		.byte	0x47
 2495 1173 33110000 		.4byte	0x1133
 2496 1177 10       		.uleb128 0x10
 2497 1178 09010000 		.4byte	.LASF241
 2498 117c 10       		.byte	0x10
 2499 117d 18       		.byte	0x18
 2500 117e A9       		.byte	0xa9
 2501 117f A8110000 		.4byte	0x11a8
 2502 1183 0D       		.uleb128 0xd
 2503 1184 DD0B0000 		.4byte	.LASF162
 2504 1188 18       		.byte	0x18
 2505 1189 AD       		.byte	0xad
 2506 118a A8110000 		.4byte	0x11a8
 2507 118e 00       		.byte	0
 2508 118f 0D       		.uleb128 0xd
ARM GAS  /tmp/cc7cIEMz.s 			page 45


 2509 1190 1A070000 		.4byte	.LASF152
 2510 1194 18       		.byte	0x18
 2511 1195 B1       		.byte	0xb1
 2512 1196 7B090000 		.4byte	0x97b
 2513 119a 04       		.byte	0x4
 2514 119b 0D       		.uleb128 0xd
 2515 119c D9090000 		.4byte	.LASF148
 2516 11a0 18       		.byte	0x18
 2517 11a1 B3       		.byte	0xb3
 2518 11a2 EB070000 		.4byte	0x7eb
 2519 11a6 08       		.byte	0x8
 2520 11a7 00       		.byte	0
 2521 11a8 05       		.uleb128 0x5
 2522 11a9 04       		.byte	0x4
 2523 11aa 77110000 		.4byte	0x1177
 2524 11ae 03       		.uleb128 0x3
 2525 11af A60A0000 		.4byte	.LASF242
 2526 11b3 18       		.byte	0x18
 2527 11b4 B7       		.byte	0xb7
 2528 11b5 77110000 		.4byte	0x1177
 2529 11b9 10       		.uleb128 0x10
 2530 11ba EB0B0000 		.4byte	.LASF243
 2531 11be 04       		.byte	0x4
 2532 11bf 18       		.byte	0x18
 2533 11c0 BC       		.byte	0xbc
 2534 11c1 D2110000 		.4byte	0x11d2
 2535 11c5 0D       		.uleb128 0xd
 2536 11c6 DD0B0000 		.4byte	.LASF162
 2537 11ca 18       		.byte	0x18
 2538 11cb BD       		.byte	0xbd
 2539 11cc D2110000 		.4byte	0x11d2
 2540 11d0 00       		.byte	0
 2541 11d1 00       		.byte	0
 2542 11d2 05       		.uleb128 0x5
 2543 11d3 04       		.byte	0x4
 2544 11d4 AE110000 		.4byte	0x11ae
 2545 11d8 03       		.uleb128 0x3
 2546 11d9 5C0A0000 		.4byte	.LASF244
 2547 11dd 18       		.byte	0x18
 2548 11de BE       		.byte	0xbe
 2549 11df B9110000 		.4byte	0x11b9
 2550 11e3 1B       		.uleb128 0x1b
 2551 11e4 99060000 		.4byte	.LASF245
 2552 11e8 48       		.byte	0x48
 2553 11e9 18       		.byte	0x18
 2554 11ea 3E01     		.2byte	0x13e
 2555 11ec 59120000 		.4byte	0x1259
 2556 11f0 21       		.uleb128 0x21
 2557 11f1 6D747800 		.ascii	"mtx\000"
 2558 11f5 18       		.byte	0x18
 2559 11f6 4301     		.2byte	0x143
 2560 11f8 9A100000 		.4byte	0x109a
 2561 11fc 00       		.byte	0
 2562 11fd 18       		.uleb128 0x18
 2563 11fe 32010000 		.4byte	.LASF246
 2564 1202 18       		.byte	0x18
 2565 1203 4A01     		.2byte	0x14a
ARM GAS  /tmp/cc7cIEMz.s 			page 46


 2566 1205 D8110000 		.4byte	0x11d8
 2567 1209 14       		.byte	0x14
 2568 120a 18       		.uleb128 0x18
 2569 120b 37020000 		.4byte	.LASF247
 2570 120f 18       		.byte	0x18
 2571 1210 4E01     		.2byte	0x14e
 2572 1212 6C110000 		.4byte	0x116c
 2573 1216 18       		.byte	0x18
 2574 1217 18       		.uleb128 0x18
 2575 1218 11080000 		.4byte	.LASF248
 2576 121c 18       		.byte	0x18
 2577 121d 5301     		.2byte	0x153
 2578 121f D8110000 		.4byte	0x11d8
 2579 1223 28       		.byte	0x28
 2580 1224 18       		.uleb128 0x18
 2581 1225 17030000 		.4byte	.LASF249
 2582 1229 18       		.byte	0x18
 2583 122a 5901     		.2byte	0x159
 2584 122c D8110000 		.4byte	0x11d8
 2585 1230 2C       		.byte	0x2c
 2586 1231 18       		.uleb128 0x18
 2587 1232 B7040000 		.4byte	.LASF250
 2588 1236 18       		.byte	0x18
 2589 1237 5D01     		.2byte	0x15d
 2590 1239 6C110000 		.4byte	0x116c
 2591 123d 30       		.byte	0x30
 2592 123e 18       		.uleb128 0x18
 2593 123f 48090000 		.4byte	.LASF251
 2594 1243 18       		.byte	0x18
 2595 1244 6301     		.2byte	0x163
 2596 1246 D8110000 		.4byte	0x11d8
 2597 124a 40       		.byte	0x40
 2598 124b 18       		.uleb128 0x18
 2599 124c C3050000 		.4byte	.LASF252
 2600 1250 18       		.byte	0x18
 2601 1251 6901     		.2byte	0x169
 2602 1253 D8110000 		.4byte	0x11d8
 2603 1257 44       		.byte	0x44
 2604 1258 00       		.byte	0
 2605 1259 07       		.uleb128 0x7
 2606 125a F9070000 		.4byte	.LASF253
 2607 125e 18       		.byte	0x18
 2608 125f 7101     		.2byte	0x171
 2609 1261 E3110000 		.4byte	0x11e3
 2610 1265 20       		.uleb128 0x20
 2611 1266 2E090000 		.4byte	.LASF254
 2612 126a 18       		.byte	0x18
 2613 126b 7C01     		.2byte	0x17c
 2614 126d 59120000 		.4byte	0x1259
 2615 1271 25       		.uleb128 0x25
 2616 1272 8F100000 		.4byte	0x108f
 2617 1276 01       		.byte	0x1
 2618 1277 53       		.byte	0x53
 2619 1278 05       		.uleb128 0x5
 2620 1279 03       		.byte	0x3
 2621 127a 00000000 		.4byte	ch_debug
 2622 127e 26       		.uleb128 0x26
ARM GAS  /tmp/cc7cIEMz.s 			page 47


 2623 127f 2F080000 		.4byte	.LASF255
 2624 1283 01       		.byte	0x1
 2625 1284 FA       		.byte	0xfa
 2626 1285 7A0A0000 		.4byte	0xa7a
 2627 1289 00000000 		.4byte	.LFB294
 2628 128d 18000000 		.4byte	.LFE294-.LFB294
 2629 1291 01       		.uleb128 0x1
 2630 1292 9C       		.byte	0x9c
 2631 1293 C7120000 		.4byte	0x12c7
 2632 1297 27       		.uleb128 0x27
 2633 1298 776100   		.ascii	"wa\000"
 2634 129b 01       		.byte	0x1
 2635 129c FA       		.byte	0xfa
 2636 129d 600F0000 		.4byte	0xf60
 2637 12a1 00000000 		.4byte	.LLST10
 2638 12a5 28       		.uleb128 0x28
 2639 12a6 63747000 		.ascii	"ctp\000"
 2640 12aa 01       		.byte	0x1
 2641 12ab FB       		.byte	0xfb
 2642 12ac 7A0A0000 		.4byte	0xa7a
 2643 12b0 1E000000 		.4byte	.LLST11
 2644 12b4 29       		.uleb128 0x29
 2645 12b5 08000000 		.4byte	.LVL24
 2646 12b9 68140000 		.4byte	0x1468
 2647 12bd 29       		.uleb128 0x29
 2648 12be 12000000 		.4byte	.LVL25
 2649 12c2 75130000 		.4byte	0x1375
 2650 12c6 00       		.byte	0
 2651 12c7 26       		.uleb128 0x26
 2652 12c8 84020000 		.4byte	.LASF256
 2653 12cc 01       		.byte	0x1
 2654 12cd DD       		.byte	0xdd
 2655 12ce 7A0A0000 		.4byte	0xa7a
 2656 12d2 00000000 		.4byte	.LFB293
 2657 12d6 16000000 		.4byte	.LFE293-.LFB293
 2658 12da 01       		.uleb128 0x1
 2659 12db 9C       		.byte	0x9c
 2660 12dc 10130000 		.4byte	0x1310
 2661 12e0 27       		.uleb128 0x27
 2662 12e1 747000   		.ascii	"tp\000"
 2663 12e4 01       		.byte	0x1
 2664 12e5 DD       		.byte	0xdd
 2665 12e6 7A0A0000 		.4byte	0xa7a
 2666 12ea 3C000000 		.4byte	.LLST8
 2667 12ee 28       		.uleb128 0x28
 2668 12ef 63747000 		.ascii	"ctp\000"
 2669 12f3 01       		.byte	0x1
 2670 12f4 DE       		.byte	0xde
 2671 12f5 7A0A0000 		.4byte	0xa7a
 2672 12f9 5A000000 		.4byte	.LLST9
 2673 12fd 29       		.uleb128 0x29
 2674 12fe 08000000 		.4byte	.LVL21
 2675 1302 68140000 		.4byte	0x1468
 2676 1306 29       		.uleb128 0x29
 2677 1307 10000000 		.4byte	.LVL22
 2678 130b 75130000 		.4byte	0x1375
 2679 130f 00       		.byte	0
ARM GAS  /tmp/cc7cIEMz.s 			page 48


 2680 1310 26       		.uleb128 0x26
 2681 1311 1B0A0000 		.4byte	.LASF257
 2682 1315 01       		.byte	0x1
 2683 1316 C2       		.byte	0xc2
 2684 1317 7A0A0000 		.4byte	0xa7a
 2685 131b 00000000 		.4byte	.LFB292
 2686 131f 24000000 		.4byte	.LFE292-.LFB292
 2687 1323 01       		.uleb128 0x1
 2688 1324 9C       		.byte	0x9c
 2689 1325 75130000 		.4byte	0x1375
 2690 1329 2A       		.uleb128 0x2a
 2691 132a D9090000 		.4byte	.LASF148
 2692 132e 01       		.byte	0x1
 2693 132f C2       		.byte	0xc2
 2694 1330 D9050000 		.4byte	0x5d9
 2695 1334 78000000 		.4byte	.LLST6
 2696 1338 28       		.uleb128 0x28
 2697 1339 63747000 		.ascii	"ctp\000"
 2698 133d 01       		.byte	0x1
 2699 133e C3       		.byte	0xc3
 2700 133f 7A0A0000 		.4byte	0xa7a
 2701 1343 96000000 		.4byte	.LLST7
 2702 1347 29       		.uleb128 0x29
 2703 1348 08000000 		.4byte	.LVL13
 2704 134c 68140000 		.4byte	0x1468
 2705 1350 2B       		.uleb128 0x2b
 2706 1351 12000000 		.4byte	.LVL16
 2707 1355 B4150000 		.4byte	0x15b4
 2708 1359 64130000 		.4byte	0x1364
 2709 135d 2C       		.uleb128 0x2c
 2710 135e 01       		.uleb128 0x1
 2711 135f 51       		.byte	0x51
 2712 1360 02       		.uleb128 0x2
 2713 1361 75       		.byte	0x75
 2714 1362 00       		.sleb128 0
 2715 1363 00       		.byte	0
 2716 1364 2D       		.uleb128 0x2d
 2717 1365 1A000000 		.4byte	.LVL17
 2718 1369 75130000 		.4byte	0x1375
 2719 136d 2C       		.uleb128 0x2c
 2720 136e 01       		.uleb128 0x1
 2721 136f 50       		.byte	0x50
 2722 1370 02       		.uleb128 0x2
 2723 1371 74       		.byte	0x74
 2724 1372 00       		.sleb128 0
 2725 1373 00       		.byte	0
 2726 1374 00       		.byte	0
 2727 1375 26       		.uleb128 0x26
 2728 1376 4F000000 		.4byte	.LASF258
 2729 137a 01       		.byte	0x1
 2730 137b 9E       		.byte	0x9e
 2731 137c 7A0A0000 		.4byte	0xa7a
 2732 1380 00000000 		.4byte	.LFB291
 2733 1384 34000000 		.4byte	.LFE291-.LFB291
 2734 1388 01       		.uleb128 0x1
 2735 1389 9C       		.byte	0x9c
 2736 138a 53140000 		.4byte	0x1453
ARM GAS  /tmp/cc7cIEMz.s 			page 49


 2737 138e 27       		.uleb128 0x27
 2738 138f 747000   		.ascii	"tp\000"
 2739 1392 01       		.byte	0x1
 2740 1393 9E       		.byte	0x9e
 2741 1394 7A0A0000 		.4byte	0xa7a
 2742 1398 CA000000 		.4byte	.LLST2
 2743 139c 28       		.uleb128 0x28
 2744 139d 6E747000 		.ascii	"ntp\000"
 2745 13a1 01       		.byte	0x1
 2746 13a2 9F       		.byte	0x9f
 2747 13a3 7A0A0000 		.4byte	0xa7a
 2748 13a7 EB000000 		.4byte	.LLST3
 2749 13ab 2E       		.uleb128 0x2e
 2750 13ac B2000000 		.4byte	.LASF273
 2751 13b0 63140000 		.4byte	0x1463
 2752 13b4 2F       		.uleb128 0x2f
 2753 13b5 7F150000 		.4byte	0x157f
 2754 13b9 02000000 		.4byte	.LBB47
 2755 13bd 06000000 		.4byte	.LBE47-.LBB47
 2756 13c1 01       		.byte	0x1
 2757 13c2 A1       		.byte	0xa1
 2758 13c3 F3130000 		.4byte	0x13f3
 2759 13c7 30       		.uleb128 0x30
 2760 13c8 91150000 		.4byte	0x1591
 2761 13cc 02000000 		.4byte	.LBB48
 2762 13d0 06000000 		.4byte	.LBE48-.LBB48
 2763 13d4 14       		.byte	0x14
 2764 13d5 6301     		.2byte	0x163
 2765 13d7 30       		.uleb128 0x30
 2766 13d8 9A150000 		.4byte	0x159a
 2767 13dc 02000000 		.4byte	.LBB49
 2768 13e0 06000000 		.4byte	.LBE49-.LBB49
 2769 13e4 10       		.byte	0x10
 2770 13e5 6202     		.2byte	0x262
 2771 13e7 31       		.uleb128 0x31
 2772 13e8 A7150000 		.4byte	0x15a7
 2773 13ec 09010000 		.4byte	.LLST4
 2774 13f0 00       		.byte	0
 2775 13f1 00       		.byte	0
 2776 13f2 00       		.byte	0
 2777 13f3 2F       		.uleb128 0x2f
 2778 13f4 4F150000 		.4byte	0x154f
 2779 13f8 22000000 		.4byte	.LBB51
 2780 13fc 04000000 		.4byte	.LBE51-.LBB51
 2781 1400 01       		.byte	0x1
 2782 1401 AE       		.byte	0xae
 2783 1402 41140000 		.4byte	0x1441
 2784 1406 32       		.uleb128 0x32
 2785 1407 22000000 		.4byte	.LBB52
 2786 140b 04000000 		.4byte	.LBE52-.LBB52
 2787 140f 33       		.uleb128 0x33
 2788 1410 5C150000 		.4byte	0x155c
 2789 1414 30       		.uleb128 0x30
 2790 1415 88150000 		.4byte	0x1588
 2791 1419 22000000 		.4byte	.LBB53
 2792 141d 04000000 		.4byte	.LBE53-.LBB53
 2793 1421 14       		.byte	0x14
ARM GAS  /tmp/cc7cIEMz.s 			page 50


 2794 1422 7A01     		.2byte	0x17a
 2795 1424 30       		.uleb128 0x30
 2796 1425 9A150000 		.4byte	0x159a
 2797 1429 22000000 		.4byte	.LBB54
 2798 142d 04000000 		.4byte	.LBE54-.LBB54
 2799 1431 10       		.byte	0x10
 2800 1432 7502     		.2byte	0x275
 2801 1434 31       		.uleb128 0x31
 2802 1435 A7150000 		.4byte	0x15a7
 2803 1439 1E010000 		.4byte	.LLST5
 2804 143d 00       		.byte	0
 2805 143e 00       		.byte	0
 2806 143f 00       		.byte	0
 2807 1440 00       		.byte	0
 2808 1441 2D       		.uleb128 0x2d
 2809 1442 2A000000 		.4byte	.LVL10
 2810 1446 BF150000 		.4byte	0x15bf
 2811 144a 2C       		.uleb128 0x2c
 2812 144b 01       		.uleb128 0x1
 2813 144c 50       		.byte	0x50
 2814 144d 03       		.uleb128 0x3
 2815 144e F3       		.byte	0xf3
 2816 144f 01       		.uleb128 0x1
 2817 1450 50       		.byte	0x50
 2818 1451 00       		.byte	0
 2819 1452 00       		.byte	0
 2820 1453 0A       		.uleb128 0xa
 2821 1454 68010000 		.4byte	0x168
 2822 1458 63140000 		.4byte	0x1463
 2823 145c 0B       		.uleb128 0xb
 2824 145d 1B010000 		.4byte	0x11b
 2825 1461 0F       		.byte	0xf
 2826 1462 00       		.byte	0
 2827 1463 0F       		.uleb128 0xf
 2828 1464 53140000 		.4byte	0x1453
 2829 1468 26       		.uleb128 0x26
 2830 1469 57010000 		.4byte	.LASF259
 2831 146d 01       		.byte	0x1
 2832 146e 86       		.byte	0x86
 2833 146f 7A0A0000 		.4byte	0xa7a
 2834 1473 00000000 		.4byte	.LFB290
 2835 1477 20000000 		.4byte	.LFE290-.LFB290
 2836 147b 01       		.uleb128 0x1
 2837 147c 9C       		.byte	0x9c
 2838 147d 17150000 		.4byte	0x1517
 2839 1481 34       		.uleb128 0x34
 2840 1482 747000   		.ascii	"tp\000"
 2841 1485 01       		.byte	0x1
 2842 1486 87       		.byte	0x87
 2843 1487 7A0A0000 		.4byte	0xa7a
 2844 148b 01       		.uleb128 0x1
 2845 148c 50       		.byte	0x50
 2846 148d 2F       		.uleb128 0x2f
 2847 148e 7F150000 		.4byte	0x157f
 2848 1492 00000000 		.4byte	.LBB38
 2849 1496 06000000 		.4byte	.LBE38-.LBB38
 2850 149a 01       		.byte	0x1
ARM GAS  /tmp/cc7cIEMz.s 			page 51


 2851 149b 89       		.byte	0x89
 2852 149c CC140000 		.4byte	0x14cc
 2853 14a0 30       		.uleb128 0x30
 2854 14a1 91150000 		.4byte	0x1591
 2855 14a5 00000000 		.4byte	.LBB39
 2856 14a9 06000000 		.4byte	.LBE39-.LBB39
 2857 14ad 14       		.byte	0x14
 2858 14ae 6301     		.2byte	0x163
 2859 14b0 30       		.uleb128 0x30
 2860 14b1 9A150000 		.4byte	0x159a
 2861 14b5 00000000 		.4byte	.LBB40
 2862 14b9 06000000 		.4byte	.LBE40-.LBB40
 2863 14bd 10       		.byte	0x10
 2864 14be 6202     		.2byte	0x262
 2865 14c0 31       		.uleb128 0x31
 2866 14c1 A7150000 		.4byte	0x15a7
 2867 14c5 32010000 		.4byte	.LLST0
 2868 14c9 00       		.byte	0
 2869 14ca 00       		.byte	0
 2870 14cb 00       		.byte	0
 2871 14cc 35       		.uleb128 0x35
 2872 14cd 4F150000 		.4byte	0x154f
 2873 14d1 14000000 		.4byte	.LBB42
 2874 14d5 06000000 		.4byte	.LBE42-.LBB42
 2875 14d9 01       		.byte	0x1
 2876 14da 8E       		.byte	0x8e
 2877 14db 32       		.uleb128 0x32
 2878 14dc 14000000 		.4byte	.LBB43
 2879 14e0 06000000 		.4byte	.LBE43-.LBB43
 2880 14e4 33       		.uleb128 0x33
 2881 14e5 5C150000 		.4byte	0x155c
 2882 14e9 30       		.uleb128 0x30
 2883 14ea 88150000 		.4byte	0x1588
 2884 14ee 14000000 		.4byte	.LBB44
 2885 14f2 06000000 		.4byte	.LBE44-.LBB44
 2886 14f6 14       		.byte	0x14
 2887 14f7 7A01     		.2byte	0x17a
 2888 14f9 30       		.uleb128 0x30
 2889 14fa 9A150000 		.4byte	0x159a
 2890 14fe 14000000 		.4byte	.LBB45
 2891 1502 06000000 		.4byte	.LBE45-.LBB45
 2892 1506 10       		.byte	0x10
 2893 1507 7502     		.2byte	0x275
 2894 1509 31       		.uleb128 0x31
 2895 150a A7150000 		.4byte	0x15a7
 2896 150e 47010000 		.4byte	.LLST1
 2897 1512 00       		.byte	0
 2898 1513 00       		.byte	0
 2899 1514 00       		.byte	0
 2900 1515 00       		.byte	0
 2901 1516 00       		.byte	0
 2902 1517 36       		.uleb128 0x36
 2903 1518 23020000 		.4byte	.LASF260
 2904 151c 15       		.byte	0x15
 2905 151d 99       		.byte	0x99
 2906 151e D9050000 		.4byte	0x5d9
 2907 1522 03       		.byte	0x3
ARM GAS  /tmp/cc7cIEMz.s 			page 52


 2908 1523 32150000 		.4byte	0x1532
 2909 1527 37       		.uleb128 0x37
 2910 1528 747000   		.ascii	"tp\000"
 2911 152b 15       		.byte	0x15
 2912 152c 99       		.byte	0x99
 2913 152d 7A0A0000 		.4byte	0xa7a
 2914 1531 00       		.byte	0
 2915 1532 38       		.uleb128 0x38
 2916 1533 770B0000 		.4byte	.LASF261
 2917 1537 19       		.byte	0x19
 2918 1538 3D01     		.2byte	0x13d
 2919 153a 600F0000 		.4byte	0xf60
 2920 153e 03       		.byte	0x3
 2921 153f 4F150000 		.4byte	0x154f
 2922 1543 39       		.uleb128 0x39
 2923 1544 747000   		.ascii	"tp\000"
 2924 1547 19       		.byte	0x19
 2925 1548 3D01     		.2byte	0x13d
 2926 154a 7A0A0000 		.4byte	0xa7a
 2927 154e 00       		.byte	0
 2928 154f 3A       		.uleb128 0x3a
 2929 1550 1A050000 		.4byte	.LASF265
 2930 1554 14       		.byte	0x14
 2931 1555 6D01     		.2byte	0x16d
 2932 1557 03       		.byte	0x3
 2933 1558 6A150000 		.4byte	0x156a
 2934 155c 3B       		.uleb128 0x3b
 2935 155d B2000000 		.4byte	.LASF273
 2936 1561 7A150000 		.4byte	0x157a
 2937 1565 1A050000 		.4byte	.LASF265
 2938 1569 00       		.byte	0
 2939 156a 0A       		.uleb128 0xa
 2940 156b 68010000 		.4byte	0x168
 2941 156f 7A150000 		.4byte	0x157a
 2942 1573 0B       		.uleb128 0xb
 2943 1574 1B010000 		.4byte	0x11b
 2944 1578 0B       		.byte	0xb
 2945 1579 00       		.byte	0
 2946 157a 0F       		.uleb128 0xf
 2947 157b 6A150000 		.4byte	0x156a
 2948 157f 3C       		.uleb128 0x3c
 2949 1580 48050000 		.4byte	.LASF262
 2950 1584 14       		.byte	0x14
 2951 1585 6101     		.2byte	0x161
 2952 1587 03       		.byte	0x3
 2953 1588 3C       		.uleb128 0x3c
 2954 1589 B3010000 		.4byte	.LASF263
 2955 158d 10       		.byte	0x10
 2956 158e 7202     		.2byte	0x272
 2957 1590 03       		.byte	0x3
 2958 1591 3C       		.uleb128 0x3c
 2959 1592 DE090000 		.4byte	.LASF264
 2960 1596 10       		.byte	0x10
 2961 1597 5A02     		.2byte	0x25a
 2962 1599 03       		.byte	0x3
 2963 159a 3A       		.uleb128 0x3a
 2964 159b 74090000 		.4byte	.LASF266
ARM GAS  /tmp/cc7cIEMz.s 			page 53


 2965 159f 02       		.byte	0x2
 2966 15a0 EB01     		.2byte	0x1eb
 2967 15a2 03       		.byte	0x3
 2968 15a3 B4150000 		.4byte	0x15b4
 2969 15a7 3D       		.uleb128 0x3d
 2970 15a8 24010000 		.4byte	.LASF267
 2971 15ac 02       		.byte	0x2
 2972 15ad EB01     		.2byte	0x1eb
 2973 15af 0D090000 		.4byte	0x90d
 2974 15b3 00       		.byte	0
 2975 15b4 3E       		.uleb128 0x3e
 2976 15b5 60040000 		.4byte	.LASF268
 2977 15b9 60040000 		.4byte	.LASF268
 2978 15bd 1A       		.byte	0x1a
 2979 15be 20       		.byte	0x20
 2980 15bf 3E       		.uleb128 0x3e
 2981 15c0 3B010000 		.4byte	.LASF269
 2982 15c4 3B010000 		.4byte	.LASF269
 2983 15c8 19       		.byte	0x19
 2984 15c9 EC       		.byte	0xec
 2985 15ca 00       		.byte	0
 2986              		.section	.debug_abbrev,"",%progbits
 2987              	.Ldebug_abbrev0:
 2988 0000 01       		.uleb128 0x1
 2989 0001 11       		.uleb128 0x11
 2990 0002 01       		.byte	0x1
 2991 0003 25       		.uleb128 0x25
 2992 0004 0E       		.uleb128 0xe
 2993 0005 13       		.uleb128 0x13
 2994 0006 0B       		.uleb128 0xb
 2995 0007 03       		.uleb128 0x3
 2996 0008 0E       		.uleb128 0xe
 2997 0009 1B       		.uleb128 0x1b
 2998 000a 0E       		.uleb128 0xe
 2999 000b 55       		.uleb128 0x55
 3000 000c 17       		.uleb128 0x17
 3001 000d 11       		.uleb128 0x11
 3002 000e 01       		.uleb128 0x1
 3003 000f 10       		.uleb128 0x10
 3004 0010 17       		.uleb128 0x17
 3005 0011 00       		.byte	0
 3006 0012 00       		.byte	0
 3007 0013 02       		.uleb128 0x2
 3008 0014 24       		.uleb128 0x24
 3009 0015 00       		.byte	0
 3010 0016 0B       		.uleb128 0xb
 3011 0017 0B       		.uleb128 0xb
 3012 0018 3E       		.uleb128 0x3e
 3013 0019 0B       		.uleb128 0xb
 3014 001a 03       		.uleb128 0x3
 3015 001b 08       		.uleb128 0x8
 3016 001c 00       		.byte	0
 3017 001d 00       		.byte	0
 3018 001e 03       		.uleb128 0x3
 3019 001f 16       		.uleb128 0x16
 3020 0020 00       		.byte	0
 3021 0021 03       		.uleb128 0x3
ARM GAS  /tmp/cc7cIEMz.s 			page 54


 3022 0022 0E       		.uleb128 0xe
 3023 0023 3A       		.uleb128 0x3a
 3024 0024 0B       		.uleb128 0xb
 3025 0025 3B       		.uleb128 0x3b
 3026 0026 0B       		.uleb128 0xb
 3027 0027 49       		.uleb128 0x49
 3028 0028 13       		.uleb128 0x13
 3029 0029 00       		.byte	0
 3030 002a 00       		.byte	0
 3031 002b 04       		.uleb128 0x4
 3032 002c 24       		.uleb128 0x24
 3033 002d 00       		.byte	0
 3034 002e 0B       		.uleb128 0xb
 3035 002f 0B       		.uleb128 0xb
 3036 0030 3E       		.uleb128 0x3e
 3037 0031 0B       		.uleb128 0xb
 3038 0032 03       		.uleb128 0x3
 3039 0033 0E       		.uleb128 0xe
 3040 0034 00       		.byte	0
 3041 0035 00       		.byte	0
 3042 0036 05       		.uleb128 0x5
 3043 0037 0F       		.uleb128 0xf
 3044 0038 00       		.byte	0
 3045 0039 0B       		.uleb128 0xb
 3046 003a 0B       		.uleb128 0xb
 3047 003b 49       		.uleb128 0x49
 3048 003c 13       		.uleb128 0x13
 3049 003d 00       		.byte	0
 3050 003e 00       		.byte	0
 3051 003f 06       		.uleb128 0x6
 3052 0040 13       		.uleb128 0x13
 3053 0041 00       		.byte	0
 3054 0042 03       		.uleb128 0x3
 3055 0043 0E       		.uleb128 0xe
 3056 0044 3C       		.uleb128 0x3c
 3057 0045 19       		.uleb128 0x19
 3058 0046 00       		.byte	0
 3059 0047 00       		.byte	0
 3060 0048 07       		.uleb128 0x7
 3061 0049 16       		.uleb128 0x16
 3062 004a 00       		.byte	0
 3063 004b 03       		.uleb128 0x3
 3064 004c 0E       		.uleb128 0xe
 3065 004d 3A       		.uleb128 0x3a
 3066 004e 0B       		.uleb128 0xb
 3067 004f 3B       		.uleb128 0x3b
 3068 0050 05       		.uleb128 0x5
 3069 0051 49       		.uleb128 0x49
 3070 0052 13       		.uleb128 0x13
 3071 0053 00       		.byte	0
 3072 0054 00       		.byte	0
 3073 0055 08       		.uleb128 0x8
 3074 0056 17       		.uleb128 0x17
 3075 0057 01       		.byte	0x1
 3076 0058 0B       		.uleb128 0xb
 3077 0059 0B       		.uleb128 0xb
 3078 005a 3A       		.uleb128 0x3a
ARM GAS  /tmp/cc7cIEMz.s 			page 55


 3079 005b 0B       		.uleb128 0xb
 3080 005c 3B       		.uleb128 0x3b
 3081 005d 0B       		.uleb128 0xb
 3082 005e 01       		.uleb128 0x1
 3083 005f 13       		.uleb128 0x13
 3084 0060 00       		.byte	0
 3085 0061 00       		.byte	0
 3086 0062 09       		.uleb128 0x9
 3087 0063 0D       		.uleb128 0xd
 3088 0064 00       		.byte	0
 3089 0065 03       		.uleb128 0x3
 3090 0066 0E       		.uleb128 0xe
 3091 0067 3A       		.uleb128 0x3a
 3092 0068 0B       		.uleb128 0xb
 3093 0069 3B       		.uleb128 0x3b
 3094 006a 0B       		.uleb128 0xb
 3095 006b 49       		.uleb128 0x49
 3096 006c 13       		.uleb128 0x13
 3097 006d 00       		.byte	0
 3098 006e 00       		.byte	0
 3099 006f 0A       		.uleb128 0xa
 3100 0070 01       		.uleb128 0x1
 3101 0071 01       		.byte	0x1
 3102 0072 49       		.uleb128 0x49
 3103 0073 13       		.uleb128 0x13
 3104 0074 01       		.uleb128 0x1
 3105 0075 13       		.uleb128 0x13
 3106 0076 00       		.byte	0
 3107 0077 00       		.byte	0
 3108 0078 0B       		.uleb128 0xb
 3109 0079 21       		.uleb128 0x21
 3110 007a 00       		.byte	0
 3111 007b 49       		.uleb128 0x49
 3112 007c 13       		.uleb128 0x13
 3113 007d 2F       		.uleb128 0x2f
 3114 007e 0B       		.uleb128 0xb
 3115 007f 00       		.byte	0
 3116 0080 00       		.byte	0
 3117 0081 0C       		.uleb128 0xc
 3118 0082 13       		.uleb128 0x13
 3119 0083 01       		.byte	0x1
 3120 0084 0B       		.uleb128 0xb
 3121 0085 0B       		.uleb128 0xb
 3122 0086 3A       		.uleb128 0x3a
 3123 0087 0B       		.uleb128 0xb
 3124 0088 3B       		.uleb128 0x3b
 3125 0089 0B       		.uleb128 0xb
 3126 008a 01       		.uleb128 0x1
 3127 008b 13       		.uleb128 0x13
 3128 008c 00       		.byte	0
 3129 008d 00       		.byte	0
 3130 008e 0D       		.uleb128 0xd
 3131 008f 0D       		.uleb128 0xd
 3132 0090 00       		.byte	0
 3133 0091 03       		.uleb128 0x3
 3134 0092 0E       		.uleb128 0xe
 3135 0093 3A       		.uleb128 0x3a
ARM GAS  /tmp/cc7cIEMz.s 			page 56


 3136 0094 0B       		.uleb128 0xb
 3137 0095 3B       		.uleb128 0x3b
 3138 0096 0B       		.uleb128 0xb
 3139 0097 49       		.uleb128 0x49
 3140 0098 13       		.uleb128 0x13
 3141 0099 38       		.uleb128 0x38
 3142 009a 0B       		.uleb128 0xb
 3143 009b 00       		.byte	0
 3144 009c 00       		.byte	0
 3145 009d 0E       		.uleb128 0xe
 3146 009e 0F       		.uleb128 0xf
 3147 009f 00       		.byte	0
 3148 00a0 0B       		.uleb128 0xb
 3149 00a1 0B       		.uleb128 0xb
 3150 00a2 00       		.byte	0
 3151 00a3 00       		.byte	0
 3152 00a4 0F       		.uleb128 0xf
 3153 00a5 26       		.uleb128 0x26
 3154 00a6 00       		.byte	0
 3155 00a7 49       		.uleb128 0x49
 3156 00a8 13       		.uleb128 0x13
 3157 00a9 00       		.byte	0
 3158 00aa 00       		.byte	0
 3159 00ab 10       		.uleb128 0x10
 3160 00ac 13       		.uleb128 0x13
 3161 00ad 01       		.byte	0x1
 3162 00ae 03       		.uleb128 0x3
 3163 00af 0E       		.uleb128 0xe
 3164 00b0 0B       		.uleb128 0xb
 3165 00b1 0B       		.uleb128 0xb
 3166 00b2 3A       		.uleb128 0x3a
 3167 00b3 0B       		.uleb128 0xb
 3168 00b4 3B       		.uleb128 0x3b
 3169 00b5 0B       		.uleb128 0xb
 3170 00b6 01       		.uleb128 0x1
 3171 00b7 13       		.uleb128 0x13
 3172 00b8 00       		.byte	0
 3173 00b9 00       		.byte	0
 3174 00ba 11       		.uleb128 0x11
 3175 00bb 0D       		.uleb128 0xd
 3176 00bc 00       		.byte	0
 3177 00bd 03       		.uleb128 0x3
 3178 00be 08       		.uleb128 0x8
 3179 00bf 3A       		.uleb128 0x3a
 3180 00c0 0B       		.uleb128 0xb
 3181 00c1 3B       		.uleb128 0x3b
 3182 00c2 0B       		.uleb128 0xb
 3183 00c3 49       		.uleb128 0x49
 3184 00c4 13       		.uleb128 0x13
 3185 00c5 38       		.uleb128 0x38
 3186 00c6 0B       		.uleb128 0xb
 3187 00c7 00       		.byte	0
 3188 00c8 00       		.byte	0
 3189 00c9 12       		.uleb128 0x12
 3190 00ca 13       		.uleb128 0x13
 3191 00cb 01       		.byte	0x1
 3192 00cc 03       		.uleb128 0x3
ARM GAS  /tmp/cc7cIEMz.s 			page 57


 3193 00cd 0E       		.uleb128 0xe
 3194 00ce 0B       		.uleb128 0xb
 3195 00cf 05       		.uleb128 0x5
 3196 00d0 3A       		.uleb128 0x3a
 3197 00d1 0B       		.uleb128 0xb
 3198 00d2 3B       		.uleb128 0x3b
 3199 00d3 0B       		.uleb128 0xb
 3200 00d4 01       		.uleb128 0x1
 3201 00d5 13       		.uleb128 0x13
 3202 00d6 00       		.byte	0
 3203 00d7 00       		.byte	0
 3204 00d8 13       		.uleb128 0x13
 3205 00d9 0D       		.uleb128 0xd
 3206 00da 00       		.byte	0
 3207 00db 03       		.uleb128 0x3
 3208 00dc 0E       		.uleb128 0xe
 3209 00dd 3A       		.uleb128 0x3a
 3210 00de 0B       		.uleb128 0xb
 3211 00df 3B       		.uleb128 0x3b
 3212 00e0 0B       		.uleb128 0xb
 3213 00e1 49       		.uleb128 0x49
 3214 00e2 13       		.uleb128 0x13
 3215 00e3 38       		.uleb128 0x38
 3216 00e4 05       		.uleb128 0x5
 3217 00e5 00       		.byte	0
 3218 00e6 00       		.byte	0
 3219 00e7 14       		.uleb128 0x14
 3220 00e8 15       		.uleb128 0x15
 3221 00e9 00       		.byte	0
 3222 00ea 27       		.uleb128 0x27
 3223 00eb 19       		.uleb128 0x19
 3224 00ec 00       		.byte	0
 3225 00ed 00       		.byte	0
 3226 00ee 15       		.uleb128 0x15
 3227 00ef 15       		.uleb128 0x15
 3228 00f0 01       		.byte	0x1
 3229 00f1 27       		.uleb128 0x27
 3230 00f2 19       		.uleb128 0x19
 3231 00f3 49       		.uleb128 0x49
 3232 00f4 13       		.uleb128 0x13
 3233 00f5 01       		.uleb128 0x1
 3234 00f6 13       		.uleb128 0x13
 3235 00f7 00       		.byte	0
 3236 00f8 00       		.byte	0
 3237 00f9 16       		.uleb128 0x16
 3238 00fa 05       		.uleb128 0x5
 3239 00fb 00       		.byte	0
 3240 00fc 49       		.uleb128 0x49
 3241 00fd 13       		.uleb128 0x13
 3242 00fe 00       		.byte	0
 3243 00ff 00       		.byte	0
 3244 0100 17       		.uleb128 0x17
 3245 0101 13       		.uleb128 0x13
 3246 0102 01       		.byte	0x1
 3247 0103 03       		.uleb128 0x3
 3248 0104 0E       		.uleb128 0xe
 3249 0105 0B       		.uleb128 0xb
ARM GAS  /tmp/cc7cIEMz.s 			page 58


 3250 0106 05       		.uleb128 0x5
 3251 0107 3A       		.uleb128 0x3a
 3252 0108 0B       		.uleb128 0xb
 3253 0109 3B       		.uleb128 0x3b
 3254 010a 05       		.uleb128 0x5
 3255 010b 01       		.uleb128 0x1
 3256 010c 13       		.uleb128 0x13
 3257 010d 00       		.byte	0
 3258 010e 00       		.byte	0
 3259 010f 18       		.uleb128 0x18
 3260 0110 0D       		.uleb128 0xd
 3261 0111 00       		.byte	0
 3262 0112 03       		.uleb128 0x3
 3263 0113 0E       		.uleb128 0xe
 3264 0114 3A       		.uleb128 0x3a
 3265 0115 0B       		.uleb128 0xb
 3266 0116 3B       		.uleb128 0x3b
 3267 0117 05       		.uleb128 0x5
 3268 0118 49       		.uleb128 0x49
 3269 0119 13       		.uleb128 0x13
 3270 011a 38       		.uleb128 0x38
 3271 011b 0B       		.uleb128 0xb
 3272 011c 00       		.byte	0
 3273 011d 00       		.byte	0
 3274 011e 19       		.uleb128 0x19
 3275 011f 0D       		.uleb128 0xd
 3276 0120 00       		.byte	0
 3277 0121 03       		.uleb128 0x3
 3278 0122 0E       		.uleb128 0xe
 3279 0123 3A       		.uleb128 0x3a
 3280 0124 0B       		.uleb128 0xb
 3281 0125 3B       		.uleb128 0x3b
 3282 0126 05       		.uleb128 0x5
 3283 0127 49       		.uleb128 0x49
 3284 0128 13       		.uleb128 0x13
 3285 0129 38       		.uleb128 0x38
 3286 012a 05       		.uleb128 0x5
 3287 012b 00       		.byte	0
 3288 012c 00       		.byte	0
 3289 012d 1A       		.uleb128 0x1a
 3290 012e 35       		.uleb128 0x35
 3291 012f 00       		.byte	0
 3292 0130 49       		.uleb128 0x49
 3293 0131 13       		.uleb128 0x13
 3294 0132 00       		.byte	0
 3295 0133 00       		.byte	0
 3296 0134 1B       		.uleb128 0x1b
 3297 0135 13       		.uleb128 0x13
 3298 0136 01       		.byte	0x1
 3299 0137 03       		.uleb128 0x3
 3300 0138 0E       		.uleb128 0xe
 3301 0139 0B       		.uleb128 0xb
 3302 013a 0B       		.uleb128 0xb
 3303 013b 3A       		.uleb128 0x3a
 3304 013c 0B       		.uleb128 0xb
 3305 013d 3B       		.uleb128 0x3b
 3306 013e 05       		.uleb128 0x5
ARM GAS  /tmp/cc7cIEMz.s 			page 59


 3307 013f 01       		.uleb128 0x1
 3308 0140 13       		.uleb128 0x13
 3309 0141 00       		.byte	0
 3310 0142 00       		.byte	0
 3311 0143 1C       		.uleb128 0x1c
 3312 0144 13       		.uleb128 0x13
 3313 0145 01       		.byte	0x1
 3314 0146 0B       		.uleb128 0xb
 3315 0147 0B       		.uleb128 0xb
 3316 0148 3A       		.uleb128 0x3a
 3317 0149 0B       		.uleb128 0xb
 3318 014a 3B       		.uleb128 0x3b
 3319 014b 05       		.uleb128 0x5
 3320 014c 01       		.uleb128 0x1
 3321 014d 13       		.uleb128 0x13
 3322 014e 00       		.byte	0
 3323 014f 00       		.byte	0
 3324 0150 1D       		.uleb128 0x1d
 3325 0151 17       		.uleb128 0x17
 3326 0152 01       		.byte	0x1
 3327 0153 0B       		.uleb128 0xb
 3328 0154 0B       		.uleb128 0xb
 3329 0155 3A       		.uleb128 0x3a
 3330 0156 0B       		.uleb128 0xb
 3331 0157 3B       		.uleb128 0x3b
 3332 0158 05       		.uleb128 0x5
 3333 0159 01       		.uleb128 0x1
 3334 015a 13       		.uleb128 0x13
 3335 015b 00       		.byte	0
 3336 015c 00       		.byte	0
 3337 015d 1E       		.uleb128 0x1e
 3338 015e 0D       		.uleb128 0xd
 3339 015f 00       		.byte	0
 3340 0160 03       		.uleb128 0x3
 3341 0161 0E       		.uleb128 0xe
 3342 0162 3A       		.uleb128 0x3a
 3343 0163 0B       		.uleb128 0xb
 3344 0164 3B       		.uleb128 0x3b
 3345 0165 05       		.uleb128 0x5
 3346 0166 49       		.uleb128 0x49
 3347 0167 13       		.uleb128 0x13
 3348 0168 00       		.byte	0
 3349 0169 00       		.byte	0
 3350 016a 1F       		.uleb128 0x1f
 3351 016b 15       		.uleb128 0x15
 3352 016c 01       		.byte	0x1
 3353 016d 27       		.uleb128 0x27
 3354 016e 19       		.uleb128 0x19
 3355 016f 01       		.uleb128 0x1
 3356 0170 13       		.uleb128 0x13
 3357 0171 00       		.byte	0
 3358 0172 00       		.byte	0
 3359 0173 20       		.uleb128 0x20
 3360 0174 34       		.uleb128 0x34
 3361 0175 00       		.byte	0
 3362 0176 03       		.uleb128 0x3
 3363 0177 0E       		.uleb128 0xe
ARM GAS  /tmp/cc7cIEMz.s 			page 60


 3364 0178 3A       		.uleb128 0x3a
 3365 0179 0B       		.uleb128 0xb
 3366 017a 3B       		.uleb128 0x3b
 3367 017b 05       		.uleb128 0x5
 3368 017c 49       		.uleb128 0x49
 3369 017d 13       		.uleb128 0x13
 3370 017e 3F       		.uleb128 0x3f
 3371 017f 19       		.uleb128 0x19
 3372 0180 3C       		.uleb128 0x3c
 3373 0181 19       		.uleb128 0x19
 3374 0182 00       		.byte	0
 3375 0183 00       		.byte	0
 3376 0184 21       		.uleb128 0x21
 3377 0185 0D       		.uleb128 0xd
 3378 0186 00       		.byte	0
 3379 0187 03       		.uleb128 0x3
 3380 0188 08       		.uleb128 0x8
 3381 0189 3A       		.uleb128 0x3a
 3382 018a 0B       		.uleb128 0xb
 3383 018b 3B       		.uleb128 0x3b
 3384 018c 05       		.uleb128 0x5
 3385 018d 49       		.uleb128 0x49
 3386 018e 13       		.uleb128 0x13
 3387 018f 38       		.uleb128 0x38
 3388 0190 0B       		.uleb128 0xb
 3389 0191 00       		.byte	0
 3390 0192 00       		.byte	0
 3391 0193 22       		.uleb128 0x22
 3392 0194 34       		.uleb128 0x34
 3393 0195 00       		.byte	0
 3394 0196 03       		.uleb128 0x3
 3395 0197 0E       		.uleb128 0xe
 3396 0198 3A       		.uleb128 0x3a
 3397 0199 0B       		.uleb128 0xb
 3398 019a 3B       		.uleb128 0x3b
 3399 019b 0B       		.uleb128 0xb
 3400 019c 49       		.uleb128 0x49
 3401 019d 13       		.uleb128 0x13
 3402 019e 3F       		.uleb128 0x3f
 3403 019f 19       		.uleb128 0x19
 3404 01a0 3C       		.uleb128 0x3c
 3405 01a1 19       		.uleb128 0x19
 3406 01a2 00       		.byte	0
 3407 01a3 00       		.byte	0
 3408 01a4 23       		.uleb128 0x23
 3409 01a5 34       		.uleb128 0x34
 3410 01a6 00       		.byte	0
 3411 01a7 03       		.uleb128 0x3
 3412 01a8 08       		.uleb128 0x8
 3413 01a9 3A       		.uleb128 0x3a
 3414 01aa 0B       		.uleb128 0xb
 3415 01ab 3B       		.uleb128 0x3b
 3416 01ac 05       		.uleb128 0x5
 3417 01ad 49       		.uleb128 0x49
 3418 01ae 13       		.uleb128 0x13
 3419 01af 3F       		.uleb128 0x3f
 3420 01b0 19       		.uleb128 0x19
ARM GAS  /tmp/cc7cIEMz.s 			page 61


 3421 01b1 3C       		.uleb128 0x3c
 3422 01b2 19       		.uleb128 0x19
 3423 01b3 00       		.byte	0
 3424 01b4 00       		.byte	0
 3425 01b5 24       		.uleb128 0x24
 3426 01b6 21       		.uleb128 0x21
 3427 01b7 00       		.byte	0
 3428 01b8 00       		.byte	0
 3429 01b9 00       		.byte	0
 3430 01ba 25       		.uleb128 0x25
 3431 01bb 34       		.uleb128 0x34
 3432 01bc 00       		.byte	0
 3433 01bd 47       		.uleb128 0x47
 3434 01be 13       		.uleb128 0x13
 3435 01bf 3A       		.uleb128 0x3a
 3436 01c0 0B       		.uleb128 0xb
 3437 01c1 3B       		.uleb128 0x3b
 3438 01c2 0B       		.uleb128 0xb
 3439 01c3 02       		.uleb128 0x2
 3440 01c4 18       		.uleb128 0x18
 3441 01c5 00       		.byte	0
 3442 01c6 00       		.byte	0
 3443 01c7 26       		.uleb128 0x26
 3444 01c8 2E       		.uleb128 0x2e
 3445 01c9 01       		.byte	0x1
 3446 01ca 3F       		.uleb128 0x3f
 3447 01cb 19       		.uleb128 0x19
 3448 01cc 03       		.uleb128 0x3
 3449 01cd 0E       		.uleb128 0xe
 3450 01ce 3A       		.uleb128 0x3a
 3451 01cf 0B       		.uleb128 0xb
 3452 01d0 3B       		.uleb128 0x3b
 3453 01d1 0B       		.uleb128 0xb
 3454 01d2 27       		.uleb128 0x27
 3455 01d3 19       		.uleb128 0x19
 3456 01d4 49       		.uleb128 0x49
 3457 01d5 13       		.uleb128 0x13
 3458 01d6 11       		.uleb128 0x11
 3459 01d7 01       		.uleb128 0x1
 3460 01d8 12       		.uleb128 0x12
 3461 01d9 06       		.uleb128 0x6
 3462 01da 40       		.uleb128 0x40
 3463 01db 18       		.uleb128 0x18
 3464 01dc 9742     		.uleb128 0x2117
 3465 01de 19       		.uleb128 0x19
 3466 01df 01       		.uleb128 0x1
 3467 01e0 13       		.uleb128 0x13
 3468 01e1 00       		.byte	0
 3469 01e2 00       		.byte	0
 3470 01e3 27       		.uleb128 0x27
 3471 01e4 05       		.uleb128 0x5
 3472 01e5 00       		.byte	0
 3473 01e6 03       		.uleb128 0x3
 3474 01e7 08       		.uleb128 0x8
 3475 01e8 3A       		.uleb128 0x3a
 3476 01e9 0B       		.uleb128 0xb
 3477 01ea 3B       		.uleb128 0x3b
ARM GAS  /tmp/cc7cIEMz.s 			page 62


 3478 01eb 0B       		.uleb128 0xb
 3479 01ec 49       		.uleb128 0x49
 3480 01ed 13       		.uleb128 0x13
 3481 01ee 02       		.uleb128 0x2
 3482 01ef 17       		.uleb128 0x17
 3483 01f0 00       		.byte	0
 3484 01f1 00       		.byte	0
 3485 01f2 28       		.uleb128 0x28
 3486 01f3 34       		.uleb128 0x34
 3487 01f4 00       		.byte	0
 3488 01f5 03       		.uleb128 0x3
 3489 01f6 08       		.uleb128 0x8
 3490 01f7 3A       		.uleb128 0x3a
 3491 01f8 0B       		.uleb128 0xb
 3492 01f9 3B       		.uleb128 0x3b
 3493 01fa 0B       		.uleb128 0xb
 3494 01fb 49       		.uleb128 0x49
 3495 01fc 13       		.uleb128 0x13
 3496 01fd 02       		.uleb128 0x2
 3497 01fe 17       		.uleb128 0x17
 3498 01ff 00       		.byte	0
 3499 0200 00       		.byte	0
 3500 0201 29       		.uleb128 0x29
 3501 0202 898201   		.uleb128 0x4109
 3502 0205 00       		.byte	0
 3503 0206 11       		.uleb128 0x11
 3504 0207 01       		.uleb128 0x1
 3505 0208 31       		.uleb128 0x31
 3506 0209 13       		.uleb128 0x13
 3507 020a 00       		.byte	0
 3508 020b 00       		.byte	0
 3509 020c 2A       		.uleb128 0x2a
 3510 020d 05       		.uleb128 0x5
 3511 020e 00       		.byte	0
 3512 020f 03       		.uleb128 0x3
 3513 0210 0E       		.uleb128 0xe
 3514 0211 3A       		.uleb128 0x3a
 3515 0212 0B       		.uleb128 0xb
 3516 0213 3B       		.uleb128 0x3b
 3517 0214 0B       		.uleb128 0xb
 3518 0215 49       		.uleb128 0x49
 3519 0216 13       		.uleb128 0x13
 3520 0217 02       		.uleb128 0x2
 3521 0218 17       		.uleb128 0x17
 3522 0219 00       		.byte	0
 3523 021a 00       		.byte	0
 3524 021b 2B       		.uleb128 0x2b
 3525 021c 898201   		.uleb128 0x4109
 3526 021f 01       		.byte	0x1
 3527 0220 11       		.uleb128 0x11
 3528 0221 01       		.uleb128 0x1
 3529 0222 31       		.uleb128 0x31
 3530 0223 13       		.uleb128 0x13
 3531 0224 01       		.uleb128 0x1
 3532 0225 13       		.uleb128 0x13
 3533 0226 00       		.byte	0
 3534 0227 00       		.byte	0
ARM GAS  /tmp/cc7cIEMz.s 			page 63


 3535 0228 2C       		.uleb128 0x2c
 3536 0229 8A8201   		.uleb128 0x410a
 3537 022c 00       		.byte	0
 3538 022d 02       		.uleb128 0x2
 3539 022e 18       		.uleb128 0x18
 3540 022f 9142     		.uleb128 0x2111
 3541 0231 18       		.uleb128 0x18
 3542 0232 00       		.byte	0
 3543 0233 00       		.byte	0
 3544 0234 2D       		.uleb128 0x2d
 3545 0235 898201   		.uleb128 0x4109
 3546 0238 01       		.byte	0x1
 3547 0239 11       		.uleb128 0x11
 3548 023a 01       		.uleb128 0x1
 3549 023b 31       		.uleb128 0x31
 3550 023c 13       		.uleb128 0x13
 3551 023d 00       		.byte	0
 3552 023e 00       		.byte	0
 3553 023f 2E       		.uleb128 0x2e
 3554 0240 34       		.uleb128 0x34
 3555 0241 00       		.byte	0
 3556 0242 03       		.uleb128 0x3
 3557 0243 0E       		.uleb128 0xe
 3558 0244 49       		.uleb128 0x49
 3559 0245 13       		.uleb128 0x13
 3560 0246 34       		.uleb128 0x34
 3561 0247 19       		.uleb128 0x19
 3562 0248 00       		.byte	0
 3563 0249 00       		.byte	0
 3564 024a 2F       		.uleb128 0x2f
 3565 024b 1D       		.uleb128 0x1d
 3566 024c 01       		.byte	0x1
 3567 024d 31       		.uleb128 0x31
 3568 024e 13       		.uleb128 0x13
 3569 024f 11       		.uleb128 0x11
 3570 0250 01       		.uleb128 0x1
 3571 0251 12       		.uleb128 0x12
 3572 0252 06       		.uleb128 0x6
 3573 0253 58       		.uleb128 0x58
 3574 0254 0B       		.uleb128 0xb
 3575 0255 59       		.uleb128 0x59
 3576 0256 0B       		.uleb128 0xb
 3577 0257 01       		.uleb128 0x1
 3578 0258 13       		.uleb128 0x13
 3579 0259 00       		.byte	0
 3580 025a 00       		.byte	0
 3581 025b 30       		.uleb128 0x30
 3582 025c 1D       		.uleb128 0x1d
 3583 025d 01       		.byte	0x1
 3584 025e 31       		.uleb128 0x31
 3585 025f 13       		.uleb128 0x13
 3586 0260 11       		.uleb128 0x11
 3587 0261 01       		.uleb128 0x1
 3588 0262 12       		.uleb128 0x12
 3589 0263 06       		.uleb128 0x6
 3590 0264 58       		.uleb128 0x58
 3591 0265 0B       		.uleb128 0xb
ARM GAS  /tmp/cc7cIEMz.s 			page 64


 3592 0266 59       		.uleb128 0x59
 3593 0267 05       		.uleb128 0x5
 3594 0268 00       		.byte	0
 3595 0269 00       		.byte	0
 3596 026a 31       		.uleb128 0x31
 3597 026b 05       		.uleb128 0x5
 3598 026c 00       		.byte	0
 3599 026d 31       		.uleb128 0x31
 3600 026e 13       		.uleb128 0x13
 3601 026f 02       		.uleb128 0x2
 3602 0270 17       		.uleb128 0x17
 3603 0271 00       		.byte	0
 3604 0272 00       		.byte	0
 3605 0273 32       		.uleb128 0x32
 3606 0274 0B       		.uleb128 0xb
 3607 0275 01       		.byte	0x1
 3608 0276 11       		.uleb128 0x11
 3609 0277 01       		.uleb128 0x1
 3610 0278 12       		.uleb128 0x12
 3611 0279 06       		.uleb128 0x6
 3612 027a 00       		.byte	0
 3613 027b 00       		.byte	0
 3614 027c 33       		.uleb128 0x33
 3615 027d 34       		.uleb128 0x34
 3616 027e 00       		.byte	0
 3617 027f 31       		.uleb128 0x31
 3618 0280 13       		.uleb128 0x13
 3619 0281 00       		.byte	0
 3620 0282 00       		.byte	0
 3621 0283 34       		.uleb128 0x34
 3622 0284 34       		.uleb128 0x34
 3623 0285 00       		.byte	0
 3624 0286 03       		.uleb128 0x3
 3625 0287 08       		.uleb128 0x8
 3626 0288 3A       		.uleb128 0x3a
 3627 0289 0B       		.uleb128 0xb
 3628 028a 3B       		.uleb128 0x3b
 3629 028b 0B       		.uleb128 0xb
 3630 028c 49       		.uleb128 0x49
 3631 028d 13       		.uleb128 0x13
 3632 028e 02       		.uleb128 0x2
 3633 028f 18       		.uleb128 0x18
 3634 0290 00       		.byte	0
 3635 0291 00       		.byte	0
 3636 0292 35       		.uleb128 0x35
 3637 0293 1D       		.uleb128 0x1d
 3638 0294 01       		.byte	0x1
 3639 0295 31       		.uleb128 0x31
 3640 0296 13       		.uleb128 0x13
 3641 0297 11       		.uleb128 0x11
 3642 0298 01       		.uleb128 0x1
 3643 0299 12       		.uleb128 0x12
 3644 029a 06       		.uleb128 0x6
 3645 029b 58       		.uleb128 0x58
 3646 029c 0B       		.uleb128 0xb
 3647 029d 59       		.uleb128 0x59
 3648 029e 0B       		.uleb128 0xb
ARM GAS  /tmp/cc7cIEMz.s 			page 65


 3649 029f 00       		.byte	0
 3650 02a0 00       		.byte	0
 3651 02a1 36       		.uleb128 0x36
 3652 02a2 2E       		.uleb128 0x2e
 3653 02a3 01       		.byte	0x1
 3654 02a4 03       		.uleb128 0x3
 3655 02a5 0E       		.uleb128 0xe
 3656 02a6 3A       		.uleb128 0x3a
 3657 02a7 0B       		.uleb128 0xb
 3658 02a8 3B       		.uleb128 0x3b
 3659 02a9 0B       		.uleb128 0xb
 3660 02aa 27       		.uleb128 0x27
 3661 02ab 19       		.uleb128 0x19
 3662 02ac 49       		.uleb128 0x49
 3663 02ad 13       		.uleb128 0x13
 3664 02ae 20       		.uleb128 0x20
 3665 02af 0B       		.uleb128 0xb
 3666 02b0 01       		.uleb128 0x1
 3667 02b1 13       		.uleb128 0x13
 3668 02b2 00       		.byte	0
 3669 02b3 00       		.byte	0
 3670 02b4 37       		.uleb128 0x37
 3671 02b5 05       		.uleb128 0x5
 3672 02b6 00       		.byte	0
 3673 02b7 03       		.uleb128 0x3
 3674 02b8 08       		.uleb128 0x8
 3675 02b9 3A       		.uleb128 0x3a
 3676 02ba 0B       		.uleb128 0xb
 3677 02bb 3B       		.uleb128 0x3b
 3678 02bc 0B       		.uleb128 0xb
 3679 02bd 49       		.uleb128 0x49
 3680 02be 13       		.uleb128 0x13
 3681 02bf 00       		.byte	0
 3682 02c0 00       		.byte	0
 3683 02c1 38       		.uleb128 0x38
 3684 02c2 2E       		.uleb128 0x2e
 3685 02c3 01       		.byte	0x1
 3686 02c4 03       		.uleb128 0x3
 3687 02c5 0E       		.uleb128 0xe
 3688 02c6 3A       		.uleb128 0x3a
 3689 02c7 0B       		.uleb128 0xb
 3690 02c8 3B       		.uleb128 0x3b
 3691 02c9 05       		.uleb128 0x5
 3692 02ca 27       		.uleb128 0x27
 3693 02cb 19       		.uleb128 0x19
 3694 02cc 49       		.uleb128 0x49
 3695 02cd 13       		.uleb128 0x13
 3696 02ce 20       		.uleb128 0x20
 3697 02cf 0B       		.uleb128 0xb
 3698 02d0 01       		.uleb128 0x1
 3699 02d1 13       		.uleb128 0x13
 3700 02d2 00       		.byte	0
 3701 02d3 00       		.byte	0
 3702 02d4 39       		.uleb128 0x39
 3703 02d5 05       		.uleb128 0x5
 3704 02d6 00       		.byte	0
 3705 02d7 03       		.uleb128 0x3
ARM GAS  /tmp/cc7cIEMz.s 			page 66


 3706 02d8 08       		.uleb128 0x8
 3707 02d9 3A       		.uleb128 0x3a
 3708 02da 0B       		.uleb128 0xb
 3709 02db 3B       		.uleb128 0x3b
 3710 02dc 05       		.uleb128 0x5
 3711 02dd 49       		.uleb128 0x49
 3712 02de 13       		.uleb128 0x13
 3713 02df 00       		.byte	0
 3714 02e0 00       		.byte	0
 3715 02e1 3A       		.uleb128 0x3a
 3716 02e2 2E       		.uleb128 0x2e
 3717 02e3 01       		.byte	0x1
 3718 02e4 03       		.uleb128 0x3
 3719 02e5 0E       		.uleb128 0xe
 3720 02e6 3A       		.uleb128 0x3a
 3721 02e7 0B       		.uleb128 0xb
 3722 02e8 3B       		.uleb128 0x3b
 3723 02e9 05       		.uleb128 0x5
 3724 02ea 27       		.uleb128 0x27
 3725 02eb 19       		.uleb128 0x19
 3726 02ec 20       		.uleb128 0x20
 3727 02ed 0B       		.uleb128 0xb
 3728 02ee 01       		.uleb128 0x1
 3729 02ef 13       		.uleb128 0x13
 3730 02f0 00       		.byte	0
 3731 02f1 00       		.byte	0
 3732 02f2 3B       		.uleb128 0x3b
 3733 02f3 34       		.uleb128 0x34
 3734 02f4 00       		.byte	0
 3735 02f5 03       		.uleb128 0x3
 3736 02f6 0E       		.uleb128 0xe
 3737 02f7 49       		.uleb128 0x49
 3738 02f8 13       		.uleb128 0x13
 3739 02f9 34       		.uleb128 0x34
 3740 02fa 19       		.uleb128 0x19
 3741 02fb 1C       		.uleb128 0x1c
 3742 02fc 0E       		.uleb128 0xe
 3743 02fd 00       		.byte	0
 3744 02fe 00       		.byte	0
 3745 02ff 3C       		.uleb128 0x3c
 3746 0300 2E       		.uleb128 0x2e
 3747 0301 00       		.byte	0
 3748 0302 03       		.uleb128 0x3
 3749 0303 0E       		.uleb128 0xe
 3750 0304 3A       		.uleb128 0x3a
 3751 0305 0B       		.uleb128 0xb
 3752 0306 3B       		.uleb128 0x3b
 3753 0307 05       		.uleb128 0x5
 3754 0308 27       		.uleb128 0x27
 3755 0309 19       		.uleb128 0x19
 3756 030a 20       		.uleb128 0x20
 3757 030b 0B       		.uleb128 0xb
 3758 030c 00       		.byte	0
 3759 030d 00       		.byte	0
 3760 030e 3D       		.uleb128 0x3d
 3761 030f 05       		.uleb128 0x5
 3762 0310 00       		.byte	0
ARM GAS  /tmp/cc7cIEMz.s 			page 67


 3763 0311 03       		.uleb128 0x3
 3764 0312 0E       		.uleb128 0xe
 3765 0313 3A       		.uleb128 0x3a
 3766 0314 0B       		.uleb128 0xb
 3767 0315 3B       		.uleb128 0x3b
 3768 0316 05       		.uleb128 0x5
 3769 0317 49       		.uleb128 0x49
 3770 0318 13       		.uleb128 0x13
 3771 0319 00       		.byte	0
 3772 031a 00       		.byte	0
 3773 031b 3E       		.uleb128 0x3e
 3774 031c 2E       		.uleb128 0x2e
 3775 031d 00       		.byte	0
 3776 031e 3F       		.uleb128 0x3f
 3777 031f 19       		.uleb128 0x19
 3778 0320 3C       		.uleb128 0x3c
 3779 0321 19       		.uleb128 0x19
 3780 0322 6E       		.uleb128 0x6e
 3781 0323 0E       		.uleb128 0xe
 3782 0324 03       		.uleb128 0x3
 3783 0325 0E       		.uleb128 0xe
 3784 0326 3A       		.uleb128 0x3a
 3785 0327 0B       		.uleb128 0xb
 3786 0328 3B       		.uleb128 0x3b
 3787 0329 0B       		.uleb128 0xb
 3788 032a 00       		.byte	0
 3789 032b 00       		.byte	0
 3790 032c 00       		.byte	0
 3791              		.section	.debug_loc,"",%progbits
 3792              	.Ldebug_loc0:
 3793              	.LLST10:
 3794 0000 00000000 		.4byte	.LVL23
 3795 0004 07000000 		.4byte	.LVL24-1
 3796 0008 0100     		.2byte	0x1
 3797 000a 50       		.byte	0x50
 3798 000b 07000000 		.4byte	.LVL24-1
 3799 000f 18000000 		.4byte	.LFE294
 3800 0013 0100     		.2byte	0x1
 3801 0015 54       		.byte	0x54
 3802 0016 00000000 		.4byte	0
 3803 001a 00000000 		.4byte	0
 3804              	.LLST11:
 3805 001e 08000000 		.4byte	.LVL24
 3806 0022 11000000 		.4byte	.LVL25-1
 3807 0026 0100     		.2byte	0x1
 3808 0028 50       		.byte	0x50
 3809 0029 12000000 		.4byte	.LVL25
 3810 002d 18000000 		.4byte	.LFE294
 3811 0031 0100     		.2byte	0x1
 3812 0033 50       		.byte	0x50
 3813 0034 00000000 		.4byte	0
 3814 0038 00000000 		.4byte	0
 3815              	.LLST8:
 3816 003c 00000000 		.4byte	.LVL20
 3817 0040 07000000 		.4byte	.LVL21-1
 3818 0044 0100     		.2byte	0x1
 3819 0046 50       		.byte	0x50
ARM GAS  /tmp/cc7cIEMz.s 			page 68


 3820 0047 07000000 		.4byte	.LVL21-1
 3821 004b 16000000 		.4byte	.LFE293
 3822 004f 0100     		.2byte	0x1
 3823 0051 54       		.byte	0x54
 3824 0052 00000000 		.4byte	0
 3825 0056 00000000 		.4byte	0
 3826              	.LLST9:
 3827 005a 08000000 		.4byte	.LVL21
 3828 005e 0F000000 		.4byte	.LVL22-1
 3829 0062 0100     		.2byte	0x1
 3830 0064 50       		.byte	0x50
 3831 0065 10000000 		.4byte	.LVL22
 3832 0069 16000000 		.4byte	.LFE293
 3833 006d 0100     		.2byte	0x1
 3834 006f 50       		.byte	0x50
 3835 0070 00000000 		.4byte	0
 3836 0074 00000000 		.4byte	0
 3837              	.LLST6:
 3838 0078 00000000 		.4byte	.LVL12
 3839 007c 07000000 		.4byte	.LVL13-1
 3840 0080 0100     		.2byte	0x1
 3841 0082 50       		.byte	0x50
 3842 0083 07000000 		.4byte	.LVL13-1
 3843 0087 24000000 		.4byte	.LFE292
 3844 008b 0100     		.2byte	0x1
 3845 008d 55       		.byte	0x55
 3846 008e 00000000 		.4byte	0
 3847 0092 00000000 		.4byte	0
 3848              	.LLST7:
 3849 0096 0A000000 		.4byte	.LVL14
 3850 009a 0E000000 		.4byte	.LVL15
 3851 009e 0100     		.2byte	0x1
 3852 00a0 50       		.byte	0x50
 3853 00a1 0E000000 		.4byte	.LVL15
 3854 00a5 1A000000 		.4byte	.LVL17
 3855 00a9 0100     		.2byte	0x1
 3856 00ab 54       		.byte	0x54
 3857 00ac 1A000000 		.4byte	.LVL17
 3858 00b0 20000000 		.4byte	.LVL19
 3859 00b4 0100     		.2byte	0x1
 3860 00b6 50       		.byte	0x50
 3861 00b7 20000000 		.4byte	.LVL19
 3862 00bb 24000000 		.4byte	.LFE292
 3863 00bf 0100     		.2byte	0x1
 3864 00c1 54       		.byte	0x54
 3865 00c2 00000000 		.4byte	0
 3866 00c6 00000000 		.4byte	0
 3867              	.LLST2:
 3868 00ca 00000000 		.4byte	.LVL5
 3869 00ce 29000000 		.4byte	.LVL10-1
 3870 00d2 0100     		.2byte	0x1
 3871 00d4 50       		.byte	0x50
 3872 00d5 29000000 		.4byte	.LVL10-1
 3873 00d9 34000000 		.4byte	.LFE291
 3874 00dd 0400     		.2byte	0x4
 3875 00df F3       		.byte	0xf3
 3876 00e0 01       		.uleb128 0x1
ARM GAS  /tmp/cc7cIEMz.s 			page 69


 3877 00e1 50       		.byte	0x50
 3878 00e2 9F       		.byte	0x9f
 3879 00e3 00000000 		.4byte	0
 3880 00e7 00000000 		.4byte	0
 3881              	.LLST3:
 3882 00eb 0C000000 		.4byte	.LVL7
 3883 00ef 2E000000 		.4byte	.LVL11
 3884 00f3 0100     		.2byte	0x1
 3885 00f5 54       		.byte	0x54
 3886 00f6 2E000000 		.4byte	.LVL11
 3887 00fa 34000000 		.4byte	.LFE291
 3888 00fe 0100     		.2byte	0x1
 3889 0100 50       		.byte	0x50
 3890 0101 00000000 		.4byte	0
 3891 0105 00000000 		.4byte	0
 3892              	.LLST4:
 3893 0109 00000000 		.4byte	.LVL5
 3894 010d 08000000 		.4byte	.LVL6
 3895 0111 0300     		.2byte	0x3
 3896 0113 08       		.byte	0x8
 3897 0114 20       		.byte	0x20
 3898 0115 9F       		.byte	0x9f
 3899 0116 00000000 		.4byte	0
 3900 011a 00000000 		.4byte	0
 3901              	.LLST5:
 3902 011e 22000000 		.4byte	.LVL8
 3903 0122 26000000 		.4byte	.LVL9
 3904 0126 0200     		.2byte	0x2
 3905 0128 30       		.byte	0x30
 3906 0129 9F       		.byte	0x9f
 3907 012a 00000000 		.4byte	0
 3908 012e 00000000 		.4byte	0
 3909              	.LLST0:
 3910 0132 00000000 		.4byte	.LVL0
 3911 0136 06000000 		.4byte	.LVL1
 3912 013a 0300     		.2byte	0x3
 3913 013c 08       		.byte	0x8
 3914 013d 20       		.byte	0x20
 3915 013e 9F       		.byte	0x9f
 3916 013f 00000000 		.4byte	0
 3917 0143 00000000 		.4byte	0
 3918              	.LLST1:
 3919 0147 14000000 		.4byte	.LVL3
 3920 014b 1A000000 		.4byte	.LVL4
 3921 014f 0200     		.2byte	0x2
 3922 0151 30       		.byte	0x30
 3923 0152 9F       		.byte	0x9f
 3924 0153 00000000 		.4byte	0
 3925 0157 00000000 		.4byte	0
 3926              		.section	.debug_aranges,"",%progbits
 3927 0000 3C000000 		.4byte	0x3c
 3928 0004 0200     		.2byte	0x2
 3929 0006 00000000 		.4byte	.Ldebug_info0
 3930 000a 04       		.byte	0x4
 3931 000b 00       		.byte	0
 3932 000c 0000     		.2byte	0
 3933 000e 0000     		.2byte	0
ARM GAS  /tmp/cc7cIEMz.s 			page 70


 3934 0010 00000000 		.4byte	.LFB290
 3935 0014 20000000 		.4byte	.LFE290-.LFB290
 3936 0018 00000000 		.4byte	.LFB291
 3937 001c 34000000 		.4byte	.LFE291-.LFB291
 3938 0020 00000000 		.4byte	.LFB292
 3939 0024 24000000 		.4byte	.LFE292-.LFB292
 3940 0028 00000000 		.4byte	.LFB293
 3941 002c 16000000 		.4byte	.LFE293-.LFB293
 3942 0030 00000000 		.4byte	.LFB294
 3943 0034 18000000 		.4byte	.LFE294-.LFB294
 3944 0038 00000000 		.4byte	0
 3945 003c 00000000 		.4byte	0
 3946              		.section	.debug_ranges,"",%progbits
 3947              	.Ldebug_ranges0:
 3948 0000 00000000 		.4byte	.LFB290
 3949 0004 20000000 		.4byte	.LFE290
 3950 0008 00000000 		.4byte	.LFB291
 3951 000c 34000000 		.4byte	.LFE291
 3952 0010 00000000 		.4byte	.LFB292
 3953 0014 24000000 		.4byte	.LFE292
 3954 0018 00000000 		.4byte	.LFB293
 3955 001c 16000000 		.4byte	.LFE293
 3956 0020 00000000 		.4byte	.LFB294
 3957 0024 18000000 		.4byte	.LFE294
 3958 0028 00000000 		.4byte	0
 3959 002c 00000000 		.4byte	0
 3960              		.section	.debug_line,"",%progbits
 3961              	.Ldebug_line0:
 3962 0000 68040000 		.section	.debug_str,"MS",%progbits,1
 3962      0200CA03 
 3962      00000201 
 3962      FB0E0D00 
 3962      01010101 
 3963              	.LASF217:
 3964 0000 6F66665F 		.ascii	"off_ctx\000"
 3964      63747800 
 3965              	.LASF4:
 3966 0008 73697A65 		.ascii	"size_t\000"
 3966      5F7400
 3967              	.LASF216:
 3968 000f 6F66665F 		.ascii	"off_prio\000"
 3968      7072696F 
 3968      00
 3969              	.LASF22:
 3970 0018 73697A65 		.ascii	"sizetype\000"
 3970      74797065 
 3970      00
 3971              	.LASF125:
 3972 0021 5F5F6C6F 		.ascii	"__locale_t\000"
 3972      63616C65 
 3972      5F7400
 3973              	.LASF24:
 3974 002c 5F5F7661 		.ascii	"__value\000"
 3974      6C756500 
 3975              	.LASF185:
 3976 0034 73797374 		.ascii	"systime_t\000"
 3976      696D655F 
ARM GAS  /tmp/cc7cIEMz.s 			page 71


 3976      7400
 3977              	.LASF225:
 3978 003e 6F66665F 		.ascii	"off_preempt\000"
 3978      70726565 
 3978      6D707400 
 3979              	.LASF93:
 3980 004a 5F5F7366 		.ascii	"__sf\000"
 3980      00
 3981              	.LASF258:
 3982 004f 63685265 		.ascii	"chRegNextThread\000"
 3982      674E6578 
 3982      74546872 
 3982      65616400 
 3983              	.LASF207:
 3984 005f 6F776E65 		.ascii	"owner\000"
 3984      7200
 3985              	.LASF60:
 3986 0065 5F726561 		.ascii	"_read\000"
 3986      6400
 3987              	.LASF137:
 3988 006b 74707269 		.ascii	"tprio_t\000"
 3988      6F5F7400 
 3989              	.LASF228:
 3990 0073 63685F64 		.ascii	"ch_debug\000"
 3990      65627567 
 3990      00
 3991              	.LASF239:
 3992 007c 70726F76 		.ascii	"provider\000"
 3992      69646572 
 3992      00
 3993              	.LASF61:
 3994 0085 5F777269 		.ascii	"_write\000"
 3994      746500
 3995              	.LASF130:
 3996 008c 696E7433 		.ascii	"int32_t\000"
 3996      325F7400 
 3997              	.LASF104:
 3998 0094 5F617363 		.ascii	"_asctime_buf\000"
 3998      74696D65 
 3998      5F627566 
 3998      00
 3999              	.LASF87:
 4000 00a1 5F637674 		.ascii	"_cvtlen\000"
 4000      6C656E00 
 4001              	.LASF169:
 4002 00a9 76746675 		.ascii	"vtfunc_t\000"
 4002      6E635F74 
 4002      00
 4003              	.LASF273:
 4004 00b2 5F5F6675 		.ascii	"__func__\000"
 4004      6E635F5F 
 4004      00
 4005              	.LASF175:
 4006 00bb 63685F76 		.ascii	"ch_virtual_timers_list\000"
 4006      69727475 
 4006      616C5F74 
 4006      696D6572 
ARM GAS  /tmp/cc7cIEMz.s 			page 72


 4006      735F6C69 
 4007              	.LASF123:
 4008 00d2 5F756E75 		.ascii	"_unused\000"
 4008      73656400 
 4009              	.LASF34:
 4010 00da 5F5F746D 		.ascii	"__tm\000"
 4010      00
 4011              	.LASF119:
 4012 00df 5F776373 		.ascii	"_wcsrtombs_state\000"
 4012      72746F6D 
 4012      62735F73 
 4012      74617465 
 4012      00
 4013              	.LASF65:
 4014 00f0 5F6E6275 		.ascii	"_nbuf\000"
 4014      6600
 4015              	.LASF35:
 4016 00f6 5F5F746D 		.ascii	"__tm_sec\000"
 4016      5F736563 
 4016      00
 4017              	.LASF112:
 4018 00ff 5F6C3634 		.ascii	"_l64a_buf\000"
 4018      615F6275 
 4018      6600
 4019              	.LASF241:
 4020 0109 63685F64 		.ascii	"ch_dyn_element\000"
 4020      796E5F65 
 4020      6C656D65 
 4020      6E7400
 4021              	.LASF150:
 4022 0118 73746174 		.ascii	"state\000"
 4022      6500
 4023              	.LASF69:
 4024 011e 5F6C6F63 		.ascii	"_lock\000"
 4024      6B00
 4025              	.LASF267:
 4026 0124 62617365 		.ascii	"basePri\000"
 4026      50726900 
 4027              	.LASF100:
 4028 012c 5F6D756C 		.ascii	"_mult\000"
 4028      7400
 4029              	.LASF246:
 4030 0132 6F626A5F 		.ascii	"obj_list\000"
 4030      6C697374 
 4030      00
 4031              	.LASF269:
 4032 013b 63685468 		.ascii	"chThdRelease\000"
 4032      6452656C 
 4032      65617365 
 4032      00
 4033              	.LASF219:
 4034 0148 6F66665F 		.ascii	"off_older\000"
 4034      6F6C6465 
 4034      7200
 4035              	.LASF145:
 4036 0152 7072696F 		.ascii	"prio\000"
 4036      00
ARM GAS  /tmp/cc7cIEMz.s 			page 73


 4037              	.LASF259:
 4038 0157 63685265 		.ascii	"chRegFirstThread\000"
 4038      67466972 
 4038      73745468 
 4038      72656164 
 4038      00
 4039              	.LASF20:
 4040 0168 5F5F7763 		.ascii	"__wch\000"
 4040      6800
 4041              	.LASF198:
 4042 016e 65786974 		.ascii	"exitcode\000"
 4042      636F6465 
 4042      00
 4043              	.LASF5:
 4044 0177 5F5F7569 		.ascii	"__uint8_t\000"
 4044      6E74385F 
 4044      7400
 4045              	.LASF57:
 4046 0181 5F66696C 		.ascii	"_file\000"
 4046      6500
 4047              	.LASF44:
 4048 0187 5F6F6E5F 		.ascii	"_on_exit_args\000"
 4048      65786974 
 4048      5F617267 
 4048      7300
 4049              	.LASF233:
 4050 0195 656E646D 		.ascii	"endmem\000"
 4050      656D00
 4051              	.LASF115:
 4052 019c 5F6D6272 		.ascii	"_mbrlen_state\000"
 4052      6C656E5F 
 4052      73746174 
 4052      6500
 4053              	.LASF11:
 4054 01aa 6C6F6E67 		.ascii	"long int\000"
 4054      20696E74 
 4054      00
 4055              	.LASF263:
 4056 01b3 706F7274 		.ascii	"port_unlock\000"
 4056      5F756E6C 
 4056      6F636B00 
 4057              	.LASF126:
 4058 01bf 5F696D70 		.ascii	"_impure_ptr\000"
 4058      7572655F 
 4058      70747200 
 4059              	.LASF84:
 4060 01cb 5F726573 		.ascii	"_result_k\000"
 4060      756C745F 
 4060      6B00
 4061              	.LASF54:
 4062 01d5 5F73697A 		.ascii	"_size\000"
 4062      6500
 4063              	.LASF210:
 4064 01db 7A65726F 		.ascii	"zero\000"
 4064      00
 4065              	.LASF105:
 4066 01e0 5F6C6F63 		.ascii	"_localtime_buf\000"
ARM GAS  /tmp/cc7cIEMz.s 			page 74


 4066      616C7469 
 4066      6D655F62 
 4066      756600
 4067              	.LASF135:
 4068 01ef 74737461 		.ascii	"tstate_t\000"
 4068      74655F74 
 4068      00
 4069              	.LASF155:
 4070 01f8 6570656E 		.ascii	"epending\000"
 4070      64696E67 
 4070      00
 4071              	.LASF163:
 4072 0201 74687265 		.ascii	"threads_queue_t\000"
 4072      6164735F 
 4072      71756575 
 4072      655F7400 
 4073              	.LASF191:
 4074 0211 72656761 		.ascii	"regarm_t\000"
 4074      726D5F74 
 4074      00
 4075              	.LASF39:
 4076 021a 5F5F746D 		.ascii	"__tm_mon\000"
 4076      5F6D6F6E 
 4076      00
 4077              	.LASF260:
 4078 0223 63685265 		.ascii	"chRegGetThreadNameX\000"
 4078      67476574 
 4078      54687265 
 4078      61644E61 
 4078      6D655800 
 4079              	.LASF247:
 4080 0237 6F626A5F 		.ascii	"obj_pool\000"
 4080      706F6F6C 
 4080      00
 4081              	.LASF102:
 4082 0240 5F756E75 		.ascii	"_unused_rand\000"
 4082      7365645F 
 4082      72616E64 
 4082      00
 4083              	.LASF234:
 4084 024d 6D656D63 		.ascii	"memcore_t\000"
 4084      6F72655F 
 4084      7400
 4085              	.LASF3:
 4086 0257 7369676E 		.ascii	"signed char\000"
 4086      65642063 
 4086      68617200 
 4087              	.LASF204:
 4088 0263 65776D61 		.ascii	"ewmask\000"
 4088      736B00
 4089              	.LASF128:
 4090 026a 75696E74 		.ascii	"uint8_t\000"
 4090      385F7400 
 4091              	.LASF139:
 4092 0272 6576656E 		.ascii	"eventmask_t\000"
 4092      746D6173 
 4092      6B5F7400 
ARM GAS  /tmp/cc7cIEMz.s 			page 75


 4093              	.LASF200:
 4094 027e 77747472 		.ascii	"wttrp\000"
 4094      7000
 4095              	.LASF256:
 4096 0284 63685265 		.ascii	"chRegFindThreadByPointer\000"
 4096      6746696E 
 4096      64546872 
 4096      65616442 
 4096      79506F69 
 4097              	.LASF6:
 4098 029d 756E7369 		.ascii	"unsigned char\000"
 4098      676E6564 
 4098      20636861 
 4098      7200
 4099              	.LASF176:
 4100 02ab 6C617374 		.ascii	"lasttime\000"
 4100      74696D65 
 4100      00
 4101              	.LASF179:
 4102 02b4 70616E69 		.ascii	"panic_msg\000"
 4102      635F6D73 
 4102      6700
 4103              	.LASF79:
 4104 02be 5F756E73 		.ascii	"_unspecified_locale_info\000"
 4104      70656369 
 4104      66696564 
 4104      5F6C6F63 
 4104      616C655F 
 4105              	.LASF72:
 4106 02d7 5F726565 		.ascii	"_reent\000"
 4106      6E7400
 4107              	.LASF127:
 4108 02de 5F676C6F 		.ascii	"_global_impure_ptr\000"
 4108      62616C5F 
 4108      696D7075 
 4108      72655F70 
 4108      747200
 4109              	.LASF177:
 4110 02f1 73797374 		.ascii	"system_debug_t\000"
 4110      656D5F64 
 4110      65627567 
 4110      5F7400
 4111              	.LASF230:
 4112 0300 5F426F6F 		.ascii	"_Bool\000"
 4112      6C00
 4113              	.LASF27:
 4114 0306 63686172 		.ascii	"char\000"
 4114      00
 4115              	.LASF51:
 4116 030b 5F666E73 		.ascii	"_fns\000"
 4116      00
 4117              	.LASF63:
 4118 0310 5F636C6F 		.ascii	"_close\000"
 4118      736500
 4119              	.LASF249:
 4120 0317 73656D5F 		.ascii	"sem_list\000"
 4120      6C697374 
ARM GAS  /tmp/cc7cIEMz.s 			page 76


 4120      00
 4121              	.LASF8:
 4122 0320 5F5F7569 		.ascii	"__uint16_t\000"
 4122      6E743136 
 4122      5F7400
 4123              	.LASF199:
 4124 032b 77746F62 		.ascii	"wtobjp\000"
 4124      6A7000
 4125              	.LASF74:
 4126 0332 5F737464 		.ascii	"_stdin\000"
 4126      696E00
 4127              	.LASF270:
 4128 0339 474E5520 		.ascii	"GNU C11 6.3.1 20170620 (release) [ARM/embedded-6-br"
 4128      43313120 
 4128      362E332E 
 4128      31203230 
 4128      31373036 
 4129 036c 616E6368 		.ascii	"anch revision 249437] -mcpu=cortex-m4 -mfloat-abi=h"
 4129      20726576 
 4129      6973696F 
 4129      6E203234 
 4129      39343337 
 4130 039f 61726420 		.ascii	"ard -mfpu=fpv4-sp-d16 -mno-thumb-interwork -mthumb "
 4130      2D6D6670 
 4130      753D6670 
 4130      76342D73 
 4130      702D6431 
 4131 03d2 2D67202D 		.ascii	"-g -Os -fomit-frame-pointer -falign-functions=16 -f"
 4131      4F73202D 
 4131      666F6D69 
 4131      742D6672 
 4131      616D652D 
 4132 0405 66756E63 		.ascii	"function-sections -fdata-sections -fno-common -fsin"
 4132      74696F6E 
 4132      2D736563 
 4132      74696F6E 
 4132      73202D66 
 4133 0438 676C652D 		.ascii	"gle-precision-constant\000"
 4133      70726563 
 4133      6973696F 
 4133      6E2D636F 
 4133      6E737461 
 4134              	.LASF151:
 4135 044f 666C6167 		.ascii	"flags\000"
 4135      7300
 4136              	.LASF192:
 4137 0455 73746B61 		.ascii	"stkalign_t\000"
 4137      6C69676E 
 4137      5F7400
 4138              	.LASF268:
 4139 0460 73747263 		.ascii	"strcmp\000"
 4139      6D7000
 4140              	.LASF158:
 4141 0467 6D706F6F 		.ascii	"mpool\000"
 4141      6C00
 4142              	.LASF213:
 4143 046d 70747273 		.ascii	"ptrsize\000"
ARM GAS  /tmp/cc7cIEMz.s 			page 77


 4143      697A6500 
 4144              	.LASF226:
 4145 0475 6F66665F 		.ascii	"off_time\000"
 4145      74696D65 
 4145      00
 4146              	.LASF140:
 4147 047e 636E745F 		.ascii	"cnt_t\000"
 4147      7400
 4148              	.LASF59:
 4149 0484 5F636F6F 		.ascii	"_cookie\000"
 4149      6B696500 
 4150              	.LASF203:
 4151 048c 77746D74 		.ascii	"wtmtxp\000"
 4151      787000
 4152              	.LASF32:
 4153 0493 5F776473 		.ascii	"_wds\000"
 4153      00
 4154              	.LASF167:
 4155 0498 63685F72 		.ascii	"ch_ready_list\000"
 4155      65616479 
 4155      5F6C6973 
 4155      7400
 4156              	.LASF124:
 4157 04a6 5F5F6C6F 		.ascii	"__lock\000"
 4157      636B00
 4158              	.LASF91:
 4159 04ad 5F736967 		.ascii	"_sig_func\000"
 4159      5F66756E 
 4159      6300
 4160              	.LASF250:
 4161 04b7 73656D5F 		.ascii	"sem_pool\000"
 4161      706F6F6C 
 4161      00
 4162              	.LASF67:
 4163 04c0 5F6F6666 		.ascii	"_offset\000"
 4163      73657400 
 4164              	.LASF271:
 4165 04c8 2E2E2F2E 		.ascii	"../../modules/ChibiOS/os/rt/src/chregistry.c\000"
 4165      2E2F6D6F 
 4165      64756C65 
 4165      732F4368 
 4165      6962694F 
 4166              	.LASF88:
 4167 04f5 5F637674 		.ascii	"_cvtbuf\000"
 4167      62756600 
 4168              	.LASF232:
 4169 04fd 6E657874 		.ascii	"nextmem\000"
 4169      6D656D00 
 4170              	.LASF14:
 4171 0505 5F5F7569 		.ascii	"__uint64_t\000"
 4171      6E743634 
 4171      5F7400
 4172              	.LASF222:
 4173 0510 6F66665F 		.ascii	"off_state\000"
 4173      73746174 
 4173      6500
 4174              	.LASF265:
ARM GAS  /tmp/cc7cIEMz.s 			page 78


 4175 051a 63685379 		.ascii	"chSysUnlock\000"
 4175      73556E6C 
 4175      6F636B00 
 4176              	.LASF85:
 4177 0526 5F703573 		.ascii	"_p5s\000"
 4177      00
 4178              	.LASF13:
 4179 052b 6C6F6E67 		.ascii	"long unsigned int\000"
 4179      20756E73 
 4179      69676E65 
 4179      6420696E 
 4179      7400
 4180              	.LASF215:
 4181 053d 74687265 		.ascii	"threadsize\000"
 4181      61647369 
 4181      7A6500
 4182              	.LASF262:
 4183 0548 63685379 		.ascii	"chSysLock\000"
 4183      734C6F63 
 4183      6B00
 4184              	.LASF55:
 4185 0552 5F5F7346 		.ascii	"__sFILE\000"
 4185      494C4500 
 4186              	.LASF81:
 4187 055a 5F5F7364 		.ascii	"__sdidinit\000"
 4187      6964696E 
 4187      697400
 4188              	.LASF71:
 4189 0565 5F666C61 		.ascii	"_flags2\000"
 4189      67733200 
 4190              	.LASF188:
 4191 056d 53797374 		.ascii	"SystemCoreClock\000"
 4191      656D436F 
 4191      7265436C 
 4191      6F636B00 
 4192              	.LASF205:
 4193 057d 63685F73 		.ascii	"ch_semaphore\000"
 4193      656D6170 
 4193      686F7265 
 4193      00
 4194              	.LASF143:
 4195 058a 63685F74 		.ascii	"ch_thread\000"
 4195      68726561 
 4195      6400
 4196              	.LASF174:
 4197 0594 76697274 		.ascii	"virtual_timers_list_t\000"
 4197      75616C5F 
 4197      74696D65 
 4197      72735F6C 
 4197      6973745F 
 4198              	.LASF208:
 4199 05aa 63685F69 		.ascii	"ch_idle_thread_wa\000"
 4199      646C655F 
 4199      74687265 
 4199      61645F77 
 4199      6100
 4200              	.LASF73:
ARM GAS  /tmp/cc7cIEMz.s 			page 79


 4201 05bc 5F657272 		.ascii	"_errno\000"
 4201      6E6F00
 4202              	.LASF252:
 4203 05c3 6669666F 		.ascii	"fifo_list\000"
 4203      5F6C6973 
 4203      7400
 4204              	.LASF170:
 4205 05cd 76697274 		.ascii	"virtual_timer_t\000"
 4205      75616C5F 
 4205      74696D65 
 4205      725F7400 
 4206              	.LASF166:
 4207 05dd 72656164 		.ascii	"ready_list_t\000"
 4207      795F6C69 
 4207      73745F74 
 4207      00
 4208              	.LASF147:
 4209 05ea 6F6C6465 		.ascii	"older\000"
 4209      7200
 4210              	.LASF113:
 4211 05f0 5F736967 		.ascii	"_signal_buf\000"
 4211      6E616C5F 
 4211      62756600 
 4212              	.LASF157:
 4213 05fc 7265616C 		.ascii	"realprio\000"
 4213      7072696F 
 4213      00
 4214              	.LASF141:
 4215 0605 75636E74 		.ascii	"ucnt_t\000"
 4215      5F7400
 4216              	.LASF221:
 4217 060c 6F66665F 		.ascii	"off_stklimit\000"
 4217      73746B6C 
 4217      696D6974 
 4217      00
 4218              	.LASF236:
 4219 0619 706F6F6C 		.ascii	"pool_header\000"
 4219      5F686561 
 4219      64657200 
 4220              	.LASF33:
 4221 0625 5F426967 		.ascii	"_Bigint\000"
 4221      696E7400 
 4222              	.LASF161:
 4223 062d 63685F74 		.ascii	"ch_threads_list\000"
 4223      68726561 
 4223      64735F6C 
 4223      69737400 
 4224              	.LASF30:
 4225 063d 5F6D6178 		.ascii	"_maxwds\000"
 4225      77647300 
 4226              	.LASF82:
 4227 0645 5F5F636C 		.ascii	"__cleanup\000"
 4227      65616E75 
 4227      7000
 4228              	.LASF90:
 4229 064f 5F617465 		.ascii	"_atexit0\000"
 4229      78697430 
ARM GAS  /tmp/cc7cIEMz.s 			page 80


 4229      00
 4230              	.LASF12:
 4231 0658 5F5F7569 		.ascii	"__uint32_t\000"
 4231      6E743332 
 4231      5F7400
 4232              	.LASF78:
 4233 0663 5F656D65 		.ascii	"_emergency\000"
 4233      7267656E 
 4233      637900
 4234              	.LASF156:
 4235 066e 6D74786C 		.ascii	"mtxlist\000"
 4235      69737400 
 4236              	.LASF1:
 4237 0676 6C6F6E67 		.ascii	"long long int\000"
 4237      206C6F6E 
 4237      6720696E 
 4237      7400
 4238              	.LASF186:
 4239 0684 73797369 		.ascii	"sysinterval_t\000"
 4239      6E746572 
 4239      76616C5F 
 4239      7400
 4240              	.LASF96:
 4241 0692 5F6E696F 		.ascii	"_niobs\000"
 4241      627300
 4242              	.LASF245:
 4243 0699 63685F6F 		.ascii	"ch_objects_factory\000"
 4243      626A6563 
 4243      74735F66 
 4243      6163746F 
 4243      727900
 4244              	.LASF92:
 4245 06ac 5F5F7367 		.ascii	"__sglue\000"
 4245      6C756500 
 4246              	.LASF122:
 4247 06b4 5F6E6D61 		.ascii	"_nmalloc\000"
 4247      6C6C6F63 
 4247      00
 4248              	.LASF106:
 4249 06bd 5F67616D 		.ascii	"_gamma_signgam\000"
 4249      6D615F73 
 4249      69676E67 
 4249      616D00
 4250              	.LASF86:
 4251 06cc 5F667265 		.ascii	"_freelist\000"
 4251      656C6973 
 4251      7400
 4252              	.LASF97:
 4253 06d6 5F696F62 		.ascii	"_iobs\000"
 4253      7300
 4254              	.LASF238:
 4255 06dc 616C6967 		.ascii	"align\000"
 4255      6E00
 4256              	.LASF95:
 4257 06e2 5F676C75 		.ascii	"_glue\000"
 4257      6500
 4258              	.LASF187:
ARM GAS  /tmp/cc7cIEMz.s 			page 81


 4259 06e8 49544D5F 		.ascii	"ITM_RxBuffer\000"
 4259      52784275 
 4259      66666572 
 4259      00
 4260              	.LASF31:
 4261 06f5 5F736967 		.ascii	"_sign\000"
 4261      6E00
 4262              	.LASF218:
 4263 06fb 6F66665F 		.ascii	"off_newer\000"
 4263      6E657765 
 4263      7200
 4264              	.LASF0:
 4265 0705 756E7369 		.ascii	"unsigned int\000"
 4265      676E6564 
 4265      20696E74 
 4265      00
 4266              	.LASF133:
 4267 0712 7274636E 		.ascii	"rtcnt_t\000"
 4267      745F7400 
 4268              	.LASF152:
 4269 071a 72656673 		.ascii	"refs\000"
 4269      00
 4270              	.LASF120:
 4271 071f 5F685F65 		.ascii	"_h_errno\000"
 4271      72726E6F 
 4271      00
 4272              	.LASF118:
 4273 0728 5F776372 		.ascii	"_wcrtomb_state\000"
 4273      746F6D62 
 4273      5F737461 
 4273      746500
 4274              	.LASF38:
 4275 0737 5F5F746D 		.ascii	"__tm_mday\000"
 4275      5F6D6461 
 4275      7900
 4276              	.LASF89:
 4277 0741 5F6E6577 		.ascii	"_new\000"
 4277      00
 4278              	.LASF64:
 4279 0746 5F756275 		.ascii	"_ubuf\000"
 4279      6600
 4280              	.LASF76:
 4281 074c 5F737464 		.ascii	"_stderr\000"
 4281      65727200 
 4282              	.LASF111:
 4283 0754 5F776374 		.ascii	"_wctomb_state\000"
 4283      6F6D625F 
 4283      73746174 
 4283      6500
 4284              	.LASF70:
 4285 0762 5F6D6273 		.ascii	"_mbstate\000"
 4285      74617465 
 4285      00
 4286              	.LASF168:
 4287 076b 63757272 		.ascii	"current\000"
 4287      656E7400 
 4288              	.LASF107:
ARM GAS  /tmp/cc7cIEMz.s 			page 82


 4289 0773 5F72616E 		.ascii	"_rand_next\000"
 4289      645F6E65 
 4289      787400
 4290              	.LASF56:
 4291 077e 5F666C61 		.ascii	"_flags\000"
 4291      677300
 4292              	.LASF195:
 4293 0785 6F666673 		.ascii	"offset\000"
 4293      657400
 4294              	.LASF159:
 4295 078c 74687265 		.ascii	"thread_reference_t\000"
 4295      61645F72 
 4295      65666572 
 4295      656E6365 
 4295      5F7400
 4296              	.LASF49:
 4297 079f 5F617465 		.ascii	"_atexit\000"
 4297      78697400 
 4298              	.LASF23:
 4299 07a7 5F5F636F 		.ascii	"__count\000"
 4299      756E7400 
 4300              	.LASF231:
 4301 07af 6D656D67 		.ascii	"memgetfunc_t\000"
 4301      65746675 
 4301      6E635F74 
 4301      00
 4302              	.LASF41:
 4303 07bc 5F5F746D 		.ascii	"__tm_wday\000"
 4303      5F776461 
 4303      7900
 4304              	.LASF142:
 4305 07c6 74687265 		.ascii	"thread_t\000"
 4305      61645F74 
 4305      00
 4306              	.LASF2:
 4307 07cf 6C6F6E67 		.ascii	"long double\000"
 4307      20646F75 
 4307      626C6500 
 4308              	.LASF42:
 4309 07db 5F5F746D 		.ascii	"__tm_yday\000"
 4309      5F796461 
 4309      7900
 4310              	.LASF201:
 4311 07e5 73656E74 		.ascii	"sentmsg\000"
 4311      6D736700 
 4312              	.LASF194:
 4313 07ed 706F7274 		.ascii	"port_intctx\000"
 4313      5F696E74 
 4313      63747800 
 4314              	.LASF253:
 4315 07f9 6F626A65 		.ascii	"objects_factory_t\000"
 4315      6374735F 
 4315      66616374 
 4315      6F72795F 
 4315      7400
 4316              	.LASF99:
 4317 080b 5F736565 		.ascii	"_seed\000"
ARM GAS  /tmp/cc7cIEMz.s 			page 83


 4317      6400
 4318              	.LASF248:
 4319 0811 6275665F 		.ascii	"buf_list\000"
 4319      6C697374 
 4319      00
 4320              	.LASF62:
 4321 081a 5F736565 		.ascii	"_seek\000"
 4321      6B00
 4322              	.LASF18:
 4323 0820 5F66706F 		.ascii	"_fpos_t\000"
 4323      735F7400 
 4324              	.LASF21:
 4325 0828 5F5F7763 		.ascii	"__wchb\000"
 4325      686200
 4326              	.LASF255:
 4327 082f 63685265 		.ascii	"chRegFindThreadByWorkingArea\000"
 4327      6746696E 
 4327      64546872 
 4327      65616442 
 4327      79576F72 
 4328              	.LASF189:
 4329 084c 41484250 		.ascii	"AHBPrescTable\000"
 4329      72657363 
 4329      5461626C 
 4329      6500
 4330              	.LASF171:
 4331 085a 63685F76 		.ascii	"ch_virtual_timer\000"
 4331      69727475 
 4331      616C5F74 
 4331      696D6572 
 4331      00
 4332              	.LASF110:
 4333 086b 5F6D6274 		.ascii	"_mbtowc_state\000"
 4333      6F77635F 
 4333      73746174 
 4333      6500
 4334              	.LASF211:
 4335 0879 73697A65 		.ascii	"size\000"
 4335      00
 4336              	.LASF15:
 4337 087e 6C6F6E67 		.ascii	"long long unsigned int\000"
 4337      206C6F6E 
 4337      6720756E 
 4337      7369676E 
 4337      65642069 
 4338              	.LASF272:
 4339 0895 2F686F6D 		.ascii	"/home/alex/ArduPilot/ardupilot/build/Pix2.4\000"
 4339      652F616C 
 4339      65782F41 
 4339      72647550 
 4339      696C6F74 
 4340              	.LASF129:
 4341 08c1 75696E74 		.ascii	"uint16_t\000"
 4341      31365F74 
 4341      00
 4342              	.LASF220:
 4343 08ca 6F66665F 		.ascii	"off_name\000"
ARM GAS  /tmp/cc7cIEMz.s 			page 84


 4343      6E616D65 
 4343      00
 4344              	.LASF46:
 4345 08d3 5F64736F 		.ascii	"_dso_handle\000"
 4345      5F68616E 
 4345      646C6500 
 4346              	.LASF138:
 4347 08df 6D73675F 		.ascii	"msg_t\000"
 4347      7400
 4348              	.LASF164:
 4349 08e5 63685F74 		.ascii	"ch_threads_queue\000"
 4349      68726561 
 4349      64735F71 
 4349      75657565 
 4349      00
 4350              	.LASF98:
 4351 08f6 5F72616E 		.ascii	"_rand48\000"
 4351      64343800 
 4352              	.LASF75:
 4353 08fe 5F737464 		.ascii	"_stdout\000"
 4353      6F757400 
 4354              	.LASF172:
 4355 0906 64656C74 		.ascii	"delta\000"
 4355      6100
 4356              	.LASF66:
 4357 090c 5F626C6B 		.ascii	"_blksize\000"
 4357      73697A65 
 4357      00
 4358              	.LASF53:
 4359 0915 5F626173 		.ascii	"_base\000"
 4359      6500
 4360              	.LASF144:
 4361 091b 71756575 		.ascii	"queue\000"
 4361      6500
 4362              	.LASF103:
 4363 0921 5F737472 		.ascii	"_strtok_last\000"
 4363      746F6B5F 
 4363      6C617374 
 4363      00
 4364              	.LASF254:
 4365 092e 63685F66 		.ascii	"ch_factory\000"
 4365      6163746F 
 4365      727900
 4366              	.LASF116:
 4367 0939 5F6D6272 		.ascii	"_mbrtowc_state\000"
 4367      746F7763 
 4367      5F737461 
 4367      746500
 4368              	.LASF251:
 4369 0948 6D62785F 		.ascii	"mbx_list\000"
 4369      6C697374 
 4369      00
 4370              	.LASF184:
 4371 0951 6D61696E 		.ascii	"mainthread\000"
 4371      74687265 
 4371      616400
 4372              	.LASF26:
ARM GAS  /tmp/cc7cIEMz.s 			page 85


 4373 095c 5F666C6F 		.ascii	"_flock_t\000"
 4373      636B5F74 
 4373      00
 4374              	.LASF212:
 4375 0965 76657273 		.ascii	"version\000"
 4375      696F6E00 
 4376              	.LASF94:
 4377 096d 5F5F4649 		.ascii	"__FILE\000"
 4377      4C4500
 4378              	.LASF266:
 4379 0974 5F5F7365 		.ascii	"__set_BASEPRI\000"
 4379      745F4241 
 4379      53455052 
 4379      4900
 4380              	.LASF25:
 4381 0982 5F6D6273 		.ascii	"_mbstate_t\000"
 4381      74617465 
 4381      5F7400
 4382              	.LASF108:
 4383 098d 5F723438 		.ascii	"_r48\000"
 4383      00
 4384              	.LASF149:
 4385 0992 77616261 		.ascii	"wabase\000"
 4385      736500
 4386              	.LASF19:
 4387 0999 77696E74 		.ascii	"wint_t\000"
 4387      5F7400
 4388              	.LASF240:
 4389 09a0 6D656D6F 		.ascii	"memory_pool_t\000"
 4389      72795F70 
 4389      6F6F6C5F 
 4389      7400
 4390              	.LASF29:
 4391 09ae 5F6E6578 		.ascii	"_next\000"
 4391      7400
 4392              	.LASF68:
 4393 09b4 5F646174 		.ascii	"_data\000"
 4393      6100
 4394              	.LASF182:
 4395 09ba 726C6973 		.ascii	"rlist\000"
 4395      7400
 4396              	.LASF134:
 4397 09c0 746D6F64 		.ascii	"tmode_t\000"
 4397      655F7400 
 4398              	.LASF196:
 4399 09c8 746D5F63 		.ascii	"tm_calibration_t\000"
 4399      616C6962 
 4399      72617469 
 4399      6F6E5F74 
 4399      00
 4400              	.LASF148:
 4401 09d9 6E616D65 		.ascii	"name\000"
 4401      00
 4402              	.LASF264:
 4403 09de 706F7274 		.ascii	"port_lock\000"
 4403      5F6C6F63 
 4403      6B00
ARM GAS  /tmp/cc7cIEMz.s 			page 86


 4404              	.LASF190:
 4405 09e8 41504250 		.ascii	"APBPrescTable\000"
 4405      72657363 
 4405      5461626C 
 4405      6500
 4406              	.LASF109:
 4407 09f6 5F6D626C 		.ascii	"_mblen_state\000"
 4407      656E5F73 
 4407      74617465 
 4407      00
 4408              	.LASF7:
 4409 0a03 73686F72 		.ascii	"short int\000"
 4409      7420696E 
 4409      7400
 4410              	.LASF132:
 4411 0a0d 75696E74 		.ascii	"uint64_t\000"
 4411      36345F74 
 4411      00
 4412              	.LASF173:
 4413 0a16 66756E63 		.ascii	"func\000"
 4413      00
 4414              	.LASF257:
 4415 0a1b 63685265 		.ascii	"chRegFindThreadByName\000"
 4415      6746696E 
 4415      64546872 
 4415      65616442 
 4415      794E616D 
 4416              	.LASF206:
 4417 0a31 63685F6D 		.ascii	"ch_mutex\000"
 4417      75746578 
 4417      00
 4418              	.LASF154:
 4419 0a3a 6D736771 		.ascii	"msgqueue\000"
 4419      75657565 
 4419      00
 4420              	.LASF47:
 4421 0a43 5F666E74 		.ascii	"_fntypes\000"
 4421      79706573 
 4421      00
 4422              	.LASF178:
 4423 0a4c 63685F73 		.ascii	"ch_system_debug\000"
 4423      79737465 
 4423      6D5F6465 
 4423      62756700 
 4424              	.LASF244:
 4425 0a5c 64796E5F 		.ascii	"dyn_list_t\000"
 4425      6C697374 
 4425      5F7400
 4426              	.LASF40:
 4427 0a67 5F5F746D 		.ascii	"__tm_year\000"
 4427      5F796561 
 4427      7200
 4428              	.LASF237:
 4429 0a71 6F626A65 		.ascii	"object_size\000"
 4429      63745F73 
 4429      697A6500 
 4430              	.LASF58:
ARM GAS  /tmp/cc7cIEMz.s 			page 87


 4431 0a7d 5F6C6266 		.ascii	"_lbfsize\000"
 4431      73697A65 
 4431      00
 4432              	.LASF183:
 4433 0a86 76746C69 		.ascii	"vtlist\000"
 4433      737400
 4434              	.LASF77:
 4435 0a8d 5F696E63 		.ascii	"_inc\000"
 4435      00
 4436              	.LASF50:
 4437 0a92 5F696E64 		.ascii	"_ind\000"
 4437      00
 4438              	.LASF153:
 4439 0a97 77616974 		.ascii	"waiting\000"
 4439      696E6700 
 4440              	.LASF52:
 4441 0a9f 5F5F7362 		.ascii	"__sbuf\000"
 4441      756600
 4442              	.LASF242:
 4443 0aa6 64796E5F 		.ascii	"dyn_element_t\000"
 4443      656C656D 
 4443      656E745F 
 4443      7400
 4444              	.LASF48:
 4445 0ab4 5F69735F 		.ascii	"_is_cxa\000"
 4445      63786100 
 4446              	.LASF16:
 4447 0abc 5F4C4F43 		.ascii	"_LOCK_T\000"
 4447      4B5F5400 
 4448              	.LASF229:
 4449 0ac4 6D757465 		.ascii	"mutex_t\000"
 4449      785F7400 
 4450              	.LASF136:
 4451 0acc 74726566 		.ascii	"trefs_t\000"
 4451      735F7400 
 4452              	.LASF121:
 4453 0ad4 5F6E6578 		.ascii	"_nextf\000"
 4453      746600
 4454              	.LASF193:
 4455 0adb 706F7274 		.ascii	"port_context\000"
 4455      5F636F6E 
 4455      74657874 
 4455      00
 4456              	.LASF160:
 4457 0ae8 74687265 		.ascii	"threads_list_t\000"
 4457      6164735F 
 4457      6C697374 
 4457      5F7400
 4458              	.LASF181:
 4459 0af7 63685F73 		.ascii	"ch_system\000"
 4459      79737465 
 4459      6D00
 4460              	.LASF80:
 4461 0b01 5F6C6F63 		.ascii	"_locale\000"
 4461      616C6500 
 4462              	.LASF28:
 4463 0b09 5F5F554C 		.ascii	"__ULong\000"
ARM GAS  /tmp/cc7cIEMz.s 			page 88


 4463      6F6E6700 
 4464              	.LASF146:
 4465 0b11 6E657765 		.ascii	"newer\000"
 4465      7200
 4466              	.LASF131:
 4467 0b17 75696E74 		.ascii	"uint32_t\000"
 4467      33325F74 
 4467      00
 4468              	.LASF83:
 4469 0b20 5F726573 		.ascii	"_result\000"
 4469      756C7400 
 4470              	.LASF224:
 4471 0b28 6F66665F 		.ascii	"off_refs\000"
 4471      72656673 
 4471      00
 4472              	.LASF17:
 4473 0b31 5F6F6666 		.ascii	"_off_t\000"
 4473      5F7400
 4474              	.LASF197:
 4475 0b38 7264796D 		.ascii	"rdymsg\000"
 4475      736700
 4476              	.LASF101:
 4477 0b3f 5F616464 		.ascii	"_add\000"
 4477      00
 4478              	.LASF9:
 4479 0b44 73686F72 		.ascii	"short unsigned int\000"
 4479      7420756E 
 4479      7369676E 
 4479      65642069 
 4479      6E7400
 4480              	.LASF37:
 4481 0b57 5F5F746D 		.ascii	"__tm_hour\000"
 4481      5F686F75 
 4481      7200
 4482              	.LASF180:
 4483 0b61 63685F73 		.ascii	"ch_system_t\000"
 4483      79737465 
 4483      6D5F7400 
 4484              	.LASF227:
 4485 0b6d 63686465 		.ascii	"chdebug_t\000"
 4485      6275675F 
 4485      7400
 4486              	.LASF261:
 4487 0b77 63685468 		.ascii	"chThdGetWorkingAreaX\000"
 4487      64476574 
 4487      576F726B 
 4487      696E6741 
 4487      72656158 
 4488              	.LASF117:
 4489 0b8c 5F6D6273 		.ascii	"_mbsrtowcs_state\000"
 4489      72746F77 
 4489      63735F73 
 4489      74617465 
 4489      00
 4490              	.LASF165:
 4491 0b9d 70726576 		.ascii	"prev\000"
 4491      00
ARM GAS  /tmp/cc7cIEMz.s 			page 89


 4492              	.LASF214:
 4493 0ba2 74696D65 		.ascii	"timesize\000"
 4493      73697A65 
 4493      00
 4494              	.LASF10:
 4495 0bab 5F5F696E 		.ascii	"__int32_t\000"
 4495      7433325F 
 4495      7400
 4496              	.LASF235:
 4497 0bb5 63685F6D 		.ascii	"ch_memcore\000"
 4497      656D636F 
 4497      726500
 4498              	.LASF223:
 4499 0bc0 6F66665F 		.ascii	"off_flags\000"
 4499      666C6167 
 4499      7300
 4500              	.LASF45:
 4501 0bca 5F666E61 		.ascii	"_fnargs\000"
 4501      72677300 
 4502              	.LASF43:
 4503 0bd2 5F5F746D 		.ascii	"__tm_isdst\000"
 4503      5F697364 
 4503      737400
 4504              	.LASF162:
 4505 0bdd 6E657874 		.ascii	"next\000"
 4505      00
 4506              	.LASF36:
 4507 0be2 5F5F746D 		.ascii	"__tm_min\000"
 4507      5F6D696E 
 4507      00
 4508              	.LASF243:
 4509 0beb 63685F64 		.ascii	"ch_dyn_list\000"
 4509      796E5F6C 
 4509      69737400 
 4510              	.LASF209:
 4511 0bf7 6964656E 		.ascii	"identifier\000"
 4511      74696669 
 4511      657200
 4512              	.LASF114:
 4513 0c02 5F676574 		.ascii	"_getdate_err\000"
 4513      64617465 
 4513      5F657272 
 4513      00
 4514              	.LASF202:
 4515 0c0f 77747365 		.ascii	"wtsemp\000"
 4515      6D7000
 4516              		.ident	"GCC: (GNU Tools for ARM Embedded Processors 6-2017-q2-update) 6.3.1 20170620 (release) [AR
ARM GAS  /tmp/cc7cIEMz.s 			page 90


DEFINED SYMBOLS
                            *ABS*:0000000000000000 chregistry.c
     /tmp/cc7cIEMz.s:18     .text.chRegFirstThread:0000000000000000 $t
     /tmp/cc7cIEMz.s:25     .text.chRegFirstThread:0000000000000000 chRegFirstThread
     /tmp/cc7cIEMz.s:85     .text.chRegFirstThread:000000000000001c $d
     /tmp/cc7cIEMz.s:90     .text.chRegNextThread:0000000000000000 $t
     /tmp/cc7cIEMz.s:97     .text.chRegNextThread:0000000000000000 chRegNextThread
     /tmp/cc7cIEMz.s:170    .text.chRegNextThread:0000000000000030 $d
     /tmp/cc7cIEMz.s:175    .text.chRegFindThreadByName:0000000000000000 $t
     /tmp/cc7cIEMz.s:182    .text.chRegFindThreadByName:0000000000000000 chRegFindThreadByName
     /tmp/cc7cIEMz.s:228    .text.chRegFindThreadByPointer:0000000000000000 $t
     /tmp/cc7cIEMz.s:235    .text.chRegFindThreadByPointer:0000000000000000 chRegFindThreadByPointer
     /tmp/cc7cIEMz.s:268    .text.chRegFindThreadByWorkingArea:0000000000000000 $t
     /tmp/cc7cIEMz.s:275    .text.chRegFindThreadByWorkingArea:0000000000000000 chRegFindThreadByWorkingArea
     /tmp/cc7cIEMz.s:313    .rodata.ch_debug:0000000000000000 ch_debug
     /tmp/cc7cIEMz.s:310    .rodata.ch_debug:0000000000000000 $d
                     .debug_frame:0000000000000010 $d

UNDEFINED SYMBOLS
ch
chThdRelease
strcmp
