ARM GAS  /tmp/ccaFA0zm.s 			page 1


   1              		.cpu cortex-m4
   2              		.eabi_attribute 27, 1
   3              		.eabi_attribute 28, 1
   4              		.eabi_attribute 20, 1
   5              		.eabi_attribute 21, 1
   6              		.eabi_attribute 23, 3
   7              		.eabi_attribute 24, 1
   8              		.eabi_attribute 25, 1
   9              		.eabi_attribute 26, 1
  10              		.eabi_attribute 30, 4
  11              		.eabi_attribute 34, 1
  12              		.eabi_attribute 18, 4
  13              		.file	"chschd.c"
  14              		.text
  15              	.Ltext0:
  16              		.cfi_sections	.debug_frame
  17              		.section	.text._scheduler_init,"ax",%progbits
  18              		.align	1
  19              		.global	_scheduler_init
  20              		.syntax unified
  21              		.thumb
  22              		.thumb_func
  23              		.fpu fpv4-sp-d16
  24              		.type	_scheduler_init, %function
  25              	_scheduler_init:
  26              	.LFB290:
  27              		.file 1 "../../modules/ChibiOS/os/rt/src/chschd.c"
  28              		.loc 1 65 0
  29              		.cfi_startproc
  30              		@ args = 0, pretend = 0, frame = 0
  31              		@ frame_needed = 0, uses_anonymous_args = 0
  32              		@ link register save eliminated.
  33              	.LVL0:
  34              	.LBB93:
  35              	.LBB94:
  36              		.file 2 "../../modules/ChibiOS/os/rt/include/chschd.h"
  37              		.loc 2 539 0
  38 0000 034B     		ldr	r3, .L2
  39              	.LBE94:
  40              	.LBE93:
  41              		.loc 1 68 0
  42 0002 0022     		movs	r2, #0
  43              	.LBB96:
  44              	.LBB95:
  45              		.loc 2 539 0
  46 0004 1B60     		str	r3, [r3]
  47              		.loc 2 540 0
  48 0006 5B60     		str	r3, [r3, #4]
  49              	.LVL1:
  50              	.LBE95:
  51              	.LBE96:
  52              		.loc 1 68 0
  53 0008 9A60     		str	r2, [r3, #8]
  54              		.loc 1 70 0
  55 000a 1B61     		str	r3, [r3, #16]
  56              		.loc 1 71 0
  57 000c 5B61     		str	r3, [r3, #20]
ARM GAS  /tmp/ccaFA0zm.s 			page 2


  58 000e 7047     		bx	lr
  59              	.L3:
  60              		.align	2
  61              	.L2:
  62 0010 00000000 		.word	.LANCHOR0
  63              		.cfi_endproc
  64              	.LFE290:
  65              		.size	_scheduler_init, .-_scheduler_init
  66              		.section	.text.chSchReadyI,"ax",%progbits
  67              		.align	1
  68              		.global	chSchReadyI
  69              		.syntax unified
  70              		.thumb
  71              		.thumb_func
  72              		.fpu fpv4-sp-d16
  73              		.type	chSchReadyI, %function
  74              	chSchReadyI:
  75              	.LFB291:
  76              		.loc 1 218 0
  77              		.cfi_startproc
  78              		@ args = 0, pretend = 0, frame = 0
  79              		@ frame_needed = 0, uses_anonymous_args = 0
  80              		@ link register save eliminated.
  81              	.LVL2:
  82              		.loc 1 227 0
  83 0000 0023     		movs	r3, #0
  84 0002 80F82030 		strb	r3, [r0, #32]
  85              	.LVL3:
  86              		.loc 1 231 0
  87 0006 8268     		ldr	r2, [r0, #8]
  88              		.loc 1 228 0
  89 0008 054B     		ldr	r3, .L7
  90              	.LVL4:
  91              	.L5:
  92              		.loc 1 230 0 discriminator 1
  93 000a 1B68     		ldr	r3, [r3]
  94              	.LVL5:
  95              		.loc 1 231 0 discriminator 1
  96 000c 9968     		ldr	r1, [r3, #8]
  97 000e 9142     		cmp	r1, r2
  98 0010 FBD2     		bcs	.L5
  99              		.loc 1 234 0
 100 0012 5A68     		ldr	r2, [r3, #4]
 101              		.loc 1 233 0
 102 0014 0360     		str	r3, [r0]
 103              		.loc 1 234 0
 104 0016 4260     		str	r2, [r0, #4]
 105              		.loc 1 235 0
 106 0018 1060     		str	r0, [r2]
 107              		.loc 1 236 0
 108 001a 5860     		str	r0, [r3, #4]
 109              		.loc 1 239 0
 110 001c 7047     		bx	lr
 111              	.L8:
 112 001e 00BF     		.align	2
 113              	.L7:
 114 0020 00000000 		.word	.LANCHOR0
ARM GAS  /tmp/ccaFA0zm.s 			page 3


 115              		.cfi_endproc
 116              	.LFE291:
 117              		.size	chSchReadyI, .-chSchReadyI
 118              		.section	.text.wakeup,"ax",%progbits
 119              		.align	1
 120              		.syntax unified
 121              		.thumb
 122              		.thumb_func
 123              		.fpu fpv4-sp-d16
 124              		.type	wakeup, %function
 125              	wakeup:
 126              	.LFB294:
 127              		.loc 1 319 0
 128              		.cfi_startproc
 129              		@ args = 0, pretend = 0, frame = 0
 130              		@ frame_needed = 0, uses_anonymous_args = 0
 131              	.LVL6:
 132 0000 08B5     		push	{r3, lr}
 133              		.cfi_def_cfa_offset 8
 134              		.cfi_offset 3, -8
 135              		.cfi_offset 14, -4
 136              	.LBB116:
 137              	.LBB117:
 138              	.LBB118:
 139              	.LBB119:
 140              	.LBB120:
 141              		.file 3 "../../modules/ChibiOS/os/common/ext/ARM/CMSIS/Core/Include/cmsis_gcc.h"
 142              		.loc 3 493 0
 143 0002 2023     		movs	r3, #32
 144              		.syntax unified
 145              	@ 493 "../../modules/ChibiOS/os/common/ext/ARM/CMSIS/Core/Include/cmsis_gcc.h" 1
 146 0004 83F31188 		MSR basepri, r3
 147              	@ 0 "" 2
 148              	.LVL7:
 149              		.thumb
 150              		.syntax unified
 151              	.LBE120:
 152              	.LBE119:
 153              	.LBE118:
 154              	.LBE117:
 155              	.LBE116:
 156              		.loc 1 323 0
 157 0008 90F82020 		ldrb	r2, [r0, #32]	@ zero_extendqisi2
 158 000c 0023     		movs	r3, #0
 159 000e 072A     		cmp	r2, #7
 160 0010 07D8     		bhi	.L10
 161 0012 DFE802F0 		tbb	[pc, r2]
 162              	.L12:
 163 0016 0C       		.byte	(.L17-.L12)/2
 164 0017 06       		.byte	(.L10-.L12)/2
 165 0018 06       		.byte	(.L10-.L12)/2
 166 0019 04       		.byte	(.L13-.L12)/2
 167 001a 13       		.byte	(.L14-.L12)/2
 168 001b 0F       		.byte	(.L15-.L12)/2
 169 001c 06       		.byte	(.L10-.L12)/2
 170 001d 13       		.byte	(.L14-.L12)/2
 171              		.p2align 1
ARM GAS  /tmp/ccaFA0zm.s 			page 4


 172              	.L13:
 173              		.loc 1 330 0
 174 001e 426A     		ldr	r2, [r0, #36]
 175 0020 1360     		str	r3, [r2]
 176              	.L10:
 177              		.loc 1 349 0
 178 0022 4FF0FF33 		mov	r3, #-1
 179 0026 4362     		str	r3, [r0, #36]
 180              		.loc 1 350 0
 181 0028 FFF7FEFF 		bl	chSchReadyI
 182              	.LVL8:
 183              	.LBB121:
 184              	.LBB122:
 185              	.LBB123:
 186              	.LBB124:
 187              	.LBB125:
 188              		.loc 3 493 0
 189 002c 0023     		movs	r3, #0
 190              	.LVL9:
 191              	.L17:
 192              		.syntax unified
 193              	@ 493 "../../modules/ChibiOS/os/common/ext/ARM/CMSIS/Core/Include/cmsis_gcc.h" 1
 194 002e 83F31188 		MSR basepri, r3
 195              	@ 0 "" 2
 196              		.thumb
 197              		.syntax unified
 198 0032 08BD     		pop	{r3, pc}
 199              	.LVL10:
 200              	.L15:
 201              	.LBE125:
 202              	.LBE124:
 203              	.LBE123:
 204              	.LBE122:
 205              	.LBE121:
 206              		.loc 1 334 0
 207 0034 426A     		ldr	r2, [r0, #36]
 208              	.LVL11:
 209              	.LBB126:
 210              	.LBB127:
 211              		.file 4 "../../modules/ChibiOS/os/rt/include/chsem.h"
 212              		.loc 4 138 0
 213 0036 9368     		ldr	r3, [r2, #8]
 214 0038 0133     		adds	r3, r3, #1
 215 003a 9360     		str	r3, [r2, #8]
 216              	.LVL12:
 217              	.L14:
 218              	.LBE127:
 219              	.LBE126:
 220              	.LBB128:
 221              	.LBB129:
 222              		.loc 2 626 0
 223 003c 90E80C00 		ldm	r0, {r2, r3}
 224 0040 1A60     		str	r2, [r3]
 225              		.loc 2 627 0
 226 0042 0268     		ldr	r2, [r0]
 227 0044 5360     		str	r3, [r2, #4]
 228 0046 ECE7     		b	.L10
ARM GAS  /tmp/ccaFA0zm.s 			page 5


 229              	.LBE129:
 230              	.LBE128:
 231              		.cfi_endproc
 232              	.LFE294:
 233              		.size	wakeup, .-wakeup
 234              		.section	.text.chSchReadyAheadI,"ax",%progbits
 235              		.align	1
 236              		.global	chSchReadyAheadI
 237              		.syntax unified
 238              		.thumb
 239              		.thumb_func
 240              		.fpu fpv4-sp-d16
 241              		.type	chSchReadyAheadI, %function
 242              	chSchReadyAheadI:
 243              	.LFB292:
 244              		.loc 1 257 0
 245              		.cfi_startproc
 246              		@ args = 0, pretend = 0, frame = 0
 247              		@ frame_needed = 0, uses_anonymous_args = 0
 248              		@ link register save eliminated.
 249              	.LVL13:
 250              		.loc 1 266 0
 251 0000 0023     		movs	r3, #0
 252 0002 80F82030 		strb	r3, [r0, #32]
 253              	.LVL14:
 254              		.loc 1 270 0
 255 0006 8268     		ldr	r2, [r0, #8]
 256              		.loc 1 267 0
 257 0008 054B     		ldr	r3, .L21
 258              	.LVL15:
 259              	.L19:
 260              		.loc 1 269 0 discriminator 1
 261 000a 1B68     		ldr	r3, [r3]
 262              	.LVL16:
 263              		.loc 1 270 0 discriminator 1
 264 000c 9968     		ldr	r1, [r3, #8]
 265 000e 9142     		cmp	r1, r2
 266 0010 FBD8     		bhi	.L19
 267              		.loc 1 273 0
 268 0012 5A68     		ldr	r2, [r3, #4]
 269              		.loc 1 272 0
 270 0014 0360     		str	r3, [r0]
 271              		.loc 1 273 0
 272 0016 4260     		str	r2, [r0, #4]
 273              		.loc 1 274 0
 274 0018 1060     		str	r0, [r2]
 275              		.loc 1 275 0
 276 001a 5860     		str	r0, [r3, #4]
 277              		.loc 1 278 0
 278 001c 7047     		bx	lr
 279              	.L22:
 280 001e 00BF     		.align	2
 281              	.L21:
 282 0020 00000000 		.word	.LANCHOR0
 283              		.cfi_endproc
 284              	.LFE292:
 285              		.size	chSchReadyAheadI, .-chSchReadyAheadI
ARM GAS  /tmp/ccaFA0zm.s 			page 6


 286              		.section	.text.chSchGoSleepS,"ax",%progbits
 287              		.align	1
 288              		.global	chSchGoSleepS
 289              		.syntax unified
 290              		.thumb
 291              		.thumb_func
 292              		.fpu fpv4-sp-d16
 293              		.type	chSchGoSleepS, %function
 294              	chSchGoSleepS:
 295              	.LFB293:
 296              		.loc 1 289 0
 297              		.cfi_startproc
 298              		@ args = 0, pretend = 0, frame = 0
 299              		@ frame_needed = 0, uses_anonymous_args = 0
 300              	.LVL17:
 301 0000 38B5     		push	{r3, r4, r5, lr}
 302              		.cfi_def_cfa_offset 16
 303              		.cfi_offset 3, -16
 304              		.cfi_offset 4, -12
 305              		.cfi_offset 5, -8
 306              		.cfi_offset 14, -4
 307              		.loc 1 290 0
 308 0002 0D4C     		ldr	r4, .L25
 309 0004 A569     		ldr	r5, [r4, #24]
 310              	.LVL18:
 311              	.LBB130:
 312              	.LBB131:
 313              		.loc 2 607 0
 314 0006 2268     		ldr	r2, [r4]
 315              	.LBE131:
 316              	.LBE130:
 317              		.loc 1 295 0
 318 0008 85F82000 		strb	r0, [r5, #32]
 319              	.LVL19:
 320              	.LBB133:
 321              	.LBB132:
 322              		.loc 2 609 0
 323 000c 1168     		ldr	r1, [r2]
 324 000e 2160     		str	r1, [r4]
 325              		.loc 2 610 0
 326 0010 4C60     		str	r4, [r1, #4]
 327              	.LVL20:
 328              	.LBE132:
 329              	.LBE133:
 330              		.loc 1 305 0
 331 0012 0121     		movs	r1, #1
 332              		.loc 1 304 0
 333 0014 A261     		str	r2, [r4, #24]
 334              		.loc 1 305 0
 335 0016 82F82010 		strb	r1, [r2, #32]
 336              	.LBB134:
 337              	.LBB135:
 338              	.LBB136:
 339              		.loc 3 251 0
 340              		.syntax unified
 341              	@ 251 "../../modules/ChibiOS/os/common/ext/ARM/CMSIS/Core/Include/cmsis_gcc.h" 1
 342 001a EFF30982 		MRS r2, psp
ARM GAS  /tmp/ccaFA0zm.s 			page 7


 343              	@ 0 "" 2
 344              	.LVL21:
 345              		.thumb
 346              		.syntax unified
 347              	.LBE136:
 348              	.LBE135:
 349              		.loc 1 313 0
 350 001e E969     		ldr	r1, [r5, #28]
 351 0020 643A     		subs	r2, r2, #100
 352              	.LVL22:
 353 0022 9142     		cmp	r1, r2
 354 0024 02D9     		bls	.L24
 355              	.LBB137:
 356              		.loc 1 313 0 is_stmt 0 discriminator 1
 357 0026 2846     		mov	r0, r5
 358              	.LVL23:
 359 0028 FFF7FEFF 		bl	stack_overflow
 360              	.LVL24:
 361              	.L24:
 362              	.LBE137:
 363              		.loc 1 313 0 discriminator 3
 364 002c 2946     		mov	r1, r5
 365 002e A069     		ldr	r0, [r4, #24]
 366              	.LBE134:
 367              		.loc 1 314 0 is_stmt 1 discriminator 3
 368 0030 BDE83840 		pop	{r3, r4, r5, lr}
 369              		.cfi_restore 14
 370              		.cfi_restore 5
 371              		.cfi_restore 4
 372              		.cfi_restore 3
 373              		.cfi_def_cfa_offset 0
 374              	.LVL25:
 375              	.LBB138:
 376              		.loc 1 313 0 discriminator 3
 377 0034 FFF7FEBF 		b	_port_switch
 378              	.LVL26:
 379              	.L26:
 380              		.align	2
 381              	.L25:
 382 0038 00000000 		.word	.LANCHOR0
 383              	.LBE138:
 384              		.cfi_endproc
 385              	.LFE293:
 386              		.size	chSchGoSleepS, .-chSchGoSleepS
 387              		.section	.text.chSchGoSleepTimeoutS,"ax",%progbits
 388              		.align	1
 389              		.global	chSchGoSleepTimeoutS
 390              		.syntax unified
 391              		.thumb
 392              		.thumb_func
 393              		.fpu fpv4-sp-d16
 394              		.type	chSchGoSleepTimeoutS, %function
 395              	chSchGoSleepTimeoutS:
 396              	.LFB295:
 397              		.loc 1 375 0
 398              		.cfi_startproc
 399              		@ args = 0, pretend = 0, frame = 24
ARM GAS  /tmp/ccaFA0zm.s 			page 8


 400              		@ frame_needed = 0, uses_anonymous_args = 0
 401              	.LVL27:
 402 0000 30B5     		push	{r4, r5, lr}
 403              		.cfi_def_cfa_offset 12
 404              		.cfi_offset 4, -12
 405              		.cfi_offset 5, -8
 406              		.cfi_offset 14, -4
 407              		.loc 1 379 0
 408 0002 4B1C     		adds	r3, r1, #1
 409              		.loc 1 375 0
 410 0004 87B0     		sub	sp, sp, #28
 411              		.cfi_def_cfa_offset 40
 412              		.loc 1 375 0
 413 0006 0546     		mov	r5, r0
 414 0008 0A4C     		ldr	r4, .L34
 415              		.loc 1 379 0
 416 000a 10D0     		beq	.L28
 417              	.LBB139:
 418              		.loc 1 382 0
 419 000c A369     		ldr	r3, [r4, #24]
 420 000e 0A4A     		ldr	r2, .L34+4
 421 0010 01A8     		add	r0, sp, #4
 422              	.LVL28:
 423 0012 FFF7FEFF 		bl	chVTDoSetI
 424              	.LVL29:
 425              		.loc 1 383 0
 426 0016 2846     		mov	r0, r5
 427 0018 FFF7FEFF 		bl	chSchGoSleepS
 428              	.LVL30:
 429              		.loc 1 384 0
 430 001c 049B     		ldr	r3, [sp, #16]
 431 001e 13B1     		cbz	r3, .L30
 432              		.loc 1 385 0
 433 0020 01A8     		add	r0, sp, #4
 434              	.LVL31:
 435 0022 FFF7FEFF 		bl	chVTDoResetI
 436              	.LVL32:
 437              	.L30:
 438              	.LBE139:
 439              		.loc 1 392 0
 440 0026 A369     		ldr	r3, [r4, #24]
 441              		.loc 1 393 0
 442 0028 586A     		ldr	r0, [r3, #36]
 443 002a 07B0     		add	sp, sp, #28
 444              		.cfi_remember_state
 445              		.cfi_def_cfa_offset 12
 446              		@ sp needed
 447 002c 30BD     		pop	{r4, r5, pc}
 448              	.LVL33:
 449              	.L28:
 450              		.cfi_restore_state
 451              		.loc 1 389 0
 452 002e FFF7FEFF 		bl	chSchGoSleepS
 453              	.LVL34:
 454 0032 F8E7     		b	.L30
 455              	.L35:
 456              		.align	2
ARM GAS  /tmp/ccaFA0zm.s 			page 9


 457              	.L34:
 458 0034 00000000 		.word	.LANCHOR0
 459 0038 00000000 		.word	wakeup
 460              		.cfi_endproc
 461              	.LFE295:
 462              		.size	chSchGoSleepTimeoutS, .-chSchGoSleepTimeoutS
 463              		.section	.text.chSchWakeupS,"ax",%progbits
 464              		.align	1
 465              		.global	chSchWakeupS
 466              		.syntax unified
 467              		.thumb
 468              		.thumb_func
 469              		.fpu fpv4-sp-d16
 470              		.type	chSchWakeupS, %function
 471              	chSchWakeupS:
 472              	.LFB296:
 473              		.loc 1 412 0
 474              		.cfi_startproc
 475              		@ args = 0, pretend = 0, frame = 0
 476              		@ frame_needed = 0, uses_anonymous_args = 0
 477              	.LVL35:
 478 0000 70B5     		push	{r4, r5, r6, lr}
 479              		.cfi_def_cfa_offset 16
 480              		.cfi_offset 4, -16
 481              		.cfi_offset 5, -12
 482              		.cfi_offset 6, -8
 483              		.cfi_offset 14, -4
 484              		.loc 1 413 0
 485 0002 114E     		ldr	r6, .L39
 486              		.loc 1 423 0
 487 0004 4162     		str	r1, [r0, #36]
 488              		.loc 1 413 0
 489 0006 B369     		ldr	r3, [r6, #24]
 490              	.LVL36:
 491              		.loc 1 429 0
 492 0008 8168     		ldr	r1, [r0, #8]
 493              	.LVL37:
 494 000a 9A68     		ldr	r2, [r3, #8]
 495 000c 9142     		cmp	r1, r2
 496              		.loc 1 412 0
 497 000e 0446     		mov	r4, r0
 498              		.loc 1 429 0
 499 0010 03D8     		bhi	.L37
 500              		.loc 1 447 0
 501 0012 BDE87040 		pop	{r4, r5, r6, lr}
 502              		.cfi_remember_state
 503              		.cfi_restore 14
 504              		.cfi_restore 6
 505              		.cfi_restore 5
 506              		.cfi_restore 4
 507              		.cfi_def_cfa_offset 0
 508              		.loc 1 430 0
 509 0016 FFF7FEBF 		b	chSchReadyI
 510              	.LVL38:
 511              	.L37:
 512              		.cfi_restore_state
 513              		.loc 1 433 0
ARM GAS  /tmp/ccaFA0zm.s 			page 10


 514 001a 1846     		mov	r0, r3
 515              	.LVL39:
 516 001c FFF7FEFF 		bl	chSchReadyI
 517              	.LVL40:
 518              		.loc 1 442 0
 519 0020 0123     		movs	r3, #1
 520              		.loc 1 433 0
 521 0022 0546     		mov	r5, r0
 522              	.LVL41:
 523              		.loc 1 441 0
 524 0024 B461     		str	r4, [r6, #24]
 525              		.loc 1 442 0
 526 0026 84F82030 		strb	r3, [r4, #32]
 527              	.LBB140:
 528              	.LBB141:
 529              	.LBB142:
 530              		.loc 3 251 0
 531              		.syntax unified
 532              	@ 251 "../../modules/ChibiOS/os/common/ext/ARM/CMSIS/Core/Include/cmsis_gcc.h" 1
 533 002a EFF30983 		MRS r3, psp
 534              	@ 0 "" 2
 535              	.LVL42:
 536              		.thumb
 537              		.syntax unified
 538              	.LBE142:
 539              	.LBE141:
 540              		.loc 1 445 0
 541 002e C269     		ldr	r2, [r0, #28]
 542 0030 643B     		subs	r3, r3, #100
 543              	.LVL43:
 544 0032 9A42     		cmp	r2, r3
 545 0034 01D9     		bls	.L38
 546              	.LBB143:
 547              		.loc 1 445 0 is_stmt 0 discriminator 1
 548 0036 FFF7FEFF 		bl	stack_overflow
 549              	.LVL44:
 550              	.L38:
 551              	.LBE143:
 552              		.loc 1 445 0 discriminator 3
 553 003a 2946     		mov	r1, r5
 554 003c 2046     		mov	r0, r4
 555              	.LBE140:
 556              		.loc 1 447 0 is_stmt 1 discriminator 3
 557 003e BDE87040 		pop	{r4, r5, r6, lr}
 558              		.cfi_restore 14
 559              		.cfi_restore 6
 560              		.cfi_restore 5
 561              		.cfi_restore 4
 562              		.cfi_def_cfa_offset 0
 563              	.LVL45:
 564              	.LBB144:
 565              		.loc 1 445 0 discriminator 3
 566 0042 FFF7FEBF 		b	_port_switch
 567              	.LVL46:
 568              	.L40:
 569 0046 00BF     		.align	2
 570              	.L39:
ARM GAS  /tmp/ccaFA0zm.s 			page 11


 571 0048 00000000 		.word	.LANCHOR0
 572              	.LBE144:
 573              		.cfi_endproc
 574              	.LFE296:
 575              		.size	chSchWakeupS, .-chSchWakeupS
 576              		.section	.text.chSchIsPreemptionRequired,"ax",%progbits
 577              		.align	1
 578              		.global	chSchIsPreemptionRequired
 579              		.syntax unified
 580              		.thumb
 581              		.thumb_func
 582              		.fpu fpv4-sp-d16
 583              		.type	chSchIsPreemptionRequired, %function
 584              	chSchIsPreemptionRequired:
 585              	.LFB298:
 586              		.loc 1 479 0
 587              		.cfi_startproc
 588              		@ args = 0, pretend = 0, frame = 0
 589              		@ frame_needed = 0, uses_anonymous_args = 0
 590              		@ link register save eliminated.
 591              	.LVL47:
 592              		.loc 1 480 0
 593 0000 044B     		ldr	r3, .L42
 594 0002 1A68     		ldr	r2, [r3]
 595              		.loc 1 481 0
 596 0004 9B69     		ldr	r3, [r3, #24]
 597              		.loc 1 492 0
 598 0006 9068     		ldr	r0, [r2, #8]
 599 0008 9B68     		ldr	r3, [r3, #8]
 600              		.loc 1 494 0
 601 000a 9842     		cmp	r0, r3
 602 000c 94BF     		ite	ls
 603 000e 0020     		movls	r0, #0
 604 0010 0120     		movhi	r0, #1
 605 0012 7047     		bx	lr
 606              	.L43:
 607              		.align	2
 608              	.L42:
 609 0014 00000000 		.word	.LANCHOR0
 610              		.cfi_endproc
 611              	.LFE298:
 612              		.size	chSchIsPreemptionRequired, .-chSchIsPreemptionRequired
 613              		.thumb_set chSchIsRescRequiredI,chSchIsPreemptionRequired
 614              		.section	.text.chSchDoRescheduleBehind,"ax",%progbits
 615              		.align	1
 616              		.global	chSchDoRescheduleBehind
 617              		.syntax unified
 618              		.thumb
 619              		.thumb_func
 620              		.fpu fpv4-sp-d16
 621              		.type	chSchDoRescheduleBehind, %function
 622              	chSchDoRescheduleBehind:
 623              	.LFB299:
 624              		.loc 1 507 0
 625              		.cfi_startproc
 626              		@ args = 0, pretend = 0, frame = 0
 627              		@ frame_needed = 0, uses_anonymous_args = 0
ARM GAS  /tmp/ccaFA0zm.s 			page 12


 628 0000 38B5     		push	{r3, r4, r5, lr}
 629              		.cfi_def_cfa_offset 16
 630              		.cfi_offset 3, -16
 631              		.cfi_offset 4, -12
 632              		.cfi_offset 5, -8
 633              		.cfi_offset 14, -4
 634              		.loc 1 508 0
 635 0002 0D4C     		ldr	r4, .L46
 636              	.LBB145:
 637              	.LBB146:
 638              		.loc 2 607 0
 639 0004 2368     		ldr	r3, [r4]
 640              	.LBE146:
 641              	.LBE145:
 642              		.loc 1 508 0
 643 0006 A069     		ldr	r0, [r4, #24]
 644              	.LVL48:
 645              	.LBB148:
 646              	.LBB147:
 647              		.loc 2 609 0
 648 0008 1A68     		ldr	r2, [r3]
 649 000a 2260     		str	r2, [r4]
 650              		.loc 2 610 0
 651 000c 5460     		str	r4, [r2, #4]
 652              	.LVL49:
 653              	.LBE147:
 654              	.LBE148:
 655              		.loc 1 512 0
 656 000e 0122     		movs	r2, #1
 657 0010 83F82020 		strb	r2, [r3, #32]
 658              		.loc 1 511 0
 659 0014 A361     		str	r3, [r4, #24]
 660              		.loc 1 525 0
 661 0016 FFF7FEFF 		bl	chSchReadyI
 662              	.LVL50:
 663 001a 0546     		mov	r5, r0
 664              	.LVL51:
 665              	.LBB149:
 666              	.LBB150:
 667              	.LBB151:
 668              		.loc 3 251 0
 669              		.syntax unified
 670              	@ 251 "../../modules/ChibiOS/os/common/ext/ARM/CMSIS/Core/Include/cmsis_gcc.h" 1
 671 001c EFF30983 		MRS r3, psp
 672              	@ 0 "" 2
 673              	.LVL52:
 674              		.thumb
 675              		.syntax unified
 676              	.LBE151:
 677              	.LBE150:
 678              		.loc 1 528 0
 679 0020 C269     		ldr	r2, [r0, #28]
 680 0022 643B     		subs	r3, r3, #100
 681              	.LVL53:
 682 0024 9A42     		cmp	r2, r3
 683 0026 01D9     		bls	.L45
 684              	.LBB152:
ARM GAS  /tmp/ccaFA0zm.s 			page 13


 685              		.loc 1 528 0 is_stmt 0 discriminator 1
 686 0028 FFF7FEFF 		bl	stack_overflow
 687              	.LVL54:
 688              	.L45:
 689              	.LBE152:
 690              		.loc 1 528 0 discriminator 3
 691 002c 2946     		mov	r1, r5
 692 002e A069     		ldr	r0, [r4, #24]
 693              	.LBE149:
 694              		.loc 1 529 0 is_stmt 1 discriminator 3
 695 0030 BDE83840 		pop	{r3, r4, r5, lr}
 696              		.cfi_restore 14
 697              		.cfi_restore 5
 698              		.cfi_restore 4
 699              		.cfi_restore 3
 700              		.cfi_def_cfa_offset 0
 701              	.LVL55:
 702              	.LBB153:
 703              		.loc 1 528 0 discriminator 3
 704 0034 FFF7FEBF 		b	_port_switch
 705              	.LVL56:
 706              	.L47:
 707              		.align	2
 708              	.L46:
 709 0038 00000000 		.word	.LANCHOR0
 710              	.LBE153:
 711              		.cfi_endproc
 712              	.LFE299:
 713              		.size	chSchDoRescheduleBehind, .-chSchDoRescheduleBehind
 714              		.section	.text.chSchDoReschedule,"ax",%progbits
 715              		.align	1
 716              		.global	chSchDoReschedule
 717              		.syntax unified
 718              		.thumb
 719              		.thumb_func
 720              		.fpu fpv4-sp-d16
 721              		.type	chSchDoReschedule, %function
 722              	chSchDoReschedule:
 723              	.LFB301:
 724              		.loc 1 570 0
 725              		.cfi_startproc
 726              		@ args = 0, pretend = 0, frame = 0
 727              		@ frame_needed = 0, uses_anonymous_args = 0
 728 0000 38B5     		push	{r3, r4, r5, lr}
 729              		.cfi_def_cfa_offset 16
 730              		.cfi_offset 3, -16
 731              		.cfi_offset 4, -12
 732              		.cfi_offset 5, -8
 733              		.cfi_offset 14, -4
 734              		.loc 1 571 0
 735 0002 0D4C     		ldr	r4, .L50
 736              	.LBB154:
 737              	.LBB155:
 738              		.loc 2 607 0
 739 0004 2368     		ldr	r3, [r4]
 740              	.LBE155:
 741              	.LBE154:
ARM GAS  /tmp/ccaFA0zm.s 			page 14


 742              		.loc 1 571 0
 743 0006 A069     		ldr	r0, [r4, #24]
 744              	.LVL57:
 745              	.LBB157:
 746              	.LBB156:
 747              		.loc 2 609 0
 748 0008 1A68     		ldr	r2, [r3]
 749 000a 2260     		str	r2, [r4]
 750              		.loc 2 610 0
 751 000c 5460     		str	r4, [r2, #4]
 752              	.LVL58:
 753              	.LBE156:
 754              	.LBE157:
 755              		.loc 1 575 0
 756 000e 0122     		movs	r2, #1
 757 0010 83F82020 		strb	r2, [r3, #32]
 758              		.loc 1 574 0
 759 0014 A361     		str	r3, [r4, #24]
 760              		.loc 1 602 0
 761 0016 FFF7FEFF 		bl	chSchReadyAheadI
 762              	.LVL59:
 763 001a 0546     		mov	r5, r0
 764              	.LVL60:
 765              	.LBB158:
 766              	.LBB159:
 767              	.LBB160:
 768              		.loc 3 251 0
 769              		.syntax unified
 770              	@ 251 "../../modules/ChibiOS/os/common/ext/ARM/CMSIS/Core/Include/cmsis_gcc.h" 1
 771 001c EFF30983 		MRS r3, psp
 772              	@ 0 "" 2
 773              	.LVL61:
 774              		.thumb
 775              		.syntax unified
 776              	.LBE160:
 777              	.LBE159:
 778              		.loc 1 606 0
 779 0020 C269     		ldr	r2, [r0, #28]
 780 0022 643B     		subs	r3, r3, #100
 781              	.LVL62:
 782 0024 9A42     		cmp	r2, r3
 783 0026 01D9     		bls	.L49
 784              	.LBB161:
 785              		.loc 1 606 0 is_stmt 0 discriminator 1
 786 0028 FFF7FEFF 		bl	stack_overflow
 787              	.LVL63:
 788              	.L49:
 789              	.LBE161:
 790              		.loc 1 606 0 discriminator 3
 791 002c 2946     		mov	r1, r5
 792 002e A069     		ldr	r0, [r4, #24]
 793              	.LBE158:
 794              		.loc 1 607 0 is_stmt 1 discriminator 3
 795 0030 BDE83840 		pop	{r3, r4, r5, lr}
 796              		.cfi_restore 14
 797              		.cfi_restore 5
 798              		.cfi_restore 4
ARM GAS  /tmp/ccaFA0zm.s 			page 15


 799              		.cfi_restore 3
 800              		.cfi_def_cfa_offset 0
 801              	.LVL64:
 802              	.LBB162:
 803              		.loc 1 606 0 discriminator 3
 804 0034 FFF7FEBF 		b	_port_switch
 805              	.LVL65:
 806              	.L51:
 807              		.align	2
 808              	.L50:
 809 0038 00000000 		.word	.LANCHOR0
 810              	.LBE162:
 811              		.cfi_endproc
 812              	.LFE301:
 813              		.size	chSchDoReschedule, .-chSchDoReschedule
 814              		.section	.text.chSchRescheduleS,"ax",%progbits
 815              		.align	1
 816              		.global	chSchRescheduleS
 817              		.syntax unified
 818              		.thumb
 819              		.thumb_func
 820              		.fpu fpv4-sp-d16
 821              		.type	chSchRescheduleS, %function
 822              	chSchRescheduleS:
 823              	.LFB297:
 824              		.loc 1 456 0
 825              		.cfi_startproc
 826              		@ args = 0, pretend = 0, frame = 0
 827              		@ frame_needed = 0, uses_anonymous_args = 0
 828 0000 08B5     		push	{r3, lr}
 829              		.cfi_def_cfa_offset 8
 830              		.cfi_offset 3, -8
 831              		.cfi_offset 14, -4
 832              		.loc 1 460 0
 833 0002 FFF7FEFF 		bl	chSchIsRescRequiredI
 834              	.LVL66:
 835 0006 18B1     		cbz	r0, .L52
 836              		.loc 1 463 0
 837 0008 BDE80840 		pop	{r3, lr}
 838              		.cfi_remember_state
 839              		.cfi_restore 14
 840              		.cfi_restore 3
 841              		.cfi_def_cfa_offset 0
 842              		.loc 1 461 0
 843 000c FFF7FEBF 		b	chSchDoReschedule
 844              	.LVL67:
 845              	.L52:
 846              		.cfi_restore_state
 847 0010 08BD     		pop	{r3, pc}
 848              		.cfi_endproc
 849              	.LFE297:
 850              		.size	chSchRescheduleS, .-chSchRescheduleS
 851              		.section	.text.chSchDoRescheduleAhead,"ax",%progbits
 852              		.align	1
 853              		.global	chSchDoRescheduleAhead
 854              		.syntax unified
 855              		.thumb
ARM GAS  /tmp/ccaFA0zm.s 			page 16


 856              		.thumb_func
 857              		.fpu fpv4-sp-d16
 858              		.type	chSchDoRescheduleAhead, %function
 859              	chSchDoRescheduleAhead:
 860              	.LFB305:
 861              		.cfi_startproc
 862              		@ args = 0, pretend = 0, frame = 0
 863              		@ frame_needed = 0, uses_anonymous_args = 0
 864              		@ link register save eliminated.
 865 0000 FFF7FEBF 		b	chSchDoReschedule
 866              		.cfi_endproc
 867              	.LFE305:
 868              		.size	chSchDoRescheduleAhead, .-chSchDoRescheduleAhead
 869              		.global	ch
 870              		.section	.bss.ch,"aw",%nobits
 871              		.align	2
 872              		.set	.LANCHOR0,. + 0
 873              		.type	ch, %object
 874              		.size	ch, 120
 875              	ch:
 876 0000 00000000 		.space	120
 876      00000000 
 876      00000000 
 876      00000000 
 876      00000000 
 877              		.text
 878              	.Letext0:
 879              		.file 5 "/opt/gcc-arm-none-eabi-6-2017-q2-update/lib/gcc/arm-none-eabi/6.3.1/include/stddef.h"
 880              		.file 6 "/opt/gcc-arm-none-eabi-6-2017-q2-update/arm-none-eabi/include/machine/_default_types.h"
 881              		.file 7 "/opt/gcc-arm-none-eabi-6-2017-q2-update/arm-none-eabi/include/sys/_stdint.h"
 882              		.file 8 "../../modules/ChibiOS/os/common/ports/ARMCMx/compilers/GCC/chtypes.h"
 883              		.file 9 "../../modules/ChibiOS/os/rt/include/chsystypes.h"
 884              		.file 10 "../../modules/ChibiOS/os/rt/include/chtime.h"
 885              		.file 11 "../../modules/ChibiOS/os/common/ext/ARM/CMSIS/Core/Include/core_cm4.h"
 886              		.file 12 "../../modules/ChibiOS/os/common/ext/ST/STM32F4xx/system_stm32f4xx.h"
 887              		.file 13 "../../modules/ChibiOS/os/common/ports/ARMCMx/chcore.h"
 888              		.file 14 "../../modules/ChibiOS/os/common/ports/ARMCMx/chcore_v7m.h"
 889              		.file 15 "../../modules/ChibiOS/os/rt/include/chtm.h"
 890              		.file 16 "../../modules/ChibiOS/os/rt/include/chmtx.h"
 891              		.file 17 "../../modules/ChibiOS/os/rt/include/chsys.h"
 892              		.file 18 "../../modules/ChibiOS/os/rt/include/chregistry.h"
 893              		.file 19 "../../modules/ChibiOS/os/oslib/include/chmemcore.h"
 894              		.file 20 "../../modules/ChibiOS/os/oslib/include/chmempools.h"
 895              		.file 21 "../../modules/ChibiOS/os/oslib/include/chfactory.h"
 896              		.file 22 "../../modules/ChibiOS/os/rt/include/chvt.h"