ARM GAS  /tmp/ccaFA0zm.s 			page 1


   1              		.cpu cortex-m4
   2              		.eabi_attribute 27, 1
   3              		.eabi_attribute 28, 1
   4              		.eabi_attribute 20, 1
   5              		.eabi_attribute 21, 1
   6              		.eabi_attribute 23, 3
   7              		.eabi_attribute 24, 1
   8              		.eabi_attribute 25, 1
   9              		.eabi_attribute 26, 1
  10              		.eabi_attribute 30, 4
  11              		.eabi_attribute 34, 1
  12              		.eabi_attribute 18, 4
  13              		.file	"chschd.c"
  14              		.text
  15              	.Ltext0:
  16              		.cfi_sections	.debug_frame
  17              		.section	.text._scheduler_init,"ax",%progbits
  18              		.align	1
  19              		.global	_scheduler_init
  20              		.syntax unified
  21              		.thumb
  22              		.thumb_func
  23              		.fpu fpv4-sp-d16
  24              		.type	_scheduler_init, %function
  25              	_scheduler_init:
  26              	.LFB290:
  27              		.file 1 "../../modules/ChibiOS/os/rt/src/chschd.c"
  28              		.loc 1 65 0
  29              		.cfi_startproc
  30              		@ args = 0, pretend = 0, frame = 0
  31              		@ frame_needed = 0, uses_anonymous_args = 0
  32              		@ link register save eliminated.
  33              	.LVL0:
  34              	.LBB93:
  35              	.LBB94:
  36              		.file 2 "../../modules/ChibiOS/os/rt/include/chschd.h"
  37              		.loc 2 539 0
  38 0000 034B     		ldr	r3, .L2
  39              	.LBE94:
  40              	.LBE93:
  41              		.loc 1 68 0
  42 0002 0022     		movs	r2, #0
  43              	.LBB96:
  44              	.LBB95:
  45              		.loc 2 539 0
  46 0004 1B60     		str	r3, [r3]
  47              		.loc 2 540 0
  48 0006 5B60     		str	r3, [r3, #4]
  49              	.LVL1:
  50              	.LBE95:
  51              	.LBE96:
  52              		.loc 1 68 0
  53 0008 9A60     		str	r2, [r3, #8]
  54              		.loc 1 70 0
  55 000a 1B61     		str	r3, [r3, #16]
  56              		.loc 1 71 0
  57 000c 5B61     		str	r3, [r3, #20]
ARM GAS  /tmp/ccaFA0zm.s 			page 2


  58 000e 7047     		bx	lr
  59              	.L3:
  60              		.align	2
  61              	.L2:
  62 0010 00000000 		.word	.LANCHOR0
  63              		.cfi_endproc
  64              	.LFE290:
  65              		.size	_scheduler_init, .-_scheduler_init
  66              		.section	.text.chSchReadyI,"ax",%progbits
  67              		.align	1
  68              		.global	chSchReadyI
  69              		.syntax unified
  70              		.thumb
  71              		.thumb_func
  72              		.fpu fpv4-sp-d16
  73              		.type	chSchReadyI, %function
  74              	chSchReadyI:
  75              	.LFB291:
  76              		.loc 1 218 0
  77              		.cfi_startproc
  78              		@ args = 0, pretend = 0, frame = 0
  79              		@ frame_needed = 0, uses_anonymous_args = 0
  80              		@ link register save eliminated.
  81              	.LVL2:
  82              		.loc 1 227 0
  83 0000 0023     		movs	r3, #0
  84 0002 80F82030 		strb	r3, [r0, #32]
  85              	.LVL3:
  86              		.loc 1 231 0
  87 0006 8268     		ldr	r2, [r0, #8]
  88              		.loc 1 228 0
  89 0008 054B     		ldr	r3, .L7
  90              	.LVL4:
  91              	.L5:
  92              		.loc 1 230 0 discriminator 1
  93 000a 1B68     		ldr	r3, [r3]
  94              	.LVL5:
  95              		.loc 1 231 0 discriminator 1
  96 000c 9968     		ldr	r1, [r3, #8]
  97 000e 9142     		cmp	r1, r2
  98 0010 FBD2     		bcs	.L5
  99              		.loc 1 234 0
 100 0012 5A68     		ldr	r2, [r3, #4]
 101              		.loc 1 233 0
 102 0014 0360     		str	r3, [r0]
 103              		.loc 1 234 0
 104 0016 4260     		str	r2, [r0, #4]
 105              		.loc 1 235 0
 106 0018 1060     		str	r0, [r2]
 107              		.loc 1 236 0
 108 001a 5860     		str	r0, [r3, #4]
 109              		.loc 1 239 0
 110 001c 7047     		bx	lr
 111              	.L8:
 112 001e 00BF     		.align	2
 113              	.L7:
 114 0020 00000000 		.word	.LANCHOR0
ARM GAS  /tmp/ccaFA0zm.s 			page 3


 115              		.cfi_endproc
 116              	.LFE291:
 117              		.size	chSchReadyI, .-chSchReadyI
 118              		.section	.text.wakeup,"ax",%progbits
 119              		.align	1
 120              		.syntax unified
 121              		.thumb
 122              		.thumb_func
 123              		.fpu fpv4-sp-d16
 124              		.type	wakeup, %function
 125              	wakeup:
 126              	.LFB294:
 127              		.loc 1 319 0
 128              		.cfi_startproc
 129              		@ args = 0, pretend = 0, frame = 0
 130              		@ frame_needed = 0, uses_anonymous_args = 0
 131              	.LVL6:
 132 0000 08B5     		push	{r3, lr}
 133              		.cfi_def_cfa_offset 8
 134              		.cfi_offset 3, -8
 135              		.cfi_offset 14, -4
 136              	.LBB116:
 137              	.LBB117:
 138              	.LBB118:
 139              	.LBB119:
 140              	.LBB120:
 141              		.file 3 "../../modules/ChibiOS/os/common/ext/ARM/CMSIS/Core/Include/cmsis_gcc.h"
 142              		.loc 3 493 0
 143 0002 2023     		movs	r3, #32
 144              		.syntax unified
 145              	@ 493 "../../modules/ChibiOS/os/common/ext/ARM/CMSIS/Core/Include/cmsis_gcc.h" 1
 146 0004 83F31188 		MSR basepri, r3
 147              	@ 0 "" 2
 148              	.LVL7:
 149              		.thumb
 150              		.syntax unified
 151              	.LBE120:
 152              	.LBE119:
 153              	.LBE118:
 154              	.LBE117:
 155              	.LBE116:
 156              		.loc 1 323 0
 157 0008 90F82020 		ldrb	r2, [r0, #32]	@ zero_extendqisi2
 158 000c 0023     		movs	r3, #0
 159 000e 072A     		cmp	r2, #7
 160 0010 07D8     		bhi	.L10
 161 0012 DFE802F0 		tbb	[pc, r2]
 162              	.L12:
 163 0016 0C       		.byte	(.L17-.L12)/2
 164 0017 06       		.byte	(.L10-.L12)/2
 165 0018 06       		.byte	(.L10-.L12)/2
 166 0019 04       		.byte	(.L13-.L12)/2
 167 001a 13       		.byte	(.L14-.L12)/2
 168 001b 0F       		.byte	(.L15-.L12)/2
 169 001c 06       		.byte	(.L10-.L12)/2
 170 001d 13       		.byte	(.L14-.L12)/2
 171              		.p2align 1
ARM GAS  /tmp/ccaFA0zm.s 			page 4


 172              	.L13:
 173              		.loc 1 330 0
 174 001e 426A     		ldr	r2, [r0, #36]
 175 0020 1360     		str	r3, [r2]
 176              	.L10:
 177              		.loc 1 349 0
 178 0022 4FF0FF33 		mov	r3, #-1
 179 0026 4362     		str	r3, [r0, #36]
 180              		.loc 1 350 0
 181 0028 FFF7FEFF 		bl	chSchReadyI
 182              	.LVL8:
 183              	.LBB121:
 184              	.LBB122:
 185              	.LBB123:
 186              	.LBB124:
 187              	.LBB125:
 188              		.loc 3 493 0
 189 002c 0023     		movs	r3, #0
 190              	.LVL9:
 191              	.L17:
 192              		.syntax unified
 193              	@ 493 "../../modules/ChibiOS/os/common/ext/ARM/CMSIS/Core/Include/cmsis_gcc.h" 1
 194 002e 83F31188 		MSR basepri, r3
 195              	@ 0 "" 2
 196              		.thumb
 197              		.syntax unified
 198 0032 08BD     		pop	{r3, pc}
 199              	.LVL10:
 200              	.L15:
 201              	.LBE125:
 202              	.LBE124:
 203              	.LBE123:
 204              	.LBE122:
 205              	.LBE121:
 206              		.loc 1 334 0
 207 0034 426A     		ldr	r2, [r0, #36]
 208              	.LVL11:
 209              	.LBB126:
 210              	.LBB127:
 211              		.file 4 "../../modules/ChibiOS/os/rt/include/chsem.h"
 212              		.loc 4 138 0
 213 0036 9368     		ldr	r3, [r2, #8]
 214 0038 0133     		adds	r3, r3, #1
 215 003a 9360     		str	r3, [r2, #8]
 216              	.LVL12:
 217              	.L14:
 218              	.LBE127:
 219              	.LBE126:
 220              	.LBB128:
 221              	.LBB129:
 222              		.loc 2 626 0
 223 003c 90E80C00 		ldm	r0, {r2, r3}
 224 0040 1A60     		str	r2, [r3]
 225              		.loc 2 627 0
 226 0042 0268     		ldr	r2, [r0]
 227 0044 5360     		str	r3, [r2, #4]
 228 0046 ECE7     		b	.L10
ARM GAS  /tmp/ccaFA0zm.s 			page 5


 229              	.LBE129:
 230              	.LBE128:
 231              		.cfi_endproc
 232              	.LFE294:
 233              		.size	wakeup, .-wakeup
 234              		.section	.text.chSchReadyAheadI,"ax",%progbits
 235              		.align	1
 236              		.global	chSchReadyAheadI
 237              		.syntax unified
 238              		.thumb
 239              		.thumb_func
 240              		.fpu fpv4-sp-d16
 241              		.type	chSchReadyAheadI, %function
 242              	chSchReadyAheadI:
 243              	.LFB292:
 244              		.loc 1 257 0
 245              		.cfi_startproc
 246              		@ args = 0, pretend = 0, frame = 0
 247              		@ frame_needed = 0, uses_anonymous_args = 0
 248              		@ link register save eliminated.
 249              	.LVL13:
 250              		.loc 1 266 0
 251 0000 0023     		movs	r3, #0
 252 0002 80F82030 		strb	r3, [r0, #32]
 253              	.LVL14:
 254              		.loc 1 270 0
 255 0006 8268     		ldr	r2, [r0, #8]
 256              		.loc 1 267 0
 257 0008 054B     		ldr	r3, .L21
 258              	.LVL15:
 259              	.L19:
 260              		.loc 1 269 0 discriminator 1
 261 000a 1B68     		ldr	r3, [r3]
 262              	.LVL16:
 263              		.loc 1 270 0 discriminator 1
 264 000c 9968     		ldr	r1, [r3, #8]
 265 000e 9142     		cmp	r1, r2
 266 0010 FBD8     		bhi	.L19
 267              		.loc 1 273 0
 268 0012 5A68     		ldr	r2, [r3, #4]
 269              		.loc 1 272 0
 270 0014 0360     		str	r3, [r0]
 271              		.loc 1 273 0
 272 0016 4260     		str	r2, [r0, #4]
 273              		.loc 1 274 0
 274 0018 1060     		str	r0, [r2]
 275              		.loc 1 275 0
 276 001a 5860     		str	r0, [r3, #4]
 277              		.loc 1 278 0
 278 001c 7047     		bx	lr
 279              	.L22:
 280 001e 00BF     		.align	2
 281              	.L21:
 282 0020 00000000 		.word	.LANCHOR0
 283              		.cfi_endproc
 284              	.LFE292:
 285              		.size	chSchReadyAheadI, .-chSchReadyAheadI
ARM GAS  /tmp/ccaFA0zm.s 			page 6


 286              		.section	.text.chSchGoSleepS,"ax",%progbits
 287              		.align	1
 288              		.global	chSchGoSleepS
 289              		.syntax unified
 290              		.thumb
 291              		.thumb_func
 292              		.fpu fpv4-sp-d16
 293              		.type	chSchGoSleepS, %function
 294              	chSchGoSleepS:
 295              	.LFB293:
 296              		.loc 1 289 0
 297              		.cfi_startproc
 298              		@ args = 0, pretend = 0, frame = 0
 299              		@ frame_needed = 0, uses_anonymous_args = 0
 300              	.LVL17:
 301 0000 38B5     		push	{r3, r4, r5, lr}
 302              		.cfi_def_cfa_offset 16
 303              		.cfi_offset 3, -16
 304              		.cfi_offset 4, -12
 305              		.cfi_offset 5, -8
 306              		.cfi_offset 14, -4
 307              		.loc 1 290 0
 308 0002 0D4C     		ldr	r4, .L25
 309 0004 A569     		ldr	r5, [r4, #24]
 310              	.LVL18:
 311              	.LBB130:
 312              	.LBB131:
 313              		.loc 2 607 0
 314 0006 2268     		ldr	r2, [r4]
 315              	.LBE131:
 316              	.LBE130:
 317              		.loc 1 295 0
 318 0008 85F82000 		strb	r0, [r5, #32]
 319              	.LVL19:
 320              	.LBB133:
 321              	.LBB132:
 322              		.loc 2 609 0
 323 000c 1168     		ldr	r1, [r2]
 324 000e 2160     		str	r1, [r4]
 325              		.loc 2 610 0
 326 0010 4C60     		str	r4, [r1, #4]
 327              	.LVL20:
 328              	.LBE132:
 329              	.LBE133:
 330              		.loc 1 305 0
 331 0012 0121     		movs	r1, #1
 332              		.loc 1 304 0
 333 0014 A261     		str	r2, [r4, #24]
 334              		.loc 1 305 0
 335 0016 82F82010 		strb	r1, [r2, #32]
 336              	.LBB134:
 337              	.LBB135:
 338              	.LBB136:
 339              		.loc 3 251 0
 340              		.syntax unified
 341              	@ 251 "../../modules/ChibiOS/os/common/ext/ARM/CMSIS/Core/Include/cmsis_gcc.h" 1
 342 001a EFF30982 		MRS r2, psp
ARM GAS  /tmp/ccaFA0zm.s 			page 7


 343              	@ 0 "" 2
 344              	.LVL21:
 345              		.thumb
 346              		.syntax unified
 347              	.LBE136:
 348              	.LBE135:
 349              		.loc 1 313 0
 350 001e E969     		ldr	r1, [r5, #28]
 351 0020 643A     		subs	r2, r2, #100
 352              	.LVL22:
 353 0022 9142     		cmp	r1, r2
 354 0024 02D9     		bls	.L24
 355              	.LBB137:
 356              		.loc 1 313 0 is_stmt 0 discriminator 1
 357 0026 2846     		mov	r0, r5
 358              	.LVL23:
 359 0028 FFF7FEFF 		bl	stack_overflow
 360              	.LVL24:
 361              	.L24:
 362              	.LBE137:
 363              		.loc 1 313 0 discriminator 3
 364 002c 2946     		mov	r1, r5
 365 002e A069     		ldr	r0, [r4, #24]
 366              	.LBE134:
 367              		.loc 1 314 0 is_stmt 1 discriminator 3
 368 0030 BDE83840 		pop	{r3, r4, r5, lr}
 369              		.cfi_restore 14
 370              		.cfi_restore 5
 371              		.cfi_restore 4
 372              		.cfi_restore 3
 373              		.cfi_def_cfa_offset 0
 374              	.LVL25:
 375              	.LBB138:
 376              		.loc 1 313 0 discriminator 3
 377 0034 FFF7FEBF 		b	_port_switch
 378              	.LVL26:
 379              	.L26:
 380              		.align	2
 381              	.L25:
 382 0038 00000000 		.word	.LANCHOR0
 383              	.LBE138:
 384              		.cfi_endproc
 385              	.LFE293:
 386              		.size	chSchGoSleepS, .-chSchGoSleepS
 387              		.section	.text.chSchGoSleepTimeoutS,"ax",%progbits
 388              		.align	1
 389              		.global	chSchGoSleepTimeoutS
 390              		.syntax unified
 391              		.thumb
 392              		.thumb_func
 393              		.fpu fpv4-sp-d16
 394              		.type	chSchGoSleepTimeoutS, %function
 395              	chSchGoSleepTimeoutS:
 396              	.LFB295:
 397              		.loc 1 375 0
 398              		.cfi_startproc
 399              		@ args = 0, pretend = 0, frame = 24
ARM GAS  /tmp/ccaFA0zm.s 			page 8


 400              		@ frame_needed = 0, uses_anonymous_args = 0
 401              	.LVL27:
 402 0000 30B5     		push	{r4, r5, lr}
 403              		.cfi_def_cfa_offset 12
 404              		.cfi_offset 4, -12
 405              		.cfi_offset 5, -8
 406              		.cfi_offset 14, -4
 407              		.loc 1 379 0
 408 0002 4B1C     		adds	r3, r1, #1
 409              		.loc 1 375 0
 410 0004 87B0     		sub	sp, sp, #28
 411              		.cfi_def_cfa_offset 40
 412              		.loc 1 375 0
 413 0006 0546     		mov	r5, r0
 414 0008 0A4C     		ldr	r4, .L34
 415              		.loc 1 379 0
 416 000a 10D0     		beq	.L28
 417              	.LBB139:
 418              		.loc 1 382 0
 419 000c A369     		ldr	r3, [r4, #24]
 420 000e 0A4A     		ldr	r2, .L34+4
 421 0010 01A8     		add	r0, sp, #4
 422              	.LVL28:
 423 0012 FFF7FEFF 		bl	chVTDoSetI
 424              	.LVL29:
 425              		.loc 1 383 0
 426 0016 2846     		mov	r0, r5
 427 0018 FFF7FEFF 		bl	chSchGoSleepS
 428              	.LVL30:
 429              		.loc 1 384 0
 430 001c 049B     		ldr	r3, [sp, #16]
 431 001e 13B1     		cbz	r3, .L30
 432              		.loc 1 385 0
 433 0020 01A8     		add	r0, sp, #4
 434              	.LVL31:
 435 0022 FFF7FEFF 		bl	chVTDoResetI
 436              	.LVL32:
 437              	.L30:
 438              	.LBE139:
 439              		.loc 1 392 0
 440 0026 A369     		ldr	r3, [r4, #24]
 441              		.loc 1 393 0
 442 0028 586A     		ldr	r0, [r3, #36]
 443 002a 07B0     		add	sp, sp, #28
 444              		.cfi_remember_state
 445              		.cfi_def_cfa_offset 12
 446              		@ sp needed
 447 002c 30BD     		pop	{r4, r5, pc}
 448              	.LVL33:
 449              	.L28:
 450              		.cfi_restore_state
 451              		.loc 1 389 0
 452 002e FFF7FEFF 		bl	chSchGoSleepS
 453              	.LVL34:
 454 0032 F8E7     		b	.L30
 455              	.L35:
 456              		.align	2
ARM GAS  /tmp/ccaFA0zm.s 			page 9


 457              	.L34:
 458 0034 00000000 		.word	.LANCHOR0
 459 0038 00000000 		.word	wakeup
 460              		.cfi_endproc
 461              	.LFE295:
 462              		.size	chSchGoSleepTimeoutS, .-chSchGoSleepTimeoutS
 463              		.section	.text.chSchWakeupS,"ax",%progbits
 464              		.align	1
 465              		.global	chSchWakeupS
 466              		.syntax unified
 467              		.thumb
 468              		.thumb_func
 469              		.fpu fpv4-sp-d16
 470              		.type	chSchWakeupS, %function
 471              	chSchWakeupS:
 472              	.LFB296:
 473              		.loc 1 412 0
 474              		.cfi_startproc
 475              		@ args = 0, pretend = 0, frame = 0
 476              		@ frame_needed = 0, uses_anonymous_args = 0
 477              	.LVL35:
 478 0000 70B5     		push	{r4, r5, r6, lr}
 479              		.cfi_def_cfa_offset 16
 480              		.cfi_offset 4, -16
 481              		.cfi_offset 5, -12
 482              		.cfi_offset 6, -8
 483              		.cfi_offset 14, -4
 484              		.loc 1 413 0
 485 0002 114E     		ldr	r6, .L39
 486              		.loc 1 423 0
 487 0004 4162     		str	r1, [r0, #36]
 488              		.loc 1 413 0
 489 0006 B369     		ldr	r3, [r6, #24]
 490              	.LVL36:
 491              		.loc 1 429 0
 492 0008 8168     		ldr	r1, [r0, #8]
 493              	.LVL37:
 494 000a 9A68     		ldr	r2, [r3, #8]
 495 000c 9142     		cmp	r1, r2
 496              		.loc 1 412 0
 497 000e 0446     		mov	r4, r0
 498              		.loc 1 429 0
 499 0010 03D8     		bhi	.L37
 500              		.loc 1 447 0
 501 0012 BDE87040 		pop	{r4, r5, r6, lr}
 502              		.cfi_remember_state
 503              		.cfi_restore 14
 504              		.cfi_restore 6
 505              		.cfi_restore 5
 506              		.cfi_restore 4
 507              		.cfi_def_cfa_offset 0
 508              		.loc 1 430 0
 509 0016 FFF7FEBF 		b	chSchReadyI
 510              	.LVL38:
 511              	.L37:
 512              		.cfi_restore_state
 513              		.loc 1 433 0
ARM GAS  /tmp/ccaFA0zm.s 			page 10


 514 001a 1846     		mov	r0, r3
 515              	.LVL39:
 516 001c FFF7FEFF 		bl	chSchReadyI
 517              	.LVL40:
 518              		.loc 1 442 0
 519 0020 0123     		movs	r3, #1
 520              		.loc 1 433 0
 521 0022 0546     		mov	r5, r0
 522              	.LVL41:
 523              		.loc 1 441 0
 524 0024 B461     		str	r4, [r6, #24]
 525              		.loc 1 442 0
 526 0026 84F82030 		strb	r3, [r4, #32]
 527              	.LBB140:
 528              	.LBB141:
 529              	.LBB142:
 530              		.loc 3 251 0
 531              		.syntax unified
 532              	@ 251 "../../modules/ChibiOS/os/common/ext/ARM/CMSIS/Core/Include/cmsis_gcc.h" 1
 533 002a EFF30983 		MRS r3, psp
 534              	@ 0 "" 2
 535              	.LVL42:
 536              		.thumb
 537              		.syntax unified
 538              	.LBE142:
 539              	.LBE141:
 540              		.loc 1 445 0
 541 002e C269     		ldr	r2, [r0, #28]
 542 0030 643B     		subs	r3, r3, #100
 543              	.LVL43:
 544 0032 9A42     		cmp	r2, r3
 545 0034 01D9     		bls	.L38
 546              	.LBB143:
 547              		.loc 1 445 0 is_stmt 0 discriminator 1
 548 0036 FFF7FEFF 		bl	stack_overflow
 549              	.LVL44:
 550              	.L38:
 551              	.LBE143:
 552              		.loc 1 445 0 discriminator 3
 553 003a 2946     		mov	r1, r5
 554 003c 2046     		mov	r0, r4
 555              	.LBE140:
 556              		.loc 1 447 0 is_stmt 1 discriminator 3
 557 003e BDE87040 		pop	{r4, r5, r6, lr}
 558              		.cfi_restore 14
 559              		.cfi_restore 6
 560              		.cfi_restore 5
 561              		.cfi_restore 4
 562              		.cfi_def_cfa_offset 0
 563              	.LVL45:
 564              	.LBB144:
 565              		.loc 1 445 0 discriminator 3
 566 0042 FFF7FEBF 		b	_port_switch
 567              	.LVL46:
 568              	.L40:
 569 0046 00BF     		.align	2
 570              	.L39:
ARM GAS  /tmp/ccaFA0zm.s 			page 11


 571 0048 00000000 		.word	.LANCHOR0
 572              	.LBE144:
 573              		.cfi_endproc
 574              	.LFE296:
 575              		.size	chSchWakeupS, .-chSchWakeupS
 576              		.section	.text.chSchIsPreemptionRequired,"ax",%progbits
 577              		.align	1
 578              		.global	chSchIsPreemptionRequired
 579              		.syntax unified
 580              		.thumb
 581              		.thumb_func
 582              		.fpu fpv4-sp-d16
 583              		.type	chSchIsPreemptionRequired, %function
 584              	chSchIsPreemptionRequired:
 585              	.LFB298:
 586              		.loc 1 479 0
 587              		.cfi_startproc
 588              		@ args = 0, pretend = 0, frame = 0
 589              		@ frame_needed = 0, uses_anonymous_args = 0
 590              		@ link register save eliminated.
 591              	.LVL47:
 592              		.loc 1 480 0
 593 0000 044B     		ldr	r3, .L42
 594 0002 1A68     		ldr	r2, [r3]
 595              		.loc 1 481 0
 596 0004 9B69     		ldr	r3, [r3, #24]
 597              		.loc 1 492 0
 598 0006 9068     		ldr	r0, [r2, #8]
 599 0008 9B68     		ldr	r3, [r3, #8]
 600              		.loc 1 494 0
 601 000a 9842     		cmp	r0, r3
 602 000c 94BF     		ite	ls
 603 000e 0020     		movls	r0, #0
 604 0010 0120     		movhi	r0, #1
 605 0012 7047     		bx	lr
 606              	.L43:
 607              		.align	2
 608              	.L42:
 609 0014 00000000 		.word	.LANCHOR0
 610              		.cfi_endproc
 611              	.LFE298:
 612              		.size	chSchIsPreemptionRequired, .-chSchIsPreemptionRequired
 613              		.thumb_set chSchIsRescRequiredI,chSchIsPreemptionRequired
 614              		.section	.text.chSchDoRescheduleBehind,"ax",%progbits
 615              		.align	1
 616              		.global	chSchDoRescheduleBehind
 617              		.syntax unified
 618              		.thumb
 619              		.thumb_func
 620              		.fpu fpv4-sp-d16
 621              		.type	chSchDoRescheduleBehind, %function
 622              	chSchDoRescheduleBehind:
 623              	.LFB299:
 624              		.loc 1 507 0
 625              		.cfi_startproc
 626              		@ args = 0, pretend = 0, frame = 0
 627              		@ frame_needed = 0, uses_anonymous_args = 0
ARM GAS  /tmp/ccaFA0zm.s 			page 12


 628 0000 38B5     		push	{r3, r4, r5, lr}
 629              		.cfi_def_cfa_offset 16
 630              		.cfi_offset 3, -16
 631              		.cfi_offset 4, -12
 632              		.cfi_offset 5, -8
 633              		.cfi_offset 14, -4
 634              		.loc 1 508 0
 635 0002 0D4C     		ldr	r4, .L46
 636              	.LBB145:
 637              	.LBB146:
 638              		.loc 2 607 0
 639 0004 2368     		ldr	r3, [r4]
 640              	.LBE146:
 641              	.LBE145:
 642              		.loc 1 508 0
 643 0006 A069     		ldr	r0, [r4, #24]
 644              	.LVL48:
 645              	.LBB148:
 646              	.LBB147:
 647              		.loc 2 609 0
 648 0008 1A68     		ldr	r2, [r3]
 649 000a 2260     		str	r2, [r4]
 650              		.loc 2 610 0
 651 000c 5460     		str	r4, [r2, #4]
 652              	.LVL49:
 653              	.LBE147:
 654              	.LBE148:
 655              		.loc 1 512 0
 656 000e 0122     		movs	r2, #1
 657 0010 83F82020 		strb	r2, [r3, #32]
 658              		.loc 1 511 0
 659 0014 A361     		str	r3, [r4, #24]
 660              		.loc 1 525 0
 661 0016 FFF7FEFF 		bl	chSchReadyI
 662              	.LVL50:
 663 001a 0546     		mov	r5, r0
 664              	.LVL51:
 665              	.LBB149:
 666              	.LBB150:
 667              	.LBB151:
 668              		.loc 3 251 0
 669              		.syntax unified
 670              	@ 251 "../../modules/ChibiOS/os/common/ext/ARM/CMSIS/Core/Include/cmsis_gcc.h" 1
 671 001c EFF30983 		MRS r3, psp
 672              	@ 0 "" 2
 673              	.LVL52:
 674              		.thumb
 675              		.syntax unified
 676              	.LBE151:
 677              	.LBE150:
 678              		.loc 1 528 0
 679 0020 C269     		ldr	r2, [r0, #28]
 680 0022 643B     		subs	r3, r3, #100
 681              	.LVL53:
 682 0024 9A42     		cmp	r2, r3
 683 0026 01D9     		bls	.L45
 684              	.LBB152:
ARM GAS  /tmp/ccaFA0zm.s 			page 13


 685              		.loc 1 528 0 is_stmt 0 discriminator 1
 686 0028 FFF7FEFF 		bl	stack_overflow
 687              	.LVL54:
 688              	.L45:
 689              	.LBE152:
 690              		.loc 1 528 0 discriminator 3
 691 002c 2946     		mov	r1, r5
 692 002e A069     		ldr	r0, [r4, #24]
 693              	.LBE149:
 694              		.loc 1 529 0 is_stmt 1 discriminator 3
 695 0030 BDE83840 		pop	{r3, r4, r5, lr}
 696              		.cfi_restore 14
 697              		.cfi_restore 5
 698              		.cfi_restore 4
 699              		.cfi_restore 3
 700              		.cfi_def_cfa_offset 0
 701              	.LVL55:
 702              	.LBB153:
 703              		.loc 1 528 0 discriminator 3
 704 0034 FFF7FEBF 		b	_port_switch
 705              	.LVL56:
 706              	.L47:
 707              		.align	2
 708              	.L46:
 709 0038 00000000 		.word	.LANCHOR0
 710              	.LBE153:
 711              		.cfi_endproc
 712              	.LFE299:
 713              		.size	chSchDoRescheduleBehind, .-chSchDoRescheduleBehind
 714              		.section	.text.chSchDoReschedule,"ax",%progbits
 715              		.align	1
 716              		.global	chSchDoReschedule
 717              		.syntax unified
 718              		.thumb
 719              		.thumb_func
 720              		.fpu fpv4-sp-d16
 721              		.type	chSchDoReschedule, %function
 722              	chSchDoReschedule:
 723              	.LFB301:
 724              		.loc 1 570 0
 725              		.cfi_startproc
 726              		@ args = 0, pretend = 0, frame = 0
 727              		@ frame_needed = 0, uses_anonymous_args = 0
 728 0000 38B5     		push	{r3, r4, r5, lr}
 729              		.cfi_def_cfa_offset 16
 730              		.cfi_offset 3, -16
 731              		.cfi_offset 4, -12
 732              		.cfi_offset 5, -8
 733              		.cfi_offset 14, -4
 734              		.loc 1 571 0
 735 0002 0D4C     		ldr	r4, .L50
 736              	.LBB154:
 737              	.LBB155:
 738              		.loc 2 607 0
 739 0004 2368     		ldr	r3, [r4]
 740              	.LBE155:
 741              	.LBE154:
ARM GAS  /tmp/ccaFA0zm.s 			page 14


 742              		.loc 1 571 0
 743 0006 A069     		ldr	r0, [r4, #24]
 744              	.LVL57:
 745              	.LBB157:
 746              	.LBB156:
 747              		.loc 2 609 0
 748 0008 1A68     		ldr	r2, [r3]
 749 000a 2260     		str	r2, [r4]
 750              		.loc 2 610 0
 751 000c 5460     		str	r4, [r2, #4]
 752              	.LVL58:
 753              	.LBE156:
 754              	.LBE157:
 755              		.loc 1 575 0
 756 000e 0122     		movs	r2, #1
 757 0010 83F82020 		strb	r2, [r3, #32]
 758              		.loc 1 574 0
 759 0014 A361     		str	r3, [r4, #24]
 760              		.loc 1 602 0
 761 0016 FFF7FEFF 		bl	chSchReadyAheadI
 762              	.LVL59:
 763 001a 0546     		mov	r5, r0
 764              	.LVL60:
 765              	.LBB158:
 766              	.LBB159:
 767              	.LBB160:
 768              		.loc 3 251 0
 769              		.syntax unified
 770              	@ 251 "../../modules/ChibiOS/os/common/ext/ARM/CMSIS/Core/Include/cmsis_gcc.h" 1
 771 001c EFF30983 		MRS r3, psp
 772              	@ 0 "" 2
 773              	.LVL61:
 774              		.thumb
 775              		.syntax unified
 776              	.LBE160:
 777              	.LBE159:
 778              		.loc 1 606 0
 779 0020 C269     		ldr	r2, [r0, #28]
 780 0022 643B     		subs	r3, r3, #100
 781              	.LVL62:
 782 0024 9A42     		cmp	r2, r3
 783 0026 01D9     		bls	.L49
 784              	.LBB161:
 785              		.loc 1 606 0 is_stmt 0 discriminator 1
 786 0028 FFF7FEFF 		bl	stack_overflow
 787              	.LVL63:
 788              	.L49:
 789              	.LBE161:
 790              		.loc 1 606 0 discriminator 3
 791 002c 2946     		mov	r1, r5
 792 002e A069     		ldr	r0, [r4, #24]
 793              	.LBE158:
 794              		.loc 1 607 0 is_stmt 1 discriminator 3
 795 0030 BDE83840 		pop	{r3, r4, r5, lr}
 796              		.cfi_restore 14
 797              		.cfi_restore 5
 798              		.cfi_restore 4
ARM GAS  /tmp/ccaFA0zm.s 			page 15


 799              		.cfi_restore 3
 800              		.cfi_def_cfa_offset 0
 801              	.LVL64:
 802              	.LBB162:
 803              		.loc 1 606 0 discriminator 3
 804 0034 FFF7FEBF 		b	_port_switch
 805              	.LVL65:
 806              	.L51:
 807              		.align	2
 808              	.L50:
 809 0038 00000000 		.word	.LANCHOR0
 810              	.LBE162:
 811              		.cfi_endproc
 812              	.LFE301:
 813              		.size	chSchDoReschedule, .-chSchDoReschedule
 814              		.section	.text.chSchRescheduleS,"ax",%progbits
 815              		.align	1
 816              		.global	chSchRescheduleS
 817              		.syntax unified
 818              		.thumb
 819              		.thumb_func
 820              		.fpu fpv4-sp-d16
 821              		.type	chSchRescheduleS, %function
 822              	chSchRescheduleS:
 823              	.LFB297:
 824              		.loc 1 456 0
 825              		.cfi_startproc
 826              		@ args = 0, pretend = 0, frame = 0
 827              		@ frame_needed = 0, uses_anonymous_args = 0
 828 0000 08B5     		push	{r3, lr}
 829              		.cfi_def_cfa_offset 8
 830              		.cfi_offset 3, -8
 831              		.cfi_offset 14, -4
 832              		.loc 1 460 0
 833 0002 FFF7FEFF 		bl	chSchIsRescRequiredI
 834              	.LVL66:
 835 0006 18B1     		cbz	r0, .L52
 836              		.loc 1 463 0
 837 0008 BDE80840 		pop	{r3, lr}
 838              		.cfi_remember_state
 839              		.cfi_restore 14
 840              		.cfi_restore 3
 841              		.cfi_def_cfa_offset 0
 842              		.loc 1 461 0
 843 000c FFF7FEBF 		b	chSchDoReschedule
 844              	.LVL67:
 845              	.L52:
 846              		.cfi_restore_state
 847 0010 08BD     		pop	{r3, pc}
 848              		.cfi_endproc
 849              	.LFE297:
 850              		.size	chSchRescheduleS, .-chSchRescheduleS
 851              		.section	.text.chSchDoRescheduleAhead,"ax",%progbits
 852              		.align	1
 853              		.global	chSchDoRescheduleAhead
 854              		.syntax unified
 855              		.thumb
ARM GAS  /tmp/ccaFA0zm.s 			page 16


 856              		.thumb_func
 857              		.fpu fpv4-sp-d16
 858              		.type	chSchDoRescheduleAhead, %function
 859              	chSchDoRescheduleAhead:
 860              	.LFB305:
 861              		.cfi_startproc
 862              		@ args = 0, pretend = 0, frame = 0
 863              		@ frame_needed = 0, uses_anonymous_args = 0
 864              		@ link register save eliminated.
 865 0000 FFF7FEBF 		b	chSchDoReschedule
 866              		.cfi_endproc
 867              	.LFE305:
 868              		.size	chSchDoRescheduleAhead, .-chSchDoRescheduleAhead
 869              		.global	ch
 870              		.section	.bss.ch,"aw",%nobits
 871              		.align	2
 872              		.set	.LANCHOR0,. + 0
 873              		.type	ch, %object
 874              		.size	ch, 120
 875              	ch:
 876 0000 00000000 		.space	120
 876      00000000 
 876      00000000 
 876      00000000 
 876      00000000 
 877              		.text
 878              	.Letext0:
 879              		.file 5 "/opt/gcc-arm-none-eabi-6-2017-q2-update/lib/gcc/arm-none-eabi/6.3.1/include/stddef.h"
 880              		.file 6 "/opt/gcc-arm-none-eabi-6-2017-q2-update/arm-none-eabi/include/machine/_default_types.h"
 881              		.file 7 "/opt/gcc-arm-none-eabi-6-2017-q2-update/arm-none-eabi/include/sys/_stdint.h"
 882              		.file 8 "../../modules/ChibiOS/os/common/ports/ARMCMx/compilers/GCC/chtypes.h"
 883              		.file 9 "../../modules/ChibiOS/os/rt/include/chsystypes.h"
 884              		.file 10 "../../modules/ChibiOS/os/rt/include/chtime.h"
 885              		.file 11 "../../modules/ChibiOS/os/common/ext/ARM/CMSIS/Core/Include/core_cm4.h"
 886              		.file 12 "../../modules/ChibiOS/os/common/ext/ST/STM32F4xx/system_stm32f4xx.h"
 887              		.file 13 "../../modules/ChibiOS/os/common/ports/ARMCMx/chcore.h"
 888              		.file 14 "../../modules/ChibiOS/os/common/ports/ARMCMx/chcore_v7m.h"
 889              		.file 15 "../../modules/ChibiOS/os/rt/include/chtm.h"
 890              		.file 16 "../../modules/ChibiOS/os/rt/include/chmtx.h"
 891              		.file 17 "../../modules/ChibiOS/os/rt/include/chsys.h"
 892              		.file 18 "../../modules/ChibiOS/os/rt/include/chregistry.h"
 893              		.file 19 "../../modules/ChibiOS/os/oslib/include/chmemcore.h"
 894              		.file 20 "../../modules/ChibiOS/os/oslib/include/chmempools.h"
 895              		.file 21 "../../modules/ChibiOS/os/oslib/include/chfactory.h"
 896              		.file 22 "../../modules/ChibiOS/os/rt/include/chvt.h"
 897              		.section	.debug_info,"",%progbits
 898              	.Ldebug_info0:
 899 0000 AE120000 		.4byte	0x12ae
 900 0004 0400     		.2byte	0x4
 901 0006 00000000 		.4byte	.Ldebug_abbrev0
 902 000a 04       		.byte	0x4
 903 000b 01       		.uleb128 0x1
 904 000c 61010000 		.4byte	.LASF180
 905 0010 0C       		.byte	0xc
 906 0011 79040000 		.4byte	.LASF181
 907 0015 17090000 		.4byte	.LASF182
 908 0019 C0000000 		.4byte	.Ldebug_ranges0+0xc0
ARM GAS  /tmp/ccaFA0zm.s 			page 17


 909 001d 00000000 		.4byte	0
 910 0021 00000000 		.4byte	.Ldebug_line0
 911 0025 02       		.uleb128 0x2
 912 0026 04       		.byte	0x4
 913 0027 05       		.byte	0x5
 914 0028 696E7400 		.ascii	"int\000"
 915 002c 03       		.uleb128 0x3
 916 002d 0D000000 		.4byte	.LASF4
 917 0031 05       		.byte	0x5
 918 0032 D8       		.byte	0xd8
 919 0033 37000000 		.4byte	0x37
 920 0037 04       		.uleb128 0x4
 921 0038 04       		.byte	0x4
 922 0039 07       		.byte	0x7
 923 003a 71030000 		.4byte	.LASF0
 924 003e 04       		.uleb128 0x4
 925 003f 08       		.byte	0x8
 926 0040 05       		.byte	0x5
 927 0041 42010000 		.4byte	.LASF1
 928 0045 04       		.uleb128 0x4
 929 0046 08       		.byte	0x8
 930 0047 04       		.byte	0x4
 931 0048 F7040000 		.4byte	.LASF2
 932 004c 04       		.uleb128 0x4
 933 004d 01       		.byte	0x1
 934 004e 06       		.byte	0x6
 935 004f 50010000 		.4byte	.LASF3
 936 0053 03       		.uleb128 0x3
 937 0054 4D000000 		.4byte	.LASF5
 938 0058 06       		.byte	0x6
 939 0059 2B       		.byte	0x2b
 940 005a 5E000000 		.4byte	0x5e
 941 005e 04       		.uleb128 0x4
 942 005f 01       		.byte	0x1
 943 0060 08       		.byte	0x8
 944 0061 F7050000 		.4byte	.LASF6
 945 0065 04       		.uleb128 0x4
 946 0066 02       		.byte	0x2
 947 0067 05       		.byte	0x5
 948 0068 24060000 		.4byte	.LASF7
 949 006c 03       		.uleb128 0x3
 950 006d 48070000 		.4byte	.LASF8
 951 0071 06       		.byte	0x6
 952 0072 39       		.byte	0x39
 953 0073 77000000 		.4byte	0x77
 954 0077 04       		.uleb128 0x4
 955 0078 02       		.byte	0x2
 956 0079 07       		.byte	0x7
 957 007a D3070000 		.4byte	.LASF9
 958 007e 03       		.uleb128 0x3
 959 007f 35070000 		.4byte	.LASF10
 960 0083 06       		.byte	0x6
 961 0084 4D       		.byte	0x4d
 962 0085 89000000 		.4byte	0x89
 963 0089 04       		.uleb128 0x4
 964 008a 04       		.byte	0x4
 965 008b 05       		.byte	0x5
ARM GAS  /tmp/ccaFA0zm.s 			page 18


 966 008c A1020000 		.4byte	.LASF11
 967 0090 03       		.uleb128 0x3
 968 0091 FD020000 		.4byte	.LASF12
 969 0095 06       		.byte	0x6
 970 0096 4F       		.byte	0x4f
 971 0097 9B000000 		.4byte	0x9b
 972 009b 04       		.uleb128 0x4
 973 009c 04       		.byte	0x4
 974 009d 07       		.byte	0x7
 975 009e 11070000 		.4byte	.LASF13
 976 00a2 03       		.uleb128 0x3
 977 00a3 5B050000 		.4byte	.LASF14
 978 00a7 06       		.byte	0x6
 979 00a8 69       		.byte	0x69
 980 00a9 AD000000 		.4byte	0xad
 981 00ad 04       		.uleb128 0x4
 982 00ae 08       		.byte	0x8
 983 00af 07       		.byte	0x7
 984 00b0 AB000000 		.4byte	.LASF15
 985 00b4 03       		.uleb128 0x3
 986 00b5 6F080000 		.4byte	.LASF16
 987 00b9 07       		.byte	0x7
 988 00ba 18       		.byte	0x18
 989 00bb 53000000 		.4byte	0x53
 990 00bf 05       		.uleb128 0x5
 991 00c0 B4000000 		.4byte	0xb4
 992 00c4 03       		.uleb128 0x3
 993 00c5 85030000 		.4byte	.LASF17
 994 00c9 07       		.byte	0x7
 995 00ca 24       		.byte	0x24
 996 00cb 6C000000 		.4byte	0x6c
 997 00cf 03       		.uleb128 0x3
 998 00d0 EF050000 		.4byte	.LASF18
 999 00d4 07       		.byte	0x7
 1000 00d5 2C       		.byte	0x2c
 1001 00d6 7E000000 		.4byte	0x7e
 1002 00da 06       		.uleb128 0x6
 1003 00db CF000000 		.4byte	0xcf
 1004 00df 03       		.uleb128 0x3
 1005 00e0 DF060000 		.4byte	.LASF19
 1006 00e4 07       		.byte	0x7
 1007 00e5 30       		.byte	0x30
 1008 00e6 90000000 		.4byte	0x90
 1009 00ea 03       		.uleb128 0x3
 1010 00eb 21000000 		.4byte	.LASF20
 1011 00ef 07       		.byte	0x7
 1012 00f0 3C       		.byte	0x3c
 1013 00f1 A2000000 		.4byte	0xa2
 1014 00f5 03       		.uleb128 0x3
 1015 00f6 F1070000 		.4byte	.LASF21
 1016 00fa 08       		.byte	0x8
 1017 00fb 27       		.byte	0x27
 1018 00fc DF000000 		.4byte	0xdf
 1019 0100 03       		.uleb128 0x3
 1020 0101 59060000 		.4byte	.LASF22
 1021 0105 08       		.byte	0x8
 1022 0106 2A       		.byte	0x2a
ARM GAS  /tmp/ccaFA0zm.s 			page 19


 1023 0107 B4000000 		.4byte	0xb4
 1024 010b 03       		.uleb128 0x3
 1025 010c B8020000 		.4byte	.LASF23
 1026 0110 08       		.byte	0x8
 1027 0111 2B       		.byte	0x2b
 1028 0112 B4000000 		.4byte	0xb4
 1029 0116 03       		.uleb128 0x3
 1030 0117 7F050000 		.4byte	.LASF24
 1031 011b 08       		.byte	0x8
 1032 011c 2C       		.byte	0x2c
 1033 011d B4000000 		.4byte	0xb4
 1034 0121 03       		.uleb128 0x3
 1035 0122 B5050000 		.4byte	.LASF25
 1036 0126 08       		.byte	0x8
 1037 0127 2E       		.byte	0x2e
 1038 0128 DF000000 		.4byte	0xdf
 1039 012c 03       		.uleb128 0x3
 1040 012d 0F040000 		.4byte	.LASF26
 1041 0131 08       		.byte	0x8
 1042 0132 2F       		.byte	0x2f
 1043 0133 CF000000 		.4byte	0xcf
 1044 0137 03       		.uleb128 0x3
 1045 0138 41000000 		.4byte	.LASF27
 1046 013c 08       		.byte	0x8
 1047 013d 31       		.byte	0x31
 1048 013e DF000000 		.4byte	0xdf
 1049 0142 03       		.uleb128 0x3
 1050 0143 6B030000 		.4byte	.LASF28
 1051 0147 08       		.byte	0x8
 1052 0148 33       		.byte	0x33
 1053 0149 CF000000 		.4byte	0xcf
 1054 014d 03       		.uleb128 0x3
 1055 014e 15040000 		.4byte	.LASF29
 1056 0152 08       		.byte	0x8
 1057 0153 34       		.byte	0x34
 1058 0154 DF000000 		.4byte	0xdf
 1059 0158 03       		.uleb128 0x3
 1060 0159 68070000 		.4byte	.LASF30
 1061 015d 09       		.byte	0x9
 1062 015e 34       		.byte	0x34
 1063 015f 63010000 		.4byte	0x163
 1064 0163 07       		.uleb128 0x7
 1065 0164 05040000 		.4byte	.LASF48
 1066 0168 44       		.byte	0x44
 1067 0169 02       		.byte	0x2
 1068 016a 8E       		.byte	0x8e
 1069 016b 41020000 		.4byte	0x241
 1070 016f 08       		.uleb128 0x8
 1071 0170 E7030000 		.4byte	.LASF31
 1072 0174 02       		.byte	0x2
 1073 0175 8F       		.byte	0x8f
 1074 0176 76020000 		.4byte	0x276
 1075 017a 00       		.byte	0
 1076 017b 08       		.uleb128 0x8
 1077 017c 45050000 		.4byte	.LASF32
 1078 0180 02       		.byte	0x2
 1079 0181 90       		.byte	0x90
ARM GAS  /tmp/ccaFA0zm.s 			page 20


 1080 0182 21010000 		.4byte	0x121
 1081 0186 08       		.byte	0x8
 1082 0187 09       		.uleb128 0x9
 1083 0188 63747800 		.ascii	"ctx\000"
 1084 018c 02       		.byte	0x2
 1085 018d 91       		.byte	0x91
 1086 018e E0040000 		.4byte	0x4e0
 1087 0192 0C       		.byte	0xc
 1088 0193 08       		.uleb128 0x8
 1089 0194 AD040000 		.4byte	.LASF33
 1090 0198 02       		.byte	0x2
 1091 0199 93       		.byte	0x93
 1092 019a 4C020000 		.4byte	0x24c
 1093 019e 10       		.byte	0x10
 1094 019f 08       		.uleb128 0x8
 1095 01a0 2F070000 		.4byte	.LASF34
 1096 01a4 02       		.byte	0x2
 1097 01a5 94       		.byte	0x94
 1098 01a6 4C020000 		.4byte	0x24c
 1099 01aa 14       		.byte	0x14
 1100 01ab 08       		.uleb128 0x8
 1101 01ac E2030000 		.4byte	.LASF35
 1102 01b0 02       		.byte	0x2
 1103 01b1 9B       		.byte	0x9b
 1104 01b2 40070000 		.4byte	0x740
 1105 01b6 18       		.byte	0x18
 1106 01b7 08       		.uleb128 0x8
 1107 01b8 23070000 		.4byte	.LASF36
 1108 01bc 02       		.byte	0x2
 1109 01bd A4       		.byte	0xa4
 1110 01be 57070000 		.4byte	0x757
 1111 01c2 1C       		.byte	0x1c
 1112 01c3 08       		.uleb128 0x8
 1113 01c4 9B020000 		.4byte	.LASF37
 1114 01c8 02       		.byte	0x2
 1115 01c9 A9       		.byte	0xa9
 1116 01ca 0B010000 		.4byte	0x10b
 1117 01ce 20       		.byte	0x20
 1118 01cf 08       		.uleb128 0x8
 1119 01d0 77080000 		.4byte	.LASF38
 1120 01d4 02       		.byte	0x2
 1121 01d5 AD       		.byte	0xad
 1122 01d6 00010000 		.4byte	0x100
 1123 01da 21       		.byte	0x21
 1124 01db 08       		.uleb128 0x8
 1125 01dc 91050000 		.4byte	.LASF39
 1126 01e0 02       		.byte	0x2
 1127 01e1 B2       		.byte	0xb2
 1128 01e2 16010000 		.4byte	0x116
 1129 01e6 22       		.byte	0x22
 1130 01e7 0A       		.uleb128 0xa
 1131 01e8 7500     		.ascii	"u\000"
 1132 01ea 02       		.byte	0x2
 1133 01eb 0301     		.2byte	0x103
 1134 01ed 6A060000 		.4byte	0x66a
 1135 01f1 24       		.byte	0x24
 1136 01f2 0B       		.uleb128 0xb
ARM GAS  /tmp/ccaFA0zm.s 			page 21


 1137 01f3 3C030000 		.4byte	.LASF40
 1138 01f7 02       		.byte	0x2
 1139 01f8 0801     		.2byte	0x108
 1140 01fa 52020000 		.4byte	0x252
 1141 01fe 28       		.byte	0x28
 1142 01ff 0B       		.uleb128 0xb
 1143 0200 92020000 		.4byte	.LASF41
 1144 0204 02       		.byte	0x2
 1145 0205 0E01     		.2byte	0x10e
 1146 0207 76020000 		.4byte	0x276
 1147 020b 2C       		.byte	0x2c
 1148 020c 0B       		.uleb128 0xb
 1149 020d 1C040000 		.4byte	.LASF42
 1150 0211 02       		.byte	0x2
 1151 0212 1401     		.2byte	0x114
 1152 0214 37010000 		.4byte	0x137
 1153 0218 34       		.byte	0x34
 1154 0219 0B       		.uleb128 0xb
 1155 021a 0F090000 		.4byte	.LASF43
 1156 021e 02       		.byte	0x2
 1157 021f 1B01     		.2byte	0x11b
 1158 0221 3A070000 		.4byte	0x73a
 1159 0225 38       		.byte	0x38
 1160 0226 0B       		.uleb128 0xb
 1161 0227 B3040000 		.4byte	.LASF44
 1162 022b 02       		.byte	0x2
 1163 022c 1F01     		.2byte	0x11f
 1164 022e 21010000 		.4byte	0x121
 1165 0232 3C       		.byte	0x3c
 1166 0233 0B       		.uleb128 0xb
 1167 0234 ED030000 		.4byte	.LASF45
 1168 0238 02       		.byte	0x2
 1169 0239 2601     		.2byte	0x126
 1170 023b 29030000 		.4byte	0x329
 1171 023f 40       		.byte	0x40
 1172 0240 00       		.byte	0
 1173 0241 03       		.uleb128 0x3
 1174 0242 CD040000 		.4byte	.LASF46
 1175 0246 09       		.byte	0x9
 1176 0247 39       		.byte	0x39
 1177 0248 4C020000 		.4byte	0x24c
 1178 024c 0C       		.uleb128 0xc
 1179 024d 04       		.byte	0x4
 1180 024e 58010000 		.4byte	0x158
 1181 0252 03       		.uleb128 0x3
 1182 0253 98080000 		.4byte	.LASF47
 1183 0257 09       		.byte	0x9
 1184 0258 3E       		.byte	0x3e
 1185 0259 5D020000 		.4byte	0x25d
 1186 025d 07       		.uleb128 0x7
 1187 025e FB060000 		.4byte	.LASF49
 1188 0262 04       		.byte	0x4
 1189 0263 02       		.byte	0x2
 1190 0264 7C       		.byte	0x7c
 1191 0265 76020000 		.4byte	0x276
 1192 0269 08       		.uleb128 0x8
 1193 026a 1C010000 		.4byte	.LASF50
ARM GAS  /tmp/ccaFA0zm.s 			page 22


 1194 026e 02       		.byte	0x2
 1195 026f 7D       		.byte	0x7d
 1196 0270 4C020000 		.4byte	0x24c
 1197 0274 00       		.byte	0
 1198 0275 00       		.byte	0
 1199 0276 03       		.uleb128 0x3
 1200 0277 4A080000 		.4byte	.LASF51
 1201 027b 09       		.byte	0x9
 1202 027c 45       		.byte	0x45
 1203 027d 81020000 		.4byte	0x281
 1204 0281 07       		.uleb128 0x7
 1205 0282 21010000 		.4byte	.LASF52
 1206 0286 08       		.byte	0x8
 1207 0287 02       		.byte	0x2
 1208 0288 83       		.byte	0x83
 1209 0289 A6020000 		.4byte	0x2a6
 1210 028d 08       		.uleb128 0x8
 1211 028e 1C010000 		.4byte	.LASF50
 1212 0292 02       		.byte	0x2
 1213 0293 84       		.byte	0x84
 1214 0294 4C020000 		.4byte	0x24c
 1215 0298 00       		.byte	0
 1216 0299 08       		.uleb128 0x8
 1217 029a 57000000 		.4byte	.LASF53
 1218 029e 02       		.byte	0x2
 1219 029f 85       		.byte	0x85
 1220 02a0 4C020000 		.4byte	0x24c
 1221 02a4 04       		.byte	0x4
 1222 02a5 00       		.byte	0
 1223 02a6 03       		.uleb128 0x3
 1224 02a7 00000000 		.4byte	.LASF54
 1225 02ab 09       		.byte	0x9
 1226 02ac 4C       		.byte	0x4c
 1227 02ad B1020000 		.4byte	0x2b1
 1228 02b1 0D       		.uleb128 0xd
 1229 02b2 4B040000 		.4byte	.LASF55
 1230 02b6 1C       		.byte	0x1c
 1231 02b7 02       		.byte	0x2
 1232 02b8 5E01     		.2byte	0x15e
 1233 02ba 0D030000 		.4byte	0x30d
 1234 02be 0B       		.uleb128 0xb
 1235 02bf E7030000 		.4byte	.LASF31
 1236 02c3 02       		.byte	0x2
 1237 02c4 5F01     		.2byte	0x15f
 1238 02c6 76020000 		.4byte	0x276
 1239 02ca 00       		.byte	0
 1240 02cb 0B       		.uleb128 0xb
 1241 02cc 45050000 		.4byte	.LASF32
 1242 02d0 02       		.byte	0x2
 1243 02d1 6001     		.2byte	0x160
 1244 02d3 21010000 		.4byte	0x121
 1245 02d7 08       		.byte	0x8
 1246 02d8 0A       		.uleb128 0xa
 1247 02d9 63747800 		.ascii	"ctx\000"
 1248 02dd 02       		.byte	0x2
 1249 02de 6201     		.2byte	0x162
 1250 02e0 E0040000 		.4byte	0x4e0
ARM GAS  /tmp/ccaFA0zm.s 			page 23


 1251 02e4 0C       		.byte	0xc
 1252 02e5 0B       		.uleb128 0xb
 1253 02e6 AD040000 		.4byte	.LASF33
 1254 02ea 02       		.byte	0x2
 1255 02eb 6501     		.2byte	0x165
 1256 02ed 4C020000 		.4byte	0x24c
 1257 02f1 10       		.byte	0x10
 1258 02f2 0B       		.uleb128 0xb
 1259 02f3 2F070000 		.4byte	.LASF34
 1260 02f7 02       		.byte	0x2
 1261 02f8 6601     		.2byte	0x166
 1262 02fa 4C020000 		.4byte	0x24c
 1263 02fe 14       		.byte	0x14
 1264 02ff 0B       		.uleb128 0xb
 1265 0300 53050000 		.4byte	.LASF56
 1266 0304 02       		.byte	0x2
 1267 0305 6901     		.2byte	0x169
 1268 0307 4C020000 		.4byte	0x24c
 1269 030b 18       		.byte	0x18
 1270 030c 00       		.byte	0
 1271 030d 03       		.uleb128 0x3
 1272 030e 98070000 		.4byte	.LASF57
 1273 0312 09       		.byte	0x9
 1274 0313 51       		.byte	0x51
 1275 0314 18030000 		.4byte	0x318
 1276 0318 0C       		.uleb128 0xc
 1277 0319 04       		.byte	0x4
 1278 031a 1E030000 		.4byte	0x31e
 1279 031e 0E       		.uleb128 0xe
 1280 031f 29030000 		.4byte	0x329
 1281 0323 0F       		.uleb128 0xf
 1282 0324 29030000 		.4byte	0x329
 1283 0328 00       		.byte	0
 1284 0329 10       		.uleb128 0x10
 1285 032a 04       		.byte	0x4
 1286 032b 03       		.uleb128 0x3
 1287 032c 96050000 		.4byte	.LASF58
 1288 0330 09       		.byte	0x9
 1289 0331 56       		.byte	0x56
 1290 0332 3B030000 		.4byte	0x33b
 1291 0336 05       		.uleb128 0x5
 1292 0337 2B030000 		.4byte	0x32b
 1293 033b 0D       		.uleb128 0xd
 1294 033c 7F060000 		.4byte	.LASF59
 1295 0340 14       		.byte	0x14
 1296 0341 02       		.byte	0x2
 1297 0342 3901     		.2byte	0x139
 1298 0344 8A030000 		.4byte	0x38a
 1299 0348 0B       		.uleb128 0xb
 1300 0349 1C010000 		.4byte	.LASF50
 1301 034d 02       		.byte	0x2
 1302 034e 3A01     		.2byte	0x13a
 1303 0350 5D070000 		.4byte	0x75d
 1304 0354 00       		.byte	0
 1305 0355 0B       		.uleb128 0xb
 1306 0356 57000000 		.4byte	.LASF53
 1307 035a 02       		.byte	0x2
ARM GAS  /tmp/ccaFA0zm.s 			page 24


 1308 035b 3B01     		.2byte	0x13b
 1309 035d 5D070000 		.4byte	0x75d
 1310 0361 04       		.byte	0x4
 1311 0362 0B       		.uleb128 0xb
 1312 0363 14000000 		.4byte	.LASF60
 1313 0367 02       		.byte	0x2
 1314 0368 3C01     		.2byte	0x13c
 1315 036a 61040000 		.4byte	0x461
 1316 036e 08       		.byte	0x8
 1317 036f 0B       		.uleb128 0xb
 1318 0370 C1020000 		.4byte	.LASF61
 1319 0374 02       		.byte	0x2
 1320 0375 3D01     		.2byte	0x13d
 1321 0377 0D030000 		.4byte	0x30d
 1322 037b 0C       		.byte	0xc
 1323 037c 0A       		.uleb128 0xa
 1324 037d 70617200 		.ascii	"par\000"
 1325 0381 02       		.byte	0x2
 1326 0382 3F01     		.2byte	0x13f
 1327 0384 29030000 		.4byte	0x329
 1328 0388 10       		.byte	0x10
 1329 0389 00       		.byte	0
 1330 038a 03       		.uleb128 0x3
 1331 038b EB000000 		.4byte	.LASF62
 1332 038f 09       		.byte	0x9
 1333 0390 5B       		.byte	0x5b
 1334 0391 95030000 		.4byte	0x395
 1335 0395 0D       		.uleb128 0xd
 1336 0396 E0040000 		.4byte	.LASF63
 1337 039a 10       		.byte	0x10
 1338 039b 02       		.byte	0x2
 1339 039c 4901     		.2byte	0x149
 1340 039e D7030000 		.4byte	0x3d7
 1341 03a2 0B       		.uleb128 0xb
 1342 03a3 1C010000 		.4byte	.LASF50
 1343 03a7 02       		.byte	0x2
 1344 03a8 4A01     		.2byte	0x14a
 1345 03aa 5D070000 		.4byte	0x75d
 1346 03ae 00       		.byte	0
 1347 03af 0B       		.uleb128 0xb
 1348 03b0 57000000 		.4byte	.LASF53
 1349 03b4 02       		.byte	0x2
 1350 03b5 4C01     		.2byte	0x14c
 1351 03b7 5D070000 		.4byte	0x75d
 1352 03bb 04       		.byte	0x4
 1353 03bc 0B       		.uleb128 0xb
 1354 03bd 14000000 		.4byte	.LASF60
 1355 03c1 02       		.byte	0x2
 1356 03c2 4E01     		.2byte	0x14e
 1357 03c4 61040000 		.4byte	0x461
 1358 03c8 08       		.byte	0x8
 1359 03c9 0B       		.uleb128 0xb
 1360 03ca 2E060000 		.4byte	.LASF64
 1361 03ce 02       		.byte	0x2
 1362 03cf 5601     		.2byte	0x156
 1363 03d1 56040000 		.4byte	0x456
 1364 03d5 0C       		.byte	0xc
ARM GAS  /tmp/ccaFA0zm.s 			page 25


 1365 03d6 00       		.byte	0
 1366 03d7 03       		.uleb128 0x3
 1367 03d8 68000000 		.4byte	.LASF65
 1368 03dc 09       		.byte	0x9
 1369 03dd 60       		.byte	0x60
 1370 03de E2030000 		.4byte	0x3e2
 1371 03e2 0D       		.uleb128 0xd
 1372 03e3 2C030000 		.4byte	.LASF66
 1373 03e7 04       		.byte	0x4
 1374 03e8 02       		.byte	0x2
 1375 03e9 7001     		.2byte	0x170
 1376 03eb FD030000 		.4byte	0x3fd
 1377 03ef 0B       		.uleb128 0xb
 1378 03f0 AF070000 		.4byte	.LASF67
 1379 03f4 02       		.byte	0x2
 1380 03f5 7801     		.2byte	0x178
 1381 03f7 46070000 		.4byte	0x746
 1382 03fb 00       		.byte	0
 1383 03fc 00       		.byte	0
 1384 03fd 03       		.uleb128 0x3
 1385 03fe 30040000 		.4byte	.LASF68
 1386 0402 09       		.byte	0x9
 1387 0403 65       		.byte	0x65
 1388 0404 08040000 		.4byte	0x408
 1389 0408 0D       		.uleb128 0xd
 1390 0409 4F060000 		.4byte	.LASF69
 1391 040d 78       		.byte	0x78
 1392 040e 02       		.byte	0x2
 1393 040f 9001     		.2byte	0x190
 1394 0411 56040000 		.4byte	0x456
 1395 0415 0B       		.uleb128 0xb
 1396 0416 44030000 		.4byte	.LASF70
 1397 041a 02       		.byte	0x2
 1398 041b 9401     		.2byte	0x194
 1399 041d A6020000 		.4byte	0x2a6
 1400 0421 00       		.byte	0
 1401 0422 0B       		.uleb128 0xb
 1402 0423 7F020000 		.4byte	.LASF71
 1403 0427 02       		.byte	0x2
 1404 0428 9801     		.2byte	0x198
 1405 042a 8A030000 		.4byte	0x38a
 1406 042e 1C       		.byte	0x1c
 1407 042f 0A       		.uleb128 0xa
 1408 0430 64626700 		.ascii	"dbg\000"
 1409 0434 02       		.byte	0x2
 1410 0435 9C01     		.2byte	0x19c
 1411 0437 D7030000 		.4byte	0x3d7
 1412 043b 2C       		.byte	0x2c
 1413 043c 0B       		.uleb128 0xb
 1414 043d D8000000 		.4byte	.LASF72
 1415 0441 02       		.byte	0x2
 1416 0442 A001     		.2byte	0x1a0
 1417 0444 58010000 		.4byte	0x158
 1418 0448 30       		.byte	0x30
 1419 0449 0A       		.uleb128 0xa
 1420 044a 746D00   		.ascii	"tm\000"
 1421 044d 02       		.byte	0x2
ARM GAS  /tmp/ccaFA0zm.s 			page 26


 1422 044e A501     		.2byte	0x1a5
 1423 0450 5F060000 		.4byte	0x65f
 1424 0454 74       		.byte	0x74
 1425 0455 00       		.byte	0
 1426 0456 03       		.uleb128 0x3
 1427 0457 8E070000 		.4byte	.LASF73
 1428 045b 0A       		.byte	0xa
 1429 045c 6D       		.byte	0x6d
 1430 045d DF000000 		.4byte	0xdf
 1431 0461 03       		.uleb128 0x3
 1432 0462 5D030000 		.4byte	.LASF74
 1433 0466 0A       		.byte	0xa
 1434 0467 79       		.byte	0x79
 1435 0468 DF000000 		.4byte	0xdf
 1436 046c 04       		.uleb128 0x4
 1437 046d 04       		.byte	0x4
 1438 046e 07       		.byte	0x7
 1439 046f C4040000 		.4byte	.LASF75
 1440 0473 11       		.uleb128 0x11
 1441 0474 01010000 		.4byte	.LASF76
 1442 0478 0B       		.byte	0xb
 1443 0479 0408     		.2byte	0x804
 1444 047b DA000000 		.4byte	0xda
 1445 047f 12       		.uleb128 0x12
 1446 0480 8E030000 		.4byte	.LASF77
 1447 0484 0C       		.byte	0xc
 1448 0485 4C       		.byte	0x4c
 1449 0486 DF000000 		.4byte	0xdf
 1450 048a 13       		.uleb128 0x13
 1451 048b BF000000 		.4byte	0xbf
 1452 048f 9A040000 		.4byte	0x49a
 1453 0493 14       		.uleb128 0x14
 1454 0494 6C040000 		.4byte	0x46c
 1455 0498 0F       		.byte	0xf
 1456 0499 00       		.byte	0
 1457 049a 05       		.uleb128 0x5
 1458 049b 8A040000 		.4byte	0x48a
 1459 049f 12       		.uleb128 0x12
 1460 04a0 64040000 		.4byte	.LASF78
 1461 04a4 0C       		.byte	0xc
 1462 04a5 4E       		.byte	0x4e
 1463 04a6 9A040000 		.4byte	0x49a
 1464 04aa 13       		.uleb128 0x13
 1465 04ab BF000000 		.4byte	0xbf
 1466 04af BA040000 		.4byte	0x4ba
 1467 04b3 14       		.uleb128 0x14
 1468 04b4 6C040000 		.4byte	0x46c
 1469 04b8 07       		.byte	0x7
 1470 04b9 00       		.byte	0
 1471 04ba 05       		.uleb128 0x5
 1472 04bb AA040000 		.4byte	0x4aa
 1473 04bf 12       		.uleb128 0x12
 1474 04c0 19050000 		.4byte	.LASF79
 1475 04c4 0C       		.byte	0xc
 1476 04c5 4F       		.byte	0x4f
 1477 04c6 BA040000 		.4byte	0x4ba
 1478 04ca 03       		.uleb128 0x3
ARM GAS  /tmp/ccaFA0zm.s 			page 27


 1479 04cb 08030000 		.4byte	.LASF80
 1480 04cf 0D       		.byte	0xd
 1481 04d0 65       		.byte	0x65
 1482 04d1 29030000 		.4byte	0x329
 1483 04d5 03       		.uleb128 0x3
 1484 04d6 A2040000 		.4byte	.LASF81
 1485 04da 0D       		.byte	0xd
 1486 04db 6D       		.byte	0x6d
 1487 04dc EA000000 		.4byte	0xea
 1488 04e0 07       		.uleb128 0x7
 1489 04e1 27050000 		.4byte	.LASF82
 1490 04e5 04       		.byte	0x4
 1491 04e6 0D       		.byte	0xd
 1492 04e7 89       		.byte	0x89
 1493 04e8 F8040000 		.4byte	0x4f8
 1494 04ec 09       		.uleb128 0x9
 1495 04ed 737000   		.ascii	"sp\000"
 1496 04f0 0D       		.byte	0xd
 1497 04f1 8A       		.byte	0x8a
 1498 04f2 44060000 		.4byte	0x644
 1499 04f6 00       		.byte	0
 1500 04f7 00       		.byte	0
 1501 04f8 0D       		.uleb128 0xd
 1502 04f9 5C000000 		.4byte	.LASF83
 1503 04fd 64       		.byte	0x64
 1504 04fe 0E       		.byte	0xe
 1505 04ff 5901     		.2byte	0x159
 1506 0501 44060000 		.4byte	0x644
 1507 0505 0A       		.uleb128 0xa
 1508 0506 73313600 		.ascii	"s16\000"
 1509 050a 0E       		.byte	0xe
 1510 050b 5B01     		.2byte	0x15b
 1511 050d CA040000 		.4byte	0x4ca
 1512 0511 00       		.byte	0
 1513 0512 0A       		.uleb128 0xa
 1514 0513 73313700 		.ascii	"s17\000"
 1515 0517 0E       		.byte	0xe
 1516 0518 5C01     		.2byte	0x15c
 1517 051a CA040000 		.4byte	0x4ca
 1518 051e 04       		.byte	0x4
 1519 051f 0A       		.uleb128 0xa
 1520 0520 73313800 		.ascii	"s18\000"
 1521 0524 0E       		.byte	0xe
 1522 0525 5D01     		.2byte	0x15d
 1523 0527 CA040000 		.4byte	0x4ca
 1524 052b 08       		.byte	0x8
 1525 052c 0A       		.uleb128 0xa
 1526 052d 73313900 		.ascii	"s19\000"
 1527 0531 0E       		.byte	0xe
 1528 0532 5E01     		.2byte	0x15e
 1529 0534 CA040000 		.4byte	0x4ca
 1530 0538 0C       		.byte	0xc
 1531 0539 0A       		.uleb128 0xa
 1532 053a 73323000 		.ascii	"s20\000"
 1533 053e 0E       		.byte	0xe
 1534 053f 5F01     		.2byte	0x15f
 1535 0541 CA040000 		.4byte	0x4ca
ARM GAS  /tmp/ccaFA0zm.s 			page 28


 1536 0545 10       		.byte	0x10
 1537 0546 0A       		.uleb128 0xa
 1538 0547 73323100 		.ascii	"s21\000"
 1539 054b 0E       		.byte	0xe
 1540 054c 6001     		.2byte	0x160
 1541 054e CA040000 		.4byte	0x4ca
 1542 0552 14       		.byte	0x14
 1543 0553 0A       		.uleb128 0xa
 1544 0554 73323200 		.ascii	"s22\000"
 1545 0558 0E       		.byte	0xe
 1546 0559 6101     		.2byte	0x161
 1547 055b CA040000 		.4byte	0x4ca
 1548 055f 18       		.byte	0x18
 1549 0560 0A       		.uleb128 0xa
 1550 0561 73323300 		.ascii	"s23\000"
 1551 0565 0E       		.byte	0xe
 1552 0566 6201     		.2byte	0x162
 1553 0568 CA040000 		.4byte	0x4ca
 1554 056c 1C       		.byte	0x1c
 1555 056d 0A       		.uleb128 0xa
 1556 056e 73323400 		.ascii	"s24\000"
 1557 0572 0E       		.byte	0xe
 1558 0573 6301     		.2byte	0x163
 1559 0575 CA040000 		.4byte	0x4ca
 1560 0579 20       		.byte	0x20
 1561 057a 0A       		.uleb128 0xa
 1562 057b 73323500 		.ascii	"s25\000"
 1563 057f 0E       		.byte	0xe
 1564 0580 6401     		.2byte	0x164
 1565 0582 CA040000 		.4byte	0x4ca
 1566 0586 24       		.byte	0x24
 1567 0587 0A       		.uleb128 0xa
 1568 0588 73323600 		.ascii	"s26\000"
 1569 058c 0E       		.byte	0xe
 1570 058d 6501     		.2byte	0x165
 1571 058f CA040000 		.4byte	0x4ca
 1572 0593 28       		.byte	0x28
 1573 0594 0A       		.uleb128 0xa
 1574 0595 73323700 		.ascii	"s27\000"
 1575 0599 0E       		.byte	0xe
 1576 059a 6601     		.2byte	0x166
 1577 059c CA040000 		.4byte	0x4ca
 1578 05a0 2C       		.byte	0x2c
 1579 05a1 0A       		.uleb128 0xa
 1580 05a2 73323800 		.ascii	"s28\000"
 1581 05a6 0E       		.byte	0xe
 1582 05a7 6701     		.2byte	0x167
 1583 05a9 CA040000 		.4byte	0x4ca
 1584 05ad 30       		.byte	0x30
 1585 05ae 0A       		.uleb128 0xa
 1586 05af 73323900 		.ascii	"s29\000"
 1587 05b3 0E       		.byte	0xe
 1588 05b4 6801     		.2byte	0x168
 1589 05b6 CA040000 		.4byte	0x4ca
 1590 05ba 34       		.byte	0x34
 1591 05bb 0A       		.uleb128 0xa
 1592 05bc 73333000 		.ascii	"s30\000"
ARM GAS  /tmp/ccaFA0zm.s 			page 29


 1593 05c0 0E       		.byte	0xe
 1594 05c1 6901     		.2byte	0x169
 1595 05c3 CA040000 		.4byte	0x4ca
 1596 05c7 38       		.byte	0x38
 1597 05c8 0A       		.uleb128 0xa
 1598 05c9 73333100 		.ascii	"s31\000"
 1599 05cd 0E       		.byte	0xe
 1600 05ce 6A01     		.2byte	0x16a
 1601 05d0 CA040000 		.4byte	0x4ca
 1602 05d4 3C       		.byte	0x3c
 1603 05d5 0A       		.uleb128 0xa
 1604 05d6 723400   		.ascii	"r4\000"
 1605 05d9 0E       		.byte	0xe
 1606 05da 6C01     		.2byte	0x16c
 1607 05dc CA040000 		.4byte	0x4ca
 1608 05e0 40       		.byte	0x40
 1609 05e1 0A       		.uleb128 0xa
 1610 05e2 723500   		.ascii	"r5\000"
 1611 05e5 0E       		.byte	0xe
 1612 05e6 6D01     		.2byte	0x16d
 1613 05e8 CA040000 		.4byte	0x4ca
 1614 05ec 44       		.byte	0x44
 1615 05ed 0A       		.uleb128 0xa
 1616 05ee 723600   		.ascii	"r6\000"
 1617 05f1 0E       		.byte	0xe
 1618 05f2 6E01     		.2byte	0x16e
 1619 05f4 CA040000 		.4byte	0x4ca
 1620 05f8 48       		.byte	0x48
 1621 05f9 0A       		.uleb128 0xa
 1622 05fa 723700   		.ascii	"r7\000"
 1623 05fd 0E       		.byte	0xe
 1624 05fe 6F01     		.2byte	0x16f
 1625 0600 CA040000 		.4byte	0x4ca
 1626 0604 4C       		.byte	0x4c
 1627 0605 0A       		.uleb128 0xa
 1628 0606 723800   		.ascii	"r8\000"
 1629 0609 0E       		.byte	0xe
 1630 060a 7001     		.2byte	0x170
 1631 060c CA040000 		.4byte	0x4ca
 1632 0610 50       		.byte	0x50
 1633 0611 0A       		.uleb128 0xa
 1634 0612 723900   		.ascii	"r9\000"
 1635 0615 0E       		.byte	0xe
 1636 0616 7101     		.2byte	0x171
 1637 0618 CA040000 		.4byte	0x4ca
 1638 061c 54       		.byte	0x54
 1639 061d 0A       		.uleb128 0xa
 1640 061e 72313000 		.ascii	"r10\000"
 1641 0622 0E       		.byte	0xe
 1642 0623 7201     		.2byte	0x172
 1643 0625 CA040000 		.4byte	0x4ca
 1644 0629 58       		.byte	0x58
 1645 062a 0A       		.uleb128 0xa
 1646 062b 72313100 		.ascii	"r11\000"
 1647 062f 0E       		.byte	0xe
 1648 0630 7301     		.2byte	0x173
 1649 0632 CA040000 		.4byte	0x4ca
ARM GAS  /tmp/ccaFA0zm.s 			page 30


 1650 0636 5C       		.byte	0x5c
 1651 0637 0A       		.uleb128 0xa
 1652 0638 6C7200   		.ascii	"lr\000"
 1653 063b 0E       		.byte	0xe
 1654 063c 7401     		.2byte	0x174
 1655 063e CA040000 		.4byte	0x4ca
 1656 0642 60       		.byte	0x60
 1657 0643 00       		.byte	0
 1658 0644 0C       		.uleb128 0xc
 1659 0645 04       		.byte	0x4
 1660 0646 F8040000 		.4byte	0x4f8
 1661 064a 15       		.uleb128 0x15
 1662 064b 04       		.byte	0x4
 1663 064c 0F       		.byte	0xf
 1664 064d 38       		.byte	0x38
 1665 064e 5F060000 		.4byte	0x65f
 1666 0652 08       		.uleb128 0x8
 1667 0653 B9070000 		.4byte	.LASF84
 1668 0657 0F       		.byte	0xf
 1669 0658 3C       		.byte	0x3c
 1670 0659 F5000000 		.4byte	0xf5
 1671 065d 00       		.byte	0
 1672 065e 00       		.byte	0
 1673 065f 03       		.uleb128 0x3
 1674 0660 34050000 		.4byte	.LASF85
 1675 0664 0F       		.byte	0xf
 1676 0665 3D       		.byte	0x3d
 1677 0666 4A060000 		.4byte	0x64a
 1678 066a 16       		.uleb128 0x16
 1679 066b 04       		.byte	0x4
 1680 066c 02       		.byte	0x2
 1681 066d C6       		.byte	0xc6
 1682 066e CC060000 		.4byte	0x6cc
 1683 0672 17       		.uleb128 0x17
 1684 0673 1A000000 		.4byte	.LASF86
 1685 0677 02       		.byte	0x2
 1686 0678 CD       		.byte	0xcd
 1687 0679 2C010000 		.4byte	0x12c
 1688 067d 17       		.uleb128 0x17
 1689 067e CF000000 		.4byte	.LASF87
 1690 0682 02       		.byte	0x2
 1691 0683 D4       		.byte	0xd4
 1692 0684 2C010000 		.4byte	0x12c
 1693 0688 17       		.uleb128 0x17
 1694 0689 44040000 		.4byte	.LASF88
 1695 068d 02       		.byte	0x2
 1696 068e DB       		.byte	0xdb
 1697 068f 29030000 		.4byte	0x329
 1698 0693 17       		.uleb128 0x17
 1699 0694 B2030000 		.4byte	.LASF89
 1700 0698 02       		.byte	0x2
 1701 0699 E2       		.byte	0xe2
 1702 069a CC060000 		.4byte	0x6cc
 1703 069e 17       		.uleb128 0x17
 1704 069f E3000000 		.4byte	.LASF90
 1705 06a3 02       		.byte	0x2
 1706 06a4 E7       		.byte	0xe7
ARM GAS  /tmp/ccaFA0zm.s 			page 31


 1707 06a5 2C010000 		.4byte	0x12c
 1708 06a9 17       		.uleb128 0x17
 1709 06aa 9E030000 		.4byte	.LASF91
 1710 06ae 02       		.byte	0x2
 1711 06af F0       		.byte	0xf0
 1712 06b0 F7060000 		.4byte	0x6f7
 1713 06b4 17       		.uleb128 0x17
 1714 06b5 E8060000 		.4byte	.LASF92
 1715 06b9 02       		.byte	0x2
 1716 06ba F9       		.byte	0xf9
 1717 06bb 3A070000 		.4byte	0x73a
 1718 06bf 18       		.uleb128 0x18
 1719 06c0 48060000 		.4byte	.LASF93
 1720 06c4 02       		.byte	0x2
 1721 06c5 0101     		.2byte	0x101
 1722 06c7 37010000 		.4byte	0x137
 1723 06cb 00       		.byte	0
 1724 06cc 0C       		.uleb128 0xc
 1725 06cd 04       		.byte	0x4
 1726 06ce 41020000 		.4byte	0x241
 1727 06d2 07       		.uleb128 0x7
 1728 06d3 90060000 		.4byte	.LASF94
 1729 06d7 0C       		.byte	0xc
 1730 06d8 04       		.byte	0x4
 1731 06d9 34       		.byte	0x34
 1732 06da F7060000 		.4byte	0x6f7
 1733 06de 08       		.uleb128 0x8
 1734 06df E7030000 		.4byte	.LASF31
 1735 06e3 04       		.byte	0x4
 1736 06e4 35       		.byte	0x35
 1737 06e5 76020000 		.4byte	0x276
 1738 06e9 00       		.byte	0
 1739 06ea 09       		.uleb128 0x9
 1740 06eb 636E7400 		.ascii	"cnt\000"
 1741 06ef 04       		.byte	0x4
 1742 06f0 37       		.byte	0x37
 1743 06f1 42010000 		.4byte	0x142
 1744 06f5 08       		.byte	0x8
 1745 06f6 00       		.byte	0
 1746 06f7 0C       		.uleb128 0xc
 1747 06f8 04       		.byte	0x4
 1748 06f9 D2060000 		.4byte	0x6d2
 1749 06fd 07       		.uleb128 0x7
 1750 06fe C0070000 		.4byte	.LASF95
 1751 0702 14       		.byte	0x14
 1752 0703 10       		.byte	0x10
 1753 0704 39       		.byte	0x39
 1754 0705 3A070000 		.4byte	0x73a
 1755 0709 08       		.uleb128 0x8
 1756 070a E7030000 		.4byte	.LASF31
 1757 070e 10       		.byte	0x10
 1758 070f 3A       		.byte	0x3a
 1759 0710 76020000 		.4byte	0x276
 1760 0714 00       		.byte	0
 1761 0715 08       		.uleb128 0x8
 1762 0716 0B070000 		.4byte	.LASF96
 1763 071a 10       		.byte	0x10
ARM GAS  /tmp/ccaFA0zm.s 			page 32


 1764 071b 3C       		.byte	0x3c
 1765 071c 4C020000 		.4byte	0x24c
 1766 0720 08       		.byte	0x8
 1767 0721 08       		.uleb128 0x8
 1768 0722 1C010000 		.4byte	.LASF50
 1769 0726 10       		.byte	0x10
 1770 0727 3E       		.byte	0x3e
 1771 0728 A7080000 		.4byte	0x8a7
 1772 072c 0C       		.byte	0xc
 1773 072d 09       		.uleb128 0x9
 1774 072e 636E7400 		.ascii	"cnt\000"
 1775 0732 10       		.byte	0x10
 1776 0733 41       		.byte	0x41
 1777 0734 42010000 		.4byte	0x142
 1778 0738 10       		.byte	0x10
 1779 0739 00       		.byte	0
 1780 073a 0C       		.uleb128 0xc
 1781 073b 04       		.byte	0x4
 1782 073c FD060000 		.4byte	0x6fd
 1783 0740 0C       		.uleb128 0xc
 1784 0741 04       		.byte	0x4
 1785 0742 52070000 		.4byte	0x752
 1786 0746 06       		.uleb128 0x6
 1787 0747 40070000 		.4byte	0x740
 1788 074b 04       		.uleb128 0x4
 1789 074c 01       		.byte	0x1
 1790 074d 08       		.byte	0x8
 1791 074e 2A070000 		.4byte	.LASF97
 1792 0752 05       		.uleb128 0x5
 1793 0753 4B070000 		.4byte	0x74b
 1794 0757 0C       		.uleb128 0xc
 1795 0758 04       		.byte	0x4
 1796 0759 D5040000 		.4byte	0x4d5
 1797 075d 0C       		.uleb128 0xc
 1798 075e 04       		.byte	0x4
 1799 075f 2B030000 		.4byte	0x32b
 1800 0763 19       		.uleb128 0x19
 1801 0764 636800   		.ascii	"ch\000"
 1802 0767 02       		.byte	0x2
 1803 0768 C701     		.2byte	0x1c7
 1804 076a FD030000 		.4byte	0x3fd
 1805 076e 13       		.uleb128 0x13
 1806 076f D5040000 		.4byte	0x4d5
 1807 0773 79070000 		.4byte	0x779
 1808 0777 1A       		.uleb128 0x1a
 1809 0778 00       		.byte	0
 1810 0779 11       		.uleb128 0x11
 1811 077a A6060000 		.4byte	.LASF98
 1812 077e 11       		.byte	0x11
 1813 077f 1701     		.2byte	0x117
 1814 0781 6E070000 		.4byte	0x76e
 1815 0785 15       		.uleb128 0x15
 1816 0786 16       		.byte	0x16
 1817 0787 12       		.byte	0x12
 1818 0788 34       		.byte	0x34
 1819 0789 66080000 		.4byte	0x866
 1820 078d 08       		.uleb128 0x8
ARM GAS  /tmp/ccaFA0zm.s 			page 33


 1821 078e E6070000 		.4byte	.LASF99
 1822 0792 12       		.byte	0x12
 1823 0793 35       		.byte	0x35
 1824 0794 66080000 		.4byte	0x866
 1825 0798 00       		.byte	0
 1826 0799 08       		.uleb128 0x8
 1827 079a 4A030000 		.4byte	.LASF100
 1828 079e 12       		.byte	0x12
 1829 079f 36       		.byte	0x36
 1830 07a0 B4000000 		.4byte	0xb4
 1831 07a4 04       		.byte	0x4
 1832 07a5 08       		.uleb128 0x8
 1833 07a6 5C010000 		.4byte	.LASF101
 1834 07aa 12       		.byte	0x12
 1835 07ab 37       		.byte	0x37
 1836 07ac B4000000 		.4byte	0xb4
 1837 07b0 05       		.byte	0x5
 1838 07b1 08       		.uleb128 0x8
 1839 07b2 BC040000 		.4byte	.LASF102
 1840 07b6 12       		.byte	0x12
 1841 07b7 38       		.byte	0x38
 1842 07b8 C4000000 		.4byte	0xc4
 1843 07bc 06       		.byte	0x6
 1844 07bd 08       		.uleb128 0x8
 1845 07be 2F080000 		.4byte	.LASF103
 1846 07c2 12       		.byte	0x12
 1847 07c3 39       		.byte	0x39
 1848 07c4 B4000000 		.4byte	0xb4
 1849 07c8 08       		.byte	0x8
 1850 07c9 08       		.uleb128 0x8
 1851 07ca B8060000 		.4byte	.LASF104
 1852 07ce 12       		.byte	0x12
 1853 07cf 3A       		.byte	0x3a
 1854 07d0 B4000000 		.4byte	0xb4
 1855 07d4 09       		.byte	0x9
 1856 07d5 08       		.uleb128 0x8
 1857 07d6 DE050000 		.4byte	.LASF105
 1858 07da 12       		.byte	0x12
 1859 07db 3B       		.byte	0x3b
 1860 07dc B4000000 		.4byte	0xb4
 1861 07e0 0A       		.byte	0xa
 1862 07e1 08       		.uleb128 0x8
 1863 07e2 05060000 		.4byte	.LASF106
 1864 07e6 12       		.byte	0x12
 1865 07e7 3C       		.byte	0x3c
 1866 07e8 B4000000 		.4byte	0xb4
 1867 07ec 0B       		.byte	0xb
 1868 07ed 08       		.uleb128 0x8
 1869 07ee 3C040000 		.4byte	.LASF107
 1870 07f2 12       		.byte	0x12
 1871 07f3 3D       		.byte	0x3d
 1872 07f4 B4000000 		.4byte	0xb4
 1873 07f8 0C       		.byte	0xc
 1874 07f9 08       		.uleb128 0x8
 1875 07fa 0F050000 		.4byte	.LASF108
 1876 07fe 12       		.byte	0x12
 1877 07ff 3E       		.byte	0x3e
ARM GAS  /tmp/ccaFA0zm.s 			page 34


 1878 0800 B4000000 		.4byte	0xb4
 1879 0804 0D       		.byte	0xd
 1880 0805 08       		.uleb128 0x8
 1881 0806 C9070000 		.4byte	.LASF109
 1882 080a 12       		.byte	0x12
 1883 080b 3F       		.byte	0x3f
 1884 080c B4000000 		.4byte	0xb4
 1885 0810 0E       		.byte	0xe
 1886 0811 08       		.uleb128 0x8
 1887 0812 66080000 		.4byte	.LASF110
 1888 0816 12       		.byte	0x12
 1889 0817 40       		.byte	0x40
 1890 0818 B4000000 		.4byte	0xb4
 1891 081c 0F       		.byte	0xf
 1892 081d 08       		.uleb128 0x8
 1893 081e 0E060000 		.4byte	.LASF111
 1894 0822 12       		.byte	0x12
 1895 0823 41       		.byte	0x41
 1896 0824 B4000000 		.4byte	0xb4
 1897 0828 10       		.byte	0x10
 1898 0829 08       		.uleb128 0x8
 1899 082a A7080000 		.4byte	.LASF112
 1900 082e 12       		.byte	0x12
 1901 082f 42       		.byte	0x42
 1902 0830 B4000000 		.4byte	0xb4
 1903 0834 11       		.byte	0x11
 1904 0835 08       		.uleb128 0x8
 1905 0836 05090000 		.4byte	.LASF113
 1906 083a 12       		.byte	0x12
 1907 083b 43       		.byte	0x43
 1908 083c B4000000 		.4byte	0xb4
 1909 0840 12       		.byte	0x12
 1910 0841 08       		.uleb128 0x8
 1911 0842 F3030000 		.4byte	.LASF114
 1912 0846 12       		.byte	0x12
 1913 0847 44       		.byte	0x44
 1914 0848 B4000000 		.4byte	0xb4
 1915 084c 13       		.byte	0x13
 1916 084d 08       		.uleb128 0x8
 1917 084e C6020000 		.4byte	.LASF115
 1918 0852 12       		.byte	0x12
 1919 0853 45       		.byte	0x45
 1920 0854 B4000000 		.4byte	0xb4
 1921 0858 14       		.byte	0x14
 1922 0859 08       		.uleb128 0x8
 1923 085a 9D060000 		.4byte	.LASF116
 1924 085e 12       		.byte	0x12
 1925 085f 46       		.byte	0x46
 1926 0860 B4000000 		.4byte	0xb4
 1927 0864 15       		.byte	0x15
 1928 0865 00       		.byte	0
 1929 0866 13       		.uleb128 0x13
 1930 0867 4B070000 		.4byte	0x74b
 1931 086b 76080000 		.4byte	0x876
 1932 086f 14       		.uleb128 0x14
 1933 0870 6C040000 		.4byte	0x46c
 1934 0874 03       		.byte	0x3
ARM GAS  /tmp/ccaFA0zm.s 			page 35


 1935 0875 00       		.byte	0
 1936 0876 03       		.uleb128 0x3
 1937 0877 87050000 		.4byte	.LASF117
 1938 087b 12       		.byte	0x12
 1939 087c 47       		.byte	0x47
 1940 087d 85070000 		.4byte	0x785
 1941 0881 05       		.uleb128 0x5
 1942 0882 76080000 		.4byte	0x876
 1943 0886 12       		.uleb128 0x12
 1944 0887 B8030000 		.4byte	.LASF118
 1945 088b 12       		.byte	0x12
 1946 088c 6C       		.byte	0x6c
 1947 088d 81080000 		.4byte	0x881
 1948 0891 03       		.uleb128 0x3
 1949 0892 73060000 		.4byte	.LASF119
 1950 0896 04       		.byte	0x4
 1951 0897 38       		.byte	0x38
 1952 0898 D2060000 		.4byte	0x6d2
 1953 089c 03       		.uleb128 0x3
 1954 089d 4F030000 		.4byte	.LASF120
 1955 08a1 10       		.byte	0x10
 1956 08a2 34       		.byte	0x34
 1957 08a3 FD060000 		.4byte	0x6fd
 1958 08a7 0C       		.uleb128 0xc
 1959 08a8 04       		.byte	0x4
 1960 08a9 9C080000 		.4byte	0x89c
 1961 08ad 04       		.uleb128 0x4
 1962 08ae 01       		.byte	0x1
 1963 08af 02       		.byte	0x2
 1964 08b0 E9050000 		.4byte	.LASF121
 1965 08b4 03       		.uleb128 0x3
 1966 08b5 9E000000 		.4byte	.LASF122
 1967 08b9 13       		.byte	0x13
 1968 08ba 47       		.byte	0x47
 1969 08bb BF080000 		.4byte	0x8bf
 1970 08bf 0C       		.uleb128 0xc
 1971 08c0 04       		.byte	0x4
 1972 08c1 C5080000 		.4byte	0x8c5
 1973 08c5 1B       		.uleb128 0x1b
 1974 08c6 29030000 		.4byte	0x329
 1975 08ca D9080000 		.4byte	0x8d9
 1976 08ce 0F       		.uleb128 0xf
 1977 08cf 2C000000 		.4byte	0x2c
 1978 08d3 0F       		.uleb128 0xf
 1979 08d4 37000000 		.4byte	0x37
 1980 08d8 00       		.byte	0
 1981 08d9 15       		.uleb128 0x15
 1982 08da 08       		.byte	0x8
 1983 08db 13       		.byte	0x13
 1984 08dc 51       		.byte	0x51
 1985 08dd FA080000 		.4byte	0x8fa
 1986 08e1 08       		.uleb128 0x8
 1987 08e2 4A090000 		.4byte	.LASF123
 1988 08e6 13       		.byte	0x13
 1989 08e7 55       		.byte	0x55
 1990 08e8 FA080000 		.4byte	0x8fa
 1991 08ec 00       		.byte	0
ARM GAS  /tmp/ccaFA0zm.s 			page 36


 1992 08ed 08       		.uleb128 0x8
 1993 08ee 72040000 		.4byte	.LASF124
 1994 08f2 13       		.byte	0x13
 1995 08f3 59       		.byte	0x59
 1996 08f4 FA080000 		.4byte	0x8fa
 1997 08f8 04       		.byte	0x4
 1998 08f9 00       		.byte	0
 1999 08fa 0C       		.uleb128 0xc
 2000 08fb 04       		.byte	0x4
 2001 08fc B4000000 		.4byte	0xb4
 2002 0900 03       		.uleb128 0x3
 2003 0901 66050000 		.4byte	.LASF125
 2004 0905 13       		.byte	0x13
 2005 0906 5A       		.byte	0x5a
 2006 0907 D9080000 		.4byte	0x8d9
 2007 090b 12       		.uleb128 0x12
 2008 090c 71070000 		.4byte	.LASF126
 2009 0910 13       		.byte	0x13
 2010 0911 65       		.byte	0x65
 2011 0912 00090000 		.4byte	0x900
 2012 0916 07       		.uleb128 0x7
 2013 0917 5A080000 		.4byte	.LASF127
 2014 091b 04       		.byte	0x4
 2015 091c 14       		.byte	0x14
 2016 091d 38       		.byte	0x38
 2017 091e 2F090000 		.4byte	0x92f
 2018 0922 08       		.uleb128 0x8
 2019 0923 1C010000 		.4byte	.LASF50
 2020 0927 14       		.byte	0x14
 2021 0928 39       		.byte	0x39
 2022 0929 2F090000 		.4byte	0x92f
 2023 092d 00       		.byte	0
 2024 092e 00       		.byte	0
 2025 092f 0C       		.uleb128 0xc
 2026 0930 04       		.byte	0x4
 2027 0931 16090000 		.4byte	0x916
 2028 0935 15       		.uleb128 0x15
 2029 0936 10       		.byte	0x10
 2030 0937 14       		.byte	0x14
 2031 0938 40       		.byte	0x40
 2032 0939 6E090000 		.4byte	0x96e
 2033 093d 08       		.uleb128 0x8
 2034 093e 1C010000 		.4byte	.LASF50
 2035 0942 14       		.byte	0x14
 2036 0943 41       		.byte	0x41
 2037 0944 2F090000 		.4byte	0x92f
 2038 0948 00       		.byte	0
 2039 0949 08       		.uleb128 0x8
 2040 094a 23080000 		.4byte	.LASF128
 2041 094e 14       		.byte	0x14
 2042 094f 42       		.byte	0x42
 2043 0950 2C000000 		.4byte	0x2c
 2044 0954 04       		.byte	0x4
 2045 0955 08       		.uleb128 0x8
 2046 0956 57030000 		.4byte	.LASF129
 2047 095a 14       		.byte	0x14
 2048 095b 44       		.byte	0x44
ARM GAS  /tmp/ccaFA0zm.s 			page 37


 2049 095c 37000000 		.4byte	0x37
 2050 0960 08       		.byte	0x8
 2051 0961 08       		.uleb128 0x8
 2052 0962 77000000 		.4byte	.LASF130
 2053 0966 14       		.byte	0x14
 2054 0967 45       		.byte	0x45
 2055 0968 B4080000 		.4byte	0x8b4
 2056 096c 0C       		.byte	0xc
 2057 096d 00       		.byte	0
 2058 096e 03       		.uleb128 0x3
 2059 096f D4030000 		.4byte	.LASF131
 2060 0973 14       		.byte	0x14
 2061 0974 47       		.byte	0x47
 2062 0975 35090000 		.4byte	0x935
 2063 0979 07       		.uleb128 0x7
 2064 097a A6050000 		.4byte	.LASF132
 2065 097e 10       		.byte	0x10
 2066 097f 15       		.byte	0x15
 2067 0980 A9       		.byte	0xa9
 2068 0981 AA090000 		.4byte	0x9aa
 2069 0985 08       		.uleb128 0x8
 2070 0986 1C010000 		.4byte	.LASF50
 2071 098a 15       		.byte	0x15
 2072 098b AD       		.byte	0xad
 2073 098c AA090000 		.4byte	0x9aa
 2074 0990 00       		.byte	0
 2075 0991 08       		.uleb128 0x8
 2076 0992 91050000 		.4byte	.LASF39
 2077 0996 15       		.byte	0x15
 2078 0997 B1       		.byte	0xb1
 2079 0998 4D010000 		.4byte	0x14d
 2080 099c 04       		.byte	0x4
 2081 099d 08       		.uleb128 0x8
 2082 099e E2030000 		.4byte	.LASF35
 2083 09a2 15       		.byte	0x15
 2084 09a3 B3       		.byte	0xb3
 2085 09a4 B0090000 		.4byte	0x9b0
 2086 09a8 08       		.byte	0x8
 2087 09a9 00       		.byte	0
 2088 09aa 0C       		.uleb128 0xc
 2089 09ab 04       		.byte	0x4
 2090 09ac 79090000 		.4byte	0x979
 2091 09b0 13       		.uleb128 0x13
 2092 09b1 4B070000 		.4byte	0x74b
 2093 09b5 C0090000 		.4byte	0x9c0
 2094 09b9 14       		.uleb128 0x14
 2095 09ba 6C040000 		.4byte	0x46c
 2096 09be 07       		.byte	0x7
 2097 09bf 00       		.byte	0
 2098 09c0 03       		.uleb128 0x3
 2099 09c1 0E010000 		.4byte	.LASF133
 2100 09c5 15       		.byte	0x15
 2101 09c6 B7       		.byte	0xb7
 2102 09c7 79090000 		.4byte	0x979
 2103 09cb 07       		.uleb128 0x7
 2104 09cc 03050000 		.4byte	.LASF134
 2105 09d0 04       		.byte	0x4
ARM GAS  /tmp/ccaFA0zm.s 			page 38


 2106 09d1 15       		.byte	0x15
 2107 09d2 BC       		.byte	0xbc
 2108 09d3 E4090000 		.4byte	0x9e4
 2109 09d7 08       		.uleb128 0x8
 2110 09d8 1C010000 		.4byte	.LASF50
 2111 09dc 15       		.byte	0x15
 2112 09dd BD       		.byte	0xbd
 2113 09de E4090000 		.4byte	0x9e4
 2114 09e2 00       		.byte	0
 2115 09e3 00       		.byte	0
 2116 09e4 0C       		.uleb128 0xc
 2117 09e5 04       		.byte	0x4
 2118 09e6 C0090000 		.4byte	0x9c0
 2119 09ea 03       		.uleb128 0x3
 2120 09eb 25040000 		.4byte	.LASF135
 2121 09ef 15       		.byte	0x15
 2122 09f0 BE       		.byte	0xbe
 2123 09f1 CB090000 		.4byte	0x9cb
 2124 09f5 0D       		.uleb128 0xd
 2125 09f6 37080000 		.4byte	.LASF136
 2126 09fa 48       		.byte	0x48
 2127 09fb 15       		.byte	0x15
 2128 09fc 3E01     		.2byte	0x13e
 2129 09fe 6B0A0000 		.4byte	0xa6b
 2130 0a02 0A       		.uleb128 0xa
 2131 0a03 6D747800 		.ascii	"mtx\000"
 2132 0a07 15       		.byte	0x15
 2133 0a08 4301     		.2byte	0x143
 2134 0a0a 9C080000 		.4byte	0x89c
 2135 0a0e 00       		.byte	0
 2136 0a0f 0B       		.uleb128 0xb
 2137 0a10 3F070000 		.4byte	.LASF137
 2138 0a14 15       		.byte	0x15
 2139 0a15 4A01     		.2byte	0x14a
 2140 0a17 EA090000 		.4byte	0x9ea
 2141 0a1b 14       		.byte	0x14
 2142 0a1c 0B       		.uleb128 0xb
 2143 0a1d 6A060000 		.4byte	.LASF138
 2144 0a21 15       		.byte	0x15
 2145 0a22 4E01     		.2byte	0x14e
 2146 0a24 6E090000 		.4byte	0x96e
 2147 0a28 18       		.byte	0x18
 2148 0a29 0B       		.uleb128 0xb
 2149 0a2a FC030000 		.4byte	.LASF139
 2150 0a2e 15       		.byte	0x15
 2151 0a2f 5301     		.2byte	0x153
 2152 0a31 EA090000 		.4byte	0x9ea
 2153 0a35 28       		.byte	0x28
 2154 0a36 0B       		.uleb128 0xb
 2155 0a37 8B000000 		.4byte	.LASF140
 2156 0a3b 15       		.byte	0x15
 2157 0a3c 5901     		.2byte	0x159
 2158 0a3e EA090000 		.4byte	0x9ea
 2159 0a42 2C       		.byte	0x2c
 2160 0a43 0B       		.uleb128 0xb
 2161 0a44 4A050000 		.4byte	.LASF141
 2162 0a48 15       		.byte	0x15
ARM GAS  /tmp/ccaFA0zm.s 			page 39


 2163 0a49 5D01     		.2byte	0x15d
 2164 0a4b 6E090000 		.4byte	0x96e
 2165 0a4f 30       		.byte	0x30
 2166 0a50 0B       		.uleb128 0xb
 2167 0a51 23030000 		.4byte	.LASF142
 2168 0a55 15       		.byte	0x15
 2169 0a56 6301     		.2byte	0x163
 2170 0a58 EA090000 		.4byte	0x9ea
 2171 0a5c 40       		.byte	0x40
 2172 0a5d 0B       		.uleb128 0xb
 2173 0a5e 7D080000 		.4byte	.LASF143
 2174 0a62 15       		.byte	0x15
 2175 0a63 6901     		.2byte	0x169
 2176 0a65 EA090000 		.4byte	0x9ea
 2177 0a69 44       		.byte	0x44
 2178 0a6a 00       		.byte	0
 2179 0a6b 1C       		.uleb128 0x1c
 2180 0a6c F3080000 		.4byte	.LASF144
 2181 0a70 15       		.byte	0x15
 2182 0a71 7101     		.2byte	0x171
 2183 0a73 F5090000 		.4byte	0x9f5
 2184 0a77 11       		.uleb128 0x11
 2185 0a78 C1030000 		.4byte	.LASF145
 2186 0a7c 15       		.byte	0x15
 2187 0a7d 7C01     		.2byte	0x17c
 2188 0a7f 6B0A0000 		.4byte	0xa6b
 2189 0a83 1D       		.uleb128 0x1d
 2190 0a84 63070000 		.4byte	0x763
 2191 0a88 01       		.byte	0x1
 2192 0a89 2A       		.byte	0x2a
 2193 0a8a 05       		.uleb128 0x5
 2194 0a8b 03       		.byte	0x3
 2195 0a8c 00000000 		.4byte	ch
 2196 0a90 1E       		.uleb128 0x1e
 2197 0a91 11030000 		.4byte	.LASF148
 2198 0a95 01       		.byte	0x1
 2199 0a96 3A02     		.2byte	0x23a
 2200 0a98 00000000 		.4byte	.LFB301
 2201 0a9c 3C000000 		.4byte	.LFE301-.LFB301
 2202 0aa0 01       		.uleb128 0x1
 2203 0aa1 9C       		.byte	0x9c
 2204 0aa2 6B0B0000 		.4byte	0xb6b
 2205 0aa6 1F       		.uleb128 0x1f
 2206 0aa7 6F747000 		.ascii	"otp\000"
 2207 0aab 01       		.byte	0x1
 2208 0aac 3B02     		.2byte	0x23b
 2209 0aae 4C020000 		.4byte	0x24c
 2210 0ab2 00000000 		.4byte	.LLST23
 2211 0ab6 20       		.uleb128 0x20
 2212 0ab7 A8000000 		.4byte	.Ldebug_ranges0+0xa8
 2213 0abb 2D0B0000 		.4byte	0xb2d
 2214 0abf 1F       		.uleb128 0x1f
 2215 0ac0 72313300 		.ascii	"r13\000"
 2216 0ac4 01       		.byte	0x1
 2217 0ac5 5E02     		.2byte	0x25e
 2218 0ac7 44060000 		.4byte	0x644
 2219 0acb 34000000 		.4byte	.LLST26
ARM GAS  /tmp/ccaFA0zm.s 			page 40


 2220 0acf 21       		.uleb128 0x21
 2221 0ad0 28000000 		.4byte	.LBB161
 2222 0ad4 04000000 		.4byte	.LBE161-.LBB161
 2223 0ad8 FF0A0000 		.4byte	0xaff
 2224 0adc 22       		.uleb128 0x22
 2225 0add 70050000 		.4byte	.LASF147
 2226 0ae1 01       		.byte	0x1
 2227 0ae2 5E02     		.2byte	0x25e
 2228 0ae4 EE0A0000 		.4byte	0xaee
 2229 0ae8 0F       		.uleb128 0xf
 2230 0ae9 4C020000 		.4byte	0x24c
 2231 0aed 00       		.byte	0
 2232 0aee 23       		.uleb128 0x23
 2233 0aef 2C000000 		.4byte	.LVL63
 2234 0af3 83120000 		.4byte	0x1283
 2235 0af7 24       		.uleb128 0x24
 2236 0af8 01       		.uleb128 0x1
 2237 0af9 50       		.byte	0x50
 2238 0afa 02       		.uleb128 0x2
 2239 0afb 75       		.byte	0x75
 2240 0afc 00       		.sleb128 0
 2241 0afd 00       		.byte	0
 2242 0afe 00       		.byte	0
 2243 0aff 25       		.uleb128 0x25
 2244 0b00 67120000 		.4byte	0x1267
 2245 0b04 1C000000 		.4byte	.LBB159
 2246 0b08 04000000 		.4byte	.LBE159-.LBB159
 2247 0b0c 01       		.byte	0x1
 2248 0b0d 5E02     		.2byte	0x25e
 2249 0b0f 230B0000 		.4byte	0xb23
 2250 0b13 26       		.uleb128 0x26
 2251 0b14 1C000000 		.4byte	.LBB160
 2252 0b18 04000000 		.4byte	.LBE160-.LBB160
 2253 0b1c 27       		.uleb128 0x27
 2254 0b1d 77120000 		.4byte	0x1277
 2255 0b21 00       		.byte	0
 2256 0b22 00       		.byte	0
 2257 0b23 28       		.uleb128 0x28
 2258 0b24 38000000 		.4byte	.LVL65
 2259 0b28 8F120000 		.4byte	0x128f
 2260 0b2c 00       		.byte	0
 2261 0b2d 29       		.uleb128 0x29
 2262 0b2e E0110000 		.4byte	0x11e0
 2263 0b32 04000000 		.4byte	.LBB154
 2264 0b36 90000000 		.4byte	.Ldebug_ranges0+0x90
 2265 0b3a 01       		.byte	0x1
 2266 0b3b 3E02     		.2byte	0x23e
 2267 0b3d 5A0B0000 		.4byte	0xb5a
 2268 0b41 2A       		.uleb128 0x2a
 2269 0b42 F1110000 		.4byte	0x11f1
 2270 0b46 55000000 		.4byte	.LLST24
 2271 0b4a 2B       		.uleb128 0x2b
 2272 0b4b 90000000 		.4byte	.Ldebug_ranges0+0x90
 2273 0b4f 2C       		.uleb128 0x2c
 2274 0b50 FD110000 		.4byte	0x11fd
 2275 0b54 6D000000 		.4byte	.LLST25
 2276 0b58 00       		.byte	0
ARM GAS  /tmp/ccaFA0zm.s 			page 41


 2277 0b59 00       		.byte	0
 2278 0b5a 23       		.uleb128 0x23
 2279 0b5b 1A000000 		.4byte	.LVL59
 2280 0b5f 90100000 		.4byte	0x1090
 2281 0b63 24       		.uleb128 0x24
 2282 0b64 01       		.uleb128 0x1
 2283 0b65 50       		.byte	0x50
 2284 0b66 02       		.uleb128 0x2
 2285 0b67 70       		.byte	0x70
 2286 0b68 00       		.sleb128 0
 2287 0b69 00       		.byte	0
 2288 0b6a 00       		.byte	0
 2289 0b6b 2D       		.uleb128 0x2d
 2290 0b6c 2A000000 		.4byte	.LASF146
 2291 0b70 01       		.byte	0x1
 2292 0b71 1C02     		.2byte	0x21c
 2293 0b73 A20B0000 		.4byte	0xba2
 2294 0b77 2E       		.uleb128 0x2e
 2295 0b78 6F747000 		.ascii	"otp\000"
 2296 0b7c 01       		.byte	0x1
 2297 0b7d 1D02     		.2byte	0x21d
 2298 0b7f 4C020000 		.4byte	0x24c
 2299 0b83 2F       		.uleb128 0x2f
 2300 0b84 2E       		.uleb128 0x2e
 2301 0b85 72313300 		.ascii	"r13\000"
 2302 0b89 01       		.byte	0x1
 2303 0b8a 2C02     		.2byte	0x22c
 2304 0b8c 44060000 		.4byte	0x644
 2305 0b90 2F       		.uleb128 0x2f
 2306 0b91 30       		.uleb128 0x30
 2307 0b92 70050000 		.4byte	.LASF147
 2308 0b96 01       		.byte	0x1
 2309 0b97 2C02     		.2byte	0x22c
 2310 0b99 0F       		.uleb128 0xf
 2311 0b9a 4C020000 		.4byte	0x24c
 2312 0b9e 00       		.byte	0
 2313 0b9f 00       		.byte	0
 2314 0ba0 00       		.byte	0
 2315 0ba1 00       		.byte	0
 2316 0ba2 1E       		.uleb128 0x1e
 2317 0ba3 DB080000 		.4byte	.LASF149
 2318 0ba7 01       		.byte	0x1
 2319 0ba8 FB01     		.2byte	0x1fb
 2320 0baa 00000000 		.4byte	.LFB299
 2321 0bae 3C000000 		.4byte	.LFE299-.LFB299
 2322 0bb2 01       		.uleb128 0x1
 2323 0bb3 9C       		.byte	0x9c
 2324 0bb4 7D0C0000 		.4byte	0xc7d
 2325 0bb8 1F       		.uleb128 0x1f
 2326 0bb9 6F747000 		.ascii	"otp\000"
 2327 0bbd 01       		.byte	0x1
 2328 0bbe FC01     		.2byte	0x1fc
 2329 0bc0 4C020000 		.4byte	0x24c
 2330 0bc4 80000000 		.4byte	.LLST19
 2331 0bc8 20       		.uleb128 0x20
 2332 0bc9 78000000 		.4byte	.Ldebug_ranges0+0x78
 2333 0bcd 3F0C0000 		.4byte	0xc3f
ARM GAS  /tmp/ccaFA0zm.s 			page 42


 2334 0bd1 1F       		.uleb128 0x1f
 2335 0bd2 72313300 		.ascii	"r13\000"
 2336 0bd6 01       		.byte	0x1
 2337 0bd7 1002     		.2byte	0x210
 2338 0bd9 44060000 		.4byte	0x644
 2339 0bdd B4000000 		.4byte	.LLST22
 2340 0be1 21       		.uleb128 0x21
 2341 0be2 28000000 		.4byte	.LBB152
 2342 0be6 04000000 		.4byte	.LBE152-.LBB152
 2343 0bea 110C0000 		.4byte	0xc11
 2344 0bee 22       		.uleb128 0x22
 2345 0bef 70050000 		.4byte	.LASF147
 2346 0bf3 01       		.byte	0x1
 2347 0bf4 1002     		.2byte	0x210
 2348 0bf6 000C0000 		.4byte	0xc00
 2349 0bfa 0F       		.uleb128 0xf
 2350 0bfb 4C020000 		.4byte	0x24c
 2351 0bff 00       		.byte	0
 2352 0c00 23       		.uleb128 0x23
 2353 0c01 2C000000 		.4byte	.LVL54
 2354 0c05 83120000 		.4byte	0x1283
 2355 0c09 24       		.uleb128 0x24
 2356 0c0a 01       		.uleb128 0x1
 2357 0c0b 50       		.byte	0x50
 2358 0c0c 02       		.uleb128 0x2
 2359 0c0d 75       		.byte	0x75
 2360 0c0e 00       		.sleb128 0
 2361 0c0f 00       		.byte	0
 2362 0c10 00       		.byte	0
 2363 0c11 25       		.uleb128 0x25
 2364 0c12 67120000 		.4byte	0x1267
 2365 0c16 1C000000 		.4byte	.LBB150
 2366 0c1a 04000000 		.4byte	.LBE150-.LBB150
 2367 0c1e 01       		.byte	0x1
 2368 0c1f 1002     		.2byte	0x210
 2369 0c21 350C0000 		.4byte	0xc35
 2370 0c25 26       		.uleb128 0x26
 2371 0c26 1C000000 		.4byte	.LBB151
 2372 0c2a 04000000 		.4byte	.LBE151-.LBB151
 2373 0c2e 27       		.uleb128 0x27
 2374 0c2f 77120000 		.4byte	0x1277
 2375 0c33 00       		.byte	0
 2376 0c34 00       		.byte	0
 2377 0c35 28       		.uleb128 0x28
 2378 0c36 38000000 		.4byte	.LVL56
 2379 0c3a 8F120000 		.4byte	0x128f
 2380 0c3e 00       		.byte	0
 2381 0c3f 29       		.uleb128 0x29
 2382 0c40 E0110000 		.4byte	0x11e0
 2383 0c44 04000000 		.4byte	.LBB145
 2384 0c48 60000000 		.4byte	.Ldebug_ranges0+0x60
 2385 0c4c 01       		.byte	0x1
 2386 0c4d FF01     		.2byte	0x1ff
 2387 0c4f 6C0C0000 		.4byte	0xc6c
 2388 0c53 2A       		.uleb128 0x2a
 2389 0c54 F1110000 		.4byte	0x11f1
 2390 0c58 D5000000 		.4byte	.LLST20
ARM GAS  /tmp/ccaFA0zm.s 			page 43


 2391 0c5c 2B       		.uleb128 0x2b
 2392 0c5d 60000000 		.4byte	.Ldebug_ranges0+0x60
 2393 0c61 2C       		.uleb128 0x2c
 2394 0c62 FD110000 		.4byte	0x11fd
 2395 0c66 ED000000 		.4byte	.LLST21
 2396 0c6a 00       		.byte	0
 2397 0c6b 00       		.byte	0
 2398 0c6c 23       		.uleb128 0x23
 2399 0c6d 1A000000 		.4byte	.LVL50
 2400 0c71 E5100000 		.4byte	0x10e5
 2401 0c75 24       		.uleb128 0x24
 2402 0c76 01       		.uleb128 0x1
 2403 0c77 50       		.byte	0x50
 2404 0c78 02       		.uleb128 0x2
 2405 0c79 70       		.byte	0x70
 2406 0c7a 00       		.sleb128 0
 2407 0c7b 00       		.byte	0
 2408 0c7c 00       		.byte	0
 2409 0c7d 31       		.uleb128 0x31
 2410 0c7e D2020000 		.4byte	.LASF152
 2411 0c82 01       		.byte	0x1
 2412 0c83 DF01     		.2byte	0x1df
 2413 0c85 AD080000 		.4byte	0x8ad
 2414 0c89 00000000 		.4byte	.LFB298
 2415 0c8d 18000000 		.4byte	.LFE298-.LFB298
 2416 0c91 01       		.uleb128 0x1
 2417 0c92 9C       		.byte	0x9c
 2418 0c93 C00C0000 		.4byte	0xcc0
 2419 0c97 32       		.uleb128 0x32
 2420 0c98 703100   		.ascii	"p1\000"
 2421 0c9b 01       		.byte	0x1
 2422 0c9c E001     		.2byte	0x1e0
 2423 0c9e 21010000 		.4byte	0x121
 2424 0ca2 08       		.uleb128 0x8
 2425 0ca3 03       		.byte	0x3
 2426 0ca4 00000000 		.4byte	ch
 2427 0ca8 06       		.byte	0x6
 2428 0ca9 23       		.byte	0x23
 2429 0caa 08       		.uleb128 0x8
 2430 0cab 32       		.uleb128 0x32
 2431 0cac 703200   		.ascii	"p2\000"
 2432 0caf 01       		.byte	0x1
 2433 0cb0 E101     		.2byte	0x1e1
 2434 0cb2 21010000 		.4byte	0x121
 2435 0cb6 08       		.uleb128 0x8
 2436 0cb7 03       		.byte	0x3
 2437 0cb8 18000000 		.4byte	ch+24
 2438 0cbc 06       		.byte	0x6
 2439 0cbd 23       		.byte	0x23
 2440 0cbe 08       		.uleb128 0x8
 2441 0cbf 00       		.byte	0
 2442 0cc0 1E       		.uleb128 0x1e
 2443 0cc1 EC020000 		.4byte	.LASF150
 2444 0cc5 01       		.byte	0x1
 2445 0cc6 C801     		.2byte	0x1c8
 2446 0cc8 00000000 		.4byte	.LFB297
 2447 0ccc 12000000 		.4byte	.LFE297-.LFB297
ARM GAS  /tmp/ccaFA0zm.s 			page 44


 2448 0cd0 01       		.uleb128 0x1
 2449 0cd1 9C       		.byte	0x9c
 2450 0cd2 E90C0000 		.4byte	0xce9
 2451 0cd6 33       		.uleb128 0x33
 2452 0cd7 06000000 		.4byte	.LVL66
 2453 0cdb B7110000 		.4byte	0x11b7
 2454 0cdf 28       		.uleb128 0x28
 2455 0ce0 10000000 		.4byte	.LVL67
 2456 0ce4 900A0000 		.4byte	0xa90
 2457 0ce8 00       		.byte	0
 2458 0ce9 1E       		.uleb128 0x1e
 2459 0cea 16080000 		.4byte	.LASF151
 2460 0cee 01       		.byte	0x1
 2461 0cef 9C01     		.2byte	0x19c
 2462 0cf1 00000000 		.4byte	.LFB296
 2463 0cf5 4C000000 		.4byte	.LFE296-.LFB296
 2464 0cf9 01       		.uleb128 0x1
 2465 0cfa 9C       		.byte	0x9c
 2466 0cfb DC0D0000 		.4byte	0xddc
 2467 0cff 34       		.uleb128 0x34
 2468 0d00 6E747000 		.ascii	"ntp\000"
 2469 0d04 01       		.byte	0x1
 2470 0d05 9C01     		.2byte	0x19c
 2471 0d07 4C020000 		.4byte	0x24c
 2472 0d0b 00010000 		.4byte	.LLST15
 2473 0d0f 34       		.uleb128 0x34
 2474 0d10 6D736700 		.ascii	"msg\000"
 2475 0d14 01       		.byte	0x1
 2476 0d15 9C01     		.2byte	0x19c
 2477 0d17 2C010000 		.4byte	0x12c
 2478 0d1b 42010000 		.4byte	.LLST16
 2479 0d1f 1F       		.uleb128 0x1f
 2480 0d20 6F747000 		.ascii	"otp\000"
 2481 0d24 01       		.byte	0x1
 2482 0d25 9D01     		.2byte	0x19d
 2483 0d27 4C020000 		.4byte	0x24c
 2484 0d2b 95010000 		.4byte	.LLST17
 2485 0d2f 35       		.uleb128 0x35
 2486 0d30 61060000 		.4byte	.LASF158
 2487 0d34 EC0D0000 		.4byte	0xdec
 2488 0d38 20       		.uleb128 0x20
 2489 0d39 48000000 		.4byte	.Ldebug_ranges0+0x48
 2490 0d3d B70D0000 		.4byte	0xdb7
 2491 0d41 1F       		.uleb128 0x1f
 2492 0d42 72313300 		.ascii	"r13\000"
 2493 0d46 01       		.byte	0x1
 2494 0d47 BD01     		.2byte	0x1bd
 2495 0d49 44060000 		.4byte	0x644
 2496 0d4d DF010000 		.4byte	.LLST18
 2497 0d51 21       		.uleb128 0x21
 2498 0d52 36000000 		.4byte	.LBB143
 2499 0d56 04000000 		.4byte	.LBE143-.LBB143
 2500 0d5a 810D0000 		.4byte	0xd81
 2501 0d5e 22       		.uleb128 0x22
 2502 0d5f 70050000 		.4byte	.LASF147
 2503 0d63 01       		.byte	0x1
 2504 0d64 BD01     		.2byte	0x1bd
ARM GAS  /tmp/ccaFA0zm.s 			page 45


 2505 0d66 700D0000 		.4byte	0xd70
 2506 0d6a 0F       		.uleb128 0xf
 2507 0d6b 4C020000 		.4byte	0x24c
 2508 0d6f 00       		.byte	0
 2509 0d70 23       		.uleb128 0x23
 2510 0d71 3A000000 		.4byte	.LVL44
 2511 0d75 83120000 		.4byte	0x1283
 2512 0d79 24       		.uleb128 0x24
 2513 0d7a 01       		.uleb128 0x1
 2514 0d7b 50       		.byte	0x50
 2515 0d7c 02       		.uleb128 0x2
 2516 0d7d 75       		.byte	0x75
 2517 0d7e 00       		.sleb128 0
 2518 0d7f 00       		.byte	0
 2519 0d80 00       		.byte	0
 2520 0d81 25       		.uleb128 0x25
 2521 0d82 67120000 		.4byte	0x1267
 2522 0d86 2A000000 		.4byte	.LBB141
 2523 0d8a 04000000 		.4byte	.LBE141-.LBB141
 2524 0d8e 01       		.byte	0x1
 2525 0d8f BD01     		.2byte	0x1bd
 2526 0d91 A50D0000 		.4byte	0xda5
 2527 0d95 26       		.uleb128 0x26
 2528 0d96 2A000000 		.4byte	.LBB142
 2529 0d9a 04000000 		.4byte	.LBE142-.LBB142
 2530 0d9e 27       		.uleb128 0x27
 2531 0d9f 77120000 		.4byte	0x1277
 2532 0da3 00       		.byte	0
 2533 0da4 00       		.byte	0
 2534 0da5 36       		.uleb128 0x36
 2535 0da6 46000000 		.4byte	.LVL46
 2536 0daa 8F120000 		.4byte	0x128f
 2537 0dae 24       		.uleb128 0x24
 2538 0daf 01       		.uleb128 0x1
 2539 0db0 50       		.byte	0x50
 2540 0db1 03       		.uleb128 0x3
 2541 0db2 F3       		.byte	0xf3
 2542 0db3 01       		.uleb128 0x1
 2543 0db4 50       		.byte	0x50
 2544 0db5 00       		.byte	0
 2545 0db6 00       		.byte	0
 2546 0db7 37       		.uleb128 0x37
 2547 0db8 1A000000 		.4byte	.LVL38
 2548 0dbc E5100000 		.4byte	0x10e5
 2549 0dc0 CB0D0000 		.4byte	0xdcb
 2550 0dc4 24       		.uleb128 0x24
 2551 0dc5 01       		.uleb128 0x1
 2552 0dc6 50       		.byte	0x50
 2553 0dc7 02       		.uleb128 0x2
 2554 0dc8 70       		.byte	0x70
 2555 0dc9 00       		.sleb128 0
 2556 0dca 00       		.byte	0
 2557 0dcb 23       		.uleb128 0x23
 2558 0dcc 20000000 		.4byte	.LVL40
 2559 0dd0 E5100000 		.4byte	0x10e5
 2560 0dd4 24       		.uleb128 0x24
 2561 0dd5 01       		.uleb128 0x1
ARM GAS  /tmp/ccaFA0zm.s 			page 46


 2562 0dd6 50       		.byte	0x50
 2563 0dd7 02       		.uleb128 0x2
 2564 0dd8 70       		.byte	0x70
 2565 0dd9 00       		.sleb128 0
 2566 0dda 00       		.byte	0
 2567 0ddb 00       		.byte	0
 2568 0ddc 13       		.uleb128 0x13
 2569 0ddd 52070000 		.4byte	0x752
 2570 0de1 EC0D0000 		.4byte	0xdec
 2571 0de5 14       		.uleb128 0x14
 2572 0de6 6C040000 		.4byte	0x46c
 2573 0dea 0C       		.byte	0xc
 2574 0deb 00       		.byte	0
 2575 0dec 05       		.uleb128 0x5
 2576 0ded DC0D0000 		.4byte	0xddc
 2577 0df1 31       		.uleb128 0x31
 2578 0df2 B1080000 		.4byte	.LASF153
 2579 0df6 01       		.byte	0x1
 2580 0df7 7701     		.2byte	0x177
 2581 0df9 2C010000 		.4byte	0x12c
 2582 0dfd 00000000 		.4byte	.LFB295
 2583 0e01 3C000000 		.4byte	.LFE295-.LFB295
 2584 0e05 01       		.uleb128 0x1
 2585 0e06 9C       		.byte	0x9c
 2586 0e07 990E0000 		.4byte	0xe99
 2587 0e0b 38       		.uleb128 0x38
 2588 0e0c 1B060000 		.4byte	.LASF154
 2589 0e10 01       		.byte	0x1
 2590 0e11 7701     		.2byte	0x177
 2591 0e13 0B010000 		.4byte	0x10b
 2592 0e17 00020000 		.4byte	.LLST13
 2593 0e1b 38       		.uleb128 0x38
 2594 0e1c CC030000 		.4byte	.LASF155
 2595 0e20 01       		.byte	0x1
 2596 0e21 7701     		.2byte	0x177
 2597 0e23 61040000 		.4byte	0x461
 2598 0e27 3A020000 		.4byte	.LLST14
 2599 0e2b 21       		.uleb128 0x21
 2600 0e2c 0C000000 		.4byte	.LBB139
 2601 0e30 1A000000 		.4byte	.LBE139-.LBB139
 2602 0e34 8F0E0000 		.4byte	0xe8f
 2603 0e38 32       		.uleb128 0x32
 2604 0e39 767400   		.ascii	"vt\000"
 2605 0e3c 01       		.byte	0x1
 2606 0e3d 7C01     		.2byte	0x17c
 2607 0e3f 2B030000 		.4byte	0x32b
 2608 0e43 02       		.uleb128 0x2
 2609 0e44 91       		.byte	0x91
 2610 0e45 5C       		.sleb128 -36
 2611 0e46 39       		.uleb128 0x39
 2612 0e47 16000000 		.4byte	.LVL29
 2613 0e4b 9B120000 		.4byte	0x129b
 2614 0e4f 6A0E0000 		.4byte	0xe6a
 2615 0e53 24       		.uleb128 0x24
 2616 0e54 01       		.uleb128 0x1
 2617 0e55 50       		.byte	0x50
 2618 0e56 02       		.uleb128 0x2
ARM GAS  /tmp/ccaFA0zm.s 			page 47


 2619 0e57 91       		.byte	0x91
 2620 0e58 5C       		.sleb128 -36
 2621 0e59 24       		.uleb128 0x24
 2622 0e5a 01       		.uleb128 0x1
 2623 0e5b 51       		.byte	0x51
 2624 0e5c 03       		.uleb128 0x3
 2625 0e5d F3       		.byte	0xf3
 2626 0e5e 01       		.uleb128 0x1
 2627 0e5f 51       		.byte	0x51
 2628 0e60 24       		.uleb128 0x24
 2629 0e61 01       		.uleb128 0x1
 2630 0e62 52       		.byte	0x52
 2631 0e63 05       		.uleb128 0x5
 2632 0e64 03       		.byte	0x3
 2633 0e65 00000000 		.4byte	wakeup
 2634 0e69 00       		.byte	0
 2635 0e6a 39       		.uleb128 0x39
 2636 0e6b 1C000000 		.4byte	.LVL30
 2637 0e6f B90F0000 		.4byte	0xfb9
 2638 0e73 7E0E0000 		.4byte	0xe7e
 2639 0e77 24       		.uleb128 0x24
 2640 0e78 01       		.uleb128 0x1
 2641 0e79 50       		.byte	0x50
 2642 0e7a 02       		.uleb128 0x2
 2643 0e7b 75       		.byte	0x75
 2644 0e7c 00       		.sleb128 0
 2645 0e7d 00       		.byte	0
 2646 0e7e 23       		.uleb128 0x23
 2647 0e7f 26000000 		.4byte	.LVL32
 2648 0e83 A6120000 		.4byte	0x12a6
 2649 0e87 24       		.uleb128 0x24
 2650 0e88 01       		.uleb128 0x1
 2651 0e89 50       		.byte	0x50
 2652 0e8a 02       		.uleb128 0x2
 2653 0e8b 91       		.byte	0x91
 2654 0e8c 5C       		.sleb128 -36
 2655 0e8d 00       		.byte	0
 2656 0e8e 00       		.byte	0
 2657 0e8f 33       		.uleb128 0x33
 2658 0e90 32000000 		.4byte	.LVL34
 2659 0e94 B90F0000 		.4byte	0xfb9
 2660 0e98 00       		.byte	0
 2661 0e99 3A       		.uleb128 0x3a
 2662 0e9a 7E030000 		.4byte	.LASF183
 2663 0e9e 01       		.byte	0x1
 2664 0e9f 3F01     		.2byte	0x13f
 2665 0ea1 00000000 		.4byte	.LFB294
 2666 0ea5 48000000 		.4byte	.LFE294-.LFB294
 2667 0ea9 01       		.uleb128 0x1
 2668 0eaa 9C       		.byte	0x9c
 2669 0eab B90F0000 		.4byte	0xfb9
 2670 0eaf 34       		.uleb128 0x34
 2671 0eb0 7000     		.ascii	"p\000"
 2672 0eb2 01       		.byte	0x1
 2673 0eb3 3F01     		.2byte	0x13f
 2674 0eb5 29030000 		.4byte	0x329
 2675 0eb9 74020000 		.4byte	.LLST2
ARM GAS  /tmp/ccaFA0zm.s 			page 48


 2676 0ebd 1F       		.uleb128 0x1f
 2677 0ebe 747000   		.ascii	"tp\000"
 2678 0ec1 01       		.byte	0x1
 2679 0ec2 4001     		.2byte	0x140
 2680 0ec4 4C020000 		.4byte	0x24c
 2681 0ec8 A0020000 		.4byte	.LLST3
 2682 0ecc 25       		.uleb128 0x25
 2683 0ecd AE110000 		.4byte	0x11ae
 2684 0ed1 02000000 		.4byte	.LBB116
 2685 0ed5 06000000 		.4byte	.LBE116-.LBB116
 2686 0ed9 01       		.byte	0x1
 2687 0eda 4201     		.2byte	0x142
 2688 0edc 1D0F0000 		.4byte	0xf1d
 2689 0ee0 3B       		.uleb128 0x3b
 2690 0ee1 32120000 		.4byte	0x1232
 2691 0ee5 02000000 		.4byte	.LBB117
 2692 0ee9 06000000 		.4byte	.LBE117-.LBB117
 2693 0eed 11       		.byte	0x11
 2694 0eee 8B01     		.2byte	0x18b
 2695 0ef0 3B       		.uleb128 0x3b
 2696 0ef1 44120000 		.4byte	0x1244
 2697 0ef5 02000000 		.4byte	.LBB118
 2698 0ef9 06000000 		.4byte	.LBE118-.LBB118
 2699 0efd 0E       		.byte	0xe
 2700 0efe 8302     		.2byte	0x283
 2701 0f00 3B       		.uleb128 0x3b
 2702 0f01 4D120000 		.4byte	0x124d
 2703 0f05 02000000 		.4byte	.LBB119
 2704 0f09 06000000 		.4byte	.LBE119-.LBB119
 2705 0f0d 0E       		.byte	0xe
 2706 0f0e 6202     		.2byte	0x262
 2707 0f10 2A       		.uleb128 0x2a
 2708 0f11 5A120000 		.4byte	0x125a
 2709 0f15 CC020000 		.4byte	.LLST4
 2710 0f19 00       		.byte	0
 2711 0f1a 00       		.byte	0
 2712 0f1b 00       		.byte	0
 2713 0f1c 00       		.byte	0
 2714 0f1d 25       		.uleb128 0x25
 2715 0f1e A5110000 		.4byte	0x11a5
 2716 0f22 2C000000 		.4byte	.LBB121
 2717 0f26 08000000 		.4byte	.LBE121-.LBB121
 2718 0f2a 01       		.byte	0x1
 2719 0f2b 5F01     		.2byte	0x15f
 2720 0f2d 6E0F0000 		.4byte	0xf6e
 2721 0f31 3B       		.uleb128 0x3b
 2722 0f32 29120000 		.4byte	0x1229
 2723 0f36 2C000000 		.4byte	.LBB122
 2724 0f3a 08000000 		.4byte	.LBE122-.LBB122
 2725 0f3e 11       		.byte	0x11
 2726 0f3f A101     		.2byte	0x1a1
 2727 0f41 3B       		.uleb128 0x3b
 2728 0f42 3B120000 		.4byte	0x123b
 2729 0f46 2C000000 		.4byte	.LBB123
 2730 0f4a 08000000 		.4byte	.LBE123-.LBB123
 2731 0f4e 0E       		.byte	0xe
 2732 0f4f 8E02     		.2byte	0x28e
ARM GAS  /tmp/ccaFA0zm.s 			page 49


 2733 0f51 3B       		.uleb128 0x3b
 2734 0f52 4D120000 		.4byte	0x124d
 2735 0f56 2C000000 		.4byte	.LBB124
 2736 0f5a 08000000 		.4byte	.LBE124-.LBB124
 2737 0f5e 0E       		.byte	0xe
 2738 0f5f 7502     		.2byte	0x275
 2739 0f61 2A       		.uleb128 0x2a
 2740 0f62 5A120000 		.4byte	0x125a
 2741 0f66 E1020000 		.4byte	.LLST5
 2742 0f6a 00       		.byte	0
 2743 0f6b 00       		.byte	0
 2744 0f6c 00       		.byte	0
 2745 0f6d 00       		.byte	0
 2746 0f6e 25       		.uleb128 0x25
 2747 0f6f 66110000 		.4byte	0x1166
 2748 0f73 36000000 		.4byte	.LBB126
 2749 0f77 06000000 		.4byte	.LBE126-.LBB126
 2750 0f7b 01       		.byte	0x1
 2751 0f7c 4E01     		.2byte	0x14e
 2752 0f7e 8C0F0000 		.4byte	0xf8c
 2753 0f82 2A       		.uleb128 0x2a
 2754 0f83 72110000 		.4byte	0x1172
 2755 0f87 F5020000 		.4byte	.LLST6
 2756 0f8b 00       		.byte	0
 2757 0f8c 25       		.uleb128 0x25
 2758 0f8d C3110000 		.4byte	0x11c3
 2759 0f91 3C000000 		.4byte	.LBB128
 2760 0f95 0C000000 		.4byte	.LBE128-.LBB128
 2761 0f99 01       		.byte	0x1
 2762 0f9a 5701     		.2byte	0x157
 2763 0f9c A80F0000 		.4byte	0xfa8
 2764 0fa0 3C       		.uleb128 0x3c
 2765 0fa1 D4110000 		.4byte	0x11d4
 2766 0fa5 01       		.uleb128 0x1
 2767 0fa6 50       		.byte	0x50
 2768 0fa7 00       		.byte	0
 2769 0fa8 23       		.uleb128 0x23
 2770 0fa9 2C000000 		.4byte	.LVL8
 2771 0fad E5100000 		.4byte	0x10e5
 2772 0fb1 24       		.uleb128 0x24
 2773 0fb2 01       		.uleb128 0x1
 2774 0fb3 50       		.byte	0x50
 2775 0fb4 02       		.uleb128 0x2
 2776 0fb5 70       		.byte	0x70
 2777 0fb6 00       		.sleb128 0
 2778 0fb7 00       		.byte	0
 2779 0fb8 00       		.byte	0
 2780 0fb9 1E       		.uleb128 0x1e
 2781 0fba D0050000 		.4byte	.LASF156
 2782 0fbe 01       		.byte	0x1
 2783 0fbf 2101     		.2byte	0x121
 2784 0fc1 00000000 		.4byte	.LFB293
 2785 0fc5 3C000000 		.4byte	.LFE293-.LFB293
 2786 0fc9 01       		.uleb128 0x1
 2787 0fca 9C       		.byte	0x9c
 2788 0fcb 90100000 		.4byte	0x1090
 2789 0fcf 38       		.uleb128 0x38
ARM GAS  /tmp/ccaFA0zm.s 			page 50


 2790 0fd0 1B060000 		.4byte	.LASF154
 2791 0fd4 01       		.byte	0x1
 2792 0fd5 2101     		.2byte	0x121
 2793 0fd7 0B010000 		.4byte	0x10b
 2794 0fdb 08030000 		.4byte	.LLST8
 2795 0fdf 1F       		.uleb128 0x1f
 2796 0fe0 6F747000 		.ascii	"otp\000"
 2797 0fe4 01       		.byte	0x1
 2798 0fe5 2201     		.2byte	0x122
 2799 0fe7 4C020000 		.4byte	0x24c
 2800 0feb 29030000 		.4byte	.LLST9
 2801 0fef 20       		.uleb128 0x20
 2802 0ff0 30000000 		.4byte	.Ldebug_ranges0+0x30
 2803 0ff4 66100000 		.4byte	0x1066
 2804 0ff8 1F       		.uleb128 0x1f
 2805 0ff9 72313300 		.ascii	"r13\000"
 2806 0ffd 01       		.byte	0x1
 2807 0ffe 3901     		.2byte	0x139
 2808 1000 44060000 		.4byte	0x644
 2809 1004 47030000 		.4byte	.LLST12
 2810 1008 21       		.uleb128 0x21
 2811 1009 26000000 		.4byte	.LBB137
 2812 100d 06000000 		.4byte	.LBE137-.LBB137
 2813 1011 38100000 		.4byte	0x1038
 2814 1015 22       		.uleb128 0x22
 2815 1016 70050000 		.4byte	.LASF147
 2816 101a 01       		.byte	0x1
 2817 101b 3901     		.2byte	0x139
 2818 101d 27100000 		.4byte	0x1027
 2819 1021 0F       		.uleb128 0xf
 2820 1022 4C020000 		.4byte	0x24c
 2821 1026 00       		.byte	0
 2822 1027 23       		.uleb128 0x23
 2823 1028 2C000000 		.4byte	.LVL24
 2824 102c 83120000 		.4byte	0x1283
 2825 1030 24       		.uleb128 0x24
 2826 1031 01       		.uleb128 0x1
 2827 1032 50       		.byte	0x50
 2828 1033 02       		.uleb128 0x2
 2829 1034 75       		.byte	0x75
 2830 1035 00       		.sleb128 0
 2831 1036 00       		.byte	0
 2832 1037 00       		.byte	0
 2833 1038 25       		.uleb128 0x25
 2834 1039 67120000 		.4byte	0x1267
 2835 103d 1A000000 		.4byte	.LBB135
 2836 1041 04000000 		.4byte	.LBE135-.LBB135
 2837 1045 01       		.byte	0x1
 2838 1046 3901     		.2byte	0x139
 2839 1048 5C100000 		.4byte	0x105c
 2840 104c 26       		.uleb128 0x26
 2841 104d 1A000000 		.4byte	.LBB136
 2842 1051 04000000 		.4byte	.LBE136-.LBB136
 2843 1055 27       		.uleb128 0x27
 2844 1056 77120000 		.4byte	0x1277
 2845 105a 00       		.byte	0
 2846 105b 00       		.byte	0
ARM GAS  /tmp/ccaFA0zm.s 			page 51


 2847 105c 28       		.uleb128 0x28
 2848 105d 38000000 		.4byte	.LVL26
 2849 1061 8F120000 		.4byte	0x128f
 2850 1065 00       		.byte	0
 2851 1066 3D       		.uleb128 0x3d
 2852 1067 E0110000 		.4byte	0x11e0
 2853 106b 06000000 		.4byte	.LBB130
 2854 106f 18000000 		.4byte	.Ldebug_ranges0+0x18
 2855 1073 01       		.byte	0x1
 2856 1074 3001     		.2byte	0x130
 2857 1076 2A       		.uleb128 0x2a
 2858 1077 F1110000 		.4byte	0x11f1
 2859 107b 68030000 		.4byte	.LLST10
 2860 107f 2B       		.uleb128 0x2b
 2861 1080 18000000 		.4byte	.Ldebug_ranges0+0x18
 2862 1084 2C       		.uleb128 0x2c
 2863 1085 FD110000 		.4byte	0x11fd
 2864 1089 80030000 		.4byte	.LLST11
 2865 108d 00       		.byte	0
 2866 108e 00       		.byte	0
 2867 108f 00       		.byte	0
 2868 1090 31       		.uleb128 0x31
 2869 1091 CE060000 		.4byte	.LASF157
 2870 1095 01       		.byte	0x1
 2871 1096 0101     		.2byte	0x101
 2872 1098 4C020000 		.4byte	0x24c
 2873 109c 00000000 		.4byte	.LFB292
 2874 10a0 24000000 		.4byte	.LFE292-.LFB292
 2875 10a4 01       		.uleb128 0x1
 2876 10a5 9C       		.byte	0x9c
 2877 10a6 D0100000 		.4byte	0x10d0
 2878 10aa 3E       		.uleb128 0x3e
 2879 10ab 747000   		.ascii	"tp\000"
 2880 10ae 01       		.byte	0x1
 2881 10af 0101     		.2byte	0x101
 2882 10b1 4C020000 		.4byte	0x24c
 2883 10b5 01       		.uleb128 0x1
 2884 10b6 50       		.byte	0x50
 2885 10b7 1F       		.uleb128 0x1f
 2886 10b8 637000   		.ascii	"cp\000"
 2887 10bb 01       		.byte	0x1
 2888 10bc 0201     		.2byte	0x102
 2889 10be 4C020000 		.4byte	0x24c
 2890 10c2 93030000 		.4byte	.LLST7
 2891 10c6 35       		.uleb128 0x35
 2892 10c7 61060000 		.4byte	.LASF158
 2893 10cb E0100000 		.4byte	0x10e0
 2894 10cf 00       		.byte	0
 2895 10d0 13       		.uleb128 0x13
 2896 10d1 52070000 		.4byte	0x752
 2897 10d5 E0100000 		.4byte	0x10e0
 2898 10d9 14       		.uleb128 0x14
 2899 10da 6C040000 		.4byte	0x46c
 2900 10de 10       		.byte	0x10
 2901 10df 00       		.byte	0
 2902 10e0 05       		.uleb128 0x5
 2903 10e1 D0100000 		.4byte	0x10d0
ARM GAS  /tmp/ccaFA0zm.s 			page 52


 2904 10e5 3F       		.uleb128 0x3f
 2905 10e6 EF060000 		.4byte	.LASF159
 2906 10ea 01       		.byte	0x1
 2907 10eb DA       		.byte	0xda
 2908 10ec 4C020000 		.4byte	0x24c
 2909 10f0 00000000 		.4byte	.LFB291
 2910 10f4 24000000 		.4byte	.LFE291-.LFB291
 2911 10f8 01       		.uleb128 0x1
 2912 10f9 9C       		.byte	0x9c
 2913 10fa 22110000 		.4byte	0x1122
 2914 10fe 40       		.uleb128 0x40
 2915 10ff 747000   		.ascii	"tp\000"
 2916 1102 01       		.byte	0x1
 2917 1103 DA       		.byte	0xda
 2918 1104 4C020000 		.4byte	0x24c
 2919 1108 01       		.uleb128 0x1
 2920 1109 50       		.byte	0x50
 2921 110a 41       		.uleb128 0x41
 2922 110b 637000   		.ascii	"cp\000"
 2923 110e 01       		.byte	0x1
 2924 110f DB       		.byte	0xdb
 2925 1110 4C020000 		.4byte	0x24c
 2926 1114 B6030000 		.4byte	.LLST1
 2927 1118 35       		.uleb128 0x35
 2928 1119 61060000 		.4byte	.LASF158
 2929 111d 32110000 		.4byte	0x1132
 2930 1121 00       		.byte	0
 2931 1122 13       		.uleb128 0x13
 2932 1123 52070000 		.4byte	0x752
 2933 1127 32110000 		.4byte	0x1132
 2934 112b 14       		.uleb128 0x14
 2935 112c 6C040000 		.4byte	0x46c
 2936 1130 0B       		.byte	0xb
 2937 1131 00       		.byte	0
 2938 1132 05       		.uleb128 0x5
 2939 1133 22110000 		.4byte	0x1122
 2940 1137 42       		.uleb128 0x42
 2941 1138 32010000 		.4byte	.LASF160
 2942 113c 01       		.byte	0x1
 2943 113d 41       		.byte	0x41
 2944 113e 00000000 		.4byte	.LFB290
 2945 1142 14000000 		.4byte	.LFE290-.LFB290
 2946 1146 01       		.uleb128 0x1
 2947 1147 9C       		.byte	0x9c
 2948 1148 66110000 		.4byte	0x1166
 2949 114c 43       		.uleb128 0x43
 2950 114d 0F120000 		.4byte	0x120f
 2951 1151 00000000 		.4byte	.LBB93
 2952 1155 00000000 		.4byte	.Ldebug_ranges0+0
 2953 1159 01       		.byte	0x1
 2954 115a 43       		.byte	0x43
 2955 115b 2A       		.uleb128 0x2a
 2956 115c 1C120000 		.4byte	0x121c
 2957 1160 D9030000 		.4byte	.LLST0
 2958 1164 00       		.byte	0
 2959 1165 00       		.byte	0
 2960 1166 44       		.uleb128 0x44
ARM GAS  /tmp/ccaFA0zm.s 			page 53


 2961 1167 37060000 		.4byte	.LASF167
 2962 116b 04       		.byte	0x4
 2963 116c 86       		.byte	0x86
 2964 116d 03       		.byte	0x3
 2965 116e 7D110000 		.4byte	0x117d
 2966 1172 45       		.uleb128 0x45
 2967 1173 737000   		.ascii	"sp\000"
 2968 1176 04       		.byte	0x4
 2969 1177 86       		.byte	0x86
 2970 1178 7D110000 		.4byte	0x117d
 2971 117c 00       		.byte	0
 2972 117d 0C       		.uleb128 0xc
 2973 117e 04       		.byte	0x4
 2974 117f 91080000 		.4byte	0x891
 2975 1183 46       		.uleb128 0x46
 2976 1184 C1060000 		.4byte	.LASF164
 2977 1188 16       		.byte	0x16
 2978 1189 F1       		.byte	0xf1
 2979 118a AD080000 		.4byte	0x8ad
 2980 118e 03       		.byte	0x3
 2981 118f 9F110000 		.4byte	0x119f
 2982 1193 45       		.uleb128 0x45
 2983 1194 76747000 		.ascii	"vtp\000"
 2984 1198 16       		.byte	0x16
 2985 1199 F1       		.byte	0xf1
 2986 119a 9F110000 		.4byte	0x119f
 2987 119e 00       		.byte	0
 2988 119f 0C       		.uleb128 0xc
 2989 11a0 04       		.byte	0x4
 2990 11a1 36030000 		.4byte	0x336
 2991 11a5 47       		.uleb128 0x47
 2992 11a6 BD050000 		.4byte	.LASF161
 2993 11aa 11       		.byte	0x11
 2994 11ab 9D01     		.2byte	0x19d
 2995 11ad 03       		.byte	0x3
 2996 11ae 47       		.uleb128 0x47
 2997 11af 87080000 		.4byte	.LASF162
 2998 11b3 11       		.byte	0x11
 2999 11b4 8901     		.2byte	0x189
 3000 11b6 03       		.byte	0x3
 3001 11b7 48       		.uleb128 0x48
 3002 11b8 C6080000 		.4byte	.LASF163
 3003 11bc 02       		.byte	0x2
 3004 11bd 8402     		.2byte	0x284
 3005 11bf AD080000 		.4byte	0x8ad
 3006 11c3 49       		.uleb128 0x49
 3007 11c4 AA020000 		.4byte	.LASF165
 3008 11c8 02       		.byte	0x2
 3009 11c9 7002     		.2byte	0x270
 3010 11cb 4C020000 		.4byte	0x24c
 3011 11cf 03       		.byte	0x3
 3012 11d0 E0110000 		.4byte	0x11e0
 3013 11d4 4A       		.uleb128 0x4a
 3014 11d5 747000   		.ascii	"tp\000"
 3015 11d8 02       		.byte	0x2
 3016 11d9 7002     		.2byte	0x270
 3017 11db 4C020000 		.4byte	0x24c
ARM GAS  /tmp/ccaFA0zm.s 			page 54


 3018 11df 00       		.byte	0
 3019 11e0 49       		.uleb128 0x49
 3020 11e1 7C070000 		.4byte	.LASF166
 3021 11e5 02       		.byte	0x2
 3022 11e6 5E02     		.2byte	0x25e
 3023 11e8 4C020000 		.4byte	0x24c
 3024 11ec 03       		.byte	0x3
 3025 11ed 09120000 		.4byte	0x1209
 3026 11f1 4A       		.uleb128 0x4a
 3027 11f2 74717000 		.ascii	"tqp\000"
 3028 11f6 02       		.byte	0x2
 3029 11f7 5E02     		.2byte	0x25e
 3030 11f9 09120000 		.4byte	0x1209
 3031 11fd 2E       		.uleb128 0x2e
 3032 11fe 747000   		.ascii	"tp\000"
 3033 1201 02       		.byte	0x2
 3034 1202 5F02     		.2byte	0x25f
 3035 1204 4C020000 		.4byte	0x24c
 3036 1208 00       		.byte	0
 3037 1209 0C       		.uleb128 0xc
 3038 120a 04       		.byte	0x4
 3039 120b 76020000 		.4byte	0x276
 3040 120f 4B       		.uleb128 0x4b
 3041 1210 80000000 		.4byte	.LASF168
 3042 1214 02       		.byte	0x2
 3043 1215 1902     		.2byte	0x219
 3044 1217 03       		.byte	0x3
 3045 1218 29120000 		.4byte	0x1229
 3046 121c 4A       		.uleb128 0x4a
 3047 121d 74717000 		.ascii	"tqp\000"
 3048 1221 02       		.byte	0x2
 3049 1222 1902     		.2byte	0x219
 3050 1224 09120000 		.4byte	0x1209
 3051 1228 00       		.byte	0
 3052 1229 47       		.uleb128 0x47
 3053 122a 53070000 		.4byte	.LASF169
 3054 122e 0E       		.byte	0xe
 3055 122f 8C02     		.2byte	0x28c
 3056 1231 03       		.byte	0x3
 3057 1232 47       		.uleb128 0x47
 3058 1233 F9070000 		.4byte	.LASF170
 3059 1237 0E       		.byte	0xe
 3060 1238 8102     		.2byte	0x281
 3061 123a 03       		.byte	0x3
 3062 123b 47       		.uleb128 0x47
 3063 123c 86020000 		.4byte	.LASF171
 3064 1240 0E       		.byte	0xe
 3065 1241 7202     		.2byte	0x272
 3066 1243 03       		.byte	0x3
 3067 1244 47       		.uleb128 0x47
 3068 1245 94000000 		.4byte	.LASF172
 3069 1249 0E       		.byte	0xe
 3070 124a 5A02     		.2byte	0x25a
 3071 124c 03       		.byte	0x3
 3072 124d 4B       		.uleb128 0x4b
 3073 124e A1070000 		.4byte	.LASF173
 3074 1252 03       		.byte	0x3
ARM GAS  /tmp/ccaFA0zm.s 			page 55


 3075 1253 EB01     		.2byte	0x1eb
 3076 1255 03       		.byte	0x3
 3077 1256 67120000 		.4byte	0x1267
 3078 125a 4C       		.uleb128 0x4c
 3079 125b 77020000 		.4byte	.LASF174
 3080 125f 03       		.byte	0x3
 3081 1260 EB01     		.2byte	0x1eb
 3082 1262 DF000000 		.4byte	0xdf
 3083 1266 00       		.byte	0
 3084 1267 46       		.uleb128 0x46
 3085 1268 0C080000 		.4byte	.LASF175
 3086 126c 03       		.byte	0x3
 3087 126d F7       		.byte	0xf7
 3088 126e DF000000 		.4byte	0xdf
 3089 1272 03       		.byte	0x3
 3090 1273 83120000 		.4byte	0x1283
 3091 1277 4D       		.uleb128 0x4d
 3092 1278 43090000 		.4byte	.LASF176
 3093 127c 03       		.byte	0x3
 3094 127d F9       		.byte	0xf9
 3095 127e DF000000 		.4byte	0xdf
 3096 1282 00       		.byte	0
 3097 1283 4E       		.uleb128 0x4e
 3098 1284 70050000 		.4byte	.LASF147
 3099 1288 70050000 		.4byte	.LASF147
 3100 128c 01       		.byte	0x1
 3101 128d 5E02     		.2byte	0x25e
 3102 128f 4E       		.uleb128 0x4e
 3103 1290 A5030000 		.4byte	.LASF177
 3104 1294 A5030000 		.4byte	.LASF177
 3105 1298 0E       		.byte	0xe
 3106 1299 F301     		.2byte	0x1f3
 3107 129b 4F       		.uleb128 0x4f
 3108 129c 59040000 		.4byte	.LASF178
 3109 12a0 59040000 		.4byte	.LASF178
 3110 12a4 16       		.byte	0x16
 3111 12a5 4B       		.byte	0x4b
 3112 12a6 4F       		.uleb128 0x4f
 3113 12a7 C2000000 		.4byte	.LASF179
 3114 12ab C2000000 		.4byte	.LASF179
 3115 12af 16       		.byte	0x16
 3116 12b0 4D       		.byte	0x4d
 3117 12b1 00       		.byte	0
 3118              		.section	.debug_abbrev,"",%progbits
 3119              	.Ldebug_abbrev0:
 3120 0000 01       		.uleb128 0x1
 3121 0001 11       		.uleb128 0x11
 3122 0002 01       		.byte	0x1
 3123 0003 25       		.uleb128 0x25
 3124 0004 0E       		.uleb128 0xe
 3125 0005 13       		.uleb128 0x13
 3126 0006 0B       		.uleb128 0xb
 3127 0007 03       		.uleb128 0x3
 3128 0008 0E       		.uleb128 0xe
 3129 0009 1B       		.uleb128 0x1b
 3130 000a 0E       		.uleb128 0xe
 3131 000b 55       		.uleb128 0x55
ARM GAS  /tmp/ccaFA0zm.s 			page 56


 3132 000c 17       		.uleb128 0x17
 3133 000d 11       		.uleb128 0x11
 3134 000e 01       		.uleb128 0x1
 3135 000f 10       		.uleb128 0x10
 3136 0010 17       		.uleb128 0x17
 3137 0011 00       		.byte	0
 3138 0012 00       		.byte	0
 3139 0013 02       		.uleb128 0x2
 3140 0014 24       		.uleb128 0x24
 3141 0015 00       		.byte	0
 3142 0016 0B       		.uleb128 0xb
 3143 0017 0B       		.uleb128 0xb
 3144 0018 3E       		.uleb128 0x3e
 3145 0019 0B       		.uleb128 0xb
 3146 001a 03       		.uleb128 0x3
 3147 001b 08       		.uleb128 0x8
 3148 001c 00       		.byte	0
 3149 001d 00       		.byte	0
 3150 001e 03       		.uleb128 0x3
 3151 001f 16       		.uleb128 0x16
 3152 0020 00       		.byte	0
 3153 0021 03       		.uleb128 0x3
 3154 0022 0E       		.uleb128 0xe
 3155 0023 3A       		.uleb128 0x3a
 3156 0024 0B       		.uleb128 0xb
 3157 0025 3B       		.uleb128 0x3b
 3158 0026 0B       		.uleb128 0xb
 3159 0027 49       		.uleb128 0x49
 3160 0028 13       		.uleb128 0x13
 3161 0029 00       		.byte	0
 3162 002a 00       		.byte	0
 3163 002b 04       		.uleb128 0x4
 3164 002c 24       		.uleb128 0x24
 3165 002d 00       		.byte	0
 3166 002e 0B       		.uleb128 0xb
 3167 002f 0B       		.uleb128 0xb
 3168 0030 3E       		.uleb128 0x3e
 3169 0031 0B       		.uleb128 0xb
 3170 0032 03       		.uleb128 0x3
 3171 0033 0E       		.uleb128 0xe
 3172 0034 00       		.byte	0
 3173 0035 00       		.byte	0
 3174 0036 05       		.uleb128 0x5
 3175 0037 26       		.uleb128 0x26
 3176 0038 00       		.byte	0
 3177 0039 49       		.uleb128 0x49
 3178 003a 13       		.uleb128 0x13
 3179 003b 00       		.byte	0
 3180 003c 00       		.byte	0
 3181 003d 06       		.uleb128 0x6
 3182 003e 35       		.uleb128 0x35
 3183 003f 00       		.byte	0
 3184 0040 49       		.uleb128 0x49
 3185 0041 13       		.uleb128 0x13
 3186 0042 00       		.byte	0
 3187 0043 00       		.byte	0
 3188 0044 07       		.uleb128 0x7
ARM GAS  /tmp/ccaFA0zm.s 			page 57


 3189 0045 13       		.uleb128 0x13
 3190 0046 01       		.byte	0x1
 3191 0047 03       		.uleb128 0x3
 3192 0048 0E       		.uleb128 0xe
 3193 0049 0B       		.uleb128 0xb
 3194 004a 0B       		.uleb128 0xb
 3195 004b 3A       		.uleb128 0x3a
 3196 004c 0B       		.uleb128 0xb
 3197 004d 3B       		.uleb128 0x3b
 3198 004e 0B       		.uleb128 0xb
 3199 004f 01       		.uleb128 0x1
 3200 0050 13       		.uleb128 0x13
 3201 0051 00       		.byte	0
 3202 0052 00       		.byte	0
 3203 0053 08       		.uleb128 0x8
 3204 0054 0D       		.uleb128 0xd
 3205 0055 00       		.byte	0
 3206 0056 03       		.uleb128 0x3
 3207 0057 0E       		.uleb128 0xe
 3208 0058 3A       		.uleb128 0x3a
 3209 0059 0B       		.uleb128 0xb
 3210 005a 3B       		.uleb128 0x3b
 3211 005b 0B       		.uleb128 0xb
 3212 005c 49       		.uleb128 0x49
 3213 005d 13       		.uleb128 0x13
 3214 005e 38       		.uleb128 0x38
 3215 005f 0B       		.uleb128 0xb
 3216 0060 00       		.byte	0
 3217 0061 00       		.byte	0
 3218 0062 09       		.uleb128 0x9
 3219 0063 0D       		.uleb128 0xd
 3220 0064 00       		.byte	0
 3221 0065 03       		.uleb128 0x3
 3222 0066 08       		.uleb128 0x8
 3223 0067 3A       		.uleb128 0x3a
 3224 0068 0B       		.uleb128 0xb
 3225 0069 3B       		.uleb128 0x3b
 3226 006a 0B       		.uleb128 0xb
 3227 006b 49       		.uleb128 0x49
 3228 006c 13       		.uleb128 0x13
 3229 006d 38       		.uleb128 0x38
 3230 006e 0B       		.uleb128 0xb
 3231 006f 00       		.byte	0
 3232 0070 00       		.byte	0
 3233 0071 0A       		.uleb128 0xa
 3234 0072 0D       		.uleb128 0xd
 3235 0073 00       		.byte	0
 3236 0074 03       		.uleb128 0x3
 3237 0075 08       		.uleb128 0x8
 3238 0076 3A       		.uleb128 0x3a
 3239 0077 0B       		.uleb128 0xb
 3240 0078 3B       		.uleb128 0x3b
 3241 0079 05       		.uleb128 0x5
 3242 007a 49       		.uleb128 0x49
 3243 007b 13       		.uleb128 0x13
 3244 007c 38       		.uleb128 0x38
 3245 007d 0B       		.uleb128 0xb
ARM GAS  /tmp/ccaFA0zm.s 			page 58


 3246 007e 00       		.byte	0
 3247 007f 00       		.byte	0
 3248 0080 0B       		.uleb128 0xb
 3249 0081 0D       		.uleb128 0xd
 3250 0082 00       		.byte	0
 3251 0083 03       		.uleb128 0x3
 3252 0084 0E       		.uleb128 0xe
 3253 0085 3A       		.uleb128 0x3a
 3254 0086 0B       		.uleb128 0xb
 3255 0087 3B       		.uleb128 0x3b
 3256 0088 05       		.uleb128 0x5
 3257 0089 49       		.uleb128 0x49
 3258 008a 13       		.uleb128 0x13
 3259 008b 38       		.uleb128 0x38
 3260 008c 0B       		.uleb128 0xb
 3261 008d 00       		.byte	0
 3262 008e 00       		.byte	0
 3263 008f 0C       		.uleb128 0xc
 3264 0090 0F       		.uleb128 0xf
 3265 0091 00       		.byte	0
 3266 0092 0B       		.uleb128 0xb
 3267 0093 0B       		.uleb128 0xb
 3268 0094 49       		.uleb128 0x49
 3269 0095 13       		.uleb128 0x13
 3270 0096 00       		.byte	0
 3271 0097 00       		.byte	0
 3272 0098 0D       		.uleb128 0xd
 3273 0099 13       		.uleb128 0x13
 3274 009a 01       		.byte	0x1
 3275 009b 03       		.uleb128 0x3
 3276 009c 0E       		.uleb128 0xe
 3277 009d 0B       		.uleb128 0xb
 3278 009e 0B       		.uleb128 0xb
 3279 009f 3A       		.uleb128 0x3a
 3280 00a0 0B       		.uleb128 0xb
 3281 00a1 3B       		.uleb128 0x3b
 3282 00a2 05       		.uleb128 0x5
 3283 00a3 01       		.uleb128 0x1
 3284 00a4 13       		.uleb128 0x13
 3285 00a5 00       		.byte	0
 3286 00a6 00       		.byte	0
 3287 00a7 0E       		.uleb128 0xe
 3288 00a8 15       		.uleb128 0x15
 3289 00a9 01       		.byte	0x1
 3290 00aa 27       		.uleb128 0x27
 3291 00ab 19       		.uleb128 0x19
 3292 00ac 01       		.uleb128 0x1
 3293 00ad 13       		.uleb128 0x13
 3294 00ae 00       		.byte	0
 3295 00af 00       		.byte	0
 3296 00b0 0F       		.uleb128 0xf
 3297 00b1 05       		.uleb128 0x5
 3298 00b2 00       		.byte	0
 3299 00b3 49       		.uleb128 0x49
 3300 00b4 13       		.uleb128 0x13
 3301 00b5 00       		.byte	0
 3302 00b6 00       		.byte	0
ARM GAS  /tmp/ccaFA0zm.s 			page 59


 3303 00b7 10       		.uleb128 0x10
 3304 00b8 0F       		.uleb128 0xf
 3305 00b9 00       		.byte	0
 3306 00ba 0B       		.uleb128 0xb
 3307 00bb 0B       		.uleb128 0xb
 3308 00bc 00       		.byte	0
 3309 00bd 00       		.byte	0
 3310 00be 11       		.uleb128 0x11
 3311 00bf 34       		.uleb128 0x34
 3312 00c0 00       		.byte	0
 3313 00c1 03       		.uleb128 0x3
 3314 00c2 0E       		.uleb128 0xe
 3315 00c3 3A       		.uleb128 0x3a
 3316 00c4 0B       		.uleb128 0xb
 3317 00c5 3B       		.uleb128 0x3b
 3318 00c6 05       		.uleb128 0x5
 3319 00c7 49       		.uleb128 0x49
 3320 00c8 13       		.uleb128 0x13
 3321 00c9 3F       		.uleb128 0x3f
 3322 00ca 19       		.uleb128 0x19
 3323 00cb 3C       		.uleb128 0x3c
 3324 00cc 19       		.uleb128 0x19
 3325 00cd 00       		.byte	0
 3326 00ce 00       		.byte	0
 3327 00cf 12       		.uleb128 0x12
 3328 00d0 34       		.uleb128 0x34
 3329 00d1 00       		.byte	0
 3330 00d2 03       		.uleb128 0x3
 3331 00d3 0E       		.uleb128 0xe
 3332 00d4 3A       		.uleb128 0x3a
 3333 00d5 0B       		.uleb128 0xb
 3334 00d6 3B       		.uleb128 0x3b
 3335 00d7 0B       		.uleb128 0xb
 3336 00d8 49       		.uleb128 0x49
 3337 00d9 13       		.uleb128 0x13
 3338 00da 3F       		.uleb128 0x3f
 3339 00db 19       		.uleb128 0x19
 3340 00dc 3C       		.uleb128 0x3c
 3341 00dd 19       		.uleb128 0x19
 3342 00de 00       		.byte	0
 3343 00df 00       		.byte	0
 3344 00e0 13       		.uleb128 0x13
 3345 00e1 01       		.uleb128 0x1
 3346 00e2 01       		.byte	0x1
 3347 00e3 49       		.uleb128 0x49
 3348 00e4 13       		.uleb128 0x13
 3349 00e5 01       		.uleb128 0x1
 3350 00e6 13       		.uleb128 0x13
 3351 00e7 00       		.byte	0
 3352 00e8 00       		.byte	0
 3353 00e9 14       		.uleb128 0x14
 3354 00ea 21       		.uleb128 0x21
 3355 00eb 00       		.byte	0
 3356 00ec 49       		.uleb128 0x49
 3357 00ed 13       		.uleb128 0x13
 3358 00ee 2F       		.uleb128 0x2f
 3359 00ef 0B       		.uleb128 0xb
ARM GAS  /tmp/ccaFA0zm.s 			page 60


 3360 00f0 00       		.byte	0
 3361 00f1 00       		.byte	0
 3362 00f2 15       		.uleb128 0x15
 3363 00f3 13       		.uleb128 0x13
 3364 00f4 01       		.byte	0x1
 3365 00f5 0B       		.uleb128 0xb
 3366 00f6 0B       		.uleb128 0xb
 3367 00f7 3A       		.uleb128 0x3a
 3368 00f8 0B       		.uleb128 0xb
 3369 00f9 3B       		.uleb128 0x3b
 3370 00fa 0B       		.uleb128 0xb
 3371 00fb 01       		.uleb128 0x1
 3372 00fc 13       		.uleb128 0x13
 3373 00fd 00       		.byte	0
 3374 00fe 00       		.byte	0
 3375 00ff 16       		.uleb128 0x16
 3376 0100 17       		.uleb128 0x17
 3377 0101 01       		.byte	0x1
 3378 0102 0B       		.uleb128 0xb
 3379 0103 0B       		.uleb128 0xb
 3380 0104 3A       		.uleb128 0x3a
 3381 0105 0B       		.uleb128 0xb
 3382 0106 3B       		.uleb128 0x3b
 3383 0107 0B       		.uleb128 0xb
 3384 0108 01       		.uleb128 0x1
 3385 0109 13       		.uleb128 0x13
 3386 010a 00       		.byte	0
 3387 010b 00       		.byte	0
 3388 010c 17       		.uleb128 0x17
 3389 010d 0D       		.uleb128 0xd
 3390 010e 00       		.byte	0
 3391 010f 03       		.uleb128 0x3
 3392 0110 0E       		.uleb128 0xe
 3393 0111 3A       		.uleb128 0x3a
 3394 0112 0B       		.uleb128 0xb
 3395 0113 3B       		.uleb128 0x3b
 3396 0114 0B       		.uleb128 0xb
 3397 0115 49       		.uleb128 0x49
 3398 0116 13       		.uleb128 0x13
 3399 0117 00       		.byte	0
 3400 0118 00       		.byte	0
 3401 0119 18       		.uleb128 0x18
 3402 011a 0D       		.uleb128 0xd
 3403 011b 00       		.byte	0
 3404 011c 03       		.uleb128 0x3
 3405 011d 0E       		.uleb128 0xe
 3406 011e 3A       		.uleb128 0x3a
 3407 011f 0B       		.uleb128 0xb
 3408 0120 3B       		.uleb128 0x3b
 3409 0121 05       		.uleb128 0x5
 3410 0122 49       		.uleb128 0x49
 3411 0123 13       		.uleb128 0x13
 3412 0124 00       		.byte	0
 3413 0125 00       		.byte	0
 3414 0126 19       		.uleb128 0x19
 3415 0127 34       		.uleb128 0x34
 3416 0128 00       		.byte	0
ARM GAS  /tmp/ccaFA0zm.s 			page 61


 3417 0129 03       		.uleb128 0x3
 3418 012a 08       		.uleb128 0x8
 3419 012b 3A       		.uleb128 0x3a
 3420 012c 0B       		.uleb128 0xb
 3421 012d 3B       		.uleb128 0x3b
 3422 012e 05       		.uleb128 0x5
 3423 012f 49       		.uleb128 0x49
 3424 0130 13       		.uleb128 0x13
 3425 0131 3F       		.uleb128 0x3f
 3426 0132 19       		.uleb128 0x19
 3427 0133 3C       		.uleb128 0x3c
 3428 0134 19       		.uleb128 0x19
 3429 0135 00       		.byte	0
 3430 0136 00       		.byte	0
 3431 0137 1A       		.uleb128 0x1a
 3432 0138 21       		.uleb128 0x21
 3433 0139 00       		.byte	0
 3434 013a 00       		.byte	0
 3435 013b 00       		.byte	0
 3436 013c 1B       		.uleb128 0x1b
 3437 013d 15       		.uleb128 0x15
 3438 013e 01       		.byte	0x1
 3439 013f 27       		.uleb128 0x27
 3440 0140 19       		.uleb128 0x19
 3441 0141 49       		.uleb128 0x49
 3442 0142 13       		.uleb128 0x13
 3443 0143 01       		.uleb128 0x1
 3444 0144 13       		.uleb128 0x13
 3445 0145 00       		.byte	0
 3446 0146 00       		.byte	0
 3447 0147 1C       		.uleb128 0x1c
 3448 0148 16       		.uleb128 0x16
 3449 0149 00       		.byte	0
 3450 014a 03       		.uleb128 0x3
 3451 014b 0E       		.uleb128 0xe
 3452 014c 3A       		.uleb128 0x3a
 3453 014d 0B       		.uleb128 0xb
 3454 014e 3B       		.uleb128 0x3b
 3455 014f 05       		.uleb128 0x5
 3456 0150 49       		.uleb128 0x49
 3457 0151 13       		.uleb128 0x13
 3458 0152 00       		.byte	0
 3459 0153 00       		.byte	0
 3460 0154 1D       		.uleb128 0x1d
 3461 0155 34       		.uleb128 0x34
 3462 0156 00       		.byte	0
 3463 0157 47       		.uleb128 0x47
 3464 0158 13       		.uleb128 0x13
 3465 0159 3A       		.uleb128 0x3a
 3466 015a 0B       		.uleb128 0xb
 3467 015b 3B       		.uleb128 0x3b
 3468 015c 0B       		.uleb128 0xb
 3469 015d 02       		.uleb128 0x2
 3470 015e 18       		.uleb128 0x18
 3471 015f 00       		.byte	0
 3472 0160 00       		.byte	0
 3473 0161 1E       		.uleb128 0x1e
ARM GAS  /tmp/ccaFA0zm.s 			page 62


 3474 0162 2E       		.uleb128 0x2e
 3475 0163 01       		.byte	0x1
 3476 0164 3F       		.uleb128 0x3f
 3477 0165 19       		.uleb128 0x19
 3478 0166 03       		.uleb128 0x3
 3479 0167 0E       		.uleb128 0xe
 3480 0168 3A       		.uleb128 0x3a
 3481 0169 0B       		.uleb128 0xb
 3482 016a 3B       		.uleb128 0x3b
 3483 016b 05       		.uleb128 0x5
 3484 016c 27       		.uleb128 0x27
 3485 016d 19       		.uleb128 0x19
 3486 016e 11       		.uleb128 0x11
 3487 016f 01       		.uleb128 0x1
 3488 0170 12       		.uleb128 0x12
 3489 0171 06       		.uleb128 0x6
 3490 0172 40       		.uleb128 0x40
 3491 0173 18       		.uleb128 0x18
 3492 0174 9742     		.uleb128 0x2117
 3493 0176 19       		.uleb128 0x19
 3494 0177 01       		.uleb128 0x1
 3495 0178 13       		.uleb128 0x13
 3496 0179 00       		.byte	0
 3497 017a 00       		.byte	0
 3498 017b 1F       		.uleb128 0x1f
 3499 017c 34       		.uleb128 0x34
 3500 017d 00       		.byte	0
 3501 017e 03       		.uleb128 0x3
 3502 017f 08       		.uleb128 0x8
 3503 0180 3A       		.uleb128 0x3a
 3504 0181 0B       		.uleb128 0xb
 3505 0182 3B       		.uleb128 0x3b
 3506 0183 05       		.uleb128 0x5
 3507 0184 49       		.uleb128 0x49
 3508 0185 13       		.uleb128 0x13
 3509 0186 02       		.uleb128 0x2
 3510 0187 17       		.uleb128 0x17
 3511 0188 00       		.byte	0
 3512 0189 00       		.byte	0
 3513 018a 20       		.uleb128 0x20
 3514 018b 0B       		.uleb128 0xb
 3515 018c 01       		.byte	0x1
 3516 018d 55       		.uleb128 0x55
 3517 018e 17       		.uleb128 0x17
 3518 018f 01       		.uleb128 0x1
 3519 0190 13       		.uleb128 0x13
 3520 0191 00       		.byte	0
 3521 0192 00       		.byte	0
 3522 0193 21       		.uleb128 0x21
 3523 0194 0B       		.uleb128 0xb
 3524 0195 01       		.byte	0x1
 3525 0196 11       		.uleb128 0x11
 3526 0197 01       		.uleb128 0x1
 3527 0198 12       		.uleb128 0x12
 3528 0199 06       		.uleb128 0x6
 3529 019a 01       		.uleb128 0x1
 3530 019b 13       		.uleb128 0x13
ARM GAS  /tmp/ccaFA0zm.s 			page 63


 3531 019c 00       		.byte	0
 3532 019d 00       		.byte	0
 3533 019e 22       		.uleb128 0x22
 3534 019f 2E       		.uleb128 0x2e
 3535 01a0 01       		.byte	0x1
 3536 01a1 3F       		.uleb128 0x3f
 3537 01a2 19       		.uleb128 0x19
 3538 01a3 03       		.uleb128 0x3
 3539 01a4 0E       		.uleb128 0xe
 3540 01a5 3A       		.uleb128 0x3a
 3541 01a6 0B       		.uleb128 0xb
 3542 01a7 3B       		.uleb128 0x3b
 3543 01a8 05       		.uleb128 0x5
 3544 01a9 27       		.uleb128 0x27
 3545 01aa 19       		.uleb128 0x19
 3546 01ab 3C       		.uleb128 0x3c
 3547 01ac 19       		.uleb128 0x19
 3548 01ad 01       		.uleb128 0x1
 3549 01ae 13       		.uleb128 0x13
 3550 01af 00       		.byte	0
 3551 01b0 00       		.byte	0
 3552 01b1 23       		.uleb128 0x23
 3553 01b2 898201   		.uleb128 0x4109
 3554 01b5 01       		.byte	0x1
 3555 01b6 11       		.uleb128 0x11
 3556 01b7 01       		.uleb128 0x1
 3557 01b8 31       		.uleb128 0x31
 3558 01b9 13       		.uleb128 0x13
 3559 01ba 00       		.byte	0
 3560 01bb 00       		.byte	0
 3561 01bc 24       		.uleb128 0x24
 3562 01bd 8A8201   		.uleb128 0x410a
 3563 01c0 00       		.byte	0
 3564 01c1 02       		.uleb128 0x2
 3565 01c2 18       		.uleb128 0x18
 3566 01c3 9142     		.uleb128 0x2111
 3567 01c5 18       		.uleb128 0x18
 3568 01c6 00       		.byte	0
 3569 01c7 00       		.byte	0
 3570 01c8 25       		.uleb128 0x25
 3571 01c9 1D       		.uleb128 0x1d
 3572 01ca 01       		.byte	0x1
 3573 01cb 31       		.uleb128 0x31
 3574 01cc 13       		.uleb128 0x13
 3575 01cd 11       		.uleb128 0x11
 3576 01ce 01       		.uleb128 0x1
 3577 01cf 12       		.uleb128 0x12
 3578 01d0 06       		.uleb128 0x6
 3579 01d1 58       		.uleb128 0x58
 3580 01d2 0B       		.uleb128 0xb
 3581 01d3 59       		.uleb128 0x59
 3582 01d4 05       		.uleb128 0x5
 3583 01d5 01       		.uleb128 0x1
 3584 01d6 13       		.uleb128 0x13
 3585 01d7 00       		.byte	0
 3586 01d8 00       		.byte	0
 3587 01d9 26       		.uleb128 0x26
ARM GAS  /tmp/ccaFA0zm.s 			page 64


 3588 01da 0B       		.uleb128 0xb
 3589 01db 01       		.byte	0x1
 3590 01dc 11       		.uleb128 0x11
 3591 01dd 01       		.uleb128 0x1
 3592 01de 12       		.uleb128 0x12
 3593 01df 06       		.uleb128 0x6
 3594 01e0 00       		.byte	0
 3595 01e1 00       		.byte	0
 3596 01e2 27       		.uleb128 0x27
 3597 01e3 34       		.uleb128 0x34
 3598 01e4 00       		.byte	0
 3599 01e5 31       		.uleb128 0x31
 3600 01e6 13       		.uleb128 0x13
 3601 01e7 00       		.byte	0
 3602 01e8 00       		.byte	0
 3603 01e9 28       		.uleb128 0x28
 3604 01ea 898201   		.uleb128 0x4109
 3605 01ed 00       		.byte	0
 3606 01ee 11       		.uleb128 0x11
 3607 01ef 01       		.uleb128 0x1
 3608 01f0 9542     		.uleb128 0x2115
 3609 01f2 19       		.uleb128 0x19
 3610 01f3 31       		.uleb128 0x31
 3611 01f4 13       		.uleb128 0x13
 3612 01f5 00       		.byte	0
 3613 01f6 00       		.byte	0
 3614 01f7 29       		.uleb128 0x29
 3615 01f8 1D       		.uleb128 0x1d
 3616 01f9 01       		.byte	0x1
 3617 01fa 31       		.uleb128 0x31
 3618 01fb 13       		.uleb128 0x13
 3619 01fc 52       		.uleb128 0x52
 3620 01fd 01       		.uleb128 0x1
 3621 01fe 55       		.uleb128 0x55
 3622 01ff 17       		.uleb128 0x17
 3623 0200 58       		.uleb128 0x58
 3624 0201 0B       		.uleb128 0xb
 3625 0202 59       		.uleb128 0x59
 3626 0203 05       		.uleb128 0x5
 3627 0204 01       		.uleb128 0x1
 3628 0205 13       		.uleb128 0x13
 3629 0206 00       		.byte	0
 3630 0207 00       		.byte	0
 3631 0208 2A       		.uleb128 0x2a
 3632 0209 05       		.uleb128 0x5
 3633 020a 00       		.byte	0
 3634 020b 31       		.uleb128 0x31
 3635 020c 13       		.uleb128 0x13
 3636 020d 02       		.uleb128 0x2
 3637 020e 17       		.uleb128 0x17
 3638 020f 00       		.byte	0
 3639 0210 00       		.byte	0
 3640 0211 2B       		.uleb128 0x2b
 3641 0212 0B       		.uleb128 0xb
 3642 0213 01       		.byte	0x1
 3643 0214 55       		.uleb128 0x55
 3644 0215 17       		.uleb128 0x17
ARM GAS  /tmp/ccaFA0zm.s 			page 65


 3645 0216 00       		.byte	0
 3646 0217 00       		.byte	0
 3647 0218 2C       		.uleb128 0x2c
 3648 0219 34       		.uleb128 0x34
 3649 021a 00       		.byte	0
 3650 021b 31       		.uleb128 0x31
 3651 021c 13       		.uleb128 0x13
 3652 021d 02       		.uleb128 0x2
 3653 021e 17       		.uleb128 0x17
 3654 021f 00       		.byte	0
 3655 0220 00       		.byte	0
 3656 0221 2D       		.uleb128 0x2d
 3657 0222 2E       		.uleb128 0x2e
 3658 0223 01       		.byte	0x1
 3659 0224 3F       		.uleb128 0x3f
 3660 0225 19       		.uleb128 0x19
 3661 0226 03       		.uleb128 0x3
 3662 0227 0E       		.uleb128 0xe
 3663 0228 3A       		.uleb128 0x3a
 3664 0229 0B       		.uleb128 0xb
 3665 022a 3B       		.uleb128 0x3b
 3666 022b 05       		.uleb128 0x5
 3667 022c 27       		.uleb128 0x27
 3668 022d 19       		.uleb128 0x19
 3669 022e 01       		.uleb128 0x1
 3670 022f 13       		.uleb128 0x13
 3671 0230 00       		.byte	0
 3672 0231 00       		.byte	0
 3673 0232 2E       		.uleb128 0x2e
 3674 0233 34       		.uleb128 0x34
 3675 0234 00       		.byte	0
 3676 0235 03       		.uleb128 0x3
 3677 0236 08       		.uleb128 0x8
 3678 0237 3A       		.uleb128 0x3a
 3679 0238 0B       		.uleb128 0xb
 3680 0239 3B       		.uleb128 0x3b
 3681 023a 05       		.uleb128 0x5
 3682 023b 49       		.uleb128 0x49
 3683 023c 13       		.uleb128 0x13
 3684 023d 00       		.byte	0
 3685 023e 00       		.byte	0
 3686 023f 2F       		.uleb128 0x2f
 3687 0240 0B       		.uleb128 0xb
 3688 0241 01       		.byte	0x1
 3689 0242 00       		.byte	0
 3690 0243 00       		.byte	0
 3691 0244 30       		.uleb128 0x30
 3692 0245 2E       		.uleb128 0x2e
 3693 0246 01       		.byte	0x1
 3694 0247 3F       		.uleb128 0x3f
 3695 0248 19       		.uleb128 0x19
 3696 0249 03       		.uleb128 0x3
 3697 024a 0E       		.uleb128 0xe
 3698 024b 3A       		.uleb128 0x3a
 3699 024c 0B       		.uleb128 0xb
 3700 024d 3B       		.uleb128 0x3b
 3701 024e 05       		.uleb128 0x5
ARM GAS  /tmp/ccaFA0zm.s 			page 66


 3702 024f 27       		.uleb128 0x27
 3703 0250 19       		.uleb128 0x19
 3704 0251 3C       		.uleb128 0x3c
 3705 0252 19       		.uleb128 0x19
 3706 0253 00       		.byte	0
 3707 0254 00       		.byte	0
 3708 0255 31       		.uleb128 0x31
 3709 0256 2E       		.uleb128 0x2e
 3710 0257 01       		.byte	0x1
 3711 0258 3F       		.uleb128 0x3f
 3712 0259 19       		.uleb128 0x19
 3713 025a 03       		.uleb128 0x3
 3714 025b 0E       		.uleb128 0xe
 3715 025c 3A       		.uleb128 0x3a
 3716 025d 0B       		.uleb128 0xb
 3717 025e 3B       		.uleb128 0x3b
 3718 025f 05       		.uleb128 0x5
 3719 0260 27       		.uleb128 0x27
 3720 0261 19       		.uleb128 0x19
 3721 0262 49       		.uleb128 0x49
 3722 0263 13       		.uleb128 0x13
 3723 0264 11       		.uleb128 0x11
 3724 0265 01       		.uleb128 0x1
 3725 0266 12       		.uleb128 0x12
 3726 0267 06       		.uleb128 0x6
 3727 0268 40       		.uleb128 0x40
 3728 0269 18       		.uleb128 0x18
 3729 026a 9742     		.uleb128 0x2117
 3730 026c 19       		.uleb128 0x19
 3731 026d 01       		.uleb128 0x1
 3732 026e 13       		.uleb128 0x13
 3733 026f 00       		.byte	0
 3734 0270 00       		.byte	0
 3735 0271 32       		.uleb128 0x32
 3736 0272 34       		.uleb128 0x34
 3737 0273 00       		.byte	0
 3738 0274 03       		.uleb128 0x3
 3739 0275 08       		.uleb128 0x8
 3740 0276 3A       		.uleb128 0x3a
 3741 0277 0B       		.uleb128 0xb
 3742 0278 3B       		.uleb128 0x3b
 3743 0279 05       		.uleb128 0x5
 3744 027a 49       		.uleb128 0x49
 3745 027b 13       		.uleb128 0x13
 3746 027c 02       		.uleb128 0x2
 3747 027d 18       		.uleb128 0x18
 3748 027e 00       		.byte	0
 3749 027f 00       		.byte	0
 3750 0280 33       		.uleb128 0x33
 3751 0281 898201   		.uleb128 0x4109
 3752 0284 00       		.byte	0
 3753 0285 11       		.uleb128 0x11
 3754 0286 01       		.uleb128 0x1
 3755 0287 31       		.uleb128 0x31
 3756 0288 13       		.uleb128 0x13
 3757 0289 00       		.byte	0
 3758 028a 00       		.byte	0
ARM GAS  /tmp/ccaFA0zm.s 			page 67


 3759 028b 34       		.uleb128 0x34
 3760 028c 05       		.uleb128 0x5
 3761 028d 00       		.byte	0
 3762 028e 03       		.uleb128 0x3
 3763 028f 08       		.uleb128 0x8
 3764 0290 3A       		.uleb128 0x3a
 3765 0291 0B       		.uleb128 0xb
 3766 0292 3B       		.uleb128 0x3b
 3767 0293 05       		.uleb128 0x5
 3768 0294 49       		.uleb128 0x49
 3769 0295 13       		.uleb128 0x13
 3770 0296 02       		.uleb128 0x2
 3771 0297 17       		.uleb128 0x17
 3772 0298 00       		.byte	0
 3773 0299 00       		.byte	0
 3774 029a 35       		.uleb128 0x35
 3775 029b 34       		.uleb128 0x34
 3776 029c 00       		.byte	0
 3777 029d 03       		.uleb128 0x3
 3778 029e 0E       		.uleb128 0xe
 3779 029f 49       		.uleb128 0x49
 3780 02a0 13       		.uleb128 0x13
 3781 02a1 34       		.uleb128 0x34
 3782 02a2 19       		.uleb128 0x19
 3783 02a3 00       		.byte	0
 3784 02a4 00       		.byte	0
 3785 02a5 36       		.uleb128 0x36
 3786 02a6 898201   		.uleb128 0x4109
 3787 02a9 01       		.byte	0x1
 3788 02aa 11       		.uleb128 0x11
 3789 02ab 01       		.uleb128 0x1
 3790 02ac 9542     		.uleb128 0x2115
 3791 02ae 19       		.uleb128 0x19
 3792 02af 31       		.uleb128 0x31
 3793 02b0 13       		.uleb128 0x13
 3794 02b1 00       		.byte	0
 3795 02b2 00       		.byte	0
 3796 02b3 37       		.uleb128 0x37
 3797 02b4 898201   		.uleb128 0x4109
 3798 02b7 01       		.byte	0x1
 3799 02b8 11       		.uleb128 0x11
 3800 02b9 01       		.uleb128 0x1
 3801 02ba 9542     		.uleb128 0x2115
 3802 02bc 19       		.uleb128 0x19
 3803 02bd 31       		.uleb128 0x31
 3804 02be 13       		.uleb128 0x13
 3805 02bf 01       		.uleb128 0x1
 3806 02c0 13       		.uleb128 0x13
 3807 02c1 00       		.byte	0
 3808 02c2 00       		.byte	0
 3809 02c3 38       		.uleb128 0x38
 3810 02c4 05       		.uleb128 0x5
 3811 02c5 00       		.byte	0
 3812 02c6 03       		.uleb128 0x3
 3813 02c7 0E       		.uleb128 0xe
 3814 02c8 3A       		.uleb128 0x3a
 3815 02c9 0B       		.uleb128 0xb
ARM GAS  /tmp/ccaFA0zm.s 			page 68


 3816 02ca 3B       		.uleb128 0x3b
 3817 02cb 05       		.uleb128 0x5
 3818 02cc 49       		.uleb128 0x49
 3819 02cd 13       		.uleb128 0x13
 3820 02ce 02       		.uleb128 0x2
 3821 02cf 17       		.uleb128 0x17
 3822 02d0 00       		.byte	0
 3823 02d1 00       		.byte	0
 3824 02d2 39       		.uleb128 0x39
 3825 02d3 898201   		.uleb128 0x4109
 3826 02d6 01       		.byte	0x1
 3827 02d7 11       		.uleb128 0x11
 3828 02d8 01       		.uleb128 0x1
 3829 02d9 31       		.uleb128 0x31
 3830 02da 13       		.uleb128 0x13
 3831 02db 01       		.uleb128 0x1
 3832 02dc 13       		.uleb128 0x13
 3833 02dd 00       		.byte	0
 3834 02de 00       		.byte	0
 3835 02df 3A       		.uleb128 0x3a
 3836 02e0 2E       		.uleb128 0x2e
 3837 02e1 01       		.byte	0x1
 3838 02e2 03       		.uleb128 0x3
 3839 02e3 0E       		.uleb128 0xe
 3840 02e4 3A       		.uleb128 0x3a
 3841 02e5 0B       		.uleb128 0xb
 3842 02e6 3B       		.uleb128 0x3b
 3843 02e7 05       		.uleb128 0x5
 3844 02e8 27       		.uleb128 0x27
 3845 02e9 19       		.uleb128 0x19
 3846 02ea 11       		.uleb128 0x11
 3847 02eb 01       		.uleb128 0x1
 3848 02ec 12       		.uleb128 0x12
 3849 02ed 06       		.uleb128 0x6
 3850 02ee 40       		.uleb128 0x40
 3851 02ef 18       		.uleb128 0x18
 3852 02f0 9742     		.uleb128 0x2117
 3853 02f2 19       		.uleb128 0x19
 3854 02f3 01       		.uleb128 0x1
 3855 02f4 13       		.uleb128 0x13
 3856 02f5 00       		.byte	0
 3857 02f6 00       		.byte	0
 3858 02f7 3B       		.uleb128 0x3b
 3859 02f8 1D       		.uleb128 0x1d
 3860 02f9 01       		.byte	0x1
 3861 02fa 31       		.uleb128 0x31
 3862 02fb 13       		.uleb128 0x13
 3863 02fc 11       		.uleb128 0x11
 3864 02fd 01       		.uleb128 0x1
 3865 02fe 12       		.uleb128 0x12
 3866 02ff 06       		.uleb128 0x6
 3867 0300 58       		.uleb128 0x58
 3868 0301 0B       		.uleb128 0xb
 3869 0302 59       		.uleb128 0x59
 3870 0303 05       		.uleb128 0x5
 3871 0304 00       		.byte	0
 3872 0305 00       		.byte	0
ARM GAS  /tmp/ccaFA0zm.s 			page 69


 3873 0306 3C       		.uleb128 0x3c
 3874 0307 05       		.uleb128 0x5
 3875 0308 00       		.byte	0
 3876 0309 31       		.uleb128 0x31
 3877 030a 13       		.uleb128 0x13
 3878 030b 02       		.uleb128 0x2
 3879 030c 18       		.uleb128 0x18
 3880 030d 00       		.byte	0
 3881 030e 00       		.byte	0
 3882 030f 3D       		.uleb128 0x3d
 3883 0310 1D       		.uleb128 0x1d
 3884 0311 01       		.byte	0x1
 3885 0312 31       		.uleb128 0x31
 3886 0313 13       		.uleb128 0x13
 3887 0314 52       		.uleb128 0x52
 3888 0315 01       		.uleb128 0x1
 3889 0316 55       		.uleb128 0x55
 3890 0317 17       		.uleb128 0x17
 3891 0318 58       		.uleb128 0x58
 3892 0319 0B       		.uleb128 0xb
 3893 031a 59       		.uleb128 0x59
 3894 031b 05       		.uleb128 0x5
 3895 031c 00       		.byte	0
 3896 031d 00       		.byte	0
 3897 031e 3E       		.uleb128 0x3e
 3898 031f 05       		.uleb128 0x5
 3899 0320 00       		.byte	0
 3900 0321 03       		.uleb128 0x3
 3901 0322 08       		.uleb128 0x8
 3902 0323 3A       		.uleb128 0x3a
 3903 0324 0B       		.uleb128 0xb
 3904 0325 3B       		.uleb128 0x3b
 3905 0326 05       		.uleb128 0x5
 3906 0327 49       		.uleb128 0x49
 3907 0328 13       		.uleb128 0x13
 3908 0329 02       		.uleb128 0x2
 3909 032a 18       		.uleb128 0x18
 3910 032b 00       		.byte	0
 3911 032c 00       		.byte	0
 3912 032d 3F       		.uleb128 0x3f
 3913 032e 2E       		.uleb128 0x2e
 3914 032f 01       		.byte	0x1
 3915 0330 3F       		.uleb128 0x3f
 3916 0331 19       		.uleb128 0x19
 3917 0332 03       		.uleb128 0x3
 3918 0333 0E       		.uleb128 0xe
 3919 0334 3A       		.uleb128 0x3a
 3920 0335 0B       		.uleb128 0xb
 3921 0336 3B       		.uleb128 0x3b
 3922 0337 0B       		.uleb128 0xb
 3923 0338 27       		.uleb128 0x27
 3924 0339 19       		.uleb128 0x19
 3925 033a 49       		.uleb128 0x49
 3926 033b 13       		.uleb128 0x13
 3927 033c 11       		.uleb128 0x11
 3928 033d 01       		.uleb128 0x1
 3929 033e 12       		.uleb128 0x12
ARM GAS  /tmp/ccaFA0zm.s 			page 70


 3930 033f 06       		.uleb128 0x6
 3931 0340 40       		.uleb128 0x40
 3932 0341 18       		.uleb128 0x18
 3933 0342 9742     		.uleb128 0x2117
 3934 0344 19       		.uleb128 0x19
 3935 0345 01       		.uleb128 0x1
 3936 0346 13       		.uleb128 0x13
 3937 0347 00       		.byte	0
 3938 0348 00       		.byte	0
 3939 0349 40       		.uleb128 0x40
 3940 034a 05       		.uleb128 0x5
 3941 034b 00       		.byte	0
 3942 034c 03       		.uleb128 0x3
 3943 034d 08       		.uleb128 0x8
 3944 034e 3A       		.uleb128 0x3a
 3945 034f 0B       		.uleb128 0xb
 3946 0350 3B       		.uleb128 0x3b
 3947 0351 0B       		.uleb128 0xb
 3948 0352 49       		.uleb128 0x49
 3949 0353 13       		.uleb128 0x13
 3950 0354 02       		.uleb128 0x2
 3951 0355 18       		.uleb128 0x18
 3952 0356 00       		.byte	0
 3953 0357 00       		.byte	0
 3954 0358 41       		.uleb128 0x41
 3955 0359 34       		.uleb128 0x34
 3956 035a 00       		.byte	0
 3957 035b 03       		.uleb128 0x3
 3958 035c 08       		.uleb128 0x8
 3959 035d 3A       		.uleb128 0x3a
 3960 035e 0B       		.uleb128 0xb
 3961 035f 3B       		.uleb128 0x3b
 3962 0360 0B       		.uleb128 0xb
 3963 0361 49       		.uleb128 0x49
 3964 0362 13       		.uleb128 0x13
 3965 0363 02       		.uleb128 0x2
 3966 0364 17       		.uleb128 0x17
 3967 0365 00       		.byte	0
 3968 0366 00       		.byte	0
 3969 0367 42       		.uleb128 0x42
 3970 0368 2E       		.uleb128 0x2e
 3971 0369 01       		.byte	0x1
 3972 036a 3F       		.uleb128 0x3f
 3973 036b 19       		.uleb128 0x19
 3974 036c 03       		.uleb128 0x3
 3975 036d 0E       		.uleb128 0xe
 3976 036e 3A       		.uleb128 0x3a
 3977 036f 0B       		.uleb128 0xb
 3978 0370 3B       		.uleb128 0x3b
 3979 0371 0B       		.uleb128 0xb
 3980 0372 27       		.uleb128 0x27
 3981 0373 19       		.uleb128 0x19
 3982 0374 11       		.uleb128 0x11
 3983 0375 01       		.uleb128 0x1
 3984 0376 12       		.uleb128 0x12
 3985 0377 06       		.uleb128 0x6
 3986 0378 40       		.uleb128 0x40
ARM GAS  /tmp/ccaFA0zm.s 			page 71


 3987 0379 18       		.uleb128 0x18
 3988 037a 9742     		.uleb128 0x2117
 3989 037c 19       		.uleb128 0x19
 3990 037d 01       		.uleb128 0x1
 3991 037e 13       		.uleb128 0x13
 3992 037f 00       		.byte	0
 3993 0380 00       		.byte	0
 3994 0381 43       		.uleb128 0x43
 3995 0382 1D       		.uleb128 0x1d
 3996 0383 01       		.byte	0x1
 3997 0384 31       		.uleb128 0x31
 3998 0385 13       		.uleb128 0x13
 3999 0386 52       		.uleb128 0x52
 4000 0387 01       		.uleb128 0x1
 4001 0388 55       		.uleb128 0x55
 4002 0389 17       		.uleb128 0x17
 4003 038a 58       		.uleb128 0x58
 4004 038b 0B       		.uleb128 0xb
 4005 038c 59       		.uleb128 0x59
 4006 038d 0B       		.uleb128 0xb
 4007 038e 00       		.byte	0
 4008 038f 00       		.byte	0
 4009 0390 44       		.uleb128 0x44
 4010 0391 2E       		.uleb128 0x2e
 4011 0392 01       		.byte	0x1
 4012 0393 03       		.uleb128 0x3
 4013 0394 0E       		.uleb128 0xe
 4014 0395 3A       		.uleb128 0x3a
 4015 0396 0B       		.uleb128 0xb
 4016 0397 3B       		.uleb128 0x3b
 4017 0398 0B       		.uleb128 0xb
 4018 0399 27       		.uleb128 0x27
 4019 039a 19       		.uleb128 0x19
 4020 039b 20       		.uleb128 0x20
 4021 039c 0B       		.uleb128 0xb
 4022 039d 01       		.uleb128 0x1
 4023 039e 13       		.uleb128 0x13
 4024 039f 00       		.byte	0
 4025 03a0 00       		.byte	0
 4026 03a1 45       		.uleb128 0x45
 4027 03a2 05       		.uleb128 0x5
 4028 03a3 00       		.byte	0
 4029 03a4 03       		.uleb128 0x3
 4030 03a5 08       		.uleb128 0x8
 4031 03a6 3A       		.uleb128 0x3a
 4032 03a7 0B       		.uleb128 0xb
 4033 03a8 3B       		.uleb128 0x3b
 4034 03a9 0B       		.uleb128 0xb
 4035 03aa 49       		.uleb128 0x49
 4036 03ab 13       		.uleb128 0x13
 4037 03ac 00       		.byte	0
 4038 03ad 00       		.byte	0
 4039 03ae 46       		.uleb128 0x46
 4040 03af 2E       		.uleb128 0x2e
 4041 03b0 01       		.byte	0x1
 4042 03b1 03       		.uleb128 0x3
 4043 03b2 0E       		.uleb128 0xe
ARM GAS  /tmp/ccaFA0zm.s 			page 72


 4044 03b3 3A       		.uleb128 0x3a
 4045 03b4 0B       		.uleb128 0xb
 4046 03b5 3B       		.uleb128 0x3b
 4047 03b6 0B       		.uleb128 0xb
 4048 03b7 27       		.uleb128 0x27
 4049 03b8 19       		.uleb128 0x19
 4050 03b9 49       		.uleb128 0x49
 4051 03ba 13       		.uleb128 0x13
 4052 03bb 20       		.uleb128 0x20
 4053 03bc 0B       		.uleb128 0xb
 4054 03bd 01       		.uleb128 0x1
 4055 03be 13       		.uleb128 0x13
 4056 03bf 00       		.byte	0
 4057 03c0 00       		.byte	0
 4058 03c1 47       		.uleb128 0x47
 4059 03c2 2E       		.uleb128 0x2e
 4060 03c3 00       		.byte	0
 4061 03c4 03       		.uleb128 0x3
 4062 03c5 0E       		.uleb128 0xe
 4063 03c6 3A       		.uleb128 0x3a
 4064 03c7 0B       		.uleb128 0xb
 4065 03c8 3B       		.uleb128 0x3b
 4066 03c9 05       		.uleb128 0x5
 4067 03ca 27       		.uleb128 0x27
 4068 03cb 19       		.uleb128 0x19
 4069 03cc 20       		.uleb128 0x20
 4070 03cd 0B       		.uleb128 0xb
 4071 03ce 00       		.byte	0
 4072 03cf 00       		.byte	0
 4073 03d0 48       		.uleb128 0x48
 4074 03d1 2E       		.uleb128 0x2e
 4075 03d2 00       		.byte	0
 4076 03d3 03       		.uleb128 0x3
 4077 03d4 0E       		.uleb128 0xe
 4078 03d5 3A       		.uleb128 0x3a
 4079 03d6 0B       		.uleb128 0xb
 4080 03d7 3B       		.uleb128 0x3b
 4081 03d8 05       		.uleb128 0x5
 4082 03d9 27       		.uleb128 0x27
 4083 03da 19       		.uleb128 0x19
 4084 03db 49       		.uleb128 0x49
 4085 03dc 13       		.uleb128 0x13
 4086 03dd 00       		.byte	0
 4087 03de 00       		.byte	0
 4088 03df 49       		.uleb128 0x49
 4089 03e0 2E       		.uleb128 0x2e
 4090 03e1 01       		.byte	0x1
 4091 03e2 03       		.uleb128 0x3
 4092 03e3 0E       		.uleb128 0xe
 4093 03e4 3A       		.uleb128 0x3a
 4094 03e5 0B       		.uleb128 0xb
 4095 03e6 3B       		.uleb128 0x3b
 4096 03e7 05       		.uleb128 0x5
 4097 03e8 27       		.uleb128 0x27
 4098 03e9 19       		.uleb128 0x19
 4099 03ea 49       		.uleb128 0x49
 4100 03eb 13       		.uleb128 0x13
ARM GAS  /tmp/ccaFA0zm.s 			page 73


 4101 03ec 20       		.uleb128 0x20
 4102 03ed 0B       		.uleb128 0xb
 4103 03ee 01       		.uleb128 0x1
 4104 03ef 13       		.uleb128 0x13
 4105 03f0 00       		.byte	0
 4106 03f1 00       		.byte	0
 4107 03f2 4A       		.uleb128 0x4a
 4108 03f3 05       		.uleb128 0x5
 4109 03f4 00       		.byte	0
 4110 03f5 03       		.uleb128 0x3
 4111 03f6 08       		.uleb128 0x8
 4112 03f7 3A       		.uleb128 0x3a
 4113 03f8 0B       		.uleb128 0xb
 4114 03f9 3B       		.uleb128 0x3b
 4115 03fa 05       		.uleb128 0x5
 4116 03fb 49       		.uleb128 0x49
 4117 03fc 13       		.uleb128 0x13
 4118 03fd 00       		.byte	0
 4119 03fe 00       		.byte	0
 4120 03ff 4B       		.uleb128 0x4b
 4121 0400 2E       		.uleb128 0x2e
 4122 0401 01       		.byte	0x1
 4123 0402 03       		.uleb128 0x3
 4124 0403 0E       		.uleb128 0xe
 4125 0404 3A       		.uleb128 0x3a
 4126 0405 0B       		.uleb128 0xb
 4127 0406 3B       		.uleb128 0x3b
 4128 0407 05       		.uleb128 0x5
 4129 0408 27       		.uleb128 0x27
 4130 0409 19       		.uleb128 0x19
 4131 040a 20       		.uleb128 0x20
 4132 040b 0B       		.uleb128 0xb
 4133 040c 01       		.uleb128 0x1
 4134 040d 13       		.uleb128 0x13
 4135 040e 00       		.byte	0
 4136 040f 00       		.byte	0
 4137 0410 4C       		.uleb128 0x4c
 4138 0411 05       		.uleb128 0x5
 4139 0412 00       		.byte	0
 4140 0413 03       		.uleb128 0x3
 4141 0414 0E       		.uleb128 0xe
 4142 0415 3A       		.uleb128 0x3a
 4143 0416 0B       		.uleb128 0xb
 4144 0417 3B       		.uleb128 0x3b
 4145 0418 05       		.uleb128 0x5
 4146 0419 49       		.uleb128 0x49
 4147 041a 13       		.uleb128 0x13
 4148 041b 00       		.byte	0
 4149 041c 00       		.byte	0
 4150 041d 4D       		.uleb128 0x4d
 4151 041e 34       		.uleb128 0x34
 4152 041f 00       		.byte	0
 4153 0420 03       		.uleb128 0x3
 4154 0421 0E       		.uleb128 0xe
 4155 0422 3A       		.uleb128 0x3a
 4156 0423 0B       		.uleb128 0xb
 4157 0424 3B       		.uleb128 0x3b
ARM GAS  /tmp/ccaFA0zm.s 			page 74


 4158 0425 0B       		.uleb128 0xb
 4159 0426 49       		.uleb128 0x49
 4160 0427 13       		.uleb128 0x13
 4161 0428 00       		.byte	0
 4162 0429 00       		.byte	0
 4163 042a 4E       		.uleb128 0x4e
 4164 042b 2E       		.uleb128 0x2e
 4165 042c 00       		.byte	0
 4166 042d 3F       		.uleb128 0x3f
 4167 042e 19       		.uleb128 0x19
 4168 042f 3C       		.uleb128 0x3c
 4169 0430 19       		.uleb128 0x19
 4170 0431 6E       		.uleb128 0x6e
 4171 0432 0E       		.uleb128 0xe
 4172 0433 03       		.uleb128 0x3
 4173 0434 0E       		.uleb128 0xe
 4174 0435 3A       		.uleb128 0x3a
 4175 0436 0B       		.uleb128 0xb
 4176 0437 3B       		.uleb128 0x3b
 4177 0438 05       		.uleb128 0x5
 4178 0439 00       		.byte	0
 4179 043a 00       		.byte	0
 4180 043b 4F       		.uleb128 0x4f
 4181 043c 2E       		.uleb128 0x2e
 4182 043d 00       		.byte	0
 4183 043e 3F       		.uleb128 0x3f
 4184 043f 19       		.uleb128 0x19
 4185 0440 3C       		.uleb128 0x3c
 4186 0441 19       		.uleb128 0x19
 4187 0442 6E       		.uleb128 0x6e
 4188 0443 0E       		.uleb128 0xe
 4189 0444 03       		.uleb128 0x3
 4190 0445 0E       		.uleb128 0xe
 4191 0446 3A       		.uleb128 0x3a
 4192 0447 0B       		.uleb128 0xb
 4193 0448 3B       		.uleb128 0x3b
 4194 0449 0B       		.uleb128 0xb
 4195 044a 00       		.byte	0
 4196 044b 00       		.byte	0
 4197 044c 00       		.byte	0
 4198              		.section	.debug_loc,"",%progbits
 4199              	.Ldebug_loc0:
 4200              	.LLST23:
 4201 0000 08000000 		.4byte	.LVL57
 4202 0004 1A000000 		.4byte	.LVL59
 4203 0008 0100     		.2byte	0x1
 4204 000a 50       		.byte	0x50
 4205 000b 1C000000 		.4byte	.LVL60
 4206 000f 2B000000 		.4byte	.LVL63-1
 4207 0013 0100     		.2byte	0x1
 4208 0015 50       		.byte	0x50
 4209 0016 2B000000 		.4byte	.LVL63-1
 4210 001a 34000000 		.4byte	.LVL64
 4211 001e 0100     		.2byte	0x1
 4212 0020 55       		.byte	0x55
 4213 0021 34000000 		.4byte	.LVL64
 4214 0025 37000000 		.4byte	.LVL65-1
ARM GAS  /tmp/ccaFA0zm.s 			page 75


 4215 0029 0100     		.2byte	0x1
 4216 002b 51       		.byte	0x51
 4217 002c 00000000 		.4byte	0
 4218 0030 00000000 		.4byte	0
 4219              	.LLST26:
 4220 0034 20000000 		.4byte	.LVL61
 4221 0038 24000000 		.4byte	.LVL62
 4222 003c 0100     		.2byte	0x1
 4223 003e 53       		.byte	0x53
 4224 003f 24000000 		.4byte	.LVL62
 4225 0043 2B000000 		.4byte	.LVL63-1
 4226 0047 0400     		.2byte	0x4
 4227 0049 73       		.byte	0x73
 4228 004a E400     		.sleb128 100
 4229 004c 9F       		.byte	0x9f
 4230 004d 00000000 		.4byte	0
 4231 0051 00000000 		.4byte	0
 4232              	.LLST24:
 4233 0055 08000000 		.4byte	.LVL57
 4234 0059 0E000000 		.4byte	.LVL58
 4235 005d 0600     		.2byte	0x6
 4236 005f 03       		.byte	0x3
 4237 0060 00000000 		.4byte	ch
 4238 0064 9F       		.byte	0x9f
 4239 0065 00000000 		.4byte	0
 4240 0069 00000000 		.4byte	0
 4241              	.LLST25:
 4242 006d 08000000 		.4byte	.LVL57
 4243 0071 0E000000 		.4byte	.LVL58
 4244 0075 0100     		.2byte	0x1
 4245 0077 53       		.byte	0x53
 4246 0078 00000000 		.4byte	0
 4247 007c 00000000 		.4byte	0
 4248              	.LLST19:
 4249 0080 08000000 		.4byte	.LVL48
 4250 0084 1A000000 		.4byte	.LVL50
 4251 0088 0100     		.2byte	0x1
 4252 008a 50       		.byte	0x50
 4253 008b 1C000000 		.4byte	.LVL51
 4254 008f 2B000000 		.4byte	.LVL54-1
 4255 0093 0100     		.2byte	0x1
 4256 0095 50       		.byte	0x50
 4257 0096 2B000000 		.4byte	.LVL54-1
 4258 009a 34000000 		.4byte	.LVL55
 4259 009e 0100     		.2byte	0x1
 4260 00a0 55       		.byte	0x55
 4261 00a1 34000000 		.4byte	.LVL55
 4262 00a5 37000000 		.4byte	.LVL56-1
 4263 00a9 0100     		.2byte	0x1
 4264 00ab 51       		.byte	0x51
 4265 00ac 00000000 		.4byte	0
 4266 00b0 00000000 		.4byte	0
 4267              	.LLST22:
 4268 00b4 20000000 		.4byte	.LVL52
 4269 00b8 24000000 		.4byte	.LVL53
 4270 00bc 0100     		.2byte	0x1
 4271 00be 53       		.byte	0x53
ARM GAS  /tmp/ccaFA0zm.s 			page 76


 4272 00bf 24000000 		.4byte	.LVL53
 4273 00c3 2B000000 		.4byte	.LVL54-1
 4274 00c7 0400     		.2byte	0x4
 4275 00c9 73       		.byte	0x73
 4276 00ca E400     		.sleb128 100
 4277 00cc 9F       		.byte	0x9f
 4278 00cd 00000000 		.4byte	0
 4279 00d1 00000000 		.4byte	0
 4280              	.LLST20:
 4281 00d5 08000000 		.4byte	.LVL48
 4282 00d9 0E000000 		.4byte	.LVL49
 4283 00dd 0600     		.2byte	0x6
 4284 00df 03       		.byte	0x3
 4285 00e0 00000000 		.4byte	ch
 4286 00e4 9F       		.byte	0x9f
 4287 00e5 00000000 		.4byte	0
 4288 00e9 00000000 		.4byte	0
 4289              	.LLST21:
 4290 00ed 08000000 		.4byte	.LVL48
 4291 00f1 0E000000 		.4byte	.LVL49
 4292 00f5 0100     		.2byte	0x1
 4293 00f7 53       		.byte	0x53
 4294 00f8 00000000 		.4byte	0
 4295 00fc 00000000 		.4byte	0
 4296              	.LLST15:
 4297 0100 00000000 		.4byte	.LVL35
 4298 0104 1A000000 		.4byte	.LVL38
 4299 0108 0100     		.2byte	0x1
 4300 010a 50       		.byte	0x50
 4301 010b 1A000000 		.4byte	.LVL38
 4302 010f 1C000000 		.4byte	.LVL39
 4303 0113 0100     		.2byte	0x1
 4304 0115 50       		.byte	0x50
 4305 0116 1C000000 		.4byte	.LVL39
 4306 011a 42000000 		.4byte	.LVL45
 4307 011e 0100     		.2byte	0x1
 4308 0120 54       		.byte	0x54
 4309 0121 42000000 		.4byte	.LVL45
 4310 0125 45000000 		.4byte	.LVL46-1
 4311 0129 0100     		.2byte	0x1
 4312 012b 50       		.byte	0x50
 4313 012c 45000000 		.4byte	.LVL46-1
 4314 0130 4C000000 		.4byte	.LFE296
 4315 0134 0400     		.2byte	0x4
 4316 0136 F3       		.byte	0xf3
 4317 0137 01       		.uleb128 0x1
 4318 0138 50       		.byte	0x50
 4319 0139 9F       		.byte	0x9f
 4320 013a 00000000 		.4byte	0
 4321 013e 00000000 		.4byte	0
 4322              	.LLST16:
 4323 0142 00000000 		.4byte	.LVL35
 4324 0146 0A000000 		.4byte	.LVL37
 4325 014a 0100     		.2byte	0x1
 4326 014c 51       		.byte	0x51
 4327 014d 0A000000 		.4byte	.LVL37
 4328 0151 19000000 		.4byte	.LVL38-1
ARM GAS  /tmp/ccaFA0zm.s 			page 77


 4329 0155 0200     		.2byte	0x2
 4330 0157 70       		.byte	0x70
 4331 0158 24       		.sleb128 36
 4332 0159 19000000 		.4byte	.LVL38-1
 4333 015d 1A000000 		.4byte	.LVL38
 4334 0161 0400     		.2byte	0x4
 4335 0163 F3       		.byte	0xf3
 4336 0164 01       		.uleb128 0x1
 4337 0165 51       		.byte	0x51
 4338 0166 9F       		.byte	0x9f
 4339 0167 1A000000 		.4byte	.LVL38
 4340 016b 1C000000 		.4byte	.LVL39
 4341 016f 0200     		.2byte	0x2
 4342 0171 70       		.byte	0x70
 4343 0172 24       		.sleb128 36
 4344 0173 1C000000 		.4byte	.LVL39
 4345 0177 1F000000 		.4byte	.LVL40-1
 4346 017b 0200     		.2byte	0x2
 4347 017d 74       		.byte	0x74
 4348 017e 24       		.sleb128 36
 4349 017f 1F000000 		.4byte	.LVL40-1
 4350 0183 4C000000 		.4byte	.LFE296
 4351 0187 0400     		.2byte	0x4
 4352 0189 F3       		.byte	0xf3
 4353 018a 01       		.uleb128 0x1
 4354 018b 51       		.byte	0x51
 4355 018c 9F       		.byte	0x9f
 4356 018d 00000000 		.4byte	0
 4357 0191 00000000 		.4byte	0
 4358              	.LLST17:
 4359 0195 08000000 		.4byte	.LVL36
 4360 0199 19000000 		.4byte	.LVL38-1
 4361 019d 0100     		.2byte	0x1
 4362 019f 53       		.byte	0x53
 4363 01a0 1A000000 		.4byte	.LVL38
 4364 01a4 1F000000 		.4byte	.LVL40-1
 4365 01a8 0100     		.2byte	0x1
 4366 01aa 53       		.byte	0x53
 4367 01ab 1F000000 		.4byte	.LVL40-1
 4368 01af 20000000 		.4byte	.LVL40
 4369 01b3 0100     		.2byte	0x1
 4370 01b5 50       		.byte	0x50
 4371 01b6 24000000 		.4byte	.LVL41
 4372 01ba 39000000 		.4byte	.LVL44-1
 4373 01be 0100     		.2byte	0x1
 4374 01c0 50       		.byte	0x50
 4375 01c1 39000000 		.4byte	.LVL44-1
 4376 01c5 42000000 		.4byte	.LVL45
 4377 01c9 0100     		.2byte	0x1
 4378 01cb 55       		.byte	0x55
 4379 01cc 42000000 		.4byte	.LVL45
 4380 01d0 45000000 		.4byte	.LVL46-1
 4381 01d4 0100     		.2byte	0x1
 4382 01d6 51       		.byte	0x51
 4383 01d7 00000000 		.4byte	0
 4384 01db 00000000 		.4byte	0
 4385              	.LLST18:
ARM GAS  /tmp/ccaFA0zm.s 			page 78


 4386 01df 2E000000 		.4byte	.LVL42
 4387 01e3 32000000 		.4byte	.LVL43
 4388 01e7 0100     		.2byte	0x1
 4389 01e9 53       		.byte	0x53
 4390 01ea 32000000 		.4byte	.LVL43
 4391 01ee 39000000 		.4byte	.LVL44-1
 4392 01f2 0400     		.2byte	0x4
 4393 01f4 73       		.byte	0x73
 4394 01f5 E400     		.sleb128 100
 4395 01f7 9F       		.byte	0x9f
 4396 01f8 00000000 		.4byte	0
 4397 01fc 00000000 		.4byte	0
 4398              	.LLST13:
 4399 0200 00000000 		.4byte	.LVL27
 4400 0204 12000000 		.4byte	.LVL28
 4401 0208 0100     		.2byte	0x1
 4402 020a 50       		.byte	0x50
 4403 020b 12000000 		.4byte	.LVL28
 4404 020f 2E000000 		.4byte	.LVL33
 4405 0213 0400     		.2byte	0x4
 4406 0215 F3       		.byte	0xf3
 4407 0216 01       		.uleb128 0x1
 4408 0217 50       		.byte	0x50
 4409 0218 9F       		.byte	0x9f
 4410 0219 2E000000 		.4byte	.LVL33
 4411 021d 31000000 		.4byte	.LVL34-1
 4412 0221 0100     		.2byte	0x1
 4413 0223 50       		.byte	0x50
 4414 0224 31000000 		.4byte	.LVL34-1
 4415 0228 3C000000 		.4byte	.LFE295
 4416 022c 0400     		.2byte	0x4
 4417 022e F3       		.byte	0xf3
 4418 022f 01       		.uleb128 0x1
 4419 0230 50       		.byte	0x50
 4420 0231 9F       		.byte	0x9f
 4421 0232 00000000 		.4byte	0
 4422 0236 00000000 		.4byte	0
 4423              	.LLST14:
 4424 023a 00000000 		.4byte	.LVL27
 4425 023e 15000000 		.4byte	.LVL29-1
 4426 0242 0100     		.2byte	0x1
 4427 0244 51       		.byte	0x51
 4428 0245 15000000 		.4byte	.LVL29-1
 4429 0249 2E000000 		.4byte	.LVL33
 4430 024d 0400     		.2byte	0x4
 4431 024f F3       		.byte	0xf3
 4432 0250 01       		.uleb128 0x1
 4433 0251 51       		.byte	0x51
 4434 0252 9F       		.byte	0x9f
 4435 0253 2E000000 		.4byte	.LVL33
 4436 0257 31000000 		.4byte	.LVL34-1
 4437 025b 0100     		.2byte	0x1
 4438 025d 51       		.byte	0x51
 4439 025e 31000000 		.4byte	.LVL34-1
 4440 0262 3C000000 		.4byte	.LFE295
 4441 0266 0400     		.2byte	0x4
 4442 0268 F3       		.byte	0xf3
ARM GAS  /tmp/ccaFA0zm.s 			page 79


 4443 0269 01       		.uleb128 0x1
 4444 026a 51       		.byte	0x51
 4445 026b 9F       		.byte	0x9f
 4446 026c 00000000 		.4byte	0
 4447 0270 00000000 		.4byte	0
 4448              	.LLST2:
 4449 0274 00000000 		.4byte	.LVL6
 4450 0278 2C000000 		.4byte	.LVL8
 4451 027c 0100     		.2byte	0x1
 4452 027e 50       		.byte	0x50
 4453 027f 2C000000 		.4byte	.LVL8
 4454 0283 34000000 		.4byte	.LVL10
 4455 0287 0400     		.2byte	0x4
 4456 0289 F3       		.byte	0xf3
 4457 028a 01       		.uleb128 0x1
 4458 028b 50       		.byte	0x50
 4459 028c 9F       		.byte	0x9f
 4460 028d 34000000 		.4byte	.LVL10
 4461 0291 48000000 		.4byte	.LFE294
 4462 0295 0100     		.2byte	0x1
 4463 0297 50       		.byte	0x50
 4464 0298 00000000 		.4byte	0
 4465 029c 00000000 		.4byte	0
 4466              	.LLST3:
 4467 02a0 00000000 		.4byte	.LVL6
 4468 02a4 2C000000 		.4byte	.LVL8
 4469 02a8 0100     		.2byte	0x1
 4470 02aa 50       		.byte	0x50
 4471 02ab 2C000000 		.4byte	.LVL8
 4472 02af 34000000 		.4byte	.LVL10
 4473 02b3 0400     		.2byte	0x4
 4474 02b5 F3       		.byte	0xf3
 4475 02b6 01       		.uleb128 0x1
 4476 02b7 50       		.byte	0x50
 4477 02b8 9F       		.byte	0x9f
 4478 02b9 34000000 		.4byte	.LVL10
 4479 02bd 48000000 		.4byte	.LFE294
 4480 02c1 0100     		.2byte	0x1
 4481 02c3 50       		.byte	0x50
 4482 02c4 00000000 		.4byte	0
 4483 02c8 00000000 		.4byte	0
 4484              	.LLST4:
 4485 02cc 00000000 		.4byte	.LVL6
 4486 02d0 08000000 		.4byte	.LVL7
 4487 02d4 0300     		.2byte	0x3
 4488 02d6 08       		.byte	0x8
 4489 02d7 20       		.byte	0x20
 4490 02d8 9F       		.byte	0x9f
 4491 02d9 00000000 		.4byte	0
 4492 02dd 00000000 		.4byte	0
 4493              	.LLST5:
 4494 02e1 2C000000 		.4byte	.LVL8
 4495 02e5 2E000000 		.4byte	.LVL9
 4496 02e9 0200     		.2byte	0x2
 4497 02eb 30       		.byte	0x30
 4498 02ec 9F       		.byte	0x9f
 4499 02ed 00000000 		.4byte	0
ARM GAS  /tmp/ccaFA0zm.s 			page 80


 4500 02f1 00000000 		.4byte	0
 4501              	.LLST6:
 4502 02f5 36000000 		.4byte	.LVL11
 4503 02f9 3C000000 		.4byte	.LVL12
 4504 02fd 0100     		.2byte	0x1
 4505 02ff 52       		.byte	0x52
 4506 0300 00000000 		.4byte	0
 4507 0304 00000000 		.4byte	0
 4508              	.LLST8:
 4509 0308 00000000 		.4byte	.LVL17
 4510 030c 28000000 		.4byte	.LVL23
 4511 0310 0100     		.2byte	0x1
 4512 0312 50       		.byte	0x50
 4513 0313 28000000 		.4byte	.LVL23
 4514 0317 3C000000 		.4byte	.LFE293
 4515 031b 0400     		.2byte	0x4
 4516 031d F3       		.byte	0xf3
 4517 031e 01       		.uleb128 0x1
 4518 031f 50       		.byte	0x50
 4519 0320 9F       		.byte	0x9f
 4520 0321 00000000 		.4byte	0
 4521 0325 00000000 		.4byte	0
 4522              	.LLST9:
 4523 0329 06000000 		.4byte	.LVL18
 4524 032d 34000000 		.4byte	.LVL25
 4525 0331 0100     		.2byte	0x1
 4526 0333 55       		.byte	0x55
 4527 0334 34000000 		.4byte	.LVL25
 4528 0338 37000000 		.4byte	.LVL26-1
 4529 033c 0100     		.2byte	0x1
 4530 033e 51       		.byte	0x51
 4531 033f 00000000 		.4byte	0
 4532 0343 00000000 		.4byte	0
 4533              	.LLST12:
 4534 0347 1E000000 		.4byte	.LVL21
 4535 034b 22000000 		.4byte	.LVL22
 4536 034f 0100     		.2byte	0x1
 4537 0351 52       		.byte	0x52
 4538 0352 22000000 		.4byte	.LVL22
 4539 0356 2B000000 		.4byte	.LVL24-1
 4540 035a 0400     		.2byte	0x4
 4541 035c 72       		.byte	0x72
 4542 035d E400     		.sleb128 100
 4543 035f 9F       		.byte	0x9f
 4544 0360 00000000 		.4byte	0
 4545 0364 00000000 		.4byte	0
 4546              	.LLST10:
 4547 0368 0C000000 		.4byte	.LVL19
 4548 036c 12000000 		.4byte	.LVL20
 4549 0370 0600     		.2byte	0x6
 4550 0372 03       		.byte	0x3
 4551 0373 00000000 		.4byte	ch
 4552 0377 9F       		.byte	0x9f
 4553 0378 00000000 		.4byte	0
 4554 037c 00000000 		.4byte	0
 4555              	.LLST11:
 4556 0380 0C000000 		.4byte	.LVL19
ARM GAS  /tmp/ccaFA0zm.s 			page 81


 4557 0384 12000000 		.4byte	.LVL20
 4558 0388 0100     		.2byte	0x1
 4559 038a 52       		.byte	0x52
 4560 038b 00000000 		.4byte	0
 4561 038f 00000000 		.4byte	0
 4562              	.LLST7:
 4563 0393 06000000 		.4byte	.LVL14
 4564 0397 0A000000 		.4byte	.LVL15
 4565 039b 0600     		.2byte	0x6
 4566 039d 03       		.byte	0x3
 4567 039e 00000000 		.4byte	ch
 4568 03a2 9F       		.byte	0x9f
 4569 03a3 0A000000 		.4byte	.LVL15
 4570 03a7 24000000 		.4byte	.LFE292
 4571 03ab 0100     		.2byte	0x1
 4572 03ad 53       		.byte	0x53
 4573 03ae 00000000 		.4byte	0
 4574 03b2 00000000 		.4byte	0
 4575              	.LLST1:
 4576 03b6 06000000 		.4byte	.LVL3
 4577 03ba 0A000000 		.4byte	.LVL4
 4578 03be 0600     		.2byte	0x6
 4579 03c0 03       		.byte	0x3
 4580 03c1 00000000 		.4byte	ch
 4581 03c5 9F       		.byte	0x9f
 4582 03c6 0A000000 		.4byte	.LVL4
 4583 03ca 24000000 		.4byte	.LFE291
 4584 03ce 0100     		.2byte	0x1
 4585 03d0 53       		.byte	0x53
 4586 03d1 00000000 		.4byte	0
 4587 03d5 00000000 		.4byte	0
 4588              	.LLST0:
 4589 03d9 00000000 		.4byte	.LVL0
 4590 03dd 08000000 		.4byte	.LVL1
 4591 03e1 0600     		.2byte	0x6
 4592 03e3 03       		.byte	0x3
 4593 03e4 00000000 		.4byte	ch
 4594 03e8 9F       		.byte	0x9f
 4595 03e9 00000000 		.4byte	0
 4596 03ed 00000000 		.4byte	0
 4597              		.section	.debug_aranges,"",%progbits
 4598 0000 6C000000 		.4byte	0x6c
 4599 0004 0200     		.2byte	0x2
 4600 0006 00000000 		.4byte	.Ldebug_info0
 4601 000a 04       		.byte	0x4
 4602 000b 00       		.byte	0
 4603 000c 0000     		.2byte	0
 4604 000e 0000     		.2byte	0
 4605 0010 00000000 		.4byte	.LFB290
 4606 0014 14000000 		.4byte	.LFE290-.LFB290
 4607 0018 00000000 		.4byte	.LFB291
 4608 001c 24000000 		.4byte	.LFE291-.LFB291
 4609 0020 00000000 		.4byte	.LFB294
 4610 0024 48000000 		.4byte	.LFE294-.LFB294
 4611 0028 00000000 		.4byte	.LFB292
 4612 002c 24000000 		.4byte	.LFE292-.LFB292
 4613 0030 00000000 		.4byte	.LFB293
ARM GAS  /tmp/ccaFA0zm.s 			page 82


 4614 0034 3C000000 		.4byte	.LFE293-.LFB293
 4615 0038 00000000 		.4byte	.LFB295
 4616 003c 3C000000 		.4byte	.LFE295-.LFB295
 4617 0040 00000000 		.4byte	.LFB296
 4618 0044 4C000000 		.4byte	.LFE296-.LFB296
 4619 0048 00000000 		.4byte	.LFB298
 4620 004c 18000000 		.4byte	.LFE298-.LFB298
 4621 0050 00000000 		.4byte	.LFB299
 4622 0054 3C000000 		.4byte	.LFE299-.LFB299
 4623 0058 00000000 		.4byte	.LFB301
 4624 005c 3C000000 		.4byte	.LFE301-.LFB301
 4625 0060 00000000 		.4byte	.LFB297
 4626 0064 12000000 		.4byte	.LFE297-.LFB297
 4627 0068 00000000 		.4byte	0
 4628 006c 00000000 		.4byte	0
 4629              		.section	.debug_ranges,"",%progbits
 4630              	.Ldebug_ranges0:
 4631 0000 00000000 		.4byte	.LBB93
 4632 0004 02000000 		.4byte	.LBE93
 4633 0008 04000000 		.4byte	.LBB96
 4634 000c 08000000 		.4byte	.LBE96
 4635 0010 00000000 		.4byte	0
 4636 0014 00000000 		.4byte	0
 4637 0018 06000000 		.4byte	.LBB130
 4638 001c 08000000 		.4byte	.LBE130
 4639 0020 0C000000 		.4byte	.LBB133
 4640 0024 12000000 		.4byte	.LBE133
 4641 0028 00000000 		.4byte	0
 4642 002c 00000000 		.4byte	0
 4643 0030 1A000000 		.4byte	.LBB134
 4644 0034 30000000 		.4byte	.LBE134
 4645 0038 34000000 		.4byte	.LBB138
 4646 003c 3C000000 		.4byte	.LBE138
 4647 0040 00000000 		.4byte	0
 4648 0044 00000000 		.4byte	0
 4649 0048 2A000000 		.4byte	.LBB140
 4650 004c 3E000000 		.4byte	.LBE140
 4651 0050 42000000 		.4byte	.LBB144
 4652 0054 4C000000 		.4byte	.LBE144
 4653 0058 00000000 		.4byte	0
 4654 005c 00000000 		.4byte	0
 4655 0060 04000000 		.4byte	.LBB145
 4656 0064 06000000 		.4byte	.LBE145
 4657 0068 08000000 		.4byte	.LBB148
 4658 006c 0E000000 		.4byte	.LBE148
 4659 0070 00000000 		.4byte	0
 4660 0074 00000000 		.4byte	0
 4661 0078 1C000000 		.4byte	.LBB149
 4662 007c 30000000 		.4byte	.LBE149
 4663 0080 34000000 		.4byte	.LBB153
 4664 0084 3C000000 		.4byte	.LBE153
 4665 0088 00000000 		.4byte	0
 4666 008c 00000000 		.4byte	0
 4667 0090 04000000 		.4byte	.LBB154
 4668 0094 06000000 		.4byte	.LBE154
 4669 0098 08000000 		.4byte	.LBB157
 4670 009c 0E000000 		.4byte	.LBE157
ARM GAS  /tmp/ccaFA0zm.s 			page 83


 4671 00a0 00000000 		.4byte	0
 4672 00a4 00000000 		.4byte	0
 4673 00a8 1C000000 		.4byte	.LBB158
 4674 00ac 30000000 		.4byte	.LBE158
 4675 00b0 34000000 		.4byte	.LBB162
 4676 00b4 3C000000 		.4byte	.LBE162
 4677 00b8 00000000 		.4byte	0
 4678 00bc 00000000 		.4byte	0
 4679 00c0 00000000 		.4byte	.LFB290
 4680 00c4 14000000 		.4byte	.LFE290
 4681 00c8 00000000 		.4byte	.LFB291
 4682 00cc 24000000 		.4byte	.LFE291
 4683 00d0 00000000 		.4byte	.LFB294
 4684 00d4 48000000 		.4byte	.LFE294
 4685 00d8 00000000 		.4byte	.LFB292
 4686 00dc 24000000 		.4byte	.LFE292
 4687 00e0 00000000 		.4byte	.LFB293
 4688 00e4 3C000000 		.4byte	.LFE293
 4689 00e8 00000000 		.4byte	.LFB295
 4690 00ec 3C000000 		.4byte	.LFE295
 4691 00f0 00000000 		.4byte	.LFB296
 4692 00f4 4C000000 		.4byte	.LFE296
 4693 00f8 00000000 		.4byte	.LFB298
 4694 00fc 18000000 		.4byte	.LFE298
 4695 0100 00000000 		.4byte	.LFB299
 4696 0104 3C000000 		.4byte	.LFE299
 4697 0108 00000000 		.4byte	.LFB301
 4698 010c 3C000000 		.4byte	.LFE301
 4699 0110 00000000 		.4byte	.LFB297
 4700 0114 12000000 		.4byte	.LFE297
 4701 0118 00000000 		.4byte	0
 4702 011c 00000000 		.4byte	0
 4703              		.section	.debug_line,"",%progbits
 4704              	.Ldebug_line0:
 4705 0000 88050000 		.section	.debug_str,"MS",%progbits,1
 4705      02005603 
 4705      00000201 
 4705      FB0E0D00 
 4705      01010101 
 4706              	.LASF54:
 4707 0000 72656164 		.ascii	"ready_list_t\000"
 4707      795F6C69 
 4707      73745F74 
 4707      00
 4708              	.LASF4:
 4709 000d 73697A65 		.ascii	"size_t\000"
 4709      5F7400
 4710              	.LASF60:
 4711 0014 64656C74 		.ascii	"delta\000"
 4711      6100
 4712              	.LASF86:
 4713 001a 7264796D 		.ascii	"rdymsg\000"
 4713      736700
 4714              	.LASF20:
 4715 0021 75696E74 		.ascii	"uint64_t\000"
 4715      36345F74 
 4715      00
ARM GAS  /tmp/ccaFA0zm.s 			page 84


 4716              	.LASF146:
 4717 002a 63685363 		.ascii	"chSchDoRescheduleAhead\000"
 4717      68446F52 
 4717      65736368 
 4717      6564756C 
 4717      65416865 
 4718              	.LASF27:
 4719 0041 6576656E 		.ascii	"eventmask_t\000"
 4719      746D6173 
 4719      6B5F7400 
 4720              	.LASF5:
 4721 004d 5F5F7569 		.ascii	"__uint8_t\000"
 4721      6E74385F 
 4721      7400
 4722              	.LASF53:
 4723 0057 70726576 		.ascii	"prev\000"
 4723      00
 4724              	.LASF83:
 4725 005c 706F7274 		.ascii	"port_intctx\000"
 4725      5F696E74 
 4725      63747800 
 4726              	.LASF65:
 4727 0068 73797374 		.ascii	"system_debug_t\000"
 4727      656D5F64 
 4727      65627567 
 4727      5F7400
 4728              	.LASF130:
 4729 0077 70726F76 		.ascii	"provider\000"
 4729      69646572 
 4729      00
 4730              	.LASF168:
 4731 0080 71756575 		.ascii	"queue_init\000"
 4731      655F696E 
 4731      697400
 4732              	.LASF140:
 4733 008b 73656D5F 		.ascii	"sem_list\000"
 4733      6C697374 
 4733      00
 4734              	.LASF172:
 4735 0094 706F7274 		.ascii	"port_lock\000"
 4735      5F6C6F63 
 4735      6B00
 4736              	.LASF122:
 4737 009e 6D656D67 		.ascii	"memgetfunc_t\000"
 4737      65746675 
 4737      6E635F74 
 4737      00
 4738              	.LASF15:
 4739 00ab 6C6F6E67 		.ascii	"long long unsigned int\000"
 4739      206C6F6E 
 4739      6720756E 
 4739      7369676E 
 4739      65642069 
 4740              	.LASF179:
 4741 00c2 63685654 		.ascii	"chVTDoResetI\000"
 4741      446F5265 
 4741      73657449 
ARM GAS  /tmp/ccaFA0zm.s 			page 85


 4741      00
 4742              	.LASF87:
 4743 00cf 65786974 		.ascii	"exitcode\000"
 4743      636F6465 
 4743      00
 4744              	.LASF72:
 4745 00d8 6D61696E 		.ascii	"mainthread\000"
 4745      74687265 
 4745      616400
 4746              	.LASF90:
 4747 00e3 73656E74 		.ascii	"sentmsg\000"
 4747      6D736700 
 4748              	.LASF62:
 4749 00eb 76697274 		.ascii	"virtual_timers_list_t\000"
 4749      75616C5F 
 4749      74696D65 
 4749      72735F6C 
 4749      6973745F 
 4750              	.LASF76:
 4751 0101 49544D5F 		.ascii	"ITM_RxBuffer\000"
 4751      52784275 
 4751      66666572 
 4751      00
 4752              	.LASF133:
 4753 010e 64796E5F 		.ascii	"dyn_element_t\000"
 4753      656C656D 
 4753      656E745F 
 4753      7400
 4754              	.LASF50:
 4755 011c 6E657874 		.ascii	"next\000"
 4755      00
 4756              	.LASF52:
 4757 0121 63685F74 		.ascii	"ch_threads_queue\000"
 4757      68726561 
 4757      64735F71 
 4757      75657565 
 4757      00
 4758              	.LASF160:
 4759 0132 5F736368 		.ascii	"_scheduler_init\000"
 4759      6564756C 
 4759      65725F69 
 4759      6E697400 
 4760              	.LASF1:
 4761 0142 6C6F6E67 		.ascii	"long long int\000"
 4761      206C6F6E 
 4761      6720696E 
 4761      7400
 4762              	.LASF3:
 4763 0150 7369676E 		.ascii	"signed char\000"
 4763      65642063 
 4763      68617200 
 4764              	.LASF101:
 4765 015c 73697A65 		.ascii	"size\000"
 4765      00
 4766              	.LASF180:
 4767 0161 474E5520 		.ascii	"GNU C11 6.3.1 20170620 (release) [ARM/embedded-6-br"
 4767      43313120 
ARM GAS  /tmp/ccaFA0zm.s 			page 86


 4767      362E332E 
 4767      31203230 
 4767      31373036 
 4768 0194 616E6368 		.ascii	"anch revision 249437] -mcpu=cortex-m4 -mfloat-abi=h"
 4768      20726576 
 4768      6973696F 
 4768      6E203234 
 4768      39343337 
 4769 01c7 61726420 		.ascii	"ard -mfpu=fpv4-sp-d16 -mno-thumb-interwork -mthumb "
 4769      2D6D6670 
 4769      753D6670 
 4769      76342D73 
 4769      702D6431 
 4770 01fa 2D67202D 		.ascii	"-g -Os -fomit-frame-pointer -falign-functions=16 -f"
 4770      4F73202D 
 4770      666F6D69 
 4770      742D6672 
 4770      616D652D 
 4771 022d 66756E63 		.ascii	"function-sections -fdata-sections -fno-common -fsin"
 4771      74696F6E 
 4771      2D736563 
 4771      74696F6E 
 4771      73202D66 
 4772 0260 676C652D 		.ascii	"gle-precision-constant\000"
 4772      70726563 
 4772      6973696F 
 4772      6E2D636F 
 4772      6E737461 
 4773              	.LASF174:
 4774 0277 62617365 		.ascii	"basePri\000"
 4774      50726900 
 4775              	.LASF71:
 4776 027f 76746C69 		.ascii	"vtlist\000"
 4776      737400
 4777              	.LASF171:
 4778 0286 706F7274 		.ascii	"port_unlock\000"
 4778      5F756E6C 
 4778      6F636B00 
 4779              	.LASF41:
 4780 0292 6D736771 		.ascii	"msgqueue\000"
 4780      75657565 
 4780      00
 4781              	.LASF37:
 4782 029b 73746174 		.ascii	"state\000"
 4782      6500
 4783              	.LASF11:
 4784 02a1 6C6F6E67 		.ascii	"long int\000"
 4784      20696E74 
 4784      00
 4785              	.LASF165:
 4786 02aa 71756575 		.ascii	"queue_dequeue\000"
 4786      655F6465 
 4786      71756575 
 4786      6500
 4787              	.LASF23:
 4788 02b8 74737461 		.ascii	"tstate_t\000"
 4788      74655F74 
ARM GAS  /tmp/ccaFA0zm.s 			page 87


 4788      00
 4789              	.LASF61:
 4790 02c1 66756E63 		.ascii	"func\000"
 4790      00
 4791              	.LASF115:
 4792 02c6 6F66665F 		.ascii	"off_preempt\000"
 4792      70726565 
 4792      6D707400 
 4793              	.LASF152:
 4794 02d2 63685363 		.ascii	"chSchIsPreemptionRequired\000"
 4794      68497350 
 4794      7265656D 
 4794      7074696F 
 4794      6E526571 
 4795              	.LASF150:
 4796 02ec 63685363 		.ascii	"chSchRescheduleS\000"
 4796      68526573 
 4796      63686564 
 4796      756C6553 
 4796      00
 4797              	.LASF12:
 4798 02fd 5F5F7569 		.ascii	"__uint32_t\000"
 4798      6E743332 
 4798      5F7400
 4799              	.LASF80:
 4800 0308 72656761 		.ascii	"regarm_t\000"
 4800      726D5F74 
 4800      00
 4801              	.LASF148:
 4802 0311 63685363 		.ascii	"chSchDoReschedule\000"
 4802      68446F52 
 4802      65736368 
 4802      6564756C 
 4802      6500
 4803              	.LASF142:
 4804 0323 6D62785F 		.ascii	"mbx_list\000"
 4804      6C697374 
 4804      00
 4805              	.LASF66:
 4806 032c 63685F73 		.ascii	"ch_system_debug\000"
 4806      79737465 
 4806      6D5F6465 
 4806      62756700 
 4807              	.LASF40:
 4808 033c 77616974 		.ascii	"waiting\000"
 4808      696E6700 
 4809              	.LASF70:
 4810 0344 726C6973 		.ascii	"rlist\000"
 4810      7400
 4811              	.LASF100:
 4812 034a 7A65726F 		.ascii	"zero\000"
 4812      00
 4813              	.LASF120:
 4814 034f 6D757465 		.ascii	"mutex_t\000"
 4814      785F7400 
 4815              	.LASF129:
 4816 0357 616C6967 		.ascii	"align\000"
ARM GAS  /tmp/ccaFA0zm.s 			page 88


 4816      6E00
 4817              	.LASF74:
 4818 035d 73797369 		.ascii	"sysinterval_t\000"
 4818      6E746572 
 4818      76616C5F 
 4818      7400
 4819              	.LASF28:
 4820 036b 636E745F 		.ascii	"cnt_t\000"
 4820      7400
 4821              	.LASF0:
 4822 0371 756E7369 		.ascii	"unsigned int\000"
 4822      676E6564 
 4822      20696E74 
 4822      00
 4823              	.LASF183:
 4824 037e 77616B65 		.ascii	"wakeup\000"
 4824      757000
 4825              	.LASF17:
 4826 0385 75696E74 		.ascii	"uint16_t\000"
 4826      31365F74 
 4826      00
 4827              	.LASF77:
 4828 038e 53797374 		.ascii	"SystemCoreClock\000"
 4828      656D436F 
 4828      7265436C 
 4828      6F636B00 
 4829              	.LASF91:
 4830 039e 77747365 		.ascii	"wtsemp\000"
 4830      6D7000
 4831              	.LASF177:
 4832 03a5 5F706F72 		.ascii	"_port_switch\000"
 4832      745F7377 
 4832      69746368 
 4832      00
 4833              	.LASF89:
 4834 03b2 77747472 		.ascii	"wttrp\000"
 4834      7000
 4835              	.LASF118:
 4836 03b8 63685F64 		.ascii	"ch_debug\000"
 4836      65627567 
 4836      00
 4837              	.LASF145:
 4838 03c1 63685F66 		.ascii	"ch_factory\000"
 4838      6163746F 
 4838      727900
 4839              	.LASF155:
 4840 03cc 74696D65 		.ascii	"timeout\000"
 4840      6F757400 
 4841              	.LASF131:
 4842 03d4 6D656D6F 		.ascii	"memory_pool_t\000"
 4842      72795F70 
 4842      6F6F6C5F 
 4842      7400
 4843              	.LASF35:
 4844 03e2 6E616D65 		.ascii	"name\000"
 4844      00
 4845              	.LASF31:
ARM GAS  /tmp/ccaFA0zm.s 			page 89


 4846 03e7 71756575 		.ascii	"queue\000"
 4846      6500
 4847              	.LASF45:
 4848 03ed 6D706F6F 		.ascii	"mpool\000"
 4848      6C00
 4849              	.LASF114:
 4850 03f3 6F66665F 		.ascii	"off_refs\000"
 4850      72656673 
 4850      00
 4851              	.LASF139:
 4852 03fc 6275665F 		.ascii	"buf_list\000"
 4852      6C697374 
 4852      00
 4853              	.LASF48:
 4854 0405 63685F74 		.ascii	"ch_thread\000"
 4854      68726561 
 4854      6400
 4855              	.LASF26:
 4856 040f 6D73675F 		.ascii	"msg_t\000"
 4856      7400
 4857              	.LASF29:
 4858 0415 75636E74 		.ascii	"ucnt_t\000"
 4858      5F7400
 4859              	.LASF42:
 4860 041c 6570656E 		.ascii	"epending\000"
 4860      64696E67 
 4860      00
 4861              	.LASF135:
 4862 0425 64796E5F 		.ascii	"dyn_list_t\000"
 4862      6C697374 
 4862      5F7400
 4863              	.LASF68:
 4864 0430 63685F73 		.ascii	"ch_system_t\000"
 4864      79737465 
 4864      6D5F7400 
 4865              	.LASF107:
 4866 043c 6F66665F 		.ascii	"off_ctx\000"
 4866      63747800 
 4867              	.LASF88:
 4868 0444 77746F62 		.ascii	"wtobjp\000"
 4868      6A7000
 4869              	.LASF55:
 4870 044b 63685F72 		.ascii	"ch_ready_list\000"
 4870      65616479 
 4870      5F6C6973 
 4870      7400
 4871              	.LASF178:
 4872 0459 63685654 		.ascii	"chVTDoSetI\000"
 4872      446F5365 
 4872      744900
 4873              	.LASF78:
 4874 0464 41484250 		.ascii	"AHBPrescTable\000"
 4874      72657363 
 4874      5461626C 
 4874      6500
 4875              	.LASF124:
 4876 0472 656E646D 		.ascii	"endmem\000"
ARM GAS  /tmp/ccaFA0zm.s 			page 90


 4876      656D00
 4877              	.LASF181:
 4878 0479 2E2E2F2E 		.ascii	"../../modules/ChibiOS/os/rt/src/chschd.c\000"
 4878      2E2F6D6F 
 4878      64756C65 
 4878      732F4368 
 4878      6962694F 
 4879              	.LASF81:
 4880 04a2 73746B61 		.ascii	"stkalign_t\000"
 4880      6C69676E 
 4880      5F7400
 4881              	.LASF33:
 4882 04ad 6E657765 		.ascii	"newer\000"
 4882      7200
 4883              	.LASF44:
 4884 04b3 7265616C 		.ascii	"realprio\000"
 4884      7072696F 
 4884      00
 4885              	.LASF102:
 4886 04bc 76657273 		.ascii	"version\000"
 4886      696F6E00 
 4887              	.LASF75:
 4888 04c4 73697A65 		.ascii	"sizetype\000"
 4888      74797065 
 4888      00
 4889              	.LASF46:
 4890 04cd 74687265 		.ascii	"thread_reference_t\000"
 4890      61645F72 
 4890      65666572 
 4890      656E6365 
 4890      5F7400
 4891              	.LASF63:
 4892 04e0 63685F76 		.ascii	"ch_virtual_timers_list\000"
 4892      69727475 
 4892      616C5F74 
 4892      696D6572 
 4892      735F6C69 
 4893              	.LASF2:
 4894 04f7 6C6F6E67 		.ascii	"long double\000"
 4894      20646F75 
 4894      626C6500 
 4895              	.LASF134:
 4896 0503 63685F64 		.ascii	"ch_dyn_list\000"
 4896      796E5F6C 
 4896      69737400 
 4897              	.LASF108:
 4898 050f 6F66665F 		.ascii	"off_newer\000"
 4898      6E657765 
 4898      7200
 4899              	.LASF79:
 4900 0519 41504250 		.ascii	"APBPrescTable\000"
 4900      72657363 
 4900      5461626C 
 4900      6500
 4901              	.LASF82:
 4902 0527 706F7274 		.ascii	"port_context\000"
 4902      5F636F6E 
ARM GAS  /tmp/ccaFA0zm.s 			page 91


 4902      74657874 
 4902      00
 4903              	.LASF85:
 4904 0534 746D5F63 		.ascii	"tm_calibration_t\000"
 4904      616C6962 
 4904      72617469 
 4904      6F6E5F74 
 4904      00
 4905              	.LASF32:
 4906 0545 7072696F 		.ascii	"prio\000"
 4906      00
 4907              	.LASF141:
 4908 054a 73656D5F 		.ascii	"sem_pool\000"
 4908      706F6F6C 
 4908      00
 4909              	.LASF56:
 4910 0553 63757272 		.ascii	"current\000"
 4910      656E7400 
 4911              	.LASF14:
 4912 055b 5F5F7569 		.ascii	"__uint64_t\000"
 4912      6E743634 
 4912      5F7400
 4913              	.LASF125:
 4914 0566 6D656D63 		.ascii	"memcore_t\000"
 4914      6F72655F 
 4914      7400
 4915              	.LASF147:
 4916 0570 73746163 		.ascii	"stack_overflow\000"
 4916      6B5F6F76 
 4916      6572666C 
 4916      6F7700
 4917              	.LASF24:
 4918 057f 74726566 		.ascii	"trefs_t\000"
 4918      735F7400 
 4919              	.LASF117:
 4920 0587 63686465 		.ascii	"chdebug_t\000"
 4920      6275675F 
 4920      7400
 4921              	.LASF39:
 4922 0591 72656673 		.ascii	"refs\000"
 4922      00
 4923              	.LASF58:
 4924 0596 76697274 		.ascii	"virtual_timer_t\000"
 4924      75616C5F 
 4924      74696D65 
 4924      725F7400 
 4925              	.LASF132:
 4926 05a6 63685F64 		.ascii	"ch_dyn_element\000"
 4926      796E5F65 
 4926      6C656D65 
 4926      6E7400
 4927              	.LASF25:
 4928 05b5 74707269 		.ascii	"tprio_t\000"
 4928      6F5F7400 
 4929              	.LASF161:
 4930 05bd 63685379 		.ascii	"chSysUnlockFromISR\000"
 4930      73556E6C 
ARM GAS  /tmp/ccaFA0zm.s 			page 92


 4930      6F636B46 
 4930      726F6D49 
 4930      535200
 4931              	.LASF156:
 4932 05d0 63685363 		.ascii	"chSchGoSleepS\000"
 4932      68476F53 
 4932      6C656570 
 4932      5300
 4933              	.LASF105:
 4934 05de 74687265 		.ascii	"threadsize\000"
 4934      61647369 
 4934      7A6500
 4935              	.LASF121:
 4936 05e9 5F426F6F 		.ascii	"_Bool\000"
 4936      6C00
 4937              	.LASF18:
 4938 05ef 696E7433 		.ascii	"int32_t\000"
 4938      325F7400 
 4939              	.LASF6:
 4940 05f7 756E7369 		.ascii	"unsigned char\000"
 4940      676E6564 
 4940      20636861 
 4940      7200
 4941              	.LASF106:
 4942 0605 6F66665F 		.ascii	"off_prio\000"
 4942      7072696F 
 4942      00
 4943              	.LASF111:
 4944 060e 6F66665F 		.ascii	"off_stklimit\000"
 4944      73746B6C 
 4944      696D6974 
 4944      00
 4945              	.LASF154:
 4946 061b 6E657773 		.ascii	"newstate\000"
 4946      74617465 
 4946      00
 4947              	.LASF7:
 4948 0624 73686F72 		.ascii	"short int\000"
 4948      7420696E 
 4948      7400
 4949              	.LASF64:
 4950 062e 6C617374 		.ascii	"lasttime\000"
 4950      74696D65 
 4950      00
 4951              	.LASF167:
 4952 0637 63685365 		.ascii	"chSemFastSignalI\000"
 4952      6D466173 
 4952      74536967 
 4952      6E616C49 
 4952      00
 4953              	.LASF93:
 4954 0648 65776D61 		.ascii	"ewmask\000"
 4954      736B00
 4955              	.LASF69:
 4956 064f 63685F73 		.ascii	"ch_system\000"
 4956      79737465 
 4956      6D00
ARM GAS  /tmp/ccaFA0zm.s 			page 93


 4957              	.LASF22:
 4958 0659 746D6F64 		.ascii	"tmode_t\000"
 4958      655F7400 
 4959              	.LASF158:
 4960 0661 5F5F6675 		.ascii	"__func__\000"
 4960      6E635F5F 
 4960      00
 4961              	.LASF138:
 4962 066a 6F626A5F 		.ascii	"obj_pool\000"
 4962      706F6F6C 
 4962      00
 4963              	.LASF119:
 4964 0673 73656D61 		.ascii	"semaphore_t\000"
 4964      70686F72 
 4964      655F7400 
 4965              	.LASF59:
 4966 067f 63685F76 		.ascii	"ch_virtual_timer\000"
 4966      69727475 
 4966      616C5F74 
 4966      696D6572 
 4966      00
 4967              	.LASF94:
 4968 0690 63685F73 		.ascii	"ch_semaphore\000"
 4968      656D6170 
 4968      686F7265 
 4968      00
 4969              	.LASF116:
 4970 069d 6F66665F 		.ascii	"off_time\000"
 4970      74696D65 
 4970      00
 4971              	.LASF98:
 4972 06a6 63685F69 		.ascii	"ch_idle_thread_wa\000"
 4972      646C655F 
 4972      74687265 
 4972      61645F77 
 4972      6100
 4973              	.LASF104:
 4974 06b8 74696D65 		.ascii	"timesize\000"
 4974      73697A65 
 4974      00
 4975              	.LASF164:
 4976 06c1 63685654 		.ascii	"chVTIsArmedI\000"
 4976      49734172 
 4976      6D656449 
 4976      00
 4977              	.LASF157:
 4978 06ce 63685363 		.ascii	"chSchReadyAheadI\000"
 4978      68526561 
 4978      64794168 
 4978      65616449 
 4978      00
 4979              	.LASF19:
 4980 06df 75696E74 		.ascii	"uint32_t\000"
 4980      33325F74 
 4980      00
 4981              	.LASF92:
 4982 06e8 77746D74 		.ascii	"wtmtxp\000"
ARM GAS  /tmp/ccaFA0zm.s 			page 94


 4982      787000
 4983              	.LASF159:
 4984 06ef 63685363 		.ascii	"chSchReadyI\000"
 4984      68526561 
 4984      64794900 
 4985              	.LASF49:
 4986 06fb 63685F74 		.ascii	"ch_threads_list\000"
 4986      68726561 
 4986      64735F6C 
 4986      69737400 
 4987              	.LASF96:
 4988 070b 6F776E65 		.ascii	"owner\000"
 4988      7200
 4989              	.LASF13:
 4990 0711 6C6F6E67 		.ascii	"long unsigned int\000"
 4990      20756E73 
 4990      69676E65 
 4990      6420696E 
 4990      7400
 4991              	.LASF36:
 4992 0723 77616261 		.ascii	"wabase\000"
 4992      736500
 4993              	.LASF97:
 4994 072a 63686172 		.ascii	"char\000"
 4994      00
 4995              	.LASF34:
 4996 072f 6F6C6465 		.ascii	"older\000"
 4996      7200
 4997              	.LASF10:
 4998 0735 5F5F696E 		.ascii	"__int32_t\000"
 4998      7433325F 
 4998      7400
 4999              	.LASF137:
 5000 073f 6F626A5F 		.ascii	"obj_list\000"
 5000      6C697374 
 5000      00
 5001              	.LASF8:
 5002 0748 5F5F7569 		.ascii	"__uint16_t\000"
 5002      6E743136 
 5002      5F7400
 5003              	.LASF169:
 5004 0753 706F7274 		.ascii	"port_unlock_from_isr\000"
 5004      5F756E6C 
 5004      6F636B5F 
 5004      66726F6D 
 5004      5F697372 
 5005              	.LASF30:
 5006 0768 74687265 		.ascii	"thread_t\000"
 5006      61645F74 
 5006      00
 5007              	.LASF126:
 5008 0771 63685F6D 		.ascii	"ch_memcore\000"
 5008      656D636F 
 5008      726500
 5009              	.LASF166:
 5010 077c 71756575 		.ascii	"queue_fifo_remove\000"
 5010      655F6669 
ARM GAS  /tmp/ccaFA0zm.s 			page 95


 5010      666F5F72 
 5010      656D6F76 
 5010      6500
 5011              	.LASF73:
 5012 078e 73797374 		.ascii	"systime_t\000"
 5012      696D655F 
 5012      7400
 5013              	.LASF57:
 5014 0798 76746675 		.ascii	"vtfunc_t\000"
 5014      6E635F74 
 5014      00
 5015              	.LASF173:
 5016 07a1 5F5F7365 		.ascii	"__set_BASEPRI\000"
 5016      745F4241 
 5016      53455052 
 5016      4900
 5017              	.LASF67:
 5018 07af 70616E69 		.ascii	"panic_msg\000"
 5018      635F6D73 
 5018      6700
 5019              	.LASF84:
 5020 07b9 6F666673 		.ascii	"offset\000"
 5020      657400
 5021              	.LASF95:
 5022 07c0 63685F6D 		.ascii	"ch_mutex\000"
 5022      75746578 
 5022      00
 5023              	.LASF109:
 5024 07c9 6F66665F 		.ascii	"off_older\000"
 5024      6F6C6465 
 5024      7200
 5025              	.LASF9:
 5026 07d3 73686F72 		.ascii	"short unsigned int\000"
 5026      7420756E 
 5026      7369676E 
 5026      65642069 
 5026      6E7400
 5027              	.LASF99:
 5028 07e6 6964656E 		.ascii	"identifier\000"
 5028      74696669 
 5028      657200
 5029              	.LASF21:
 5030 07f1 7274636E 		.ascii	"rtcnt_t\000"
 5030      745F7400 
 5031              	.LASF170:
 5032 07f9 706F7274 		.ascii	"port_lock_from_isr\000"
 5032      5F6C6F63 
 5032      6B5F6672 
 5032      6F6D5F69 
 5032      737200
 5033              	.LASF175:
 5034 080c 5F5F6765 		.ascii	"__get_PSP\000"
 5034      745F5053 
 5034      5000
 5035              	.LASF151:
 5036 0816 63685363 		.ascii	"chSchWakeupS\000"
 5036      6857616B 
ARM GAS  /tmp/ccaFA0zm.s 			page 96


 5036      65757053 
 5036      00
 5037              	.LASF128:
 5038 0823 6F626A65 		.ascii	"object_size\000"
 5038      63745F73 
 5038      697A6500 
 5039              	.LASF103:
 5040 082f 70747273 		.ascii	"ptrsize\000"
 5040      697A6500 
 5041              	.LASF136:
 5042 0837 63685F6F 		.ascii	"ch_objects_factory\000"
 5042      626A6563 
 5042      74735F66 
 5042      6163746F 
 5042      727900
 5043              	.LASF51:
 5044 084a 74687265 		.ascii	"threads_queue_t\000"
 5044      6164735F 
 5044      71756575 
 5044      655F7400 
 5045              	.LASF127:
 5046 085a 706F6F6C 		.ascii	"pool_header\000"
 5046      5F686561 
 5046      64657200 
 5047              	.LASF110:
 5048 0866 6F66665F 		.ascii	"off_name\000"
 5048      6E616D65 
 5048      00
 5049              	.LASF16:
 5050 086f 75696E74 		.ascii	"uint8_t\000"
 5050      385F7400 
 5051              	.LASF38:
 5052 0877 666C6167 		.ascii	"flags\000"
 5052      7300
 5053              	.LASF143:
 5054 087d 6669666F 		.ascii	"fifo_list\000"
 5054      5F6C6973 
 5054      7400
 5055              	.LASF162:
 5056 0887 63685379 		.ascii	"chSysLockFromISR\000"
 5056      734C6F63 
 5056      6B46726F 
 5056      6D495352 
 5056      00
 5057              	.LASF47:
 5058 0898 74687265 		.ascii	"threads_list_t\000"
 5058      6164735F 
 5058      6C697374 
 5058      5F7400
 5059              	.LASF112:
 5060 08a7 6F66665F 		.ascii	"off_state\000"
 5060      73746174 
 5060      6500
 5061              	.LASF153:
 5062 08b1 63685363 		.ascii	"chSchGoSleepTimeoutS\000"
 5062      68476F53 
 5062      6C656570 
ARM GAS  /tmp/ccaFA0zm.s 			page 97


 5062      54696D65 
 5062      6F757453 
 5063              	.LASF163:
 5064 08c6 63685363 		.ascii	"chSchIsRescRequiredI\000"
 5064      68497352 
 5064      65736352 
 5064      65717569 
 5064      72656449 
 5065              	.LASF149:
 5066 08db 63685363 		.ascii	"chSchDoRescheduleBehind\000"
 5066      68446F52 
 5066      65736368 
 5066      6564756C 
 5066      65426568 
 5067              	.LASF144:
 5068 08f3 6F626A65 		.ascii	"objects_factory_t\000"
 5068      6374735F 
 5068      66616374 
 5068      6F72795F 
 5068      7400
 5069              	.LASF113:
 5070 0905 6F66665F 		.ascii	"off_flags\000"
 5070      666C6167 
 5070      7300
 5071              	.LASF43:
 5072 090f 6D74786C 		.ascii	"mtxlist\000"
 5072      69737400 
 5073              	.LASF182:
 5074 0917 2F686F6D 		.ascii	"/home/alex/ArduPilot/ardupilot/build/Pix2.4\000"
 5074      652F616C 
 5074      65782F41 
 5074      72647550 
 5074      696C6F74 
 5075              	.LASF176:
 5076 0943 72657375 		.ascii	"result\000"
 5076      6C7400
 5077              	.LASF123:
 5078 094a 6E657874 		.ascii	"nextmem\000"
 5078      6D656D00 
 5079              		.ident	"GCC: (GNU Tools for ARM Embedded Processors 6-2017-q2-update) 6.3.1 20170620 (release) [AR
ARM GAS  /tmp/ccaFA0zm.s 			page 98


DEFINED SYMBOLS
                            *ABS*:0000000000000000 chschd.c
     /tmp/ccaFA0zm.s:18     .text._scheduler_init:0000000000000000 $t
     /tmp/ccaFA0zm.s:25     .text._scheduler_init:0000000000000000 _scheduler_init
     /tmp/ccaFA0zm.s:62     .text._scheduler_init:0000000000000010 $d
     /tmp/ccaFA0zm.s:67     .text.chSchReadyI:0000000000000000 $t
     /tmp/ccaFA0zm.s:74     .text.chSchReadyI:0000000000000000 chSchReadyI
     /tmp/ccaFA0zm.s:114    .text.chSchReadyI:0000000000000020 $d
     /tmp/ccaFA0zm.s:119    .text.wakeup:0000000000000000 $t
     /tmp/ccaFA0zm.s:125    .text.wakeup:0000000000000000 wakeup
     /tmp/ccaFA0zm.s:163    .text.wakeup:0000000000000016 $d
     /tmp/ccaFA0zm.s:171    .text.wakeup:000000000000001e $t
     /tmp/ccaFA0zm.s:235    .text.chSchReadyAheadI:0000000000000000 $t
     /tmp/ccaFA0zm.s:242    .text.chSchReadyAheadI:0000000000000000 chSchReadyAheadI
     /tmp/ccaFA0zm.s:282    .text.chSchReadyAheadI:0000000000000020 $d
     /tmp/ccaFA0zm.s:287    .text.chSchGoSleepS:0000000000000000 $t
     /tmp/ccaFA0zm.s:294    .text.chSchGoSleepS:0000000000000000 chSchGoSleepS
     /tmp/ccaFA0zm.s:382    .text.chSchGoSleepS:0000000000000038 $d
     /tmp/ccaFA0zm.s:388    .text.chSchGoSleepTimeoutS:0000000000000000 $t
     /tmp/ccaFA0zm.s:395    .text.chSchGoSleepTimeoutS:0000000000000000 chSchGoSleepTimeoutS
     /tmp/ccaFA0zm.s:458    .text.chSchGoSleepTimeoutS:0000000000000034 $d
     /tmp/ccaFA0zm.s:464    .text.chSchWakeupS:0000000000000000 $t
     /tmp/ccaFA0zm.s:471    .text.chSchWakeupS:0000000000000000 chSchWakeupS
     /tmp/ccaFA0zm.s:571    .text.chSchWakeupS:0000000000000048 $d
     /tmp/ccaFA0zm.s:577    .text.chSchIsPreemptionRequired:0000000000000000 $t
     /tmp/ccaFA0zm.s:584    .text.chSchIsPreemptionRequired:0000000000000000 chSchIsPreemptionRequired
     /tmp/ccaFA0zm.s:609    .text.chSchIsPreemptionRequired:0000000000000014 $d
     /tmp/ccaFA0zm.s:584    .text.chSchIsPreemptionRequired:0000000000000000 chSchIsRescRequiredI
     /tmp/ccaFA0zm.s:615    .text.chSchDoRescheduleBehind:0000000000000000 $t
     /tmp/ccaFA0zm.s:622    .text.chSchDoRescheduleBehind:0000000000000000 chSchDoRescheduleBehind
     /tmp/ccaFA0zm.s:709    .text.chSchDoRescheduleBehind:0000000000000038 $d
     /tmp/ccaFA0zm.s:715    .text.chSchDoReschedule:0000000000000000 $t
     /tmp/ccaFA0zm.s:722    .text.chSchDoReschedule:0000000000000000 chSchDoReschedule
     /tmp/ccaFA0zm.s:809    .text.chSchDoReschedule:0000000000000038 $d
     /tmp/ccaFA0zm.s:815    .text.chSchRescheduleS:0000000000000000 $t
     /tmp/ccaFA0zm.s:822    .text.chSchRescheduleS:0000000000000000 chSchRescheduleS
     /tmp/ccaFA0zm.s:852    .text.chSchDoRescheduleAhead:0000000000000000 $t
     /tmp/ccaFA0zm.s:859    .text.chSchDoRescheduleAhead:0000000000000000 chSchDoRescheduleAhead
     /tmp/ccaFA0zm.s:875    .bss.ch:0000000000000000 ch
     /tmp/ccaFA0zm.s:871    .bss.ch:0000000000000000 $d
                     .debug_frame:0000000000000010 $d

UNDEFINED SYMBOLS
stack_overflow
_port_switch
chVTDoSetI
chVTDoResetI
