ARM GAS  /tmp/cczxrnjP.s 			page 1


   1              		.cpu cortex-m4
   2              		.eabi_attribute 27, 1
   3              		.eabi_attribute 28, 1
   4              		.eabi_attribute 20, 1
   5              		.eabi_attribute 21, 1
   6              		.eabi_attribute 23, 3
   7              		.eabi_attribute 24, 1
   8              		.eabi_attribute 25, 1
   9              		.eabi_attribute 26, 1
  10              		.eabi_attribute 30, 4
  11              		.eabi_attribute 34, 1
  12              		.eabi_attribute 18, 4
  13              		.file	"chsem.c"
  14              		.text
  15              	.Ltext0:
  16              		.cfi_sections	.debug_frame
  17              		.section	.text.chSemObjectInit,"ax",%progbits
  18              		.align	1
  19              		.global	chSemObjectInit
  20              		.syntax unified
  21              		.thumb
  22              		.thumb_func
  23              		.fpu fpv4-sp-d16
  24              		.type	chSemObjectInit, %function
  25              	chSemObjectInit:
  26              	.LFB290:
  27              		.file 1 "../../modules/ChibiOS/os/rt/src/chsem.c"
  28              		.loc 1 97 0
  29              		.cfi_startproc
  30              		@ args = 0, pretend = 0, frame = 0
  31              		@ frame_needed = 0, uses_anonymous_args = 0
  32              		@ link register save eliminated.
  33              	.LVL0:
  34              	.LBB88:
  35              	.LBB89:
  36              		.file 2 "../../modules/ChibiOS/os/rt/include/chschd.h"
  37              		.loc 2 539 0
  38 0000 0060     		str	r0, [r0]
  39              		.loc 2 540 0
  40 0002 4060     		str	r0, [r0, #4]
  41              	.LVL1:
  42              	.LBE89:
  43              	.LBE88:
  44              		.loc 1 102 0
  45 0004 8160     		str	r1, [r0, #8]
  46 0006 7047     		bx	lr
  47              		.cfi_endproc
  48              	.LFE290:
  49              		.size	chSemObjectInit, .-chSemObjectInit
  50              		.section	.text.chSemResetI,"ax",%progbits
  51              		.align	1
  52              		.global	chSemResetI
  53              		.syntax unified
  54              		.thumb
  55              		.thumb_func
  56              		.fpu fpv4-sp-d16
  57              		.type	chSemResetI, %function
ARM GAS  /tmp/cczxrnjP.s 			page 2


  58              	chSemResetI:
  59              	.LFB292:
  60              		.loc 1 147 0
  61              		.cfi_startproc
  62              		@ args = 0, pretend = 0, frame = 0
  63              		@ frame_needed = 0, uses_anonymous_args = 0
  64              	.LVL2:
  65 0000 70B5     		push	{r4, r5, r6, lr}
  66              		.cfi_def_cfa_offset 16
  67              		.cfi_offset 4, -16
  68              		.cfi_offset 5, -12
  69              		.cfi_offset 6, -8
  70              		.cfi_offset 14, -4
  71              		.loc 1 156 0
  72 0002 8568     		ldr	r5, [r0, #8]
  73              	.LVL3:
  74              		.loc 1 157 0
  75 0004 8160     		str	r1, [r0, #8]
  76              		.loc 1 147 0
  77 0006 0446     		mov	r4, r0
  78              		.loc 1 159 0
  79 0008 6FF00106 		mvn	r6, #1
  80              	.LVL4:
  81              	.L3:
  82              		.loc 1 158 0
  83 000c 0135     		adds	r5, r5, #1
  84              	.LVL5:
  85 000e 002D     		cmp	r5, #0
  86 0010 00DD     		ble	.L4
  87              		.loc 1 161 0
  88 0012 70BD     		pop	{r4, r5, r6, pc}
  89              	.LVL6:
  90              	.L4:
  91              	.LBB90:
  92              	.LBB91:
  93              		.loc 2 616 0
  94 0014 6068     		ldr	r0, [r4, #4]
  95              	.LVL7:
  96              		.loc 2 618 0
  97 0016 4368     		ldr	r3, [r0, #4]
  98 0018 6360     		str	r3, [r4, #4]
  99              		.loc 2 619 0
 100 001a 1C60     		str	r4, [r3]
 101              	.LVL8:
 102              	.LBE91:
 103              	.LBE90:
 104              		.loc 1 159 0
 105 001c FFF7FEFF 		bl	chSchReadyI
 106              	.LVL9:
 107 0020 4662     		str	r6, [r0, #36]
 108 0022 F3E7     		b	.L3
 109              		.cfi_endproc
 110              	.LFE292:
 111              		.size	chSemResetI, .-chSemResetI
 112              		.section	.text.chSemReset,"ax",%progbits
 113              		.align	1
 114              		.global	chSemReset
ARM GAS  /tmp/cczxrnjP.s 			page 3


 115              		.syntax unified
 116              		.thumb
 117              		.thumb_func
 118              		.fpu fpv4-sp-d16
 119              		.type	chSemReset, %function
 120              	chSemReset:
 121              	.LFB291:
 122              		.loc 1 120 0
 123              		.cfi_startproc
 124              		@ args = 0, pretend = 0, frame = 0
 125              		@ frame_needed = 0, uses_anonymous_args = 0
 126              	.LVL10:
 127 0000 08B5     		push	{r3, lr}
 128              		.cfi_def_cfa_offset 8
 129              		.cfi_offset 3, -8
 130              		.cfi_offset 14, -4
 131              	.LBB92:
 132              	.LBB93:
 133              	.LBB94:
 134              	.LBB95:
 135              		.file 3 "../../modules/ChibiOS/os/common/ext/ARM/CMSIS/Core/Include/cmsis_gcc.h"
 136              		.loc 3 493 0
 137 0002 2023     		movs	r3, #32
 138              		.syntax unified
 139              	@ 493 "../../modules/ChibiOS/os/common/ext/ARM/CMSIS/Core/Include/cmsis_gcc.h" 1
 140 0004 83F31188 		MSR basepri, r3
 141              	@ 0 "" 2
 142              	.LVL11:
 143              		.thumb
 144              		.syntax unified
 145              	.LBE95:
 146              	.LBE94:
 147              	.LBE93:
 148              	.LBE92:
 149              		.loc 1 123 0
 150 0008 FFF7FEFF 		bl	chSemResetI
 151              	.LVL12:
 152              		.loc 1 124 0
 153 000c FFF7FEFF 		bl	chSchRescheduleS
 154              	.LVL13:
 155              	.LBB96:
 156              	.LBB97:
 157              	.LBB98:
 158              	.LBB99:
 159              	.LBB100:
 160              		.loc 3 493 0
 161 0010 0023     		movs	r3, #0
 162              		.syntax unified
 163              	@ 493 "../../modules/ChibiOS/os/common/ext/ARM/CMSIS/Core/Include/cmsis_gcc.h" 1
 164 0012 83F31188 		MSR basepri, r3
 165              	@ 0 "" 2
 166              	.LVL14:
 167              		.thumb
 168              		.syntax unified
 169 0016 08BD     		pop	{r3, pc}
 170              	.LBE100:
 171              	.LBE99:
ARM GAS  /tmp/cczxrnjP.s 			page 4


 172              	.LBE98:
 173              	.LBE97:
 174              	.LBE96:
 175              		.cfi_endproc
 176              	.LFE291:
 177              		.size	chSemReset, .-chSemReset
 178              		.section	.text.chSemWaitS,"ax",%progbits
 179              		.align	1
 180              		.global	chSemWaitS
 181              		.syntax unified
 182              		.thumb
 183              		.thumb_func
 184              		.fpu fpv4-sp-d16
 185              		.type	chSemWaitS, %function
 186              	chSemWaitS:
 187              	.LFB294:
 188              		.loc 1 197 0
 189              		.cfi_startproc
 190              		@ args = 0, pretend = 0, frame = 0
 191              		@ frame_needed = 0, uses_anonymous_args = 0
 192              	.LVL15:
 193              		.loc 1 205 0
 194 0000 8368     		ldr	r3, [r0, #8]
 195 0002 013B     		subs	r3, r3, #1
 196 0004 002B     		cmp	r3, #0
 197              		.loc 1 197 0
 198 0006 10B5     		push	{r4, lr}
 199              		.cfi_def_cfa_offset 8
 200              		.cfi_offset 4, -8
 201              		.cfi_offset 14, -4
 202              		.loc 1 205 0
 203 0008 8360     		str	r3, [r0, #8]
 204 000a 0DDA     		bge	.L8
 205              	.LVL16:
 206              	.LBB105:
 207              	.LBB106:
 208              		.loc 1 206 0
 209 000c 074C     		ldr	r4, .L9
 210 000e A369     		ldr	r3, [r4, #24]
 211 0010 5862     		str	r0, [r3, #36]
 212              	.LVL17:
 213              	.LBB107:
 214              	.LBB108:
 215              		.loc 2 601 0
 216 0012 4268     		ldr	r2, [r0, #4]
 217              		.loc 2 600 0
 218 0014 1860     		str	r0, [r3]
 219              		.loc 2 601 0
 220 0016 5A60     		str	r2, [r3, #4]
 221              		.loc 2 602 0
 222 0018 1360     		str	r3, [r2]
 223              		.loc 2 603 0
 224 001a 4360     		str	r3, [r0, #4]
 225              	.LVL18:
 226              	.LBE108:
 227              	.LBE107:
 228              		.loc 1 208 0
ARM GAS  /tmp/cczxrnjP.s 			page 5


 229 001c 0520     		movs	r0, #5
 230              	.LVL19:
 231 001e FFF7FEFF 		bl	chSchGoSleepS
 232              	.LVL20:
 233              		.loc 1 210 0
 234 0022 A369     		ldr	r3, [r4, #24]
 235 0024 586A     		ldr	r0, [r3, #36]
 236              	.LVL21:
 237 0026 10BD     		pop	{r4, pc}
 238              	.LVL22:
 239              	.L8:
 240              	.LBE106:
 241              	.LBE105:
 242              		.loc 1 213 0
 243 0028 0020     		movs	r0, #0
 244              	.LVL23:
 245              		.loc 1 214 0
 246 002a 10BD     		pop	{r4, pc}
 247              	.L10:
 248              		.align	2
 249              	.L9:
 250 002c 00000000 		.word	ch
 251              		.cfi_endproc
 252              	.LFE294:
 253              		.size	chSemWaitS, .-chSemWaitS
 254              		.section	.text.chSemWait,"ax",%progbits
 255              		.align	1
 256              		.global	chSemWait
 257              		.syntax unified
 258              		.thumb
 259              		.thumb_func
 260              		.fpu fpv4-sp-d16
 261              		.type	chSemWait, %function
 262              	chSemWait:
 263              	.LFB293:
 264              		.loc 1 175 0
 265              		.cfi_startproc
 266              		@ args = 0, pretend = 0, frame = 0
 267              		@ frame_needed = 0, uses_anonymous_args = 0
 268              	.LVL24:
 269 0000 08B5     		push	{r3, lr}
 270              		.cfi_def_cfa_offset 8
 271              		.cfi_offset 3, -8
 272              		.cfi_offset 14, -4
 273              	.LBB109:
 274              	.LBB110:
 275              	.LBB111:
 276              	.LBB112:
 277              		.loc 3 493 0
 278 0002 2023     		movs	r3, #32
 279              		.syntax unified
 280              	@ 493 "../../modules/ChibiOS/os/common/ext/ARM/CMSIS/Core/Include/cmsis_gcc.h" 1
 281 0004 83F31188 		MSR basepri, r3
 282              	@ 0 "" 2
 283              	.LVL25:
 284              		.thumb
 285              		.syntax unified
ARM GAS  /tmp/cczxrnjP.s 			page 6


 286              	.LBE112:
 287              	.LBE111:
 288              	.LBE110:
 289              	.LBE109:
 290              		.loc 1 179 0
 291 0008 FFF7FEFF 		bl	chSemWaitS
 292              	.LVL26:
 293              	.LBB113:
 294              	.LBB114:
 295              	.LBB115:
 296              	.LBB116:
 297              	.LBB117:
 298              		.loc 3 493 0
 299 000c 0023     		movs	r3, #0
 300              		.syntax unified
 301              	@ 493 "../../modules/ChibiOS/os/common/ext/ARM/CMSIS/Core/Include/cmsis_gcc.h" 1
 302 000e 83F31188 		MSR basepri, r3
 303              	@ 0 "" 2
 304              	.LVL27:
 305              		.thumb
 306              		.syntax unified
 307              	.LBE117:
 308              	.LBE116:
 309              	.LBE115:
 310              	.LBE114:
 311              	.LBE113:
 312              		.loc 1 183 0
 313 0012 08BD     		pop	{r3, pc}
 314              		.cfi_endproc
 315              	.LFE293:
 316              		.size	chSemWait, .-chSemWait
 317              		.section	.text.chSemWaitTimeoutS,"ax",%progbits
 318              		.align	1
 319              		.global	chSemWaitTimeoutS
 320              		.syntax unified
 321              		.thumb
 322              		.thumb_func
 323              		.fpu fpv4-sp-d16
 324              		.type	chSemWaitTimeoutS, %function
 325              	chSemWaitTimeoutS:
 326              	.LFB296:
 327              		.loc 1 264 0
 328              		.cfi_startproc
 329              		@ args = 0, pretend = 0, frame = 0
 330              		@ frame_needed = 0, uses_anonymous_args = 0
 331              		@ link register save eliminated.
 332              	.LVL28:
 333              		.loc 1 272 0
 334 0000 8368     		ldr	r3, [r0, #8]
 335 0002 5A1E     		subs	r2, r3, #1
 336 0004 002A     		cmp	r2, #0
 337              		.loc 1 264 0
 338 0006 10B4     		push	{r4}
 339              		.cfi_def_cfa_offset 4
 340              		.cfi_offset 4, -4
 341              		.loc 1 272 0
 342 0008 8260     		str	r2, [r0, #8]
ARM GAS  /tmp/cczxrnjP.s 			page 7


 343 000a 13DA     		bge	.L15
 344              		.loc 1 273 0
 345 000c 29B9     		cbnz	r1, .L14
 346              		.loc 1 274 0
 347 000e 8360     		str	r3, [r0, #8]
 348              		.loc 1 276 0
 349 0010 4FF0FF30 		mov	r0, #-1
 350              	.LVL29:
 351              	.L12:
 352              		.loc 1 285 0
 353 0014 5DF8044B 		ldr	r4, [sp], #4
 354              		.cfi_remember_state
 355              		.cfi_restore 4
 356              		.cfi_def_cfa_offset 0
 357 0018 7047     		bx	lr
 358              	.LVL30:
 359              	.L14:
 360              		.cfi_restore_state
 361              	.LBB122:
 362              	.LBB123:
 363              		.loc 1 278 0
 364 001a 074B     		ldr	r3, .L16
 365 001c 9B69     		ldr	r3, [r3, #24]
 366 001e 5862     		str	r0, [r3, #36]
 367              	.LVL31:
 368              	.LBB124:
 369              	.LBB125:
 370              		.loc 2 601 0
 371 0020 4268     		ldr	r2, [r0, #4]
 372              		.loc 2 600 0
 373 0022 1860     		str	r0, [r3]
 374              		.loc 2 601 0
 375 0024 5A60     		str	r2, [r3, #4]
 376              	.LBE125:
 377              	.LBE124:
 378              	.LBE123:
 379              	.LBE122:
 380              		.loc 1 285 0
 381 0026 5DF8044B 		ldr	r4, [sp], #4
 382              		.cfi_remember_state
 383              		.cfi_restore 4
 384              		.cfi_def_cfa_offset 0
 385              	.LBB129:
 386              	.LBB128:
 387              	.LBB127:
 388              	.LBB126:
 389              		.loc 2 602 0
 390 002a 1360     		str	r3, [r2]
 391              		.loc 2 603 0
 392 002c 4360     		str	r3, [r0, #4]
 393              	.LVL32:
 394              	.LBE126:
 395              	.LBE127:
 396              		.loc 1 281 0
 397 002e 0520     		movs	r0, #5
 398              	.LVL33:
 399 0030 FFF7FEBF 		b	chSchGoSleepTimeoutS
ARM GAS  /tmp/cczxrnjP.s 			page 8


 400              	.LVL34:
 401              	.L15:
 402              		.cfi_restore_state
 403              	.LBE128:
 404              	.LBE129:
 405              		.loc 1 284 0
 406 0034 0020     		movs	r0, #0
 407              	.LVL35:
 408 0036 EDE7     		b	.L12
 409              	.L17:
 410              		.align	2
 411              	.L16:
 412 0038 00000000 		.word	ch
 413              		.cfi_endproc
 414              	.LFE296:
 415              		.size	chSemWaitTimeoutS, .-chSemWaitTimeoutS
 416              		.section	.text.chSemWaitTimeout,"ax",%progbits
 417              		.align	1
 418              		.global	chSemWaitTimeout
 419              		.syntax unified
 420              		.thumb
 421              		.thumb_func
 422              		.fpu fpv4-sp-d16
 423              		.type	chSemWaitTimeout, %function
 424              	chSemWaitTimeout:
 425              	.LFB295:
 426              		.loc 1 235 0
 427              		.cfi_startproc
 428              		@ args = 0, pretend = 0, frame = 0
 429              		@ frame_needed = 0, uses_anonymous_args = 0
 430              	.LVL36:
 431 0000 08B5     		push	{r3, lr}
 432              		.cfi_def_cfa_offset 8
 433              		.cfi_offset 3, -8
 434              		.cfi_offset 14, -4
 435              	.LBB130:
 436              	.LBB131:
 437              	.LBB132:
 438              	.LBB133:
 439              		.loc 3 493 0
 440 0002 2023     		movs	r3, #32
 441              		.syntax unified
 442              	@ 493 "../../modules/ChibiOS/os/common/ext/ARM/CMSIS/Core/Include/cmsis_gcc.h" 1
 443 0004 83F31188 		MSR basepri, r3
 444              	@ 0 "" 2
 445              	.LVL37:
 446              		.thumb
 447              		.syntax unified
 448              	.LBE133:
 449              	.LBE132:
 450              	.LBE131:
 451              	.LBE130:
 452              		.loc 1 239 0
 453 0008 FFF7FEFF 		bl	chSemWaitTimeoutS
 454              	.LVL38:
 455              	.LBB134:
 456              	.LBB135:
ARM GAS  /tmp/cczxrnjP.s 			page 9


 457              	.LBB136:
 458              	.LBB137:
 459              	.LBB138:
 460              		.loc 3 493 0
 461 000c 0023     		movs	r3, #0
 462              		.syntax unified
 463              	@ 493 "../../modules/ChibiOS/os/common/ext/ARM/CMSIS/Core/Include/cmsis_gcc.h" 1
 464 000e 83F31188 		MSR basepri, r3
 465              	@ 0 "" 2
 466              	.LVL39:
 467              		.thumb
 468              		.syntax unified
 469              	.LBE138:
 470              	.LBE137:
 471              	.LBE136:
 472              	.LBE135:
 473              	.LBE134:
 474              		.loc 1 243 0
 475 0012 08BD     		pop	{r3, pc}
 476              		.cfi_endproc
 477              	.LFE295:
 478              		.size	chSemWaitTimeout, .-chSemWaitTimeout
 479              		.section	.text.chSemSignal,"ax",%progbits
 480              		.align	1
 481              		.global	chSemSignal
 482              		.syntax unified
 483              		.thumb
 484              		.thumb_func
 485              		.fpu fpv4-sp-d16
 486              		.type	chSemSignal, %function
 487              	chSemSignal:
 488              	.LFB297:
 489              		.loc 1 294 0
 490              		.cfi_startproc
 491              		@ args = 0, pretend = 0, frame = 0
 492              		@ frame_needed = 0, uses_anonymous_args = 0
 493              	.LVL40:
 494 0000 08B5     		push	{r3, lr}
 495              		.cfi_def_cfa_offset 8
 496              		.cfi_offset 3, -8
 497              		.cfi_offset 14, -4
 498              	.LBB139:
 499              	.LBB140:
 500              	.LBB141:
 501              	.LBB142:
 502              		.loc 3 493 0
 503 0002 2022     		movs	r2, #32
 504              	.LBE142:
 505              	.LBE141:
 506              	.LBE140:
 507              	.LBE139:
 508              		.loc 1 294 0
 509 0004 0346     		mov	r3, r0
 510              	.LBB146:
 511              	.LBB145:
 512              	.LBB144:
 513              	.LBB143:
ARM GAS  /tmp/cczxrnjP.s 			page 10


 514              		.loc 3 493 0
 515              		.syntax unified
 516              	@ 493 "../../modules/ChibiOS/os/common/ext/ARM/CMSIS/Core/Include/cmsis_gcc.h" 1
 517 0006 82F31188 		MSR basepri, r2
 518              	@ 0 "" 2
 519              	.LVL41:
 520              		.thumb
 521              		.syntax unified
 522              	.LBE143:
 523              	.LBE144:
 524              	.LBE145:
 525              	.LBE146:
 526              		.loc 1 302 0
 527 000a 8268     		ldr	r2, [r0, #8]
 528 000c 0132     		adds	r2, r2, #1
 529 000e 002A     		cmp	r2, #0
 530 0010 8260     		str	r2, [r0, #8]
 531 0012 06DC     		bgt	.L20
 532              	.LVL42:
 533              	.LBB147:
 534              	.LBB148:
 535              		.loc 2 607 0
 536 0014 0068     		ldr	r0, [r0]
 537              	.LVL43:
 538              		.loc 2 609 0
 539 0016 0268     		ldr	r2, [r0]
 540 0018 1A60     		str	r2, [r3]
 541              	.LBE148:
 542              	.LBE147:
 543              		.loc 1 303 0
 544 001a 0021     		movs	r1, #0
 545              	.LBB150:
 546              	.LBB149:
 547              		.loc 2 610 0
 548 001c 5360     		str	r3, [r2, #4]
 549              	.LVL44:
 550              	.LBE149:
 551              	.LBE150:
 552              		.loc 1 303 0
 553 001e FFF7FEFF 		bl	chSchWakeupS
 554              	.LVL45:
 555              	.L20:
 556              	.LBB151:
 557              	.LBB152:
 558              	.LBB153:
 559              	.LBB154:
 560              	.LBB155:
 561              		.loc 3 493 0
 562 0022 0023     		movs	r3, #0
 563              		.syntax unified
 564              	@ 493 "../../modules/ChibiOS/os/common/ext/ARM/CMSIS/Core/Include/cmsis_gcc.h" 1
 565 0024 83F31188 		MSR basepri, r3
 566              	@ 0 "" 2
 567              	.LVL46:
 568              		.thumb
 569              		.syntax unified
 570 0028 08BD     		pop	{r3, pc}
ARM GAS  /tmp/cczxrnjP.s 			page 11


 571              	.LBE155:
 572              	.LBE154:
 573              	.LBE153:
 574              	.LBE152:
 575              	.LBE151:
 576              		.cfi_endproc
 577              	.LFE297:
 578              		.size	chSemSignal, .-chSemSignal
 579              		.section	.text.chSemSignalI,"ax",%progbits
 580              		.align	1
 581              		.global	chSemSignalI
 582              		.syntax unified
 583              		.thumb
 584              		.thumb_func
 585              		.fpu fpv4-sp-d16
 586              		.type	chSemSignalI, %function
 587              	chSemSignalI:
 588              	.LFB298:
 589              		.loc 1 319 0
 590              		.cfi_startproc
 591              		@ args = 0, pretend = 0, frame = 0
 592              		@ frame_needed = 0, uses_anonymous_args = 0
 593              		@ link register save eliminated.
 594              	.LVL47:
 595              		.loc 1 327 0
 596 0000 8268     		ldr	r2, [r0, #8]
 597 0002 0132     		adds	r2, r2, #1
 598 0004 002A     		cmp	r2, #0
 599              		.loc 1 319 0
 600 0006 0346     		mov	r3, r0
 601              		.loc 1 327 0
 602 0008 8260     		str	r2, [r0, #8]
 603 000a 07DC     		bgt	.L21
 604              	.LVL48:
 605              	.LBB156:
 606              	.LBB157:
 607              	.LBB158:
 608              		.loc 2 607 0
 609 000c 0068     		ldr	r0, [r0]
 610              	.LVL49:
 611              		.loc 2 609 0
 612 000e 0268     		ldr	r2, [r0]
 613 0010 1A60     		str	r2, [r3]
 614              		.loc 2 610 0
 615 0012 5360     		str	r3, [r2, #4]
 616              	.LVL50:
 617              	.LBE158:
 618              	.LBE157:
 619              		.loc 1 331 0
 620 0014 0023     		movs	r3, #0
 621              	.LVL51:
 622 0016 4362     		str	r3, [r0, #36]
 623              	.LVL52:
 624              		.loc 1 332 0
 625 0018 FFF7FEBF 		b	chSchReadyI
 626              	.LVL53:
 627              	.L21:
ARM GAS  /tmp/cczxrnjP.s 			page 12


 628 001c 7047     		bx	lr
 629              	.LBE156:
 630              		.cfi_endproc
 631              	.LFE298:
 632              		.size	chSemSignalI, .-chSemSignalI
 633              		.section	.text.chSemAddCounterI,"ax",%progbits
 634              		.align	1
 635              		.global	chSemAddCounterI
 636              		.syntax unified
 637              		.thumb
 638              		.thumb_func
 639              		.fpu fpv4-sp-d16
 640              		.type	chSemAddCounterI, %function
 641              	chSemAddCounterI:
 642              	.LFB299:
 643              		.loc 1 349 0
 644              		.cfi_startproc
 645              		@ args = 0, pretend = 0, frame = 0
 646              		@ frame_needed = 0, uses_anonymous_args = 0
 647              	.LVL54:
 648 0000 70B5     		push	{r4, r5, r6, lr}
 649              		.cfi_def_cfa_offset 16
 650              		.cfi_offset 4, -16
 651              		.cfi_offset 5, -12
 652              		.cfi_offset 6, -8
 653              		.cfi_offset 14, -4
 654              		.loc 1 349 0
 655 0002 0446     		mov	r4, r0
 656 0004 0D46     		mov	r5, r1
 657              		.loc 1 359 0
 658 0006 0026     		movs	r6, #0
 659              	.LVL55:
 660              	.L24:
 661              		.loc 1 357 0
 662 0008 002D     		cmp	r5, #0
 663 000a 00DC     		bgt	.L26
 664              		.loc 1 363 0
 665 000c 70BD     		pop	{r4, r5, r6, pc}
 666              	.LVL56:
 667              	.L26:
 668              		.loc 1 358 0
 669 000e A368     		ldr	r3, [r4, #8]
 670 0010 0133     		adds	r3, r3, #1
 671 0012 002B     		cmp	r3, #0
 672 0014 A360     		str	r3, [r4, #8]
 673 0016 06DC     		bgt	.L25
 674              	.LVL57:
 675              	.LBB159:
 676              	.LBB160:
 677              		.loc 2 607 0
 678 0018 2068     		ldr	r0, [r4]
 679              	.LVL58:
 680              		.loc 2 609 0
 681 001a 0368     		ldr	r3, [r0]
 682 001c 2360     		str	r3, [r4]
 683              		.loc 2 610 0
 684 001e 5C60     		str	r4, [r3, #4]
ARM GAS  /tmp/cczxrnjP.s 			page 13


 685              	.LVL59:
 686              	.LBE160:
 687              	.LBE159:
 688              		.loc 1 359 0
 689 0020 FFF7FEFF 		bl	chSchReadyI
 690              	.LVL60:
 691 0024 4662     		str	r6, [r0, #36]
 692              	.L25:
 693              		.loc 1 361 0
 694 0026 013D     		subs	r5, r5, #1
 695              	.LVL61:
 696 0028 EEE7     		b	.L24
 697              		.cfi_endproc
 698              	.LFE299:
 699              		.size	chSemAddCounterI, .-chSemAddCounterI
 700              		.section	.text.chSemSignalWait,"ax",%progbits
 701              		.align	1
 702              		.global	chSemSignalWait
 703              		.syntax unified
 704              		.thumb
 705              		.thumb_func
 706              		.fpu fpv4-sp-d16
 707              		.type	chSemSignalWait, %function
 708              	chSemSignalWait:
 709              	.LFB300:
 710              		.loc 1 378 0
 711              		.cfi_startproc
 712              		@ args = 0, pretend = 0, frame = 0
 713              		@ frame_needed = 0, uses_anonymous_args = 0
 714              	.LVL62:
 715 0000 38B5     		push	{r3, r4, r5, lr}
 716              		.cfi_def_cfa_offset 16
 717              		.cfi_offset 3, -16
 718              		.cfi_offset 4, -12
 719              		.cfi_offset 5, -8
 720              		.cfi_offset 14, -4
 721              	.LBB161:
 722              	.LBB162:
 723              	.LBB163:
 724              	.LBB164:
 725              		.loc 3 493 0
 726 0002 2022     		movs	r2, #32
 727              	.LBE164:
 728              	.LBE163:
 729              	.LBE162:
 730              	.LBE161:
 731              		.loc 1 378 0
 732 0004 0346     		mov	r3, r0
 733 0006 0D46     		mov	r5, r1
 734              	.LBB168:
 735              	.LBB167:
 736              	.LBB166:
 737              	.LBB165:
 738              		.loc 3 493 0
 739              		.syntax unified
 740              	@ 493 "../../modules/ChibiOS/os/common/ext/ARM/CMSIS/Core/Include/cmsis_gcc.h" 1
 741 0008 82F31188 		MSR basepri, r2
ARM GAS  /tmp/cczxrnjP.s 			page 14


 742              	@ 0 "" 2
 743              	.LVL63:
 744              		.thumb
 745              		.syntax unified
 746              	.LBE165:
 747              	.LBE166:
 748              	.LBE167:
 749              	.LBE168:
 750              		.loc 1 390 0
 751 000c 8268     		ldr	r2, [r0, #8]
 752 000e 0132     		adds	r2, r2, #1
 753 0010 002A     		cmp	r2, #0
 754 0012 8260     		str	r2, [r0, #8]
 755 0014 07DC     		bgt	.L28
 756              	.LVL64:
 757              	.LBB169:
 758              	.LBB170:
 759              		.loc 2 607 0
 760 0016 0068     		ldr	r0, [r0]
 761              	.LVL65:
 762              		.loc 2 609 0
 763 0018 0268     		ldr	r2, [r0]
 764 001a 1A60     		str	r2, [r3]
 765              		.loc 2 610 0
 766 001c 5360     		str	r3, [r2, #4]
 767              	.LVL66:
 768              	.LBE170:
 769              	.LBE169:
 770              		.loc 1 391 0
 771 001e FFF7FEFF 		bl	chSchReadyI
 772              	.LVL67:
 773 0022 0023     		movs	r3, #0
 774 0024 4362     		str	r3, [r0, #36]
 775              	.L28:
 776              		.loc 1 393 0
 777 0026 AB68     		ldr	r3, [r5, #8]
 778 0028 013B     		subs	r3, r3, #1
 779 002a 002B     		cmp	r3, #0
 780 002c AB60     		str	r3, [r5, #8]
 781 002e 0FDA     		bge	.L29
 782              	.LBB171:
 783              		.loc 1 394 0
 784 0030 094B     		ldr	r3, .L31
 785 0032 9C69     		ldr	r4, [r3, #24]
 786              	.LVL68:
 787              	.LBB172:
 788              	.LBB173:
 789              		.loc 2 601 0
 790 0034 6B68     		ldr	r3, [r5, #4]
 791              		.loc 2 600 0
 792 0036 2560     		str	r5, [r4]
 793              		.loc 2 601 0
 794 0038 6360     		str	r3, [r4, #4]
 795              	.LBE173:
 796              	.LBE172:
 797              		.loc 1 397 0
 798 003a 0520     		movs	r0, #5
ARM GAS  /tmp/cczxrnjP.s 			page 15


 799              	.LBB175:
 800              	.LBB174:
 801              		.loc 2 602 0
 802 003c 1C60     		str	r4, [r3]
 803              		.loc 2 603 0
 804 003e 6C60     		str	r4, [r5, #4]
 805              	.LVL69:
 806              	.LBE174:
 807              	.LBE175:
 808              		.loc 1 396 0
 809 0040 6562     		str	r5, [r4, #36]
 810              		.loc 1 397 0
 811 0042 FFF7FEFF 		bl	chSchGoSleepS
 812              	.LVL70:
 813              		.loc 1 398 0
 814 0046 606A     		ldr	r0, [r4, #36]
 815              	.LVL71:
 816              	.L30:
 817              	.LBE171:
 818              	.LBB176:
 819              	.LBB177:
 820              	.LBB178:
 821              	.LBB179:
 822              	.LBB180:
 823              		.loc 3 493 0
 824 0048 0023     		movs	r3, #0
 825              		.syntax unified
 826              	@ 493 "../../modules/ChibiOS/os/common/ext/ARM/CMSIS/Core/Include/cmsis_gcc.h" 1
 827 004a 83F31188 		MSR basepri, r3
 828              	@ 0 "" 2
 829              	.LVL72:
 830              		.thumb
 831              		.syntax unified
 832              	.LBE180:
 833              	.LBE179:
 834              	.LBE178:
 835              	.LBE177:
 836              	.LBE176:
 837              		.loc 1 407 0
 838 004e 38BD     		pop	{r3, r4, r5, pc}
 839              	.LVL73:
 840              	.L29:
 841              		.loc 1 401 0
 842 0050 FFF7FEFF 		bl	chSchRescheduleS
 843              	.LVL74:
 844              		.loc 1 402 0
 845 0054 0020     		movs	r0, #0
 846 0056 F7E7     		b	.L30
 847              	.L32:
 848              		.align	2
 849              	.L31:
 850 0058 00000000 		.word	ch
 851              		.cfi_endproc
 852              	.LFE300:
 853              		.size	chSemSignalWait, .-chSemSignalWait
 854              		.text
 855              	.Letext0:
ARM GAS  /tmp/cczxrnjP.s 			page 16


 856              		.file 4 "/opt/gcc-arm-none-eabi-6-2017-q2-update/lib/gcc/arm-none-eabi/6.3.1/include/stddef.h"
 857              		.file 5 "/opt/gcc-arm-none-eabi-6-2017-q2-update/arm-none-eabi/include/machine/_default_types.h"
 858              		.file 6 "/opt/gcc-arm-none-eabi-6-2017-q2-update/arm-none-eabi/include/sys/_stdint.h"
 859              		.file 7 "../../modules/ChibiOS/os/common/ports/ARMCMx/compilers/GCC/chtypes.h"
 860              		.file 8 "../../modules/ChibiOS/os/rt/include/chsystypes.h"
 861              		.file 9 "../../modules/ChibiOS/os/rt/include/chtime.h"
 862              		.file 10 "../../modules/ChibiOS/os/common/ext/ARM/CMSIS/Core/Include/core_cm4.h"
 863              		.file 11 "../../modules/ChibiOS/os/common/ext/ST/STM32F4xx/system_stm32f4xx.h"
 864              		.file 12 "../../modules/ChibiOS/os/common/ports/ARMCMx/chcore.h"
 865              		.file 13 "../../modules/ChibiOS/os/common/ports/ARMCMx/chcore_v7m.h"
 866              		.file 14 "../../modules/ChibiOS/os/rt/include/chtm.h"
 867              		.file 15 "../../modules/ChibiOS/os/rt/include/chsem.h"
 868              		.file 16 "../../modules/ChibiOS/os/rt/include/chmtx.h"
 869              		.file 17 "../../modules/ChibiOS/os/rt/include/chsys.h"
 870              		.file 18 "../../modules/ChibiOS/os/rt/include/chregistry.h"
 871              		.file 19 "../../modules/ChibiOS/os/oslib/include/chmemcore.h"
 872              		.file 20 "../../modules/ChibiOS/os/oslib/include/chmempools.h"
 873              		.file 21 "../../modules/ChibiOS/os/oslib/include/chfactory.h"