ARM GAS  /tmp/cczxrnjP.s 			page 1


   1              		.cpu cortex-m4
   2              		.eabi_attribute 27, 1
   3              		.eabi_attribute 28, 1
   4              		.eabi_attribute 20, 1
   5              		.eabi_attribute 21, 1
   6              		.eabi_attribute 23, 3
   7              		.eabi_attribute 24, 1
   8              		.eabi_attribute 25, 1
   9              		.eabi_attribute 26, 1
  10              		.eabi_attribute 30, 4
  11              		.eabi_attribute 34, 1
  12              		.eabi_attribute 18, 4
  13              		.file	"chsem.c"
  14              		.text
  15              	.Ltext0:
  16              		.cfi_sections	.debug_frame
  17              		.section	.text.chSemObjectInit,"ax",%progbits
  18              		.align	1
  19              		.global	chSemObjectInit
  20              		.syntax unified
  21              		.thumb
  22              		.thumb_func
  23              		.fpu fpv4-sp-d16
  24              		.type	chSemObjectInit, %function
  25              	chSemObjectInit:
  26              	.LFB290:
  27              		.file 1 "../../modules/ChibiOS/os/rt/src/chsem.c"
  28              		.loc 1 97 0
  29              		.cfi_startproc
  30              		@ args = 0, pretend = 0, frame = 0
  31              		@ frame_needed = 0, uses_anonymous_args = 0
  32              		@ link register save eliminated.
  33              	.LVL0:
  34              	.LBB88:
  35              	.LBB89:
  36              		.file 2 "../../modules/ChibiOS/os/rt/include/chschd.h"
  37              		.loc 2 539 0
  38 0000 0060     		str	r0, [r0]
  39              		.loc 2 540 0
  40 0002 4060     		str	r0, [r0, #4]
  41              	.LVL1:
  42              	.LBE89:
  43              	.LBE88:
  44              		.loc 1 102 0
  45 0004 8160     		str	r1, [r0, #8]
  46 0006 7047     		bx	lr
  47              		.cfi_endproc
  48              	.LFE290:
  49              		.size	chSemObjectInit, .-chSemObjectInit
  50              		.section	.text.chSemResetI,"ax",%progbits
  51              		.align	1
  52              		.global	chSemResetI
  53              		.syntax unified
  54              		.thumb
  55              		.thumb_func
  56              		.fpu fpv4-sp-d16
  57              		.type	chSemResetI, %function
ARM GAS  /tmp/cczxrnjP.s 			page 2


  58              	chSemResetI:
  59              	.LFB292:
  60              		.loc 1 147 0
  61              		.cfi_startproc
  62              		@ args = 0, pretend = 0, frame = 0
  63              		@ frame_needed = 0, uses_anonymous_args = 0
  64              	.LVL2:
  65 0000 70B5     		push	{r4, r5, r6, lr}
  66              		.cfi_def_cfa_offset 16
  67              		.cfi_offset 4, -16
  68              		.cfi_offset 5, -12
  69              		.cfi_offset 6, -8
  70              		.cfi_offset 14, -4
  71              		.loc 1 156 0
  72 0002 8568     		ldr	r5, [r0, #8]
  73              	.LVL3:
  74              		.loc 1 157 0
  75 0004 8160     		str	r1, [r0, #8]
  76              		.loc 1 147 0
  77 0006 0446     		mov	r4, r0
  78              		.loc 1 159 0
  79 0008 6FF00106 		mvn	r6, #1
  80              	.LVL4:
  81              	.L3:
  82              		.loc 1 158 0
  83 000c 0135     		adds	r5, r5, #1
  84              	.LVL5:
  85 000e 002D     		cmp	r5, #0
  86 0010 00DD     		ble	.L4
  87              		.loc 1 161 0
  88 0012 70BD     		pop	{r4, r5, r6, pc}
  89              	.LVL6:
  90              	.L4:
  91              	.LBB90:
  92              	.LBB91:
  93              		.loc 2 616 0
  94 0014 6068     		ldr	r0, [r4, #4]
  95              	.LVL7:
  96              		.loc 2 618 0
  97 0016 4368     		ldr	r3, [r0, #4]
  98 0018 6360     		str	r3, [r4, #4]
  99              		.loc 2 619 0
 100 001a 1C60     		str	r4, [r3]
 101              	.LVL8:
 102              	.LBE91:
 103              	.LBE90:
 104              		.loc 1 159 0
 105 001c FFF7FEFF 		bl	chSchReadyI
 106              	.LVL9:
 107 0020 4662     		str	r6, [r0, #36]
 108 0022 F3E7     		b	.L3
 109              		.cfi_endproc
 110              	.LFE292:
 111              		.size	chSemResetI, .-chSemResetI
 112              		.section	.text.chSemReset,"ax",%progbits
 113              		.align	1
 114              		.global	chSemReset
ARM GAS  /tmp/cczxrnjP.s 			page 3


 115              		.syntax unified
 116              		.thumb
 117              		.thumb_func
 118              		.fpu fpv4-sp-d16
 119              		.type	chSemReset, %function
 120              	chSemReset:
 121              	.LFB291:
 122              		.loc 1 120 0
 123              		.cfi_startproc
 124              		@ args = 0, pretend = 0, frame = 0
 125              		@ frame_needed = 0, uses_anonymous_args = 0
 126              	.LVL10:
 127 0000 08B5     		push	{r3, lr}
 128              		.cfi_def_cfa_offset 8
 129              		.cfi_offset 3, -8
 130              		.cfi_offset 14, -4
 131              	.LBB92:
 132              	.LBB93:
 133              	.LBB94:
 134              	.LBB95:
 135              		.file 3 "../../modules/ChibiOS/os/common/ext/ARM/CMSIS/Core/Include/cmsis_gcc.h"
 136              		.loc 3 493 0
 137 0002 2023     		movs	r3, #32
 138              		.syntax unified
 139              	@ 493 "../../modules/ChibiOS/os/common/ext/ARM/CMSIS/Core/Include/cmsis_gcc.h" 1
 140 0004 83F31188 		MSR basepri, r3
 141              	@ 0 "" 2
 142              	.LVL11:
 143              		.thumb
 144              		.syntax unified
 145              	.LBE95:
 146              	.LBE94:
 147              	.LBE93:
 148              	.LBE92:
 149              		.loc 1 123 0
 150 0008 FFF7FEFF 		bl	chSemResetI
 151              	.LVL12:
 152              		.loc 1 124 0
 153 000c FFF7FEFF 		bl	chSchRescheduleS
 154              	.LVL13:
 155              	.LBB96:
 156              	.LBB97:
 157              	.LBB98:
 158              	.LBB99:
 159              	.LBB100:
 160              		.loc 3 493 0
 161 0010 0023     		movs	r3, #0
 162              		.syntax unified
 163              	@ 493 "../../modules/ChibiOS/os/common/ext/ARM/CMSIS/Core/Include/cmsis_gcc.h" 1
 164 0012 83F31188 		MSR basepri, r3
 165              	@ 0 "" 2
 166              	.LVL14:
 167              		.thumb
 168              		.syntax unified
 169 0016 08BD     		pop	{r3, pc}
 170              	.LBE100:
 171              	.LBE99:
ARM GAS  /tmp/cczxrnjP.s 			page 4


 172              	.LBE98:
 173              	.LBE97:
 174              	.LBE96:
 175              		.cfi_endproc
 176              	.LFE291:
 177              		.size	chSemReset, .-chSemReset
 178              		.section	.text.chSemWaitS,"ax",%progbits
 179              		.align	1
 180              		.global	chSemWaitS
 181              		.syntax unified
 182              		.thumb
 183              		.thumb_func
 184              		.fpu fpv4-sp-d16
 185              		.type	chSemWaitS, %function
 186              	chSemWaitS:
 187              	.LFB294:
 188              		.loc 1 197 0
 189              		.cfi_startproc
 190              		@ args = 0, pretend = 0, frame = 0
 191              		@ frame_needed = 0, uses_anonymous_args = 0
 192              	.LVL15:
 193              		.loc 1 205 0
 194 0000 8368     		ldr	r3, [r0, #8]
 195 0002 013B     		subs	r3, r3, #1
 196 0004 002B     		cmp	r3, #0
 197              		.loc 1 197 0
 198 0006 10B5     		push	{r4, lr}
 199              		.cfi_def_cfa_offset 8
 200              		.cfi_offset 4, -8
 201              		.cfi_offset 14, -4
 202              		.loc 1 205 0
 203 0008 8360     		str	r3, [r0, #8]
 204 000a 0DDA     		bge	.L8
 205              	.LVL16:
 206              	.LBB105:
 207              	.LBB106:
 208              		.loc 1 206 0
 209 000c 074C     		ldr	r4, .L9
 210 000e A369     		ldr	r3, [r4, #24]
 211 0010 5862     		str	r0, [r3, #36]
 212              	.LVL17:
 213              	.LBB107:
 214              	.LBB108:
 215              		.loc 2 601 0
 216 0012 4268     		ldr	r2, [r0, #4]
 217              		.loc 2 600 0
 218 0014 1860     		str	r0, [r3]
 219              		.loc 2 601 0
 220 0016 5A60     		str	r2, [r3, #4]
 221              		.loc 2 602 0
 222 0018 1360     		str	r3, [r2]
 223              		.loc 2 603 0
 224 001a 4360     		str	r3, [r0, #4]
 225              	.LVL18:
 226              	.LBE108:
 227              	.LBE107:
 228              		.loc 1 208 0
ARM GAS  /tmp/cczxrnjP.s 			page 5


 229 001c 0520     		movs	r0, #5
 230              	.LVL19:
 231 001e FFF7FEFF 		bl	chSchGoSleepS
 232              	.LVL20:
 233              		.loc 1 210 0
 234 0022 A369     		ldr	r3, [r4, #24]
 235 0024 586A     		ldr	r0, [r3, #36]
 236              	.LVL21:
 237 0026 10BD     		pop	{r4, pc}
 238              	.LVL22:
 239              	.L8:
 240              	.LBE106:
 241              	.LBE105:
 242              		.loc 1 213 0
 243 0028 0020     		movs	r0, #0
 244              	.LVL23:
 245              		.loc 1 214 0
 246 002a 10BD     		pop	{r4, pc}
 247              	.L10:
 248              		.align	2
 249              	.L9:
 250 002c 00000000 		.word	ch
 251              		.cfi_endproc
 252              	.LFE294:
 253              		.size	chSemWaitS, .-chSemWaitS
 254              		.section	.text.chSemWait,"ax",%progbits
 255              		.align	1
 256              		.global	chSemWait
 257              		.syntax unified
 258              		.thumb
 259              		.thumb_func
 260              		.fpu fpv4-sp-d16
 261              		.type	chSemWait, %function
 262              	chSemWait:
 263              	.LFB293:
 264              		.loc 1 175 0
 265              		.cfi_startproc
 266              		@ args = 0, pretend = 0, frame = 0
 267              		@ frame_needed = 0, uses_anonymous_args = 0
 268              	.LVL24:
 269 0000 08B5     		push	{r3, lr}
 270              		.cfi_def_cfa_offset 8
 271              		.cfi_offset 3, -8
 272              		.cfi_offset 14, -4
 273              	.LBB109:
 274              	.LBB110:
 275              	.LBB111:
 276              	.LBB112:
 277              		.loc 3 493 0
 278 0002 2023     		movs	r3, #32
 279              		.syntax unified
 280              	@ 493 "../../modules/ChibiOS/os/common/ext/ARM/CMSIS/Core/Include/cmsis_gcc.h" 1
 281 0004 83F31188 		MSR basepri, r3
 282              	@ 0 "" 2
 283              	.LVL25:
 284              		.thumb
 285              		.syntax unified
ARM GAS  /tmp/cczxrnjP.s 			page 6


 286              	.LBE112:
 287              	.LBE111:
 288              	.LBE110:
 289              	.LBE109:
 290              		.loc 1 179 0
 291 0008 FFF7FEFF 		bl	chSemWaitS
 292              	.LVL26:
 293              	.LBB113:
 294              	.LBB114:
 295              	.LBB115:
 296              	.LBB116:
 297              	.LBB117:
 298              		.loc 3 493 0
 299 000c 0023     		movs	r3, #0
 300              		.syntax unified
 301              	@ 493 "../../modules/ChibiOS/os/common/ext/ARM/CMSIS/Core/Include/cmsis_gcc.h" 1
 302 000e 83F31188 		MSR basepri, r3
 303              	@ 0 "" 2
 304              	.LVL27:
 305              		.thumb
 306              		.syntax unified
 307              	.LBE117:
 308              	.LBE116:
 309              	.LBE115:
 310              	.LBE114:
 311              	.LBE113:
 312              		.loc 1 183 0
 313 0012 08BD     		pop	{r3, pc}
 314              		.cfi_endproc
 315              	.LFE293:
 316              		.size	chSemWait, .-chSemWait
 317              		.section	.text.chSemWaitTimeoutS,"ax",%progbits
 318              		.align	1
 319              		.global	chSemWaitTimeoutS
 320              		.syntax unified
 321              		.thumb
 322              		.thumb_func
 323              		.fpu fpv4-sp-d16
 324              		.type	chSemWaitTimeoutS, %function
 325              	chSemWaitTimeoutS:
 326              	.LFB296:
 327              		.loc 1 264 0
 328              		.cfi_startproc
 329              		@ args = 0, pretend = 0, frame = 0
 330              		@ frame_needed = 0, uses_anonymous_args = 0
 331              		@ link register save eliminated.
 332              	.LVL28:
 333              		.loc 1 272 0
 334 0000 8368     		ldr	r3, [r0, #8]
 335 0002 5A1E     		subs	r2, r3, #1
 336 0004 002A     		cmp	r2, #0
 337              		.loc 1 264 0
 338 0006 10B4     		push	{r4}
 339              		.cfi_def_cfa_offset 4
 340              		.cfi_offset 4, -4
 341              		.loc 1 272 0
 342 0008 8260     		str	r2, [r0, #8]
ARM GAS  /tmp/cczxrnjP.s 			page 7


 343 000a 13DA     		bge	.L15
 344              		.loc 1 273 0
 345 000c 29B9     		cbnz	r1, .L14
 346              		.loc 1 274 0
 347 000e 8360     		str	r3, [r0, #8]
 348              		.loc 1 276 0
 349 0010 4FF0FF30 		mov	r0, #-1
 350              	.LVL29:
 351              	.L12:
 352              		.loc 1 285 0
 353 0014 5DF8044B 		ldr	r4, [sp], #4
 354              		.cfi_remember_state
 355              		.cfi_restore 4
 356              		.cfi_def_cfa_offset 0
 357 0018 7047     		bx	lr
 358              	.LVL30:
 359              	.L14:
 360              		.cfi_restore_state
 361              	.LBB122:
 362              	.LBB123:
 363              		.loc 1 278 0
 364 001a 074B     		ldr	r3, .L16
 365 001c 9B69     		ldr	r3, [r3, #24]
 366 001e 5862     		str	r0, [r3, #36]
 367              	.LVL31:
 368              	.LBB124:
 369              	.LBB125:
 370              		.loc 2 601 0
 371 0020 4268     		ldr	r2, [r0, #4]
 372              		.loc 2 600 0
 373 0022 1860     		str	r0, [r3]
 374              		.loc 2 601 0
 375 0024 5A60     		str	r2, [r3, #4]
 376              	.LBE125:
 377              	.LBE124:
 378              	.LBE123:
 379              	.LBE122:
 380              		.loc 1 285 0
 381 0026 5DF8044B 		ldr	r4, [sp], #4
 382              		.cfi_remember_state
 383              		.cfi_restore 4
 384              		.cfi_def_cfa_offset 0
 385              	.LBB129:
 386              	.LBB128:
 387              	.LBB127:
 388              	.LBB126:
 389              		.loc 2 602 0
 390 002a 1360     		str	r3, [r2]
 391              		.loc 2 603 0
 392 002c 4360     		str	r3, [r0, #4]
 393              	.LVL32:
 394              	.LBE126:
 395              	.LBE127:
 396              		.loc 1 281 0
 397 002e 0520     		movs	r0, #5
 398              	.LVL33:
 399 0030 FFF7FEBF 		b	chSchGoSleepTimeoutS
ARM GAS  /tmp/cczxrnjP.s 			page 8


 400              	.LVL34:
 401              	.L15:
 402              		.cfi_restore_state
 403              	.LBE128:
 404              	.LBE129:
 405              		.loc 1 284 0
 406 0034 0020     		movs	r0, #0
 407              	.LVL35:
 408 0036 EDE7     		b	.L12
 409              	.L17:
 410              		.align	2
 411              	.L16:
 412 0038 00000000 		.word	ch
 413              		.cfi_endproc
 414              	.LFE296:
 415              		.size	chSemWaitTimeoutS, .-chSemWaitTimeoutS
 416              		.section	.text.chSemWaitTimeout,"ax",%progbits
 417              		.align	1
 418              		.global	chSemWaitTimeout
 419              		.syntax unified
 420              		.thumb
 421              		.thumb_func
 422              		.fpu fpv4-sp-d16
 423              		.type	chSemWaitTimeout, %function
 424              	chSemWaitTimeout:
 425              	.LFB295:
 426              		.loc 1 235 0
 427              		.cfi_startproc
 428              		@ args = 0, pretend = 0, frame = 0
 429              		@ frame_needed = 0, uses_anonymous_args = 0
 430              	.LVL36:
 431 0000 08B5     		push	{r3, lr}
 432              		.cfi_def_cfa_offset 8
 433              		.cfi_offset 3, -8
 434              		.cfi_offset 14, -4
 435              	.LBB130:
 436              	.LBB131:
 437              	.LBB132:
 438              	.LBB133:
 439              		.loc 3 493 0
 440 0002 2023     		movs	r3, #32
 441              		.syntax unified
 442              	@ 493 "../../modules/ChibiOS/os/common/ext/ARM/CMSIS/Core/Include/cmsis_gcc.h" 1
 443 0004 83F31188 		MSR basepri, r3
 444              	@ 0 "" 2
 445              	.LVL37:
 446              		.thumb
 447              		.syntax unified
 448              	.LBE133:
 449              	.LBE132:
 450              	.LBE131:
 451              	.LBE130:
 452              		.loc 1 239 0
 453 0008 FFF7FEFF 		bl	chSemWaitTimeoutS
 454              	.LVL38:
 455              	.LBB134:
 456              	.LBB135:
ARM GAS  /tmp/cczxrnjP.s 			page 9


 457              	.LBB136:
 458              	.LBB137:
 459              	.LBB138:
 460              		.loc 3 493 0
 461 000c 0023     		movs	r3, #0
 462              		.syntax unified
 463              	@ 493 "../../modules/ChibiOS/os/common/ext/ARM/CMSIS/Core/Include/cmsis_gcc.h" 1
 464 000e 83F31188 		MSR basepri, r3
 465              	@ 0 "" 2
 466              	.LVL39:
 467              		.thumb
 468              		.syntax unified
 469              	.LBE138:
 470              	.LBE137:
 471              	.LBE136:
 472              	.LBE135:
 473              	.LBE134:
 474              		.loc 1 243 0
 475 0012 08BD     		pop	{r3, pc}
 476              		.cfi_endproc
 477              	.LFE295:
 478              		.size	chSemWaitTimeout, .-chSemWaitTimeout
 479              		.section	.text.chSemSignal,"ax",%progbits
 480              		.align	1
 481              		.global	chSemSignal
 482              		.syntax unified
 483              		.thumb
 484              		.thumb_func
 485              		.fpu fpv4-sp-d16
 486              		.type	chSemSignal, %function
 487              	chSemSignal:
 488              	.LFB297:
 489              		.loc 1 294 0
 490              		.cfi_startproc
 491              		@ args = 0, pretend = 0, frame = 0
 492              		@ frame_needed = 0, uses_anonymous_args = 0
 493              	.LVL40:
 494 0000 08B5     		push	{r3, lr}
 495              		.cfi_def_cfa_offset 8
 496              		.cfi_offset 3, -8
 497              		.cfi_offset 14, -4
 498              	.LBB139:
 499              	.LBB140:
 500              	.LBB141:
 501              	.LBB142:
 502              		.loc 3 493 0
 503 0002 2022     		movs	r2, #32
 504              	.LBE142:
 505              	.LBE141:
 506              	.LBE140:
 507              	.LBE139:
 508              		.loc 1 294 0
 509 0004 0346     		mov	r3, r0
 510              	.LBB146:
 511              	.LBB145:
 512              	.LBB144:
 513              	.LBB143:
ARM GAS  /tmp/cczxrnjP.s 			page 10


 514              		.loc 3 493 0
 515              		.syntax unified
 516              	@ 493 "../../modules/ChibiOS/os/common/ext/ARM/CMSIS/Core/Include/cmsis_gcc.h" 1
 517 0006 82F31188 		MSR basepri, r2
 518              	@ 0 "" 2
 519              	.LVL41:
 520              		.thumb
 521              		.syntax unified
 522              	.LBE143:
 523              	.LBE144:
 524              	.LBE145:
 525              	.LBE146:
 526              		.loc 1 302 0
 527 000a 8268     		ldr	r2, [r0, #8]
 528 000c 0132     		adds	r2, r2, #1
 529 000e 002A     		cmp	r2, #0
 530 0010 8260     		str	r2, [r0, #8]
 531 0012 06DC     		bgt	.L20
 532              	.LVL42:
 533              	.LBB147:
 534              	.LBB148:
 535              		.loc 2 607 0
 536 0014 0068     		ldr	r0, [r0]
 537              	.LVL43:
 538              		.loc 2 609 0
 539 0016 0268     		ldr	r2, [r0]
 540 0018 1A60     		str	r2, [r3]
 541              	.LBE148:
 542              	.LBE147:
 543              		.loc 1 303 0
 544 001a 0021     		movs	r1, #0
 545              	.LBB150:
 546              	.LBB149:
 547              		.loc 2 610 0
 548 001c 5360     		str	r3, [r2, #4]
 549              	.LVL44:
 550              	.LBE149:
 551              	.LBE150:
 552              		.loc 1 303 0
 553 001e FFF7FEFF 		bl	chSchWakeupS
 554              	.LVL45:
 555              	.L20:
 556              	.LBB151:
 557              	.LBB152:
 558              	.LBB153:
 559              	.LBB154:
 560              	.LBB155:
 561              		.loc 3 493 0
 562 0022 0023     		movs	r3, #0
 563              		.syntax unified
 564              	@ 493 "../../modules/ChibiOS/os/common/ext/ARM/CMSIS/Core/Include/cmsis_gcc.h" 1
 565 0024 83F31188 		MSR basepri, r3
 566              	@ 0 "" 2
 567              	.LVL46:
 568              		.thumb
 569              		.syntax unified
 570 0028 08BD     		pop	{r3, pc}
ARM GAS  /tmp/cczxrnjP.s 			page 11


 571              	.LBE155:
 572              	.LBE154:
 573              	.LBE153:
 574              	.LBE152:
 575              	.LBE151:
 576              		.cfi_endproc
 577              	.LFE297:
 578              		.size	chSemSignal, .-chSemSignal
 579              		.section	.text.chSemSignalI,"ax",%progbits
 580              		.align	1
 581              		.global	chSemSignalI
 582              		.syntax unified
 583              		.thumb
 584              		.thumb_func
 585              		.fpu fpv4-sp-d16
 586              		.type	chSemSignalI, %function
 587              	chSemSignalI:
 588              	.LFB298:
 589              		.loc 1 319 0
 590              		.cfi_startproc
 591              		@ args = 0, pretend = 0, frame = 0
 592              		@ frame_needed = 0, uses_anonymous_args = 0
 593              		@ link register save eliminated.
 594              	.LVL47:
 595              		.loc 1 327 0
 596 0000 8268     		ldr	r2, [r0, #8]
 597 0002 0132     		adds	r2, r2, #1
 598 0004 002A     		cmp	r2, #0
 599              		.loc 1 319 0
 600 0006 0346     		mov	r3, r0
 601              		.loc 1 327 0
 602 0008 8260     		str	r2, [r0, #8]
 603 000a 07DC     		bgt	.L21
 604              	.LVL48:
 605              	.LBB156:
 606              	.LBB157:
 607              	.LBB158:
 608              		.loc 2 607 0
 609 000c 0068     		ldr	r0, [r0]
 610              	.LVL49:
 611              		.loc 2 609 0
 612 000e 0268     		ldr	r2, [r0]
 613 0010 1A60     		str	r2, [r3]
 614              		.loc 2 610 0
 615 0012 5360     		str	r3, [r2, #4]
 616              	.LVL50:
 617              	.LBE158:
 618              	.LBE157:
 619              		.loc 1 331 0
 620 0014 0023     		movs	r3, #0
 621              	.LVL51:
 622 0016 4362     		str	r3, [r0, #36]
 623              	.LVL52:
 624              		.loc 1 332 0
 625 0018 FFF7FEBF 		b	chSchReadyI
 626              	.LVL53:
 627              	.L21:
ARM GAS  /tmp/cczxrnjP.s 			page 12


 628 001c 7047     		bx	lr
 629              	.LBE156:
 630              		.cfi_endproc
 631              	.LFE298:
 632              		.size	chSemSignalI, .-chSemSignalI
 633              		.section	.text.chSemAddCounterI,"ax",%progbits
 634              		.align	1
 635              		.global	chSemAddCounterI
 636              		.syntax unified
 637              		.thumb
 638              		.thumb_func
 639              		.fpu fpv4-sp-d16
 640              		.type	chSemAddCounterI, %function
 641              	chSemAddCounterI:
 642              	.LFB299:
 643              		.loc 1 349 0
 644              		.cfi_startproc
 645              		@ args = 0, pretend = 0, frame = 0
 646              		@ frame_needed = 0, uses_anonymous_args = 0
 647              	.LVL54:
 648 0000 70B5     		push	{r4, r5, r6, lr}
 649              		.cfi_def_cfa_offset 16
 650              		.cfi_offset 4, -16
 651              		.cfi_offset 5, -12
 652              		.cfi_offset 6, -8
 653              		.cfi_offset 14, -4
 654              		.loc 1 349 0
 655 0002 0446     		mov	r4, r0
 656 0004 0D46     		mov	r5, r1
 657              		.loc 1 359 0
 658 0006 0026     		movs	r6, #0
 659              	.LVL55:
 660              	.L24:
 661              		.loc 1 357 0
 662 0008 002D     		cmp	r5, #0
 663 000a 00DC     		bgt	.L26
 664              		.loc 1 363 0
 665 000c 70BD     		pop	{r4, r5, r6, pc}
 666              	.LVL56:
 667              	.L26:
 668              		.loc 1 358 0
 669 000e A368     		ldr	r3, [r4, #8]
 670 0010 0133     		adds	r3, r3, #1
 671 0012 002B     		cmp	r3, #0
 672 0014 A360     		str	r3, [r4, #8]
 673 0016 06DC     		bgt	.L25
 674              	.LVL57:
 675              	.LBB159:
 676              	.LBB160:
 677              		.loc 2 607 0
 678 0018 2068     		ldr	r0, [r4]
 679              	.LVL58:
 680              		.loc 2 609 0
 681 001a 0368     		ldr	r3, [r0]
 682 001c 2360     		str	r3, [r4]
 683              		.loc 2 610 0
 684 001e 5C60     		str	r4, [r3, #4]
ARM GAS  /tmp/cczxrnjP.s 			page 13


 685              	.LVL59:
 686              	.LBE160:
 687              	.LBE159:
 688              		.loc 1 359 0
 689 0020 FFF7FEFF 		bl	chSchReadyI
 690              	.LVL60:
 691 0024 4662     		str	r6, [r0, #36]
 692              	.L25:
 693              		.loc 1 361 0
 694 0026 013D     		subs	r5, r5, #1
 695              	.LVL61:
 696 0028 EEE7     		b	.L24
 697              		.cfi_endproc
 698              	.LFE299:
 699              		.size	chSemAddCounterI, .-chSemAddCounterI
 700              		.section	.text.chSemSignalWait,"ax",%progbits
 701              		.align	1
 702              		.global	chSemSignalWait
 703              		.syntax unified
 704              		.thumb
 705              		.thumb_func
 706              		.fpu fpv4-sp-d16
 707              		.type	chSemSignalWait, %function
 708              	chSemSignalWait:
 709              	.LFB300:
 710              		.loc 1 378 0
 711              		.cfi_startproc
 712              		@ args = 0, pretend = 0, frame = 0
 713              		@ frame_needed = 0, uses_anonymous_args = 0
 714              	.LVL62:
 715 0000 38B5     		push	{r3, r4, r5, lr}
 716              		.cfi_def_cfa_offset 16
 717              		.cfi_offset 3, -16
 718              		.cfi_offset 4, -12
 719              		.cfi_offset 5, -8
 720              		.cfi_offset 14, -4
 721              	.LBB161:
 722              	.LBB162:
 723              	.LBB163:
 724              	.LBB164:
 725              		.loc 3 493 0
 726 0002 2022     		movs	r2, #32
 727              	.LBE164:
 728              	.LBE163:
 729              	.LBE162:
 730              	.LBE161:
 731              		.loc 1 378 0
 732 0004 0346     		mov	r3, r0
 733 0006 0D46     		mov	r5, r1
 734              	.LBB168:
 735              	.LBB167:
 736              	.LBB166:
 737              	.LBB165:
 738              		.loc 3 493 0
 739              		.syntax unified
 740              	@ 493 "../../modules/ChibiOS/os/common/ext/ARM/CMSIS/Core/Include/cmsis_gcc.h" 1
 741 0008 82F31188 		MSR basepri, r2
ARM GAS  /tmp/cczxrnjP.s 			page 14


 742              	@ 0 "" 2
 743              	.LVL63:
 744              		.thumb
 745              		.syntax unified
 746              	.LBE165:
 747              	.LBE166:
 748              	.LBE167:
 749              	.LBE168:
 750              		.loc 1 390 0
 751 000c 8268     		ldr	r2, [r0, #8]
 752 000e 0132     		adds	r2, r2, #1
 753 0010 002A     		cmp	r2, #0
 754 0012 8260     		str	r2, [r0, #8]
 755 0014 07DC     		bgt	.L28
 756              	.LVL64:
 757              	.LBB169:
 758              	.LBB170:
 759              		.loc 2 607 0
 760 0016 0068     		ldr	r0, [r0]
 761              	.LVL65:
 762              		.loc 2 609 0
 763 0018 0268     		ldr	r2, [r0]
 764 001a 1A60     		str	r2, [r3]
 765              		.loc 2 610 0
 766 001c 5360     		str	r3, [r2, #4]
 767              	.LVL66:
 768              	.LBE170:
 769              	.LBE169:
 770              		.loc 1 391 0
 771 001e FFF7FEFF 		bl	chSchReadyI
 772              	.LVL67:
 773 0022 0023     		movs	r3, #0
 774 0024 4362     		str	r3, [r0, #36]
 775              	.L28:
 776              		.loc 1 393 0
 777 0026 AB68     		ldr	r3, [r5, #8]
 778 0028 013B     		subs	r3, r3, #1
 779 002a 002B     		cmp	r3, #0
 780 002c AB60     		str	r3, [r5, #8]
 781 002e 0FDA     		bge	.L29
 782              	.LBB171:
 783              		.loc 1 394 0
 784 0030 094B     		ldr	r3, .L31
 785 0032 9C69     		ldr	r4, [r3, #24]
 786              	.LVL68:
 787              	.LBB172:
 788              	.LBB173:
 789              		.loc 2 601 0
 790 0034 6B68     		ldr	r3, [r5, #4]
 791              		.loc 2 600 0
 792 0036 2560     		str	r5, [r4]
 793              		.loc 2 601 0
 794 0038 6360     		str	r3, [r4, #4]
 795              	.LBE173:
 796              	.LBE172:
 797              		.loc 1 397 0
 798 003a 0520     		movs	r0, #5
ARM GAS  /tmp/cczxrnjP.s 			page 15


 799              	.LBB175:
 800              	.LBB174:
 801              		.loc 2 602 0
 802 003c 1C60     		str	r4, [r3]
 803              		.loc 2 603 0
 804 003e 6C60     		str	r4, [r5, #4]
 805              	.LVL69:
 806              	.LBE174:
 807              	.LBE175:
 808              		.loc 1 396 0
 809 0040 6562     		str	r5, [r4, #36]
 810              		.loc 1 397 0
 811 0042 FFF7FEFF 		bl	chSchGoSleepS
 812              	.LVL70:
 813              		.loc 1 398 0
 814 0046 606A     		ldr	r0, [r4, #36]
 815              	.LVL71:
 816              	.L30:
 817              	.LBE171:
 818              	.LBB176:
 819              	.LBB177:
 820              	.LBB178:
 821              	.LBB179:
 822              	.LBB180:
 823              		.loc 3 493 0
 824 0048 0023     		movs	r3, #0
 825              		.syntax unified
 826              	@ 493 "../../modules/ChibiOS/os/common/ext/ARM/CMSIS/Core/Include/cmsis_gcc.h" 1
 827 004a 83F31188 		MSR basepri, r3
 828              	@ 0 "" 2
 829              	.LVL72:
 830              		.thumb
 831              		.syntax unified
 832              	.LBE180:
 833              	.LBE179:
 834              	.LBE178:
 835              	.LBE177:
 836              	.LBE176:
 837              		.loc 1 407 0
 838 004e 38BD     		pop	{r3, r4, r5, pc}
 839              	.LVL73:
 840              	.L29:
 841              		.loc 1 401 0
 842 0050 FFF7FEFF 		bl	chSchRescheduleS
 843              	.LVL74:
 844              		.loc 1 402 0
 845 0054 0020     		movs	r0, #0
 846 0056 F7E7     		b	.L30
 847              	.L32:
 848              		.align	2
 849              	.L31:
 850 0058 00000000 		.word	ch
 851              		.cfi_endproc
 852              	.LFE300:
 853              		.size	chSemSignalWait, .-chSemSignalWait
 854              		.text
 855              	.Letext0:
ARM GAS  /tmp/cczxrnjP.s 			page 16


 856              		.file 4 "/opt/gcc-arm-none-eabi-6-2017-q2-update/lib/gcc/arm-none-eabi/6.3.1/include/stddef.h"
 857              		.file 5 "/opt/gcc-arm-none-eabi-6-2017-q2-update/arm-none-eabi/include/machine/_default_types.h"
 858              		.file 6 "/opt/gcc-arm-none-eabi-6-2017-q2-update/arm-none-eabi/include/sys/_stdint.h"
 859              		.file 7 "../../modules/ChibiOS/os/common/ports/ARMCMx/compilers/GCC/chtypes.h"
 860              		.file 8 "../../modules/ChibiOS/os/rt/include/chsystypes.h"
 861              		.file 9 "../../modules/ChibiOS/os/rt/include/chtime.h"
 862              		.file 10 "../../modules/ChibiOS/os/common/ext/ARM/CMSIS/Core/Include/core_cm4.h"
 863              		.file 11 "../../modules/ChibiOS/os/common/ext/ST/STM32F4xx/system_stm32f4xx.h"
 864              		.file 12 "../../modules/ChibiOS/os/common/ports/ARMCMx/chcore.h"
 865              		.file 13 "../../modules/ChibiOS/os/common/ports/ARMCMx/chcore_v7m.h"
 866              		.file 14 "../../modules/ChibiOS/os/rt/include/chtm.h"
 867              		.file 15 "../../modules/ChibiOS/os/rt/include/chsem.h"
 868              		.file 16 "../../modules/ChibiOS/os/rt/include/chmtx.h"
 869              		.file 17 "../../modules/ChibiOS/os/rt/include/chsys.h"
 870              		.file 18 "../../modules/ChibiOS/os/rt/include/chregistry.h"
 871              		.file 19 "../../modules/ChibiOS/os/oslib/include/chmemcore.h"
 872              		.file 20 "../../modules/ChibiOS/os/oslib/include/chmempools.h"
 873              		.file 21 "../../modules/ChibiOS/os/oslib/include/chfactory.h"
 874              		.section	.debug_info,"",%progbits
 875              	.Ldebug_info0:
 876 0000 50140000 		.4byte	0x1450
 877 0004 0400     		.2byte	0x4
 878 0006 00000000 		.4byte	.Ldebug_abbrev0
 879 000a 04       		.byte	0x4
 880 000b 01       		.uleb128 0x1
 881 000c 8C010000 		.4byte	.LASF174
 882 0010 0C       		.byte	0xc
 883 0011 4E000000 		.4byte	.LASF175
 884 0015 8D080000 		.4byte	.LASF176
 885 0019 90000000 		.4byte	.Ldebug_ranges0+0x90
 886 001d 00000000 		.4byte	0
 887 0021 00000000 		.4byte	.Ldebug_line0
 888 0025 02       		.uleb128 0x2
 889 0026 04       		.byte	0x4
 890 0027 05       		.byte	0x5
 891 0028 696E7400 		.ascii	"int\000"
 892 002c 03       		.uleb128 0x3
 893 002d 27000000 		.4byte	.LASF4
 894 0031 04       		.byte	0x4
 895 0032 D8       		.byte	0xd8
 896 0033 37000000 		.4byte	0x37
 897 0037 04       		.uleb128 0x4
 898 0038 04       		.byte	0x4
 899 0039 07       		.byte	0x7
 900 003a 88030000 		.4byte	.LASF0
 901 003e 04       		.uleb128 0x4
 902 003f 08       		.byte	0x8
 903 0040 05       		.byte	0x5
 904 0041 46010000 		.4byte	.LASF1
 905 0045 04       		.uleb128 0x4
 906 0046 08       		.byte	0x8
 907 0047 04       		.byte	0x4
 908 0048 04050000 		.4byte	.LASF2
 909 004c 04       		.uleb128 0x4
 910 004d 01       		.byte	0x1
 911 004e 06       		.byte	0x6
 912 004f 54010000 		.4byte	.LASF3
ARM GAS  /tmp/cczxrnjP.s 			page 17


 913 0053 03       		.uleb128 0x3
 914 0054 44000000 		.4byte	.LASF5
 915 0058 05       		.byte	0x5
 916 0059 2B       		.byte	0x2b
 917 005a 5E000000 		.4byte	0x5e
 918 005e 04       		.uleb128 0x4
 919 005f 01       		.byte	0x1
 920 0060 08       		.byte	0x8
 921 0061 D6050000 		.4byte	.LASF6
 922 0065 04       		.uleb128 0x4
 923 0066 02       		.byte	0x2
 924 0067 05       		.byte	0x5
 925 0068 FA050000 		.4byte	.LASF7
 926 006c 03       		.uleb128 0x3
 927 006d 05070000 		.4byte	.LASF8
 928 0071 05       		.byte	0x5
 929 0072 39       		.byte	0x39
 930 0073 77000000 		.4byte	0x77
 931 0077 04       		.uleb128 0x4
 932 0078 02       		.byte	0x2
 933 0079 07       		.byte	0x7
 934 007a 85070000 		.4byte	.LASF9
 935 007e 03       		.uleb128 0x3
 936 007f 8F040000 		.4byte	.LASF10
 937 0083 05       		.byte	0x5
 938 0084 4D       		.byte	0x4d
 939 0085 89000000 		.4byte	0x89
 940 0089 04       		.uleb128 0x4
 941 008a 04       		.byte	0x4
 942 008b 05       		.byte	0x5
 943 008c CC020000 		.4byte	.LASF11
 944 0090 03       		.uleb128 0x3
 945 0091 16030000 		.4byte	.LASF12
 946 0095 05       		.byte	0x5
 947 0096 4F       		.byte	0x4f
 948 0097 9B000000 		.4byte	0x9b
 949 009b 04       		.uleb128 0x4
 950 009c 04       		.byte	0x4
 951 009d 07       		.byte	0x7
 952 009e C6060000 		.4byte	.LASF13
 953 00a2 03       		.uleb128 0x3
 954 00a3 66050000 		.4byte	.LASF14
 955 00a7 05       		.byte	0x5
 956 00a8 69       		.byte	0x69
 957 00a9 AD000000 		.4byte	0xad
 958 00ad 04       		.uleb128 0x4
 959 00ae 08       		.byte	0x8
 960 00af 07       		.byte	0x7
 961 00b0 75010000 		.4byte	.LASF15
 962 00b4 03       		.uleb128 0x3
 963 00b5 10080000 		.4byte	.LASF16
 964 00b9 06       		.byte	0x6
 965 00ba 18       		.byte	0x18
 966 00bb 53000000 		.4byte	0x53
 967 00bf 05       		.uleb128 0x5
 968 00c0 B4000000 		.4byte	0xb4
 969 00c4 03       		.uleb128 0x3
ARM GAS  /tmp/cczxrnjP.s 			page 18


 970 00c5 A6030000 		.4byte	.LASF17
 971 00c9 06       		.byte	0x6
 972 00ca 24       		.byte	0x24
 973 00cb 6C000000 		.4byte	0x6c
 974 00cf 03       		.uleb128 0x3
 975 00d0 CE050000 		.4byte	.LASF18
 976 00d4 06       		.byte	0x6
 977 00d5 2C       		.byte	0x2c
 978 00d6 7E000000 		.4byte	0x7e
 979 00da 06       		.uleb128 0x6
 980 00db CF000000 		.4byte	0xcf
 981 00df 03       		.uleb128 0x3
 982 00e0 94060000 		.4byte	.LASF19
 983 00e4 06       		.byte	0x6
 984 00e5 30       		.byte	0x30
 985 00e6 90000000 		.4byte	0x90
 986 00ea 03       		.uleb128 0x3
 987 00eb 3B000000 		.4byte	.LASF20
 988 00ef 06       		.byte	0x6
 989 00f0 3C       		.byte	0x3c
 990 00f1 A2000000 		.4byte	0xa2
 991 00f5 03       		.uleb128 0x3
 992 00f6 A3070000 		.4byte	.LASF21
 993 00fa 07       		.byte	0x7
 994 00fb 27       		.byte	0x27
 995 00fc DF000000 		.4byte	0xdf
 996 0100 03       		.uleb128 0x3
 997 0101 58040000 		.4byte	.LASF22
 998 0105 07       		.byte	0x7
 999 0106 2A       		.byte	0x2a
 1000 0107 B4000000 		.4byte	0xb4
 1001 010b 03       		.uleb128 0x3
 1002 010c D5020000 		.4byte	.LASF23
 1003 0110 07       		.byte	0x7
 1004 0111 2B       		.byte	0x2b
 1005 0112 B4000000 		.4byte	0xb4
 1006 0116 03       		.uleb128 0x3
 1007 0117 7B050000 		.4byte	.LASF24
 1008 011b 07       		.byte	0x7
 1009 011c 2C       		.byte	0x2c
 1010 011d B4000000 		.4byte	0xb4
 1011 0121 03       		.uleb128 0x3
 1012 0122 A7050000 		.4byte	.LASF25
 1013 0126 07       		.byte	0x7
 1014 0127 2E       		.byte	0x2e
 1015 0128 DF000000 		.4byte	0xdf
 1016 012c 03       		.uleb128 0x3
 1017 012d 23040000 		.4byte	.LASF26
 1018 0131 07       		.byte	0x7
 1019 0132 2F       		.byte	0x2f
 1020 0133 CF000000 		.4byte	0xcf
 1021 0137 03       		.uleb128 0x3
 1022 0138 6E040000 		.4byte	.LASF27
 1023 013c 07       		.byte	0x7
 1024 013d 31       		.byte	0x31
 1025 013e DF000000 		.4byte	0xdf
 1026 0142 03       		.uleb128 0x3
ARM GAS  /tmp/cczxrnjP.s 			page 19


 1027 0143 82030000 		.4byte	.LASF28
 1028 0147 07       		.byte	0x7
 1029 0148 33       		.byte	0x33
 1030 0149 CF000000 		.4byte	0xcf
 1031 014d 03       		.uleb128 0x3
 1032 014e 29040000 		.4byte	.LASF29
 1033 0152 07       		.byte	0x7
 1034 0153 34       		.byte	0x34
 1035 0154 DF000000 		.4byte	0xdf
 1036 0158 03       		.uleb128 0x3
 1037 0159 10070000 		.4byte	.LASF30
 1038 015d 08       		.byte	0x8
 1039 015e 34       		.byte	0x34
 1040 015f 63010000 		.4byte	0x163
 1041 0163 07       		.uleb128 0x7
 1042 0164 19040000 		.4byte	.LASF48
 1043 0168 44       		.byte	0x44
 1044 0169 02       		.byte	0x2
 1045 016a 8E       		.byte	0x8e
 1046 016b 41020000 		.4byte	0x241
 1047 016f 08       		.uleb128 0x8
 1048 0170 FB030000 		.4byte	.LASF31
 1049 0174 02       		.byte	0x2
 1050 0175 8F       		.byte	0x8f
 1051 0176 76020000 		.4byte	0x276
 1052 017a 00       		.byte	0
 1053 017b 08       		.uleb128 0x8
 1054 017c 50050000 		.4byte	.LASF32
 1055 0180 02       		.byte	0x2
 1056 0181 90       		.byte	0x90
 1057 0182 21010000 		.4byte	0x121
 1058 0186 08       		.byte	0x8
 1059 0187 09       		.uleb128 0x9
 1060 0188 63747800 		.ascii	"ctx\000"
 1061 018c 02       		.byte	0x2
 1062 018d 91       		.byte	0x91
 1063 018e DB040000 		.4byte	0x4db
 1064 0192 0C       		.byte	0xc
 1065 0193 08       		.uleb128 0x8
 1066 0194 BA040000 		.4byte	.LASF33
 1067 0198 02       		.byte	0x2
 1068 0199 93       		.byte	0x93
 1069 019a 4C020000 		.4byte	0x24c
 1070 019e 10       		.byte	0x10
 1071 019f 08       		.uleb128 0x8
 1072 01a0 E4060000 		.4byte	.LASF34
 1073 01a4 02       		.byte	0x2
 1074 01a5 94       		.byte	0x94
 1075 01a6 4C020000 		.4byte	0x24c
 1076 01aa 14       		.byte	0x14
 1077 01ab 08       		.uleb128 0x8
 1078 01ac F6030000 		.4byte	.LASF35
 1079 01b0 02       		.byte	0x2
 1080 01b1 9B       		.byte	0x9b
 1081 01b2 3B070000 		.4byte	0x73b
 1082 01b6 18       		.byte	0x18
 1083 01b7 08       		.uleb128 0x8
ARM GAS  /tmp/cczxrnjP.s 			page 20


 1084 01b8 D8060000 		.4byte	.LASF36
 1085 01bc 02       		.byte	0x2
 1086 01bd A4       		.byte	0xa4
 1087 01be 52070000 		.4byte	0x752
 1088 01c2 1C       		.byte	0x1c
 1089 01c3 08       		.uleb128 0x8
 1090 01c4 C6020000 		.4byte	.LASF37
 1091 01c8 02       		.byte	0x2
 1092 01c9 A9       		.byte	0xa9
 1093 01ca 0B010000 		.4byte	0x10b
 1094 01ce 20       		.byte	0x20
 1095 01cf 08       		.uleb128 0x8
 1096 01d0 18080000 		.4byte	.LASF38
 1097 01d4 02       		.byte	0x2
 1098 01d5 AD       		.byte	0xad
 1099 01d6 00010000 		.4byte	0x100
 1100 01da 21       		.byte	0x21
 1101 01db 08       		.uleb128 0x8
 1102 01dc 83050000 		.4byte	.LASF39
 1103 01e0 02       		.byte	0x2
 1104 01e1 B2       		.byte	0xb2
 1105 01e2 16010000 		.4byte	0x116
 1106 01e6 22       		.byte	0x22
 1107 01e7 0A       		.uleb128 0xa
 1108 01e8 7500     		.ascii	"u\000"
 1109 01ea 02       		.byte	0x2
 1110 01eb 0301     		.2byte	0x103
 1111 01ed 65060000 		.4byte	0x665
 1112 01f1 24       		.byte	0x24
 1113 01f2 0B       		.uleb128 0xb
 1114 01f3 43030000 		.4byte	.LASF40
 1115 01f7 02       		.byte	0x2
 1116 01f8 0801     		.2byte	0x108
 1117 01fa 52020000 		.4byte	0x252
 1118 01fe 28       		.byte	0x28
 1119 01ff 0B       		.uleb128 0xb
 1120 0200 BD020000 		.4byte	.LASF41
 1121 0204 02       		.byte	0x2
 1122 0205 0E01     		.2byte	0x10e
 1123 0207 76020000 		.4byte	0x276
 1124 020b 2C       		.byte	0x2c
 1125 020c 0B       		.uleb128 0xb
 1126 020d 30040000 		.4byte	.LASF42
 1127 0211 02       		.byte	0x2
 1128 0212 1401     		.2byte	0x114
 1129 0214 37010000 		.4byte	0x137
 1130 0218 34       		.byte	0x34
 1131 0219 0B       		.uleb128 0xb
 1132 021a 85080000 		.4byte	.LASF43
 1133 021e 02       		.byte	0x2
 1134 021f 1B01     		.2byte	0x11b
 1135 0221 35070000 		.4byte	0x735
 1136 0225 38       		.byte	0x38
 1137 0226 0B       		.uleb128 0xb
 1138 0227 C0040000 		.4byte	.LASF44
 1139 022b 02       		.byte	0x2
 1140 022c 1F01     		.2byte	0x11f
ARM GAS  /tmp/cczxrnjP.s 			page 21


 1141 022e 21010000 		.4byte	0x121
 1142 0232 3C       		.byte	0x3c
 1143 0233 0B       		.uleb128 0xb
 1144 0234 01040000 		.4byte	.LASF45
 1145 0238 02       		.byte	0x2
 1146 0239 2601     		.2byte	0x126
 1147 023b 29030000 		.4byte	0x329
 1148 023f 40       		.byte	0x40
 1149 0240 00       		.byte	0
 1150 0241 03       		.uleb128 0x3
 1151 0242 DA040000 		.4byte	.LASF46
 1152 0246 08       		.byte	0x8
 1153 0247 39       		.byte	0x39
 1154 0248 4C020000 		.4byte	0x24c
 1155 024c 0C       		.uleb128 0xc
 1156 024d 04       		.byte	0x4
 1157 024e 58010000 		.4byte	0x158
 1158 0252 03       		.uleb128 0x3
 1159 0253 2F080000 		.4byte	.LASF47
 1160 0257 08       		.byte	0x8
 1161 0258 3E       		.byte	0x3e
 1162 0259 5D020000 		.4byte	0x25d
 1163 025d 07       		.uleb128 0x7
 1164 025e B0060000 		.4byte	.LASF49
 1165 0262 04       		.byte	0x4
 1166 0263 02       		.byte	0x2
 1167 0264 7C       		.byte	0x7c
 1168 0265 76020000 		.4byte	0x276
 1169 0269 08       		.uleb128 0x8
 1170 026a 30010000 		.4byte	.LASF50
 1171 026e 02       		.byte	0x2
 1172 026f 7D       		.byte	0x7d
 1173 0270 4C020000 		.4byte	0x24c
 1174 0274 00       		.byte	0
 1175 0275 00       		.byte	0
 1176 0276 03       		.uleb128 0x3
 1177 0277 DF070000 		.4byte	.LASF51
 1178 027b 08       		.byte	0x8
 1179 027c 45       		.byte	0x45
 1180 027d 81020000 		.4byte	0x281
 1181 0281 07       		.uleb128 0x7
 1182 0282 35010000 		.4byte	.LASF52
 1183 0286 08       		.byte	0x8
 1184 0287 02       		.byte	0x2
 1185 0288 83       		.byte	0x83
 1186 0289 A6020000 		.4byte	0x2a6
 1187 028d 08       		.uleb128 0x8
 1188 028e 30010000 		.4byte	.LASF50
 1189 0292 02       		.byte	0x2
 1190 0293 84       		.byte	0x84
 1191 0294 4C020000 		.4byte	0x24c
 1192 0298 00       		.byte	0
 1193 0299 08       		.uleb128 0x8
 1194 029a 76000000 		.4byte	.LASF53
 1195 029e 02       		.byte	0x2
 1196 029f 85       		.byte	0x85
 1197 02a0 4C020000 		.4byte	0x24c
ARM GAS  /tmp/cczxrnjP.s 			page 22


 1198 02a4 04       		.byte	0x4
 1199 02a5 00       		.byte	0
 1200 02a6 03       		.uleb128 0x3
 1201 02a7 00000000 		.4byte	.LASF54
 1202 02ab 08       		.byte	0x8
 1203 02ac 4C       		.byte	0x4c
 1204 02ad B1020000 		.4byte	0x2b1
 1205 02b1 0D       		.uleb128 0xd
 1206 02b2 60040000 		.4byte	.LASF55
 1207 02b6 1C       		.byte	0x1c
 1208 02b7 02       		.byte	0x2
 1209 02b8 5E01     		.2byte	0x15e
 1210 02ba 0D030000 		.4byte	0x30d
 1211 02be 0B       		.uleb128 0xb
 1212 02bf FB030000 		.4byte	.LASF31
 1213 02c3 02       		.byte	0x2
 1214 02c4 5F01     		.2byte	0x15f
 1215 02c6 76020000 		.4byte	0x276
 1216 02ca 00       		.byte	0
 1217 02cb 0B       		.uleb128 0xb
 1218 02cc 50050000 		.4byte	.LASF32
 1219 02d0 02       		.byte	0x2
 1220 02d1 6001     		.2byte	0x160
 1221 02d3 21010000 		.4byte	0x121
 1222 02d7 08       		.byte	0x8
 1223 02d8 0A       		.uleb128 0xa
 1224 02d9 63747800 		.ascii	"ctx\000"
 1225 02dd 02       		.byte	0x2
 1226 02de 6201     		.2byte	0x162
 1227 02e0 DB040000 		.4byte	0x4db
 1228 02e4 0C       		.byte	0xc
 1229 02e5 0B       		.uleb128 0xb
 1230 02e6 BA040000 		.4byte	.LASF33
 1231 02ea 02       		.byte	0x2
 1232 02eb 6501     		.2byte	0x165
 1233 02ed 4C020000 		.4byte	0x24c
 1234 02f1 10       		.byte	0x10
 1235 02f2 0B       		.uleb128 0xb
 1236 02f3 E4060000 		.4byte	.LASF34
 1237 02f7 02       		.byte	0x2
 1238 02f8 6601     		.2byte	0x166
 1239 02fa 4C020000 		.4byte	0x24c
 1240 02fe 14       		.byte	0x14
 1241 02ff 0B       		.uleb128 0xb
 1242 0300 5E050000 		.4byte	.LASF56
 1243 0304 02       		.byte	0x2
 1244 0305 6901     		.2byte	0x169
 1245 0307 4C020000 		.4byte	0x24c
 1246 030b 18       		.byte	0x18
 1247 030c 00       		.byte	0
 1248 030d 03       		.uleb128 0x3
 1249 030e 40070000 		.4byte	.LASF57
 1250 0312 08       		.byte	0x8
 1251 0313 51       		.byte	0x51
 1252 0314 18030000 		.4byte	0x318
 1253 0318 0C       		.uleb128 0xc
 1254 0319 04       		.byte	0x4
ARM GAS  /tmp/cczxrnjP.s 			page 23


 1255 031a 1E030000 		.4byte	0x31e
 1256 031e 0E       		.uleb128 0xe
 1257 031f 29030000 		.4byte	0x329
 1258 0323 0F       		.uleb128 0xf
 1259 0324 29030000 		.4byte	0x329
 1260 0328 00       		.byte	0
 1261 0329 10       		.uleb128 0x10
 1262 032a 04       		.byte	0x4
 1263 032b 03       		.uleb128 0x3
 1264 032c 88050000 		.4byte	.LASF58
 1265 0330 08       		.byte	0x8
 1266 0331 56       		.byte	0x56
 1267 0332 36030000 		.4byte	0x336
 1268 0336 0D       		.uleb128 0xd
 1269 0337 52060000 		.4byte	.LASF59
 1270 033b 14       		.byte	0x14
 1271 033c 02       		.byte	0x2
 1272 033d 3901     		.2byte	0x139
 1273 033f 85030000 		.4byte	0x385
 1274 0343 0B       		.uleb128 0xb
 1275 0344 30010000 		.4byte	.LASF50
 1276 0348 02       		.byte	0x2
 1277 0349 3A01     		.2byte	0x13a
 1278 034b 58070000 		.4byte	0x758
 1279 034f 00       		.byte	0
 1280 0350 0B       		.uleb128 0xb
 1281 0351 76000000 		.4byte	.LASF53
 1282 0355 02       		.byte	0x2
 1283 0356 3B01     		.2byte	0x13b
 1284 0358 58070000 		.4byte	0x758
 1285 035c 04       		.byte	0x4
 1286 035d 0B       		.uleb128 0xb
 1287 035e 2E000000 		.4byte	.LASF60
 1288 0362 02       		.byte	0x2
 1289 0363 3C01     		.2byte	0x13c
 1290 0365 5C040000 		.4byte	0x45c
 1291 0369 08       		.byte	0x8
 1292 036a 0B       		.uleb128 0xb
 1293 036b EA020000 		.4byte	.LASF61
 1294 036f 02       		.byte	0x2
 1295 0370 3D01     		.2byte	0x13d
 1296 0372 0D030000 		.4byte	0x30d
 1297 0376 0C       		.byte	0xc
 1298 0377 0A       		.uleb128 0xa
 1299 0378 70617200 		.ascii	"par\000"
 1300 037c 02       		.byte	0x2
 1301 037d 3F01     		.2byte	0x13f
 1302 037f 29030000 		.4byte	0x329
 1303 0383 10       		.byte	0x10
 1304 0384 00       		.byte	0
 1305 0385 03       		.uleb128 0x3
 1306 0386 99040000 		.4byte	.LASF62
 1307 038a 08       		.byte	0x8
 1308 038b 5B       		.byte	0x5b
 1309 038c 90030000 		.4byte	0x390
 1310 0390 0D       		.uleb128 0xd
 1311 0391 ED040000 		.4byte	.LASF63
ARM GAS  /tmp/cczxrnjP.s 			page 24


 1312 0395 10       		.byte	0x10
 1313 0396 02       		.byte	0x2
 1314 0397 4901     		.2byte	0x149
 1315 0399 D2030000 		.4byte	0x3d2
 1316 039d 0B       		.uleb128 0xb
 1317 039e 30010000 		.4byte	.LASF50
 1318 03a2 02       		.byte	0x2
 1319 03a3 4A01     		.2byte	0x14a
 1320 03a5 58070000 		.4byte	0x758
 1321 03a9 00       		.byte	0
 1322 03aa 0B       		.uleb128 0xb
 1323 03ab 76000000 		.4byte	.LASF53
 1324 03af 02       		.byte	0x2
 1325 03b0 4C01     		.2byte	0x14c
 1326 03b2 58070000 		.4byte	0x758
 1327 03b6 04       		.byte	0x4
 1328 03b7 0B       		.uleb128 0xb
 1329 03b8 2E000000 		.4byte	.LASF60
 1330 03bc 02       		.byte	0x2
 1331 03bd 4E01     		.2byte	0x14e
 1332 03bf 5C040000 		.4byte	0x45c
 1333 03c3 08       		.byte	0x8
 1334 03c4 0B       		.uleb128 0xb
 1335 03c5 04060000 		.4byte	.LASF64
 1336 03c9 02       		.byte	0x2
 1337 03ca 5601     		.2byte	0x156
 1338 03cc 51040000 		.4byte	0x451
 1339 03d0 0C       		.byte	0xc
 1340 03d1 00       		.byte	0
 1341 03d2 03       		.uleb128 0x3
 1342 03d3 87000000 		.4byte	.LASF65
 1343 03d7 08       		.byte	0x8
 1344 03d8 60       		.byte	0x60
 1345 03d9 DD030000 		.4byte	0x3dd
 1346 03dd 0D       		.uleb128 0xd
 1347 03de 33030000 		.4byte	.LASF66
 1348 03e2 04       		.byte	0x4
 1349 03e3 02       		.byte	0x2
 1350 03e4 7001     		.2byte	0x170
 1351 03e6 F8030000 		.4byte	0x3f8
 1352 03ea 0B       		.uleb128 0xb
 1353 03eb 61070000 		.4byte	.LASF67
 1354 03ef 02       		.byte	0x2
 1355 03f0 7801     		.2byte	0x178
 1356 03f2 41070000 		.4byte	0x741
 1357 03f6 00       		.byte	0
 1358 03f7 00       		.byte	0
 1359 03f8 03       		.uleb128 0x3
 1360 03f9 44040000 		.4byte	.LASF68
 1361 03fd 08       		.byte	0x8
 1362 03fe 65       		.byte	0x65
 1363 03ff 03040000 		.4byte	0x403
 1364 0403 0D       		.uleb128 0xd
 1365 0404 14060000 		.4byte	.LASF69
 1366 0408 78       		.byte	0x78
 1367 0409 02       		.byte	0x2
 1368 040a 9001     		.2byte	0x190
ARM GAS  /tmp/cczxrnjP.s 			page 25


 1369 040c 51040000 		.4byte	0x451
 1370 0410 0B       		.uleb128 0xb
 1371 0411 4B030000 		.4byte	.LASF70
 1372 0415 02       		.byte	0x2
 1373 0416 9401     		.2byte	0x194
 1374 0418 A6020000 		.4byte	0x2a6
 1375 041c 00       		.byte	0
 1376 041d 0B       		.uleb128 0xb
 1377 041e AA020000 		.4byte	.LASF71
 1378 0422 02       		.byte	0x2
 1379 0423 9801     		.2byte	0x198
 1380 0425 85030000 		.4byte	0x385
 1381 0429 1C       		.byte	0x1c
 1382 042a 0A       		.uleb128 0xa
 1383 042b 64626700 		.ascii	"dbg\000"
 1384 042f 02       		.byte	0x2
 1385 0430 9C01     		.2byte	0x19c
 1386 0432 D2030000 		.4byte	0x3d2
 1387 0436 2C       		.byte	0x2c
 1388 0437 0B       		.uleb128 0xb
 1389 0438 F1000000 		.4byte	.LASF72
 1390 043c 02       		.byte	0x2
 1391 043d A001     		.2byte	0x1a0
 1392 043f 58010000 		.4byte	0x158
 1393 0443 30       		.byte	0x30
 1394 0444 0A       		.uleb128 0xa
 1395 0445 746D00   		.ascii	"tm\000"
 1396 0448 02       		.byte	0x2
 1397 0449 A501     		.2byte	0x1a5
 1398 044b 5A060000 		.4byte	0x65a
 1399 044f 74       		.byte	0x74
 1400 0450 00       		.byte	0
 1401 0451 03       		.uleb128 0x3
 1402 0452 36070000 		.4byte	.LASF73
 1403 0456 09       		.byte	0x9
 1404 0457 6D       		.byte	0x6d
 1405 0458 DF000000 		.4byte	0xdf
 1406 045c 03       		.uleb128 0x3
 1407 045d 64030000 		.4byte	.LASF74
 1408 0461 09       		.byte	0x9
 1409 0462 79       		.byte	0x79
 1410 0463 DF000000 		.4byte	0xdf
 1411 0467 04       		.uleb128 0x4
 1412 0468 04       		.byte	0x4
 1413 0469 07       		.byte	0x7
 1414 046a D1040000 		.4byte	.LASF75
 1415 046e 11       		.uleb128 0x11
 1416 046f 15010000 		.4byte	.LASF76
 1417 0473 0A       		.byte	0xa
 1418 0474 0408     		.2byte	0x804
 1419 0476 DA000000 		.4byte	0xda
 1420 047a 12       		.uleb128 0x12
 1421 047b AF030000 		.4byte	.LASF77
 1422 047f 0B       		.byte	0xb
 1423 0480 4C       		.byte	0x4c
 1424 0481 DF000000 		.4byte	0xdf
 1425 0485 13       		.uleb128 0x13
ARM GAS  /tmp/cczxrnjP.s 			page 26


 1426 0486 BF000000 		.4byte	0xbf
 1427 048a 95040000 		.4byte	0x495
 1428 048e 14       		.uleb128 0x14
 1429 048f 67040000 		.4byte	0x467
 1430 0493 0F       		.byte	0xf
 1431 0494 00       		.byte	0
 1432 0495 05       		.uleb128 0x5
 1433 0496 85040000 		.4byte	0x485
 1434 049a 12       		.uleb128 0x12
 1435 049b 7A040000 		.4byte	.LASF78
 1436 049f 0B       		.byte	0xb
 1437 04a0 4E       		.byte	0x4e
 1438 04a1 95040000 		.4byte	0x495
 1439 04a5 13       		.uleb128 0x13
 1440 04a6 BF000000 		.4byte	0xbf
 1441 04aa B5040000 		.4byte	0x4b5
 1442 04ae 14       		.uleb128 0x14
 1443 04af 67040000 		.4byte	0x467
 1444 04b3 07       		.byte	0x7
 1445 04b4 00       		.byte	0
 1446 04b5 05       		.uleb128 0x5
 1447 04b6 A5040000 		.4byte	0x4a5
 1448 04ba 12       		.uleb128 0x12
 1449 04bb 1A050000 		.4byte	.LASF79
 1450 04bf 0B       		.byte	0xb
 1451 04c0 4F       		.byte	0x4f
 1452 04c1 B5040000 		.4byte	0x4b5
 1453 04c5 03       		.uleb128 0x3
 1454 04c6 21030000 		.4byte	.LASF80
 1455 04ca 0C       		.byte	0xc
 1456 04cb 65       		.byte	0x65
 1457 04cc 29030000 		.4byte	0x329
 1458 04d0 03       		.uleb128 0x3
 1459 04d1 AF040000 		.4byte	.LASF81
 1460 04d5 0C       		.byte	0xc
 1461 04d6 6D       		.byte	0x6d
 1462 04d7 EA000000 		.4byte	0xea
 1463 04db 07       		.uleb128 0x7
 1464 04dc 32050000 		.4byte	.LASF82
 1465 04e0 04       		.byte	0x4
 1466 04e1 0C       		.byte	0xc
 1467 04e2 89       		.byte	0x89
 1468 04e3 F3040000 		.4byte	0x4f3
 1469 04e7 09       		.uleb128 0x9
 1470 04e8 737000   		.ascii	"sp\000"
 1471 04eb 0C       		.byte	0xc
 1472 04ec 8A       		.byte	0x8a
 1473 04ed 3F060000 		.4byte	0x63f
 1474 04f1 00       		.byte	0
 1475 04f2 00       		.byte	0
 1476 04f3 0D       		.uleb128 0xd
 1477 04f4 7B000000 		.4byte	.LASF83
 1478 04f8 64       		.byte	0x64
 1479 04f9 0D       		.byte	0xd
 1480 04fa 5901     		.2byte	0x159
 1481 04fc 3F060000 		.4byte	0x63f
 1482 0500 0A       		.uleb128 0xa
ARM GAS  /tmp/cczxrnjP.s 			page 27


 1483 0501 73313600 		.ascii	"s16\000"
 1484 0505 0D       		.byte	0xd
 1485 0506 5B01     		.2byte	0x15b
 1486 0508 C5040000 		.4byte	0x4c5
 1487 050c 00       		.byte	0
 1488 050d 0A       		.uleb128 0xa
 1489 050e 73313700 		.ascii	"s17\000"
 1490 0512 0D       		.byte	0xd
 1491 0513 5C01     		.2byte	0x15c
 1492 0515 C5040000 		.4byte	0x4c5
 1493 0519 04       		.byte	0x4
 1494 051a 0A       		.uleb128 0xa
 1495 051b 73313800 		.ascii	"s18\000"
 1496 051f 0D       		.byte	0xd
 1497 0520 5D01     		.2byte	0x15d
 1498 0522 C5040000 		.4byte	0x4c5
 1499 0526 08       		.byte	0x8
 1500 0527 0A       		.uleb128 0xa
 1501 0528 73313900 		.ascii	"s19\000"
 1502 052c 0D       		.byte	0xd
 1503 052d 5E01     		.2byte	0x15e
 1504 052f C5040000 		.4byte	0x4c5
 1505 0533 0C       		.byte	0xc
 1506 0534 0A       		.uleb128 0xa
 1507 0535 73323000 		.ascii	"s20\000"
 1508 0539 0D       		.byte	0xd
 1509 053a 5F01     		.2byte	0x15f
 1510 053c C5040000 		.4byte	0x4c5
 1511 0540 10       		.byte	0x10
 1512 0541 0A       		.uleb128 0xa
 1513 0542 73323100 		.ascii	"s21\000"
 1514 0546 0D       		.byte	0xd
 1515 0547 6001     		.2byte	0x160
 1516 0549 C5040000 		.4byte	0x4c5
 1517 054d 14       		.byte	0x14
 1518 054e 0A       		.uleb128 0xa
 1519 054f 73323200 		.ascii	"s22\000"
 1520 0553 0D       		.byte	0xd
 1521 0554 6101     		.2byte	0x161
 1522 0556 C5040000 		.4byte	0x4c5
 1523 055a 18       		.byte	0x18
 1524 055b 0A       		.uleb128 0xa
 1525 055c 73323300 		.ascii	"s23\000"
 1526 0560 0D       		.byte	0xd
 1527 0561 6201     		.2byte	0x162
 1528 0563 C5040000 		.4byte	0x4c5
 1529 0567 1C       		.byte	0x1c
 1530 0568 0A       		.uleb128 0xa
 1531 0569 73323400 		.ascii	"s24\000"
 1532 056d 0D       		.byte	0xd
 1533 056e 6301     		.2byte	0x163
 1534 0570 C5040000 		.4byte	0x4c5
 1535 0574 20       		.byte	0x20
 1536 0575 0A       		.uleb128 0xa
 1537 0576 73323500 		.ascii	"s25\000"
 1538 057a 0D       		.byte	0xd
 1539 057b 6401     		.2byte	0x164
ARM GAS  /tmp/cczxrnjP.s 			page 28


 1540 057d C5040000 		.4byte	0x4c5
 1541 0581 24       		.byte	0x24
 1542 0582 0A       		.uleb128 0xa
 1543 0583 73323600 		.ascii	"s26\000"
 1544 0587 0D       		.byte	0xd
 1545 0588 6501     		.2byte	0x165
 1546 058a C5040000 		.4byte	0x4c5
 1547 058e 28       		.byte	0x28
 1548 058f 0A       		.uleb128 0xa
 1549 0590 73323700 		.ascii	"s27\000"
 1550 0594 0D       		.byte	0xd
 1551 0595 6601     		.2byte	0x166
 1552 0597 C5040000 		.4byte	0x4c5
 1553 059b 2C       		.byte	0x2c
 1554 059c 0A       		.uleb128 0xa
 1555 059d 73323800 		.ascii	"s28\000"
 1556 05a1 0D       		.byte	0xd
 1557 05a2 6701     		.2byte	0x167
 1558 05a4 C5040000 		.4byte	0x4c5
 1559 05a8 30       		.byte	0x30
 1560 05a9 0A       		.uleb128 0xa
 1561 05aa 73323900 		.ascii	"s29\000"
 1562 05ae 0D       		.byte	0xd
 1563 05af 6801     		.2byte	0x168
 1564 05b1 C5040000 		.4byte	0x4c5
 1565 05b5 34       		.byte	0x34
 1566 05b6 0A       		.uleb128 0xa
 1567 05b7 73333000 		.ascii	"s30\000"
 1568 05bb 0D       		.byte	0xd
 1569 05bc 6901     		.2byte	0x169
 1570 05be C5040000 		.4byte	0x4c5
 1571 05c2 38       		.byte	0x38
 1572 05c3 0A       		.uleb128 0xa
 1573 05c4 73333100 		.ascii	"s31\000"
 1574 05c8 0D       		.byte	0xd
 1575 05c9 6A01     		.2byte	0x16a
 1576 05cb C5040000 		.4byte	0x4c5
 1577 05cf 3C       		.byte	0x3c
 1578 05d0 0A       		.uleb128 0xa
 1579 05d1 723400   		.ascii	"r4\000"
 1580 05d4 0D       		.byte	0xd
 1581 05d5 6C01     		.2byte	0x16c
 1582 05d7 C5040000 		.4byte	0x4c5
 1583 05db 40       		.byte	0x40
 1584 05dc 0A       		.uleb128 0xa
 1585 05dd 723500   		.ascii	"r5\000"
 1586 05e0 0D       		.byte	0xd
 1587 05e1 6D01     		.2byte	0x16d
 1588 05e3 C5040000 		.4byte	0x4c5
 1589 05e7 44       		.byte	0x44
 1590 05e8 0A       		.uleb128 0xa
 1591 05e9 723600   		.ascii	"r6\000"
 1592 05ec 0D       		.byte	0xd
 1593 05ed 6E01     		.2byte	0x16e
 1594 05ef C5040000 		.4byte	0x4c5
 1595 05f3 48       		.byte	0x48
 1596 05f4 0A       		.uleb128 0xa
ARM GAS  /tmp/cczxrnjP.s 			page 29


 1597 05f5 723700   		.ascii	"r7\000"
 1598 05f8 0D       		.byte	0xd
 1599 05f9 6F01     		.2byte	0x16f
 1600 05fb C5040000 		.4byte	0x4c5
 1601 05ff 4C       		.byte	0x4c
 1602 0600 0A       		.uleb128 0xa
 1603 0601 723800   		.ascii	"r8\000"
 1604 0604 0D       		.byte	0xd
 1605 0605 7001     		.2byte	0x170
 1606 0607 C5040000 		.4byte	0x4c5
 1607 060b 50       		.byte	0x50
 1608 060c 0A       		.uleb128 0xa
 1609 060d 723900   		.ascii	"r9\000"
 1610 0610 0D       		.byte	0xd
 1611 0611 7101     		.2byte	0x171
 1612 0613 C5040000 		.4byte	0x4c5
 1613 0617 54       		.byte	0x54
 1614 0618 0A       		.uleb128 0xa
 1615 0619 72313000 		.ascii	"r10\000"
 1616 061d 0D       		.byte	0xd
 1617 061e 7201     		.2byte	0x172
 1618 0620 C5040000 		.4byte	0x4c5
 1619 0624 58       		.byte	0x58
 1620 0625 0A       		.uleb128 0xa
 1621 0626 72313100 		.ascii	"r11\000"
 1622 062a 0D       		.byte	0xd
 1623 062b 7301     		.2byte	0x173
 1624 062d C5040000 		.4byte	0x4c5
 1625 0631 5C       		.byte	0x5c
 1626 0632 0A       		.uleb128 0xa
 1627 0633 6C7200   		.ascii	"lr\000"
 1628 0636 0D       		.byte	0xd
 1629 0637 7401     		.2byte	0x174
 1630 0639 C5040000 		.4byte	0x4c5
 1631 063d 60       		.byte	0x60
 1632 063e 00       		.byte	0
 1633 063f 0C       		.uleb128 0xc
 1634 0640 04       		.byte	0x4
 1635 0641 F3040000 		.4byte	0x4f3
 1636 0645 15       		.uleb128 0x15
 1637 0646 04       		.byte	0x4
 1638 0647 0E       		.byte	0xe
 1639 0648 38       		.byte	0x38
 1640 0649 5A060000 		.4byte	0x65a
 1641 064d 08       		.uleb128 0x8
 1642 064e 6B070000 		.4byte	.LASF84
 1643 0652 0E       		.byte	0xe
 1644 0653 3C       		.byte	0x3c
 1645 0654 F5000000 		.4byte	0xf5
 1646 0658 00       		.byte	0
 1647 0659 00       		.byte	0
 1648 065a 03       		.uleb128 0x3
 1649 065b 3F050000 		.4byte	.LASF85
 1650 065f 0E       		.byte	0xe
 1651 0660 3D       		.byte	0x3d
 1652 0661 45060000 		.4byte	0x645
 1653 0665 16       		.uleb128 0x16
ARM GAS  /tmp/cczxrnjP.s 			page 30


 1654 0666 04       		.byte	0x4
 1655 0667 02       		.byte	0x2
 1656 0668 C6       		.byte	0xc6
 1657 0669 C7060000 		.4byte	0x6c7
 1658 066d 17       		.uleb128 0x17
 1659 066e 34000000 		.4byte	.LASF86
 1660 0672 02       		.byte	0x2
 1661 0673 CD       		.byte	0xcd
 1662 0674 2C010000 		.4byte	0x12c
 1663 0678 17       		.uleb128 0x17
 1664 0679 E8000000 		.4byte	.LASF87
 1665 067d 02       		.byte	0x2
 1666 067e D4       		.byte	0xd4
 1667 067f 2C010000 		.4byte	0x12c
 1668 0683 17       		.uleb128 0x17
 1669 0684 28080000 		.4byte	.LASF88
 1670 0688 02       		.byte	0x2
 1671 0689 DB       		.byte	0xdb
 1672 068a 29030000 		.4byte	0x329
 1673 068e 17       		.uleb128 0x17
 1674 068f C6030000 		.4byte	.LASF89
 1675 0693 02       		.byte	0x2
 1676 0694 E2       		.byte	0xe2
 1677 0695 C7060000 		.4byte	0x6c7
 1678 0699 17       		.uleb128 0x17
 1679 069a FC000000 		.4byte	.LASF90
 1680 069e 02       		.byte	0x2
 1681 069f E7       		.byte	0xe7
 1682 06a0 2C010000 		.4byte	0x12c
 1683 06a4 17       		.uleb128 0x17
 1684 06a5 BF030000 		.4byte	.LASF91
 1685 06a9 02       		.byte	0x2
 1686 06aa F0       		.byte	0xf0
 1687 06ab F2060000 		.4byte	0x6f2
 1688 06af 17       		.uleb128 0x17
 1689 06b0 9D060000 		.4byte	.LASF92
 1690 06b4 02       		.byte	0x2
 1691 06b5 F9       		.byte	0xf9
 1692 06b6 35070000 		.4byte	0x735
 1693 06ba 18       		.uleb128 0x18
 1694 06bb 0D060000 		.4byte	.LASF93
 1695 06bf 02       		.byte	0x2
 1696 06c0 0101     		.2byte	0x101
 1697 06c2 37010000 		.4byte	0x137
 1698 06c6 00       		.byte	0
 1699 06c7 0C       		.uleb128 0xc
 1700 06c8 04       		.byte	0x4
 1701 06c9 41020000 		.4byte	0x241
 1702 06cd 07       		.uleb128 0x7
 1703 06ce 63060000 		.4byte	.LASF94
 1704 06d2 0C       		.byte	0xc
 1705 06d3 0F       		.byte	0xf
 1706 06d4 34       		.byte	0x34
 1707 06d5 F2060000 		.4byte	0x6f2
 1708 06d9 08       		.uleb128 0x8
 1709 06da FB030000 		.4byte	.LASF31
 1710 06de 0F       		.byte	0xf
ARM GAS  /tmp/cczxrnjP.s 			page 31


 1711 06df 35       		.byte	0x35
 1712 06e0 76020000 		.4byte	0x276
 1713 06e4 00       		.byte	0
 1714 06e5 09       		.uleb128 0x9
 1715 06e6 636E7400 		.ascii	"cnt\000"
 1716 06ea 0F       		.byte	0xf
 1717 06eb 37       		.byte	0x37
 1718 06ec 42010000 		.4byte	0x142
 1719 06f0 08       		.byte	0x8
 1720 06f1 00       		.byte	0
 1721 06f2 0C       		.uleb128 0xc
 1722 06f3 04       		.byte	0x4
 1723 06f4 CD060000 		.4byte	0x6cd
 1724 06f8 07       		.uleb128 0x7
 1725 06f9 72070000 		.4byte	.LASF95
 1726 06fd 14       		.byte	0x14
 1727 06fe 10       		.byte	0x10
 1728 06ff 39       		.byte	0x39
 1729 0700 35070000 		.4byte	0x735
 1730 0704 08       		.uleb128 0x8
 1731 0705 FB030000 		.4byte	.LASF31
 1732 0709 10       		.byte	0x10
 1733 070a 3A       		.byte	0x3a
 1734 070b 76020000 		.4byte	0x276
 1735 070f 00       		.byte	0
 1736 0710 08       		.uleb128 0x8
 1737 0711 C0060000 		.4byte	.LASF96
 1738 0715 10       		.byte	0x10
 1739 0716 3C       		.byte	0x3c
 1740 0717 4C020000 		.4byte	0x24c
 1741 071b 08       		.byte	0x8
 1742 071c 08       		.uleb128 0x8
 1743 071d 30010000 		.4byte	.LASF50
 1744 0721 10       		.byte	0x10
 1745 0722 3E       		.byte	0x3e
 1746 0723 A2080000 		.4byte	0x8a2
 1747 0727 0C       		.byte	0xc
 1748 0728 09       		.uleb128 0x9
 1749 0729 636E7400 		.ascii	"cnt\000"
 1750 072d 10       		.byte	0x10
 1751 072e 41       		.byte	0x41
 1752 072f 42010000 		.4byte	0x142
 1753 0733 10       		.byte	0x10
 1754 0734 00       		.byte	0
 1755 0735 0C       		.uleb128 0xc
 1756 0736 04       		.byte	0x4
 1757 0737 F8060000 		.4byte	0x6f8
 1758 073b 0C       		.uleb128 0xc
 1759 073c 04       		.byte	0x4
 1760 073d 4D070000 		.4byte	0x74d
 1761 0741 06       		.uleb128 0x6
 1762 0742 3B070000 		.4byte	0x73b
 1763 0746 04       		.uleb128 0x4
 1764 0747 01       		.byte	0x1
 1765 0748 08       		.byte	0x8
 1766 0749 DF060000 		.4byte	.LASF97
 1767 074d 05       		.uleb128 0x5
ARM GAS  /tmp/cczxrnjP.s 			page 32


 1768 074e 46070000 		.4byte	0x746
 1769 0752 0C       		.uleb128 0xc
 1770 0753 04       		.byte	0x4
 1771 0754 D0040000 		.4byte	0x4d0
 1772 0758 0C       		.uleb128 0xc
 1773 0759 04       		.byte	0x4
 1774 075a 2B030000 		.4byte	0x32b
 1775 075e 19       		.uleb128 0x19
 1776 075f 636800   		.ascii	"ch\000"
 1777 0762 02       		.byte	0x2
 1778 0763 C701     		.2byte	0x1c7
 1779 0765 F8030000 		.4byte	0x3f8
 1780 0769 13       		.uleb128 0x13
 1781 076a D0040000 		.4byte	0x4d0
 1782 076e 74070000 		.4byte	0x774
 1783 0772 1A       		.uleb128 0x1a
 1784 0773 00       		.byte	0
 1785 0774 11       		.uleb128 0x11
 1786 0775 79060000 		.4byte	.LASF98
 1787 0779 11       		.byte	0x11
 1788 077a 1701     		.2byte	0x117
 1789 077c 69070000 		.4byte	0x769
 1790 0780 15       		.uleb128 0x15
 1791 0781 16       		.byte	0x16
 1792 0782 12       		.byte	0x12
 1793 0783 34       		.byte	0x34
 1794 0784 61080000 		.4byte	0x861
 1795 0788 08       		.uleb128 0x8
 1796 0789 98070000 		.4byte	.LASF99
 1797 078d 12       		.byte	0x12
 1798 078e 35       		.byte	0x35
 1799 078f 61080000 		.4byte	0x861
 1800 0793 00       		.byte	0
 1801 0794 08       		.uleb128 0x8
 1802 0795 51030000 		.4byte	.LASF100
 1803 0799 12       		.byte	0x12
 1804 079a 36       		.byte	0x36
 1805 079b B4000000 		.4byte	0xb4
 1806 079f 04       		.byte	0x4
 1807 07a0 08       		.uleb128 0x8
 1808 07a1 70010000 		.4byte	.LASF101
 1809 07a5 12       		.byte	0x12
 1810 07a6 37       		.byte	0x37
 1811 07a7 B4000000 		.4byte	0xb4
 1812 07ab 05       		.byte	0x5
 1813 07ac 08       		.uleb128 0x8
 1814 07ad C9040000 		.4byte	.LASF102
 1815 07b1 12       		.byte	0x12
 1816 07b2 38       		.byte	0x38
 1817 07b3 C4000000 		.4byte	0xc4
 1818 07b7 06       		.byte	0x6
 1819 07b8 08       		.uleb128 0x8
 1820 07b9 C4070000 		.4byte	.LASF103
 1821 07bd 12       		.byte	0x12
 1822 07be 39       		.byte	0x39
 1823 07bf B4000000 		.4byte	0xb4
 1824 07c3 08       		.byte	0x8
ARM GAS  /tmp/cczxrnjP.s 			page 33


 1825 07c4 08       		.uleb128 0x8
 1826 07c5 8B060000 		.4byte	.LASF104
 1827 07c9 12       		.byte	0x12
 1828 07ca 3A       		.byte	0x3a
 1829 07cb B4000000 		.4byte	0xb4
 1830 07cf 09       		.byte	0x9
 1831 07d0 08       		.uleb128 0x8
 1832 07d1 BD050000 		.4byte	.LASF105
 1833 07d5 12       		.byte	0x12
 1834 07d6 3B       		.byte	0x3b
 1835 07d7 B4000000 		.4byte	0xb4
 1836 07db 0A       		.byte	0xa
 1837 07dc 08       		.uleb128 0x8
 1838 07dd E4050000 		.4byte	.LASF106
 1839 07e1 12       		.byte	0x12
 1840 07e2 3C       		.byte	0x3c
 1841 07e3 B4000000 		.4byte	0xb4
 1842 07e7 0B       		.byte	0xb
 1843 07e8 08       		.uleb128 0x8
 1844 07e9 50040000 		.4byte	.LASF107
 1845 07ed 12       		.byte	0x12
 1846 07ee 3D       		.byte	0x3d
 1847 07ef B4000000 		.4byte	0xb4
 1848 07f3 0C       		.byte	0xc
 1849 07f4 08       		.uleb128 0x8
 1850 07f5 10050000 		.4byte	.LASF108
 1851 07f9 12       		.byte	0x12
 1852 07fa 3E       		.byte	0x3e
 1853 07fb B4000000 		.4byte	0xb4
 1854 07ff 0D       		.byte	0xd
 1855 0800 08       		.uleb128 0x8
 1856 0801 7B070000 		.4byte	.LASF109
 1857 0805 12       		.byte	0x12
 1858 0806 3F       		.byte	0x3f
 1859 0807 B4000000 		.4byte	0xb4
 1860 080b 0E       		.byte	0xe
 1861 080c 08       		.uleb128 0x8
 1862 080d 07080000 		.4byte	.LASF110
 1863 0811 12       		.byte	0x12
 1864 0812 40       		.byte	0x40
 1865 0813 B4000000 		.4byte	0xb4
 1866 0817 0F       		.byte	0xf
 1867 0818 08       		.uleb128 0x8
 1868 0819 ED050000 		.4byte	.LASF111
 1869 081d 12       		.byte	0x12
 1870 081e 41       		.byte	0x41
 1871 081f B4000000 		.4byte	0xb4
 1872 0823 10       		.byte	0x10
 1873 0824 08       		.uleb128 0x8
 1874 0825 3E080000 		.4byte	.LASF112
 1875 0829 12       		.byte	0x12
 1876 082a 42       		.byte	0x42
 1877 082b B4000000 		.4byte	0xb4
 1878 082f 11       		.byte	0x11
 1879 0830 08       		.uleb128 0x8
 1880 0831 7B080000 		.4byte	.LASF113
 1881 0835 12       		.byte	0x12
ARM GAS  /tmp/cczxrnjP.s 			page 34


 1882 0836 43       		.byte	0x43
 1883 0837 B4000000 		.4byte	0xb4
 1884 083b 12       		.byte	0x12
 1885 083c 08       		.uleb128 0x8
 1886 083d 07040000 		.4byte	.LASF114
 1887 0841 12       		.byte	0x12
 1888 0842 44       		.byte	0x44
 1889 0843 B4000000 		.4byte	0xb4
 1890 0847 13       		.byte	0x13
 1891 0848 08       		.uleb128 0x8
 1892 0849 F9020000 		.4byte	.LASF115
 1893 084d 12       		.byte	0x12
 1894 084e 45       		.byte	0x45
 1895 084f B4000000 		.4byte	0xb4
 1896 0853 14       		.byte	0x14
 1897 0854 08       		.uleb128 0x8
 1898 0855 70060000 		.4byte	.LASF116
 1899 0859 12       		.byte	0x12
 1900 085a 46       		.byte	0x46
 1901 085b B4000000 		.4byte	0xb4
 1902 085f 15       		.byte	0x15
 1903 0860 00       		.byte	0
 1904 0861 13       		.uleb128 0x13
 1905 0862 46070000 		.4byte	0x746
 1906 0866 71080000 		.4byte	0x871
 1907 086a 14       		.uleb128 0x14
 1908 086b 67040000 		.4byte	0x467
 1909 086f 03       		.byte	0x3
 1910 0870 00       		.byte	0
 1911 0871 03       		.uleb128 0x3
 1912 0872 EF020000 		.4byte	.LASF117
 1913 0876 12       		.byte	0x12
 1914 0877 47       		.byte	0x47
 1915 0878 80070000 		.4byte	0x780
 1916 087c 05       		.uleb128 0x5
 1917 087d 71080000 		.4byte	0x871
 1918 0881 12       		.uleb128 0x12
 1919 0882 D7030000 		.4byte	.LASF118
 1920 0886 12       		.byte	0x12
 1921 0887 6C       		.byte	0x6c
 1922 0888 7C080000 		.4byte	0x87c
 1923 088c 03       		.uleb128 0x3
 1924 088d 46060000 		.4byte	.LASF119
 1925 0891 0F       		.byte	0xf
 1926 0892 38       		.byte	0x38
 1927 0893 CD060000 		.4byte	0x6cd
 1928 0897 03       		.uleb128 0x3
 1929 0898 56030000 		.4byte	.LASF120
 1930 089c 10       		.byte	0x10
 1931 089d 34       		.byte	0x34
 1932 089e F8060000 		.4byte	0x6f8
 1933 08a2 0C       		.uleb128 0xc
 1934 08a3 04       		.byte	0x4
 1935 08a4 97080000 		.4byte	0x897
 1936 08a8 04       		.uleb128 0x4
 1937 08a9 01       		.byte	0x1
 1938 08aa 02       		.byte	0x2
ARM GAS  /tmp/cczxrnjP.s 			page 35


 1939 08ab C8050000 		.4byte	.LASF121
 1940 08af 03       		.uleb128 0x3
 1941 08b0 BD000000 		.4byte	.LASF122
 1942 08b4 13       		.byte	0x13
 1943 08b5 47       		.byte	0x47
 1944 08b6 BA080000 		.4byte	0x8ba
 1945 08ba 0C       		.uleb128 0xc
 1946 08bb 04       		.byte	0x4
 1947 08bc C0080000 		.4byte	0x8c0
 1948 08c0 1B       		.uleb128 0x1b
 1949 08c1 29030000 		.4byte	0x329
 1950 08c5 D4080000 		.4byte	0x8d4
 1951 08c9 0F       		.uleb128 0xf
 1952 08ca 2C000000 		.4byte	0x2c
 1953 08ce 0F       		.uleb128 0xf
 1954 08cf 37000000 		.4byte	0x37
 1955 08d3 00       		.byte	0
 1956 08d4 15       		.uleb128 0x15
 1957 08d5 08       		.byte	0x8
 1958 08d6 13       		.byte	0x13
 1959 08d7 51       		.byte	0x51
 1960 08d8 F5080000 		.4byte	0x8f5
 1961 08dc 08       		.uleb128 0x8
 1962 08dd B9080000 		.4byte	.LASF123
 1963 08e1 13       		.byte	0x13
 1964 08e2 55       		.byte	0x55
 1965 08e3 F5080000 		.4byte	0x8f5
 1966 08e7 00       		.byte	0
 1967 08e8 08       		.uleb128 0x8
 1968 08e9 88040000 		.4byte	.LASF124
 1969 08ed 13       		.byte	0x13
 1970 08ee 59       		.byte	0x59
 1971 08ef F5080000 		.4byte	0x8f5
 1972 08f3 04       		.byte	0x4
 1973 08f4 00       		.byte	0
 1974 08f5 0C       		.uleb128 0xc
 1975 08f6 04       		.byte	0x4
 1976 08f7 B4000000 		.4byte	0xb4
 1977 08fb 03       		.uleb128 0x3
 1978 08fc 71050000 		.4byte	.LASF125
 1979 0900 13       		.byte	0x13
 1980 0901 5A       		.byte	0x5a
 1981 0902 D4080000 		.4byte	0x8d4
 1982 0906 12       		.uleb128 0x12
 1983 0907 19070000 		.4byte	.LASF126
 1984 090b 13       		.byte	0x13
 1985 090c 65       		.byte	0x65
 1986 090d FB080000 		.4byte	0x8fb
 1987 0911 07       		.uleb128 0x7
 1988 0912 EF070000 		.4byte	.LASF127
 1989 0916 04       		.byte	0x4
 1990 0917 14       		.byte	0x14
 1991 0918 38       		.byte	0x38
 1992 0919 2A090000 		.4byte	0x92a
 1993 091d 08       		.uleb128 0x8
 1994 091e 30010000 		.4byte	.LASF50
 1995 0922 14       		.byte	0x14
ARM GAS  /tmp/cczxrnjP.s 			page 36


 1996 0923 39       		.byte	0x39
 1997 0924 2A090000 		.4byte	0x92a
 1998 0928 00       		.byte	0
 1999 0929 00       		.byte	0
 2000 092a 0C       		.uleb128 0xc
 2001 092b 04       		.byte	0x4
 2002 092c 11090000 		.4byte	0x911
 2003 0930 15       		.uleb128 0x15
 2004 0931 10       		.byte	0x10
 2005 0932 14       		.byte	0x14
 2006 0933 40       		.byte	0x40
 2007 0934 69090000 		.4byte	0x969
 2008 0938 08       		.uleb128 0x8
 2009 0939 30010000 		.4byte	.LASF50
 2010 093d 14       		.byte	0x14
 2011 093e 41       		.byte	0x41
 2012 093f 2A090000 		.4byte	0x92a
 2013 0943 00       		.byte	0
 2014 0944 08       		.uleb128 0x8
 2015 0945 B8070000 		.4byte	.LASF128
 2016 0949 14       		.byte	0x14
 2017 094a 42       		.byte	0x42
 2018 094b 2C000000 		.4byte	0x2c
 2019 094f 04       		.byte	0x4
 2020 0950 08       		.uleb128 0x8
 2021 0951 5E030000 		.4byte	.LASF129
 2022 0955 14       		.byte	0x14
 2023 0956 44       		.byte	0x44
 2024 0957 37000000 		.4byte	0x37
 2025 095b 08       		.byte	0x8
 2026 095c 08       		.uleb128 0x8
 2027 095d 96000000 		.4byte	.LASF130
 2028 0961 14       		.byte	0x14
 2029 0962 45       		.byte	0x45
 2030 0963 AF080000 		.4byte	0x8af
 2031 0967 0C       		.byte	0xc
 2032 0968 00       		.byte	0
 2033 0969 03       		.uleb128 0x3
 2034 096a E8030000 		.4byte	.LASF131
 2035 096e 14       		.byte	0x14
 2036 096f 47       		.byte	0x47
 2037 0970 30090000 		.4byte	0x930
 2038 0974 07       		.uleb128 0x7
 2039 0975 98050000 		.4byte	.LASF132
 2040 0979 10       		.byte	0x10
 2041 097a 15       		.byte	0x15
 2042 097b A9       		.byte	0xa9
 2043 097c A5090000 		.4byte	0x9a5
 2044 0980 08       		.uleb128 0x8
 2045 0981 30010000 		.4byte	.LASF50
 2046 0985 15       		.byte	0x15
 2047 0986 AD       		.byte	0xad
 2048 0987 A5090000 		.4byte	0x9a5
 2049 098b 00       		.byte	0
 2050 098c 08       		.uleb128 0x8
 2051 098d 83050000 		.4byte	.LASF39
 2052 0991 15       		.byte	0x15
ARM GAS  /tmp/cczxrnjP.s 			page 37


 2053 0992 B1       		.byte	0xb1
 2054 0993 4D010000 		.4byte	0x14d
 2055 0997 04       		.byte	0x4
 2056 0998 08       		.uleb128 0x8
 2057 0999 F6030000 		.4byte	.LASF35
 2058 099d 15       		.byte	0x15
 2059 099e B3       		.byte	0xb3
 2060 099f AB090000 		.4byte	0x9ab
 2061 09a3 08       		.byte	0x8
 2062 09a4 00       		.byte	0
 2063 09a5 0C       		.uleb128 0xc
 2064 09a6 04       		.byte	0x4
 2065 09a7 74090000 		.4byte	0x974
 2066 09ab 13       		.uleb128 0x13
 2067 09ac 46070000 		.4byte	0x746
 2068 09b0 BB090000 		.4byte	0x9bb
 2069 09b4 14       		.uleb128 0x14
 2070 09b5 67040000 		.4byte	0x467
 2071 09b9 07       		.byte	0x7
 2072 09ba 00       		.byte	0
 2073 09bb 03       		.uleb128 0x3
 2074 09bc 22010000 		.4byte	.LASF133
 2075 09c0 15       		.byte	0x15
 2076 09c1 B7       		.byte	0xb7
 2077 09c2 74090000 		.4byte	0x974
 2078 09c6 07       		.uleb128 0x7
 2079 09c7 DE020000 		.4byte	.LASF134
 2080 09cb 04       		.byte	0x4
 2081 09cc 15       		.byte	0x15
 2082 09cd BC       		.byte	0xbc
 2083 09ce DF090000 		.4byte	0x9df
 2084 09d2 08       		.uleb128 0x8
 2085 09d3 30010000 		.4byte	.LASF50
 2086 09d7 15       		.byte	0x15
 2087 09d8 BD       		.byte	0xbd
 2088 09d9 DF090000 		.4byte	0x9df
 2089 09dd 00       		.byte	0
 2090 09de 00       		.byte	0
 2091 09df 0C       		.uleb128 0xc
 2092 09e0 04       		.byte	0x4
 2093 09e1 BB090000 		.4byte	0x9bb
 2094 09e5 03       		.uleb128 0x3
 2095 09e6 39040000 		.4byte	.LASF135
 2096 09ea 15       		.byte	0x15
 2097 09eb BE       		.byte	0xbe
 2098 09ec C6090000 		.4byte	0x9c6
 2099 09f0 0D       		.uleb128 0xd
 2100 09f1 CC070000 		.4byte	.LASF136
 2101 09f5 48       		.byte	0x48
 2102 09f6 15       		.byte	0x15
 2103 09f7 3E01     		.2byte	0x13e
 2104 09f9 660A0000 		.4byte	0xa66
 2105 09fd 0A       		.uleb128 0xa
 2106 09fe 6D747800 		.ascii	"mtx\000"
 2107 0a02 15       		.byte	0x15
 2108 0a03 4301     		.2byte	0x143
 2109 0a05 97080000 		.4byte	0x897
ARM GAS  /tmp/cczxrnjP.s 			page 38


 2110 0a09 00       		.byte	0
 2111 0a0a 0B       		.uleb128 0xb
 2112 0a0b EA060000 		.4byte	.LASF137
 2113 0a0f 15       		.byte	0x15
 2114 0a10 4A01     		.2byte	0x14a
 2115 0a12 E5090000 		.4byte	0x9e5
 2116 0a16 14       		.byte	0x14
 2117 0a17 0B       		.uleb128 0xb
 2118 0a18 3D060000 		.4byte	.LASF138
 2119 0a1c 15       		.byte	0x15
 2120 0a1d 4E01     		.2byte	0x14e
 2121 0a1f 69090000 		.4byte	0x969
 2122 0a23 18       		.byte	0x18
 2123 0a24 0B       		.uleb128 0xb
 2124 0a25 10040000 		.4byte	.LASF139
 2125 0a29 15       		.byte	0x15
 2126 0a2a 5301     		.2byte	0x153
 2127 0a2c E5090000 		.4byte	0x9e5
 2128 0a30 28       		.byte	0x28
 2129 0a31 0B       		.uleb128 0xb
 2130 0a32 AA000000 		.4byte	.LASF140
 2131 0a36 15       		.byte	0x15
 2132 0a37 5901     		.2byte	0x159
 2133 0a39 E5090000 		.4byte	0x9e5
 2134 0a3d 2C       		.byte	0x2c
 2135 0a3e 0B       		.uleb128 0xb
 2136 0a3f 55050000 		.4byte	.LASF141
 2137 0a43 15       		.byte	0x15
 2138 0a44 5D01     		.2byte	0x15d
 2139 0a46 69090000 		.4byte	0x969
 2140 0a4a 30       		.byte	0x30
 2141 0a4b 0B       		.uleb128 0xb
 2142 0a4c 2A030000 		.4byte	.LASF142
 2143 0a50 15       		.byte	0x15
 2144 0a51 6301     		.2byte	0x163
 2145 0a53 E5090000 		.4byte	0x9e5
 2146 0a57 40       		.byte	0x40
 2147 0a58 0B       		.uleb128 0xb
 2148 0a59 1E080000 		.4byte	.LASF143
 2149 0a5d 15       		.byte	0x15
 2150 0a5e 6901     		.2byte	0x169
 2151 0a60 E5090000 		.4byte	0x9e5
 2152 0a64 44       		.byte	0x44
 2153 0a65 00       		.byte	0
 2154 0a66 1C       		.uleb128 0x1c
 2155 0a67 69080000 		.4byte	.LASF144
 2156 0a6b 15       		.byte	0x15
 2157 0a6c 7101     		.2byte	0x171
 2158 0a6e F0090000 		.4byte	0x9f0
 2159 0a72 11       		.uleb128 0x11
 2160 0a73 27060000 		.4byte	.LASF145
 2161 0a77 15       		.byte	0x15
 2162 0a78 7C01     		.2byte	0x17c
 2163 0a7a 660A0000 		.4byte	0xa66
 2164 0a7e 1D       		.uleb128 0x1d
 2165 0a7f 60010000 		.4byte	.LASF151
 2166 0a83 01       		.byte	0x1
ARM GAS  /tmp/cczxrnjP.s 			page 39


 2167 0a84 7A01     		.2byte	0x17a
 2168 0a86 2C010000 		.4byte	0x12c
 2169 0a8a 00000000 		.4byte	.LFB300
 2170 0a8e 5C000000 		.4byte	.LFE300-.LFB300
 2171 0a92 01       		.uleb128 0x1
 2172 0a93 9C       		.byte	0x9c
 2173 0a94 F80B0000 		.4byte	0xbf8
 2174 0a98 1E       		.uleb128 0x1e
 2175 0a99 73707300 		.ascii	"sps\000"
 2176 0a9d 01       		.byte	0x1
 2177 0a9e 7A01     		.2byte	0x17a
 2178 0aa0 F80B0000 		.4byte	0xbf8
 2179 0aa4 00000000 		.4byte	.LLST37
 2180 0aa8 1E       		.uleb128 0x1e
 2181 0aa9 73707700 		.ascii	"spw\000"
 2182 0aad 01       		.byte	0x1
 2183 0aae 7A01     		.2byte	0x17a
 2184 0ab0 F80B0000 		.4byte	0xbf8
 2185 0ab4 2C000000 		.4byte	.LLST38
 2186 0ab8 1F       		.uleb128 0x1f
 2187 0ab9 6D736700 		.ascii	"msg\000"
 2188 0abd 01       		.byte	0x1
 2189 0abe 7B01     		.2byte	0x17b
 2190 0ac0 2C010000 		.4byte	0x12c
 2191 0ac4 4A000000 		.4byte	.LLST39
 2192 0ac8 20       		.uleb128 0x20
 2193 0ac9 1E060000 		.4byte	.LASF146
 2194 0acd 0E0C0000 		.4byte	0xc0e
 2195 0ad1 21       		.uleb128 0x21
 2196 0ad2 30000000 		.4byte	.LBB171
 2197 0ad6 18000000 		.4byte	.LBE171-.LBB171
 2198 0ada 250B0000 		.4byte	0xb25
 2199 0ade 1F       		.uleb128 0x1f
 2200 0adf 63747000 		.ascii	"ctp\000"
 2201 0ae3 01       		.byte	0x1
 2202 0ae4 8A01     		.2byte	0x18a
 2203 0ae6 4C020000 		.4byte	0x24c
 2204 0aea 69000000 		.4byte	.LLST43
 2205 0aee 22       		.uleb128 0x22
 2206 0aef B3120000 		.4byte	0x12b3
 2207 0af3 34000000 		.4byte	.LBB172
 2208 0af7 78000000 		.4byte	.Ldebug_ranges0+0x78
 2209 0afb 01       		.byte	0x1
 2210 0afc 8B01     		.2byte	0x18b
 2211 0afe 150B0000 		.4byte	0xb15
 2212 0b02 23       		.uleb128 0x23
 2213 0b03 CB120000 		.4byte	0x12cb
 2214 0b07 7C000000 		.4byte	.LLST44
 2215 0b0b 23       		.uleb128 0x23
 2216 0b0c C0120000 		.4byte	0x12c0
 2217 0b10 8F000000 		.4byte	.LLST45
 2218 0b14 00       		.byte	0
 2219 0b15 24       		.uleb128 0x24
 2220 0b16 46000000 		.4byte	.LVL70
 2221 0b1a 17140000 		.4byte	0x1417
 2222 0b1e 25       		.uleb128 0x25
 2223 0b1f 01       		.uleb128 0x1
ARM GAS  /tmp/cczxrnjP.s 			page 40


 2224 0b20 50       		.byte	0x50
 2225 0b21 01       		.uleb128 0x1
 2226 0b22 35       		.byte	0x35
 2227 0b23 00       		.byte	0
 2228 0b24 00       		.byte	0
 2229 0b25 22       		.uleb128 0x22
 2230 0b26 52120000 		.4byte	0x1252
 2231 0b2a 02000000 		.4byte	.LBB161
 2232 0b2e 60000000 		.4byte	.Ldebug_ranges0+0x60
 2233 0b32 01       		.byte	0x1
 2234 0b33 7F01     		.2byte	0x17f
 2235 0b35 650B0000 		.4byte	0xb65
 2236 0b39 26       		.uleb128 0x26
 2237 0b3a FB120000 		.4byte	0x12fb
 2238 0b3e 02000000 		.4byte	.LBB162
 2239 0b42 60000000 		.4byte	.Ldebug_ranges0+0x60
 2240 0b46 11       		.byte	0x11
 2241 0b47 6301     		.2byte	0x163
 2242 0b49 26       		.uleb128 0x26
 2243 0b4a 04130000 		.4byte	0x1304
 2244 0b4e 02000000 		.4byte	.LBB163
 2245 0b52 60000000 		.4byte	.Ldebug_ranges0+0x60
 2246 0b56 0D       		.byte	0xd
 2247 0b57 6202     		.2byte	0x262
 2248 0b59 23       		.uleb128 0x23
 2249 0b5a 11130000 		.4byte	0x1311
 2250 0b5e A2000000 		.4byte	.LLST40
 2251 0b62 00       		.byte	0
 2252 0b63 00       		.byte	0
 2253 0b64 00       		.byte	0
 2254 0b65 27       		.uleb128 0x27
 2255 0b66 8A120000 		.4byte	0x128a
 2256 0b6a 16000000 		.4byte	.LBB169
 2257 0b6e 08000000 		.4byte	.LBE169-.LBB169
 2258 0b72 01       		.byte	0x1
 2259 0b73 8701     		.2byte	0x187
 2260 0b75 960B0000 		.4byte	0xb96
 2261 0b79 23       		.uleb128 0x23
 2262 0b7a 9B120000 		.4byte	0x129b
 2263 0b7e B7000000 		.4byte	.LLST41
 2264 0b82 28       		.uleb128 0x28
 2265 0b83 16000000 		.4byte	.LBB170
 2266 0b87 08000000 		.4byte	.LBE170-.LBB170
 2267 0b8b 29       		.uleb128 0x29
 2268 0b8c A7120000 		.4byte	0x12a7
 2269 0b90 D5000000 		.4byte	.LLST42
 2270 0b94 00       		.byte	0
 2271 0b95 00       		.byte	0
 2272 0b96 27       		.uleb128 0x27
 2273 0b97 37120000 		.4byte	0x1237
 2274 0b9b 48000000 		.4byte	.LBB176
 2275 0b9f 06000000 		.4byte	.LBE176-.LBB176
 2276 0ba3 01       		.byte	0x1
 2277 0ba4 9401     		.2byte	0x194
 2278 0ba6 E50B0000 		.4byte	0xbe5
 2279 0baa 28       		.uleb128 0x28
 2280 0bab 48000000 		.4byte	.LBB177
ARM GAS  /tmp/cczxrnjP.s 			page 41


 2281 0baf 06000000 		.4byte	.LBE177-.LBB177
 2282 0bb3 2A       		.uleb128 0x2a
 2283 0bb4 44120000 		.4byte	0x1244
 2284 0bb8 2B       		.uleb128 0x2b
 2285 0bb9 F2120000 		.4byte	0x12f2
 2286 0bbd 48000000 		.4byte	.LBB178
 2287 0bc1 06000000 		.4byte	.LBE178-.LBB178
 2288 0bc5 11       		.byte	0x11
 2289 0bc6 7A01     		.2byte	0x17a
 2290 0bc8 2B       		.uleb128 0x2b
 2291 0bc9 04130000 		.4byte	0x1304
 2292 0bcd 48000000 		.4byte	.LBB179
 2293 0bd1 06000000 		.4byte	.LBE179-.LBB179
 2294 0bd5 0D       		.byte	0xd
 2295 0bd6 7502     		.2byte	0x275
 2296 0bd8 23       		.uleb128 0x23
 2297 0bd9 11130000 		.4byte	0x1311
 2298 0bdd E8000000 		.4byte	.LLST46
 2299 0be1 00       		.byte	0
 2300 0be2 00       		.byte	0
 2301 0be3 00       		.byte	0
 2302 0be4 00       		.byte	0
 2303 0be5 2C       		.uleb128 0x2c
 2304 0be6 22000000 		.4byte	.LVL67
 2305 0bea 23140000 		.4byte	0x1423
 2306 0bee 2C       		.uleb128 0x2c
 2307 0bef 54000000 		.4byte	.LVL74
 2308 0bf3 2F140000 		.4byte	0x142f
 2309 0bf7 00       		.byte	0
 2310 0bf8 0C       		.uleb128 0xc
 2311 0bf9 04       		.byte	0x4
 2312 0bfa 8C080000 		.4byte	0x88c
 2313 0bfe 13       		.uleb128 0x13
 2314 0bff 4D070000 		.4byte	0x74d
 2315 0c03 0E0C0000 		.4byte	0xc0e
 2316 0c07 14       		.uleb128 0x14
 2317 0c08 67040000 		.4byte	0x467
 2318 0c0c 0F       		.byte	0xf
 2319 0c0d 00       		.byte	0
 2320 0c0e 05       		.uleb128 0x5
 2321 0c0f FE0B0000 		.4byte	0xbfe
 2322 0c13 2D       		.uleb128 0x2d
 2323 0c14 04010000 		.4byte	.LASF147
 2324 0c18 01       		.byte	0x1
 2325 0c19 5D01     		.2byte	0x15d
 2326 0c1b 00000000 		.4byte	.LFB299
 2327 0c1f 2A000000 		.4byte	.LFE299-.LFB299
 2328 0c23 01       		.uleb128 0x1
 2329 0c24 9C       		.byte	0x9c
 2330 0c25 8A0C0000 		.4byte	0xc8a
 2331 0c29 1E       		.uleb128 0x1e
 2332 0c2a 737000   		.ascii	"sp\000"
 2333 0c2d 01       		.byte	0x1
 2334 0c2e 5D01     		.2byte	0x15d
 2335 0c30 F80B0000 		.4byte	0xbf8
 2336 0c34 FC000000 		.4byte	.LLST33
 2337 0c38 1E       		.uleb128 0x1e
ARM GAS  /tmp/cczxrnjP.s 			page 42


 2338 0c39 6E00     		.ascii	"n\000"
 2339 0c3b 01       		.byte	0x1
 2340 0c3c 5D01     		.2byte	0x15d
 2341 0c3e 42010000 		.4byte	0x142
 2342 0c42 1A010000 		.4byte	.LLST34
 2343 0c46 20       		.uleb128 0x20
 2344 0c47 1E060000 		.4byte	.LASF146
 2345 0c4b 9A0C0000 		.4byte	0xc9a
 2346 0c4f 27       		.uleb128 0x27
 2347 0c50 8A120000 		.4byte	0x128a
 2348 0c54 18000000 		.4byte	.LBB159
 2349 0c58 08000000 		.4byte	.LBE159-.LBB159
 2350 0c5c 01       		.byte	0x1
 2351 0c5d 6701     		.2byte	0x167
 2352 0c5f 800C0000 		.4byte	0xc80
 2353 0c63 23       		.uleb128 0x23
 2354 0c64 9B120000 		.4byte	0x129b
 2355 0c68 38010000 		.4byte	.LLST35
 2356 0c6c 28       		.uleb128 0x28
 2357 0c6d 18000000 		.4byte	.LBB160
 2358 0c71 08000000 		.4byte	.LBE160-.LBB160
 2359 0c75 29       		.uleb128 0x29
 2360 0c76 A7120000 		.4byte	0x12a7
 2361 0c7a 4B010000 		.4byte	.LLST36
 2362 0c7e 00       		.byte	0
 2363 0c7f 00       		.byte	0
 2364 0c80 2C       		.uleb128 0x2c
 2365 0c81 24000000 		.4byte	.LVL60
 2366 0c85 23140000 		.4byte	0x1423
 2367 0c89 00       		.byte	0
 2368 0c8a 13       		.uleb128 0x13
 2369 0c8b 4D070000 		.4byte	0x74d
 2370 0c8f 9A0C0000 		.4byte	0xc9a
 2371 0c93 14       		.uleb128 0x14
 2372 0c94 67040000 		.4byte	0x467
 2373 0c98 10       		.byte	0x10
 2374 0c99 00       		.byte	0
 2375 0c9a 05       		.uleb128 0x5
 2376 0c9b 8A0C0000 		.4byte	0xc8a
 2377 0c9f 2D       		.uleb128 0x2d
 2378 0ca0 1A000000 		.4byte	.LASF148
 2379 0ca4 01       		.byte	0x1
 2380 0ca5 3F01     		.2byte	0x13f
 2381 0ca7 00000000 		.4byte	.LFB298
 2382 0cab 1E000000 		.4byte	.LFE298-.LFB298
 2383 0caf 01       		.uleb128 0x1
 2384 0cb0 9C       		.byte	0x9c
 2385 0cb1 1D0D0000 		.4byte	0xd1d
 2386 0cb5 1E       		.uleb128 0x1e
 2387 0cb6 737000   		.ascii	"sp\000"
 2388 0cb9 01       		.byte	0x1
 2389 0cba 3F01     		.2byte	0x13f
 2390 0cbc F80B0000 		.4byte	0xbf8
 2391 0cc0 5E010000 		.4byte	.LLST30
 2392 0cc4 20       		.uleb128 0x20
 2393 0cc5 1E060000 		.4byte	.LASF146
 2394 0cc9 2D0D0000 		.4byte	0xd2d
ARM GAS  /tmp/cczxrnjP.s 			page 43


 2395 0ccd 28       		.uleb128 0x28
 2396 0cce 0C000000 		.4byte	.LBB156
 2397 0cd2 12000000 		.4byte	.LBE156-.LBB156
 2398 0cd6 2E       		.uleb128 0x2e
 2399 0cd7 747000   		.ascii	"tp\000"
 2400 0cda 01       		.byte	0x1
 2401 0cdb 4A01     		.2byte	0x14a
 2402 0cdd 4C020000 		.4byte	0x24c
 2403 0ce1 27       		.uleb128 0x27
 2404 0ce2 8A120000 		.4byte	0x128a
 2405 0ce6 0C000000 		.4byte	.LBB157
 2406 0cea 08000000 		.4byte	.LBE157-.LBB157
 2407 0cee 01       		.byte	0x1
 2408 0cef 4A01     		.2byte	0x14a
 2409 0cf1 120D0000 		.4byte	0xd12
 2410 0cf5 23       		.uleb128 0x23
 2411 0cf6 9B120000 		.4byte	0x129b
 2412 0cfa A1010000 		.4byte	.LLST31
 2413 0cfe 28       		.uleb128 0x28
 2414 0cff 0C000000 		.4byte	.LBB158
 2415 0d03 08000000 		.4byte	.LBE158-.LBB158
 2416 0d07 29       		.uleb128 0x29
 2417 0d08 A7120000 		.4byte	0x12a7
 2418 0d0c BF010000 		.4byte	.LLST32
 2419 0d10 00       		.byte	0
 2420 0d11 00       		.byte	0
 2421 0d12 2F       		.uleb128 0x2f
 2422 0d13 1C000000 		.4byte	.LVL53
 2423 0d17 23140000 		.4byte	0x1423
 2424 0d1b 00       		.byte	0
 2425 0d1c 00       		.byte	0
 2426 0d1d 13       		.uleb128 0x13
 2427 0d1e 4D070000 		.4byte	0x74d
 2428 0d22 2D0D0000 		.4byte	0xd2d
 2429 0d26 14       		.uleb128 0x14
 2430 0d27 67040000 		.4byte	0x467
 2431 0d2b 0C       		.byte	0xc
 2432 0d2c 00       		.byte	0
 2433 0d2d 05       		.uleb128 0x5
 2434 0d2e 1D0D0000 		.4byte	0xd1d
 2435 0d32 2D       		.uleb128 0x2d
 2436 0d33 DC000000 		.4byte	.LASF149
 2437 0d37 01       		.byte	0x1
 2438 0d38 2601     		.2byte	0x126
 2439 0d3a 00000000 		.4byte	.LFB297
 2440 0d3e 2A000000 		.4byte	.LFE297-.LFB297
 2441 0d42 01       		.uleb128 0x1
 2442 0d43 9C       		.byte	0x9c
 2443 0d44 2C0E0000 		.4byte	0xe2c
 2444 0d48 1E       		.uleb128 0x1e
 2445 0d49 737000   		.ascii	"sp\000"
 2446 0d4c 01       		.byte	0x1
 2447 0d4d 2601     		.2byte	0x126
 2448 0d4f F80B0000 		.4byte	0xbf8
 2449 0d53 D2010000 		.4byte	.LLST25
 2450 0d57 20       		.uleb128 0x20
 2451 0d58 1E060000 		.4byte	.LASF146
ARM GAS  /tmp/cczxrnjP.s 			page 44


 2452 0d5c 3C0E0000 		.4byte	0xe3c
 2453 0d60 22       		.uleb128 0x22
 2454 0d61 52120000 		.4byte	0x1252
 2455 0d65 02000000 		.4byte	.LBB139
 2456 0d69 30000000 		.4byte	.Ldebug_ranges0+0x30
 2457 0d6d 01       		.byte	0x1
 2458 0d6e 2A01     		.2byte	0x12a
 2459 0d70 A00D0000 		.4byte	0xda0
 2460 0d74 26       		.uleb128 0x26
 2461 0d75 FB120000 		.4byte	0x12fb
 2462 0d79 02000000 		.4byte	.LBB140
 2463 0d7d 30000000 		.4byte	.Ldebug_ranges0+0x30
 2464 0d81 11       		.byte	0x11
 2465 0d82 6301     		.2byte	0x163
 2466 0d84 26       		.uleb128 0x26
 2467 0d85 04130000 		.4byte	0x1304
 2468 0d89 02000000 		.4byte	.LBB141
 2469 0d8d 30000000 		.4byte	.Ldebug_ranges0+0x30
 2470 0d91 0D       		.byte	0xd
 2471 0d92 6202     		.2byte	0x262
 2472 0d94 23       		.uleb128 0x23
 2473 0d95 11130000 		.4byte	0x1311
 2474 0d99 FE010000 		.4byte	.LLST26
 2475 0d9d 00       		.byte	0
 2476 0d9e 00       		.byte	0
 2477 0d9f 00       		.byte	0
 2478 0da0 22       		.uleb128 0x22
 2479 0da1 8A120000 		.4byte	0x128a
 2480 0da5 14000000 		.4byte	.LBB147
 2481 0da9 48000000 		.4byte	.Ldebug_ranges0+0x48
 2482 0dad 01       		.byte	0x1
 2483 0dae 2F01     		.2byte	0x12f
 2484 0db0 CD0D0000 		.4byte	0xdcd
 2485 0db4 23       		.uleb128 0x23
 2486 0db5 9B120000 		.4byte	0x129b
 2487 0db9 13020000 		.4byte	.LLST27
 2488 0dbd 30       		.uleb128 0x30
 2489 0dbe 48000000 		.4byte	.Ldebug_ranges0+0x48
 2490 0dc2 29       		.uleb128 0x29
 2491 0dc3 A7120000 		.4byte	0x12a7
 2492 0dc7 31020000 		.4byte	.LLST28
 2493 0dcb 00       		.byte	0
 2494 0dcc 00       		.byte	0
 2495 0dcd 27       		.uleb128 0x27
 2496 0dce 37120000 		.4byte	0x1237
 2497 0dd2 22000000 		.4byte	.LBB151
 2498 0dd6 08000000 		.4byte	.LBE151-.LBB151
 2499 0dda 01       		.byte	0x1
 2500 0ddb 3101     		.2byte	0x131
 2501 0ddd 1C0E0000 		.4byte	0xe1c
 2502 0de1 28       		.uleb128 0x28
 2503 0de2 22000000 		.4byte	.LBB152
 2504 0de6 08000000 		.4byte	.LBE152-.LBB152
 2505 0dea 2A       		.uleb128 0x2a
 2506 0deb 44120000 		.4byte	0x1244
 2507 0def 2B       		.uleb128 0x2b
 2508 0df0 F2120000 		.4byte	0x12f2
ARM GAS  /tmp/cczxrnjP.s 			page 45


 2509 0df4 22000000 		.4byte	.LBB153
 2510 0df8 08000000 		.4byte	.LBE153-.LBB153
 2511 0dfc 11       		.byte	0x11
 2512 0dfd 7A01     		.2byte	0x17a
 2513 0dff 2B       		.uleb128 0x2b
 2514 0e00 04130000 		.4byte	0x1304
 2515 0e04 22000000 		.4byte	.LBB154
 2516 0e08 08000000 		.4byte	.LBE154-.LBB154
 2517 0e0c 0D       		.byte	0xd
 2518 0e0d 7502     		.2byte	0x275
 2519 0e0f 23       		.uleb128 0x23
 2520 0e10 11130000 		.4byte	0x1311
 2521 0e14 44020000 		.4byte	.LLST29
 2522 0e18 00       		.byte	0
 2523 0e19 00       		.byte	0
 2524 0e1a 00       		.byte	0
 2525 0e1b 00       		.byte	0
 2526 0e1c 24       		.uleb128 0x24
 2527 0e1d 22000000 		.4byte	.LVL45
 2528 0e21 3B140000 		.4byte	0x143b
 2529 0e25 25       		.uleb128 0x25
 2530 0e26 01       		.uleb128 0x1
 2531 0e27 51       		.byte	0x51
 2532 0e28 01       		.uleb128 0x1
 2533 0e29 30       		.byte	0x30
 2534 0e2a 00       		.byte	0
 2535 0e2b 00       		.byte	0
 2536 0e2c 13       		.uleb128 0x13
 2537 0e2d 4D070000 		.4byte	0x74d
 2538 0e31 3C0E0000 		.4byte	0xe3c
 2539 0e35 14       		.uleb128 0x14
 2540 0e36 67040000 		.4byte	0x467
 2541 0e3a 0B       		.byte	0xb
 2542 0e3b 00       		.byte	0
 2543 0e3c 05       		.uleb128 0x5
 2544 0e3d 2C0E0000 		.4byte	0xe2c
 2545 0e41 31       		.uleb128 0x31
 2546 0e42 F3060000 		.4byte	.LASF153
 2547 0e46 01       		.byte	0x1
 2548 0e47 0801     		.2byte	0x108
 2549 0e49 2C010000 		.4byte	0x12c
 2550 0e4d 01       		.byte	0x1
 2551 0e4e 770E0000 		.4byte	0xe77
 2552 0e52 32       		.uleb128 0x32
 2553 0e53 737000   		.ascii	"sp\000"
 2554 0e56 01       		.byte	0x1
 2555 0e57 0801     		.2byte	0x108
 2556 0e59 F80B0000 		.4byte	0xbf8
 2557 0e5d 33       		.uleb128 0x33
 2558 0e5e E0030000 		.4byte	.LASF150
 2559 0e62 01       		.byte	0x1
 2560 0e63 0801     		.2byte	0x108
 2561 0e65 5C040000 		.4byte	0x45c
 2562 0e69 34       		.uleb128 0x34
 2563 0e6a 1E060000 		.4byte	.LASF146
 2564 0e6e 870E0000 		.4byte	0xe87
 2565 0e72 F3060000 		.4byte	.LASF153
ARM GAS  /tmp/cczxrnjP.s 			page 46


 2566 0e76 00       		.byte	0
 2567 0e77 13       		.uleb128 0x13
 2568 0e78 4D070000 		.4byte	0x74d
 2569 0e7c 870E0000 		.4byte	0xe87
 2570 0e80 14       		.uleb128 0x14
 2571 0e81 67040000 		.4byte	0x467
 2572 0e85 11       		.byte	0x11
 2573 0e86 00       		.byte	0
 2574 0e87 05       		.uleb128 0x5
 2575 0e88 770E0000 		.4byte	0xe77
 2576 0e8c 35       		.uleb128 0x35
 2577 0e8d 95030000 		.4byte	.LASF152
 2578 0e91 01       		.byte	0x1
 2579 0e92 EB       		.byte	0xeb
 2580 0e93 2C010000 		.4byte	0x12c
 2581 0e97 00000000 		.4byte	.LFB295
 2582 0e9b 14000000 		.4byte	.LFE295-.LFB295
 2583 0e9f 01       		.uleb128 0x1
 2584 0ea0 9C       		.byte	0x9c
 2585 0ea1 750F0000 		.4byte	0xf75
 2586 0ea5 36       		.uleb128 0x36
 2587 0ea6 737000   		.ascii	"sp\000"
 2588 0ea9 01       		.byte	0x1
 2589 0eaa EB       		.byte	0xeb
 2590 0eab F80B0000 		.4byte	0xbf8
 2591 0eaf 58020000 		.4byte	.LLST21
 2592 0eb3 37       		.uleb128 0x37
 2593 0eb4 E0030000 		.4byte	.LASF150
 2594 0eb8 01       		.byte	0x1
 2595 0eb9 EB       		.byte	0xeb
 2596 0eba 5C040000 		.4byte	0x45c
 2597 0ebe 79020000 		.4byte	.LLST22
 2598 0ec2 38       		.uleb128 0x38
 2599 0ec3 6D736700 		.ascii	"msg\000"
 2600 0ec7 01       		.byte	0x1
 2601 0ec8 EC       		.byte	0xec
 2602 0ec9 2C010000 		.4byte	0x12c
 2603 0ecd 01       		.uleb128 0x1
 2604 0ece 50       		.byte	0x50
 2605 0ecf 39       		.uleb128 0x39
 2606 0ed0 52120000 		.4byte	0x1252
 2607 0ed4 02000000 		.4byte	.LBB130
 2608 0ed8 06000000 		.4byte	.LBE130-.LBB130
 2609 0edc 01       		.byte	0x1
 2610 0edd EE       		.byte	0xee
 2611 0ede 0E0F0000 		.4byte	0xf0e
 2612 0ee2 2B       		.uleb128 0x2b
 2613 0ee3 FB120000 		.4byte	0x12fb
 2614 0ee7 02000000 		.4byte	.LBB131
 2615 0eeb 06000000 		.4byte	.LBE131-.LBB131
 2616 0eef 11       		.byte	0x11
 2617 0ef0 6301     		.2byte	0x163
 2618 0ef2 2B       		.uleb128 0x2b
 2619 0ef3 04130000 		.4byte	0x1304
 2620 0ef7 02000000 		.4byte	.LBB132
 2621 0efb 06000000 		.4byte	.LBE132-.LBB132
 2622 0eff 0D       		.byte	0xd
ARM GAS  /tmp/cczxrnjP.s 			page 47


 2623 0f00 6202     		.2byte	0x262
 2624 0f02 23       		.uleb128 0x23
 2625 0f03 11130000 		.4byte	0x1311
 2626 0f07 9A020000 		.4byte	.LLST23
 2627 0f0b 00       		.byte	0
 2628 0f0c 00       		.byte	0
 2629 0f0d 00       		.byte	0
 2630 0f0e 39       		.uleb128 0x39
 2631 0f0f 37120000 		.4byte	0x1237
 2632 0f13 0C000000 		.4byte	.LBB134
 2633 0f17 06000000 		.4byte	.LBE134-.LBB134
 2634 0f1b 01       		.byte	0x1
 2635 0f1c F0       		.byte	0xf0
 2636 0f1d 5C0F0000 		.4byte	0xf5c
 2637 0f21 28       		.uleb128 0x28
 2638 0f22 0C000000 		.4byte	.LBB135
 2639 0f26 06000000 		.4byte	.LBE135-.LBB135
 2640 0f2a 2A       		.uleb128 0x2a
 2641 0f2b 44120000 		.4byte	0x1244
 2642 0f2f 2B       		.uleb128 0x2b
 2643 0f30 F2120000 		.4byte	0x12f2
 2644 0f34 0C000000 		.4byte	.LBB136
 2645 0f38 06000000 		.4byte	.LBE136-.LBB136
 2646 0f3c 11       		.byte	0x11
 2647 0f3d 7A01     		.2byte	0x17a
 2648 0f3f 2B       		.uleb128 0x2b
 2649 0f40 04130000 		.4byte	0x1304
 2650 0f44 0C000000 		.4byte	.LBB137
 2651 0f48 06000000 		.4byte	.LBE137-.LBB137
 2652 0f4c 0D       		.byte	0xd
 2653 0f4d 7502     		.2byte	0x275
 2654 0f4f 23       		.uleb128 0x23
 2655 0f50 11130000 		.4byte	0x1311
 2656 0f54 AF020000 		.4byte	.LLST24
 2657 0f58 00       		.byte	0
 2658 0f59 00       		.byte	0
 2659 0f5a 00       		.byte	0
 2660 0f5b 00       		.byte	0
 2661 0f5c 24       		.uleb128 0x24
 2662 0f5d 0C000000 		.4byte	.LVL38
 2663 0f61 410E0000 		.4byte	0xe41
 2664 0f65 25       		.uleb128 0x25
 2665 0f66 01       		.uleb128 0x1
 2666 0f67 50       		.byte	0x50
 2667 0f68 03       		.uleb128 0x3
 2668 0f69 F3       		.byte	0xf3
 2669 0f6a 01       		.uleb128 0x1
 2670 0f6b 50       		.byte	0x50
 2671 0f6c 25       		.uleb128 0x25
 2672 0f6d 01       		.uleb128 0x1
 2673 0f6e 51       		.byte	0x51
 2674 0f6f 03       		.uleb128 0x3
 2675 0f70 F3       		.byte	0xf3
 2676 0f71 01       		.uleb128 0x1
 2677 0f72 51       		.byte	0x51
 2678 0f73 00       		.byte	0
 2679 0f74 00       		.byte	0
ARM GAS  /tmp/cczxrnjP.s 			page 48


 2680 0f75 3A       		.uleb128 0x3a
 2681 0f76 32060000 		.4byte	.LASF154
 2682 0f7a 01       		.byte	0x1
 2683 0f7b C5       		.byte	0xc5
 2684 0f7c 2C010000 		.4byte	0x12c
 2685 0f80 01       		.byte	0x1
 2686 0f81 9D0F0000 		.4byte	0xf9d
 2687 0f85 3B       		.uleb128 0x3b
 2688 0f86 737000   		.ascii	"sp\000"
 2689 0f89 01       		.byte	0x1
 2690 0f8a C5       		.byte	0xc5
 2691 0f8b F80B0000 		.4byte	0xbf8
 2692 0f8f 34       		.uleb128 0x34
 2693 0f90 1E060000 		.4byte	.LASF146
 2694 0f94 AD0F0000 		.4byte	0xfad
 2695 0f98 32060000 		.4byte	.LASF154
 2696 0f9c 00       		.byte	0
 2697 0f9d 13       		.uleb128 0x13
 2698 0f9e 4D070000 		.4byte	0x74d
 2699 0fa2 AD0F0000 		.4byte	0xfad
 2700 0fa6 14       		.uleb128 0x14
 2701 0fa7 67040000 		.4byte	0x467
 2702 0fab 0A       		.byte	0xa
 2703 0fac 00       		.byte	0
 2704 0fad 05       		.uleb128 0x5
 2705 0fae 9D0F0000 		.4byte	0xf9d
 2706 0fb2 35       		.uleb128 0x35
 2707 0fb3 57070000 		.4byte	.LASF155
 2708 0fb7 01       		.byte	0x1
 2709 0fb8 AF       		.byte	0xaf
 2710 0fb9 2C010000 		.4byte	0x12c
 2711 0fbd 00000000 		.4byte	.LFB293
 2712 0fc1 14000000 		.4byte	.LFE293-.LFB293
 2713 0fc5 01       		.uleb128 0x1
 2714 0fc6 9C       		.byte	0x9c
 2715 0fc7 85100000 		.4byte	0x1085
 2716 0fcb 36       		.uleb128 0x36
 2717 0fcc 737000   		.ascii	"sp\000"
 2718 0fcf 01       		.byte	0x1
 2719 0fd0 AF       		.byte	0xaf
 2720 0fd1 F80B0000 		.4byte	0xbf8
 2721 0fd5 C3020000 		.4byte	.LLST13
 2722 0fd9 38       		.uleb128 0x38
 2723 0fda 6D736700 		.ascii	"msg\000"
 2724 0fde 01       		.byte	0x1
 2725 0fdf B0       		.byte	0xb0
 2726 0fe0 2C010000 		.4byte	0x12c
 2727 0fe4 01       		.uleb128 0x1
 2728 0fe5 50       		.byte	0x50
 2729 0fe6 39       		.uleb128 0x39
 2730 0fe7 52120000 		.4byte	0x1252
 2731 0feb 02000000 		.4byte	.LBB109
 2732 0fef 06000000 		.4byte	.LBE109-.LBB109
 2733 0ff3 01       		.byte	0x1
 2734 0ff4 B2       		.byte	0xb2
 2735 0ff5 25100000 		.4byte	0x1025
 2736 0ff9 2B       		.uleb128 0x2b
ARM GAS  /tmp/cczxrnjP.s 			page 49


 2737 0ffa FB120000 		.4byte	0x12fb
 2738 0ffe 02000000 		.4byte	.LBB110
 2739 1002 06000000 		.4byte	.LBE110-.LBB110
 2740 1006 11       		.byte	0x11
 2741 1007 6301     		.2byte	0x163
 2742 1009 2B       		.uleb128 0x2b
 2743 100a 04130000 		.4byte	0x1304
 2744 100e 02000000 		.4byte	.LBB111
 2745 1012 06000000 		.4byte	.LBE111-.LBB111
 2746 1016 0D       		.byte	0xd
 2747 1017 6202     		.2byte	0x262
 2748 1019 23       		.uleb128 0x23
 2749 101a 11130000 		.4byte	0x1311
 2750 101e E4020000 		.4byte	.LLST14
 2751 1022 00       		.byte	0
 2752 1023 00       		.byte	0
 2753 1024 00       		.byte	0
 2754 1025 39       		.uleb128 0x39
 2755 1026 37120000 		.4byte	0x1237
 2756 102a 0C000000 		.4byte	.LBB113
 2757 102e 06000000 		.4byte	.LBE113-.LBB113
 2758 1032 01       		.byte	0x1
 2759 1033 B4       		.byte	0xb4
 2760 1034 73100000 		.4byte	0x1073
 2761 1038 28       		.uleb128 0x28
 2762 1039 0C000000 		.4byte	.LBB114
 2763 103d 06000000 		.4byte	.LBE114-.LBB114
 2764 1041 2A       		.uleb128 0x2a
 2765 1042 44120000 		.4byte	0x1244
 2766 1046 2B       		.uleb128 0x2b
 2767 1047 F2120000 		.4byte	0x12f2
 2768 104b 0C000000 		.4byte	.LBB115
 2769 104f 06000000 		.4byte	.LBE115-.LBB115
 2770 1053 11       		.byte	0x11
 2771 1054 7A01     		.2byte	0x17a
 2772 1056 2B       		.uleb128 0x2b
 2773 1057 04130000 		.4byte	0x1304
 2774 105b 0C000000 		.4byte	.LBB116
 2775 105f 06000000 		.4byte	.LBE116-.LBB116
 2776 1063 0D       		.byte	0xd
 2777 1064 7502     		.2byte	0x275
 2778 1066 23       		.uleb128 0x23
 2779 1067 11130000 		.4byte	0x1311
 2780 106b F9020000 		.4byte	.LLST15
 2781 106f 00       		.byte	0
 2782 1070 00       		.byte	0
 2783 1071 00       		.byte	0
 2784 1072 00       		.byte	0
 2785 1073 24       		.uleb128 0x24
 2786 1074 0C000000 		.4byte	.LVL26
 2787 1078 750F0000 		.4byte	0xf75
 2788 107c 25       		.uleb128 0x25
 2789 107d 01       		.uleb128 0x1
 2790 107e 50       		.byte	0x50
 2791 107f 03       		.uleb128 0x3
 2792 1080 F3       		.byte	0xf3
 2793 1081 01       		.uleb128 0x1
ARM GAS  /tmp/cczxrnjP.s 			page 50


 2794 1082 50       		.byte	0x50
 2795 1083 00       		.byte	0
 2796 1084 00       		.byte	0
 2797 1085 3C       		.uleb128 0x3c
 2798 1086 FB070000 		.4byte	.LASF156
 2799 108a 01       		.byte	0x1
 2800 108b 93       		.byte	0x93
 2801 108c 00000000 		.4byte	.LFB292
 2802 1090 24000000 		.4byte	.LFE292-.LFB292
 2803 1094 01       		.uleb128 0x1
 2804 1095 9C       		.byte	0x9c
 2805 1096 05110000 		.4byte	0x1105
 2806 109a 36       		.uleb128 0x36
 2807 109b 737000   		.ascii	"sp\000"
 2808 109e 01       		.byte	0x1
 2809 109f 93       		.byte	0x93
 2810 10a0 F80B0000 		.4byte	0xbf8
 2811 10a4 0D030000 		.4byte	.LLST1
 2812 10a8 36       		.uleb128 0x36
 2813 10a9 6E00     		.ascii	"n\000"
 2814 10ab 01       		.byte	0x1
 2815 10ac 93       		.byte	0x93
 2816 10ad 42010000 		.4byte	0x142
 2817 10b1 2B030000 		.4byte	.LLST2
 2818 10b5 38       		.uleb128 0x38
 2819 10b6 636E7400 		.ascii	"cnt\000"
 2820 10ba 01       		.byte	0x1
 2821 10bb 94       		.byte	0x94
 2822 10bc 42010000 		.4byte	0x142
 2823 10c0 01       		.uleb128 0x1
 2824 10c1 55       		.byte	0x55
 2825 10c2 20       		.uleb128 0x20
 2826 10c3 1E060000 		.4byte	.LASF146
 2827 10c7 3C0E0000 		.4byte	0xe3c
 2828 10cb 39       		.uleb128 0x39
 2829 10cc 5B120000 		.4byte	0x125b
 2830 10d0 14000000 		.4byte	.LBB90
 2831 10d4 08000000 		.4byte	.LBE90-.LBB90
 2832 10d8 01       		.byte	0x1
 2833 10d9 9F       		.byte	0x9f
 2834 10da FB100000 		.4byte	0x10fb
 2835 10de 23       		.uleb128 0x23
 2836 10df 6C120000 		.4byte	0x126c
 2837 10e3 4C030000 		.4byte	.LLST3
 2838 10e7 28       		.uleb128 0x28
 2839 10e8 14000000 		.4byte	.LBB91
 2840 10ec 08000000 		.4byte	.LBE91-.LBB91
 2841 10f0 29       		.uleb128 0x29
 2842 10f1 78120000 		.4byte	0x1278
 2843 10f5 5F030000 		.4byte	.LLST4
 2844 10f9 00       		.byte	0
 2845 10fa 00       		.byte	0
 2846 10fb 2C       		.uleb128 0x2c
 2847 10fc 20000000 		.4byte	.LVL9
 2848 1100 23140000 		.4byte	0x1423
 2849 1104 00       		.byte	0
 2850 1105 3C       		.uleb128 0x3c
ARM GAS  /tmp/cczxrnjP.s 			page 51


 2851 1106 CC030000 		.4byte	.LASF157
 2852 110a 01       		.byte	0x1
 2853 110b 78       		.byte	0x78
 2854 110c 00000000 		.4byte	.LFB291
 2855 1110 18000000 		.4byte	.LFE291-.LFB291
 2856 1114 01       		.uleb128 0x1
 2857 1115 9C       		.byte	0x9c
 2858 1116 E8110000 		.4byte	0x11e8
 2859 111a 36       		.uleb128 0x36
 2860 111b 737000   		.ascii	"sp\000"
 2861 111e 01       		.byte	0x1
 2862 111f 78       		.byte	0x78
 2863 1120 F80B0000 		.4byte	0xbf8
 2864 1124 72030000 		.4byte	.LLST5
 2865 1128 36       		.uleb128 0x36
 2866 1129 6E00     		.ascii	"n\000"
 2867 112b 01       		.byte	0x1
 2868 112c 78       		.byte	0x78
 2869 112d 42010000 		.4byte	0x142
 2870 1131 93030000 		.4byte	.LLST6
 2871 1135 39       		.uleb128 0x39
 2872 1136 52120000 		.4byte	0x1252
 2873 113a 02000000 		.4byte	.LBB92
 2874 113e 06000000 		.4byte	.LBE92-.LBB92
 2875 1142 01       		.byte	0x1
 2876 1143 7A       		.byte	0x7a
 2877 1144 74110000 		.4byte	0x1174
 2878 1148 2B       		.uleb128 0x2b
 2879 1149 FB120000 		.4byte	0x12fb
 2880 114d 02000000 		.4byte	.LBB93
 2881 1151 06000000 		.4byte	.LBE93-.LBB93
 2882 1155 11       		.byte	0x11
 2883 1156 6301     		.2byte	0x163
 2884 1158 2B       		.uleb128 0x2b
 2885 1159 04130000 		.4byte	0x1304
 2886 115d 02000000 		.4byte	.LBB94
 2887 1161 06000000 		.4byte	.LBE94-.LBB94
 2888 1165 0D       		.byte	0xd
 2889 1166 6202     		.2byte	0x262
 2890 1168 23       		.uleb128 0x23
 2891 1169 11130000 		.4byte	0x1311
 2892 116d B4030000 		.4byte	.LLST7
 2893 1171 00       		.byte	0
 2894 1172 00       		.byte	0
 2895 1173 00       		.byte	0
 2896 1174 39       		.uleb128 0x39
 2897 1175 37120000 		.4byte	0x1237
 2898 1179 10000000 		.4byte	.LBB96
 2899 117d 08000000 		.4byte	.LBE96-.LBB96
 2900 1181 01       		.byte	0x1
 2901 1182 7D       		.byte	0x7d
 2902 1183 C2110000 		.4byte	0x11c2
 2903 1187 28       		.uleb128 0x28
 2904 1188 10000000 		.4byte	.LBB97
 2905 118c 08000000 		.4byte	.LBE97-.LBB97
 2906 1190 2A       		.uleb128 0x2a
 2907 1191 44120000 		.4byte	0x1244
ARM GAS  /tmp/cczxrnjP.s 			page 52


 2908 1195 2B       		.uleb128 0x2b
 2909 1196 F2120000 		.4byte	0x12f2
 2910 119a 10000000 		.4byte	.LBB98
 2911 119e 08000000 		.4byte	.LBE98-.LBB98
 2912 11a2 11       		.byte	0x11
 2913 11a3 7A01     		.2byte	0x17a
 2914 11a5 2B       		.uleb128 0x2b
 2915 11a6 04130000 		.4byte	0x1304
 2916 11aa 10000000 		.4byte	.LBB99
 2917 11ae 08000000 		.4byte	.LBE99-.LBB99
 2918 11b2 0D       		.byte	0xd
 2919 11b3 7502     		.2byte	0x275
 2920 11b5 23       		.uleb128 0x23
 2921 11b6 11130000 		.4byte	0x1311
 2922 11ba C9030000 		.4byte	.LLST8
 2923 11be 00       		.byte	0
 2924 11bf 00       		.byte	0
 2925 11c0 00       		.byte	0
 2926 11c1 00       		.byte	0
 2927 11c2 3D       		.uleb128 0x3d
 2928 11c3 0C000000 		.4byte	.LVL12
 2929 11c7 85100000 		.4byte	0x1085
 2930 11cb DE110000 		.4byte	0x11de
 2931 11cf 25       		.uleb128 0x25
 2932 11d0 01       		.uleb128 0x1
 2933 11d1 50       		.byte	0x50
 2934 11d2 03       		.uleb128 0x3
 2935 11d3 F3       		.byte	0xf3
 2936 11d4 01       		.uleb128 0x1
 2937 11d5 50       		.byte	0x50
 2938 11d6 25       		.uleb128 0x25
 2939 11d7 01       		.uleb128 0x1
 2940 11d8 51       		.byte	0x51
 2941 11d9 03       		.uleb128 0x3
 2942 11da F3       		.byte	0xf3
 2943 11db 01       		.uleb128 0x1
 2944 11dc 51       		.byte	0x51
 2945 11dd 00       		.byte	0
 2946 11de 2C       		.uleb128 0x2c
 2947 11df 10000000 		.4byte	.LVL13
 2948 11e3 2F140000 		.4byte	0x142f
 2949 11e7 00       		.byte	0
 2950 11e8 3C       		.uleb128 0x3c
 2951 11e9 72030000 		.4byte	.LASF158
 2952 11ed 01       		.byte	0x1
 2953 11ee 61       		.byte	0x61
 2954 11ef 00000000 		.4byte	.LFB290
 2955 11f3 08000000 		.4byte	.LFE290-.LFB290
 2956 11f7 01       		.uleb128 0x1
 2957 11f8 9C       		.byte	0x9c
 2958 11f9 37120000 		.4byte	0x1237
 2959 11fd 3E       		.uleb128 0x3e
 2960 11fe 737000   		.ascii	"sp\000"
 2961 1201 01       		.byte	0x1
 2962 1202 61       		.byte	0x61
 2963 1203 F80B0000 		.4byte	0xbf8
 2964 1207 01       		.uleb128 0x1
ARM GAS  /tmp/cczxrnjP.s 			page 53


 2965 1208 50       		.byte	0x50
 2966 1209 3E       		.uleb128 0x3e
 2967 120a 6E00     		.ascii	"n\000"
 2968 120c 01       		.byte	0x1
 2969 120d 61       		.byte	0x61
 2970 120e 42010000 		.4byte	0x142
 2971 1212 01       		.uleb128 0x1
 2972 1213 51       		.byte	0x51
 2973 1214 20       		.uleb128 0x20
 2974 1215 1E060000 		.4byte	.LASF146
 2975 1219 0E0C0000 		.4byte	0xc0e
 2976 121d 3F       		.uleb128 0x3f
 2977 121e D8120000 		.4byte	0x12d8
 2978 1222 00000000 		.4byte	.LBB88
 2979 1226 04000000 		.4byte	.LBE88-.LBB88
 2980 122a 01       		.byte	0x1
 2981 122b 65       		.byte	0x65
 2982 122c 23       		.uleb128 0x23
 2983 122d E5120000 		.4byte	0x12e5
 2984 1231 DD030000 		.4byte	.LLST0
 2985 1235 00       		.byte	0
 2986 1236 00       		.byte	0
 2987 1237 40       		.uleb128 0x40
 2988 1238 5D080000 		.4byte	.LASF159
 2989 123c 11       		.byte	0x11
 2990 123d 6D01     		.2byte	0x16d
 2991 123f 03       		.byte	0x3
 2992 1240 52120000 		.4byte	0x1252
 2993 1244 34       		.uleb128 0x34
 2994 1245 1E060000 		.4byte	.LASF146
 2995 1249 3C0E0000 		.4byte	0xe3c
 2996 124d 5D080000 		.4byte	.LASF159
 2997 1251 00       		.byte	0
 2998 1252 41       		.uleb128 0x41
 2999 1253 28050000 		.4byte	.LASF164
 3000 1257 11       		.byte	0x11
 3001 1258 6101     		.2byte	0x161
 3002 125a 03       		.byte	0x3
 3003 125b 42       		.uleb128 0x42
 3004 125c CA000000 		.4byte	.LASF160
 3005 1260 02       		.byte	0x2
 3006 1261 6702     		.2byte	0x267
 3007 1263 4C020000 		.4byte	0x24c
 3008 1267 03       		.byte	0x3
 3009 1268 84120000 		.4byte	0x1284
 3010 126c 32       		.uleb128 0x32
 3011 126d 74717000 		.ascii	"tqp\000"
 3012 1271 02       		.byte	0x2
 3013 1272 6702     		.2byte	0x267
 3014 1274 84120000 		.4byte	0x1284
 3015 1278 2E       		.uleb128 0x2e
 3016 1279 747000   		.ascii	"tp\000"
 3017 127c 02       		.byte	0x2
 3018 127d 6802     		.2byte	0x268
 3019 127f 4C020000 		.4byte	0x24c
 3020 1283 00       		.byte	0
 3021 1284 0C       		.uleb128 0xc
ARM GAS  /tmp/cczxrnjP.s 			page 54


 3022 1285 04       		.byte	0x4
 3023 1286 76020000 		.4byte	0x276
 3024 128a 42       		.uleb128 0x42
 3025 128b 24070000 		.4byte	.LASF161
 3026 128f 02       		.byte	0x2
 3027 1290 5E02     		.2byte	0x25e
 3028 1292 4C020000 		.4byte	0x24c
 3029 1296 03       		.byte	0x3
 3030 1297 B3120000 		.4byte	0x12b3
 3031 129b 32       		.uleb128 0x32
 3032 129c 74717000 		.ascii	"tqp\000"
 3033 12a0 02       		.byte	0x2
 3034 12a1 5E02     		.2byte	0x25e
 3035 12a3 84120000 		.4byte	0x1284
 3036 12a7 2E       		.uleb128 0x2e
 3037 12a8 747000   		.ascii	"tp\000"
 3038 12ab 02       		.byte	0x2
 3039 12ac 5F02     		.2byte	0x25f
 3040 12ae 4C020000 		.4byte	0x24c
 3041 12b2 00       		.byte	0
 3042 12b3 40       		.uleb128 0x40
 3043 12b4 0D000000 		.4byte	.LASF162
 3044 12b8 02       		.byte	0x2
 3045 12b9 5602     		.2byte	0x256
 3046 12bb 03       		.byte	0x3
 3047 12bc D8120000 		.4byte	0x12d8
 3048 12c0 32       		.uleb128 0x32
 3049 12c1 747000   		.ascii	"tp\000"
 3050 12c4 02       		.byte	0x2
 3051 12c5 5602     		.2byte	0x256
 3052 12c7 4C020000 		.4byte	0x24c
 3053 12cb 32       		.uleb128 0x32
 3054 12cc 74717000 		.ascii	"tqp\000"
 3055 12d0 02       		.byte	0x2
 3056 12d1 5602     		.2byte	0x256
 3057 12d3 84120000 		.4byte	0x1284
 3058 12d7 00       		.byte	0
 3059 12d8 40       		.uleb128 0x40
 3060 12d9 9F000000 		.4byte	.LASF163
 3061 12dd 02       		.byte	0x2
 3062 12de 1902     		.2byte	0x219
 3063 12e0 03       		.byte	0x3
 3064 12e1 F2120000 		.4byte	0x12f2
 3065 12e5 32       		.uleb128 0x32
 3066 12e6 74717000 		.ascii	"tqp\000"
 3067 12ea 02       		.byte	0x2
 3068 12eb 1902     		.2byte	0x219
 3069 12ed 84120000 		.4byte	0x1284
 3070 12f1 00       		.byte	0
 3071 12f2 41       		.uleb128 0x41
 3072 12f3 B1020000 		.4byte	.LASF165
 3073 12f7 0D       		.byte	0xd
 3074 12f8 7202     		.2byte	0x272
 3075 12fa 03       		.byte	0x3
 3076 12fb 41       		.uleb128 0x41
 3077 12fc B3000000 		.4byte	.LASF166
 3078 1300 0D       		.byte	0xd
ARM GAS  /tmp/cczxrnjP.s 			page 55


 3079 1301 5A02     		.2byte	0x25a
 3080 1303 03       		.byte	0x3
 3081 1304 40       		.uleb128 0x40
 3082 1305 49070000 		.4byte	.LASF167
 3083 1309 03       		.byte	0x3
 3084 130a EB01     		.2byte	0x1eb
 3085 130c 03       		.byte	0x3
 3086 130d 1E130000 		.4byte	0x131e
 3087 1311 33       		.uleb128 0x33
 3088 1312 A2020000 		.4byte	.LASF168
 3089 1316 03       		.byte	0x3
 3090 1317 EB01     		.2byte	0x1eb
 3091 1319 DF000000 		.4byte	0xdf
 3092 131d 00       		.byte	0
 3093 131e 43       		.uleb128 0x43
 3094 131f 750F0000 		.4byte	0xf75
 3095 1323 00000000 		.4byte	.LFB294
 3096 1327 30000000 		.4byte	.LFE294-.LFB294
 3097 132b 01       		.uleb128 0x1
 3098 132c 9C       		.byte	0x9c
 3099 132d 97130000 		.4byte	0x1397
 3100 1331 23       		.uleb128 0x23
 3101 1332 850F0000 		.4byte	0xf85
 3102 1336 F0030000 		.4byte	.LLST9
 3103 133a 2A       		.uleb128 0x2a
 3104 133b 8F0F0000 		.4byte	0xf8f
 3105 133f 28       		.uleb128 0x28
 3106 1340 0C000000 		.4byte	.LBB105
 3107 1344 1C000000 		.4byte	.LBE105-.LBB105
 3108 1348 23       		.uleb128 0x23
 3109 1349 850F0000 		.4byte	0xf85
 3110 134d 2A040000 		.4byte	.LLST10
 3111 1351 28       		.uleb128 0x28
 3112 1352 0C000000 		.4byte	.LBB106
 3113 1356 1C000000 		.4byte	.LBE106-.LBB106
 3114 135a 2A       		.uleb128 0x2a
 3115 135b 3A130000 		.4byte	0x133a
 3116 135f 39       		.uleb128 0x39
 3117 1360 B3120000 		.4byte	0x12b3
 3118 1364 12000000 		.4byte	.LBB107
 3119 1368 0A000000 		.4byte	.LBE107-.LBB107
 3120 136c 01       		.byte	0x1
 3121 136d CF       		.byte	0xcf
 3122 136e 85130000 		.4byte	0x1385
 3123 1372 23       		.uleb128 0x23
 3124 1373 CB120000 		.4byte	0x12cb
 3125 1377 4B040000 		.4byte	.LLST11
 3126 137b 23       		.uleb128 0x23
 3127 137c C0120000 		.4byte	0x12c0
 3128 1380 5E040000 		.4byte	.LLST12
 3129 1384 00       		.byte	0
 3130 1385 24       		.uleb128 0x24
 3131 1386 22000000 		.4byte	.LVL20
 3132 138a 17140000 		.4byte	0x1417
 3133 138e 25       		.uleb128 0x25
 3134 138f 01       		.uleb128 0x1
 3135 1390 50       		.byte	0x50
ARM GAS  /tmp/cczxrnjP.s 			page 56


 3136 1391 01       		.uleb128 0x1
 3137 1392 35       		.byte	0x35
 3138 1393 00       		.byte	0
 3139 1394 00       		.byte	0
 3140 1395 00       		.byte	0
 3141 1396 00       		.byte	0
 3142 1397 43       		.uleb128 0x43
 3143 1398 410E0000 		.4byte	0xe41
 3144 139c 00000000 		.4byte	.LFB296
 3145 13a0 3C000000 		.4byte	.LFE296-.LFB296
 3146 13a4 01       		.uleb128 0x1
 3147 13a5 9C       		.byte	0x9c
 3148 13a6 17140000 		.4byte	0x1417
 3149 13aa 23       		.uleb128 0x23
 3150 13ab 520E0000 		.4byte	0xe52
 3151 13af 71040000 		.4byte	.LLST16
 3152 13b3 23       		.uleb128 0x23
 3153 13b4 5D0E0000 		.4byte	0xe5d
 3154 13b8 C4040000 		.4byte	.LLST17
 3155 13bc 2A       		.uleb128 0x2a
 3156 13bd 690E0000 		.4byte	0xe69
 3157 13c1 30       		.uleb128 0x30
 3158 13c2 00000000 		.4byte	.Ldebug_ranges0+0
 3159 13c6 44       		.uleb128 0x44
 3160 13c7 5D0E0000 		.4byte	0xe5d
 3161 13cb 23       		.uleb128 0x23
 3162 13cc 520E0000 		.4byte	0xe52
 3163 13d0 F0040000 		.4byte	.LLST18
 3164 13d4 30       		.uleb128 0x30
 3165 13d5 00000000 		.4byte	.Ldebug_ranges0+0
 3166 13d9 2A       		.uleb128 0x2a
 3167 13da BC130000 		.4byte	0x13bc
 3168 13de 22       		.uleb128 0x22
 3169 13df B3120000 		.4byte	0x12b3
 3170 13e3 20000000 		.4byte	.LBB124
 3171 13e7 18000000 		.4byte	.Ldebug_ranges0+0x18
 3172 13eb 01       		.byte	0x1
 3173 13ec 1701     		.2byte	0x117
 3174 13ee 05140000 		.4byte	0x1405
 3175 13f2 23       		.uleb128 0x23
 3176 13f3 CB120000 		.4byte	0x12cb
 3177 13f7 11050000 		.4byte	.LLST19
 3178 13fb 23       		.uleb128 0x23
 3179 13fc C0120000 		.4byte	0x12c0
 3180 1400 24050000 		.4byte	.LLST20
 3181 1404 00       		.byte	0
 3182 1405 45       		.uleb128 0x45
 3183 1406 34000000 		.4byte	.LVL34
 3184 140a 47140000 		.4byte	0x1447
 3185 140e 25       		.uleb128 0x25
 3186 140f 01       		.uleb128 0x1
 3187 1410 50       		.byte	0x50
 3188 1411 01       		.uleb128 0x1
 3189 1412 35       		.byte	0x35
 3190 1413 00       		.byte	0
 3191 1414 00       		.byte	0
 3192 1415 00       		.byte	0
ARM GAS  /tmp/cczxrnjP.s 			page 57


 3193 1416 00       		.byte	0
 3194 1417 46       		.uleb128 0x46
 3195 1418 AF050000 		.4byte	.LASF169
 3196 141c AF050000 		.4byte	.LASF169
 3197 1420 02       		.byte	0x2
 3198 1421 D301     		.2byte	0x1d3
 3199 1423 46       		.uleb128 0x46
 3200 1424 A4060000 		.4byte	.LASF170
 3201 1428 A4060000 		.4byte	.LASF170
 3202 142c 02       		.byte	0x2
 3203 142d D101     		.2byte	0x1d1
 3204 142f 46       		.uleb128 0x46
 3205 1430 05030000 		.4byte	.LASF171
 3206 1434 05030000 		.4byte	.LASF171
 3207 1438 02       		.byte	0x2
 3208 1439 D601     		.2byte	0x1d6
 3209 143b 46       		.uleb128 0x46
 3210 143c AB070000 		.4byte	.LASF172
 3211 1440 AB070000 		.4byte	.LASF172
 3212 1444 02       		.byte	0x2
 3213 1445 D501     		.2byte	0x1d5
 3214 1447 46       		.uleb128 0x46
 3215 1448 48080000 		.4byte	.LASF173
 3216 144c 48080000 		.4byte	.LASF173
 3217 1450 02       		.byte	0x2
 3218 1451 D401     		.2byte	0x1d4
 3219 1453 00       		.byte	0
 3220              		.section	.debug_abbrev,"",%progbits
 3221              	.Ldebug_abbrev0:
 3222 0000 01       		.uleb128 0x1
 3223 0001 11       		.uleb128 0x11
 3224 0002 01       		.byte	0x1
 3225 0003 25       		.uleb128 0x25
 3226 0004 0E       		.uleb128 0xe
 3227 0005 13       		.uleb128 0x13
 3228 0006 0B       		.uleb128 0xb
 3229 0007 03       		.uleb128 0x3
 3230 0008 0E       		.uleb128 0xe
 3231 0009 1B       		.uleb128 0x1b
 3232 000a 0E       		.uleb128 0xe
 3233 000b 55       		.uleb128 0x55
 3234 000c 17       		.uleb128 0x17
 3235 000d 11       		.uleb128 0x11
 3236 000e 01       		.uleb128 0x1
 3237 000f 10       		.uleb128 0x10
 3238 0010 17       		.uleb128 0x17
 3239 0011 00       		.byte	0
 3240 0012 00       		.byte	0
 3241 0013 02       		.uleb128 0x2
 3242 0014 24       		.uleb128 0x24
 3243 0015 00       		.byte	0
 3244 0016 0B       		.uleb128 0xb
 3245 0017 0B       		.uleb128 0xb
 3246 0018 3E       		.uleb128 0x3e
 3247 0019 0B       		.uleb128 0xb
 3248 001a 03       		.uleb128 0x3
 3249 001b 08       		.uleb128 0x8
ARM GAS  /tmp/cczxrnjP.s 			page 58


 3250 001c 00       		.byte	0
 3251 001d 00       		.byte	0
 3252 001e 03       		.uleb128 0x3
 3253 001f 16       		.uleb128 0x16
 3254 0020 00       		.byte	0
 3255 0021 03       		.uleb128 0x3
 3256 0022 0E       		.uleb128 0xe
 3257 0023 3A       		.uleb128 0x3a
 3258 0024 0B       		.uleb128 0xb
 3259 0025 3B       		.uleb128 0x3b
 3260 0026 0B       		.uleb128 0xb
 3261 0027 49       		.uleb128 0x49
 3262 0028 13       		.uleb128 0x13
 3263 0029 00       		.byte	0
 3264 002a 00       		.byte	0
 3265 002b 04       		.uleb128 0x4
 3266 002c 24       		.uleb128 0x24
 3267 002d 00       		.byte	0
 3268 002e 0B       		.uleb128 0xb
 3269 002f 0B       		.uleb128 0xb
 3270 0030 3E       		.uleb128 0x3e
 3271 0031 0B       		.uleb128 0xb
 3272 0032 03       		.uleb128 0x3
 3273 0033 0E       		.uleb128 0xe
 3274 0034 00       		.byte	0
 3275 0035 00       		.byte	0
 3276 0036 05       		.uleb128 0x5
 3277 0037 26       		.uleb128 0x26
 3278 0038 00       		.byte	0
 3279 0039 49       		.uleb128 0x49
 3280 003a 13       		.uleb128 0x13
 3281 003b 00       		.byte	0
 3282 003c 00       		.byte	0
 3283 003d 06       		.uleb128 0x6
 3284 003e 35       		.uleb128 0x35
 3285 003f 00       		.byte	0
 3286 0040 49       		.uleb128 0x49
 3287 0041 13       		.uleb128 0x13
 3288 0042 00       		.byte	0
 3289 0043 00       		.byte	0
 3290 0044 07       		.uleb128 0x7
 3291 0045 13       		.uleb128 0x13
 3292 0046 01       		.byte	0x1
 3293 0047 03       		.uleb128 0x3
 3294 0048 0E       		.uleb128 0xe
 3295 0049 0B       		.uleb128 0xb
 3296 004a 0B       		.uleb128 0xb
 3297 004b 3A       		.uleb128 0x3a
 3298 004c 0B       		.uleb128 0xb
 3299 004d 3B       		.uleb128 0x3b
 3300 004e 0B       		.uleb128 0xb
 3301 004f 01       		.uleb128 0x1
 3302 0050 13       		.uleb128 0x13
 3303 0051 00       		.byte	0
 3304 0052 00       		.byte	0
 3305 0053 08       		.uleb128 0x8
 3306 0054 0D       		.uleb128 0xd
ARM GAS  /tmp/cczxrnjP.s 			page 59


 3307 0055 00       		.byte	0
 3308 0056 03       		.uleb128 0x3
 3309 0057 0E       		.uleb128 0xe
 3310 0058 3A       		.uleb128 0x3a
 3311 0059 0B       		.uleb128 0xb
 3312 005a 3B       		.uleb128 0x3b
 3313 005b 0B       		.uleb128 0xb
 3314 005c 49       		.uleb128 0x49
 3315 005d 13       		.uleb128 0x13
 3316 005e 38       		.uleb128 0x38
 3317 005f 0B       		.uleb128 0xb
 3318 0060 00       		.byte	0
 3319 0061 00       		.byte	0
 3320 0062 09       		.uleb128 0x9
 3321 0063 0D       		.uleb128 0xd
 3322 0064 00       		.byte	0
 3323 0065 03       		.uleb128 0x3
 3324 0066 08       		.uleb128 0x8
 3325 0067 3A       		.uleb128 0x3a
 3326 0068 0B       		.uleb128 0xb
 3327 0069 3B       		.uleb128 0x3b
 3328 006a 0B       		.uleb128 0xb
 3329 006b 49       		.uleb128 0x49
 3330 006c 13       		.uleb128 0x13
 3331 006d 38       		.uleb128 0x38
 3332 006e 0B       		.uleb128 0xb
 3333 006f 00       		.byte	0
 3334 0070 00       		.byte	0
 3335 0071 0A       		.uleb128 0xa
 3336 0072 0D       		.uleb128 0xd
 3337 0073 00       		.byte	0
 3338 0074 03       		.uleb128 0x3
 3339 0075 08       		.uleb128 0x8
 3340 0076 3A       		.uleb128 0x3a
 3341 0077 0B       		.uleb128 0xb
 3342 0078 3B       		.uleb128 0x3b
 3343 0079 05       		.uleb128 0x5
 3344 007a 49       		.uleb128 0x49
 3345 007b 13       		.uleb128 0x13
 3346 007c 38       		.uleb128 0x38
 3347 007d 0B       		.uleb128 0xb
 3348 007e 00       		.byte	0
 3349 007f 00       		.byte	0
 3350 0080 0B       		.uleb128 0xb
 3351 0081 0D       		.uleb128 0xd
 3352 0082 00       		.byte	0
 3353 0083 03       		.uleb128 0x3
 3354 0084 0E       		.uleb128 0xe
 3355 0085 3A       		.uleb128 0x3a
 3356 0086 0B       		.uleb128 0xb
 3357 0087 3B       		.uleb128 0x3b
 3358 0088 05       		.uleb128 0x5
 3359 0089 49       		.uleb128 0x49
 3360 008a 13       		.uleb128 0x13
 3361 008b 38       		.uleb128 0x38
 3362 008c 0B       		.uleb128 0xb
 3363 008d 00       		.byte	0
ARM GAS  /tmp/cczxrnjP.s 			page 60


 3364 008e 00       		.byte	0
 3365 008f 0C       		.uleb128 0xc
 3366 0090 0F       		.uleb128 0xf
 3367 0091 00       		.byte	0
 3368 0092 0B       		.uleb128 0xb
 3369 0093 0B       		.uleb128 0xb
 3370 0094 49       		.uleb128 0x49
 3371 0095 13       		.uleb128 0x13
 3372 0096 00       		.byte	0
 3373 0097 00       		.byte	0
 3374 0098 0D       		.uleb128 0xd
 3375 0099 13       		.uleb128 0x13
 3376 009a 01       		.byte	0x1
 3377 009b 03       		.uleb128 0x3
 3378 009c 0E       		.uleb128 0xe
 3379 009d 0B       		.uleb128 0xb
 3380 009e 0B       		.uleb128 0xb
 3381 009f 3A       		.uleb128 0x3a
 3382 00a0 0B       		.uleb128 0xb
 3383 00a1 3B       		.uleb128 0x3b
 3384 00a2 05       		.uleb128 0x5
 3385 00a3 01       		.uleb128 0x1
 3386 00a4 13       		.uleb128 0x13
 3387 00a5 00       		.byte	0
 3388 00a6 00       		.byte	0
 3389 00a7 0E       		.uleb128 0xe
 3390 00a8 15       		.uleb128 0x15
 3391 00a9 01       		.byte	0x1
 3392 00aa 27       		.uleb128 0x27
 3393 00ab 19       		.uleb128 0x19
 3394 00ac 01       		.uleb128 0x1
 3395 00ad 13       		.uleb128 0x13
 3396 00ae 00       		.byte	0
 3397 00af 00       		.byte	0
 3398 00b0 0F       		.uleb128 0xf
 3399 00b1 05       		.uleb128 0x5
 3400 00b2 00       		.byte	0
 3401 00b3 49       		.uleb128 0x49
 3402 00b4 13       		.uleb128 0x13
 3403 00b5 00       		.byte	0
 3404 00b6 00       		.byte	0
 3405 00b7 10       		.uleb128 0x10
 3406 00b8 0F       		.uleb128 0xf
 3407 00b9 00       		.byte	0
 3408 00ba 0B       		.uleb128 0xb
 3409 00bb 0B       		.uleb128 0xb
 3410 00bc 00       		.byte	0
 3411 00bd 00       		.byte	0
 3412 00be 11       		.uleb128 0x11
 3413 00bf 34       		.uleb128 0x34
 3414 00c0 00       		.byte	0
 3415 00c1 03       		.uleb128 0x3
 3416 00c2 0E       		.uleb128 0xe
 3417 00c3 3A       		.uleb128 0x3a
 3418 00c4 0B       		.uleb128 0xb
 3419 00c5 3B       		.uleb128 0x3b
 3420 00c6 05       		.uleb128 0x5
ARM GAS  /tmp/cczxrnjP.s 			page 61


 3421 00c7 49       		.uleb128 0x49
 3422 00c8 13       		.uleb128 0x13
 3423 00c9 3F       		.uleb128 0x3f
 3424 00ca 19       		.uleb128 0x19
 3425 00cb 3C       		.uleb128 0x3c
 3426 00cc 19       		.uleb128 0x19
 3427 00cd 00       		.byte	0
 3428 00ce 00       		.byte	0
 3429 00cf 12       		.uleb128 0x12
 3430 00d0 34       		.uleb128 0x34
 3431 00d1 00       		.byte	0
 3432 00d2 03       		.uleb128 0x3
 3433 00d3 0E       		.uleb128 0xe
 3434 00d4 3A       		.uleb128 0x3a
 3435 00d5 0B       		.uleb128 0xb
 3436 00d6 3B       		.uleb128 0x3b
 3437 00d7 0B       		.uleb128 0xb
 3438 00d8 49       		.uleb128 0x49
 3439 00d9 13       		.uleb128 0x13
 3440 00da 3F       		.uleb128 0x3f
 3441 00db 19       		.uleb128 0x19
 3442 00dc 3C       		.uleb128 0x3c
 3443 00dd 19       		.uleb128 0x19
 3444 00de 00       		.byte	0
 3445 00df 00       		.byte	0
 3446 00e0 13       		.uleb128 0x13
 3447 00e1 01       		.uleb128 0x1
 3448 00e2 01       		.byte	0x1
 3449 00e3 49       		.uleb128 0x49
 3450 00e4 13       		.uleb128 0x13
 3451 00e5 01       		.uleb128 0x1
 3452 00e6 13       		.uleb128 0x13
 3453 00e7 00       		.byte	0
 3454 00e8 00       		.byte	0
 3455 00e9 14       		.uleb128 0x14
 3456 00ea 21       		.uleb128 0x21
 3457 00eb 00       		.byte	0
 3458 00ec 49       		.uleb128 0x49
 3459 00ed 13       		.uleb128 0x13
 3460 00ee 2F       		.uleb128 0x2f
 3461 00ef 0B       		.uleb128 0xb
 3462 00f0 00       		.byte	0
 3463 00f1 00       		.byte	0
 3464 00f2 15       		.uleb128 0x15
 3465 00f3 13       		.uleb128 0x13
 3466 00f4 01       		.byte	0x1
 3467 00f5 0B       		.uleb128 0xb
 3468 00f6 0B       		.uleb128 0xb
 3469 00f7 3A       		.uleb128 0x3a
 3470 00f8 0B       		.uleb128 0xb
 3471 00f9 3B       		.uleb128 0x3b
 3472 00fa 0B       		.uleb128 0xb
 3473 00fb 01       		.uleb128 0x1
 3474 00fc 13       		.uleb128 0x13
 3475 00fd 00       		.byte	0
 3476 00fe 00       		.byte	0
 3477 00ff 16       		.uleb128 0x16
ARM GAS  /tmp/cczxrnjP.s 			page 62


 3478 0100 17       		.uleb128 0x17
 3479 0101 01       		.byte	0x1
 3480 0102 0B       		.uleb128 0xb
 3481 0103 0B       		.uleb128 0xb
 3482 0104 3A       		.uleb128 0x3a
 3483 0105 0B       		.uleb128 0xb
 3484 0106 3B       		.uleb128 0x3b
 3485 0107 0B       		.uleb128 0xb
 3486 0108 01       		.uleb128 0x1
 3487 0109 13       		.uleb128 0x13
 3488 010a 00       		.byte	0
 3489 010b 00       		.byte	0
 3490 010c 17       		.uleb128 0x17
 3491 010d 0D       		.uleb128 0xd
 3492 010e 00       		.byte	0
 3493 010f 03       		.uleb128 0x3
 3494 0110 0E       		.uleb128 0xe
 3495 0111 3A       		.uleb128 0x3a
 3496 0112 0B       		.uleb128 0xb
 3497 0113 3B       		.uleb128 0x3b
 3498 0114 0B       		.uleb128 0xb
 3499 0115 49       		.uleb128 0x49
 3500 0116 13       		.uleb128 0x13
 3501 0117 00       		.byte	0
 3502 0118 00       		.byte	0
 3503 0119 18       		.uleb128 0x18
 3504 011a 0D       		.uleb128 0xd
 3505 011b 00       		.byte	0
 3506 011c 03       		.uleb128 0x3
 3507 011d 0E       		.uleb128 0xe
 3508 011e 3A       		.uleb128 0x3a
 3509 011f 0B       		.uleb128 0xb
 3510 0120 3B       		.uleb128 0x3b
 3511 0121 05       		.uleb128 0x5
 3512 0122 49       		.uleb128 0x49
 3513 0123 13       		.uleb128 0x13
 3514 0124 00       		.byte	0
 3515 0125 00       		.byte	0
 3516 0126 19       		.uleb128 0x19
 3517 0127 34       		.uleb128 0x34
 3518 0128 00       		.byte	0
 3519 0129 03       		.uleb128 0x3
 3520 012a 08       		.uleb128 0x8
 3521 012b 3A       		.uleb128 0x3a
 3522 012c 0B       		.uleb128 0xb
 3523 012d 3B       		.uleb128 0x3b
 3524 012e 05       		.uleb128 0x5
 3525 012f 49       		.uleb128 0x49
 3526 0130 13       		.uleb128 0x13
 3527 0131 3F       		.uleb128 0x3f
 3528 0132 19       		.uleb128 0x19
 3529 0133 3C       		.uleb128 0x3c
 3530 0134 19       		.uleb128 0x19
 3531 0135 00       		.byte	0
 3532 0136 00       		.byte	0
 3533 0137 1A       		.uleb128 0x1a
 3534 0138 21       		.uleb128 0x21
ARM GAS  /tmp/cczxrnjP.s 			page 63


 3535 0139 00       		.byte	0
 3536 013a 00       		.byte	0
 3537 013b 00       		.byte	0
 3538 013c 1B       		.uleb128 0x1b
 3539 013d 15       		.uleb128 0x15
 3540 013e 01       		.byte	0x1
 3541 013f 27       		.uleb128 0x27
 3542 0140 19       		.uleb128 0x19
 3543 0141 49       		.uleb128 0x49
 3544 0142 13       		.uleb128 0x13
 3545 0143 01       		.uleb128 0x1
 3546 0144 13       		.uleb128 0x13
 3547 0145 00       		.byte	0
 3548 0146 00       		.byte	0
 3549 0147 1C       		.uleb128 0x1c
 3550 0148 16       		.uleb128 0x16
 3551 0149 00       		.byte	0
 3552 014a 03       		.uleb128 0x3
 3553 014b 0E       		.uleb128 0xe
 3554 014c 3A       		.uleb128 0x3a
 3555 014d 0B       		.uleb128 0xb
 3556 014e 3B       		.uleb128 0x3b
 3557 014f 05       		.uleb128 0x5
 3558 0150 49       		.uleb128 0x49
 3559 0151 13       		.uleb128 0x13
 3560 0152 00       		.byte	0
 3561 0153 00       		.byte	0
 3562 0154 1D       		.uleb128 0x1d
 3563 0155 2E       		.uleb128 0x2e
 3564 0156 01       		.byte	0x1
 3565 0157 3F       		.uleb128 0x3f
 3566 0158 19       		.uleb128 0x19
 3567 0159 03       		.uleb128 0x3
 3568 015a 0E       		.uleb128 0xe
 3569 015b 3A       		.uleb128 0x3a
 3570 015c 0B       		.uleb128 0xb
 3571 015d 3B       		.uleb128 0x3b
 3572 015e 05       		.uleb128 0x5
 3573 015f 27       		.uleb128 0x27
 3574 0160 19       		.uleb128 0x19
 3575 0161 49       		.uleb128 0x49
 3576 0162 13       		.uleb128 0x13
 3577 0163 11       		.uleb128 0x11
 3578 0164 01       		.uleb128 0x1
 3579 0165 12       		.uleb128 0x12
 3580 0166 06       		.uleb128 0x6
 3581 0167 40       		.uleb128 0x40
 3582 0168 18       		.uleb128 0x18
 3583 0169 9742     		.uleb128 0x2117
 3584 016b 19       		.uleb128 0x19
 3585 016c 01       		.uleb128 0x1
 3586 016d 13       		.uleb128 0x13
 3587 016e 00       		.byte	0
 3588 016f 00       		.byte	0
 3589 0170 1E       		.uleb128 0x1e
 3590 0171 05       		.uleb128 0x5
 3591 0172 00       		.byte	0
ARM GAS  /tmp/cczxrnjP.s 			page 64


 3592 0173 03       		.uleb128 0x3
 3593 0174 08       		.uleb128 0x8
 3594 0175 3A       		.uleb128 0x3a
 3595 0176 0B       		.uleb128 0xb
 3596 0177 3B       		.uleb128 0x3b
 3597 0178 05       		.uleb128 0x5
 3598 0179 49       		.uleb128 0x49
 3599 017a 13       		.uleb128 0x13
 3600 017b 02       		.uleb128 0x2
 3601 017c 17       		.uleb128 0x17
 3602 017d 00       		.byte	0
 3603 017e 00       		.byte	0
 3604 017f 1F       		.uleb128 0x1f
 3605 0180 34       		.uleb128 0x34
 3606 0181 00       		.byte	0
 3607 0182 03       		.uleb128 0x3
 3608 0183 08       		.uleb128 0x8
 3609 0184 3A       		.uleb128 0x3a
 3610 0185 0B       		.uleb128 0xb
 3611 0186 3B       		.uleb128 0x3b
 3612 0187 05       		.uleb128 0x5
 3613 0188 49       		.uleb128 0x49
 3614 0189 13       		.uleb128 0x13
 3615 018a 02       		.uleb128 0x2
 3616 018b 17       		.uleb128 0x17
 3617 018c 00       		.byte	0
 3618 018d 00       		.byte	0
 3619 018e 20       		.uleb128 0x20
 3620 018f 34       		.uleb128 0x34
 3621 0190 00       		.byte	0
 3622 0191 03       		.uleb128 0x3
 3623 0192 0E       		.uleb128 0xe
 3624 0193 49       		.uleb128 0x49
 3625 0194 13       		.uleb128 0x13
 3626 0195 34       		.uleb128 0x34
 3627 0196 19       		.uleb128 0x19
 3628 0197 00       		.byte	0
 3629 0198 00       		.byte	0
 3630 0199 21       		.uleb128 0x21
 3631 019a 0B       		.uleb128 0xb
 3632 019b 01       		.byte	0x1
 3633 019c 11       		.uleb128 0x11
 3634 019d 01       		.uleb128 0x1
 3635 019e 12       		.uleb128 0x12
 3636 019f 06       		.uleb128 0x6
 3637 01a0 01       		.uleb128 0x1
 3638 01a1 13       		.uleb128 0x13
 3639 01a2 00       		.byte	0
 3640 01a3 00       		.byte	0
 3641 01a4 22       		.uleb128 0x22
 3642 01a5 1D       		.uleb128 0x1d
 3643 01a6 01       		.byte	0x1
 3644 01a7 31       		.uleb128 0x31
 3645 01a8 13       		.uleb128 0x13
 3646 01a9 52       		.uleb128 0x52
 3647 01aa 01       		.uleb128 0x1
 3648 01ab 55       		.uleb128 0x55
ARM GAS  /tmp/cczxrnjP.s 			page 65


 3649 01ac 17       		.uleb128 0x17
 3650 01ad 58       		.uleb128 0x58
 3651 01ae 0B       		.uleb128 0xb
 3652 01af 59       		.uleb128 0x59
 3653 01b0 05       		.uleb128 0x5
 3654 01b1 01       		.uleb128 0x1
 3655 01b2 13       		.uleb128 0x13
 3656 01b3 00       		.byte	0
 3657 01b4 00       		.byte	0
 3658 01b5 23       		.uleb128 0x23
 3659 01b6 05       		.uleb128 0x5
 3660 01b7 00       		.byte	0
 3661 01b8 31       		.uleb128 0x31
 3662 01b9 13       		.uleb128 0x13
 3663 01ba 02       		.uleb128 0x2
 3664 01bb 17       		.uleb128 0x17
 3665 01bc 00       		.byte	0
 3666 01bd 00       		.byte	0
 3667 01be 24       		.uleb128 0x24
 3668 01bf 898201   		.uleb128 0x4109
 3669 01c2 01       		.byte	0x1
 3670 01c3 11       		.uleb128 0x11
 3671 01c4 01       		.uleb128 0x1
 3672 01c5 31       		.uleb128 0x31
 3673 01c6 13       		.uleb128 0x13
 3674 01c7 00       		.byte	0
 3675 01c8 00       		.byte	0
 3676 01c9 25       		.uleb128 0x25
 3677 01ca 8A8201   		.uleb128 0x410a
 3678 01cd 00       		.byte	0
 3679 01ce 02       		.uleb128 0x2
 3680 01cf 18       		.uleb128 0x18
 3681 01d0 9142     		.uleb128 0x2111
 3682 01d2 18       		.uleb128 0x18
 3683 01d3 00       		.byte	0
 3684 01d4 00       		.byte	0
 3685 01d5 26       		.uleb128 0x26
 3686 01d6 1D       		.uleb128 0x1d
 3687 01d7 01       		.byte	0x1
 3688 01d8 31       		.uleb128 0x31
 3689 01d9 13       		.uleb128 0x13
 3690 01da 52       		.uleb128 0x52
 3691 01db 01       		.uleb128 0x1
 3692 01dc 55       		.uleb128 0x55
 3693 01dd 17       		.uleb128 0x17
 3694 01de 58       		.uleb128 0x58
 3695 01df 0B       		.uleb128 0xb
 3696 01e0 59       		.uleb128 0x59
 3697 01e1 05       		.uleb128 0x5
 3698 01e2 00       		.byte	0
 3699 01e3 00       		.byte	0
 3700 01e4 27       		.uleb128 0x27
 3701 01e5 1D       		.uleb128 0x1d
 3702 01e6 01       		.byte	0x1
 3703 01e7 31       		.uleb128 0x31
 3704 01e8 13       		.uleb128 0x13
 3705 01e9 11       		.uleb128 0x11
ARM GAS  /tmp/cczxrnjP.s 			page 66


 3706 01ea 01       		.uleb128 0x1
 3707 01eb 12       		.uleb128 0x12
 3708 01ec 06       		.uleb128 0x6
 3709 01ed 58       		.uleb128 0x58
 3710 01ee 0B       		.uleb128 0xb
 3711 01ef 59       		.uleb128 0x59
 3712 01f0 05       		.uleb128 0x5
 3713 01f1 01       		.uleb128 0x1
 3714 01f2 13       		.uleb128 0x13
 3715 01f3 00       		.byte	0
 3716 01f4 00       		.byte	0
 3717 01f5 28       		.uleb128 0x28
 3718 01f6 0B       		.uleb128 0xb
 3719 01f7 01       		.byte	0x1
 3720 01f8 11       		.uleb128 0x11
 3721 01f9 01       		.uleb128 0x1
 3722 01fa 12       		.uleb128 0x12
 3723 01fb 06       		.uleb128 0x6
 3724 01fc 00       		.byte	0
 3725 01fd 00       		.byte	0
 3726 01fe 29       		.uleb128 0x29
 3727 01ff 34       		.uleb128 0x34
 3728 0200 00       		.byte	0
 3729 0201 31       		.uleb128 0x31
 3730 0202 13       		.uleb128 0x13
 3731 0203 02       		.uleb128 0x2
 3732 0204 17       		.uleb128 0x17
 3733 0205 00       		.byte	0
 3734 0206 00       		.byte	0
 3735 0207 2A       		.uleb128 0x2a
 3736 0208 34       		.uleb128 0x34
 3737 0209 00       		.byte	0
 3738 020a 31       		.uleb128 0x31
 3739 020b 13       		.uleb128 0x13
 3740 020c 00       		.byte	0
 3741 020d 00       		.byte	0
 3742 020e 2B       		.uleb128 0x2b
 3743 020f 1D       		.uleb128 0x1d
 3744 0210 01       		.byte	0x1
 3745 0211 31       		.uleb128 0x31
 3746 0212 13       		.uleb128 0x13
 3747 0213 11       		.uleb128 0x11
 3748 0214 01       		.uleb128 0x1
 3749 0215 12       		.uleb128 0x12
 3750 0216 06       		.uleb128 0x6
 3751 0217 58       		.uleb128 0x58
 3752 0218 0B       		.uleb128 0xb
 3753 0219 59       		.uleb128 0x59
 3754 021a 05       		.uleb128 0x5
 3755 021b 00       		.byte	0
 3756 021c 00       		.byte	0
 3757 021d 2C       		.uleb128 0x2c
 3758 021e 898201   		.uleb128 0x4109
 3759 0221 00       		.byte	0
 3760 0222 11       		.uleb128 0x11
 3761 0223 01       		.uleb128 0x1
 3762 0224 31       		.uleb128 0x31
ARM GAS  /tmp/cczxrnjP.s 			page 67


 3763 0225 13       		.uleb128 0x13
 3764 0226 00       		.byte	0
 3765 0227 00       		.byte	0
 3766 0228 2D       		.uleb128 0x2d
 3767 0229 2E       		.uleb128 0x2e
 3768 022a 01       		.byte	0x1
 3769 022b 3F       		.uleb128 0x3f
 3770 022c 19       		.uleb128 0x19
 3771 022d 03       		.uleb128 0x3
 3772 022e 0E       		.uleb128 0xe
 3773 022f 3A       		.uleb128 0x3a
 3774 0230 0B       		.uleb128 0xb
 3775 0231 3B       		.uleb128 0x3b
 3776 0232 05       		.uleb128 0x5
 3777 0233 27       		.uleb128 0x27
 3778 0234 19       		.uleb128 0x19
 3779 0235 11       		.uleb128 0x11
 3780 0236 01       		.uleb128 0x1
 3781 0237 12       		.uleb128 0x12
 3782 0238 06       		.uleb128 0x6
 3783 0239 40       		.uleb128 0x40
 3784 023a 18       		.uleb128 0x18
 3785 023b 9742     		.uleb128 0x2117
 3786 023d 19       		.uleb128 0x19
 3787 023e 01       		.uleb128 0x1
 3788 023f 13       		.uleb128 0x13
 3789 0240 00       		.byte	0
 3790 0241 00       		.byte	0
 3791 0242 2E       		.uleb128 0x2e
 3792 0243 34       		.uleb128 0x34
 3793 0244 00       		.byte	0
 3794 0245 03       		.uleb128 0x3
 3795 0246 08       		.uleb128 0x8
 3796 0247 3A       		.uleb128 0x3a
 3797 0248 0B       		.uleb128 0xb
 3798 0249 3B       		.uleb128 0x3b
 3799 024a 05       		.uleb128 0x5
 3800 024b 49       		.uleb128 0x49
 3801 024c 13       		.uleb128 0x13
 3802 024d 00       		.byte	0
 3803 024e 00       		.byte	0
 3804 024f 2F       		.uleb128 0x2f
 3805 0250 898201   		.uleb128 0x4109
 3806 0253 00       		.byte	0
 3807 0254 11       		.uleb128 0x11
 3808 0255 01       		.uleb128 0x1
 3809 0256 9542     		.uleb128 0x2115
 3810 0258 19       		.uleb128 0x19
 3811 0259 31       		.uleb128 0x31
 3812 025a 13       		.uleb128 0x13
 3813 025b 00       		.byte	0
 3814 025c 00       		.byte	0
 3815 025d 30       		.uleb128 0x30
 3816 025e 0B       		.uleb128 0xb
 3817 025f 01       		.byte	0x1
 3818 0260 55       		.uleb128 0x55
 3819 0261 17       		.uleb128 0x17
ARM GAS  /tmp/cczxrnjP.s 			page 68


 3820 0262 00       		.byte	0
 3821 0263 00       		.byte	0
 3822 0264 31       		.uleb128 0x31
 3823 0265 2E       		.uleb128 0x2e
 3824 0266 01       		.byte	0x1
 3825 0267 3F       		.uleb128 0x3f
 3826 0268 19       		.uleb128 0x19
 3827 0269 03       		.uleb128 0x3
 3828 026a 0E       		.uleb128 0xe
 3829 026b 3A       		.uleb128 0x3a
 3830 026c 0B       		.uleb128 0xb
 3831 026d 3B       		.uleb128 0x3b
 3832 026e 05       		.uleb128 0x5
 3833 026f 27       		.uleb128 0x27
 3834 0270 19       		.uleb128 0x19
 3835 0271 49       		.uleb128 0x49
 3836 0272 13       		.uleb128 0x13
 3837 0273 20       		.uleb128 0x20
 3838 0274 0B       		.uleb128 0xb
 3839 0275 01       		.uleb128 0x1
 3840 0276 13       		.uleb128 0x13
 3841 0277 00       		.byte	0
 3842 0278 00       		.byte	0
 3843 0279 32       		.uleb128 0x32
 3844 027a 05       		.uleb128 0x5
 3845 027b 00       		.byte	0
 3846 027c 03       		.uleb128 0x3
 3847 027d 08       		.uleb128 0x8
 3848 027e 3A       		.uleb128 0x3a
 3849 027f 0B       		.uleb128 0xb
 3850 0280 3B       		.uleb128 0x3b
 3851 0281 05       		.uleb128 0x5
 3852 0282 49       		.uleb128 0x49
 3853 0283 13       		.uleb128 0x13
 3854 0284 00       		.byte	0
 3855 0285 00       		.byte	0
 3856 0286 33       		.uleb128 0x33
 3857 0287 05       		.uleb128 0x5
 3858 0288 00       		.byte	0
 3859 0289 03       		.uleb128 0x3
 3860 028a 0E       		.uleb128 0xe
 3861 028b 3A       		.uleb128 0x3a
 3862 028c 0B       		.uleb128 0xb
 3863 028d 3B       		.uleb128 0x3b
 3864 028e 05       		.uleb128 0x5
 3865 028f 49       		.uleb128 0x49
 3866 0290 13       		.uleb128 0x13
 3867 0291 00       		.byte	0
 3868 0292 00       		.byte	0
 3869 0293 34       		.uleb128 0x34
 3870 0294 34       		.uleb128 0x34
 3871 0295 00       		.byte	0
 3872 0296 03       		.uleb128 0x3
 3873 0297 0E       		.uleb128 0xe
 3874 0298 49       		.uleb128 0x49
 3875 0299 13       		.uleb128 0x13
 3876 029a 34       		.uleb128 0x34
ARM GAS  /tmp/cczxrnjP.s 			page 69


 3877 029b 19       		.uleb128 0x19
 3878 029c 1C       		.uleb128 0x1c
 3879 029d 0E       		.uleb128 0xe
 3880 029e 00       		.byte	0
 3881 029f 00       		.byte	0
 3882 02a0 35       		.uleb128 0x35
 3883 02a1 2E       		.uleb128 0x2e
 3884 02a2 01       		.byte	0x1
 3885 02a3 3F       		.uleb128 0x3f
 3886 02a4 19       		.uleb128 0x19
 3887 02a5 03       		.uleb128 0x3
 3888 02a6 0E       		.uleb128 0xe
 3889 02a7 3A       		.uleb128 0x3a
 3890 02a8 0B       		.uleb128 0xb
 3891 02a9 3B       		.uleb128 0x3b
 3892 02aa 0B       		.uleb128 0xb
 3893 02ab 27       		.uleb128 0x27
 3894 02ac 19       		.uleb128 0x19
 3895 02ad 49       		.uleb128 0x49
 3896 02ae 13       		.uleb128 0x13
 3897 02af 11       		.uleb128 0x11
 3898 02b0 01       		.uleb128 0x1
 3899 02b1 12       		.uleb128 0x12
 3900 02b2 06       		.uleb128 0x6
 3901 02b3 40       		.uleb128 0x40
 3902 02b4 18       		.uleb128 0x18
 3903 02b5 9742     		.uleb128 0x2117
 3904 02b7 19       		.uleb128 0x19
 3905 02b8 01       		.uleb128 0x1
 3906 02b9 13       		.uleb128 0x13
 3907 02ba 00       		.byte	0
 3908 02bb 00       		.byte	0
 3909 02bc 36       		.uleb128 0x36
 3910 02bd 05       		.uleb128 0x5
 3911 02be 00       		.byte	0
 3912 02bf 03       		.uleb128 0x3
 3913 02c0 08       		.uleb128 0x8
 3914 02c1 3A       		.uleb128 0x3a
 3915 02c2 0B       		.uleb128 0xb
 3916 02c3 3B       		.uleb128 0x3b
 3917 02c4 0B       		.uleb128 0xb
 3918 02c5 49       		.uleb128 0x49
 3919 02c6 13       		.uleb128 0x13
 3920 02c7 02       		.uleb128 0x2
 3921 02c8 17       		.uleb128 0x17
 3922 02c9 00       		.byte	0
 3923 02ca 00       		.byte	0
 3924 02cb 37       		.uleb128 0x37
 3925 02cc 05       		.uleb128 0x5
 3926 02cd 00       		.byte	0
 3927 02ce 03       		.uleb128 0x3
 3928 02cf 0E       		.uleb128 0xe
 3929 02d0 3A       		.uleb128 0x3a
 3930 02d1 0B       		.uleb128 0xb
 3931 02d2 3B       		.uleb128 0x3b
 3932 02d3 0B       		.uleb128 0xb
 3933 02d4 49       		.uleb128 0x49
ARM GAS  /tmp/cczxrnjP.s 			page 70


 3934 02d5 13       		.uleb128 0x13
 3935 02d6 02       		.uleb128 0x2
 3936 02d7 17       		.uleb128 0x17
 3937 02d8 00       		.byte	0
 3938 02d9 00       		.byte	0
 3939 02da 38       		.uleb128 0x38
 3940 02db 34       		.uleb128 0x34
 3941 02dc 00       		.byte	0
 3942 02dd 03       		.uleb128 0x3
 3943 02de 08       		.uleb128 0x8
 3944 02df 3A       		.uleb128 0x3a
 3945 02e0 0B       		.uleb128 0xb
 3946 02e1 3B       		.uleb128 0x3b
 3947 02e2 0B       		.uleb128 0xb
 3948 02e3 49       		.uleb128 0x49
 3949 02e4 13       		.uleb128 0x13
 3950 02e5 02       		.uleb128 0x2
 3951 02e6 18       		.uleb128 0x18
 3952 02e7 00       		.byte	0
 3953 02e8 00       		.byte	0
 3954 02e9 39       		.uleb128 0x39
 3955 02ea 1D       		.uleb128 0x1d
 3956 02eb 01       		.byte	0x1
 3957 02ec 31       		.uleb128 0x31
 3958 02ed 13       		.uleb128 0x13
 3959 02ee 11       		.uleb128 0x11
 3960 02ef 01       		.uleb128 0x1
 3961 02f0 12       		.uleb128 0x12
 3962 02f1 06       		.uleb128 0x6
 3963 02f2 58       		.uleb128 0x58
 3964 02f3 0B       		.uleb128 0xb
 3965 02f4 59       		.uleb128 0x59
 3966 02f5 0B       		.uleb128 0xb
 3967 02f6 01       		.uleb128 0x1
 3968 02f7 13       		.uleb128 0x13
 3969 02f8 00       		.byte	0
 3970 02f9 00       		.byte	0
 3971 02fa 3A       		.uleb128 0x3a
 3972 02fb 2E       		.uleb128 0x2e
 3973 02fc 01       		.byte	0x1
 3974 02fd 3F       		.uleb128 0x3f
 3975 02fe 19       		.uleb128 0x19
 3976 02ff 03       		.uleb128 0x3
 3977 0300 0E       		.uleb128 0xe
 3978 0301 3A       		.uleb128 0x3a
 3979 0302 0B       		.uleb128 0xb
 3980 0303 3B       		.uleb128 0x3b
 3981 0304 0B       		.uleb128 0xb
 3982 0305 27       		.uleb128 0x27
 3983 0306 19       		.uleb128 0x19
 3984 0307 49       		.uleb128 0x49
 3985 0308 13       		.uleb128 0x13
 3986 0309 20       		.uleb128 0x20
 3987 030a 0B       		.uleb128 0xb
 3988 030b 01       		.uleb128 0x1
 3989 030c 13       		.uleb128 0x13
 3990 030d 00       		.byte	0
ARM GAS  /tmp/cczxrnjP.s 			page 71


 3991 030e 00       		.byte	0
 3992 030f 3B       		.uleb128 0x3b
 3993 0310 05       		.uleb128 0x5
 3994 0311 00       		.byte	0
 3995 0312 03       		.uleb128 0x3
 3996 0313 08       		.uleb128 0x8
 3997 0314 3A       		.uleb128 0x3a
 3998 0315 0B       		.uleb128 0xb
 3999 0316 3B       		.uleb128 0x3b
 4000 0317 0B       		.uleb128 0xb
 4001 0318 49       		.uleb128 0x49
 4002 0319 13       		.uleb128 0x13
 4003 031a 00       		.byte	0
 4004 031b 00       		.byte	0
 4005 031c 3C       		.uleb128 0x3c
 4006 031d 2E       		.uleb128 0x2e
 4007 031e 01       		.byte	0x1
 4008 031f 3F       		.uleb128 0x3f
 4009 0320 19       		.uleb128 0x19
 4010 0321 03       		.uleb128 0x3
 4011 0322 0E       		.uleb128 0xe
 4012 0323 3A       		.uleb128 0x3a
 4013 0324 0B       		.uleb128 0xb
 4014 0325 3B       		.uleb128 0x3b
 4015 0326 0B       		.uleb128 0xb
 4016 0327 27       		.uleb128 0x27
 4017 0328 19       		.uleb128 0x19
 4018 0329 11       		.uleb128 0x11
 4019 032a 01       		.uleb128 0x1
 4020 032b 12       		.uleb128 0x12
 4021 032c 06       		.uleb128 0x6
 4022 032d 40       		.uleb128 0x40
 4023 032e 18       		.uleb128 0x18
 4024 032f 9742     		.uleb128 0x2117
 4025 0331 19       		.uleb128 0x19
 4026 0332 01       		.uleb128 0x1
 4027 0333 13       		.uleb128 0x13
 4028 0334 00       		.byte	0
 4029 0335 00       		.byte	0
 4030 0336 3D       		.uleb128 0x3d
 4031 0337 898201   		.uleb128 0x4109
 4032 033a 01       		.byte	0x1
 4033 033b 11       		.uleb128 0x11
 4034 033c 01       		.uleb128 0x1
 4035 033d 31       		.uleb128 0x31
 4036 033e 13       		.uleb128 0x13
 4037 033f 01       		.uleb128 0x1
 4038 0340 13       		.uleb128 0x13
 4039 0341 00       		.byte	0
 4040 0342 00       		.byte	0
 4041 0343 3E       		.uleb128 0x3e
 4042 0344 05       		.uleb128 0x5
 4043 0345 00       		.byte	0
 4044 0346 03       		.uleb128 0x3
 4045 0347 08       		.uleb128 0x8
 4046 0348 3A       		.uleb128 0x3a
 4047 0349 0B       		.uleb128 0xb
ARM GAS  /tmp/cczxrnjP.s 			page 72


 4048 034a 3B       		.uleb128 0x3b
 4049 034b 0B       		.uleb128 0xb
 4050 034c 49       		.uleb128 0x49
 4051 034d 13       		.uleb128 0x13
 4052 034e 02       		.uleb128 0x2
 4053 034f 18       		.uleb128 0x18
 4054 0350 00       		.byte	0
 4055 0351 00       		.byte	0
 4056 0352 3F       		.uleb128 0x3f
 4057 0353 1D       		.uleb128 0x1d
 4058 0354 01       		.byte	0x1
 4059 0355 31       		.uleb128 0x31
 4060 0356 13       		.uleb128 0x13
 4061 0357 11       		.uleb128 0x11
 4062 0358 01       		.uleb128 0x1
 4063 0359 12       		.uleb128 0x12
 4064 035a 06       		.uleb128 0x6
 4065 035b 58       		.uleb128 0x58
 4066 035c 0B       		.uleb128 0xb
 4067 035d 59       		.uleb128 0x59
 4068 035e 0B       		.uleb128 0xb
 4069 035f 00       		.byte	0
 4070 0360 00       		.byte	0
 4071 0361 40       		.uleb128 0x40
 4072 0362 2E       		.uleb128 0x2e
 4073 0363 01       		.byte	0x1
 4074 0364 03       		.uleb128 0x3
 4075 0365 0E       		.uleb128 0xe
 4076 0366 3A       		.uleb128 0x3a
 4077 0367 0B       		.uleb128 0xb
 4078 0368 3B       		.uleb128 0x3b
 4079 0369 05       		.uleb128 0x5
 4080 036a 27       		.uleb128 0x27
 4081 036b 19       		.uleb128 0x19
 4082 036c 20       		.uleb128 0x20
 4083 036d 0B       		.uleb128 0xb
 4084 036e 01       		.uleb128 0x1
 4085 036f 13       		.uleb128 0x13
 4086 0370 00       		.byte	0
 4087 0371 00       		.byte	0
 4088 0372 41       		.uleb128 0x41
 4089 0373 2E       		.uleb128 0x2e
 4090 0374 00       		.byte	0
 4091 0375 03       		.uleb128 0x3
 4092 0376 0E       		.uleb128 0xe
 4093 0377 3A       		.uleb128 0x3a
 4094 0378 0B       		.uleb128 0xb
 4095 0379 3B       		.uleb128 0x3b
 4096 037a 05       		.uleb128 0x5
 4097 037b 27       		.uleb128 0x27
 4098 037c 19       		.uleb128 0x19
 4099 037d 20       		.uleb128 0x20
 4100 037e 0B       		.uleb128 0xb
 4101 037f 00       		.byte	0
 4102 0380 00       		.byte	0
 4103 0381 42       		.uleb128 0x42
 4104 0382 2E       		.uleb128 0x2e
ARM GAS  /tmp/cczxrnjP.s 			page 73


 4105 0383 01       		.byte	0x1
 4106 0384 03       		.uleb128 0x3
 4107 0385 0E       		.uleb128 0xe
 4108 0386 3A       		.uleb128 0x3a
 4109 0387 0B       		.uleb128 0xb
 4110 0388 3B       		.uleb128 0x3b
 4111 0389 05       		.uleb128 0x5
 4112 038a 27       		.uleb128 0x27
 4113 038b 19       		.uleb128 0x19
 4114 038c 49       		.uleb128 0x49
 4115 038d 13       		.uleb128 0x13
 4116 038e 20       		.uleb128 0x20
 4117 038f 0B       		.uleb128 0xb
 4118 0390 01       		.uleb128 0x1
 4119 0391 13       		.uleb128 0x13
 4120 0392 00       		.byte	0
 4121 0393 00       		.byte	0
 4122 0394 43       		.uleb128 0x43
 4123 0395 2E       		.uleb128 0x2e
 4124 0396 01       		.byte	0x1
 4125 0397 31       		.uleb128 0x31
 4126 0398 13       		.uleb128 0x13
 4127 0399 11       		.uleb128 0x11
 4128 039a 01       		.uleb128 0x1
 4129 039b 12       		.uleb128 0x12
 4130 039c 06       		.uleb128 0x6
 4131 039d 40       		.uleb128 0x40
 4132 039e 18       		.uleb128 0x18
 4133 039f 9742     		.uleb128 0x2117
 4134 03a1 19       		.uleb128 0x19
 4135 03a2 01       		.uleb128 0x1
 4136 03a3 13       		.uleb128 0x13
 4137 03a4 00       		.byte	0
 4138 03a5 00       		.byte	0
 4139 03a6 44       		.uleb128 0x44
 4140 03a7 05       		.uleb128 0x5
 4141 03a8 00       		.byte	0
 4142 03a9 31       		.uleb128 0x31
 4143 03aa 13       		.uleb128 0x13
 4144 03ab 00       		.byte	0
 4145 03ac 00       		.byte	0
 4146 03ad 45       		.uleb128 0x45
 4147 03ae 898201   		.uleb128 0x4109
 4148 03b1 01       		.byte	0x1
 4149 03b2 11       		.uleb128 0x11
 4150 03b3 01       		.uleb128 0x1
 4151 03b4 9542     		.uleb128 0x2115
 4152 03b6 19       		.uleb128 0x19
 4153 03b7 31       		.uleb128 0x31
 4154 03b8 13       		.uleb128 0x13
 4155 03b9 00       		.byte	0
 4156 03ba 00       		.byte	0
 4157 03bb 46       		.uleb128 0x46
 4158 03bc 2E       		.uleb128 0x2e
 4159 03bd 00       		.byte	0
 4160 03be 3F       		.uleb128 0x3f
 4161 03bf 19       		.uleb128 0x19
ARM GAS  /tmp/cczxrnjP.s 			page 74


 4162 03c0 3C       		.uleb128 0x3c
 4163 03c1 19       		.uleb128 0x19
 4164 03c2 6E       		.uleb128 0x6e
 4165 03c3 0E       		.uleb128 0xe
 4166 03c4 03       		.uleb128 0x3
 4167 03c5 0E       		.uleb128 0xe
 4168 03c6 3A       		.uleb128 0x3a
 4169 03c7 0B       		.uleb128 0xb
 4170 03c8 3B       		.uleb128 0x3b
 4171 03c9 05       		.uleb128 0x5
 4172 03ca 00       		.byte	0
 4173 03cb 00       		.byte	0
 4174 03cc 00       		.byte	0
 4175              		.section	.debug_loc,"",%progbits
 4176              	.Ldebug_loc0:
 4177              	.LLST37:
 4178 0000 00000000 		.4byte	.LVL62
 4179 0004 18000000 		.4byte	.LVL65
 4180 0008 0100     		.2byte	0x1
 4181 000a 50       		.byte	0x50
 4182 000b 18000000 		.4byte	.LVL65
 4183 000f 21000000 		.4byte	.LVL67-1
 4184 0013 0100     		.2byte	0x1
 4185 0015 53       		.byte	0x53
 4186 0016 21000000 		.4byte	.LVL67-1
 4187 001a 5C000000 		.4byte	.LFE300
 4188 001e 0400     		.2byte	0x4
 4189 0020 F3       		.byte	0xf3
 4190 0021 01       		.uleb128 0x1
 4191 0022 50       		.byte	0x50
 4192 0023 9F       		.byte	0x9f
 4193 0024 00000000 		.4byte	0
 4194 0028 00000000 		.4byte	0
 4195              	.LLST38:
 4196 002c 00000000 		.4byte	.LVL62
 4197 0030 21000000 		.4byte	.LVL67-1
 4198 0034 0100     		.2byte	0x1
 4199 0036 51       		.byte	0x51
 4200 0037 21000000 		.4byte	.LVL67-1
 4201 003b 5C000000 		.4byte	.LFE300
 4202 003f 0100     		.2byte	0x1
 4203 0041 55       		.byte	0x55
 4204 0042 00000000 		.4byte	0
 4205 0046 00000000 		.4byte	0
 4206              	.LLST39:
 4207 004a 48000000 		.4byte	.LVL71
 4208 004e 50000000 		.4byte	.LVL73
 4209 0052 0100     		.2byte	0x1
 4210 0054 50       		.byte	0x50
 4211 0055 54000000 		.4byte	.LVL74
 4212 0059 5C000000 		.4byte	.LFE300
 4213 005d 0200     		.2byte	0x2
 4214 005f 30       		.byte	0x30
 4215 0060 9F       		.byte	0x9f
 4216 0061 00000000 		.4byte	0
 4217 0065 00000000 		.4byte	0
 4218              	.LLST43:
ARM GAS  /tmp/cczxrnjP.s 			page 75


 4219 0069 34000000 		.4byte	.LVL68
 4220 006d 48000000 		.4byte	.LVL71
 4221 0071 0100     		.2byte	0x1
 4222 0073 54       		.byte	0x54
 4223 0074 00000000 		.4byte	0
 4224 0078 00000000 		.4byte	0
 4225              	.LLST44:
 4226 007c 34000000 		.4byte	.LVL68
 4227 0080 40000000 		.4byte	.LVL69
 4228 0084 0100     		.2byte	0x1
 4229 0086 55       		.byte	0x55
 4230 0087 00000000 		.4byte	0
 4231 008b 00000000 		.4byte	0
 4232              	.LLST45:
 4233 008f 34000000 		.4byte	.LVL68
 4234 0093 40000000 		.4byte	.LVL69
 4235 0097 0100     		.2byte	0x1
 4236 0099 54       		.byte	0x54
 4237 009a 00000000 		.4byte	0
 4238 009e 00000000 		.4byte	0
 4239              	.LLST40:
 4240 00a2 00000000 		.4byte	.LVL62
 4241 00a6 0C000000 		.4byte	.LVL63
 4242 00aa 0300     		.2byte	0x3
 4243 00ac 08       		.byte	0x8
 4244 00ad 20       		.byte	0x20
 4245 00ae 9F       		.byte	0x9f
 4246 00af 00000000 		.4byte	0
 4247 00b3 00000000 		.4byte	0
 4248              	.LLST41:
 4249 00b7 16000000 		.4byte	.LVL64
 4250 00bb 18000000 		.4byte	.LVL65
 4251 00bf 0100     		.2byte	0x1
 4252 00c1 50       		.byte	0x50
 4253 00c2 18000000 		.4byte	.LVL65
 4254 00c6 1E000000 		.4byte	.LVL66
 4255 00ca 0100     		.2byte	0x1
 4256 00cc 53       		.byte	0x53
 4257 00cd 00000000 		.4byte	0
 4258 00d1 00000000 		.4byte	0
 4259              	.LLST42:
 4260 00d5 18000000 		.4byte	.LVL65
 4261 00d9 1E000000 		.4byte	.LVL66
 4262 00dd 0100     		.2byte	0x1
 4263 00df 50       		.byte	0x50
 4264 00e0 00000000 		.4byte	0
 4265 00e4 00000000 		.4byte	0
 4266              	.LLST46:
 4267 00e8 48000000 		.4byte	.LVL71
 4268 00ec 4E000000 		.4byte	.LVL72
 4269 00f0 0200     		.2byte	0x2
 4270 00f2 30       		.byte	0x30
 4271 00f3 9F       		.byte	0x9f
 4272 00f4 00000000 		.4byte	0
 4273 00f8 00000000 		.4byte	0
 4274              	.LLST33:
 4275 00fc 00000000 		.4byte	.LVL54
ARM GAS  /tmp/cczxrnjP.s 			page 76


 4276 0100 08000000 		.4byte	.LVL55
 4277 0104 0100     		.2byte	0x1
 4278 0106 50       		.byte	0x50
 4279 0107 08000000 		.4byte	.LVL55
 4280 010b 2A000000 		.4byte	.LFE299
 4281 010f 0100     		.2byte	0x1
 4282 0111 54       		.byte	0x54
 4283 0112 00000000 		.4byte	0
 4284 0116 00000000 		.4byte	0
 4285              	.LLST34:
 4286 011a 00000000 		.4byte	.LVL54
 4287 011e 08000000 		.4byte	.LVL55
 4288 0122 0100     		.2byte	0x1
 4289 0124 51       		.byte	0x51
 4290 0125 08000000 		.4byte	.LVL55
 4291 0129 2A000000 		.4byte	.LFE299
 4292 012d 0100     		.2byte	0x1
 4293 012f 55       		.byte	0x55
 4294 0130 00000000 		.4byte	0
 4295 0134 00000000 		.4byte	0
 4296              	.LLST35:
 4297 0138 18000000 		.4byte	.LVL57
 4298 013c 20000000 		.4byte	.LVL59
 4299 0140 0100     		.2byte	0x1
 4300 0142 54       		.byte	0x54
 4301 0143 00000000 		.4byte	0
 4302 0147 00000000 		.4byte	0
 4303              	.LLST36:
 4304 014b 1A000000 		.4byte	.LVL58
 4305 014f 20000000 		.4byte	.LVL59
 4306 0153 0100     		.2byte	0x1
 4307 0155 50       		.byte	0x50
 4308 0156 00000000 		.4byte	0
 4309 015a 00000000 		.4byte	0
 4310              	.LLST30:
 4311 015e 00000000 		.4byte	.LVL47
 4312 0162 0E000000 		.4byte	.LVL49
 4313 0166 0100     		.2byte	0x1
 4314 0168 50       		.byte	0x50
 4315 0169 0E000000 		.4byte	.LVL49
 4316 016d 16000000 		.4byte	.LVL51
 4317 0171 0100     		.2byte	0x1
 4318 0173 53       		.byte	0x53
 4319 0174 16000000 		.4byte	.LVL51
 4320 0178 18000000 		.4byte	.LVL52
 4321 017c 0200     		.2byte	0x2
 4322 017e 72       		.byte	0x72
 4323 017f 04       		.sleb128 4
 4324 0180 18000000 		.4byte	.LVL52
 4325 0184 1C000000 		.4byte	.LVL53
 4326 0188 0400     		.2byte	0x4
 4327 018a F3       		.byte	0xf3
 4328 018b 01       		.uleb128 0x1
 4329 018c 50       		.byte	0x50
 4330 018d 9F       		.byte	0x9f
 4331 018e 1C000000 		.4byte	.LVL53
 4332 0192 1E000000 		.4byte	.LFE298
ARM GAS  /tmp/cczxrnjP.s 			page 77


 4333 0196 0100     		.2byte	0x1
 4334 0198 50       		.byte	0x50
 4335 0199 00000000 		.4byte	0
 4336 019d 00000000 		.4byte	0
 4337              	.LLST31:
 4338 01a1 0C000000 		.4byte	.LVL48
 4339 01a5 0E000000 		.4byte	.LVL49
 4340 01a9 0100     		.2byte	0x1
 4341 01ab 50       		.byte	0x50
 4342 01ac 0E000000 		.4byte	.LVL49
 4343 01b0 14000000 		.4byte	.LVL50
 4344 01b4 0100     		.2byte	0x1
 4345 01b6 53       		.byte	0x53
 4346 01b7 00000000 		.4byte	0
 4347 01bb 00000000 		.4byte	0
 4348              	.LLST32:
 4349 01bf 0E000000 		.4byte	.LVL49
 4350 01c3 14000000 		.4byte	.LVL50
 4351 01c7 0100     		.2byte	0x1
 4352 01c9 50       		.byte	0x50
 4353 01ca 00000000 		.4byte	0
 4354 01ce 00000000 		.4byte	0
 4355              	.LLST25:
 4356 01d2 00000000 		.4byte	.LVL40
 4357 01d6 16000000 		.4byte	.LVL43
 4358 01da 0100     		.2byte	0x1
 4359 01dc 50       		.byte	0x50
 4360 01dd 16000000 		.4byte	.LVL43
 4361 01e1 21000000 		.4byte	.LVL45-1
 4362 01e5 0100     		.2byte	0x1
 4363 01e7 53       		.byte	0x53
 4364 01e8 21000000 		.4byte	.LVL45-1
 4365 01ec 2A000000 		.4byte	.LFE297
 4366 01f0 0400     		.2byte	0x4
 4367 01f2 F3       		.byte	0xf3
 4368 01f3 01       		.uleb128 0x1
 4369 01f4 50       		.byte	0x50
 4370 01f5 9F       		.byte	0x9f
 4371 01f6 00000000 		.4byte	0
 4372 01fa 00000000 		.4byte	0
 4373              	.LLST26:
 4374 01fe 00000000 		.4byte	.LVL40
 4375 0202 0A000000 		.4byte	.LVL41
 4376 0206 0300     		.2byte	0x3
 4377 0208 08       		.byte	0x8
 4378 0209 20       		.byte	0x20
 4379 020a 9F       		.byte	0x9f
 4380 020b 00000000 		.4byte	0
 4381 020f 00000000 		.4byte	0
 4382              	.LLST27:
 4383 0213 14000000 		.4byte	.LVL42
 4384 0217 16000000 		.4byte	.LVL43
 4385 021b 0100     		.2byte	0x1
 4386 021d 50       		.byte	0x50
 4387 021e 16000000 		.4byte	.LVL43
 4388 0222 1E000000 		.4byte	.LVL44
 4389 0226 0100     		.2byte	0x1
ARM GAS  /tmp/cczxrnjP.s 			page 78


 4390 0228 53       		.byte	0x53
 4391 0229 00000000 		.4byte	0
 4392 022d 00000000 		.4byte	0
 4393              	.LLST28:
 4394 0231 16000000 		.4byte	.LVL43
 4395 0235 1E000000 		.4byte	.LVL44
 4396 0239 0100     		.2byte	0x1
 4397 023b 50       		.byte	0x50
 4398 023c 00000000 		.4byte	0
 4399 0240 00000000 		.4byte	0
 4400              	.LLST29:
 4401 0244 22000000 		.4byte	.LVL45
 4402 0248 28000000 		.4byte	.LVL46
 4403 024c 0200     		.2byte	0x2
 4404 024e 30       		.byte	0x30
 4405 024f 9F       		.byte	0x9f
 4406 0250 00000000 		.4byte	0
 4407 0254 00000000 		.4byte	0
 4408              	.LLST21:
 4409 0258 00000000 		.4byte	.LVL36
 4410 025c 0B000000 		.4byte	.LVL38-1
 4411 0260 0100     		.2byte	0x1
 4412 0262 50       		.byte	0x50
 4413 0263 0B000000 		.4byte	.LVL38-1
 4414 0267 14000000 		.4byte	.LFE295
 4415 026b 0400     		.2byte	0x4
 4416 026d F3       		.byte	0xf3
 4417 026e 01       		.uleb128 0x1
 4418 026f 50       		.byte	0x50
 4419 0270 9F       		.byte	0x9f
 4420 0271 00000000 		.4byte	0
 4421 0275 00000000 		.4byte	0
 4422              	.LLST22:
 4423 0279 00000000 		.4byte	.LVL36
 4424 027d 0B000000 		.4byte	.LVL38-1
 4425 0281 0100     		.2byte	0x1
 4426 0283 51       		.byte	0x51
 4427 0284 0B000000 		.4byte	.LVL38-1
 4428 0288 14000000 		.4byte	.LFE295
 4429 028c 0400     		.2byte	0x4
 4430 028e F3       		.byte	0xf3
 4431 028f 01       		.uleb128 0x1
 4432 0290 51       		.byte	0x51
 4433 0291 9F       		.byte	0x9f
 4434 0292 00000000 		.4byte	0
 4435 0296 00000000 		.4byte	0
 4436              	.LLST23:
 4437 029a 00000000 		.4byte	.LVL36
 4438 029e 08000000 		.4byte	.LVL37
 4439 02a2 0300     		.2byte	0x3
 4440 02a4 08       		.byte	0x8
 4441 02a5 20       		.byte	0x20
 4442 02a6 9F       		.byte	0x9f
 4443 02a7 00000000 		.4byte	0
 4444 02ab 00000000 		.4byte	0
 4445              	.LLST24:
 4446 02af 0C000000 		.4byte	.LVL38
ARM GAS  /tmp/cczxrnjP.s 			page 79


 4447 02b3 12000000 		.4byte	.LVL39
 4448 02b7 0200     		.2byte	0x2
 4449 02b9 30       		.byte	0x30
 4450 02ba 9F       		.byte	0x9f
 4451 02bb 00000000 		.4byte	0
 4452 02bf 00000000 		.4byte	0
 4453              	.LLST13:
 4454 02c3 00000000 		.4byte	.LVL24
 4455 02c7 0B000000 		.4byte	.LVL26-1
 4456 02cb 0100     		.2byte	0x1
 4457 02cd 50       		.byte	0x50
 4458 02ce 0B000000 		.4byte	.LVL26-1
 4459 02d2 14000000 		.4byte	.LFE293
 4460 02d6 0400     		.2byte	0x4
 4461 02d8 F3       		.byte	0xf3
 4462 02d9 01       		.uleb128 0x1
 4463 02da 50       		.byte	0x50
 4464 02db 9F       		.byte	0x9f
 4465 02dc 00000000 		.4byte	0
 4466 02e0 00000000 		.4byte	0
 4467              	.LLST14:
 4468 02e4 00000000 		.4byte	.LVL24
 4469 02e8 08000000 		.4byte	.LVL25
 4470 02ec 0300     		.2byte	0x3
 4471 02ee 08       		.byte	0x8
 4472 02ef 20       		.byte	0x20
 4473 02f0 9F       		.byte	0x9f
 4474 02f1 00000000 		.4byte	0
 4475 02f5 00000000 		.4byte	0
 4476              	.LLST15:
 4477 02f9 0C000000 		.4byte	.LVL26
 4478 02fd 12000000 		.4byte	.LVL27
 4479 0301 0200     		.2byte	0x2
 4480 0303 30       		.byte	0x30
 4481 0304 9F       		.byte	0x9f
 4482 0305 00000000 		.4byte	0
 4483 0309 00000000 		.4byte	0
 4484              	.LLST1:
 4485 030d 00000000 		.4byte	.LVL2
 4486 0311 0C000000 		.4byte	.LVL4
 4487 0315 0100     		.2byte	0x1
 4488 0317 50       		.byte	0x50
 4489 0318 0C000000 		.4byte	.LVL4
 4490 031c 24000000 		.4byte	.LFE292
 4491 0320 0100     		.2byte	0x1
 4492 0322 54       		.byte	0x54
 4493 0323 00000000 		.4byte	0
 4494 0327 00000000 		.4byte	0
 4495              	.LLST2:
 4496 032b 00000000 		.4byte	.LVL2
 4497 032f 0C000000 		.4byte	.LVL4
 4498 0333 0100     		.2byte	0x1
 4499 0335 51       		.byte	0x51
 4500 0336 0C000000 		.4byte	.LVL4
 4501 033a 24000000 		.4byte	.LFE292
 4502 033e 0400     		.2byte	0x4
 4503 0340 F3       		.byte	0xf3
ARM GAS  /tmp/cczxrnjP.s 			page 80


 4504 0341 01       		.uleb128 0x1
 4505 0342 51       		.byte	0x51
 4506 0343 9F       		.byte	0x9f
 4507 0344 00000000 		.4byte	0
 4508 0348 00000000 		.4byte	0
 4509              	.LLST3:
 4510 034c 14000000 		.4byte	.LVL6
 4511 0350 1C000000 		.4byte	.LVL8
 4512 0354 0100     		.2byte	0x1
 4513 0356 54       		.byte	0x54
 4514 0357 00000000 		.4byte	0
 4515 035b 00000000 		.4byte	0
 4516              	.LLST4:
 4517 035f 16000000 		.4byte	.LVL7
 4518 0363 1C000000 		.4byte	.LVL8
 4519 0367 0100     		.2byte	0x1
 4520 0369 50       		.byte	0x50
 4521 036a 00000000 		.4byte	0
 4522 036e 00000000 		.4byte	0
 4523              	.LLST5:
 4524 0372 00000000 		.4byte	.LVL10
 4525 0376 0B000000 		.4byte	.LVL12-1
 4526 037a 0100     		.2byte	0x1
 4527 037c 50       		.byte	0x50
 4528 037d 0B000000 		.4byte	.LVL12-1
 4529 0381 18000000 		.4byte	.LFE291
 4530 0385 0400     		.2byte	0x4
 4531 0387 F3       		.byte	0xf3
 4532 0388 01       		.uleb128 0x1
 4533 0389 50       		.byte	0x50
 4534 038a 9F       		.byte	0x9f
 4535 038b 00000000 		.4byte	0
 4536 038f 00000000 		.4byte	0
 4537              	.LLST6:
 4538 0393 00000000 		.4byte	.LVL10
 4539 0397 0B000000 		.4byte	.LVL12-1
 4540 039b 0100     		.2byte	0x1
 4541 039d 51       		.byte	0x51
 4542 039e 0B000000 		.4byte	.LVL12-1
 4543 03a2 18000000 		.4byte	.LFE291
 4544 03a6 0400     		.2byte	0x4
 4545 03a8 F3       		.byte	0xf3
 4546 03a9 01       		.uleb128 0x1
 4547 03aa 51       		.byte	0x51
 4548 03ab 9F       		.byte	0x9f
 4549 03ac 00000000 		.4byte	0
 4550 03b0 00000000 		.4byte	0
 4551              	.LLST7:
 4552 03b4 00000000 		.4byte	.LVL10
 4553 03b8 08000000 		.4byte	.LVL11
 4554 03bc 0300     		.2byte	0x3
 4555 03be 08       		.byte	0x8
 4556 03bf 20       		.byte	0x20
 4557 03c0 9F       		.byte	0x9f
 4558 03c1 00000000 		.4byte	0
 4559 03c5 00000000 		.4byte	0
 4560              	.LLST8:
ARM GAS  /tmp/cczxrnjP.s 			page 81


 4561 03c9 10000000 		.4byte	.LVL13
 4562 03cd 16000000 		.4byte	.LVL14
 4563 03d1 0200     		.2byte	0x2
 4564 03d3 30       		.byte	0x30
 4565 03d4 9F       		.byte	0x9f
 4566 03d5 00000000 		.4byte	0
 4567 03d9 00000000 		.4byte	0
 4568              	.LLST0:
 4569 03dd 00000000 		.4byte	.LVL0
 4570 03e1 04000000 		.4byte	.LVL1
 4571 03e5 0100     		.2byte	0x1
 4572 03e7 50       		.byte	0x50
 4573 03e8 00000000 		.4byte	0
 4574 03ec 00000000 		.4byte	0
 4575              	.LLST9:
 4576 03f0 00000000 		.4byte	.LVL15
 4577 03f4 1E000000 		.4byte	.LVL19
 4578 03f8 0100     		.2byte	0x1
 4579 03fa 50       		.byte	0x50
 4580 03fb 1E000000 		.4byte	.LVL19
 4581 03ff 28000000 		.4byte	.LVL22
 4582 0403 0400     		.2byte	0x4
 4583 0405 F3       		.byte	0xf3
 4584 0406 01       		.uleb128 0x1
 4585 0407 50       		.byte	0x50
 4586 0408 9F       		.byte	0x9f
 4587 0409 28000000 		.4byte	.LVL22
 4588 040d 2A000000 		.4byte	.LVL23
 4589 0411 0100     		.2byte	0x1
 4590 0413 50       		.byte	0x50
 4591 0414 2A000000 		.4byte	.LVL23
 4592 0418 30000000 		.4byte	.LFE294
 4593 041c 0400     		.2byte	0x4
 4594 041e F3       		.byte	0xf3
 4595 041f 01       		.uleb128 0x1
 4596 0420 50       		.byte	0x50
 4597 0421 9F       		.byte	0x9f
 4598 0422 00000000 		.4byte	0
 4599 0426 00000000 		.4byte	0
 4600              	.LLST10:
 4601 042a 0C000000 		.4byte	.LVL16
 4602 042e 1E000000 		.4byte	.LVL19
 4603 0432 0100     		.2byte	0x1
 4604 0434 50       		.byte	0x50
 4605 0435 1E000000 		.4byte	.LVL19
 4606 0439 26000000 		.4byte	.LVL21
 4607 043d 0400     		.2byte	0x4
 4608 043f F3       		.byte	0xf3
 4609 0440 01       		.uleb128 0x1
 4610 0441 50       		.byte	0x50
 4611 0442 9F       		.byte	0x9f
 4612 0443 00000000 		.4byte	0
 4613 0447 00000000 		.4byte	0
 4614              	.LLST11:
 4615 044b 12000000 		.4byte	.LVL17
 4616 044f 1C000000 		.4byte	.LVL18
 4617 0453 0100     		.2byte	0x1
ARM GAS  /tmp/cczxrnjP.s 			page 82


 4618 0455 50       		.byte	0x50
 4619 0456 00000000 		.4byte	0
 4620 045a 00000000 		.4byte	0
 4621              	.LLST12:
 4622 045e 12000000 		.4byte	.LVL17
 4623 0462 1C000000 		.4byte	.LVL18
 4624 0466 0100     		.2byte	0x1
 4625 0468 53       		.byte	0x53
 4626 0469 00000000 		.4byte	0
 4627 046d 00000000 		.4byte	0
 4628              	.LLST16:
 4629 0471 00000000 		.4byte	.LVL28
 4630 0475 14000000 		.4byte	.LVL29
 4631 0479 0100     		.2byte	0x1
 4632 047b 50       		.byte	0x50
 4633 047c 14000000 		.4byte	.LVL29
 4634 0480 1A000000 		.4byte	.LVL30
 4635 0484 0400     		.2byte	0x4
 4636 0486 F3       		.byte	0xf3
 4637 0487 01       		.uleb128 0x1
 4638 0488 50       		.byte	0x50
 4639 0489 9F       		.byte	0x9f
 4640 048a 1A000000 		.4byte	.LVL30
 4641 048e 30000000 		.4byte	.LVL33
 4642 0492 0100     		.2byte	0x1
 4643 0494 50       		.byte	0x50
 4644 0495 30000000 		.4byte	.LVL33
 4645 0499 34000000 		.4byte	.LVL34
 4646 049d 0400     		.2byte	0x4
 4647 049f F3       		.byte	0xf3
 4648 04a0 01       		.uleb128 0x1
 4649 04a1 50       		.byte	0x50
 4650 04a2 9F       		.byte	0x9f
 4651 04a3 34000000 		.4byte	.LVL34
 4652 04a7 36000000 		.4byte	.LVL35
 4653 04ab 0100     		.2byte	0x1
 4654 04ad 50       		.byte	0x50
 4655 04ae 36000000 		.4byte	.LVL35
 4656 04b2 3C000000 		.4byte	.LFE296
 4657 04b6 0400     		.2byte	0x4
 4658 04b8 F3       		.byte	0xf3
 4659 04b9 01       		.uleb128 0x1
 4660 04ba 50       		.byte	0x50
 4661 04bb 9F       		.byte	0x9f
 4662 04bc 00000000 		.4byte	0
 4663 04c0 00000000 		.4byte	0
 4664              	.LLST17:
 4665 04c4 00000000 		.4byte	.LVL28
 4666 04c8 33000000 		.4byte	.LVL34-1
 4667 04cc 0100     		.2byte	0x1
 4668 04ce 51       		.byte	0x51
 4669 04cf 33000000 		.4byte	.LVL34-1
 4670 04d3 34000000 		.4byte	.LVL34
 4671 04d7 0400     		.2byte	0x4
 4672 04d9 F3       		.byte	0xf3
 4673 04da 01       		.uleb128 0x1
 4674 04db 51       		.byte	0x51
ARM GAS  /tmp/cczxrnjP.s 			page 83


 4675 04dc 9F       		.byte	0x9f
 4676 04dd 34000000 		.4byte	.LVL34
 4677 04e1 3C000000 		.4byte	.LFE296
 4678 04e5 0100     		.2byte	0x1
 4679 04e7 51       		.byte	0x51
 4680 04e8 00000000 		.4byte	0
 4681 04ec 00000000 		.4byte	0
 4682              	.LLST18:
 4683 04f0 1A000000 		.4byte	.LVL30
 4684 04f4 30000000 		.4byte	.LVL33
 4685 04f8 0100     		.2byte	0x1
 4686 04fa 50       		.byte	0x50
 4687 04fb 30000000 		.4byte	.LVL33
 4688 04ff 34000000 		.4byte	.LVL34
 4689 0503 0400     		.2byte	0x4
 4690 0505 F3       		.byte	0xf3
 4691 0506 01       		.uleb128 0x1
 4692 0507 50       		.byte	0x50
 4693 0508 9F       		.byte	0x9f
 4694 0509 00000000 		.4byte	0
 4695 050d 00000000 		.4byte	0
 4696              	.LLST19:
 4697 0511 20000000 		.4byte	.LVL31
 4698 0515 2E000000 		.4byte	.LVL32
 4699 0519 0100     		.2byte	0x1
 4700 051b 50       		.byte	0x50
 4701 051c 00000000 		.4byte	0
 4702 0520 00000000 		.4byte	0
 4703              	.LLST20:
 4704 0524 20000000 		.4byte	.LVL31
 4705 0528 2E000000 		.4byte	.LVL32
 4706 052c 0100     		.2byte	0x1
 4707 052e 53       		.byte	0x53
 4708 052f 00000000 		.4byte	0
 4709 0533 00000000 		.4byte	0
 4710              		.section	.debug_aranges,"",%progbits
 4711 0000 6C000000 		.4byte	0x6c
 4712 0004 0200     		.2byte	0x2
 4713 0006 00000000 		.4byte	.Ldebug_info0
 4714 000a 04       		.byte	0x4
 4715 000b 00       		.byte	0
 4716 000c 0000     		.2byte	0
 4717 000e 0000     		.2byte	0
 4718 0010 00000000 		.4byte	.LFB290
 4719 0014 08000000 		.4byte	.LFE290-.LFB290
 4720 0018 00000000 		.4byte	.LFB292
 4721 001c 24000000 		.4byte	.LFE292-.LFB292
 4722 0020 00000000 		.4byte	.LFB291
 4723 0024 18000000 		.4byte	.LFE291-.LFB291
 4724 0028 00000000 		.4byte	.LFB294
 4725 002c 30000000 		.4byte	.LFE294-.LFB294
 4726 0030 00000000 		.4byte	.LFB293
 4727 0034 14000000 		.4byte	.LFE293-.LFB293
 4728 0038 00000000 		.4byte	.LFB296
 4729 003c 3C000000 		.4byte	.LFE296-.LFB296
 4730 0040 00000000 		.4byte	.LFB295
 4731 0044 14000000 		.4byte	.LFE295-.LFB295
ARM GAS  /tmp/cczxrnjP.s 			page 84


 4732 0048 00000000 		.4byte	.LFB297
 4733 004c 2A000000 		.4byte	.LFE297-.LFB297
 4734 0050 00000000 		.4byte	.LFB298
 4735 0054 1E000000 		.4byte	.LFE298-.LFB298
 4736 0058 00000000 		.4byte	.LFB299
 4737 005c 2A000000 		.4byte	.LFE299-.LFB299
 4738 0060 00000000 		.4byte	.LFB300
 4739 0064 5C000000 		.4byte	.LFE300-.LFB300
 4740 0068 00000000 		.4byte	0
 4741 006c 00000000 		.4byte	0
 4742              		.section	.debug_ranges,"",%progbits
 4743              	.Ldebug_ranges0:
 4744 0000 1A000000 		.4byte	.LBB122
 4745 0004 26000000 		.4byte	.LBE122
 4746 0008 2A000000 		.4byte	.LBB129
 4747 000c 34000000 		.4byte	.LBE129
 4748 0010 00000000 		.4byte	0
 4749 0014 00000000 		.4byte	0
 4750 0018 20000000 		.4byte	.LBB124
 4751 001c 26000000 		.4byte	.LBE124
 4752 0020 2A000000 		.4byte	.LBB127
 4753 0024 2E000000 		.4byte	.LBE127
 4754 0028 00000000 		.4byte	0
 4755 002c 00000000 		.4byte	0
 4756 0030 02000000 		.4byte	.LBB139
 4757 0034 04000000 		.4byte	.LBE139
 4758 0038 06000000 		.4byte	.LBB146
 4759 003c 0A000000 		.4byte	.LBE146
 4760 0040 00000000 		.4byte	0
 4761 0044 00000000 		.4byte	0
 4762 0048 14000000 		.4byte	.LBB147
 4763 004c 1A000000 		.4byte	.LBE147
 4764 0050 1C000000 		.4byte	.LBB150
 4765 0054 1E000000 		.4byte	.LBE150
 4766 0058 00000000 		.4byte	0
 4767 005c 00000000 		.4byte	0
 4768 0060 02000000 		.4byte	.LBB161
 4769 0064 04000000 		.4byte	.LBE161
 4770 0068 08000000 		.4byte	.LBB168
 4771 006c 0C000000 		.4byte	.LBE168
 4772 0070 00000000 		.4byte	0
 4773 0074 00000000 		.4byte	0
 4774 0078 34000000 		.4byte	.LBB172
 4775 007c 3A000000 		.4byte	.LBE172
 4776 0080 3C000000 		.4byte	.LBB175
 4777 0084 40000000 		.4byte	.LBE175
 4778 0088 00000000 		.4byte	0
 4779 008c 00000000 		.4byte	0
 4780 0090 00000000 		.4byte	.LFB290
 4781 0094 08000000 		.4byte	.LFE290
 4782 0098 00000000 		.4byte	.LFB292
 4783 009c 24000000 		.4byte	.LFE292
 4784 00a0 00000000 		.4byte	.LFB291
 4785 00a4 18000000 		.4byte	.LFE291
 4786 00a8 00000000 		.4byte	.LFB294
 4787 00ac 30000000 		.4byte	.LFE294
 4788 00b0 00000000 		.4byte	.LFB293
ARM GAS  /tmp/cczxrnjP.s 			page 85


 4789 00b4 14000000 		.4byte	.LFE293
 4790 00b8 00000000 		.4byte	.LFB296
 4791 00bc 3C000000 		.4byte	.LFE296
 4792 00c0 00000000 		.4byte	.LFB295
 4793 00c4 14000000 		.4byte	.LFE295
 4794 00c8 00000000 		.4byte	.LFB297
 4795 00cc 2A000000 		.4byte	.LFE297
 4796 00d0 00000000 		.4byte	.LFB298
 4797 00d4 1E000000 		.4byte	.LFE298
 4798 00d8 00000000 		.4byte	.LFB299
 4799 00dc 2A000000 		.4byte	.LFE299
 4800 00e0 00000000 		.4byte	.LFB300
 4801 00e4 5C000000 		.4byte	.LFE300
 4802 00e8 00000000 		.4byte	0
 4803 00ec 00000000 		.4byte	0
 4804              		.section	.debug_line,"",%progbits
 4805              	.Ldebug_line0:
 4806 0000 64050000 		.section	.debug_str,"MS",%progbits,1
 4806      02004B03 
 4806      00000201 
 4806      FB0E0D00 
 4806      01010101 
 4807              	.LASF54:
 4808 0000 72656164 		.ascii	"ready_list_t\000"
 4808      795F6C69 
 4808      73745F74 
 4808      00
 4809              	.LASF162:
 4810 000d 71756575 		.ascii	"queue_insert\000"
 4810      655F696E 
 4810      73657274 
 4810      00
 4811              	.LASF148:
 4812 001a 63685365 		.ascii	"chSemSignalI\000"
 4812      6D536967 
 4812      6E616C49 
 4812      00
 4813              	.LASF4:
 4814 0027 73697A65 		.ascii	"size_t\000"
 4814      5F7400
 4815              	.LASF60:
 4816 002e 64656C74 		.ascii	"delta\000"
 4816      6100
 4817              	.LASF86:
 4818 0034 7264796D 		.ascii	"rdymsg\000"
 4818      736700
 4819              	.LASF20:
 4820 003b 75696E74 		.ascii	"uint64_t\000"
 4820      36345F74 
 4820      00
 4821              	.LASF5:
 4822 0044 5F5F7569 		.ascii	"__uint8_t\000"
 4822      6E74385F 
 4822      7400
 4823              	.LASF175:
 4824 004e 2E2E2F2E 		.ascii	"../../modules/ChibiOS/os/rt/src/chsem.c\000"
 4824      2E2F6D6F 
ARM GAS  /tmp/cczxrnjP.s 			page 86


 4824      64756C65 
 4824      732F4368 
 4824      6962694F 
 4825              	.LASF53:
 4826 0076 70726576 		.ascii	"prev\000"
 4826      00
 4827              	.LASF83:
 4828 007b 706F7274 		.ascii	"port_intctx\000"
 4828      5F696E74 
 4828      63747800 
 4829              	.LASF65:
 4830 0087 73797374 		.ascii	"system_debug_t\000"
 4830      656D5F64 
 4830      65627567 
 4830      5F7400
 4831              	.LASF130:
 4832 0096 70726F76 		.ascii	"provider\000"
 4832      69646572 
 4832      00
 4833              	.LASF163:
 4834 009f 71756575 		.ascii	"queue_init\000"
 4834      655F696E 
 4834      697400
 4835              	.LASF140:
 4836 00aa 73656D5F 		.ascii	"sem_list\000"
 4836      6C697374 
 4836      00
 4837              	.LASF166:
 4838 00b3 706F7274 		.ascii	"port_lock\000"
 4838      5F6C6F63 
 4838      6B00
 4839              	.LASF122:
 4840 00bd 6D656D67 		.ascii	"memgetfunc_t\000"
 4840      65746675 
 4840      6E635F74 
 4840      00
 4841              	.LASF160:
 4842 00ca 71756575 		.ascii	"queue_lifo_remove\000"
 4842      655F6C69 
 4842      666F5F72 
 4842      656D6F76 
 4842      6500
 4843              	.LASF149:
 4844 00dc 63685365 		.ascii	"chSemSignal\000"
 4844      6D536967 
 4844      6E616C00 
 4845              	.LASF87:
 4846 00e8 65786974 		.ascii	"exitcode\000"
 4846      636F6465 
 4846      00
 4847              	.LASF72:
 4848 00f1 6D61696E 		.ascii	"mainthread\000"
 4848      74687265 
 4848      616400
 4849              	.LASF90:
 4850 00fc 73656E74 		.ascii	"sentmsg\000"
 4850      6D736700 
ARM GAS  /tmp/cczxrnjP.s 			page 87


 4851              	.LASF147:
 4852 0104 63685365 		.ascii	"chSemAddCounterI\000"
 4852      6D416464 
 4852      436F756E 
 4852      74657249 
 4852      00
 4853              	.LASF76:
 4854 0115 49544D5F 		.ascii	"ITM_RxBuffer\000"
 4854      52784275 
 4854      66666572 
 4854      00
 4855              	.LASF133:
 4856 0122 64796E5F 		.ascii	"dyn_element_t\000"
 4856      656C656D 
 4856      656E745F 
 4856      7400
 4857              	.LASF50:
 4858 0130 6E657874 		.ascii	"next\000"
 4858      00
 4859              	.LASF52:
 4860 0135 63685F74 		.ascii	"ch_threads_queue\000"
 4860      68726561 
 4860      64735F71 
 4860      75657565 
 4860      00
 4861              	.LASF1:
 4862 0146 6C6F6E67 		.ascii	"long long int\000"
 4862      206C6F6E 
 4862      6720696E 
 4862      7400
 4863              	.LASF3:
 4864 0154 7369676E 		.ascii	"signed char\000"
 4864      65642063 
 4864      68617200 
 4865              	.LASF151:
 4866 0160 63685365 		.ascii	"chSemSignalWait\000"
 4866      6D536967 
 4866      6E616C57 
 4866      61697400 
 4867              	.LASF101:
 4868 0170 73697A65 		.ascii	"size\000"
 4868      00
 4869              	.LASF15:
 4870 0175 6C6F6E67 		.ascii	"long long unsigned int\000"
 4870      206C6F6E 
 4870      6720756E 
 4870      7369676E 
 4870      65642069 
 4871              	.LASF174:
 4872 018c 474E5520 		.ascii	"GNU C11 6.3.1 20170620 (release) [ARM/embedded-6-br"
 4872      43313120 
 4872      362E332E 
 4872      31203230 
 4872      31373036 
 4873 01bf 616E6368 		.ascii	"anch revision 249437] -mcpu=cortex-m4 -mfloat-abi=h"
 4873      20726576 
 4873      6973696F 
ARM GAS  /tmp/cczxrnjP.s 			page 88


 4873      6E203234 
 4873      39343337 
 4874 01f2 61726420 		.ascii	"ard -mfpu=fpv4-sp-d16 -mno-thumb-interwork -mthumb "
 4874      2D6D6670 
 4874      753D6670 
 4874      76342D73 
 4874      702D6431 
 4875 0225 2D67202D 		.ascii	"-g -Os -fomit-frame-pointer -falign-functions=16 -f"
 4875      4F73202D 
 4875      666F6D69 
 4875      742D6672 
 4875      616D652D 
 4876 0258 66756E63 		.ascii	"function-sections -fdata-sections -fno-common -fsin"
 4876      74696F6E 
 4876      2D736563 
 4876      74696F6E 
 4876      73202D66 
 4877 028b 676C652D 		.ascii	"gle-precision-constant\000"
 4877      70726563 
 4877      6973696F 
 4877      6E2D636F 
 4877      6E737461 
 4878              	.LASF168:
 4879 02a2 62617365 		.ascii	"basePri\000"
 4879      50726900 
 4880              	.LASF71:
 4881 02aa 76746C69 		.ascii	"vtlist\000"
 4881      737400
 4882              	.LASF165:
 4883 02b1 706F7274 		.ascii	"port_unlock\000"
 4883      5F756E6C 
 4883      6F636B00 
 4884              	.LASF41:
 4885 02bd 6D736771 		.ascii	"msgqueue\000"
 4885      75657565 
 4885      00
 4886              	.LASF37:
 4887 02c6 73746174 		.ascii	"state\000"
 4887      6500
 4888              	.LASF11:
 4889 02cc 6C6F6E67 		.ascii	"long int\000"
 4889      20696E74 
 4889      00
 4890              	.LASF23:
 4891 02d5 74737461 		.ascii	"tstate_t\000"
 4891      74655F74 
 4891      00
 4892              	.LASF134:
 4893 02de 63685F64 		.ascii	"ch_dyn_list\000"
 4893      796E5F6C 
 4893      69737400 
 4894              	.LASF61:
 4895 02ea 66756E63 		.ascii	"func\000"
 4895      00
 4896              	.LASF117:
 4897 02ef 63686465 		.ascii	"chdebug_t\000"
 4897      6275675F 
ARM GAS  /tmp/cczxrnjP.s 			page 89


 4897      7400
 4898              	.LASF115:
 4899 02f9 6F66665F 		.ascii	"off_preempt\000"
 4899      70726565 
 4899      6D707400 
 4900              	.LASF171:
 4901 0305 63685363 		.ascii	"chSchRescheduleS\000"
 4901      68526573 
 4901      63686564 
 4901      756C6553 
 4901      00
 4902              	.LASF12:
 4903 0316 5F5F7569 		.ascii	"__uint32_t\000"
 4903      6E743332 
 4903      5F7400
 4904              	.LASF80:
 4905 0321 72656761 		.ascii	"regarm_t\000"
 4905      726D5F74 
 4905      00
 4906              	.LASF142:
 4907 032a 6D62785F 		.ascii	"mbx_list\000"
 4907      6C697374 
 4907      00
 4908              	.LASF66:
 4909 0333 63685F73 		.ascii	"ch_system_debug\000"
 4909      79737465 
 4909      6D5F6465 
 4909      62756700 
 4910              	.LASF40:
 4911 0343 77616974 		.ascii	"waiting\000"
 4911      696E6700 
 4912              	.LASF70:
 4913 034b 726C6973 		.ascii	"rlist\000"
 4913      7400
 4914              	.LASF100:
 4915 0351 7A65726F 		.ascii	"zero\000"
 4915      00
 4916              	.LASF120:
 4917 0356 6D757465 		.ascii	"mutex_t\000"
 4917      785F7400 
 4918              	.LASF129:
 4919 035e 616C6967 		.ascii	"align\000"
 4919      6E00
 4920              	.LASF74:
 4921 0364 73797369 		.ascii	"sysinterval_t\000"
 4921      6E746572 
 4921      76616C5F 
 4921      7400
 4922              	.LASF158:
 4923 0372 63685365 		.ascii	"chSemObjectInit\000"
 4923      6D4F626A 
 4923      65637449 
 4923      6E697400 
 4924              	.LASF28:
 4925 0382 636E745F 		.ascii	"cnt_t\000"
 4925      7400
 4926              	.LASF0:
ARM GAS  /tmp/cczxrnjP.s 			page 90


 4927 0388 756E7369 		.ascii	"unsigned int\000"
 4927      676E6564 
 4927      20696E74 
 4927      00
 4928              	.LASF152:
 4929 0395 63685365 		.ascii	"chSemWaitTimeout\000"
 4929      6D576169 
 4929      7454696D 
 4929      656F7574 
 4929      00
 4930              	.LASF17:
 4931 03a6 75696E74 		.ascii	"uint16_t\000"
 4931      31365F74 
 4931      00
 4932              	.LASF77:
 4933 03af 53797374 		.ascii	"SystemCoreClock\000"
 4933      656D436F 
 4933      7265436C 
 4933      6F636B00 
 4934              	.LASF91:
 4935 03bf 77747365 		.ascii	"wtsemp\000"
 4935      6D7000
 4936              	.LASF89:
 4937 03c6 77747472 		.ascii	"wttrp\000"
 4937      7000
 4938              	.LASF157:
 4939 03cc 63685365 		.ascii	"chSemReset\000"
 4939      6D526573 
 4939      657400
 4940              	.LASF118:
 4941 03d7 63685F64 		.ascii	"ch_debug\000"
 4941      65627567 
 4941      00
 4942              	.LASF150:
 4943 03e0 74696D65 		.ascii	"timeout\000"
 4943      6F757400 
 4944              	.LASF131:
 4945 03e8 6D656D6F 		.ascii	"memory_pool_t\000"
 4945      72795F70 
 4945      6F6F6C5F 
 4945      7400
 4946              	.LASF35:
 4947 03f6 6E616D65 		.ascii	"name\000"
 4947      00
 4948              	.LASF31:
 4949 03fb 71756575 		.ascii	"queue\000"
 4949      6500
 4950              	.LASF45:
 4951 0401 6D706F6F 		.ascii	"mpool\000"
 4951      6C00
 4952              	.LASF114:
 4953 0407 6F66665F 		.ascii	"off_refs\000"
 4953      72656673 
 4953      00
 4954              	.LASF139:
 4955 0410 6275665F 		.ascii	"buf_list\000"
 4955      6C697374 
ARM GAS  /tmp/cczxrnjP.s 			page 91


 4955      00
 4956              	.LASF48:
 4957 0419 63685F74 		.ascii	"ch_thread\000"
 4957      68726561 
 4957      6400
 4958              	.LASF26:
 4959 0423 6D73675F 		.ascii	"msg_t\000"
 4959      7400
 4960              	.LASF29:
 4961 0429 75636E74 		.ascii	"ucnt_t\000"
 4961      5F7400
 4962              	.LASF42:
 4963 0430 6570656E 		.ascii	"epending\000"
 4963      64696E67 
 4963      00
 4964              	.LASF135:
 4965 0439 64796E5F 		.ascii	"dyn_list_t\000"
 4965      6C697374 
 4965      5F7400
 4966              	.LASF68:
 4967 0444 63685F73 		.ascii	"ch_system_t\000"
 4967      79737465 
 4967      6D5F7400 
 4968              	.LASF107:
 4969 0450 6F66665F 		.ascii	"off_ctx\000"
 4969      63747800 
 4970              	.LASF22:
 4971 0458 746D6F64 		.ascii	"tmode_t\000"
 4971      655F7400 
 4972              	.LASF55:
 4973 0460 63685F72 		.ascii	"ch_ready_list\000"
 4973      65616479 
 4973      5F6C6973 
 4973      7400
 4974              	.LASF27:
 4975 046e 6576656E 		.ascii	"eventmask_t\000"
 4975      746D6173 
 4975      6B5F7400 
 4976              	.LASF78:
 4977 047a 41484250 		.ascii	"AHBPrescTable\000"
 4977      72657363 
 4977      5461626C 
 4977      6500
 4978              	.LASF124:
 4979 0488 656E646D 		.ascii	"endmem\000"
 4979      656D00
 4980              	.LASF10:
 4981 048f 5F5F696E 		.ascii	"__int32_t\000"
 4981      7433325F 
 4981      7400
 4982              	.LASF62:
 4983 0499 76697274 		.ascii	"virtual_timers_list_t\000"
 4983      75616C5F 
 4983      74696D65 
 4983      72735F6C 
 4983      6973745F 
 4984              	.LASF81:
ARM GAS  /tmp/cczxrnjP.s 			page 92


 4985 04af 73746B61 		.ascii	"stkalign_t\000"
 4985      6C69676E 
 4985      5F7400
 4986              	.LASF33:
 4987 04ba 6E657765 		.ascii	"newer\000"
 4987      7200
 4988              	.LASF44:
 4989 04c0 7265616C 		.ascii	"realprio\000"
 4989      7072696F 
 4989      00
 4990              	.LASF102:
 4991 04c9 76657273 		.ascii	"version\000"
 4991      696F6E00 
 4992              	.LASF75:
 4993 04d1 73697A65 		.ascii	"sizetype\000"
 4993      74797065 
 4993      00
 4994              	.LASF46:
 4995 04da 74687265 		.ascii	"thread_reference_t\000"
 4995      61645F72 
 4995      65666572 
 4995      656E6365 
 4995      5F7400
 4996              	.LASF63:
 4997 04ed 63685F76 		.ascii	"ch_virtual_timers_list\000"
 4997      69727475 
 4997      616C5F74 
 4997      696D6572 
 4997      735F6C69 
 4998              	.LASF2:
 4999 0504 6C6F6E67 		.ascii	"long double\000"
 4999      20646F75 
 4999      626C6500 
 5000              	.LASF108:
 5001 0510 6F66665F 		.ascii	"off_newer\000"
 5001      6E657765 
 5001      7200
 5002              	.LASF79:
 5003 051a 41504250 		.ascii	"APBPrescTable\000"
 5003      72657363 
 5003      5461626C 
 5003      6500
 5004              	.LASF164:
 5005 0528 63685379 		.ascii	"chSysLock\000"
 5005      734C6F63 
 5005      6B00
 5006              	.LASF82:
 5007 0532 706F7274 		.ascii	"port_context\000"
 5007      5F636F6E 
 5007      74657874 
 5007      00
 5008              	.LASF85:
 5009 053f 746D5F63 		.ascii	"tm_calibration_t\000"
 5009      616C6962 
 5009      72617469 
 5009      6F6E5F74 
 5009      00
ARM GAS  /tmp/cczxrnjP.s 			page 93


 5010              	.LASF32:
 5011 0550 7072696F 		.ascii	"prio\000"
 5011      00
 5012              	.LASF141:
 5013 0555 73656D5F 		.ascii	"sem_pool\000"
 5013      706F6F6C 
 5013      00
 5014              	.LASF56:
 5015 055e 63757272 		.ascii	"current\000"
 5015      656E7400 
 5016              	.LASF14:
 5017 0566 5F5F7569 		.ascii	"__uint64_t\000"
 5017      6E743634 
 5017      5F7400
 5018              	.LASF125:
 5019 0571 6D656D63 		.ascii	"memcore_t\000"
 5019      6F72655F 
 5019      7400
 5020              	.LASF24:
 5021 057b 74726566 		.ascii	"trefs_t\000"
 5021      735F7400 
 5022              	.LASF39:
 5023 0583 72656673 		.ascii	"refs\000"
 5023      00
 5024              	.LASF58:
 5025 0588 76697274 		.ascii	"virtual_timer_t\000"
 5025      75616C5F 
 5025      74696D65 
 5025      725F7400 
 5026              	.LASF132:
 5027 0598 63685F64 		.ascii	"ch_dyn_element\000"
 5027      796E5F65 
 5027      6C656D65 
 5027      6E7400
 5028              	.LASF25:
 5029 05a7 74707269 		.ascii	"tprio_t\000"
 5029      6F5F7400 
 5030              	.LASF169:
 5031 05af 63685363 		.ascii	"chSchGoSleepS\000"
 5031      68476F53 
 5031      6C656570 
 5031      5300
 5032              	.LASF105:
 5033 05bd 74687265 		.ascii	"threadsize\000"
 5033      61647369 
 5033      7A6500
 5034              	.LASF121:
 5035 05c8 5F426F6F 		.ascii	"_Bool\000"
 5035      6C00
 5036              	.LASF18:
 5037 05ce 696E7433 		.ascii	"int32_t\000"
 5037      325F7400 
 5038              	.LASF6:
 5039 05d6 756E7369 		.ascii	"unsigned char\000"
 5039      676E6564 
 5039      20636861 
 5039      7200
ARM GAS  /tmp/cczxrnjP.s 			page 94


 5040              	.LASF106:
 5041 05e4 6F66665F 		.ascii	"off_prio\000"
 5041      7072696F 
 5041      00
 5042              	.LASF111:
 5043 05ed 6F66665F 		.ascii	"off_stklimit\000"
 5043      73746B6C 
 5043      696D6974 
 5043      00
 5044              	.LASF7:
 5045 05fa 73686F72 		.ascii	"short int\000"
 5045      7420696E 
 5045      7400
 5046              	.LASF64:
 5047 0604 6C617374 		.ascii	"lasttime\000"
 5047      74696D65 
 5047      00
 5048              	.LASF93:
 5049 060d 65776D61 		.ascii	"ewmask\000"
 5049      736B00
 5050              	.LASF69:
 5051 0614 63685F73 		.ascii	"ch_system\000"
 5051      79737465 
 5051      6D00
 5052              	.LASF146:
 5053 061e 5F5F6675 		.ascii	"__func__\000"
 5053      6E635F5F 
 5053      00
 5054              	.LASF145:
 5055 0627 63685F66 		.ascii	"ch_factory\000"
 5055      6163746F 
 5055      727900
 5056              	.LASF154:
 5057 0632 63685365 		.ascii	"chSemWaitS\000"
 5057      6D576169 
 5057      745300
 5058              	.LASF138:
 5059 063d 6F626A5F 		.ascii	"obj_pool\000"
 5059      706F6F6C 
 5059      00
 5060              	.LASF119:
 5061 0646 73656D61 		.ascii	"semaphore_t\000"
 5061      70686F72 
 5061      655F7400 
 5062              	.LASF59:
 5063 0652 63685F76 		.ascii	"ch_virtual_timer\000"
 5063      69727475 
 5063      616C5F74 
 5063      696D6572 
 5063      00
 5064              	.LASF94:
 5065 0663 63685F73 		.ascii	"ch_semaphore\000"
 5065      656D6170 
 5065      686F7265 
 5065      00
 5066              	.LASF116:
 5067 0670 6F66665F 		.ascii	"off_time\000"
ARM GAS  /tmp/cczxrnjP.s 			page 95


 5067      74696D65 
 5067      00
 5068              	.LASF98:
 5069 0679 63685F69 		.ascii	"ch_idle_thread_wa\000"
 5069      646C655F 
 5069      74687265 
 5069      61645F77 
 5069      6100
 5070              	.LASF104:
 5071 068b 74696D65 		.ascii	"timesize\000"
 5071      73697A65 
 5071      00
 5072              	.LASF19:
 5073 0694 75696E74 		.ascii	"uint32_t\000"
 5073      33325F74 
 5073      00
 5074              	.LASF92:
 5075 069d 77746D74 		.ascii	"wtmtxp\000"
 5075      787000
 5076              	.LASF170:
 5077 06a4 63685363 		.ascii	"chSchReadyI\000"
 5077      68526561 
 5077      64794900 
 5078              	.LASF49:
 5079 06b0 63685F74 		.ascii	"ch_threads_list\000"
 5079      68726561 
 5079      64735F6C 
 5079      69737400 
 5080              	.LASF96:
 5081 06c0 6F776E65 		.ascii	"owner\000"
 5081      7200
 5082              	.LASF13:
 5083 06c6 6C6F6E67 		.ascii	"long unsigned int\000"
 5083      20756E73 
 5083      69676E65 
 5083      6420696E 
 5083      7400
 5084              	.LASF36:
 5085 06d8 77616261 		.ascii	"wabase\000"
 5085      736500
 5086              	.LASF97:
 5087 06df 63686172 		.ascii	"char\000"
 5087      00
 5088              	.LASF34:
 5089 06e4 6F6C6465 		.ascii	"older\000"
 5089      7200
 5090              	.LASF137:
 5091 06ea 6F626A5F 		.ascii	"obj_list\000"
 5091      6C697374 
 5091      00
 5092              	.LASF153:
 5093 06f3 63685365 		.ascii	"chSemWaitTimeoutS\000"
 5093      6D576169 
 5093      7454696D 
 5093      656F7574 
 5093      5300
 5094              	.LASF8:
ARM GAS  /tmp/cczxrnjP.s 			page 96


 5095 0705 5F5F7569 		.ascii	"__uint16_t\000"
 5095      6E743136 
 5095      5F7400
 5096              	.LASF30:
 5097 0710 74687265 		.ascii	"thread_t\000"
 5097      61645F74 
 5097      00
 5098              	.LASF126:
 5099 0719 63685F6D 		.ascii	"ch_memcore\000"
 5099      656D636F 
 5099      726500
 5100              	.LASF161:
 5101 0724 71756575 		.ascii	"queue_fifo_remove\000"
 5101      655F6669 
 5101      666F5F72 
 5101      656D6F76 
 5101      6500
 5102              	.LASF73:
 5103 0736 73797374 		.ascii	"systime_t\000"
 5103      696D655F 
 5103      7400
 5104              	.LASF57:
 5105 0740 76746675 		.ascii	"vtfunc_t\000"
 5105      6E635F74 
 5105      00
 5106              	.LASF167:
 5107 0749 5F5F7365 		.ascii	"__set_BASEPRI\000"
 5107      745F4241 
 5107      53455052 
 5107      4900
 5108              	.LASF155:
 5109 0757 63685365 		.ascii	"chSemWait\000"
 5109      6D576169 
 5109      7400
 5110              	.LASF67:
 5111 0761 70616E69 		.ascii	"panic_msg\000"
 5111      635F6D73 
 5111      6700
 5112              	.LASF84:
 5113 076b 6F666673 		.ascii	"offset\000"
 5113      657400
 5114              	.LASF95:
 5115 0772 63685F6D 		.ascii	"ch_mutex\000"
 5115      75746578 
 5115      00
 5116              	.LASF109:
 5117 077b 6F66665F 		.ascii	"off_older\000"
 5117      6F6C6465 
 5117      7200
 5118              	.LASF9:
 5119 0785 73686F72 		.ascii	"short unsigned int\000"
 5119      7420756E 
 5119      7369676E 
 5119      65642069 
 5119      6E7400
 5120              	.LASF99:
 5121 0798 6964656E 		.ascii	"identifier\000"
ARM GAS  /tmp/cczxrnjP.s 			page 97


 5121      74696669 
 5121      657200
 5122              	.LASF21:
 5123 07a3 7274636E 		.ascii	"rtcnt_t\000"
 5123      745F7400 
 5124              	.LASF172:
 5125 07ab 63685363 		.ascii	"chSchWakeupS\000"
 5125      6857616B 
 5125      65757053 
 5125      00
 5126              	.LASF128:
 5127 07b8 6F626A65 		.ascii	"object_size\000"
 5127      63745F73 
 5127      697A6500 
 5128              	.LASF103:
 5129 07c4 70747273 		.ascii	"ptrsize\000"
 5129      697A6500 
 5130              	.LASF136:
 5131 07cc 63685F6F 		.ascii	"ch_objects_factory\000"
 5131      626A6563 
 5131      74735F66 
 5131      6163746F 
 5131      727900
 5132              	.LASF51:
 5133 07df 74687265 		.ascii	"threads_queue_t\000"
 5133      6164735F 
 5133      71756575 
 5133      655F7400 
 5134              	.LASF127:
 5135 07ef 706F6F6C 		.ascii	"pool_header\000"
 5135      5F686561 
 5135      64657200 
 5136              	.LASF156:
 5137 07fb 63685365 		.ascii	"chSemResetI\000"
 5137      6D526573 
 5137      65744900 
 5138              	.LASF110:
 5139 0807 6F66665F 		.ascii	"off_name\000"
 5139      6E616D65 
 5139      00
 5140              	.LASF16:
 5141 0810 75696E74 		.ascii	"uint8_t\000"
 5141      385F7400 
 5142              	.LASF38:
 5143 0818 666C6167 		.ascii	"flags\000"
 5143      7300
 5144              	.LASF143:
 5145 081e 6669666F 		.ascii	"fifo_list\000"
 5145      5F6C6973 
 5145      7400
 5146              	.LASF88:
 5147 0828 77746F62 		.ascii	"wtobjp\000"
 5147      6A7000
 5148              	.LASF47:
 5149 082f 74687265 		.ascii	"threads_list_t\000"
 5149      6164735F 
 5149      6C697374 
ARM GAS  /tmp/cczxrnjP.s 			page 98


 5149      5F7400
 5150              	.LASF112:
 5151 083e 6F66665F 		.ascii	"off_state\000"
 5151      73746174 
 5151      6500
 5152              	.LASF173:
 5153 0848 63685363 		.ascii	"chSchGoSleepTimeoutS\000"
 5153      68476F53 
 5153      6C656570 
 5153      54696D65 
 5153      6F757453 
 5154              	.LASF159:
 5155 085d 63685379 		.ascii	"chSysUnlock\000"
 5155      73556E6C 
 5155      6F636B00 
 5156              	.LASF144:
 5157 0869 6F626A65 		.ascii	"objects_factory_t\000"
 5157      6374735F 
 5157      66616374 
 5157      6F72795F 
 5157      7400
 5158              	.LASF113:
 5159 087b 6F66665F 		.ascii	"off_flags\000"
 5159      666C6167 
 5159      7300
 5160              	.LASF43:
 5161 0885 6D74786C 		.ascii	"mtxlist\000"
 5161      69737400 
 5162              	.LASF176:
 5163 088d 2F686F6D 		.ascii	"/home/alex/ArduPilot/ardupilot/build/Pix2.4\000"
 5163      652F616C 
 5163      65782F41 
 5163      72647550 
 5163      696C6F74 
 5164              	.LASF123:
 5165 08b9 6E657874 		.ascii	"nextmem\000"
 5165      6D656D00 
 5166              		.ident	"GCC: (GNU Tools for ARM Embedded Processors 6-2017-q2-update) 6.3.1 20170620 (release) [AR
ARM GAS  /tmp/cczxrnjP.s 			page 99


DEFINED SYMBOLS
                            *ABS*:0000000000000000 chsem.c
     /tmp/cczxrnjP.s:18     .text.chSemObjectInit:0000000000000000 $t
     /tmp/cczxrnjP.s:25     .text.chSemObjectInit:0000000000000000 chSemObjectInit
     /tmp/cczxrnjP.s:51     .text.chSemResetI:0000000000000000 $t
     /tmp/cczxrnjP.s:58     .text.chSemResetI:0000000000000000 chSemResetI
     /tmp/cczxrnjP.s:113    .text.chSemReset:0000000000000000 $t
     /tmp/cczxrnjP.s:120    .text.chSemReset:0000000000000000 chSemReset
     /tmp/cczxrnjP.s:179    .text.chSemWaitS:0000000000000000 $t
     /tmp/cczxrnjP.s:186    .text.chSemWaitS:0000000000000000 chSemWaitS
     /tmp/cczxrnjP.s:250    .text.chSemWaitS:000000000000002c $d
     /tmp/cczxrnjP.s:255    .text.chSemWait:0000000000000000 $t
     /tmp/cczxrnjP.s:262    .text.chSemWait:0000000000000000 chSemWait
     /tmp/cczxrnjP.s:318    .text.chSemWaitTimeoutS:0000000000000000 $t
     /tmp/cczxrnjP.s:325    .text.chSemWaitTimeoutS:0000000000000000 chSemWaitTimeoutS
     /tmp/cczxrnjP.s:412    .text.chSemWaitTimeoutS:0000000000000038 $d
     /tmp/cczxrnjP.s:417    .text.chSemWaitTimeout:0000000000000000 $t
     /tmp/cczxrnjP.s:424    .text.chSemWaitTimeout:0000000000000000 chSemWaitTimeout
     /tmp/cczxrnjP.s:480    .text.chSemSignal:0000000000000000 $t
     /tmp/cczxrnjP.s:487    .text.chSemSignal:0000000000000000 chSemSignal
     /tmp/cczxrnjP.s:580    .text.chSemSignalI:0000000000000000 $t
     /tmp/cczxrnjP.s:587    .text.chSemSignalI:0000000000000000 chSemSignalI
     /tmp/cczxrnjP.s:634    .text.chSemAddCounterI:0000000000000000 $t
     /tmp/cczxrnjP.s:641    .text.chSemAddCounterI:0000000000000000 chSemAddCounterI
     /tmp/cczxrnjP.s:701    .text.chSemSignalWait:0000000000000000 $t
     /tmp/cczxrnjP.s:708    .text.chSemSignalWait:0000000000000000 chSemSignalWait
     /tmp/cczxrnjP.s:850    .text.chSemSignalWait:0000000000000058 $d
                     .debug_frame:0000000000000010 $d

UNDEFINED SYMBOLS
chSchReadyI
chSchRescheduleS
chSchGoSleepS
ch
chSchGoSleepTimeoutS
chSchWakeupS
