ARM GAS  /tmp/ccSvZQDP.s 			page 1


   1              		.cpu cortex-m4
   2              		.eabi_attribute 27, 1
   3              		.eabi_attribute 28, 1
   4              		.eabi_attribute 20, 1
   5              		.eabi_attribute 21, 1
   6              		.eabi_attribute 23, 3
   7              		.eabi_attribute 24, 1
   8              		.eabi_attribute 25, 1
   9              		.eabi_attribute 26, 1
  10              		.eabi_attribute 30, 4
  11              		.eabi_attribute 34, 1
  12              		.eabi_attribute 18, 4
  13              		.file	"chthreads.c"
  14              		.text
  15              	.Ltext0:
  16              		.cfi_sections	.debug_frame
  17              		.section	.text._thread_init,"ax",%progbits
  18              		.align	1
  19              		.global	_thread_init
  20              		.syntax unified
  21              		.thumb
  22              		.thumb_func
  23              		.fpu fpv4-sp-d16
  24              		.type	_thread_init, %function
  25              	_thread_init:
  26              	.LFB290:
  27              		.file 1 "../../modules/ChibiOS/os/rt/src/chthreads.c"
  28              		.loc 1 88 0
  29              		.cfi_startproc
  30              		@ args = 0, pretend = 0, frame = 0
  31              		@ frame_needed = 0, uses_anonymous_args = 0
  32              	.LVL0:
  33              		.loc 1 90 0
  34 0000 8260     		str	r2, [r0, #8]
  35              		.loc 1 97 0
  36 0002 C263     		str	r2, [r0, #60]
  37              		.loc 1 107 0
  38 0004 0122     		movs	r2, #1
  39              	.LVL1:
  40 0006 80F82220 		strb	r2, [r0, #34]
  41              		.loc 1 109 0
  42 000a 0C4A     		ldr	r2, .L2
  43              		.loc 1 108 0
  44 000c 8161     		str	r1, [r0, #24]
  45              		.loc 1 88 0
  46 000e 10B5     		push	{r4, lr}
  47              		.cfi_def_cfa_offset 8
  48              		.cfi_offset 4, -8
  49              		.cfi_offset 14, -4
  50              		.loc 1 109 0
  51 0010 5169     		ldr	r1, [r2, #20]
  52              	.LVL2:
  53 0012 0261     		str	r2, [r0, #16]
  54              		.loc 1 91 0
  55 0014 0224     		movs	r4, #2
  56 0016 80F82040 		strb	r4, [r0, #32]
  57              		.loc 1 92 0
ARM GAS  /tmp/ccSvZQDP.s 			page 2


  58 001a 0024     		movs	r4, #0
  59              		.loc 1 109 0
  60 001c 4161     		str	r1, [r0, #20]
  61              		.loc 1 92 0
  62 001e 80F82140 		strb	r4, [r0, #33]
  63              		.loc 1 98 0
  64 0022 8463     		str	r4, [r0, #56]
  65              		.loc 1 101 0
  66 0024 4463     		str	r4, [r0, #52]
  67              		.loc 1 109 0
  68 0026 0861     		str	r0, [r1, #16]
  69 0028 5061     		str	r0, [r2, #20]
  70              	.LVL3:
  71              		.loc 1 114 0
  72 002a 00F12802 		add	r2, r0, #40
  73              	.LVL4:
  74              	.LBB238:
  75              	.LBB239:
  76              		.file 2 "../../modules/ChibiOS/os/rt/include/chschd.h"
  77              		.loc 2 501 0
  78 002e 8262     		str	r2, [r0, #40]
  79              	.LVL5:
  80              	.LBE239:
  81              	.LBE238:
  82              		.loc 1 117 0
  83 0030 00F12C02 		add	r2, r0, #44
  84              	.LVL6:
  85              	.LBB240:
  86              	.LBB241:
  87              		.loc 2 539 0
  88 0034 C262     		str	r2, [r0, #44]
  89              		.loc 2 540 0
  90 0036 0263     		str	r2, [r0, #48]
  91              	.LVL7:
  92              	.LBE241:
  93              	.LBE240:
  94              		.loc 1 124 0
  95 0038 10BD     		pop	{r4, pc}
  96              	.L3:
  97 003a 00BF     		.align	2
  98              	.L2:
  99 003c 00000000 		.word	ch
 100              		.cfi_endproc
 101              	.LFE290:
 102              		.size	_thread_init, .-_thread_init
 103              		.section	.text._thread_memfill,"ax",%progbits
 104              		.align	1
 105              		.global	_thread_memfill
 106              		.syntax unified
 107              		.thumb
 108              		.thumb_func
 109              		.fpu fpv4-sp-d16
 110              		.type	_thread_memfill, %function
 111              	_thread_memfill:
 112              	.LFB291:
 113              		.loc 1 136 0
 114              		.cfi_startproc
ARM GAS  /tmp/ccSvZQDP.s 			page 3


 115              		@ args = 0, pretend = 0, frame = 0
 116              		@ frame_needed = 0, uses_anonymous_args = 0
 117              		@ link register save eliminated.
 118              	.LVL8:
 119              	.L5:
 120              		.loc 1 138 0
 121 0000 8842     		cmp	r0, r1
 122 0002 00D3     		bcc	.L6
 123              		.loc 1 141 0
 124 0004 7047     		bx	lr
 125              	.L6:
 126              		.loc 1 139 0
 127 0006 00F8012B 		strb	r2, [r0], #1
 128              	.LVL9:
 129 000a F9E7     		b	.L5
 130              		.cfi_endproc
 131              	.LFE291:
 132              		.size	_thread_memfill, .-_thread_memfill
 133              		.section	.text.chThdCreateSuspendedI,"ax",%progbits
 134              		.align	1
 135              		.global	chThdCreateSuspendedI
 136              		.syntax unified
 137              		.thumb
 138              		.thumb_func
 139              		.fpu fpv4-sp-d16
 140              		.type	chThdCreateSuspendedI, %function
 141              	chThdCreateSuspendedI:
 142              	.LFB292:
 143              		.loc 1 167 0
 144              		.cfi_startproc
 145              		@ args = 0, pretend = 0, frame = 0
 146              		@ frame_needed = 0, uses_anonymous_args = 0
 147              		@ link register save eliminated.
 148              	.LVL10:
 149              		.loc 1 181 0
 150 0000 8368     		ldr	r3, [r0, #8]
 151              	.LVL11:
 152              		.loc 1 186 0
 153 0002 4268     		ldr	r2, [r0, #4]
 154 0004 43F82C2C 		str	r2, [r3, #-44]
 155              		.loc 1 190 0
 156 0008 A3F1AC02 		sub	r2, r3, #172
 157 000c 43F83C2C 		str	r2, [r3, #-60]
 158 0010 0269     		ldr	r2, [r0, #16]
 159 0012 43F86C2C 		str	r2, [r3, #-108]
 160 0016 4269     		ldr	r2, [r0, #20]
 161 0018 43F8682C 		str	r2, [r3, #-104]
 162 001c 044A     		ldr	r2, .L8
 163 001e 43F84C2C 		str	r2, [r3, #-76]
 164              		.loc 1 193 0
 165 0022 0168     		ldr	r1, [r0]
 166 0024 C268     		ldr	r2, [r0, #12]
 167 0026 A3F14800 		sub	r0, r3, #72
 168              	.LVL12:
 169 002a FFF7FEBF 		b	_thread_init
 170              	.LVL13:
 171              	.L9:
ARM GAS  /tmp/ccSvZQDP.s 			page 4


 172 002e 00BF     		.align	2
 173              	.L8:
 174 0030 00000000 		.word	_port_thread_start
 175              		.cfi_endproc
 176              	.LFE292:
 177              		.size	chThdCreateSuspendedI, .-chThdCreateSuspendedI
 178              		.section	.text.chThdCreateSuspended,"ax",%progbits
 179              		.align	1
 180              		.global	chThdCreateSuspended
 181              		.syntax unified
 182              		.thumb
 183              		.thumb_func
 184              		.fpu fpv4-sp-d16
 185              		.type	chThdCreateSuspended, %function
 186              	chThdCreateSuspended:
 187              	.LFB293:
 188              		.loc 1 216 0
 189              		.cfi_startproc
 190              		@ args = 0, pretend = 0, frame = 0
 191              		@ frame_needed = 0, uses_anonymous_args = 0
 192              	.LVL14:
 193 0000 08B5     		push	{r3, lr}
 194              		.cfi_def_cfa_offset 8
 195              		.cfi_offset 3, -8
 196              		.cfi_offset 14, -4
 197              		.loc 1 226 0
 198 0002 8268     		ldr	r2, [r0, #8]
 199              	.LVL15:
 200 0004 4368     		ldr	r3, [r0, #4]
 201              	.LBB242:
 202              	.LBB243:
 203              		.loc 1 139 0
 204 0006 5521     		movs	r1, #85
 205              	.LVL16:
 206              	.L11:
 207              		.loc 1 138 0
 208 0008 9A42     		cmp	r2, r3
 209 000a 08D8     		bhi	.L12
 210              	.LVL17:
 211              	.LBE243:
 212              	.LBE242:
 213              	.LBB245:
 214              	.LBB246:
 215              	.LBB247:
 216              	.LBB248:
 217              		.file 3 "../../modules/ChibiOS/os/common/ext/ARM/CMSIS/Core/Include/cmsis_gcc.h"
 218              		.loc 3 493 0
 219 000c 2023     		movs	r3, #32
 220              		.syntax unified
 221              	@ 493 "../../modules/ChibiOS/os/common/ext/ARM/CMSIS/Core/Include/cmsis_gcc.h" 1
 222 000e 83F31188 		MSR basepri, r3
 223              	@ 0 "" 2
 224              	.LVL18:
 225              		.thumb
 226              		.syntax unified
 227              	.LBE248:
 228              	.LBE247:
ARM GAS  /tmp/ccSvZQDP.s 			page 5


 229              	.LBE246:
 230              	.LBE245:
 231              		.loc 1 231 0
 232 0012 FFF7FEFF 		bl	chThdCreateSuspendedI
 233              	.LVL19:
 234              	.LBB249:
 235              	.LBB250:
 236              	.LBB251:
 237              	.LBB252:
 238              	.LBB253:
 239              		.loc 3 493 0
 240 0016 0023     		movs	r3, #0
 241              		.syntax unified
 242              	@ 493 "../../modules/ChibiOS/os/common/ext/ARM/CMSIS/Core/Include/cmsis_gcc.h" 1
 243 0018 83F31188 		MSR basepri, r3
 244              	@ 0 "" 2
 245              	.LVL20:
 246              		.thumb
 247              		.syntax unified
 248              	.LBE253:
 249              	.LBE252:
 250              	.LBE251:
 251              	.LBE250:
 252              	.LBE249:
 253              		.loc 1 235 0
 254 001c 08BD     		pop	{r3, pc}
 255              	.LVL21:
 256              	.L12:
 257              	.LBB254:
 258              	.LBB244:
 259              		.loc 1 139 0
 260 001e 03F8011B 		strb	r1, [r3], #1
 261              	.LVL22:
 262 0022 F1E7     		b	.L11
 263              	.LBE244:
 264              	.LBE254:
 265              		.cfi_endproc
 266              	.LFE293:
 267              		.size	chThdCreateSuspended, .-chThdCreateSuspended
 268              		.section	.text.chThdCreateI,"ax",%progbits
 269              		.align	1
 270              		.global	chThdCreateI
 271              		.syntax unified
 272              		.thumb
 273              		.thumb_func
 274              		.fpu fpv4-sp-d16
 275              		.type	chThdCreateI, %function
 276              	chThdCreateI:
 277              	.LFB294:
 278              		.loc 1 259 0
 279              		.cfi_startproc
 280              		@ args = 0, pretend = 0, frame = 0
 281              		@ frame_needed = 0, uses_anonymous_args = 0
 282              	.LVL23:
 283 0000 08B5     		push	{r3, lr}
 284              		.cfi_def_cfa_offset 8
 285              		.cfi_offset 3, -8
ARM GAS  /tmp/ccSvZQDP.s 			page 6


 286              		.cfi_offset 14, -4
 287              		.loc 1 261 0
 288 0002 FFF7FEFF 		bl	chThdCreateSuspendedI
 289              	.LVL24:
 290              		.loc 1 262 0
 291 0006 BDE80840 		pop	{r3, lr}
 292              		.cfi_restore 14
 293              		.cfi_restore 3
 294              		.cfi_def_cfa_offset 0
 295              		.loc 1 261 0
 296 000a FFF7FEBF 		b	chSchReadyI
 297              	.LVL25:
 298              		.cfi_endproc
 299              	.LFE294:
 300              		.size	chThdCreateI, .-chThdCreateI
 301              		.section	.text.chThdCreate,"ax",%progbits
 302              		.align	1
 303              		.global	chThdCreate
 304              		.syntax unified
 305              		.thumb
 306              		.thumb_func
 307              		.fpu fpv4-sp-d16
 308              		.type	chThdCreate, %function
 309              	chThdCreate:
 310              	.LFB295:
 311              		.loc 1 280 0
 312              		.cfi_startproc
 313              		@ args = 0, pretend = 0, frame = 0
 314              		@ frame_needed = 0, uses_anonymous_args = 0
 315              	.LVL26:
 316 0000 10B5     		push	{r4, lr}
 317              		.cfi_def_cfa_offset 8
 318              		.cfi_offset 4, -8
 319              		.cfi_offset 14, -4
 320              		.loc 1 291 0
 321 0002 8268     		ldr	r2, [r0, #8]
 322              	.LVL27:
 323 0004 4368     		ldr	r3, [r0, #4]
 324              	.LBB255:
 325              	.LBB256:
 326              		.loc 1 139 0
 327 0006 5521     		movs	r1, #85
 328              	.LVL28:
 329              	.L15:
 330              		.loc 1 138 0
 331 0008 9A42     		cmp	r2, r3
 332 000a 0DD8     		bhi	.L16
 333              	.LVL29:
 334              	.LBE256:
 335              	.LBE255:
 336              	.LBB258:
 337              	.LBB259:
 338              	.LBB260:
 339              	.LBB261:
 340              		.loc 3 493 0
 341 000c 2023     		movs	r3, #32
 342              		.syntax unified
ARM GAS  /tmp/ccSvZQDP.s 			page 7


 343              	@ 493 "../../modules/ChibiOS/os/common/ext/ARM/CMSIS/Core/Include/cmsis_gcc.h" 1
 344 000e 83F31188 		MSR basepri, r3
 345              	@ 0 "" 2
 346              	.LVL30:
 347              		.thumb
 348              		.syntax unified
 349              	.LBE261:
 350              	.LBE260:
 351              	.LBE259:
 352              	.LBE258:
 353              		.loc 1 296 0
 354 0012 FFF7FEFF 		bl	chThdCreateSuspendedI
 355              	.LVL31:
 356              		.loc 1 297 0
 357 0016 0021     		movs	r1, #0
 358              		.loc 1 296 0
 359 0018 0446     		mov	r4, r0
 360              	.LVL32:
 361              		.loc 1 297 0
 362 001a FFF7FEFF 		bl	chSchWakeupS
 363              	.LVL33:
 364              	.LBB262:
 365              	.LBB263:
 366              	.LBB264:
 367              	.LBB265:
 368              	.LBB266:
 369              		.loc 3 493 0
 370 001e 0023     		movs	r3, #0
 371              		.syntax unified
 372              	@ 493 "../../modules/ChibiOS/os/common/ext/ARM/CMSIS/Core/Include/cmsis_gcc.h" 1
 373 0020 83F31188 		MSR basepri, r3
 374              	@ 0 "" 2
 375              	.LVL34:
 376              		.thumb
 377              		.syntax unified
 378              	.LBE266:
 379              	.LBE265:
 380              	.LBE264:
 381              	.LBE263:
 382              	.LBE262:
 383              		.loc 1 301 0
 384 0024 2046     		mov	r0, r4
 385 0026 10BD     		pop	{r4, pc}
 386              	.LVL35:
 387              	.L16:
 388              	.LBB267:
 389              	.LBB257:
 390              		.loc 1 139 0
 391 0028 03F8011B 		strb	r1, [r3], #1
 392              	.LVL36:
 393 002c ECE7     		b	.L15
 394              	.LBE257:
 395              	.LBE267:
 396              		.cfi_endproc
 397              	.LFE295:
 398              		.size	chThdCreate, .-chThdCreate
 399              		.section	.text.chThdCreateStatic,"ax",%progbits
ARM GAS  /tmp/ccSvZQDP.s 			page 8


 400              		.align	1
 401              		.global	chThdCreateStatic
 402              		.syntax unified
 403              		.thumb
 404              		.thumb_func
 405              		.fpu fpv4-sp-d16
 406              		.type	chThdCreateStatic, %function
 407              	chThdCreateStatic:
 408              	.LFB296:
 409              		.loc 1 324 0
 410              		.cfi_startproc
 411              		@ args = 4, pretend = 0, frame = 0
 412              		@ frame_needed = 0, uses_anonymous_args = 0
 413              	.LVL37:
 414 0000 70B5     		push	{r4, r5, r6, lr}
 415              		.cfi_def_cfa_offset 16
 416              		.cfi_offset 4, -16
 417              		.cfi_offset 5, -12
 418              		.cfi_offset 6, -8
 419              		.cfi_offset 14, -4
 420              		.loc 1 324 0
 421 0002 0446     		mov	r4, r0
 422              		.loc 1 340 0
 423 0004 4518     		adds	r5, r0, r1
 424              	.LVL38:
 425              	.LBB268:
 426              	.LBB269:
 427              		.loc 1 139 0
 428 0006 5526     		movs	r6, #85
 429              	.LVL39:
 430              	.L18:
 431              		.loc 1 138 0
 432 0008 8542     		cmp	r5, r0
 433 000a 1CD8     		bhi	.L19
 434              	.LVL40:
 435              	.LBE269:
 436              	.LBE268:
 437              	.LBB271:
 438              	.LBB272:
 439              	.LBB273:
 440              	.LBB274:
 441              		.loc 3 493 0
 442 000c 2020     		movs	r0, #32
 443              		.syntax unified
 444              	@ 493 "../../modules/ChibiOS/os/common/ext/ARM/CMSIS/Core/Include/cmsis_gcc.h" 1
 445 000e 80F31188 		MSR basepri, r0
 446              	@ 0 "" 2
 447              	.LVL41:
 448              		.thumb
 449              		.syntax unified
 450              	.LBE274:
 451              	.LBE273:
 452              	.LBE272:
 453              	.LBE271:
 454              		.loc 1 350 0
 455 0012 4839     		subs	r1, r1, #72
 456              	.LVL42:
ARM GAS  /tmp/ccSvZQDP.s 			page 9


 457 0014 6018     		adds	r0, r4, r1
 458              	.LVL43:
 459              		.loc 1 359 0
 460 0016 A0F16401 		sub	r1, r0, #100
 461              	.LVL44:
 462 001a 40F8243C 		str	r3, [r0, #-36]
 463 001e 049B     		ldr	r3, [sp, #16]
 464              	.LVL45:
 465 0020 40F8203C 		str	r3, [r0, #-32]
 466 0024 094B     		ldr	r3, .L20
 467 0026 40F8043C 		str	r3, [r0, #-4]
 468              		.loc 1 355 0
 469 002a C461     		str	r4, [r0, #28]
 470              		.loc 1 359 0
 471 002c C160     		str	r1, [r0, #12]
 472              		.loc 1 361 0
 473 002e 0849     		ldr	r1, .L20+4
 474 0030 FFF7FEFF 		bl	_thread_init
 475              	.LVL46:
 476              		.loc 1 364 0
 477 0034 0021     		movs	r1, #0
 478              		.loc 1 361 0
 479 0036 0446     		mov	r4, r0
 480              	.LVL47:
 481              		.loc 1 364 0
 482 0038 FFF7FEFF 		bl	chSchWakeupS
 483              	.LVL48:
 484              	.LBB275:
 485              	.LBB276:
 486              	.LBB277:
 487              	.LBB278:
 488              	.LBB279:
 489              		.loc 3 493 0
 490 003c 0023     		movs	r3, #0
 491              		.syntax unified
 492              	@ 493 "../../modules/ChibiOS/os/common/ext/ARM/CMSIS/Core/Include/cmsis_gcc.h" 1
 493 003e 83F31188 		MSR basepri, r3
 494              	@ 0 "" 2
 495              	.LVL49:
 496              		.thumb
 497              		.syntax unified
 498              	.LBE279:
 499              	.LBE278:
 500              	.LBE277:
 501              	.LBE276:
 502              	.LBE275:
 503              		.loc 1 368 0
 504 0042 2046     		mov	r0, r4
 505 0044 70BD     		pop	{r4, r5, r6, pc}
 506              	.LVL50:
 507              	.L19:
 508              	.LBB280:
 509              	.LBB270:
 510              		.loc 1 139 0
 511 0046 00F8016B 		strb	r6, [r0], #1
 512              	.LVL51:
 513 004a DDE7     		b	.L18
ARM GAS  /tmp/ccSvZQDP.s 			page 10


 514              	.L21:
 515              		.align	2
 516              	.L20:
 517 004c 00000000 		.word	_port_thread_start
 518 0050 00000000 		.word	.LC0
 519              	.LBE270:
 520              	.LBE280:
 521              		.cfi_endproc
 522              	.LFE296:
 523              		.size	chThdCreateStatic, .-chThdCreateStatic
 524              		.section	.text.chThdStart,"ax",%progbits
 525              		.align	1
 526              		.global	chThdStart
 527              		.syntax unified
 528              		.thumb
 529              		.thumb_func
 530              		.fpu fpv4-sp-d16
 531              		.type	chThdStart, %function
 532              	chThdStart:
 533              	.LFB297:
 534              		.loc 1 379 0
 535              		.cfi_startproc
 536              		@ args = 0, pretend = 0, frame = 0
 537              		@ frame_needed = 0, uses_anonymous_args = 0
 538              	.LVL52:
 539 0000 10B5     		push	{r4, lr}
 540              		.cfi_def_cfa_offset 8
 541              		.cfi_offset 4, -8
 542              		.cfi_offset 14, -4
 543              	.LBB281:
 544              	.LBB282:
 545              	.LBB283:
 546              	.LBB284:
 547              		.loc 3 493 0
 548 0002 2023     		movs	r3, #32
 549              	.LBE284:
 550              	.LBE283:
 551              	.LBE282:
 552              	.LBE281:
 553              		.loc 1 379 0
 554 0004 0446     		mov	r4, r0
 555              	.LBB288:
 556              	.LBB287:
 557              	.LBB286:
 558              	.LBB285:
 559              		.loc 3 493 0
 560              		.syntax unified
 561              	@ 493 "../../modules/ChibiOS/os/common/ext/ARM/CMSIS/Core/Include/cmsis_gcc.h" 1
 562 0006 83F31188 		MSR basepri, r3
 563              	@ 0 "" 2
 564              	.LVL53:
 565              		.thumb
 566              		.syntax unified
 567              	.LBE285:
 568              	.LBE286:
 569              	.LBE287:
 570              	.LBE288:
ARM GAS  /tmp/ccSvZQDP.s 			page 11


 571              		.loc 1 383 0
 572 000a 0021     		movs	r1, #0
 573 000c FFF7FEFF 		bl	chSchWakeupS
 574              	.LVL54:
 575              	.LBB289:
 576              	.LBB290:
 577              	.LBB291:
 578              	.LBB292:
 579              	.LBB293:
 580              		.loc 3 493 0
 581 0010 0023     		movs	r3, #0
 582              		.syntax unified
 583              	@ 493 "../../modules/ChibiOS/os/common/ext/ARM/CMSIS/Core/Include/cmsis_gcc.h" 1
 584 0012 83F31188 		MSR basepri, r3
 585              	@ 0 "" 2
 586              	.LVL55:
 587              		.thumb
 588              		.syntax unified
 589              	.LBE293:
 590              	.LBE292:
 591              	.LBE291:
 592              	.LBE290:
 593              	.LBE289:
 594              		.loc 1 387 0
 595 0016 2046     		mov	r0, r4
 596 0018 10BD     		pop	{r4, pc}
 597              		.cfi_endproc
 598              	.LFE297:
 599              		.size	chThdStart, .-chThdStart
 600              		.section	.text.chThdAddRef,"ax",%progbits
 601              		.align	1
 602              		.global	chThdAddRef
 603              		.syntax unified
 604              		.thumb
 605              		.thumb_func
 606              		.fpu fpv4-sp-d16
 607              		.type	chThdAddRef, %function
 608              	chThdAddRef:
 609              	.LFB298:
 610              		.loc 1 401 0
 611              		.cfi_startproc
 612              		@ args = 0, pretend = 0, frame = 0
 613              		@ frame_needed = 0, uses_anonymous_args = 0
 614              		@ link register save eliminated.
 615              	.LVL56:
 616              	.LBB294:
 617              	.LBB295:
 618              	.LBB296:
 619              	.LBB297:
 620              		.loc 3 493 0
 621 0000 2023     		movs	r3, #32
 622              		.syntax unified
 623              	@ 493 "../../modules/ChibiOS/os/common/ext/ARM/CMSIS/Core/Include/cmsis_gcc.h" 1
 624 0002 83F31188 		MSR basepri, r3
 625              	@ 0 "" 2
 626              	.LVL57:
 627              		.thumb
ARM GAS  /tmp/ccSvZQDP.s 			page 12


 628              		.syntax unified
 629              	.LBE297:
 630              	.LBE296:
 631              	.LBE295:
 632              	.LBE294:
 633              		.loc 1 405 0
 634 0006 90F82230 		ldrb	r3, [r0, #34]	@ zero_extendqisi2
 635 000a 0133     		adds	r3, r3, #1
 636 000c 80F82230 		strb	r3, [r0, #34]
 637              	.LVL58:
 638              	.LBB298:
 639              	.LBB299:
 640              	.LBB300:
 641              	.LBB301:
 642              	.LBB302:
 643              		.loc 3 493 0
 644 0010 0023     		movs	r3, #0
 645              		.syntax unified
 646              	@ 493 "../../modules/ChibiOS/os/common/ext/ARM/CMSIS/Core/Include/cmsis_gcc.h" 1
 647 0012 83F31188 		MSR basepri, r3
 648              	@ 0 "" 2
 649              	.LVL59:
 650              		.thumb
 651              		.syntax unified
 652              	.LBE302:
 653              	.LBE301:
 654              	.LBE300:
 655              	.LBE299:
 656              	.LBE298:
 657              		.loc 1 409 0
 658 0016 7047     		bx	lr
 659              		.cfi_endproc
 660              	.LFE298:
 661              		.size	chThdAddRef, .-chThdAddRef
 662              		.section	.text.chThdRelease,"ax",%progbits
 663              		.align	1
 664              		.global	chThdRelease
 665              		.syntax unified
 666              		.thumb
 667              		.thumb_func
 668              		.fpu fpv4-sp-d16
 669              		.type	chThdRelease, %function
 670              	chThdRelease:
 671              	.LFB299:
 672              		.loc 1 427 0
 673              		.cfi_startproc
 674              		@ args = 0, pretend = 0, frame = 0
 675              		@ frame_needed = 0, uses_anonymous_args = 0
 676              		@ link register save eliminated.
 677              	.LVL60:
 678              	.LBB337:
 679              	.LBB338:
 680              	.LBB339:
 681              	.LBB340:
 682              		.loc 3 493 0
 683 0000 2023     		movs	r3, #32
 684              		.syntax unified
ARM GAS  /tmp/ccSvZQDP.s 			page 13


 685              	@ 493 "../../modules/ChibiOS/os/common/ext/ARM/CMSIS/Core/Include/cmsis_gcc.h" 1
 686 0002 83F31188 		MSR basepri, r3
 687              	@ 0 "" 2
 688              	.LVL61:
 689              		.thumb
 690              		.syntax unified
 691              	.LBE340:
 692              	.LBE339:
 693              	.LBE338:
 694              	.LBE337:
 695              		.loc 1 431 0
 696 0006 90F82230 		ldrb	r3, [r0, #34]	@ zero_extendqisi2
 697 000a 013B     		subs	r3, r3, #1
 698 000c 80F82230 		strb	r3, [r0, #34]
 699              		.loc 1 436 0
 700 0010 036A     		ldr	r3, [r0, #32]
 701 0012 03F0FF13 		and	r3, r3, #16711935
 702 0016 0F2B     		cmp	r3, #15
 703 0018 17D1     		bne	.L25
 704              		.loc 1 437 0
 705 001a 4369     		ldr	r3, [r0, #20]
 706 001c 0269     		ldr	r2, [r0, #16]
 707 001e 1A61     		str	r2, [r3, #16]
 708 0020 0269     		ldr	r2, [r0, #16]
 709 0022 5361     		str	r3, [r2, #20]
 710              	.LVL62:
 711              	.LBB341:
 712              	.LBB342:
 713              	.LBB343:
 714              	.LBB344:
 715              	.LBB345:
 716              		.loc 3 493 0
 717 0024 0023     		movs	r3, #0
 718              		.syntax unified
 719              	@ 493 "../../modules/ChibiOS/os/common/ext/ARM/CMSIS/Core/Include/cmsis_gcc.h" 1
 720 0026 83F31188 		MSR basepri, r3
 721              	@ 0 "" 2
 722              	.LVL63:
 723              		.thumb
 724              		.syntax unified
 725              	.LBE345:
 726              	.LBE344:
 727              	.LBE343:
 728              	.LBE342:
 729              	.LBE341:
 730              		.loc 1 441 0
 731 002a 90F82130 		ldrb	r3, [r0, #33]	@ zero_extendqisi2
 732 002e 03F00303 		and	r3, r3, #3
 733 0032 012B     		cmp	r3, #1
 734 0034 02D0     		beq	.L27
 735 0036 022B     		cmp	r3, #2
 736 0038 03D0     		beq	.L28
 737 003a 7047     		bx	lr
 738              	.L27:
 739              	.LVL64:
 740              		.loc 1 444 0
 741 003c C069     		ldr	r0, [r0, #28]
ARM GAS  /tmp/ccSvZQDP.s 			page 14


 742              	.LVL65:
 743 003e FFF7FEBF 		b	chHeapFree
 744              	.LVL66:
 745              	.L28:
 746              	.LBB346:
 747              	.LBB347:
 748              		.loc 1 449 0
 749 0042 C169     		ldr	r1, [r0, #28]
 750 0044 006C     		ldr	r0, [r0, #64]
 751              	.LVL67:
 752 0046 FFF7FEBF 		b	chPoolFree
 753              	.LVL68:
 754              	.L25:
 755              	.LBE347:
 756              	.LBE346:
 757              	.LBB348:
 758              	.LBB349:
 759              	.LBB350:
 760              	.LBB351:
 761              	.LBB352:
 762              		.loc 3 493 0
 763 004a 0023     		movs	r3, #0
 764              		.syntax unified
 765              	@ 493 "../../modules/ChibiOS/os/common/ext/ARM/CMSIS/Core/Include/cmsis_gcc.h" 1
 766 004c 83F31188 		MSR basepri, r3
 767              	@ 0 "" 2
 768              	.LVL69:
 769              		.thumb
 770              		.syntax unified
 771 0050 7047     		bx	lr
 772              	.LBE352:
 773              	.LBE351:
 774              	.LBE350:
 775              	.LBE349:
 776              	.LBE348:
 777              		.cfi_endproc
 778              	.LFE299:
 779              		.size	chThdRelease, .-chThdRelease
 780              		.section	.text.chThdExitS,"ax",%progbits
 781              		.align	1
 782              		.global	chThdExitS
 783              		.syntax unified
 784              		.thumb
 785              		.thumb_func
 786              		.fpu fpv4-sp-d16
 787              		.type	chThdExitS, %function
 788              	chThdExitS:
 789              	.LFB301:
 790              		.loc 1 501 0
 791              		.cfi_startproc
 792              		@ args = 0, pretend = 0, frame = 0
 793              		@ frame_needed = 0, uses_anonymous_args = 0
 794              	.LVL70:
 795 0000 38B5     		push	{r3, r4, r5, lr}
 796              		.cfi_def_cfa_offset 16
 797              		.cfi_offset 3, -16
 798              		.cfi_offset 4, -12
ARM GAS  /tmp/ccSvZQDP.s 			page 15


 799              		.cfi_offset 5, -8
 800              		.cfi_offset 14, -4
 801              		.loc 1 502 0
 802 0002 0F4B     		ldr	r3, .L33
 803 0004 9C69     		ldr	r4, [r3, #24]
 804              	.LVL71:
 805              		.loc 1 505 0
 806 0006 6062     		str	r0, [r4, #36]
 807              		.loc 1 512 0
 808 0008 04F12805 		add	r5, r4, #40
 809              	.LVL72:
 810              	.L30:
 811              	.LBB353:
 812              	.LBB354:
 813              		.loc 2 527 0
 814 000c A06A     		ldr	r0, [r4, #40]
 815              	.LVL73:
 816              	.LBE354:
 817              	.LBE353:
 818              		.loc 1 512 0
 819 000e A842     		cmp	r0, r5
 820 0010 10D1     		bne	.L31
 821              		.loc 1 521 0
 822 0012 94F82230 		ldrb	r3, [r4, #34]	@ zero_extendqisi2
 823 0016 43B9     		cbnz	r3, .L32
 824              		.loc 1 521 0 is_stmt 0 discriminator 1
 825 0018 94F82130 		ldrb	r3, [r4, #33]	@ zero_extendqisi2
 826 001c 9B07     		lsls	r3, r3, #30
 827 001e 04D1     		bne	.L32
 828              		.loc 1 523 0 is_stmt 1
 829 0020 6369     		ldr	r3, [r4, #20]
 830 0022 2269     		ldr	r2, [r4, #16]
 831 0024 1A61     		str	r2, [r3, #16]
 832 0026 2269     		ldr	r2, [r4, #16]
 833 0028 5361     		str	r3, [r2, #20]
 834              	.L32:
 835              		.loc 1 533 0
 836 002a 0F20     		movs	r0, #15
 837              		.loc 1 537 0
 838 002c BDE83840 		pop	{r3, r4, r5, lr}
 839              		.cfi_remember_state
 840              		.cfi_restore 14
 841              		.cfi_restore 5
 842              		.cfi_restore 4
 843              		.cfi_restore 3
 844              		.cfi_def_cfa_offset 0
 845              	.LVL74:
 846              		.loc 1 533 0
 847 0030 FFF7FEBF 		b	chSchGoSleepS
 848              	.LVL75:
 849              	.L31:
 850              		.cfi_restore_state
 851              	.LBB355:
 852              	.LBB356:
 853              		.loc 2 581 0
 854 0034 0368     		ldr	r3, [r0]
 855 0036 A362     		str	r3, [r4, #40]
ARM GAS  /tmp/ccSvZQDP.s 			page 16


 856              	.LVL76:
 857              	.LBE356:
 858              	.LBE355:
 859              		.loc 1 513 0
 860 0038 FFF7FEFF 		bl	chSchReadyI
 861              	.LVL77:
 862 003c E6E7     		b	.L30
 863              	.L34:
 864 003e 00BF     		.align	2
 865              	.L33:
 866 0040 00000000 		.word	ch
 867              		.cfi_endproc
 868              	.LFE301:
 869              		.size	chThdExitS, .-chThdExitS
 870              		.section	.text.chThdExit,"ax",%progbits
 871              		.align	1
 872              		.global	chThdExit
 873              		.syntax unified
 874              		.thumb
 875              		.thumb_func
 876              		.fpu fpv4-sp-d16
 877              		.type	chThdExit, %function
 878              	chThdExit:
 879              	.LFB300:
 880              		.loc 1 477 0
 881              		.cfi_startproc
 882              		@ args = 0, pretend = 0, frame = 0
 883              		@ frame_needed = 0, uses_anonymous_args = 0
 884              		@ link register save eliminated.
 885              	.LVL78:
 886              	.LBB357:
 887              	.LBB358:
 888              	.LBB359:
 889              	.LBB360:
 890              		.loc 3 493 0
 891 0000 2023     		movs	r3, #32
 892              		.syntax unified
 893              	@ 493 "../../modules/ChibiOS/os/common/ext/ARM/CMSIS/Core/Include/cmsis_gcc.h" 1
 894 0002 83F31188 		MSR basepri, r3
 895              	@ 0 "" 2
 896              	.LVL79:
 897              		.thumb
 898              		.syntax unified
 899              	.LBE360:
 900              	.LBE359:
 901              	.LBE358:
 902              	.LBE357:
 903              		.loc 1 480 0
 904 0006 FFF7FEBF 		b	chThdExitS
 905              	.LVL80:
 906              		.cfi_endproc
 907              	.LFE300:
 908              		.size	chThdExit, .-chThdExit
 909              		.section	.text.chThdWait,"ax",%progbits
 910              		.align	1
 911              		.global	chThdWait
 912              		.syntax unified
ARM GAS  /tmp/ccSvZQDP.s 			page 17


 913              		.thumb
 914              		.thumb_func
 915              		.fpu fpv4-sp-d16
 916              		.type	chThdWait, %function
 917              	chThdWait:
 918              	.LFB302:
 919              		.loc 1 559 0
 920              		.cfi_startproc
 921              		@ args = 0, pretend = 0, frame = 0
 922              		@ frame_needed = 0, uses_anonymous_args = 0
 923              	.LVL81:
 924 0000 38B5     		push	{r3, r4, r5, lr}
 925              		.cfi_def_cfa_offset 16
 926              		.cfi_offset 3, -16
 927              		.cfi_offset 4, -12
 928              		.cfi_offset 5, -8
 929              		.cfi_offset 14, -4
 930              		.loc 1 559 0
 931 0002 0446     		mov	r4, r0
 932              	.LBB361:
 933              	.LBB362:
 934              	.LBB363:
 935              	.LBB364:
 936              		.loc 3 493 0
 937 0004 2023     		movs	r3, #32
 938              		.syntax unified
 939              	@ 493 "../../modules/ChibiOS/os/common/ext/ARM/CMSIS/Core/Include/cmsis_gcc.h" 1
 940 0006 83F31188 		MSR basepri, r3
 941              	@ 0 "" 2
 942              	.LVL82:
 943              		.thumb
 944              		.syntax unified
 945              	.LBE364:
 946              	.LBE363:
 947              	.LBE362:
 948              	.LBE361:
 949              		.loc 1 570 0
 950 000a 90F82030 		ldrb	r3, [r0, #32]	@ zero_extendqisi2
 951 000e 0F2B     		cmp	r3, #15
 952 0010 07D0     		beq	.L37
 953              		.loc 1 571 0
 954 0012 084B     		ldr	r3, .L41
 955              	.LBB365:
 956              	.LBB366:
 957              		.loc 2 574 0
 958 0014 826A     		ldr	r2, [r0, #40]
 959              	.LBE366:
 960              	.LBE365:
 961              		.loc 1 571 0
 962 0016 9B69     		ldr	r3, [r3, #24]
 963              	.LVL83:
 964              	.LBB368:
 965              	.LBB367:
 966              		.loc 2 574 0
 967 0018 1A60     		str	r2, [r3]
 968              		.loc 2 575 0
 969 001a 8362     		str	r3, [r0, #40]
ARM GAS  /tmp/ccSvZQDP.s 			page 18


 970              	.LVL84:
 971              	.LBE367:
 972              	.LBE368:
 973              		.loc 1 572 0
 974 001c 0920     		movs	r0, #9
 975              	.LVL85:
 976 001e FFF7FEFF 		bl	chSchGoSleepS
 977              	.LVL86:
 978              	.L37:
 979              		.loc 1 574 0
 980 0022 656A     		ldr	r5, [r4, #36]
 981              	.LVL87:
 982              	.LBB369:
 983              	.LBB370:
 984              	.LBB371:
 985              	.LBB372:
 986              	.LBB373:
 987              		.loc 3 493 0
 988 0024 0023     		movs	r3, #0
 989              		.syntax unified
 990              	@ 493 "../../modules/ChibiOS/os/common/ext/ARM/CMSIS/Core/Include/cmsis_gcc.h" 1
 991 0026 83F31188 		MSR basepri, r3
 992              	@ 0 "" 2
 993              	.LVL88:
 994              		.thumb
 995              		.syntax unified
 996              	.LBE373:
 997              	.LBE372:
 998              	.LBE371:
 999              	.LBE370:
 1000              	.LBE369:
 1001              		.loc 1 579 0
 1002 002a 2046     		mov	r0, r4
 1003 002c FFF7FEFF 		bl	chThdRelease
 1004              	.LVL89:
 1005              		.loc 1 583 0
 1006 0030 2846     		mov	r0, r5
 1007 0032 38BD     		pop	{r3, r4, r5, pc}
 1008              	.LVL90:
 1009              	.L42:
 1010              		.align	2
 1011              	.L41:
 1012 0034 00000000 		.word	ch
 1013              		.cfi_endproc
 1014              	.LFE302:
 1015              		.size	chThdWait, .-chThdWait
 1016              		.section	.text.chThdSetPriority,"ax",%progbits
 1017              		.align	1
 1018              		.global	chThdSetPriority
 1019              		.syntax unified
 1020              		.thumb
 1021              		.thumb_func
 1022              		.fpu fpv4-sp-d16
 1023              		.type	chThdSetPriority, %function
 1024              	chThdSetPriority:
 1025              	.LFB303:
 1026              		.loc 1 598 0
ARM GAS  /tmp/ccSvZQDP.s 			page 19


 1027              		.cfi_startproc
 1028              		@ args = 0, pretend = 0, frame = 0
 1029              		@ frame_needed = 0, uses_anonymous_args = 0
 1030              	.LVL91:
 1031 0000 10B5     		push	{r4, lr}
 1032              		.cfi_def_cfa_offset 8
 1033              		.cfi_offset 4, -8
 1034              		.cfi_offset 14, -4
 1035              	.LBB374:
 1036              	.LBB375:
 1037              	.LBB376:
 1038              	.LBB377:
 1039              		.loc 3 493 0
 1040 0002 2023     		movs	r3, #32
 1041              		.syntax unified
 1042              	@ 493 "../../modules/ChibiOS/os/common/ext/ARM/CMSIS/Core/Include/cmsis_gcc.h" 1
 1043 0004 83F31188 		MSR basepri, r3
 1044              	@ 0 "" 2
 1045              	.LVL92:
 1046              		.thumb
 1047              		.syntax unified
 1048              	.LBE377:
 1049              	.LBE376:
 1050              	.LBE375:
 1051              	.LBE374:
 1052              		.loc 1 605 0
 1053 0008 084B     		ldr	r3, .L46
 1054 000a 9B69     		ldr	r3, [r3, #24]
 1055 000c DC6B     		ldr	r4, [r3, #60]
 1056              	.LVL93:
 1057              		.loc 1 606 0
 1058 000e 9968     		ldr	r1, [r3, #8]
 1059 0010 8C42     		cmp	r4, r1
 1060 0012 01D0     		beq	.L44
 1061              		.loc 1 606 0 is_stmt 0 discriminator 1
 1062 0014 8142     		cmp	r1, r0
 1063 0016 00D2     		bcs	.L45
 1064              	.L44:
 1065              		.loc 1 607 0 is_stmt 1
 1066 0018 9860     		str	r0, [r3, #8]
 1067              	.L45:
 1068              		.loc 1 609 0
 1069 001a D863     		str	r0, [r3, #60]
 1070              		.loc 1 614 0
 1071 001c FFF7FEFF 		bl	chSchRescheduleS
 1072              	.LVL94:
 1073              	.LBB378:
 1074              	.LBB379:
 1075              	.LBB380:
 1076              	.LBB381:
 1077              	.LBB382:
 1078              		.loc 3 493 0
 1079 0020 0023     		movs	r3, #0
 1080              		.syntax unified
 1081              	@ 493 "../../modules/ChibiOS/os/common/ext/ARM/CMSIS/Core/Include/cmsis_gcc.h" 1
 1082 0022 83F31188 		MSR basepri, r3
 1083              	@ 0 "" 2
ARM GAS  /tmp/ccSvZQDP.s 			page 20


 1084              	.LVL95:
 1085              		.thumb
 1086              		.syntax unified
 1087              	.LBE382:
 1088              	.LBE381:
 1089              	.LBE380:
 1090              	.LBE379:
 1091              	.LBE378:
 1092              		.loc 1 618 0
 1093 0026 2046     		mov	r0, r4
 1094 0028 10BD     		pop	{r4, pc}
 1095              	.LVL96:
 1096              	.L47:
 1097 002a 00BF     		.align	2
 1098              	.L46:
 1099 002c 00000000 		.word	ch
 1100              		.cfi_endproc
 1101              	.LFE303:
 1102              		.size	chThdSetPriority, .-chThdSetPriority
 1103              		.section	.text.chThdTerminate,"ax",%progbits
 1104              		.align	1
 1105              		.global	chThdTerminate
 1106              		.syntax unified
 1107              		.thumb
 1108              		.thumb_func
 1109              		.fpu fpv4-sp-d16
 1110              		.type	chThdTerminate, %function
 1111              	chThdTerminate:
 1112              	.LFB304:
 1113              		.loc 1 632 0
 1114              		.cfi_startproc
 1115              		@ args = 0, pretend = 0, frame = 0
 1116              		@ frame_needed = 0, uses_anonymous_args = 0
 1117              		@ link register save eliminated.
 1118              	.LVL97:
 1119              	.LBB383:
 1120              	.LBB384:
 1121              	.LBB385:
 1122              	.LBB386:
 1123              		.loc 3 493 0
 1124 0000 2023     		movs	r3, #32
 1125              		.syntax unified
 1126              	@ 493 "../../modules/ChibiOS/os/common/ext/ARM/CMSIS/Core/Include/cmsis_gcc.h" 1
 1127 0002 83F31188 		MSR basepri, r3
 1128              	@ 0 "" 2
 1129              	.LVL98:
 1130              		.thumb
 1131              		.syntax unified
 1132              	.LBE386:
 1133              	.LBE385:
 1134              	.LBE384:
 1135              	.LBE383:
 1136              		.loc 1 635 0
 1137 0006 90F82130 		ldrb	r3, [r0, #33]	@ zero_extendqisi2
 1138 000a 43F00403 		orr	r3, r3, #4
 1139 000e 80F82130 		strb	r3, [r0, #33]
 1140              	.LVL99:
ARM GAS  /tmp/ccSvZQDP.s 			page 21


 1141              	.LBB387:
 1142              	.LBB388:
 1143              	.LBB389:
 1144              	.LBB390:
 1145              	.LBB391:
 1146              		.loc 3 493 0
 1147 0012 0023     		movs	r3, #0
 1148              		.syntax unified
 1149              	@ 493 "../../modules/ChibiOS/os/common/ext/ARM/CMSIS/Core/Include/cmsis_gcc.h" 1
 1150 0014 83F31188 		MSR basepri, r3
 1151              	@ 0 "" 2
 1152              	.LVL100:
 1153              		.thumb
 1154              		.syntax unified
 1155 0018 7047     		bx	lr
 1156              	.LBE391:
 1157              	.LBE390:
 1158              	.LBE389:
 1159              	.LBE388:
 1160              	.LBE387:
 1161              		.cfi_endproc
 1162              	.LFE304:
 1163              		.size	chThdTerminate, .-chThdTerminate
 1164              		.section	.text.chThdSleep,"ax",%progbits
 1165              		.align	1
 1166              		.global	chThdSleep
 1167              		.syntax unified
 1168              		.thumb
 1169              		.thumb_func
 1170              		.fpu fpv4-sp-d16
 1171              		.type	chThdSleep, %function
 1172              	chThdSleep:
 1173              	.LFB305:
 1174              		.loc 1 651 0
 1175              		.cfi_startproc
 1176              		@ args = 0, pretend = 0, frame = 0
 1177              		@ frame_needed = 0, uses_anonymous_args = 0
 1178              	.LVL101:
 1179 0000 08B5     		push	{r3, lr}
 1180              		.cfi_def_cfa_offset 8
 1181              		.cfi_offset 3, -8
 1182              		.cfi_offset 14, -4
 1183              		.loc 1 651 0
 1184 0002 0146     		mov	r1, r0
 1185              	.LBB403:
 1186              	.LBB404:
 1187              	.LBB405:
 1188              	.LBB406:
 1189              		.loc 3 493 0
 1190 0004 2023     		movs	r3, #32
 1191              		.syntax unified
 1192              	@ 493 "../../modules/ChibiOS/os/common/ext/ARM/CMSIS/Core/Include/cmsis_gcc.h" 1
 1193 0006 83F31188 		MSR basepri, r3
 1194              	@ 0 "" 2
 1195              	.LVL102:
 1196              		.thumb
 1197              		.syntax unified
ARM GAS  /tmp/ccSvZQDP.s 			page 22


 1198              	.LBE406:
 1199              	.LBE405:
 1200              	.LBE404:
 1201              	.LBE403:
 1202              	.LBB407:
 1203              	.LBB408:
 1204              		.file 4 "../../modules/ChibiOS/os/rt/include/chthreads.h"
 1205              		.loc 4 382 0
 1206 000a 0820     		movs	r0, #8
 1207              	.LVL103:
 1208 000c FFF7FEFF 		bl	chSchGoSleepTimeoutS
 1209              	.LVL104:
 1210              	.LBE408:
 1211              	.LBE407:
 1212              	.LBB409:
 1213              	.LBB410:
 1214              	.LBB411:
 1215              	.LBB412:
 1216              	.LBB413:
 1217              		.loc 3 493 0
 1218 0010 0023     		movs	r3, #0
 1219              		.syntax unified
 1220              	@ 493 "../../modules/ChibiOS/os/common/ext/ARM/CMSIS/Core/Include/cmsis_gcc.h" 1
 1221 0012 83F31188 		MSR basepri, r3
 1222              	@ 0 "" 2
 1223              	.LVL105:
 1224              		.thumb
 1225              		.syntax unified
 1226 0016 08BD     		pop	{r3, pc}
 1227              	.LBE413:
 1228              	.LBE412:
 1229              	.LBE411:
 1230              	.LBE410:
 1231              	.LBE409:
 1232              		.cfi_endproc
 1233              	.LFE305:
 1234              		.size	chThdSleep, .-chThdSleep
 1235              		.section	.text.chThdSleepUntil,"ax",%progbits
 1236              		.align	1
 1237              		.global	chThdSleepUntil
 1238              		.syntax unified
 1239              		.thumb
 1240              		.thumb_func
 1241              		.fpu fpv4-sp-d16
 1242              		.type	chThdSleepUntil, %function
 1243              	chThdSleepUntil:
 1244              	.LFB306:
 1245              		.loc 1 671 0
 1246              		.cfi_startproc
 1247              		@ args = 0, pretend = 0, frame = 0
 1248              		@ frame_needed = 0, uses_anonymous_args = 0
 1249              	.LVL106:
 1250 0000 08B5     		push	{r3, lr}
 1251              		.cfi_def_cfa_offset 8
 1252              		.cfi_offset 3, -8
 1253              		.cfi_offset 14, -4
 1254              	.LBB431:
ARM GAS  /tmp/ccSvZQDP.s 			page 23


 1255              	.LBB432:
 1256              	.LBB433:
 1257              	.LBB434:
 1258              		.loc 3 493 0
 1259 0002 2023     		movs	r3, #32
 1260              		.syntax unified
 1261              	@ 493 "../../modules/ChibiOS/os/common/ext/ARM/CMSIS/Core/Include/cmsis_gcc.h" 1
 1262 0004 83F31188 		MSR basepri, r3
 1263              	@ 0 "" 2
 1264              	.LVL107:
 1265              		.thumb
 1266              		.syntax unified
 1267              	.LBE434:
 1268              	.LBE433:
 1269              	.LBE432:
 1270              	.LBE431:
 1271              	.LBB435:
 1272              	.LBB436:
 1273              	.LBB437:
 1274              	.LBB438:
 1275              		.file 5 "../../modules/ChibiOS/os/hal/ports/STM32/LLD/TIMv1/hal_st_lld.h"
 1276              		.loc 5 168 0
 1277 0008 054B     		ldr	r3, .L55
 1278 000a 596A     		ldr	r1, [r3, #36]
 1279              	.LBE438:
 1280              	.LBE437:
 1281              	.LBE436:
 1282              	.LBE435:
 1283              		.loc 1 676 0
 1284 000c 411A     		subs	r1, r0, r1
 1285 000e 02D0     		beq	.L51
 1286              	.LVL108:
 1287              	.LBB439:
 1288              	.LBB440:
 1289              		.loc 4 382 0
 1290 0010 0820     		movs	r0, #8
 1291              	.LVL109:
 1292 0012 FFF7FEFF 		bl	chSchGoSleepTimeoutS
 1293              	.LVL110:
 1294              	.L51:
 1295              	.LBE440:
 1296              	.LBE439:
 1297              	.LBB441:
 1298              	.LBB442:
 1299              	.LBB443:
 1300              	.LBB444:
 1301              	.LBB445:
 1302              		.loc 3 493 0
 1303 0016 0023     		movs	r3, #0
 1304              		.syntax unified
 1305              	@ 493 "../../modules/ChibiOS/os/common/ext/ARM/CMSIS/Core/Include/cmsis_gcc.h" 1
 1306 0018 83F31188 		MSR basepri, r3
 1307              	@ 0 "" 2
 1308              	.LVL111:
 1309              		.thumb
 1310              		.syntax unified
 1311 001c 08BD     		pop	{r3, pc}
ARM GAS  /tmp/ccSvZQDP.s 			page 24


 1312              	.L56:
 1313 001e 00BF     		.align	2
 1314              	.L55:
 1315 0020 000C0040 		.word	1073744896
 1316              	.LBE445:
 1317              	.LBE444:
 1318              	.LBE443:
 1319              	.LBE442:
 1320              	.LBE441:
 1321              		.cfi_endproc
 1322              	.LFE306:
 1323              		.size	chThdSleepUntil, .-chThdSleepUntil
 1324              		.section	.text.chThdSleepUntilWindowed,"ax",%progbits
 1325              		.align	1
 1326              		.global	chThdSleepUntilWindowed
 1327              		.syntax unified
 1328              		.thumb
 1329              		.thumb_func
 1330              		.fpu fpv4-sp-d16
 1331              		.type	chThdSleepUntilWindowed, %function
 1332              	chThdSleepUntilWindowed:
 1333              	.LFB307:
 1334              		.loc 1 696 0
 1335              		.cfi_startproc
 1336              		@ args = 0, pretend = 0, frame = 0
 1337              		@ frame_needed = 0, uses_anonymous_args = 0
 1338              	.LVL112:
 1339 0000 10B5     		push	{r4, lr}
 1340              		.cfi_def_cfa_offset 8
 1341              		.cfi_offset 4, -8
 1342              		.cfi_offset 14, -4
 1343              	.LBB465:
 1344              	.LBB466:
 1345              	.LBB467:
 1346              	.LBB468:
 1347              		.loc 3 493 0
 1348 0002 2023     		movs	r3, #32
 1349              	.LBE468:
 1350              	.LBE467:
 1351              	.LBE466:
 1352              	.LBE465:
 1353              		.loc 1 696 0
 1354 0004 0C46     		mov	r4, r1
 1355              	.LBB472:
 1356              	.LBB471:
 1357              	.LBB470:
 1358              	.LBB469:
 1359              		.loc 3 493 0
 1360              		.syntax unified
 1361              	@ 493 "../../modules/ChibiOS/os/common/ext/ARM/CMSIS/Core/Include/cmsis_gcc.h" 1
 1362 0006 83F31188 		MSR basepri, r3
 1363              	@ 0 "" 2
 1364              	.LVL113:
 1365              		.thumb
 1366              		.syntax unified
 1367              	.LBE469:
 1368              	.LBE470:
ARM GAS  /tmp/ccSvZQDP.s 			page 25


 1369              	.LBE471:
 1370              	.LBE472:
 1371              	.LBB473:
 1372              	.LBB474:
 1373              	.LBB475:
 1374              	.LBB476:
 1375              		.loc 5 168 0
 1376 000a 074B     		ldr	r3, .L59
 1377 000c 596A     		ldr	r1, [r3, #36]
 1378              	.LVL114:
 1379              	.LBE476:
 1380              	.LBE475:
 1381              	.LBE474:
 1382              	.LBE473:
 1383              	.LBB477:
 1384              	.LBB478:
 1385              		.file 6 "../../modules/ChibiOS/os/rt/include/chtime.h"
 1386              		.loc 6 535 0
 1387 000e 231A     		subs	r3, r4, r0
 1388 0010 081A     		subs	r0, r1, r0
 1389              	.LVL115:
 1390              	.LBE478:
 1391              	.LBE477:
 1392              		.loc 1 701 0
 1393 0012 8342     		cmp	r3, r0
 1394 0014 03D9     		bls	.L58
 1395              	.LVL116:
 1396              	.LBB479:
 1397              	.LBB480:
 1398              		.loc 4 382 0
 1399 0016 611A     		subs	r1, r4, r1
 1400              	.LVL117:
 1401 0018 0820     		movs	r0, #8
 1402 001a FFF7FEFF 		bl	chSchGoSleepTimeoutS
 1403              	.LVL118:
 1404              	.L58:
 1405              	.LBE480:
 1406              	.LBE479:
 1407              	.LBB481:
 1408              	.LBB482:
 1409              	.LBB483:
 1410              	.LBB484:
 1411              	.LBB485:
 1412              		.loc 3 493 0
 1413 001e 0023     		movs	r3, #0
 1414              		.syntax unified
 1415              	@ 493 "../../modules/ChibiOS/os/common/ext/ARM/CMSIS/Core/Include/cmsis_gcc.h" 1
 1416 0020 83F31188 		MSR basepri, r3
 1417              	@ 0 "" 2
 1418              	.LVL119:
 1419              		.thumb
 1420              		.syntax unified
 1421              	.LBE485:
 1422              	.LBE484:
 1423              	.LBE483:
 1424              	.LBE482:
 1425              	.LBE481:
ARM GAS  /tmp/ccSvZQDP.s 			page 26


 1426              		.loc 1 707 0
 1427 0024 2046     		mov	r0, r4
 1428 0026 10BD     		pop	{r4, pc}
 1429              	.LVL120:
 1430              	.L60:
 1431              		.align	2
 1432              	.L59:
 1433 0028 000C0040 		.word	1073744896
 1434              		.cfi_endproc
 1435              	.LFE307:
 1436              		.size	chThdSleepUntilWindowed, .-chThdSleepUntilWindowed
 1437              		.section	.text.chThdYield,"ax",%progbits
 1438              		.align	1
 1439              		.global	chThdYield
 1440              		.syntax unified
 1441              		.thumb
 1442              		.thumb_func
 1443              		.fpu fpv4-sp-d16
 1444              		.type	chThdYield, %function
 1445              	chThdYield:
 1446              	.LFB308:
 1447              		.loc 1 716 0
 1448              		.cfi_startproc
 1449              		@ args = 0, pretend = 0, frame = 0
 1450              		@ frame_needed = 0, uses_anonymous_args = 0
 1451              	.LVL121:
 1452 0000 08B5     		push	{r3, lr}
 1453              		.cfi_def_cfa_offset 8
 1454              		.cfi_offset 3, -8
 1455              		.cfi_offset 14, -4
 1456              	.LBB499:
 1457              	.LBB500:
 1458              	.LBB501:
 1459              	.LBB502:
 1460              		.loc 3 493 0
 1461 0002 2023     		movs	r3, #32
 1462              		.syntax unified
 1463              	@ 493 "../../modules/ChibiOS/os/common/ext/ARM/CMSIS/Core/Include/cmsis_gcc.h" 1
 1464 0004 83F31188 		MSR basepri, r3
 1465              	@ 0 "" 2
 1466              	.LVL122:
 1467              		.thumb
 1468              		.syntax unified
 1469              	.LBE502:
 1470              	.LBE501:
 1471              	.LBE500:
 1472              	.LBE499:
 1473              	.LBB503:
 1474              	.LBB504:
 1475              	.LBB505:
 1476              	.LBB506:
 1477              		.loc 2 666 0
 1478 0008 064B     		ldr	r3, .L63
 1479 000a 1A68     		ldr	r2, [r3]
 1480 000c 9B69     		ldr	r3, [r3, #24]
 1481              	.LBE506:
 1482              	.LBE505:
ARM GAS  /tmp/ccSvZQDP.s 			page 27


 1483              		.loc 2 680 0
 1484 000e 9268     		ldr	r2, [r2, #8]
 1485 0010 9B68     		ldr	r3, [r3, #8]
 1486 0012 9A42     		cmp	r2, r3
 1487 0014 01D3     		bcc	.L62
 1488              		.loc 2 681 0
 1489 0016 FFF7FEFF 		bl	chSchDoRescheduleBehind
 1490              	.LVL123:
 1491              	.L62:
 1492              	.LBE504:
 1493              	.LBE503:
 1494              	.LBB507:
 1495              	.LBB508:
 1496              	.LBB509:
 1497              	.LBB510:
 1498              	.LBB511:
 1499              		.loc 3 493 0
 1500 001a 0023     		movs	r3, #0
 1501              		.syntax unified
 1502              	@ 493 "../../modules/ChibiOS/os/common/ext/ARM/CMSIS/Core/Include/cmsis_gcc.h" 1
 1503 001c 83F31188 		MSR basepri, r3
 1504              	@ 0 "" 2
 1505              	.LVL124:
 1506              		.thumb
 1507              		.syntax unified
 1508 0020 08BD     		pop	{r3, pc}
 1509              	.L64:
 1510 0022 00BF     		.align	2
 1511              	.L63:
 1512 0024 00000000 		.word	ch
 1513              	.LBE511:
 1514              	.LBE510:
 1515              	.LBE509:
 1516              	.LBE508:
 1517              	.LBE507:
 1518              		.cfi_endproc
 1519              	.LFE308:
 1520              		.size	chThdYield, .-chThdYield
 1521              		.section	.text.chThdSuspendS,"ax",%progbits
 1522              		.align	1
 1523              		.global	chThdSuspendS
 1524              		.syntax unified
 1525              		.thumb
 1526              		.thumb_func
 1527              		.fpu fpv4-sp-d16
 1528              		.type	chThdSuspendS, %function
 1529              	chThdSuspendS:
 1530              	.LFB309:
 1531              		.loc 1 733 0
 1532              		.cfi_startproc
 1533              		@ args = 0, pretend = 0, frame = 0
 1534              		@ frame_needed = 0, uses_anonymous_args = 0
 1535              	.LVL125:
 1536 0000 10B5     		push	{r4, lr}
 1537              		.cfi_def_cfa_offset 8
 1538              		.cfi_offset 4, -8
 1539              		.cfi_offset 14, -4
ARM GAS  /tmp/ccSvZQDP.s 			page 28


 1540              	.LBB512:
 1541              	.LBB513:
 1542              		.loc 4 274 0
 1543 0002 054C     		ldr	r4, .L66
 1544 0004 A369     		ldr	r3, [r4, #24]
 1545              	.LBE513:
 1546              	.LBE512:
 1547              		.loc 1 738 0
 1548 0006 0360     		str	r3, [r0]
 1549              		.loc 1 739 0
 1550 0008 5862     		str	r0, [r3, #36]
 1551              		.loc 1 740 0
 1552 000a 0320     		movs	r0, #3
 1553              	.LVL126:
 1554 000c FFF7FEFF 		bl	chSchGoSleepS
 1555              	.LVL127:
 1556              		.loc 1 742 0
 1557 0010 A369     		ldr	r3, [r4, #24]
 1558              		.loc 1 743 0
 1559 0012 586A     		ldr	r0, [r3, #36]
 1560 0014 10BD     		pop	{r4, pc}
 1561              	.L67:
 1562 0016 00BF     		.align	2
 1563              	.L66:
 1564 0018 00000000 		.word	ch
 1565              		.cfi_endproc
 1566              	.LFE309:
 1567              		.size	chThdSuspendS, .-chThdSuspendS
 1568              		.section	.text.chThdSuspendTimeoutS,"ax",%progbits
 1569              		.align	1
 1570              		.global	chThdSuspendTimeoutS
 1571              		.syntax unified
 1572              		.thumb
 1573              		.thumb_func
 1574              		.fpu fpv4-sp-d16
 1575              		.type	chThdSuspendTimeoutS, %function
 1576              	chThdSuspendTimeoutS:
 1577              	.LFB310:
 1578              		.loc 1 764 0
 1579              		.cfi_startproc
 1580              		@ args = 0, pretend = 0, frame = 0
 1581              		@ frame_needed = 0, uses_anonymous_args = 0
 1582              		@ link register save eliminated.
 1583              	.LVL128:
 1584              	.LBB514:
 1585              	.LBB515:
 1586              		.loc 4 274 0
 1587 0000 054B     		ldr	r3, .L70
 1588 0002 9B69     		ldr	r3, [r3, #24]
 1589              	.LBE515:
 1590              	.LBE514:
 1591              		.loc 1 769 0
 1592 0004 21B1     		cbz	r1, .L69
 1593              		.loc 1 773 0
 1594 0006 0360     		str	r3, [r0]
 1595              		.loc 1 774 0
 1596 0008 5862     		str	r0, [r3, #36]
ARM GAS  /tmp/ccSvZQDP.s 			page 29


 1597              		.loc 1 776 0
 1598 000a 0320     		movs	r0, #3
 1599              	.LVL129:
 1600 000c FFF7FEBF 		b	chSchGoSleepTimeoutS
 1601              	.LVL130:
 1602              	.L69:
 1603              		.loc 1 777 0
 1604 0010 4FF0FF30 		mov	r0, #-1
 1605              	.LVL131:
 1606 0014 7047     		bx	lr
 1607              	.L71:
 1608 0016 00BF     		.align	2
 1609              	.L70:
 1610 0018 00000000 		.word	ch
 1611              		.cfi_endproc
 1612              	.LFE310:
 1613              		.size	chThdSuspendTimeoutS, .-chThdSuspendTimeoutS
 1614              		.section	.text.chThdResumeI,"ax",%progbits
 1615              		.align	1
 1616              		.global	chThdResumeI
 1617              		.syntax unified
 1618              		.thumb
 1619              		.thumb_func
 1620              		.fpu fpv4-sp-d16
 1621              		.type	chThdResumeI, %function
 1622              	chThdResumeI:
 1623              	.LFB311:
 1624              		.loc 1 789 0
 1625              		.cfi_startproc
 1626              		@ args = 0, pretend = 0, frame = 0
 1627              		@ frame_needed = 0, uses_anonymous_args = 0
 1628              		@ link register save eliminated.
 1629              	.LVL132:
 1630              		.loc 1 791 0
 1631 0000 0368     		ldr	r3, [r0]
 1632 0002 2BB1     		cbz	r3, .L72
 1633              	.LVL133:
 1634              	.LBB516:
 1635              		.loc 1 796 0
 1636 0004 0022     		movs	r2, #0
 1637 0006 0260     		str	r2, [r0]
 1638              		.loc 1 797 0
 1639 0008 5962     		str	r1, [r3, #36]
 1640              		.loc 1 798 0
 1641 000a 1846     		mov	r0, r3
 1642              	.LVL134:
 1643 000c FFF7FEBF 		b	chSchReadyI
 1644              	.LVL135:
 1645              	.L72:
 1646 0010 7047     		bx	lr
 1647              	.LBE516:
 1648              		.cfi_endproc
 1649              	.LFE311:
 1650              		.size	chThdResumeI, .-chThdResumeI
 1651              		.section	.text.chThdResumeS,"ax",%progbits
 1652              		.align	1
 1653              		.global	chThdResumeS
ARM GAS  /tmp/ccSvZQDP.s 			page 30


 1654              		.syntax unified
 1655              		.thumb
 1656              		.thumb_func
 1657              		.fpu fpv4-sp-d16
 1658              		.type	chThdResumeS, %function
 1659              	chThdResumeS:
 1660              	.LFB312:
 1661              		.loc 1 812 0
 1662              		.cfi_startproc
 1663              		@ args = 0, pretend = 0, frame = 0
 1664              		@ frame_needed = 0, uses_anonymous_args = 0
 1665              		@ link register save eliminated.
 1666              	.LVL136:
 1667              		.loc 1 814 0
 1668 0000 0368     		ldr	r3, [r0]
 1669 0002 23B1     		cbz	r3, .L74
 1670              	.LVL137:
 1671              	.LBB517:
 1672              		.loc 1 819 0
 1673 0004 0022     		movs	r2, #0
 1674 0006 0260     		str	r2, [r0]
 1675              		.loc 1 820 0
 1676 0008 1846     		mov	r0, r3
 1677              	.LVL138:
 1678 000a FFF7FEBF 		b	chSchWakeupS
 1679              	.LVL139:
 1680              	.L74:
 1681 000e 7047     		bx	lr
 1682              	.LBE517:
 1683              		.cfi_endproc
 1684              	.LFE312:
 1685              		.size	chThdResumeS, .-chThdResumeS
 1686              		.section	.text.chThdResume,"ax",%progbits
 1687              		.align	1
 1688              		.global	chThdResume
 1689              		.syntax unified
 1690              		.thumb
 1691              		.thumb_func
 1692              		.fpu fpv4-sp-d16
 1693              		.type	chThdResume, %function
 1694              	chThdResume:
 1695              	.LFB313:
 1696              		.loc 1 834 0
 1697              		.cfi_startproc
 1698              		@ args = 0, pretend = 0, frame = 0
 1699              		@ frame_needed = 0, uses_anonymous_args = 0
 1700              	.LVL140:
 1701 0000 08B5     		push	{r3, lr}
 1702              		.cfi_def_cfa_offset 8
 1703              		.cfi_offset 3, -8
 1704              		.cfi_offset 14, -4
 1705              	.LBB518:
 1706              	.LBB519:
 1707              	.LBB520:
 1708              	.LBB521:
 1709              		.loc 3 493 0
 1710 0002 2023     		movs	r3, #32
ARM GAS  /tmp/ccSvZQDP.s 			page 31


 1711              		.syntax unified
 1712              	@ 493 "../../modules/ChibiOS/os/common/ext/ARM/CMSIS/Core/Include/cmsis_gcc.h" 1
 1713 0004 83F31188 		MSR basepri, r3
 1714              	@ 0 "" 2
 1715              	.LVL141:
 1716              		.thumb
 1717              		.syntax unified
 1718              	.LBE521:
 1719              	.LBE520:
 1720              	.LBE519:
 1721              	.LBE518:
 1722              		.loc 1 837 0
 1723 0008 FFF7FEFF 		bl	chThdResumeS
 1724              	.LVL142:
 1725              	.LBB522:
 1726              	.LBB523:
 1727              	.LBB524:
 1728              	.LBB525:
 1729              	.LBB526:
 1730              		.loc 3 493 0
 1731 000c 0023     		movs	r3, #0
 1732              		.syntax unified
 1733              	@ 493 "../../modules/ChibiOS/os/common/ext/ARM/CMSIS/Core/Include/cmsis_gcc.h" 1
 1734 000e 83F31188 		MSR basepri, r3
 1735              	@ 0 "" 2
 1736              	.LVL143:
 1737              		.thumb
 1738              		.syntax unified
 1739 0012 08BD     		pop	{r3, pc}
 1740              	.LBE526:
 1741              	.LBE525:
 1742              	.LBE524:
 1743              	.LBE523:
 1744              	.LBE522:
 1745              		.cfi_endproc
 1746              	.LFE313:
 1747              		.size	chThdResume, .-chThdResume
 1748              		.section	.text.chThdEnqueueTimeoutS,"ax",%progbits
 1749              		.align	1
 1750              		.global	chThdEnqueueTimeoutS
 1751              		.syntax unified
 1752              		.thumb
 1753              		.thumb_func
 1754              		.fpu fpv4-sp-d16
 1755              		.type	chThdEnqueueTimeoutS, %function
 1756              	chThdEnqueueTimeoutS:
 1757              	.LFB314:
 1758              		.loc 1 864 0
 1759              		.cfi_startproc
 1760              		@ args = 0, pretend = 0, frame = 0
 1761              		@ frame_needed = 0, uses_anonymous_args = 0
 1762              		@ link register save eliminated.
 1763              	.LVL144:
 1764              		.loc 1 866 0
 1765 0000 49B1     		cbz	r1, .L78
 1766              		.loc 1 870 0
 1767 0002 064B     		ldr	r3, .L79
ARM GAS  /tmp/ccSvZQDP.s 			page 32


 1768              	.LBB527:
 1769              	.LBB528:
 1770              		.loc 2 601 0
 1771 0004 4268     		ldr	r2, [r0, #4]
 1772              	.LBE528:
 1773              	.LBE527:
 1774              		.loc 1 870 0
 1775 0006 9B69     		ldr	r3, [r3, #24]
 1776              	.LVL145:
 1777              	.LBB530:
 1778              	.LBB529:
 1779              		.loc 2 600 0
 1780 0008 1860     		str	r0, [r3]
 1781              		.loc 2 601 0
 1782 000a 5A60     		str	r2, [r3, #4]
 1783              		.loc 2 602 0
 1784 000c 1360     		str	r3, [r2]
 1785              		.loc 2 603 0
 1786 000e 4360     		str	r3, [r0, #4]
 1787              	.LVL146:
 1788              	.LBE529:
 1789              	.LBE530:
 1790              		.loc 1 872 0
 1791 0010 0420     		movs	r0, #4
 1792              	.LVL147:
 1793 0012 FFF7FEBF 		b	chSchGoSleepTimeoutS
 1794              	.LVL148:
 1795              	.L78:
 1796              		.loc 1 873 0
 1797 0016 4FF0FF30 		mov	r0, #-1
 1798              	.LVL149:
 1799 001a 7047     		bx	lr
 1800              	.L80:
 1801              		.align	2
 1802              	.L79:
 1803 001c 00000000 		.word	ch
 1804              		.cfi_endproc
 1805              	.LFE314:
 1806              		.size	chThdEnqueueTimeoutS, .-chThdEnqueueTimeoutS
 1807              		.section	.text.chThdDequeueNextI,"ax",%progbits
 1808              		.align	1
 1809              		.global	chThdDequeueNextI
 1810              		.syntax unified
 1811              		.thumb
 1812              		.thumb_func
 1813              		.fpu fpv4-sp-d16
 1814              		.type	chThdDequeueNextI, %function
 1815              	chThdDequeueNextI:
 1816              	.LFB315:
 1817              		.loc 1 884 0
 1818              		.cfi_startproc
 1819              		@ args = 0, pretend = 0, frame = 0
 1820              		@ frame_needed = 0, uses_anonymous_args = 0
 1821              		@ link register save eliminated.
 1822              	.LVL150:
 1823              	.LBB537:
 1824              	.LBB538:
ARM GAS  /tmp/ccSvZQDP.s 			page 33


 1825              		.loc 2 566 0
 1826 0000 0368     		ldr	r3, [r0]
 1827              	.LVL151:
 1828              	.LBE538:
 1829              	.LBE537:
 1830              		.loc 1 886 0
 1831 0002 9842     		cmp	r0, r3
 1832 0004 06D0     		beq	.L81
 1833              	.LVL152:
 1834              	.LBB539:
 1835              	.LBB540:
 1836              	.LBB541:
 1837              	.LBB542:
 1838              		.loc 2 609 0
 1839 0006 1A68     		ldr	r2, [r3]
 1840 0008 0260     		str	r2, [r0]
 1841              		.loc 2 610 0
 1842 000a 5060     		str	r0, [r2, #4]
 1843              	.LVL153:
 1844              	.LBE542:
 1845              	.LBE541:
 1846              		.loc 4 434 0
 1847 000c 5962     		str	r1, [r3, #36]
 1848              		.loc 4 435 0
 1849 000e 1846     		mov	r0, r3
 1850              	.LVL154:
 1851 0010 FFF7FEBF 		b	chSchReadyI
 1852              	.LVL155:
 1853              	.L81:
 1854 0014 7047     		bx	lr
 1855              	.LBE540:
 1856              	.LBE539:
 1857              		.cfi_endproc
 1858              	.LFE315:
 1859              		.size	chThdDequeueNextI, .-chThdDequeueNextI
 1860              		.section	.text.chThdDequeueAllI,"ax",%progbits
 1861              		.align	1
 1862              		.global	chThdDequeueAllI
 1863              		.syntax unified
 1864              		.thumb
 1865              		.thumb_func
 1866              		.fpu fpv4-sp-d16
 1867              		.type	chThdDequeueAllI, %function
 1868              	chThdDequeueAllI:
 1869              	.LFB316:
 1870              		.loc 1 899 0
 1871              		.cfi_startproc
 1872              		@ args = 0, pretend = 0, frame = 0
 1873              		@ frame_needed = 0, uses_anonymous_args = 0
 1874              	.LVL156:
 1875 0000 38B5     		push	{r3, r4, r5, lr}
 1876              		.cfi_def_cfa_offset 16
 1877              		.cfi_offset 3, -16
 1878              		.cfi_offset 4, -12
 1879              		.cfi_offset 5, -8
 1880              		.cfi_offset 14, -4
 1881 0002 0446     		mov	r4, r0
ARM GAS  /tmp/ccSvZQDP.s 			page 34


 1882 0004 0D46     		mov	r5, r1
 1883              	.LVL157:
 1884              	.L84:
 1885              	.LBB549:
 1886              	.LBB550:
 1887              		.loc 2 566 0
 1888 0006 2068     		ldr	r0, [r4]
 1889              	.LVL158:
 1890              	.LBE550:
 1891              	.LBE549:
 1892              		.loc 1 901 0
 1893 0008 8442     		cmp	r4, r0
 1894 000a 00D1     		bne	.L85
 1895              		.loc 1 904 0
 1896 000c 38BD     		pop	{r3, r4, r5, pc}
 1897              	.LVL159:
 1898              	.L85:
 1899              	.LBB551:
 1900              	.LBB552:
 1901              	.LBB553:
 1902              	.LBB554:
 1903              		.loc 2 609 0
 1904 000e 0368     		ldr	r3, [r0]
 1905 0010 2360     		str	r3, [r4]
 1906              		.loc 2 610 0
 1907 0012 5C60     		str	r4, [r3, #4]
 1908              	.LVL160:
 1909              	.LBE554:
 1910              	.LBE553:
 1911              		.loc 4 434 0
 1912 0014 4562     		str	r5, [r0, #36]
 1913              		.loc 4 435 0
 1914 0016 FFF7FEFF 		bl	chSchReadyI
 1915              	.LVL161:
 1916 001a F4E7     		b	.L84
 1917              	.LBE552:
 1918              	.LBE551:
 1919              		.cfi_endproc
 1920              	.LFE316:
 1921              		.size	chThdDequeueAllI, .-chThdDequeueAllI
 1922              		.section	.rodata.chThdCreateStatic.str1.1,"aMS",%progbits,1
 1923              	.LC0:
 1924 0000 6E6F6E61 		.ascii	"noname\000"
 1924      6D6500
 1925              		.text
 1926              	.Letext0:
 1927              		.file 7 "/opt/gcc-arm-none-eabi-6-2017-q2-update/lib/gcc/arm-none-eabi/6.3.1/include/stddef.h"
 1928              		.file 8 "/opt/gcc-arm-none-eabi-6-2017-q2-update/arm-none-eabi/include/machine/_default_types.h"
 1929              		.file 9 "/opt/gcc-arm-none-eabi-6-2017-q2-update/arm-none-eabi/include/sys/_stdint.h"
 1930              		.file 10 "../../modules/ChibiOS/os/common/ports/ARMCMx/compilers/GCC/chtypes.h"
 1931              		.file 11 "../../modules/ChibiOS/os/rt/include/chsystypes.h"
 1932              		.file 12 "../../modules/ChibiOS/os/common/ext/ARM/CMSIS/Core/Include/core_cm4.h"
 1933              		.file 13 "../../modules/ChibiOS/os/common/ext/ST/STM32F4xx/system_stm32f4xx.h"
 1934              		.file 14 "../../modules/ChibiOS/os/common/ports/ARMCMx/chcore.h"
 1935              		.file 15 "../../modules/ChibiOS/os/common/ports/ARMCMx/chcore_v7m.h"
 1936              		.file 16 "../../modules/ChibiOS/os/hal/ports/STM32/LLD/TIMv1/stm32_tim.h"
 1937              		.file 17 "../../modules/ChibiOS/os/rt/include/chtm.h"
ARM GAS  /tmp/ccSvZQDP.s 			page 35


 1938              		.file 18 "../../modules/ChibiOS/os/rt/include/chsem.h"
 1939              		.file 19 "../../modules/ChibiOS/os/rt/include/chmtx.h"
 1940              		.file 20 "../../modules/ChibiOS/os/rt/include/chsys.h"
 1941              		.file 21 "../../modules/ChibiOS/os/rt/include/chregistry.h"
 1942              		.file 22 "../../modules/ChibiOS/os/oslib/include/chmemcore.h"
 1943              		.file 23 "../../modules/ChibiOS/os/oslib/include/chmempools.h"
 1944              		.file 24 "../../modules/ChibiOS/os/oslib/include/chfactory.h"
 1945              		.file 25 "../../modules/ChibiOS/os/rt/include/chvt.h"
 1946              		.file 26 "../../modules/ChibiOS/os/common/ports/ARMCMx/chcore_timer.h"
 1947              		.file 27 "../../modules/ChibiOS/os/oslib/include/chmemheaps.h"