ARM GAS  /tmp/cciMLgRf.s 			page 1


   1              		.cpu cortex-m4
   2              		.eabi_attribute 27, 1
   3              		.eabi_attribute 28, 1
   4              		.eabi_attribute 20, 1
   5              		.eabi_attribute 21, 1
   6              		.eabi_attribute 23, 3
   7              		.eabi_attribute 24, 1
   8              		.eabi_attribute 25, 1
   9              		.eabi_attribute 26, 1
  10              		.eabi_attribute 30, 4
  11              		.eabi_attribute 34, 1
  12              		.eabi_attribute 18, 4
  13              		.file	"chvt.c"
  14              		.text
  15              	.Ltext0:
  16              		.cfi_sections	.debug_frame
  17              		.section	.text._vt_init,"ax",%progbits
  18              		.align	1
  19              		.global	_vt_init
  20              		.syntax unified
  21              		.thumb
  22              		.thumb_func
  23              		.fpu fpv4-sp-d16
  24              		.type	_vt_init, %function
  25              	_vt_init:
  26              	.LFB290:
  27              		.file 1 "../../modules/ChibiOS/os/rt/src/chvt.c"
  28              		.loc 1 61 0
  29              		.cfi_startproc
  30              		@ args = 0, pretend = 0, frame = 0
  31              		@ frame_needed = 0, uses_anonymous_args = 0
  32              		@ link register save eliminated.
  33              		.loc 1 63 0
  34 0000 054B     		ldr	r3, .L2
  35 0002 03F11C02 		add	r2, r3, #28
  36 0006 DA61     		str	r2, [r3, #28]
  37              		.loc 1 64 0
  38 0008 1A62     		str	r2, [r3, #32]
  39              		.loc 1 65 0
  40 000a 4FF0FF32 		mov	r2, #-1
  41 000e 5A62     		str	r2, [r3, #36]
  42              		.loc 1 69 0
  43 0010 0022     		movs	r2, #0
  44 0012 9A62     		str	r2, [r3, #40]
  45 0014 7047     		bx	lr
  46              	.L3:
  47 0016 00BF     		.align	2
  48              	.L2:
  49 0018 00000000 		.word	ch
  50              		.cfi_endproc
  51              	.LFE290:
  52              		.size	_vt_init, .-_vt_init
  53              		.section	.text.chVTDoSetI,"ax",%progbits
  54              		.align	1
  55              		.global	chVTDoSetI
  56              		.syntax unified
  57              		.thumb
ARM GAS  /tmp/cciMLgRf.s 			page 2


  58              		.thumb_func
  59              		.fpu fpv4-sp-d16
  60              		.type	chVTDoSetI, %function
  61              	chVTDoSetI:
  62              	.LFB291:
  63              		.loc 1 96 0
  64              		.cfi_startproc
  65              		@ args = 0, pretend = 0, frame = 0
  66              		@ frame_needed = 0, uses_anonymous_args = 0
  67              	.LVL0:
  68 0000 F8B5     		push	{r3, r4, r5, r6, r7, lr}
  69              		.cfi_def_cfa_offset 24
  70              		.cfi_offset 3, -24
  71              		.cfi_offset 4, -20
  72              		.cfi_offset 5, -16
  73              		.cfi_offset 6, -12
  74              		.cfi_offset 7, -8
  75              		.cfi_offset 14, -4
  76              		.loc 1 103 0
  77 0002 0361     		str	r3, [r0, #16]
  78              	.LBB40:
  79              	.LBB41:
  80              	.LBB42:
  81              	.LBB43:
  82              	.LBB44:
  83              		.file 2 "../../modules/ChibiOS/os/hal/ports/STM32/LLD/TIMv1/hal_st_lld.h"
  84              		.loc 2 168 0
  85 0004 1A4B     		ldr	r3, .L10
  86              	.LVL1:
  87              	.LBE44:
  88              	.LBE43:
  89              	.LBE42:
  90              	.LBE41:
  91              	.LBE40:
  92              		.loc 1 104 0
  93 0006 C260     		str	r2, [r0, #12]
  94              	.LBB58:
  95              	.LBB48:
  96              	.LBB47:
  97              	.LBB46:
  98              	.LBB45:
  99              		.loc 2 168 0
 100 0008 5C6A     		ldr	r4, [r3, #36]
 101              	.LBE45:
 102              	.LBE46:
 103              	.LBE47:
 104              	.LBE48:
 105              		.loc 1 117 0
 106 000a 1A4B     		ldr	r3, .L10+4
 107 000c 1A46     		mov	r2, r3
 108              	.LVL2:
 109 000e 0229     		cmp	r1, #2
 110 0010 52F81C5F 		ldr	r5, [r2, #28]!
 111 0014 38BF     		it	cc
 112 0016 0221     		movcc	r1, #2
 113              	.LVL3:
 114 0018 9542     		cmp	r5, r2
ARM GAS  /tmp/cciMLgRf.s 			page 3


 115              	.LBE58:
 116              		.loc 1 96 0
 117 001a 0646     		mov	r6, r0
 118 001c 1F46     		mov	r7, r3
 119              	.LBB59:
 120              		.loc 1 117 0
 121 001e 0AD1     		bne	.L5
 122              		.loc 1 122 0
 123 0020 D861     		str	r0, [r3, #28]
 124              		.loc 1 123 0
 125 0022 1862     		str	r0, [r3, #32]
 126              		.loc 1 121 0
 127 0024 9C62     		str	r4, [r3, #40]
 128              		.loc 1 124 0
 129 0026 0560     		str	r5, [r0]
 130              		.loc 1 125 0
 131 0028 4560     		str	r5, [r0, #4]
 132              		.loc 1 126 0
 133 002a 8160     		str	r1, [r0, #8]
 134              	.LBB49:
 135              	.LBB50:
 136              		.file 3 "../../modules/ChibiOS/os/common/ports/ARMCMx/chcore_timer.h"
 137              		.loc 3 73 0
 138 002c 0819     		adds	r0, r1, r4
 139              	.LVL4:
 140              	.LBE50:
 141              	.LBE49:
 142              	.LBE59:
 143              		.loc 1 201 0
 144 002e BDE8F840 		pop	{r3, r4, r5, r6, r7, lr}
 145              		.cfi_remember_state
 146              		.cfi_restore 14
 147              		.cfi_restore 7
 148              		.cfi_restore 6
 149              		.cfi_restore 5
 150              		.cfi_restore 4
 151              		.cfi_restore 3
 152              		.cfi_def_cfa_offset 0
 153              	.LVL5:
 154              	.LBB60:
 155              	.LBB52:
 156              	.LBB51:
 157              		.loc 3 73 0
 158 0032 FFF7FEBF 		b	stStartAlarm
 159              	.LVL6:
 160              	.L5:
 161              		.cfi_restore_state
 162              	.LBE51:
 163              	.LBE52:
 164              		.loc 1 146 0
 165 0036 986A     		ldr	r0, [r3, #40]
 166              	.LVL7:
 167 0038 AB68     		ldr	r3, [r5, #8]
 168              	.LBB53:
 169              	.LBB54:
 170              		.file 4 "../../modules/ChibiOS/os/rt/include/chtime.h"
 171              		.loc 4 514 0
ARM GAS  /tmp/cciMLgRf.s 			page 4


 172 003a 241A     		subs	r4, r4, r0
 173              	.LVL8:
 174              	.LBE54:
 175              	.LBE53:
 176              		.loc 1 148 0
 177 003c 0C19     		adds	r4, r1, r4
 178              	.LVL9:
 179 003e 02D3     		bcc	.L6
 180              	.LVL10:
 181              	.L9:
 182              	.LBE60:
 183              		.loc 1 184 0
 184 0040 E41A     		subs	r4, r4, r3
 185              	.LVL11:
 186              		.loc 1 185 0
 187 0042 2D68     		ldr	r5, [r5]
 188              	.LVL12:
 189 0044 04E0     		b	.L8
 190              	.LVL13:
 191              	.L6:
 192              	.LBB61:
 193              		.loc 1 155 0
 194 0046 9C42     		cmp	r4, r3
 195 0048 02D2     		bcs	.L8
 196              	.LVL14:
 197              	.LBB55:
 198              	.LBB56:
 199              	.LBB57:
 200              		.loc 3 95 0
 201 004a 2044     		add	r0, r0, r4
 202 004c FFF7FEFF 		bl	stSetAlarm
 203              	.LVL15:
 204              	.L8:
 205              	.LBE57:
 206              	.LBE56:
 207              	.LBE55:
 208              	.LBE61:
 209              		.loc 1 180 0
 210 0050 AB68     		ldr	r3, [r5, #8]
 211 0052 9C42     		cmp	r4, r3
 212 0054 F4D8     		bhi	.L9
 213              		.loc 1 190 0
 214 0056 6B68     		ldr	r3, [r5, #4]
 215 0058 7360     		str	r3, [r6, #4]
 216              		.loc 1 189 0
 217 005a 3560     		str	r5, [r6]
 218              		.loc 1 191 0
 219 005c 1E60     		str	r6, [r3]
 220              		.loc 1 192 0
 221 005e 6E60     		str	r6, [r5, #4]
 222              		.loc 1 193 0
 223 0060 B460     		str	r4, [r6, #8]
 224              		.loc 1 196 0
 225 0062 A968     		ldr	r1, [r5, #8]
 226              		.loc 1 200 0
 227 0064 4FF0FF33 		mov	r3, #-1
 228              		.loc 1 196 0
ARM GAS  /tmp/cciMLgRf.s 			page 5


 229 0068 091B     		subs	r1, r1, r4
 230 006a A960     		str	r1, [r5, #8]
 231              		.loc 1 200 0
 232 006c 7B62     		str	r3, [r7, #36]
 233 006e F8BD     		pop	{r3, r4, r5, r6, r7, pc}
 234              	.LVL16:
 235              	.L11:
 236              		.align	2
 237              	.L10:
 238 0070 000C0040 		.word	1073744896
 239 0074 00000000 		.word	ch
 240              		.cfi_endproc
 241              	.LFE291:
 242              		.size	chVTDoSetI, .-chVTDoSetI
 243              		.section	.text.chVTDoResetI,"ax",%progbits
 244              		.align	1
 245              		.global	chVTDoResetI
 246              		.syntax unified
 247              		.thumb
 248              		.thumb_func
 249              		.fpu fpv4-sp-d16
 250              		.type	chVTDoResetI, %function
 251              	chVTDoResetI:
 252              	.LFB292:
 253              		.loc 1 211 0
 254              		.cfi_startproc
 255              		@ args = 0, pretend = 0, frame = 0
 256              		@ frame_needed = 0, uses_anonymous_args = 0
 257              		@ link register save eliminated.
 258              	.LVL17:
 259 0000 10B4     		push	{r4}
 260              		.cfi_def_cfa_offset 4
 261              		.cfi_offset 4, -4
 262              		.loc 1 235 0
 263 0002 1A4C     		ldr	r4, .L19
 264 0004 2346     		mov	r3, r4
 265 0006 53F81C1F 		ldr	r1, [r3, #28]!
 266 000a 8142     		cmp	r1, r0
 267 000c 10D0     		beq	.L13
 268              		.loc 1 237 0
 269 000e 4168     		ldr	r1, [r0, #4]
 270 0010 0268     		ldr	r2, [r0]
 271 0012 0A60     		str	r2, [r1]
 272              		.loc 1 238 0
 273 0014 0268     		ldr	r2, [r0]
 274 0016 5160     		str	r1, [r2, #4]
 275              		.loc 1 242 0
 276 0018 9A42     		cmp	r2, r3
 277              		.loc 1 239 0
 278 001a 4FF00001 		mov	r1, #0
 279 001e C160     		str	r1, [r0, #12]
 280              		.loc 1 242 0
 281 0020 03D0     		beq	.L12
 282              		.loc 1 243 0
 283 0022 9368     		ldr	r3, [r2, #8]
 284 0024 8168     		ldr	r1, [r0, #8]
 285 0026 0B44     		add	r3, r3, r1
ARM GAS  /tmp/cciMLgRf.s 			page 6


 286 0028 9360     		str	r3, [r2, #8]
 287              	.LVL18:
 288              	.L12:
 289              		.loc 1 297 0
 290 002a 5DF8044B 		ldr	r4, [sp], #4
 291              		.cfi_remember_state
 292              		.cfi_restore 4
 293              		.cfi_def_cfa_offset 0
 294 002e 7047     		bx	lr
 295              	.LVL19:
 296              	.L13:
 297              		.cfi_restore_state
 298              		.loc 1 249 0
 299 0030 0A68     		ldr	r2, [r1]
 300 0032 E261     		str	r2, [r4, #28]
 301              		.loc 1 251 0
 302 0034 0020     		movs	r0, #0
 303              	.LVL20:
 304              		.loc 1 254 0
 305 0036 9A42     		cmp	r2, r3
 306              		.loc 1 250 0
 307 0038 5360     		str	r3, [r2, #4]
 308              		.loc 1 251 0
 309 003a C860     		str	r0, [r1, #12]
 310              		.loc 1 254 0
 311 003c 03D1     		bne	.L16
 312              		.loc 1 297 0
 313 003e 5DF8044B 		ldr	r4, [sp], #4
 314              		.cfi_remember_state
 315              		.cfi_restore 4
 316              		.cfi_def_cfa_offset 0
 317              	.LBB62:
 318              	.LBB63:
 319              		.loc 3 83 0
 320 0042 FFF7FEBF 		b	stStopAlarm
 321              	.LVL21:
 322              	.L16:
 323              		.cfi_restore_state
 324              	.LBE63:
 325              	.LBE62:
 326              		.loc 1 261 0
 327 0046 9368     		ldr	r3, [r2, #8]
 328 0048 8868     		ldr	r0, [r1, #8]
 329 004a 0344     		add	r3, r3, r0
 330 004c 9360     		str	r3, [r2, #8]
 331              	.LBB64:
 332              	.LBB65:
 333              	.LBB66:
 334              	.LBB67:
 335              		.loc 2 168 0
 336 004e 084A     		ldr	r2, .L19+4
 337              	.LBE67:
 338              	.LBE66:
 339              	.LBE65:
 340              	.LBE64:
 341              		.loc 1 270 0
 342 0050 A06A     		ldr	r0, [r4, #40]
ARM GAS  /tmp/cciMLgRf.s 			page 7


 343              	.LBB71:
 344              	.LBB70:
 345              	.LBB69:
 346              	.LBB68:
 347              		.loc 2 168 0
 348 0052 526A     		ldr	r2, [r2, #36]
 349              	.LVL22:
 350              	.LBE68:
 351              	.LBE69:
 352              	.LBE70:
 353              	.LBE71:
 354              	.LBB72:
 355              	.LBB73:
 356              		.loc 4 514 0
 357 0054 121A     		subs	r2, r2, r0
 358              	.LVL23:
 359              	.LBE73:
 360              	.LBE72:
 361              		.loc 1 274 0
 362 0056 9342     		cmp	r3, r2
 363 0058 E7D9     		bls	.L12
 364              	.LVL24:
 365              		.loc 1 279 0
 366 005a 991A     		subs	r1, r3, r2
 367              	.LVL25:
 368              		.loc 1 283 0
 369 005c 0129     		cmp	r1, #1
 370              		.loc 1 284 0
 371 005e 98BF     		it	ls
 372 0060 931C     		addls	r3, r2, #2
 373              	.LVL26:
 374              	.LBB74:
 375              	.LBB75:
 376              		.loc 3 95 0
 377 0062 1844     		add	r0, r0, r3
 378              	.LBE75:
 379              	.LBE74:
 380              		.loc 1 297 0
 381 0064 5DF8044B 		ldr	r4, [sp], #4
 382              		.cfi_restore 4
 383              		.cfi_def_cfa_offset 0
 384              	.LBB77:
 385              	.LBB76:
 386              		.loc 3 95 0
 387 0068 FFF7FEBF 		b	stSetAlarm
 388              	.LVL27:
 389              	.L20:
 390              		.align	2
 391              	.L19:
 392 006c 00000000 		.word	ch
 393 0070 000C0040 		.word	1073744896
 394              	.LBE76:
 395              	.LBE77:
 396              		.cfi_endproc
 397              	.LFE292:
 398              		.size	chVTDoResetI, .-chVTDoResetI
 399              		.text
ARM GAS  /tmp/cciMLgRf.s 			page 8


 400              	.Letext0:
 401              		.file 5 "/opt/gcc-arm-none-eabi-6-2017-q2-update/lib/gcc/arm-none-eabi/6.3.1/include/stddef.h"
 402              		.file 6 "/opt/gcc-arm-none-eabi-6-2017-q2-update/arm-none-eabi/include/machine/_default_types.h"
 403              		.file 7 "/opt/gcc-arm-none-eabi-6-2017-q2-update/arm-none-eabi/include/sys/_stdint.h"
 404              		.file 8 "../../modules/ChibiOS/os/common/ports/ARMCMx/compilers/GCC/chtypes.h"
 405              		.file 9 "../../modules/ChibiOS/os/rt/include/chsystypes.h"
 406              		.file 10 "../../modules/ChibiOS/os/rt/include/chschd.h"
 407              		.file 11 "../../modules/ChibiOS/os/common/ext/ARM/CMSIS/Core/Include/core_cm4.h"
 408              		.file 12 "../../modules/ChibiOS/os/common/ext/ST/STM32F4xx/system_stm32f4xx.h"
 409              		.file 13 "../../modules/ChibiOS/os/common/ports/ARMCMx/chcore.h"
 410              		.file 14 "../../modules/ChibiOS/os/common/ports/ARMCMx/chcore_v7m.h"
 411              		.file 15 "../../modules/ChibiOS/os/hal/ports/STM32/LLD/TIMv1/stm32_tim.h"
 412              		.file 16 "../../modules/ChibiOS/os/rt/include/chtm.h"
 413              		.file 17 "../../modules/ChibiOS/os/rt/include/chsem.h"
 414              		.file 18 "../../modules/ChibiOS/os/rt/include/chmtx.h"
 415              		.file 19 "../../modules/ChibiOS/os/rt/include/chsys.h"
 416              		.file 20 "../../modules/ChibiOS/os/rt/include/chregistry.h"
 417              		.file 21 "../../modules/ChibiOS/os/oslib/include/chmemcore.h"
 418              		.file 22 "../../modules/ChibiOS/os/oslib/include/chmempools.h"
 419              		.file 23 "../../modules/ChibiOS/os/oslib/include/chfactory.h"
 420              		.file 24 "../../modules/ChibiOS/os/rt/include/chvt.h"
 421              		.file 25 "../../modules/ChibiOS/os/hal/include/hal_st.h"
 422              		.section	.debug_info,"",%progbits
 423              	.Ldebug_info0:
 424 0000 D80E0000 		.4byte	0xed8
 425 0004 0400     		.2byte	0x4
 426 0006 00000000 		.4byte	.Ldebug_abbrev0
 427 000a 04       		.byte	0x4
 428 000b 01       		.uleb128 0x1
 429 000c 34010000 		.4byte	.LASF176
 430 0010 0C       		.byte	0xc
 431 0011 F8040000 		.4byte	.LASF177
 432 0015 69080000 		.4byte	.LASF178
 433 0019 90000000 		.4byte	.Ldebug_ranges0+0x90
 434 001d 00000000 		.4byte	0
 435 0021 00000000 		.4byte	.Ldebug_line0
 436 0025 02       		.uleb128 0x2
 437 0026 04       		.byte	0x4
 438 0027 05       		.byte	0x5
 439 0028 696E7400 		.ascii	"int\000"
 440 002c 03       		.uleb128 0x3
 441 002d 12000000 		.4byte	.LASF4
 442 0031 05       		.byte	0x5
 443 0032 D8       		.byte	0xd8
 444 0033 37000000 		.4byte	0x37
 445 0037 04       		.uleb128 0x4
 446 0038 04       		.byte	0x4
 447 0039 07       		.byte	0x7
 448 003a 80020000 		.4byte	.LASF0
 449 003e 04       		.uleb128 0x4
 450 003f 08       		.byte	0x8
 451 0040 05       		.byte	0x5
 452 0041 FE020000 		.4byte	.LASF1
 453 0045 04       		.uleb128 0x4
 454 0046 08       		.byte	0x8
 455 0047 04       		.byte	0x4
 456 0048 AA040000 		.4byte	.LASF2
ARM GAS  /tmp/cciMLgRf.s 			page 9


 457 004c 04       		.uleb128 0x4
 458 004d 01       		.byte	0x1
 459 004e 06       		.byte	0x6
 460 004f 28010000 		.4byte	.LASF3
 461 0053 03       		.uleb128 0x3
 462 0054 40000000 		.4byte	.LASF5
 463 0058 06       		.byte	0x6
 464 0059 2B       		.byte	0x2b
 465 005a 5E000000 		.4byte	0x5e
 466 005e 04       		.uleb128 0x4
 467 005f 01       		.byte	0x1
 468 0060 08       		.byte	0x8
 469 0061 B1050000 		.4byte	.LASF6
 470 0065 04       		.uleb128 0x4
 471 0066 02       		.byte	0x2
 472 0067 05       		.byte	0x5
 473 0068 D8050000 		.4byte	.LASF7
 474 006c 03       		.uleb128 0x3
 475 006d C0060000 		.4byte	.LASF8
 476 0071 06       		.byte	0x6
 477 0072 39       		.byte	0x39
 478 0073 77000000 		.4byte	0x77
 479 0077 04       		.uleb128 0x4
 480 0078 02       		.byte	0x2
 481 0079 07       		.byte	0x7
 482 007a 3B070000 		.4byte	.LASF9
 483 007e 03       		.uleb128 0x3
 484 007f 47040000 		.4byte	.LASF10
 485 0083 06       		.byte	0x6
 486 0084 4D       		.byte	0x4d
 487 0085 89000000 		.4byte	0x89
 488 0089 04       		.uleb128 0x4
 489 008a 04       		.byte	0x4
 490 008b 05       		.byte	0x5
 491 008c 66020000 		.4byte	.LASF11
 492 0090 03       		.uleb128 0x3
 493 0091 BE020000 		.4byte	.LASF12
 494 0095 06       		.byte	0x6
 495 0096 4F       		.byte	0x4f
 496 0097 9B000000 		.4byte	0x9b
 497 009b 04       		.uleb128 0x4
 498 009c 04       		.byte	0x4
 499 009d 07       		.byte	0x7
 500 009e 96060000 		.4byte	.LASF13
 501 00a2 03       		.uleb128 0x3
 502 00a3 45050000 		.4byte	.LASF14
 503 00a7 06       		.byte	0x6
 504 00a8 69       		.byte	0x69
 505 00a9 AD000000 		.4byte	0xad
 506 00ad 04       		.uleb128 0x4
 507 00ae 08       		.byte	0x8
 508 00af 07       		.byte	0x7
 509 00b0 95000000 		.4byte	.LASF15
 510 00b4 03       		.uleb128 0x3
 511 00b5 FC050000 		.4byte	.LASF16
 512 00b9 07       		.byte	0x7
 513 00ba 18       		.byte	0x18
ARM GAS  /tmp/cciMLgRf.s 			page 10


 514 00bb 53000000 		.4byte	0x53
 515 00bf 05       		.uleb128 0x5
 516 00c0 B4000000 		.4byte	0xb4
 517 00c4 03       		.uleb128 0x3
 518 00c5 51030000 		.4byte	.LASF17
 519 00c9 07       		.byte	0x7
 520 00ca 24       		.byte	0x24
 521 00cb 6C000000 		.4byte	0x6c
 522 00cf 03       		.uleb128 0x3
 523 00d0 A9050000 		.4byte	.LASF18
 524 00d4 07       		.byte	0x7
 525 00d5 2C       		.byte	0x2c
 526 00d6 7E000000 		.4byte	0x7e
 527 00da 06       		.uleb128 0x6
 528 00db CF000000 		.4byte	0xcf
 529 00df 03       		.uleb128 0x3
 530 00e0 70060000 		.4byte	.LASF19
 531 00e4 07       		.byte	0x7
 532 00e5 30       		.byte	0x30
 533 00e6 90000000 		.4byte	0x90
 534 00ea 06       		.uleb128 0x6
 535 00eb DF000000 		.4byte	0xdf
 536 00ef 03       		.uleb128 0x3
 537 00f0 2B000000 		.4byte	.LASF20
 538 00f4 07       		.byte	0x7
 539 00f5 3C       		.byte	0x3c
 540 00f6 A2000000 		.4byte	0xa2
 541 00fa 03       		.uleb128 0x3
 542 00fb 62070000 		.4byte	.LASF21
 543 00ff 08       		.byte	0x8
 544 0100 27       		.byte	0x27
 545 0101 DF000000 		.4byte	0xdf
 546 0105 03       		.uleb128 0x3
 547 0106 6F020000 		.4byte	.LASF22
 548 010a 08       		.byte	0x8
 549 010b 2A       		.byte	0x2a
 550 010c B4000000 		.4byte	0xb4
 551 0110 03       		.uleb128 0x3
 552 0111 77020000 		.4byte	.LASF23
 553 0115 08       		.byte	0x8
 554 0116 2B       		.byte	0x2b
 555 0117 B4000000 		.4byte	0xb4
 556 011b 03       		.uleb128 0x3
 557 011c 5A050000 		.4byte	.LASF24
 558 0120 08       		.byte	0x8
 559 0121 2C       		.byte	0x2c
 560 0122 B4000000 		.4byte	0xb4
 561 0126 03       		.uleb128 0x3
 562 0127 90050000 		.4byte	.LASF25
 563 012b 08       		.byte	0x8
 564 012c 2E       		.byte	0x2e
 565 012d DF000000 		.4byte	0xdf
 566 0131 03       		.uleb128 0x3
 567 0132 4A000000 		.4byte	.LASF26
 568 0136 08       		.byte	0x8
 569 0137 2F       		.byte	0x2f
 570 0138 CF000000 		.4byte	0xcf
ARM GAS  /tmp/cciMLgRf.s 			page 11


 571 013c 03       		.uleb128 0x3
 572 013d 34000000 		.4byte	.LASF27
 573 0141 08       		.byte	0x8
 574 0142 31       		.byte	0x31
 575 0143 DF000000 		.4byte	0xdf
 576 0147 03       		.uleb128 0x3
 577 0148 20030000 		.4byte	.LASF28
 578 014c 08       		.byte	0x8
 579 014d 33       		.byte	0x33
 580 014e CF000000 		.4byte	0xcf
 581 0152 03       		.uleb128 0x3
 582 0153 D9030000 		.4byte	.LASF29
 583 0157 08       		.byte	0x8
 584 0158 34       		.byte	0x34
 585 0159 DF000000 		.4byte	0xdf
 586 015d 03       		.uleb128 0x3
 587 015e D9060000 		.4byte	.LASF30
 588 0162 09       		.byte	0x9
 589 0163 34       		.byte	0x34
 590 0164 68010000 		.4byte	0x168
 591 0168 07       		.uleb128 0x7
 592 0169 B8030000 		.4byte	.LASF48
 593 016d 44       		.byte	0x44
 594 016e 0A       		.byte	0xa
 595 016f 8E       		.byte	0x8e
 596 0170 46020000 		.4byte	0x246
 597 0174 08       		.uleb128 0x8
 598 0175 9E030000 		.4byte	.LASF31
 599 0179 0A       		.byte	0xa
 600 017a 8F       		.byte	0x8f
 601 017b 7B020000 		.4byte	0x27b
 602 017f 00       		.byte	0
 603 0180 08       		.uleb128 0x8
 604 0181 24050000 		.4byte	.LASF32
 605 0185 0A       		.byte	0xa
 606 0186 90       		.byte	0x90
 607 0187 26010000 		.4byte	0x126
 608 018b 08       		.byte	0x8
 609 018c 09       		.uleb128 0x9
 610 018d 63747800 		.ascii	"ctx\000"
 611 0191 0A       		.byte	0xa
 612 0192 91       		.byte	0x91
 613 0193 0A050000 		.4byte	0x50a
 614 0197 0C       		.byte	0xc
 615 0198 08       		.uleb128 0x8
 616 0199 5C040000 		.4byte	.LASF33
 617 019d 0A       		.byte	0xa
 618 019e 93       		.byte	0x93
 619 019f 51020000 		.4byte	0x251
 620 01a3 10       		.byte	0x10
 621 01a4 08       		.uleb128 0x8
 622 01a5 99020000 		.4byte	.LASF34
 623 01a9 0A       		.byte	0xa
 624 01aa 94       		.byte	0x94
 625 01ab 51020000 		.4byte	0x251
 626 01af 14       		.byte	0x14
 627 01b0 08       		.uleb128 0x8
ARM GAS  /tmp/cciMLgRf.s 			page 12


 628 01b1 99030000 		.4byte	.LASF35
 629 01b5 0A       		.byte	0xa
 630 01b6 9B       		.byte	0x9b
 631 01b7 82080000 		.4byte	0x882
 632 01bb 18       		.byte	0x18
 633 01bc 08       		.uleb128 0x8
 634 01bd A8060000 		.4byte	.LASF36
 635 01c1 0A       		.byte	0xa
 636 01c2 A4       		.byte	0xa4
 637 01c3 99080000 		.4byte	0x899
 638 01c7 1C       		.byte	0x1c
 639 01c8 08       		.uleb128 0x8
 640 01c9 60020000 		.4byte	.LASF37
 641 01cd 0A       		.byte	0xa
 642 01ce A9       		.byte	0xa9
 643 01cf 10010000 		.4byte	0x110
 644 01d3 20       		.byte	0x20
 645 01d4 08       		.uleb128 0x8
 646 01d5 D4070000 		.4byte	.LASF38
 647 01d9 0A       		.byte	0xa
 648 01da AD       		.byte	0xad
 649 01db 05010000 		.4byte	0x105
 650 01df 21       		.byte	0x21
 651 01e0 08       		.uleb128 0x8
 652 01e1 6C050000 		.4byte	.LASF39
 653 01e5 0A       		.byte	0xa
 654 01e6 B2       		.byte	0xb2
 655 01e7 1B010000 		.4byte	0x11b
 656 01eb 22       		.byte	0x22
 657 01ec 0A       		.uleb128 0xa
 658 01ed 7500     		.ascii	"u\000"
 659 01ef 0A       		.byte	0xa
 660 01f0 0301     		.2byte	0x103
 661 01f2 AC070000 		.4byte	0x7ac
 662 01f6 24       		.byte	0x24
 663 01f7 0B       		.uleb128 0xb
 664 01f8 EB020000 		.4byte	.LASF40
 665 01fc 0A       		.byte	0xa
 666 01fd 0801     		.2byte	0x108
 667 01ff 57020000 		.4byte	0x257
 668 0203 28       		.byte	0x28
 669 0204 0B       		.uleb128 0xb
 670 0205 57020000 		.4byte	.LASF41
 671 0209 0A       		.byte	0xa
 672 020a 0E01     		.2byte	0x10e
 673 020c 7B020000 		.4byte	0x27b
 674 0210 2C       		.byte	0x2c
 675 0211 0B       		.uleb128 0xb
 676 0212 E0030000 		.4byte	.LASF42
 677 0216 0A       		.byte	0xa
 678 0217 1401     		.2byte	0x114
 679 0219 3C010000 		.4byte	0x13c
 680 021d 34       		.byte	0x34
 681 021e 0B       		.uleb128 0xb
 682 021f 59080000 		.4byte	.LASF43
 683 0223 0A       		.byte	0xa
 684 0224 1B01     		.2byte	0x11b
ARM GAS  /tmp/cciMLgRf.s 			page 13


 685 0226 7C080000 		.4byte	0x87c
 686 022a 38       		.byte	0x38
 687 022b 0B       		.uleb128 0xb
 688 022c 6B040000 		.4byte	.LASF44
 689 0230 0A       		.byte	0xa
 690 0231 1F01     		.2byte	0x11f
 691 0233 26010000 		.4byte	0x126
 692 0237 3C       		.byte	0x3c
 693 0238 0B       		.uleb128 0xb
 694 0239 A4030000 		.4byte	.LASF45
 695 023d 0A       		.byte	0xa
 696 023e 2601     		.2byte	0x126
 697 0240 2E030000 		.4byte	0x32e
 698 0244 40       		.byte	0x40
 699 0245 00       		.byte	0
 700 0246 03       		.uleb128 0x3
 701 0247 F0070000 		.4byte	.LASF46
 702 024b 09       		.byte	0x9
 703 024c 39       		.byte	0x39
 704 024d 51020000 		.4byte	0x251
 705 0251 0C       		.uleb128 0xc
 706 0252 04       		.byte	0x4
 707 0253 5D010000 		.4byte	0x15d
 708 0257 03       		.uleb128 0x3
 709 0258 24080000 		.4byte	.LASF47
 710 025c 09       		.byte	0x9
 711 025d 3E       		.byte	0x3e
 712 025e 62020000 		.4byte	0x262
 713 0262 07       		.uleb128 0x7
 714 0263 80060000 		.4byte	.LASF49
 715 0267 04       		.byte	0x4
 716 0268 0A       		.byte	0xa
 717 0269 7C       		.byte	0x7c
 718 026a 7B020000 		.4byte	0x27b
 719 026e 08       		.uleb128 0x8
 720 026f 19000000 		.4byte	.LASF50
 721 0273 0A       		.byte	0xa
 722 0274 7D       		.byte	0x7d
 723 0275 51020000 		.4byte	0x251
 724 0279 00       		.byte	0
 725 027a 00       		.byte	0
 726 027b 03       		.uleb128 0x3
 727 027c 98070000 		.4byte	.LASF51
 728 0280 09       		.byte	0x9
 729 0281 45       		.byte	0x45
 730 0282 86020000 		.4byte	0x286
 731 0286 07       		.uleb128 0x7
 732 0287 02010000 		.4byte	.LASF52
 733 028b 08       		.byte	0x8
 734 028c 0A       		.byte	0xa
 735 028d 83       		.byte	0x83
 736 028e AB020000 		.4byte	0x2ab
 737 0292 08       		.uleb128 0x8
 738 0293 19000000 		.4byte	.LASF50
 739 0297 0A       		.byte	0xa
 740 0298 84       		.byte	0x84
 741 0299 51020000 		.4byte	0x251
ARM GAS  /tmp/cciMLgRf.s 			page 14


 742 029d 00       		.byte	0
 743 029e 08       		.uleb128 0x8
 744 029f 50000000 		.4byte	.LASF53
 745 02a3 0A       		.byte	0xa
 746 02a4 85       		.byte	0x85
 747 02a5 51020000 		.4byte	0x251
 748 02a9 04       		.byte	0x4
 749 02aa 00       		.byte	0
 750 02ab 03       		.uleb128 0x3
 751 02ac 00000000 		.4byte	.LASF54
 752 02b0 09       		.byte	0x9
 753 02b1 4C       		.byte	0x4c
 754 02b2 B6020000 		.4byte	0x2b6
 755 02b6 0D       		.uleb128 0xd
 756 02b7 27040000 		.4byte	.LASF55
 757 02bb 1C       		.byte	0x1c
 758 02bc 0A       		.byte	0xa
 759 02bd 5E01     		.2byte	0x15e
 760 02bf 12030000 		.4byte	0x312
 761 02c3 0B       		.uleb128 0xb
 762 02c4 9E030000 		.4byte	.LASF31
 763 02c8 0A       		.byte	0xa
 764 02c9 5F01     		.2byte	0x15f
 765 02cb 7B020000 		.4byte	0x27b
 766 02cf 00       		.byte	0
 767 02d0 0B       		.uleb128 0xb
 768 02d1 24050000 		.4byte	.LASF32
 769 02d5 0A       		.byte	0xa
 770 02d6 6001     		.2byte	0x160
 771 02d8 26010000 		.4byte	0x126
 772 02dc 08       		.byte	0x8
 773 02dd 0A       		.uleb128 0xa
 774 02de 63747800 		.ascii	"ctx\000"
 775 02e2 0A       		.byte	0xa
 776 02e3 6201     		.2byte	0x162
 777 02e5 0A050000 		.4byte	0x50a
 778 02e9 0C       		.byte	0xc
 779 02ea 0B       		.uleb128 0xb
 780 02eb 5C040000 		.4byte	.LASF33
 781 02ef 0A       		.byte	0xa
 782 02f0 6501     		.2byte	0x165
 783 02f2 51020000 		.4byte	0x251
 784 02f6 10       		.byte	0x10
 785 02f7 0B       		.uleb128 0xb
 786 02f8 99020000 		.4byte	.LASF34
 787 02fc 0A       		.byte	0xa
 788 02fd 6601     		.2byte	0x166
 789 02ff 51020000 		.4byte	0x251
 790 0303 14       		.byte	0x14
 791 0304 0B       		.uleb128 0xb
 792 0305 32050000 		.4byte	.LASF56
 793 0309 0A       		.byte	0xa
 794 030a 6901     		.2byte	0x169
 795 030c 51020000 		.4byte	0x251
 796 0310 18       		.byte	0x18
 797 0311 00       		.byte	0
 798 0312 03       		.uleb128 0x3
ARM GAS  /tmp/cciMLgRf.s 			page 15


 799 0313 FC060000 		.4byte	.LASF57
 800 0317 09       		.byte	0x9
 801 0318 51       		.byte	0x51
 802 0319 1D030000 		.4byte	0x31d
 803 031d 0C       		.uleb128 0xc
 804 031e 04       		.byte	0x4
 805 031f 23030000 		.4byte	0x323
 806 0323 0E       		.uleb128 0xe
 807 0324 2E030000 		.4byte	0x32e
 808 0328 0F       		.uleb128 0xf
 809 0329 2E030000 		.4byte	0x32e
 810 032d 00       		.byte	0
 811 032e 10       		.uleb128 0x10
 812 032f 04       		.byte	0x4
 813 0330 03       		.uleb128 0x3
 814 0331 71050000 		.4byte	.LASF58
 815 0335 09       		.byte	0x9
 816 0336 56       		.byte	0x56
 817 0337 3B030000 		.4byte	0x33b
 818 033b 0D       		.uleb128 0xd
 819 033c 1F060000 		.4byte	.LASF59
 820 0340 14       		.byte	0x14
 821 0341 0A       		.byte	0xa
 822 0342 3901     		.2byte	0x139
 823 0344 8A030000 		.4byte	0x38a
 824 0348 0B       		.uleb128 0xb
 825 0349 19000000 		.4byte	.LASF50
 826 034d 0A       		.byte	0xa
 827 034e 3A01     		.2byte	0x13a
 828 0350 9F080000 		.4byte	0x89f
 829 0354 00       		.byte	0
 830 0355 0B       		.uleb128 0xb
 831 0356 50000000 		.4byte	.LASF53
 832 035a 0A       		.byte	0xa
 833 035b 3B01     		.2byte	0x13b
 834 035d 9F080000 		.4byte	0x89f
 835 0361 04       		.byte	0x4
 836 0362 0B       		.uleb128 0xb
 837 0363 1E000000 		.4byte	.LASF60
 838 0367 0A       		.byte	0xa
 839 0368 3C01     		.2byte	0x13c
 840 036a 61040000 		.4byte	0x461
 841 036e 08       		.byte	0x8
 842 036f 0B       		.uleb128 0xb
 843 0370 F8000000 		.4byte	.LASF61
 844 0374 0A       		.byte	0xa
 845 0375 3D01     		.2byte	0x13d
 846 0377 12030000 		.4byte	0x312
 847 037b 0C       		.byte	0xc
 848 037c 0A       		.uleb128 0xa
 849 037d 70617200 		.ascii	"par\000"
 850 0381 0A       		.byte	0xa
 851 0382 3F01     		.2byte	0x13f
 852 0384 2E030000 		.4byte	0x32e
 853 0388 10       		.byte	0x10
 854 0389 00       		.byte	0
 855 038a 03       		.uleb128 0x3
ARM GAS  /tmp/cciMLgRf.s 			page 16


 856 038b D5000000 		.4byte	.LASF62
 857 038f 09       		.byte	0x9
 858 0390 5B       		.byte	0x5b
 859 0391 95030000 		.4byte	0x395
 860 0395 0D       		.uleb128 0xd
 861 0396 93040000 		.4byte	.LASF63
 862 039a 10       		.byte	0x10
 863 039b 0A       		.byte	0xa
 864 039c 4901     		.2byte	0x149
 865 039e D7030000 		.4byte	0x3d7
 866 03a2 0B       		.uleb128 0xb
 867 03a3 19000000 		.4byte	.LASF50
 868 03a7 0A       		.byte	0xa
 869 03a8 4A01     		.2byte	0x14a
 870 03aa 9F080000 		.4byte	0x89f
 871 03ae 00       		.byte	0
 872 03af 0B       		.uleb128 0xb
 873 03b0 50000000 		.4byte	.LASF53
 874 03b4 0A       		.byte	0xa
 875 03b5 4C01     		.2byte	0x14c
 876 03b7 9F080000 		.4byte	0x89f
 877 03bb 04       		.byte	0x4
 878 03bc 0B       		.uleb128 0xb
 879 03bd 1E000000 		.4byte	.LASF60
 880 03c1 0A       		.byte	0xa
 881 03c2 4E01     		.2byte	0x14e
 882 03c4 61040000 		.4byte	0x461
 883 03c8 08       		.byte	0x8
 884 03c9 0B       		.uleb128 0xb
 885 03ca E2050000 		.4byte	.LASF64
 886 03ce 0A       		.byte	0xa
 887 03cf 5601     		.2byte	0x156
 888 03d1 56040000 		.4byte	0x456
 889 03d5 0C       		.byte	0xc
 890 03d6 00       		.byte	0
 891 03d7 03       		.uleb128 0x3
 892 03d8 61000000 		.4byte	.LASF65
 893 03dc 09       		.byte	0x9
 894 03dd 60       		.byte	0x60
 895 03de E2030000 		.4byte	0x3e2
 896 03e2 0D       		.uleb128 0xd
 897 03e3 DB020000 		.4byte	.LASF66
 898 03e7 04       		.byte	0x4
 899 03e8 0A       		.byte	0xa
 900 03e9 7001     		.2byte	0x170
 901 03eb FD030000 		.4byte	0x3fd
 902 03ef 0B       		.uleb128 0xb
 903 03f0 13070000 		.4byte	.LASF67
 904 03f4 0A       		.byte	0xa
 905 03f5 7801     		.2byte	0x178
 906 03f7 88080000 		.4byte	0x888
 907 03fb 00       		.byte	0
 908 03fc 00       		.byte	0
 909 03fd 03       		.uleb128 0x3
 910 03fe F4030000 		.4byte	.LASF68
 911 0402 09       		.byte	0x9
 912 0403 65       		.byte	0x65
ARM GAS  /tmp/cciMLgRf.s 			page 17


 913 0404 08040000 		.4byte	0x408
 914 0408 0D       		.uleb128 0xd
 915 0409 F2050000 		.4byte	.LASF69
 916 040d 78       		.byte	0x78
 917 040e 0A       		.byte	0xa
 918 040f 9001     		.2byte	0x190
 919 0411 56040000 		.4byte	0x456
 920 0415 0B       		.uleb128 0xb
 921 0416 F3020000 		.4byte	.LASF70
 922 041a 0A       		.byte	0xa
 923 041b 9401     		.2byte	0x194
 924 041d AB020000 		.4byte	0x2ab
 925 0421 00       		.byte	0
 926 0422 0B       		.uleb128 0xb
 927 0423 50020000 		.4byte	.LASF71
 928 0427 0A       		.byte	0xa
 929 0428 9801     		.2byte	0x198
 930 042a 8A030000 		.4byte	0x38a
 931 042e 1C       		.byte	0x1c
 932 042f 0A       		.uleb128 0xa
 933 0430 64626700 		.ascii	"dbg\000"
 934 0434 0A       		.byte	0xa
 935 0435 9C01     		.2byte	0x19c
 936 0437 D7030000 		.4byte	0x3d7
 937 043b 2C       		.byte	0x2c
 938 043c 0B       		.uleb128 0xb
 939 043d C2000000 		.4byte	.LASF72
 940 0441 0A       		.byte	0xa
 941 0442 A001     		.2byte	0x1a0
 942 0444 5D010000 		.4byte	0x15d
 943 0448 30       		.byte	0x30
 944 0449 0A       		.uleb128 0xa
 945 044a 746D00   		.ascii	"tm\000"
 946 044d 0A       		.byte	0xa
 947 044e A501     		.2byte	0x1a5
 948 0450 A1070000 		.4byte	0x7a1
 949 0454 74       		.byte	0x74
 950 0455 00       		.byte	0
 951 0456 03       		.uleb128 0x3
 952 0457 F2060000 		.4byte	.LASF73
 953 045b 04       		.byte	0x4
 954 045c 6D       		.byte	0x6d
 955 045d DF000000 		.4byte	0xdf
 956 0461 03       		.uleb128 0x3
 957 0462 12030000 		.4byte	.LASF74
 958 0466 04       		.byte	0x4
 959 0467 79       		.byte	0x79
 960 0468 DF000000 		.4byte	0xdf
 961 046c 04       		.uleb128 0x4
 962 046d 04       		.byte	0x4
 963 046e 07       		.byte	0x7
 964 046f 7C040000 		.4byte	.LASF75
 965 0473 11       		.uleb128 0x11
 966 0474 EB000000 		.4byte	.LASF76
 967 0478 0B       		.byte	0xb
 968 0479 0408     		.2byte	0x804
 969 047b DA000000 		.4byte	0xda
ARM GAS  /tmp/cciMLgRf.s 			page 18


 970 047f 12       		.uleb128 0x12
 971 0480 5A030000 		.4byte	.LASF77
 972 0484 0C       		.byte	0xc
 973 0485 4C       		.byte	0x4c
 974 0486 DF000000 		.4byte	0xdf
 975 048a 13       		.uleb128 0x13
 976 048b BF000000 		.4byte	0xbf
 977 048f 9A040000 		.4byte	0x49a
 978 0493 14       		.uleb128 0x14
 979 0494 6C040000 		.4byte	0x46c
 980 0498 0F       		.byte	0xf
 981 0499 00       		.byte	0
 982 049a 05       		.uleb128 0x5
 983 049b 8A040000 		.4byte	0x48a
 984 049f 12       		.uleb128 0x12
 985 04a0 05070000 		.4byte	.LASF78
 986 04a4 0C       		.byte	0xc
 987 04a5 4E       		.byte	0x4e
 988 04a6 9A040000 		.4byte	0x49a
 989 04aa 13       		.uleb128 0x13
 990 04ab BF000000 		.4byte	0xbf
 991 04af BA040000 		.4byte	0x4ba
 992 04b3 14       		.uleb128 0x14
 993 04b4 6C040000 		.4byte	0x46c
 994 04b8 07       		.byte	0x7
 995 04b9 00       		.byte	0
 996 04ba 05       		.uleb128 0x5
 997 04bb AA040000 		.4byte	0x4aa
 998 04bf 12       		.uleb128 0x12
 999 04c0 CC040000 		.4byte	.LASF79
 1000 04c4 0C       		.byte	0xc
 1001 04c5 4F       		.byte	0x4f
 1002 04c6 BA040000 		.4byte	0x4ba
 1003 04ca 13       		.uleb128 0x13
 1004 04cb EA000000 		.4byte	0xea
 1005 04cf DA040000 		.4byte	0x4da
 1006 04d3 14       		.uleb128 0x14
 1007 04d4 6C040000 		.4byte	0x46c
 1008 04d8 01       		.byte	0x1
 1009 04d9 00       		.byte	0
 1010 04da 06       		.uleb128 0x6
 1011 04db CA040000 		.4byte	0x4ca
 1012 04df 13       		.uleb128 0x13
 1013 04e0 EA000000 		.4byte	0xea
 1014 04e4 EF040000 		.4byte	0x4ef
 1015 04e8 14       		.uleb128 0x14
 1016 04e9 6C040000 		.4byte	0x46c
 1017 04ed 03       		.byte	0x3
 1018 04ee 00       		.byte	0
 1019 04ef 06       		.uleb128 0x6
 1020 04f0 DF040000 		.4byte	0x4df
 1021 04f4 03       		.uleb128 0x3
 1022 04f5 C9020000 		.4byte	.LASF80
 1023 04f9 0D       		.byte	0xd
 1024 04fa 65       		.byte	0x65
 1025 04fb 2E030000 		.4byte	0x32e
 1026 04ff 03       		.uleb128 0x3
ARM GAS  /tmp/cciMLgRf.s 			page 19


 1027 0500 51040000 		.4byte	.LASF81
 1028 0504 0D       		.byte	0xd
 1029 0505 6D       		.byte	0x6d
 1030 0506 EF000000 		.4byte	0xef
 1031 050a 07       		.uleb128 0x7
 1032 050b DA040000 		.4byte	.LASF82
 1033 050f 04       		.byte	0x4
 1034 0510 0D       		.byte	0xd
 1035 0511 89       		.byte	0x89
 1036 0512 22050000 		.4byte	0x522
 1037 0516 09       		.uleb128 0x9
 1038 0517 737000   		.ascii	"sp\000"
 1039 051a 0D       		.byte	0xd
 1040 051b 8A       		.byte	0x8a
 1041 051c 6E060000 		.4byte	0x66e
 1042 0520 00       		.byte	0
 1043 0521 00       		.byte	0
 1044 0522 0D       		.uleb128 0xd
 1045 0523 55000000 		.4byte	.LASF83
 1046 0527 64       		.byte	0x64
 1047 0528 0E       		.byte	0xe
 1048 0529 5901     		.2byte	0x159
 1049 052b 6E060000 		.4byte	0x66e
 1050 052f 0A       		.uleb128 0xa
 1051 0530 73313600 		.ascii	"s16\000"
 1052 0534 0E       		.byte	0xe
 1053 0535 5B01     		.2byte	0x15b
 1054 0537 F4040000 		.4byte	0x4f4
 1055 053b 00       		.byte	0
 1056 053c 0A       		.uleb128 0xa
 1057 053d 73313700 		.ascii	"s17\000"
 1058 0541 0E       		.byte	0xe
 1059 0542 5C01     		.2byte	0x15c
 1060 0544 F4040000 		.4byte	0x4f4
 1061 0548 04       		.byte	0x4
 1062 0549 0A       		.uleb128 0xa
 1063 054a 73313800 		.ascii	"s18\000"
 1064 054e 0E       		.byte	0xe
 1065 054f 5D01     		.2byte	0x15d
 1066 0551 F4040000 		.4byte	0x4f4
 1067 0555 08       		.byte	0x8
 1068 0556 0A       		.uleb128 0xa
 1069 0557 73313900 		.ascii	"s19\000"
 1070 055b 0E       		.byte	0xe
 1071 055c 5E01     		.2byte	0x15e
 1072 055e F4040000 		.4byte	0x4f4
 1073 0562 0C       		.byte	0xc
 1074 0563 0A       		.uleb128 0xa
 1075 0564 73323000 		.ascii	"s20\000"
 1076 0568 0E       		.byte	0xe
 1077 0569 5F01     		.2byte	0x15f
 1078 056b F4040000 		.4byte	0x4f4
 1079 056f 10       		.byte	0x10
 1080 0570 0A       		.uleb128 0xa
 1081 0571 73323100 		.ascii	"s21\000"
 1082 0575 0E       		.byte	0xe
 1083 0576 6001     		.2byte	0x160
ARM GAS  /tmp/cciMLgRf.s 			page 20


 1084 0578 F4040000 		.4byte	0x4f4
 1085 057c 14       		.byte	0x14
 1086 057d 0A       		.uleb128 0xa
 1087 057e 73323200 		.ascii	"s22\000"
 1088 0582 0E       		.byte	0xe
 1089 0583 6101     		.2byte	0x161
 1090 0585 F4040000 		.4byte	0x4f4
 1091 0589 18       		.byte	0x18
 1092 058a 0A       		.uleb128 0xa
 1093 058b 73323300 		.ascii	"s23\000"
 1094 058f 0E       		.byte	0xe
 1095 0590 6201     		.2byte	0x162
 1096 0592 F4040000 		.4byte	0x4f4
 1097 0596 1C       		.byte	0x1c
 1098 0597 0A       		.uleb128 0xa
 1099 0598 73323400 		.ascii	"s24\000"
 1100 059c 0E       		.byte	0xe
 1101 059d 6301     		.2byte	0x163
 1102 059f F4040000 		.4byte	0x4f4
 1103 05a3 20       		.byte	0x20
 1104 05a4 0A       		.uleb128 0xa
 1105 05a5 73323500 		.ascii	"s25\000"
 1106 05a9 0E       		.byte	0xe
 1107 05aa 6401     		.2byte	0x164
 1108 05ac F4040000 		.4byte	0x4f4
 1109 05b0 24       		.byte	0x24
 1110 05b1 0A       		.uleb128 0xa
 1111 05b2 73323600 		.ascii	"s26\000"
 1112 05b6 0E       		.byte	0xe
 1113 05b7 6501     		.2byte	0x165
 1114 05b9 F4040000 		.4byte	0x4f4
 1115 05bd 28       		.byte	0x28
 1116 05be 0A       		.uleb128 0xa
 1117 05bf 73323700 		.ascii	"s27\000"
 1118 05c3 0E       		.byte	0xe
 1119 05c4 6601     		.2byte	0x166
 1120 05c6 F4040000 		.4byte	0x4f4
 1121 05ca 2C       		.byte	0x2c
 1122 05cb 0A       		.uleb128 0xa
 1123 05cc 73323800 		.ascii	"s28\000"
 1124 05d0 0E       		.byte	0xe
 1125 05d1 6701     		.2byte	0x167
 1126 05d3 F4040000 		.4byte	0x4f4
 1127 05d7 30       		.byte	0x30
 1128 05d8 0A       		.uleb128 0xa
 1129 05d9 73323900 		.ascii	"s29\000"
 1130 05dd 0E       		.byte	0xe
 1131 05de 6801     		.2byte	0x168
 1132 05e0 F4040000 		.4byte	0x4f4
 1133 05e4 34       		.byte	0x34
 1134 05e5 0A       		.uleb128 0xa
 1135 05e6 73333000 		.ascii	"s30\000"
 1136 05ea 0E       		.byte	0xe
 1137 05eb 6901     		.2byte	0x169
 1138 05ed F4040000 		.4byte	0x4f4
 1139 05f1 38       		.byte	0x38
 1140 05f2 0A       		.uleb128 0xa
ARM GAS  /tmp/cciMLgRf.s 			page 21


 1141 05f3 73333100 		.ascii	"s31\000"
 1142 05f7 0E       		.byte	0xe
 1143 05f8 6A01     		.2byte	0x16a
 1144 05fa F4040000 		.4byte	0x4f4
 1145 05fe 3C       		.byte	0x3c
 1146 05ff 0A       		.uleb128 0xa
 1147 0600 723400   		.ascii	"r4\000"
 1148 0603 0E       		.byte	0xe
 1149 0604 6C01     		.2byte	0x16c
 1150 0606 F4040000 		.4byte	0x4f4
 1151 060a 40       		.byte	0x40
 1152 060b 0A       		.uleb128 0xa
 1153 060c 723500   		.ascii	"r5\000"
 1154 060f 0E       		.byte	0xe
 1155 0610 6D01     		.2byte	0x16d
 1156 0612 F4040000 		.4byte	0x4f4
 1157 0616 44       		.byte	0x44
 1158 0617 0A       		.uleb128 0xa
 1159 0618 723600   		.ascii	"r6\000"
 1160 061b 0E       		.byte	0xe
 1161 061c 6E01     		.2byte	0x16e
 1162 061e F4040000 		.4byte	0x4f4
 1163 0622 48       		.byte	0x48
 1164 0623 0A       		.uleb128 0xa
 1165 0624 723700   		.ascii	"r7\000"
 1166 0627 0E       		.byte	0xe
 1167 0628 6F01     		.2byte	0x16f
 1168 062a F4040000 		.4byte	0x4f4
 1169 062e 4C       		.byte	0x4c
 1170 062f 0A       		.uleb128 0xa
 1171 0630 723800   		.ascii	"r8\000"
 1172 0633 0E       		.byte	0xe
 1173 0634 7001     		.2byte	0x170
 1174 0636 F4040000 		.4byte	0x4f4
 1175 063a 50       		.byte	0x50
 1176 063b 0A       		.uleb128 0xa
 1177 063c 723900   		.ascii	"r9\000"
 1178 063f 0E       		.byte	0xe
 1179 0640 7101     		.2byte	0x171
 1180 0642 F4040000 		.4byte	0x4f4
 1181 0646 54       		.byte	0x54
 1182 0647 0A       		.uleb128 0xa
 1183 0648 72313000 		.ascii	"r10\000"
 1184 064c 0E       		.byte	0xe
 1185 064d 7201     		.2byte	0x172
 1186 064f F4040000 		.4byte	0x4f4
 1187 0653 58       		.byte	0x58
 1188 0654 0A       		.uleb128 0xa
 1189 0655 72313100 		.ascii	"r11\000"
 1190 0659 0E       		.byte	0xe
 1191 065a 7301     		.2byte	0x173
 1192 065c F4040000 		.4byte	0x4f4
 1193 0660 5C       		.byte	0x5c
 1194 0661 0A       		.uleb128 0xa
 1195 0662 6C7200   		.ascii	"lr\000"
 1196 0665 0E       		.byte	0xe
 1197 0666 7401     		.2byte	0x174
ARM GAS  /tmp/cciMLgRf.s 			page 22


 1198 0668 F4040000 		.4byte	0x4f4
 1199 066c 60       		.byte	0x60
 1200 066d 00       		.byte	0
 1201 066e 0C       		.uleb128 0xc
 1202 066f 04       		.byte	0x4
 1203 0670 22050000 		.4byte	0x522
 1204 0674 15       		.uleb128 0x15
 1205 0675 60       		.byte	0x60
 1206 0676 0F       		.byte	0xf
 1207 0677 F501     		.2byte	0x1f5
 1208 0679 80070000 		.4byte	0x780
 1209 067d 0A       		.uleb128 0xa
 1210 067e 43523100 		.ascii	"CR1\000"
 1211 0682 0F       		.byte	0xf
 1212 0683 F601     		.2byte	0x1f6
 1213 0685 EA000000 		.4byte	0xea
 1214 0689 00       		.byte	0
 1215 068a 0A       		.uleb128 0xa
 1216 068b 43523200 		.ascii	"CR2\000"
 1217 068f 0F       		.byte	0xf
 1218 0690 F701     		.2byte	0x1f7
 1219 0692 EA000000 		.4byte	0xea
 1220 0696 04       		.byte	0x4
 1221 0697 0B       		.uleb128 0xb
 1222 0698 AA030000 		.4byte	.LASF84
 1223 069c 0F       		.byte	0xf
 1224 069d F801     		.2byte	0x1f8
 1225 069f EA000000 		.4byte	0xea
 1226 06a3 08       		.byte	0x8
 1227 06a4 0B       		.uleb128 0xb
 1228 06a5 0D000000 		.4byte	.LASF85
 1229 06a9 0F       		.byte	0xf
 1230 06aa F901     		.2byte	0x1f9
 1231 06ac EA000000 		.4byte	0xea
 1232 06b0 0C       		.byte	0xc
 1233 06b1 0A       		.uleb128 0xa
 1234 06b2 535200   		.ascii	"SR\000"
 1235 06b5 0F       		.byte	0xf
 1236 06b6 FA01     		.2byte	0x1fa
 1237 06b8 EA000000 		.4byte	0xea
 1238 06bc 10       		.byte	0x10
 1239 06bd 0A       		.uleb128 0xa
 1240 06be 45475200 		.ascii	"EGR\000"
 1241 06c2 0F       		.byte	0xf
 1242 06c3 FB01     		.2byte	0x1fb
 1243 06c5 EA000000 		.4byte	0xea
 1244 06c9 14       		.byte	0x14
 1245 06ca 0B       		.uleb128 0xb
 1246 06cb 13010000 		.4byte	.LASF86
 1247 06cf 0F       		.byte	0xf
 1248 06d0 FC01     		.2byte	0x1fc
 1249 06d2 EA000000 		.4byte	0xea
 1250 06d6 18       		.byte	0x18
 1251 06d7 0B       		.uleb128 0xb
 1252 06d8 70000000 		.4byte	.LASF87
 1253 06dc 0F       		.byte	0xf
 1254 06dd FD01     		.2byte	0x1fd
ARM GAS  /tmp/cciMLgRf.s 			page 23


 1255 06df EA000000 		.4byte	0xea
 1256 06e3 1C       		.byte	0x1c
 1257 06e4 0B       		.uleb128 0xb
 1258 06e5 E2060000 		.4byte	.LASF88
 1259 06e9 0F       		.byte	0xf
 1260 06ea FE01     		.2byte	0x1fe
 1261 06ec EA000000 		.4byte	0xea
 1262 06f0 20       		.byte	0x20
 1263 06f1 0A       		.uleb128 0xa
 1264 06f2 434E5400 		.ascii	"CNT\000"
 1265 06f6 0F       		.byte	0xf
 1266 06f7 FF01     		.2byte	0x1ff
 1267 06f9 EA000000 		.4byte	0xea
 1268 06fd 24       		.byte	0x24
 1269 06fe 0A       		.uleb128 0xa
 1270 06ff 50534300 		.ascii	"PSC\000"
 1271 0703 0F       		.byte	0xf
 1272 0704 0002     		.2byte	0x200
 1273 0706 EA000000 		.4byte	0xea
 1274 070a 28       		.byte	0x28
 1275 070b 0A       		.uleb128 0xa
 1276 070c 41525200 		.ascii	"ARR\000"
 1277 0710 0F       		.byte	0xf
 1278 0711 0102     		.2byte	0x201
 1279 0713 EA000000 		.4byte	0xea
 1280 0717 2C       		.byte	0x2c
 1281 0718 0A       		.uleb128 0xa
 1282 0719 52435200 		.ascii	"RCR\000"
 1283 071d 0F       		.byte	0xf
 1284 071e 0202     		.2byte	0x202
 1285 0720 EA000000 		.4byte	0xea
 1286 0724 30       		.byte	0x30
 1287 0725 0A       		.uleb128 0xa
 1288 0726 43435200 		.ascii	"CCR\000"
 1289 072a 0F       		.byte	0xf
 1290 072b 0302     		.2byte	0x203
 1291 072d EF040000 		.4byte	0x4ef
 1292 0731 34       		.byte	0x34
 1293 0732 0B       		.uleb128 0xb
 1294 0733 FD000000 		.4byte	.LASF89
 1295 0737 0F       		.byte	0xf
 1296 0738 0402     		.2byte	0x204
 1297 073a EA000000 		.4byte	0xea
 1298 073e 44       		.byte	0x44
 1299 073f 0A       		.uleb128 0xa
 1300 0740 44435200 		.ascii	"DCR\000"
 1301 0744 0F       		.byte	0xf
 1302 0745 0502     		.2byte	0x205
 1303 0747 EA000000 		.4byte	0xea
 1304 074b 48       		.byte	0x48
 1305 074c 0B       		.uleb128 0xb
 1306 074d D4060000 		.4byte	.LASF90
 1307 0751 0F       		.byte	0xf
 1308 0752 0602     		.2byte	0x206
 1309 0754 EA000000 		.4byte	0xea
 1310 0758 4C       		.byte	0x4c
 1311 0759 0A       		.uleb128 0xa
ARM GAS  /tmp/cciMLgRf.s 			page 24


 1312 075a 4F5200   		.ascii	"OR\000"
 1313 075d 0F       		.byte	0xf
 1314 075e 0702     		.2byte	0x207
 1315 0760 EA000000 		.4byte	0xea
 1316 0764 50       		.byte	0x50
 1317 0765 0B       		.uleb128 0xb
 1318 0766 22010000 		.4byte	.LASF91
 1319 076a 0F       		.byte	0xf
 1320 076b 0802     		.2byte	0x208
 1321 076d EA000000 		.4byte	0xea
 1322 0771 54       		.byte	0x54
 1323 0772 0B       		.uleb128 0xb
 1324 0773 3D060000 		.4byte	.LASF92
 1325 0777 0F       		.byte	0xf
 1326 0778 0902     		.2byte	0x209
 1327 077a DA040000 		.4byte	0x4da
 1328 077e 58       		.byte	0x58
 1329 077f 00       		.byte	0
 1330 0780 16       		.uleb128 0x16
 1331 0781 08040000 		.4byte	.LASF93
 1332 0785 0F       		.byte	0xf
 1333 0786 0A02     		.2byte	0x20a
 1334 0788 74060000 		.4byte	0x674
 1335 078c 17       		.uleb128 0x17
 1336 078d 04       		.byte	0x4
 1337 078e 10       		.byte	0x10
 1338 078f 38       		.byte	0x38
 1339 0790 A1070000 		.4byte	0x7a1
 1340 0794 08       		.uleb128 0x8
 1341 0795 1D070000 		.4byte	.LASF94
 1342 0799 10       		.byte	0x10
 1343 079a 3C       		.byte	0x3c
 1344 079b FA000000 		.4byte	0xfa
 1345 079f 00       		.byte	0
 1346 07a0 00       		.byte	0
 1347 07a1 03       		.uleb128 0x3
 1348 07a2 E7040000 		.4byte	.LASF95
 1349 07a6 10       		.byte	0x10
 1350 07a7 3D       		.byte	0x3d
 1351 07a8 8C070000 		.4byte	0x78c
 1352 07ac 18       		.uleb128 0x18
 1353 07ad 04       		.byte	0x4
 1354 07ae 0A       		.byte	0xa
 1355 07af C6       		.byte	0xc6
 1356 07b0 0E080000 		.4byte	0x80e
 1357 07b4 19       		.uleb128 0x19
 1358 07b5 24000000 		.4byte	.LASF96
 1359 07b9 0A       		.byte	0xa
 1360 07ba CD       		.byte	0xcd
 1361 07bb 31010000 		.4byte	0x131
 1362 07bf 19       		.uleb128 0x19
 1363 07c0 B9000000 		.4byte	.LASF97
 1364 07c4 0A       		.byte	0xa
 1365 07c5 D4       		.byte	0xd4
 1366 07c6 31010000 		.4byte	0x131
 1367 07ca 19       		.uleb128 0x19
 1368 07cb 18080000 		.4byte	.LASF98
ARM GAS  /tmp/cciMLgRf.s 			page 25


 1369 07cf 0A       		.byte	0xa
 1370 07d0 DB       		.byte	0xdb
 1371 07d1 2E030000 		.4byte	0x32e
 1372 07d5 19       		.uleb128 0x19
 1373 07d6 71030000 		.4byte	.LASF99
 1374 07da 0A       		.byte	0xa
 1375 07db E2       		.byte	0xe2
 1376 07dc 0E080000 		.4byte	0x80e
 1377 07e0 19       		.uleb128 0x19
 1378 07e1 CD000000 		.4byte	.LASF100
 1379 07e5 0A       		.byte	0xa
 1380 07e6 E7       		.byte	0xe7
 1381 07e7 31010000 		.4byte	0x131
 1382 07eb 19       		.uleb128 0x19
 1383 07ec 6A030000 		.4byte	.LASF101
 1384 07f0 0A       		.byte	0xa
 1385 07f1 F0       		.byte	0xf0
 1386 07f2 39080000 		.4byte	0x839
 1387 07f6 19       		.uleb128 0x19
 1388 07f7 79060000 		.4byte	.LASF102
 1389 07fb 0A       		.byte	0xa
 1390 07fc F9       		.byte	0xf9
 1391 07fd 7C080000 		.4byte	0x87c
 1392 0801 1A       		.uleb128 0x1a
 1393 0802 EB050000 		.4byte	.LASF103
 1394 0806 0A       		.byte	0xa
 1395 0807 0101     		.2byte	0x101
 1396 0809 3C010000 		.4byte	0x13c
 1397 080d 00       		.byte	0
 1398 080e 0C       		.uleb128 0xc
 1399 080f 04       		.byte	0x4
 1400 0810 46020000 		.4byte	0x246
 1401 0814 07       		.uleb128 0x7
 1402 0815 30060000 		.4byte	.LASF104
 1403 0819 0C       		.byte	0xc
 1404 081a 11       		.byte	0x11
 1405 081b 34       		.byte	0x34
 1406 081c 39080000 		.4byte	0x839
 1407 0820 08       		.uleb128 0x8
 1408 0821 9E030000 		.4byte	.LASF31
 1409 0825 11       		.byte	0x11
 1410 0826 35       		.byte	0x35
 1411 0827 7B020000 		.4byte	0x27b
 1412 082b 00       		.byte	0
 1413 082c 09       		.uleb128 0x9
 1414 082d 636E7400 		.ascii	"cnt\000"
 1415 0831 11       		.byte	0x11
 1416 0832 37       		.byte	0x37
 1417 0833 47010000 		.4byte	0x147
 1418 0837 08       		.byte	0x8
 1419 0838 00       		.byte	0
 1420 0839 0C       		.uleb128 0xc
 1421 083a 04       		.byte	0x4
 1422 083b 14080000 		.4byte	0x814
 1423 083f 07       		.uleb128 0x7
 1424 0840 16060000 		.4byte	.LASF105
 1425 0844 14       		.byte	0x14
ARM GAS  /tmp/cciMLgRf.s 			page 26


 1426 0845 12       		.byte	0x12
 1427 0846 39       		.byte	0x39
 1428 0847 7C080000 		.4byte	0x87c
 1429 084b 08       		.uleb128 0x8
 1430 084c 9E030000 		.4byte	.LASF31
 1431 0850 12       		.byte	0x12
 1432 0851 3A       		.byte	0x3a
 1433 0852 7B020000 		.4byte	0x27b
 1434 0856 00       		.byte	0
 1435 0857 08       		.uleb128 0x8
 1436 0858 90060000 		.4byte	.LASF106
 1437 085c 12       		.byte	0x12
 1438 085d 3C       		.byte	0x3c
 1439 085e 51020000 		.4byte	0x251
 1440 0862 08       		.byte	0x8
 1441 0863 08       		.uleb128 0x8
 1442 0864 19000000 		.4byte	.LASF50
 1443 0868 12       		.byte	0x12
 1444 0869 3E       		.byte	0x3e
 1445 086a DE090000 		.4byte	0x9de
 1446 086e 0C       		.byte	0xc
 1447 086f 09       		.uleb128 0x9
 1448 0870 636E7400 		.ascii	"cnt\000"
 1449 0874 12       		.byte	0x12
 1450 0875 41       		.byte	0x41
 1451 0876 47010000 		.4byte	0x147
 1452 087a 10       		.byte	0x10
 1453 087b 00       		.byte	0
 1454 087c 0C       		.uleb128 0xc
 1455 087d 04       		.byte	0x4
 1456 087e 3F080000 		.4byte	0x83f
 1457 0882 0C       		.uleb128 0xc
 1458 0883 04       		.byte	0x4
 1459 0884 94080000 		.4byte	0x894
 1460 0888 06       		.uleb128 0x6
 1461 0889 82080000 		.4byte	0x882
 1462 088d 04       		.uleb128 0x4
 1463 088e 01       		.byte	0x1
 1464 088f 08       		.byte	0x8
 1465 0890 BB060000 		.4byte	.LASF107
 1466 0894 05       		.uleb128 0x5
 1467 0895 8D080000 		.4byte	0x88d
 1468 0899 0C       		.uleb128 0xc
 1469 089a 04       		.byte	0x4
 1470 089b FF040000 		.4byte	0x4ff
 1471 089f 0C       		.uleb128 0xc
 1472 08a0 04       		.byte	0x4
 1473 08a1 30030000 		.4byte	0x330
 1474 08a5 1B       		.uleb128 0x1b
 1475 08a6 636800   		.ascii	"ch\000"
 1476 08a9 0A       		.byte	0xa
 1477 08aa C701     		.2byte	0x1c7
 1478 08ac FD030000 		.4byte	0x3fd
 1479 08b0 13       		.uleb128 0x13
 1480 08b1 FF040000 		.4byte	0x4ff
 1481 08b5 BB080000 		.4byte	0x8bb
 1482 08b9 1C       		.uleb128 0x1c
ARM GAS  /tmp/cciMLgRf.s 			page 27


 1483 08ba 00       		.byte	0
 1484 08bb 11       		.uleb128 0x11
 1485 08bc 42060000 		.4byte	.LASF108
 1486 08c0 13       		.byte	0x13
 1487 08c1 1701     		.2byte	0x117
 1488 08c3 B0080000 		.4byte	0x8b0
 1489 08c7 17       		.uleb128 0x17
 1490 08c8 16       		.byte	0x16
 1491 08c9 14       		.byte	0x14
 1492 08ca 34       		.byte	0x34
 1493 08cb A8090000 		.4byte	0x9a8
 1494 08cf 08       		.uleb128 0x8
 1495 08d0 1C040000 		.4byte	.LASF109
 1496 08d4 14       		.byte	0x14
 1497 08d5 35       		.byte	0x35
 1498 08d6 A8090000 		.4byte	0x9a8
 1499 08da 00       		.byte	0
 1500 08db 08       		.uleb128 0x8
 1501 08dc F9020000 		.4byte	.LASF110
 1502 08e0 14       		.byte	0x14
 1503 08e1 36       		.byte	0x36
 1504 08e2 B4000000 		.4byte	0xb4
 1505 08e6 04       		.byte	0x4
 1506 08e7 08       		.uleb128 0x8
 1507 08e8 1F080000 		.4byte	.LASF111
 1508 08ec 14       		.byte	0x14
 1509 08ed 37       		.byte	0x37
 1510 08ee B4000000 		.4byte	0xb4
 1511 08f2 05       		.byte	0x5
 1512 08f3 08       		.uleb128 0x8
 1513 08f4 74040000 		.4byte	.LASF112
 1514 08f8 14       		.byte	0x14
 1515 08f9 38       		.byte	0x38
 1516 08fa C4000000 		.4byte	0xc4
 1517 08fe 06       		.byte	0x6
 1518 08ff 08       		.uleb128 0x8
 1519 0900 7D070000 		.4byte	.LASF113
 1520 0904 14       		.byte	0x14
 1521 0905 39       		.byte	0x39
 1522 0906 B4000000 		.4byte	0xb4
 1523 090a 08       		.byte	0x8
 1524 090b 08       		.uleb128 0x8
 1525 090c 54060000 		.4byte	.LASF114
 1526 0910 14       		.byte	0x14
 1527 0911 3A       		.byte	0x3a
 1528 0912 B4000000 		.4byte	0xb4
 1529 0916 09       		.byte	0x9
 1530 0917 08       		.uleb128 0x8
 1531 0918 98050000 		.4byte	.LASF115
 1532 091c 14       		.byte	0x14
 1533 091d 3B       		.byte	0x3b
 1534 091e B4000000 		.4byte	0xb4
 1535 0922 0A       		.byte	0xa
 1536 0923 08       		.uleb128 0x8
 1537 0924 BF050000 		.4byte	.LASF116
 1538 0928 14       		.byte	0x14
 1539 0929 3C       		.byte	0x3c
ARM GAS  /tmp/cciMLgRf.s 			page 28


 1540 092a B4000000 		.4byte	0xb4
 1541 092e 0B       		.byte	0xb
 1542 092f 08       		.uleb128 0x8
 1543 0930 00040000 		.4byte	.LASF117
 1544 0934 14       		.byte	0x14
 1545 0935 3D       		.byte	0x3d
 1546 0936 B4000000 		.4byte	0xb4
 1547 093a 0C       		.byte	0xc
 1548 093b 08       		.uleb128 0x8
 1549 093c C2040000 		.4byte	.LASF118
 1550 0940 14       		.byte	0x14
 1551 0941 3E       		.byte	0x3e
 1552 0942 B4000000 		.4byte	0xb4
 1553 0946 0D       		.byte	0xd
 1554 0947 08       		.uleb128 0x8
 1555 0948 31070000 		.4byte	.LASF119
 1556 094c 14       		.byte	0x14
 1557 094d 3F       		.byte	0x3f
 1558 094e B4000000 		.4byte	0xb4
 1559 0952 0E       		.byte	0xe
 1560 0953 08       		.uleb128 0x8
 1561 0954 C0070000 		.4byte	.LASF120
 1562 0958 14       		.byte	0x14
 1563 0959 40       		.byte	0x40
 1564 095a B4000000 		.4byte	0xb4
 1565 095e 0F       		.byte	0xf
 1566 095f 08       		.uleb128 0x8
 1567 0960 B1020000 		.4byte	.LASF121
 1568 0964 14       		.byte	0x14
 1569 0965 41       		.byte	0x41
 1570 0966 B4000000 		.4byte	0xb4
 1571 096a 10       		.byte	0x10
 1572 096b 08       		.uleb128 0x8
 1573 096c 33080000 		.4byte	.LASF122
 1574 0970 14       		.byte	0x14
 1575 0971 42       		.byte	0x42
 1576 0972 B4000000 		.4byte	0xb4
 1577 0976 11       		.byte	0x11
 1578 0977 08       		.uleb128 0x8
 1579 0978 4F080000 		.4byte	.LASF123
 1580 097c 14       		.byte	0x14
 1581 097d 43       		.byte	0x43
 1582 097e B4000000 		.4byte	0xb4
 1583 0982 12       		.byte	0x12
 1584 0983 08       		.uleb128 0x8
 1585 0984 9F020000 		.4byte	.LASF124
 1586 0988 14       		.byte	0x14
 1587 0989 44       		.byte	0x44
 1588 098a B4000000 		.4byte	0xb4
 1589 098e 13       		.byte	0x13
 1590 098f 08       		.uleb128 0x8
 1591 0990 8D020000 		.4byte	.LASF125
 1592 0994 14       		.byte	0x14
 1593 0995 45       		.byte	0x45
 1594 0996 B4000000 		.4byte	0xb4
 1595 099a 14       		.byte	0x14
 1596 099b 08       		.uleb128 0x8
ARM GAS  /tmp/cciMLgRf.s 			page 29


 1597 099c 62040000 		.4byte	.LASF126
 1598 09a0 14       		.byte	0x14
 1599 09a1 46       		.byte	0x46
 1600 09a2 B4000000 		.4byte	0xb4
 1601 09a6 15       		.byte	0x15
 1602 09a7 00       		.byte	0
 1603 09a8 13       		.uleb128 0x13
 1604 09a9 8D080000 		.4byte	0x88d
 1605 09ad B8090000 		.4byte	0x9b8
 1606 09b1 14       		.uleb128 0x14
 1607 09b2 6C040000 		.4byte	0x46c
 1608 09b6 03       		.byte	0x3
 1609 09b7 00       		.byte	0
 1610 09b8 03       		.uleb128 0x3
 1611 09b9 62050000 		.4byte	.LASF127
 1612 09bd 14       		.byte	0x14
 1613 09be 47       		.byte	0x47
 1614 09bf C7080000 		.4byte	0x8c7
 1615 09c3 05       		.uleb128 0x5
 1616 09c4 B8090000 		.4byte	0x9b8
 1617 09c8 12       		.uleb128 0x12
 1618 09c9 77030000 		.4byte	.LASF128
 1619 09cd 14       		.byte	0x14
 1620 09ce 6C       		.byte	0x6c
 1621 09cf C3090000 		.4byte	0x9c3
 1622 09d3 03       		.uleb128 0x3
 1623 09d4 61080000 		.4byte	.LASF129
 1624 09d8 12       		.byte	0x12
 1625 09d9 34       		.byte	0x34
 1626 09da 3F080000 		.4byte	0x83f
 1627 09de 0C       		.uleb128 0xc
 1628 09df 04       		.byte	0x4
 1629 09e0 D3090000 		.4byte	0x9d3
 1630 09e4 04       		.uleb128 0x4
 1631 09e5 01       		.byte	0x1
 1632 09e6 02       		.byte	0x2
 1633 09e7 A3050000 		.4byte	.LASF130
 1634 09eb 03       		.uleb128 0x3
 1635 09ec 88000000 		.4byte	.LASF131
 1636 09f0 15       		.byte	0x15
 1637 09f1 47       		.byte	0x47
 1638 09f2 F6090000 		.4byte	0x9f6
 1639 09f6 0C       		.uleb128 0xc
 1640 09f7 04       		.byte	0x4
 1641 09f8 FC090000 		.4byte	0x9fc
 1642 09fc 1D       		.uleb128 0x1d
 1643 09fd 2E030000 		.4byte	0x32e
 1644 0a01 100A0000 		.4byte	0xa10
 1645 0a05 0F       		.uleb128 0xf
 1646 0a06 2C000000 		.4byte	0x2c
 1647 0a0a 0F       		.uleb128 0xf
 1648 0a0b 37000000 		.4byte	0x37
 1649 0a0f 00       		.byte	0
 1650 0a10 17       		.uleb128 0x17
 1651 0a11 08       		.byte	0x8
 1652 0a12 15       		.byte	0x15
 1653 0a13 51       		.byte	0x51
ARM GAS  /tmp/cciMLgRf.s 			page 30


 1654 0a14 310A0000 		.4byte	0xa31
 1655 0a18 08       		.uleb128 0x8
 1656 0a19 95080000 		.4byte	.LASF132
 1657 0a1d 15       		.byte	0x15
 1658 0a1e 55       		.byte	0x55
 1659 0a1f 310A0000 		.4byte	0xa31
 1660 0a23 00       		.byte	0
 1661 0a24 08       		.uleb128 0x8
 1662 0a25 40040000 		.4byte	.LASF133
 1663 0a29 15       		.byte	0x15
 1664 0a2a 59       		.byte	0x59
 1665 0a2b 310A0000 		.4byte	0xa31
 1666 0a2f 04       		.byte	0x4
 1667 0a30 00       		.byte	0
 1668 0a31 0C       		.uleb128 0xc
 1669 0a32 04       		.byte	0x4
 1670 0a33 B4000000 		.4byte	0xb4
 1671 0a37 03       		.uleb128 0x3
 1672 0a38 50050000 		.4byte	.LASF134
 1673 0a3c 15       		.byte	0x15
 1674 0a3d 5A       		.byte	0x5a
 1675 0a3e 100A0000 		.4byte	0xa10
 1676 0a42 12       		.uleb128 0x12
 1677 0a43 E7060000 		.4byte	.LASF135
 1678 0a47 15       		.byte	0x15
 1679 0a48 65       		.byte	0x65
 1680 0a49 370A0000 		.4byte	0xa37
 1681 0a4d 07       		.uleb128 0x7
 1682 0a4e A8070000 		.4byte	.LASF136
 1683 0a52 04       		.byte	0x4
 1684 0a53 16       		.byte	0x16
 1685 0a54 38       		.byte	0x38
 1686 0a55 660A0000 		.4byte	0xa66
 1687 0a59 08       		.uleb128 0x8
 1688 0a5a 19000000 		.4byte	.LASF50
 1689 0a5e 16       		.byte	0x16
 1690 0a5f 39       		.byte	0x39
 1691 0a60 660A0000 		.4byte	0xa66
 1692 0a64 00       		.byte	0
 1693 0a65 00       		.byte	0
 1694 0a66 0C       		.uleb128 0xc
 1695 0a67 04       		.byte	0x4
 1696 0a68 4D0A0000 		.4byte	0xa4d
 1697 0a6c 17       		.uleb128 0x17
 1698 0a6d 10       		.byte	0x10
 1699 0a6e 16       		.byte	0x16
 1700 0a6f 40       		.byte	0x40
 1701 0a70 A50A0000 		.4byte	0xaa5
 1702 0a74 08       		.uleb128 0x8
 1703 0a75 19000000 		.4byte	.LASF50
 1704 0a79 16       		.byte	0x16
 1705 0a7a 41       		.byte	0x41
 1706 0a7b 660A0000 		.4byte	0xa66
 1707 0a7f 00       		.byte	0
 1708 0a80 08       		.uleb128 0x8
 1709 0a81 6A070000 		.4byte	.LASF137
 1710 0a85 16       		.byte	0x16
ARM GAS  /tmp/cciMLgRf.s 			page 31


 1711 0a86 42       		.byte	0x42
 1712 0a87 2C000000 		.4byte	0x2c
 1713 0a8b 04       		.byte	0x4
 1714 0a8c 08       		.uleb128 0x8
 1715 0a8d 0C030000 		.4byte	.LASF138
 1716 0a91 16       		.byte	0x16
 1717 0a92 44       		.byte	0x44
 1718 0a93 37000000 		.4byte	0x37
 1719 0a97 08       		.byte	0x8
 1720 0a98 08       		.uleb128 0x8
 1721 0a99 76000000 		.4byte	.LASF139
 1722 0a9d 16       		.byte	0x16
 1723 0a9e 45       		.byte	0x45
 1724 0a9f EB090000 		.4byte	0x9eb
 1725 0aa3 0C       		.byte	0xc
 1726 0aa4 00       		.byte	0
 1727 0aa5 03       		.uleb128 0x3
 1728 0aa6 8B030000 		.4byte	.LASF140
 1729 0aaa 16       		.byte	0x16
 1730 0aab 47       		.byte	0x47
 1731 0aac 6C0A0000 		.4byte	0xa6c
 1732 0ab0 07       		.uleb128 0x7
 1733 0ab1 81050000 		.4byte	.LASF141
 1734 0ab5 10       		.byte	0x10
 1735 0ab6 17       		.byte	0x17
 1736 0ab7 A9       		.byte	0xa9
 1737 0ab8 E10A0000 		.4byte	0xae1
 1738 0abc 08       		.uleb128 0x8
 1739 0abd 19000000 		.4byte	.LASF50
 1740 0ac1 17       		.byte	0x17
 1741 0ac2 AD       		.byte	0xad
 1742 0ac3 E10A0000 		.4byte	0xae1
 1743 0ac7 00       		.byte	0
 1744 0ac8 08       		.uleb128 0x8
 1745 0ac9 6C050000 		.4byte	.LASF39
 1746 0acd 17       		.byte	0x17
 1747 0ace B1       		.byte	0xb1
 1748 0acf 52010000 		.4byte	0x152
 1749 0ad3 04       		.byte	0x4
 1750 0ad4 08       		.uleb128 0x8
 1751 0ad5 99030000 		.4byte	.LASF35
 1752 0ad9 17       		.byte	0x17
 1753 0ada B3       		.byte	0xb3
 1754 0adb E70A0000 		.4byte	0xae7
 1755 0adf 08       		.byte	0x8
 1756 0ae0 00       		.byte	0
 1757 0ae1 0C       		.uleb128 0xc
 1758 0ae2 04       		.byte	0x4
 1759 0ae3 B00A0000 		.4byte	0xab0
 1760 0ae7 13       		.uleb128 0x13
 1761 0ae8 8D080000 		.4byte	0x88d
 1762 0aec F70A0000 		.4byte	0xaf7
 1763 0af0 14       		.uleb128 0x14
 1764 0af1 6C040000 		.4byte	0x46c
 1765 0af5 07       		.byte	0x7
 1766 0af6 00       		.byte	0
 1767 0af7 03       		.uleb128 0x3
ARM GAS  /tmp/cciMLgRf.s 			page 32


 1768 0af8 85040000 		.4byte	.LASF142
 1769 0afc 17       		.byte	0x17
 1770 0afd B7       		.byte	0xb7
 1771 0afe B00A0000 		.4byte	0xab0
 1772 0b02 07       		.uleb128 0x7
 1773 0b03 B6040000 		.4byte	.LASF143
 1774 0b07 04       		.byte	0x4
 1775 0b08 17       		.byte	0x17
 1776 0b09 BC       		.byte	0xbc
 1777 0b0a 1B0B0000 		.4byte	0xb1b
 1778 0b0e 08       		.uleb128 0x8
 1779 0b0f 19000000 		.4byte	.LASF50
 1780 0b13 17       		.byte	0x17
 1781 0b14 BD       		.byte	0xbd
 1782 0b15 1B0B0000 		.4byte	0xb1b
 1783 0b19 00       		.byte	0
 1784 0b1a 00       		.byte	0
 1785 0b1b 0C       		.uleb128 0xc
 1786 0b1c 04       		.byte	0x4
 1787 0b1d F70A0000 		.4byte	0xaf7
 1788 0b21 03       		.uleb128 0x3
 1789 0b22 E9030000 		.4byte	.LASF144
 1790 0b26 17       		.byte	0x17
 1791 0b27 BE       		.byte	0xbe
 1792 0b28 020B0000 		.4byte	0xb02
 1793 0b2c 0D       		.uleb128 0xd
 1794 0b2d 85070000 		.4byte	.LASF145
 1795 0b31 48       		.byte	0x48
 1796 0b32 17       		.byte	0x17
 1797 0b33 3E01     		.2byte	0x13e
 1798 0b35 A20B0000 		.4byte	0xba2
 1799 0b39 0A       		.uleb128 0xa
 1800 0b3a 6D747800 		.ascii	"mtx\000"
 1801 0b3e 17       		.byte	0x17
 1802 0b3f 4301     		.2byte	0x143
 1803 0b41 D3090000 		.4byte	0x9d3
 1804 0b45 00       		.byte	0
 1805 0b46 0B       		.uleb128 0xb
 1806 0b47 CB060000 		.4byte	.LASF146
 1807 0b4b 17       		.byte	0x17
 1808 0b4c 4A01     		.2byte	0x14a
 1809 0b4e 210B0000 		.4byte	0xb21
 1810 0b52 14       		.byte	0x14
 1811 0b53 0B       		.uleb128 0xb
 1812 0b54 0D060000 		.4byte	.LASF147
 1813 0b58 17       		.byte	0x17
 1814 0b59 4E01     		.2byte	0x14e
 1815 0b5b A50A0000 		.4byte	0xaa5
 1816 0b5f 18       		.byte	0x18
 1817 0b60 0B       		.uleb128 0xb
 1818 0b61 AF030000 		.4byte	.LASF148
 1819 0b65 17       		.byte	0x17
 1820 0b66 5301     		.2byte	0x153
 1821 0b68 210B0000 		.4byte	0xb21
 1822 0b6c 28       		.byte	0x28
 1823 0b6d 0B       		.uleb128 0xb
 1824 0b6e 7F000000 		.4byte	.LASF149
ARM GAS  /tmp/cciMLgRf.s 			page 33


 1825 0b72 17       		.byte	0x17
 1826 0b73 5901     		.2byte	0x159
 1827 0b75 210B0000 		.4byte	0xb21
 1828 0b79 2C       		.byte	0x2c
 1829 0b7a 0B       		.uleb128 0xb
 1830 0b7b 29050000 		.4byte	.LASF150
 1831 0b7f 17       		.byte	0x17
 1832 0b80 5D01     		.2byte	0x15d
 1833 0b82 A50A0000 		.4byte	0xaa5
 1834 0b86 30       		.byte	0x30
 1835 0b87 0B       		.uleb128 0xb
 1836 0b88 D2020000 		.4byte	.LASF151
 1837 0b8c 17       		.byte	0x17
 1838 0b8d 6301     		.2byte	0x163
 1839 0b8f 210B0000 		.4byte	0xb21
 1840 0b93 40       		.byte	0x40
 1841 0b94 0B       		.uleb128 0xb
 1842 0b95 C8050000 		.4byte	.LASF152
 1843 0b99 17       		.byte	0x17
 1844 0b9a 6901     		.2byte	0x169
 1845 0b9c 210B0000 		.4byte	0xb21
 1846 0ba0 44       		.byte	0x44
 1847 0ba1 00       		.byte	0
 1848 0ba2 16       		.uleb128 0x16
 1849 0ba3 3D080000 		.4byte	.LASF153
 1850 0ba7 17       		.byte	0x17
 1851 0ba8 7101     		.2byte	0x171
 1852 0baa 2C0B0000 		.4byte	0xb2c
 1853 0bae 11       		.uleb128 0x11
 1854 0baf 80030000 		.4byte	.LASF154
 1855 0bb3 17       		.byte	0x17
 1856 0bb4 7C01     		.2byte	0x17c
 1857 0bb6 A20B0000 		.4byte	0xba2
 1858 0bba 1E       		.uleb128 0x1e
 1859 0bbb AC000000 		.4byte	.LASF155
 1860 0bbf 01       		.byte	0x1
 1861 0bc0 D3       		.byte	0xd3
 1862 0bc1 00000000 		.4byte	.LFB292
 1863 0bc5 74000000 		.4byte	.LFE292-.LFB292
 1864 0bc9 01       		.uleb128 0x1
 1865 0bca 9C       		.byte	0x9c
 1866 0bcb 950C0000 		.4byte	0xc95
 1867 0bcf 1F       		.uleb128 0x1f
 1868 0bd0 76747000 		.ascii	"vtp\000"
 1869 0bd4 01       		.byte	0x1
 1870 0bd5 D3       		.byte	0xd3
 1871 0bd6 9F080000 		.4byte	0x89f
 1872 0bda 00000000 		.4byte	.LLST9
 1873 0bde 20       		.uleb128 0x20
 1874 0bdf 04060000 		.4byte	.LASF159
 1875 0be3 A50C0000 		.4byte	0xca5
 1876 0be7 21       		.uleb128 0x21
 1877 0be8 39030000 		.4byte	.LASF160
 1878 0bec 01       		.byte	0x1
 1879 0bed E7       		.byte	0xe7
 1880 0bee 61040000 		.4byte	0x461
 1881 0bf2 22       		.uleb128 0x22
ARM GAS  /tmp/cciMLgRf.s 			page 34


 1882 0bf3 1E000000 		.4byte	.LASF60
 1883 0bf7 01       		.byte	0x1
 1884 0bf8 E7       		.byte	0xe7
 1885 0bf9 61040000 		.4byte	0x461
 1886 0bfd 3A000000 		.4byte	.LLST10
 1887 0c01 23       		.uleb128 0x23
 1888 0c02 3A0E0000 		.4byte	0xe3a
 1889 0c06 42000000 		.4byte	.LBB62
 1890 0c0a 04000000 		.4byte	.LBE62-.LBB62
 1891 0c0e 01       		.byte	0x1
 1892 0c0f FF       		.byte	0xff
 1893 0c10 1E0C0000 		.4byte	0xc1e
 1894 0c14 24       		.uleb128 0x24
 1895 0c15 46000000 		.4byte	.LVL21
 1896 0c19 BA0E0000 		.4byte	0xeba
 1897 0c1d 00       		.byte	0
 1898 0c1e 25       		.uleb128 0x25
 1899 0c1f 0A0E0000 		.4byte	0xe0a
 1900 0c23 4E000000 		.4byte	.LBB64
 1901 0c27 60000000 		.4byte	.Ldebug_ranges0+0x60
 1902 0c2b 01       		.byte	0x1
 1903 0c2c 0E01     		.2byte	0x10e
 1904 0c2e 520C0000 		.4byte	0xc52
 1905 0c32 26       		.uleb128 0x26
 1906 0c33 160E0000 		.4byte	0xe16
 1907 0c37 4E000000 		.4byte	.LBB65
 1908 0c3b 60000000 		.4byte	.Ldebug_ranges0+0x60
 1909 0c3f 18       		.byte	0x18
 1910 0c40 78       		.byte	0x78
 1911 0c41 27       		.uleb128 0x27
 1912 0c42 5A0E0000 		.4byte	0xe5a
 1913 0c46 4E000000 		.4byte	.LBB66
 1914 0c4a 60000000 		.4byte	.Ldebug_ranges0+0x60
 1915 0c4e 03       		.byte	0x3
 1916 0c4f 6B       		.byte	0x6b
 1917 0c50 00       		.byte	0
 1918 0c51 00       		.byte	0
 1919 0c52 28       		.uleb128 0x28
 1920 0c53 660E0000 		.4byte	0xe66
 1921 0c57 54000000 		.4byte	.LBB72
 1922 0c5b 02000000 		.4byte	.LBE72-.LBB72
 1923 0c5f 01       		.byte	0x1
 1924 0c60 0E01     		.2byte	0x10e
 1925 0c62 750C0000 		.4byte	0xc75
 1926 0c66 29       		.uleb128 0x29
 1927 0c67 830E0000 		.4byte	0xe83
 1928 0c6b 2A       		.uleb128 0x2a
 1929 0c6c 770E0000 		.4byte	0xe77
 1930 0c70 68000000 		.4byte	.LLST11
 1931 0c74 00       		.byte	0
 1932 0c75 2B       		.uleb128 0x2b
 1933 0c76 220E0000 		.4byte	0xe22
 1934 0c7a 62000000 		.4byte	.LBB74
 1935 0c7e 78000000 		.4byte	.Ldebug_ranges0+0x78
 1936 0c82 01       		.byte	0x1
 1937 0c83 2701     		.2byte	0x127
 1938 0c85 29       		.uleb128 0x29
ARM GAS  /tmp/cciMLgRf.s 			page 35


 1939 0c86 2E0E0000 		.4byte	0xe2e
 1940 0c8a 24       		.uleb128 0x24
 1941 0c8b 6C000000 		.4byte	.LVL27
 1942 0c8f C50E0000 		.4byte	0xec5
 1943 0c93 00       		.byte	0
 1944 0c94 00       		.byte	0
 1945 0c95 13       		.uleb128 0x13
 1946 0c96 94080000 		.4byte	0x894
 1947 0c9a A50C0000 		.4byte	0xca5
 1948 0c9e 14       		.uleb128 0x14
 1949 0c9f 6C040000 		.4byte	0x46c
 1950 0ca3 0C       		.byte	0xc
 1951 0ca4 00       		.byte	0
 1952 0ca5 05       		.uleb128 0x5
 1953 0ca6 950C0000 		.4byte	0xc95
 1954 0caa 1E       		.uleb128 0x1e
 1955 0cab 35040000 		.4byte	.LASF156
 1956 0caf 01       		.byte	0x1
 1957 0cb0 5F       		.byte	0x5f
 1958 0cb1 00000000 		.4byte	.LFB291
 1959 0cb5 78000000 		.4byte	.LFE291-.LFB291
 1960 0cb9 01       		.uleb128 0x1
 1961 0cba 9C       		.byte	0x9c
 1962 0cbb E40D0000 		.4byte	0xde4
 1963 0cbf 1F       		.uleb128 0x1f
 1964 0cc0 76747000 		.ascii	"vtp\000"
 1965 0cc4 01       		.byte	0x1
 1966 0cc5 5F       		.byte	0x5f
 1967 0cc6 9F080000 		.4byte	0x89f
 1968 0cca 7B000000 		.4byte	.LLST0
 1969 0cce 2C       		.uleb128 0x2c
 1970 0ccf D2050000 		.4byte	.LASF157
 1971 0cd3 01       		.byte	0x1
 1972 0cd4 5F       		.byte	0x5f
 1973 0cd5 61040000 		.4byte	0x461
 1974 0cd9 D7000000 		.4byte	.LLST1
 1975 0cdd 2C       		.uleb128 0x2c
 1976 0cde 76070000 		.4byte	.LASF158
 1977 0ce2 01       		.byte	0x1
 1978 0ce3 60       		.byte	0x60
 1979 0ce4 12030000 		.4byte	0x312
 1980 0ce8 6E010000 		.4byte	.LLST2
 1981 0cec 1F       		.uleb128 0x1f
 1982 0ced 70617200 		.ascii	"par\000"
 1983 0cf1 01       		.byte	0x1
 1984 0cf2 60       		.byte	0x60
 1985 0cf3 2E030000 		.4byte	0x32e
 1986 0cf7 F6010000 		.4byte	.LLST3
 1987 0cfb 2D       		.uleb128 0x2d
 1988 0cfc 7000     		.ascii	"p\000"
 1989 0cfe 01       		.byte	0x1
 1990 0cff 61       		.byte	0x61
 1991 0d00 9F080000 		.4byte	0x89f
 1992 0d04 7E020000 		.4byte	.LLST4
 1993 0d08 22       		.uleb128 0x22
 1994 0d09 1E000000 		.4byte	.LASF60
 1995 0d0d 01       		.byte	0x1
ARM GAS  /tmp/cciMLgRf.s 			page 36


 1996 0d0e 62       		.byte	0x62
 1997 0d0f 61040000 		.4byte	0x461
 1998 0d13 91020000 		.4byte	.LLST5
 1999 0d17 20       		.uleb128 0x20
 2000 0d18 04060000 		.4byte	.LASF159
 2001 0d1c F40D0000 		.4byte	0xdf4
 2002 0d20 2E       		.uleb128 0x2e
 2003 0d21 00000000 		.4byte	.Ldebug_ranges0+0
 2004 0d25 2F       		.uleb128 0x2f
 2005 0d26 6E6F7700 		.ascii	"now\000"
 2006 0d2a 01       		.byte	0x1
 2007 0d2b 6C       		.byte	0x6c
 2008 0d2c 56040000 		.4byte	0x456
 2009 0d30 30       		.uleb128 0x30
 2010 0d31 4A000000 		.4byte	.LBB55
 2011 0d35 06000000 		.4byte	.LBE55-.LBB55
 2012 0d39 6B0D0000 		.4byte	0xd6b
 2013 0d3d 22       		.uleb128 0x22
 2014 0d3e 42030000 		.4byte	.LASF161
 2015 0d42 01       		.byte	0x1
 2016 0d43 9C       		.byte	0x9c
 2017 0d44 61040000 		.4byte	0x461
 2018 0d48 B4020000 		.4byte	.LLST8
 2019 0d4c 31       		.uleb128 0x31
 2020 0d4d 220E0000 		.4byte	0xe22
 2021 0d51 4A000000 		.4byte	.LBB56
 2022 0d55 06000000 		.4byte	.LBE56-.LBB56
 2023 0d59 01       		.byte	0x1
 2024 0d5a A7       		.byte	0xa7
 2025 0d5b 29       		.uleb128 0x29
 2026 0d5c 2E0E0000 		.4byte	0xe2e
 2027 0d60 32       		.uleb128 0x32
 2028 0d61 50000000 		.4byte	.LVL15
 2029 0d65 C50E0000 		.4byte	0xec5
 2030 0d69 00       		.byte	0
 2031 0d6a 00       		.byte	0
 2032 0d6b 33       		.uleb128 0x33
 2033 0d6c 0A0E0000 		.4byte	0xe0a
 2034 0d70 04000000 		.4byte	.LBB41
 2035 0d74 30000000 		.4byte	.Ldebug_ranges0+0x30
 2036 0d78 01       		.byte	0x1
 2037 0d79 6C       		.byte	0x6c
 2038 0d7a 9E0D0000 		.4byte	0xd9e
 2039 0d7e 26       		.uleb128 0x26
 2040 0d7f 160E0000 		.4byte	0xe16
 2041 0d83 04000000 		.4byte	.LBB42
 2042 0d87 30000000 		.4byte	.Ldebug_ranges0+0x30
 2043 0d8b 18       		.byte	0x18
 2044 0d8c 78       		.byte	0x78
 2045 0d8d 27       		.uleb128 0x27
 2046 0d8e 5A0E0000 		.4byte	0xe5a
 2047 0d92 04000000 		.4byte	.LBB43
 2048 0d96 30000000 		.4byte	.Ldebug_ranges0+0x30
 2049 0d9a 03       		.byte	0x3
 2050 0d9b 6B       		.byte	0x6b
 2051 0d9c 00       		.byte	0
 2052 0d9d 00       		.byte	0
ARM GAS  /tmp/cciMLgRf.s 			page 37


 2053 0d9e 33       		.uleb128 0x33
 2054 0d9f 420E0000 		.4byte	0xe42
 2055 0da3 2C000000 		.4byte	.LBB49
 2056 0da7 48000000 		.4byte	.Ldebug_ranges0+0x48
 2057 0dab 01       		.byte	0x1
 2058 0dac 88       		.byte	0x88
 2059 0dad C00D0000 		.4byte	0xdc0
 2060 0db1 29       		.uleb128 0x29
 2061 0db2 4E0E0000 		.4byte	0xe4e
 2062 0db6 24       		.uleb128 0x24
 2063 0db7 36000000 		.4byte	.LVL6
 2064 0dbb D00E0000 		.4byte	0xed0
 2065 0dbf 00       		.byte	0
 2066 0dc0 31       		.uleb128 0x31
 2067 0dc1 660E0000 		.4byte	0xe66
 2068 0dc5 3A000000 		.4byte	.LBB53
 2069 0dc9 02000000 		.4byte	.LBE53-.LBB53
 2070 0dcd 01       		.byte	0x1
 2071 0dce 92       		.byte	0x92
 2072 0dcf 2A       		.uleb128 0x2a
 2073 0dd0 830E0000 		.4byte	0xe83
 2074 0dd4 C7020000 		.4byte	.LLST6
 2075 0dd8 2A       		.uleb128 0x2a
 2076 0dd9 770E0000 		.4byte	0xe77
 2077 0ddd DA020000 		.4byte	.LLST7
 2078 0de1 00       		.byte	0
 2079 0de2 00       		.byte	0
 2080 0de3 00       		.byte	0
 2081 0de4 13       		.uleb128 0x13
 2082 0de5 94080000 		.4byte	0x894
 2083 0de9 F40D0000 		.4byte	0xdf4
 2084 0ded 14       		.uleb128 0x14
 2085 0dee 6C040000 		.4byte	0x46c
 2086 0df2 0A       		.byte	0xa
 2087 0df3 00       		.byte	0
 2088 0df4 05       		.uleb128 0x5
 2089 0df5 E40D0000 		.4byte	0xde4
 2090 0df9 34       		.uleb128 0x34
 2091 0dfa 19010000 		.4byte	.LASF179
 2092 0dfe 01       		.byte	0x1
 2093 0dff 3D       		.byte	0x3d
 2094 0e00 00000000 		.4byte	.LFB290
 2095 0e04 1C000000 		.4byte	.LFE290-.LFB290
 2096 0e08 01       		.uleb128 0x1
 2097 0e09 9C       		.byte	0x9c
 2098 0e0a 35       		.uleb128 0x35
 2099 0e0b 26030000 		.4byte	.LASF162
 2100 0e0f 18       		.byte	0x18
 2101 0e10 73       		.byte	0x73
 2102 0e11 56040000 		.4byte	0x456
 2103 0e15 03       		.byte	0x3
 2104 0e16 35       		.uleb128 0x35
 2105 0e17 4E070000 		.4byte	.LASF163
 2106 0e1b 03       		.byte	0x3
 2107 0e1c 69       		.byte	0x69
 2108 0e1d 56040000 		.4byte	0x456
 2109 0e21 03       		.byte	0x3
ARM GAS  /tmp/cciMLgRf.s 			page 38


 2110 0e22 36       		.uleb128 0x36
 2111 0e23 03080000 		.4byte	.LASF164
 2112 0e27 03       		.byte	0x3
 2113 0e28 5D       		.byte	0x5d
 2114 0e29 03       		.byte	0x3
 2115 0e2a 3A0E0000 		.4byte	0xe3a
 2116 0e2e 37       		.uleb128 0x37
 2117 0e2f 1F050000 		.4byte	.LASF166
 2118 0e33 03       		.byte	0x3
 2119 0e34 5D       		.byte	0x5d
 2120 0e35 56040000 		.4byte	0x456
 2121 0e39 00       		.byte	0
 2122 0e3a 38       		.uleb128 0x38
 2123 0e3b DA070000 		.4byte	.LASF180
 2124 0e3f 03       		.byte	0x3
 2125 0e40 51       		.byte	0x51
 2126 0e41 03       		.byte	0x3
 2127 0e42 36       		.uleb128 0x36
 2128 0e43 C2030000 		.4byte	.LASF165
 2129 0e47 03       		.byte	0x3
 2130 0e48 47       		.byte	0x47
 2131 0e49 03       		.byte	0x3
 2132 0e4a 5A0E0000 		.4byte	0xe5a
 2133 0e4e 37       		.uleb128 0x37
 2134 0e4f 1F050000 		.4byte	.LASF166
 2135 0e53 03       		.byte	0x3
 2136 0e54 47       		.byte	0x47
 2137 0e55 56040000 		.4byte	0x456
 2138 0e59 00       		.byte	0
 2139 0e5a 35       		.uleb128 0x35
 2140 0e5b 5D060000 		.4byte	.LASF167
 2141 0e5f 02       		.byte	0x2
 2142 0e60 A6       		.byte	0xa6
 2143 0e61 56040000 		.4byte	0x456
 2144 0e65 03       		.byte	0x3
 2145 0e66 39       		.uleb128 0x39
 2146 0e67 B4070000 		.4byte	.LASF169
 2147 0e6b 04       		.byte	0x4
 2148 0e6c FE01     		.2byte	0x1fe
 2149 0e6e 61040000 		.4byte	0x461
 2150 0e72 03       		.byte	0x3
 2151 0e73 900E0000 		.4byte	0xe90
 2152 0e77 3A       		.uleb128 0x3a
 2153 0e78 4A020000 		.4byte	.LASF168
 2154 0e7c 04       		.byte	0x4
 2155 0e7d FE01     		.2byte	0x1fe
 2156 0e7f 56040000 		.4byte	0x456
 2157 0e83 3B       		.uleb128 0x3b
 2158 0e84 656E6400 		.ascii	"end\000"
 2159 0e88 04       		.byte	0x4
 2160 0e89 FE01     		.2byte	0x1fe
 2161 0e8b 56040000 		.4byte	0x456
 2162 0e8f 00       		.byte	0
 2163 0e90 39       		.uleb128 0x39
 2164 0e91 3A050000 		.4byte	.LASF170
 2165 0e95 04       		.byte	0x4
 2166 0e96 EB01     		.2byte	0x1eb
ARM GAS  /tmp/cciMLgRf.s 			page 39


 2167 0e98 56040000 		.4byte	0x456
 2168 0e9c 03       		.byte	0x3
 2169 0e9d BA0E0000 		.4byte	0xeba
 2170 0ea1 3A       		.uleb128 0x3a
 2171 0ea2 14040000 		.4byte	.LASF171
 2172 0ea6 04       		.byte	0x4
 2173 0ea7 EB01     		.2byte	0x1eb
 2174 0ea9 56040000 		.4byte	0x456
 2175 0ead 3A       		.uleb128 0x3a
 2176 0eae A8020000 		.4byte	.LASF172
 2177 0eb2 04       		.byte	0x4
 2178 0eb3 EC01     		.2byte	0x1ec
 2179 0eb5 61040000 		.4byte	0x461
 2180 0eb9 00       		.byte	0
 2181 0eba 3C       		.uleb128 0x3c
 2182 0ebb AF060000 		.4byte	.LASF173
 2183 0ebf AF060000 		.4byte	.LASF173
 2184 0ec3 19       		.byte	0x19
 2185 0ec4 58       		.byte	0x58
 2186 0ec5 3C       		.uleb128 0x3c
 2187 0ec6 C9070000 		.4byte	.LASF174
 2188 0eca C9070000 		.4byte	.LASF174
 2189 0ece 19       		.byte	0x19
 2190 0ecf 59       		.byte	0x59
 2191 0ed0 3C       		.uleb128 0x3c
 2192 0ed1 24070000 		.4byte	.LASF175
 2193 0ed5 24070000 		.4byte	.LASF175
 2194 0ed9 19       		.byte	0x19
 2195 0eda 57       		.byte	0x57
 2196 0edb 00       		.byte	0
 2197              		.section	.debug_abbrev,"",%progbits
 2198              	.Ldebug_abbrev0:
 2199 0000 01       		.uleb128 0x1
 2200 0001 11       		.uleb128 0x11
 2201 0002 01       		.byte	0x1
 2202 0003 25       		.uleb128 0x25
 2203 0004 0E       		.uleb128 0xe
 2204 0005 13       		.uleb128 0x13
 2205 0006 0B       		.uleb128 0xb
 2206 0007 03       		.uleb128 0x3
 2207 0008 0E       		.uleb128 0xe
 2208 0009 1B       		.uleb128 0x1b
 2209 000a 0E       		.uleb128 0xe
 2210 000b 55       		.uleb128 0x55
 2211 000c 17       		.uleb128 0x17
 2212 000d 11       		.uleb128 0x11
 2213 000e 01       		.uleb128 0x1
 2214 000f 10       		.uleb128 0x10
 2215 0010 17       		.uleb128 0x17
 2216 0011 00       		.byte	0
 2217 0012 00       		.byte	0
 2218 0013 02       		.uleb128 0x2
 2219 0014 24       		.uleb128 0x24
 2220 0015 00       		.byte	0
 2221 0016 0B       		.uleb128 0xb
 2222 0017 0B       		.uleb128 0xb
 2223 0018 3E       		.uleb128 0x3e
ARM GAS  /tmp/cciMLgRf.s 			page 40


 2224 0019 0B       		.uleb128 0xb
 2225 001a 03       		.uleb128 0x3
 2226 001b 08       		.uleb128 0x8
 2227 001c 00       		.byte	0
 2228 001d 00       		.byte	0
 2229 001e 03       		.uleb128 0x3
 2230 001f 16       		.uleb128 0x16
 2231 0020 00       		.byte	0
 2232 0021 03       		.uleb128 0x3
 2233 0022 0E       		.uleb128 0xe
 2234 0023 3A       		.uleb128 0x3a
 2235 0024 0B       		.uleb128 0xb
 2236 0025 3B       		.uleb128 0x3b
 2237 0026 0B       		.uleb128 0xb
 2238 0027 49       		.uleb128 0x49
 2239 0028 13       		.uleb128 0x13
 2240 0029 00       		.byte	0
 2241 002a 00       		.byte	0
 2242 002b 04       		.uleb128 0x4
 2243 002c 24       		.uleb128 0x24
 2244 002d 00       		.byte	0
 2245 002e 0B       		.uleb128 0xb
 2246 002f 0B       		.uleb128 0xb
 2247 0030 3E       		.uleb128 0x3e
 2248 0031 0B       		.uleb128 0xb
 2249 0032 03       		.uleb128 0x3
 2250 0033 0E       		.uleb128 0xe
 2251 0034 00       		.byte	0
 2252 0035 00       		.byte	0
 2253 0036 05       		.uleb128 0x5
 2254 0037 26       		.uleb128 0x26
 2255 0038 00       		.byte	0
 2256 0039 49       		.uleb128 0x49
 2257 003a 13       		.uleb128 0x13
 2258 003b 00       		.byte	0
 2259 003c 00       		.byte	0
 2260 003d 06       		.uleb128 0x6
 2261 003e 35       		.uleb128 0x35
 2262 003f 00       		.byte	0
 2263 0040 49       		.uleb128 0x49
 2264 0041 13       		.uleb128 0x13
 2265 0042 00       		.byte	0
 2266 0043 00       		.byte	0
 2267 0044 07       		.uleb128 0x7
 2268 0045 13       		.uleb128 0x13
 2269 0046 01       		.byte	0x1
 2270 0047 03       		.uleb128 0x3
 2271 0048 0E       		.uleb128 0xe
 2272 0049 0B       		.uleb128 0xb
 2273 004a 0B       		.uleb128 0xb
 2274 004b 3A       		.uleb128 0x3a
 2275 004c 0B       		.uleb128 0xb
 2276 004d 3B       		.uleb128 0x3b
 2277 004e 0B       		.uleb128 0xb
 2278 004f 01       		.uleb128 0x1
 2279 0050 13       		.uleb128 0x13
 2280 0051 00       		.byte	0
ARM GAS  /tmp/cciMLgRf.s 			page 41


 2281 0052 00       		.byte	0
 2282 0053 08       		.uleb128 0x8
 2283 0054 0D       		.uleb128 0xd
 2284 0055 00       		.byte	0
 2285 0056 03       		.uleb128 0x3
 2286 0057 0E       		.uleb128 0xe
 2287 0058 3A       		.uleb128 0x3a
 2288 0059 0B       		.uleb128 0xb
 2289 005a 3B       		.uleb128 0x3b
 2290 005b 0B       		.uleb128 0xb
 2291 005c 49       		.uleb128 0x49
 2292 005d 13       		.uleb128 0x13
 2293 005e 38       		.uleb128 0x38
 2294 005f 0B       		.uleb128 0xb
 2295 0060 00       		.byte	0
 2296 0061 00       		.byte	0
 2297 0062 09       		.uleb128 0x9
 2298 0063 0D       		.uleb128 0xd
 2299 0064 00       		.byte	0
 2300 0065 03       		.uleb128 0x3
 2301 0066 08       		.uleb128 0x8
 2302 0067 3A       		.uleb128 0x3a
 2303 0068 0B       		.uleb128 0xb
 2304 0069 3B       		.uleb128 0x3b
 2305 006a 0B       		.uleb128 0xb
 2306 006b 49       		.uleb128 0x49
 2307 006c 13       		.uleb128 0x13
 2308 006d 38       		.uleb128 0x38
 2309 006e 0B       		.uleb128 0xb
 2310 006f 00       		.byte	0
 2311 0070 00       		.byte	0
 2312 0071 0A       		.uleb128 0xa
 2313 0072 0D       		.uleb128 0xd
 2314 0073 00       		.byte	0
 2315 0074 03       		.uleb128 0x3
 2316 0075 08       		.uleb128 0x8
 2317 0076 3A       		.uleb128 0x3a
 2318 0077 0B       		.uleb128 0xb
 2319 0078 3B       		.uleb128 0x3b
 2320 0079 05       		.uleb128 0x5
 2321 007a 49       		.uleb128 0x49
 2322 007b 13       		.uleb128 0x13
 2323 007c 38       		.uleb128 0x38
 2324 007d 0B       		.uleb128 0xb
 2325 007e 00       		.byte	0
 2326 007f 00       		.byte	0
 2327 0080 0B       		.uleb128 0xb
 2328 0081 0D       		.uleb128 0xd
 2329 0082 00       		.byte	0
 2330 0083 03       		.uleb128 0x3
 2331 0084 0E       		.uleb128 0xe
 2332 0085 3A       		.uleb128 0x3a
 2333 0086 0B       		.uleb128 0xb
 2334 0087 3B       		.uleb128 0x3b
 2335 0088 05       		.uleb128 0x5
 2336 0089 49       		.uleb128 0x49
 2337 008a 13       		.uleb128 0x13
ARM GAS  /tmp/cciMLgRf.s 			page 42


 2338 008b 38       		.uleb128 0x38
 2339 008c 0B       		.uleb128 0xb
 2340 008d 00       		.byte	0
 2341 008e 00       		.byte	0
 2342 008f 0C       		.uleb128 0xc
 2343 0090 0F       		.uleb128 0xf
 2344 0091 00       		.byte	0
 2345 0092 0B       		.uleb128 0xb
 2346 0093 0B       		.uleb128 0xb
 2347 0094 49       		.uleb128 0x49
 2348 0095 13       		.uleb128 0x13
 2349 0096 00       		.byte	0
 2350 0097 00       		.byte	0
 2351 0098 0D       		.uleb128 0xd
 2352 0099 13       		.uleb128 0x13
 2353 009a 01       		.byte	0x1
 2354 009b 03       		.uleb128 0x3
 2355 009c 0E       		.uleb128 0xe
 2356 009d 0B       		.uleb128 0xb
 2357 009e 0B       		.uleb128 0xb
 2358 009f 3A       		.uleb128 0x3a
 2359 00a0 0B       		.uleb128 0xb
 2360 00a1 3B       		.uleb128 0x3b
 2361 00a2 05       		.uleb128 0x5
 2362 00a3 01       		.uleb128 0x1
 2363 00a4 13       		.uleb128 0x13
 2364 00a5 00       		.byte	0
 2365 00a6 00       		.byte	0
 2366 00a7 0E       		.uleb128 0xe
 2367 00a8 15       		.uleb128 0x15
 2368 00a9 01       		.byte	0x1
 2369 00aa 27       		.uleb128 0x27
 2370 00ab 19       		.uleb128 0x19
 2371 00ac 01       		.uleb128 0x1
 2372 00ad 13       		.uleb128 0x13
 2373 00ae 00       		.byte	0
 2374 00af 00       		.byte	0
 2375 00b0 0F       		.uleb128 0xf
 2376 00b1 05       		.uleb128 0x5
 2377 00b2 00       		.byte	0
 2378 00b3 49       		.uleb128 0x49
 2379 00b4 13       		.uleb128 0x13
 2380 00b5 00       		.byte	0
 2381 00b6 00       		.byte	0
 2382 00b7 10       		.uleb128 0x10
 2383 00b8 0F       		.uleb128 0xf
 2384 00b9 00       		.byte	0
 2385 00ba 0B       		.uleb128 0xb
 2386 00bb 0B       		.uleb128 0xb
 2387 00bc 00       		.byte	0
 2388 00bd 00       		.byte	0
 2389 00be 11       		.uleb128 0x11
 2390 00bf 34       		.uleb128 0x34
 2391 00c0 00       		.byte	0
 2392 00c1 03       		.uleb128 0x3
 2393 00c2 0E       		.uleb128 0xe
 2394 00c3 3A       		.uleb128 0x3a
ARM GAS  /tmp/cciMLgRf.s 			page 43


 2395 00c4 0B       		.uleb128 0xb
 2396 00c5 3B       		.uleb128 0x3b
 2397 00c6 05       		.uleb128 0x5
 2398 00c7 49       		.uleb128 0x49
 2399 00c8 13       		.uleb128 0x13
 2400 00c9 3F       		.uleb128 0x3f
 2401 00ca 19       		.uleb128 0x19
 2402 00cb 3C       		.uleb128 0x3c
 2403 00cc 19       		.uleb128 0x19
 2404 00cd 00       		.byte	0
 2405 00ce 00       		.byte	0
 2406 00cf 12       		.uleb128 0x12
 2407 00d0 34       		.uleb128 0x34
 2408 00d1 00       		.byte	0
 2409 00d2 03       		.uleb128 0x3
 2410 00d3 0E       		.uleb128 0xe
 2411 00d4 3A       		.uleb128 0x3a
 2412 00d5 0B       		.uleb128 0xb
 2413 00d6 3B       		.uleb128 0x3b
 2414 00d7 0B       		.uleb128 0xb
 2415 00d8 49       		.uleb128 0x49
 2416 00d9 13       		.uleb128 0x13
 2417 00da 3F       		.uleb128 0x3f
 2418 00db 19       		.uleb128 0x19
 2419 00dc 3C       		.uleb128 0x3c
 2420 00dd 19       		.uleb128 0x19
 2421 00de 00       		.byte	0
 2422 00df 00       		.byte	0
 2423 00e0 13       		.uleb128 0x13
 2424 00e1 01       		.uleb128 0x1
 2425 00e2 01       		.byte	0x1
 2426 00e3 49       		.uleb128 0x49
 2427 00e4 13       		.uleb128 0x13
 2428 00e5 01       		.uleb128 0x1
 2429 00e6 13       		.uleb128 0x13
 2430 00e7 00       		.byte	0
 2431 00e8 00       		.byte	0
 2432 00e9 14       		.uleb128 0x14
 2433 00ea 21       		.uleb128 0x21
 2434 00eb 00       		.byte	0
 2435 00ec 49       		.uleb128 0x49
 2436 00ed 13       		.uleb128 0x13
 2437 00ee 2F       		.uleb128 0x2f
 2438 00ef 0B       		.uleb128 0xb
 2439 00f0 00       		.byte	0
 2440 00f1 00       		.byte	0
 2441 00f2 15       		.uleb128 0x15
 2442 00f3 13       		.uleb128 0x13
 2443 00f4 01       		.byte	0x1
 2444 00f5 0B       		.uleb128 0xb
 2445 00f6 0B       		.uleb128 0xb
 2446 00f7 3A       		.uleb128 0x3a
 2447 00f8 0B       		.uleb128 0xb
 2448 00f9 3B       		.uleb128 0x3b
 2449 00fa 05       		.uleb128 0x5
 2450 00fb 01       		.uleb128 0x1
 2451 00fc 13       		.uleb128 0x13
ARM GAS  /tmp/cciMLgRf.s 			page 44


 2452 00fd 00       		.byte	0
 2453 00fe 00       		.byte	0
 2454 00ff 16       		.uleb128 0x16
 2455 0100 16       		.uleb128 0x16
 2456 0101 00       		.byte	0
 2457 0102 03       		.uleb128 0x3
 2458 0103 0E       		.uleb128 0xe
 2459 0104 3A       		.uleb128 0x3a
 2460 0105 0B       		.uleb128 0xb
 2461 0106 3B       		.uleb128 0x3b
 2462 0107 05       		.uleb128 0x5
 2463 0108 49       		.uleb128 0x49
 2464 0109 13       		.uleb128 0x13
 2465 010a 00       		.byte	0
 2466 010b 00       		.byte	0
 2467 010c 17       		.uleb128 0x17
 2468 010d 13       		.uleb128 0x13
 2469 010e 01       		.byte	0x1
 2470 010f 0B       		.uleb128 0xb
 2471 0110 0B       		.uleb128 0xb
 2472 0111 3A       		.uleb128 0x3a
 2473 0112 0B       		.uleb128 0xb
 2474 0113 3B       		.uleb128 0x3b
 2475 0114 0B       		.uleb128 0xb
 2476 0115 01       		.uleb128 0x1
 2477 0116 13       		.uleb128 0x13
 2478 0117 00       		.byte	0
 2479 0118 00       		.byte	0
 2480 0119 18       		.uleb128 0x18
 2481 011a 17       		.uleb128 0x17
 2482 011b 01       		.byte	0x1
 2483 011c 0B       		.uleb128 0xb
 2484 011d 0B       		.uleb128 0xb
 2485 011e 3A       		.uleb128 0x3a
 2486 011f 0B       		.uleb128 0xb
 2487 0120 3B       		.uleb128 0x3b
 2488 0121 0B       		.uleb128 0xb
 2489 0122 01       		.uleb128 0x1
 2490 0123 13       		.uleb128 0x13
 2491 0124 00       		.byte	0
 2492 0125 00       		.byte	0
 2493 0126 19       		.uleb128 0x19
 2494 0127 0D       		.uleb128 0xd
 2495 0128 00       		.byte	0
 2496 0129 03       		.uleb128 0x3
 2497 012a 0E       		.uleb128 0xe
 2498 012b 3A       		.uleb128 0x3a
 2499 012c 0B       		.uleb128 0xb
 2500 012d 3B       		.uleb128 0x3b
 2501 012e 0B       		.uleb128 0xb
 2502 012f 49       		.uleb128 0x49
 2503 0130 13       		.uleb128 0x13
 2504 0131 00       		.byte	0
 2505 0132 00       		.byte	0
 2506 0133 1A       		.uleb128 0x1a
 2507 0134 0D       		.uleb128 0xd
 2508 0135 00       		.byte	0
ARM GAS  /tmp/cciMLgRf.s 			page 45


 2509 0136 03       		.uleb128 0x3
 2510 0137 0E       		.uleb128 0xe
 2511 0138 3A       		.uleb128 0x3a
 2512 0139 0B       		.uleb128 0xb
 2513 013a 3B       		.uleb128 0x3b
 2514 013b 05       		.uleb128 0x5
 2515 013c 49       		.uleb128 0x49
 2516 013d 13       		.uleb128 0x13
 2517 013e 00       		.byte	0
 2518 013f 00       		.byte	0
 2519 0140 1B       		.uleb128 0x1b
 2520 0141 34       		.uleb128 0x34
 2521 0142 00       		.byte	0
 2522 0143 03       		.uleb128 0x3
 2523 0144 08       		.uleb128 0x8
 2524 0145 3A       		.uleb128 0x3a
 2525 0146 0B       		.uleb128 0xb
 2526 0147 3B       		.uleb128 0x3b
 2527 0148 05       		.uleb128 0x5
 2528 0149 49       		.uleb128 0x49
 2529 014a 13       		.uleb128 0x13
 2530 014b 3F       		.uleb128 0x3f
 2531 014c 19       		.uleb128 0x19
 2532 014d 3C       		.uleb128 0x3c
 2533 014e 19       		.uleb128 0x19
 2534 014f 00       		.byte	0
 2535 0150 00       		.byte	0
 2536 0151 1C       		.uleb128 0x1c
 2537 0152 21       		.uleb128 0x21
 2538 0153 00       		.byte	0
 2539 0154 00       		.byte	0
 2540 0155 00       		.byte	0
 2541 0156 1D       		.uleb128 0x1d
 2542 0157 15       		.uleb128 0x15
 2543 0158 01       		.byte	0x1
 2544 0159 27       		.uleb128 0x27
 2545 015a 19       		.uleb128 0x19
 2546 015b 49       		.uleb128 0x49
 2547 015c 13       		.uleb128 0x13
 2548 015d 01       		.uleb128 0x1
 2549 015e 13       		.uleb128 0x13
 2550 015f 00       		.byte	0
 2551 0160 00       		.byte	0
 2552 0161 1E       		.uleb128 0x1e
 2553 0162 2E       		.uleb128 0x2e
 2554 0163 01       		.byte	0x1
 2555 0164 3F       		.uleb128 0x3f
 2556 0165 19       		.uleb128 0x19
 2557 0166 03       		.uleb128 0x3
 2558 0167 0E       		.uleb128 0xe
 2559 0168 3A       		.uleb128 0x3a
 2560 0169 0B       		.uleb128 0xb
 2561 016a 3B       		.uleb128 0x3b
 2562 016b 0B       		.uleb128 0xb
 2563 016c 27       		.uleb128 0x27
 2564 016d 19       		.uleb128 0x19
 2565 016e 11       		.uleb128 0x11
ARM GAS  /tmp/cciMLgRf.s 			page 46


 2566 016f 01       		.uleb128 0x1
 2567 0170 12       		.uleb128 0x12
 2568 0171 06       		.uleb128 0x6
 2569 0172 40       		.uleb128 0x40
 2570 0173 18       		.uleb128 0x18
 2571 0174 9742     		.uleb128 0x2117
 2572 0176 19       		.uleb128 0x19
 2573 0177 01       		.uleb128 0x1
 2574 0178 13       		.uleb128 0x13
 2575 0179 00       		.byte	0
 2576 017a 00       		.byte	0
 2577 017b 1F       		.uleb128 0x1f
 2578 017c 05       		.uleb128 0x5
 2579 017d 00       		.byte	0
 2580 017e 03       		.uleb128 0x3
 2581 017f 08       		.uleb128 0x8
 2582 0180 3A       		.uleb128 0x3a
 2583 0181 0B       		.uleb128 0xb
 2584 0182 3B       		.uleb128 0x3b
 2585 0183 0B       		.uleb128 0xb
 2586 0184 49       		.uleb128 0x49
 2587 0185 13       		.uleb128 0x13
 2588 0186 02       		.uleb128 0x2
 2589 0187 17       		.uleb128 0x17
 2590 0188 00       		.byte	0
 2591 0189 00       		.byte	0
 2592 018a 20       		.uleb128 0x20
 2593 018b 34       		.uleb128 0x34
 2594 018c 00       		.byte	0
 2595 018d 03       		.uleb128 0x3
 2596 018e 0E       		.uleb128 0xe
 2597 018f 49       		.uleb128 0x49
 2598 0190 13       		.uleb128 0x13
 2599 0191 34       		.uleb128 0x34
 2600 0192 19       		.uleb128 0x19
 2601 0193 00       		.byte	0
 2602 0194 00       		.byte	0
 2603 0195 21       		.uleb128 0x21
 2604 0196 34       		.uleb128 0x34
 2605 0197 00       		.byte	0
 2606 0198 03       		.uleb128 0x3
 2607 0199 0E       		.uleb128 0xe
 2608 019a 3A       		.uleb128 0x3a
 2609 019b 0B       		.uleb128 0xb
 2610 019c 3B       		.uleb128 0x3b
 2611 019d 0B       		.uleb128 0xb
 2612 019e 49       		.uleb128 0x49
 2613 019f 13       		.uleb128 0x13
 2614 01a0 00       		.byte	0
 2615 01a1 00       		.byte	0
 2616 01a2 22       		.uleb128 0x22
 2617 01a3 34       		.uleb128 0x34
 2618 01a4 00       		.byte	0
 2619 01a5 03       		.uleb128 0x3
 2620 01a6 0E       		.uleb128 0xe
 2621 01a7 3A       		.uleb128 0x3a
 2622 01a8 0B       		.uleb128 0xb
ARM GAS  /tmp/cciMLgRf.s 			page 47


 2623 01a9 3B       		.uleb128 0x3b
 2624 01aa 0B       		.uleb128 0xb
 2625 01ab 49       		.uleb128 0x49
 2626 01ac 13       		.uleb128 0x13
 2627 01ad 02       		.uleb128 0x2
 2628 01ae 17       		.uleb128 0x17
 2629 01af 00       		.byte	0
 2630 01b0 00       		.byte	0
 2631 01b1 23       		.uleb128 0x23
 2632 01b2 1D       		.uleb128 0x1d
 2633 01b3 01       		.byte	0x1
 2634 01b4 31       		.uleb128 0x31
 2635 01b5 13       		.uleb128 0x13
 2636 01b6 11       		.uleb128 0x11
 2637 01b7 01       		.uleb128 0x1
 2638 01b8 12       		.uleb128 0x12
 2639 01b9 06       		.uleb128 0x6
 2640 01ba 58       		.uleb128 0x58
 2641 01bb 0B       		.uleb128 0xb
 2642 01bc 59       		.uleb128 0x59
 2643 01bd 0B       		.uleb128 0xb
 2644 01be 01       		.uleb128 0x1
 2645 01bf 13       		.uleb128 0x13
 2646 01c0 00       		.byte	0
 2647 01c1 00       		.byte	0
 2648 01c2 24       		.uleb128 0x24
 2649 01c3 898201   		.uleb128 0x4109
 2650 01c6 00       		.byte	0
 2651 01c7 11       		.uleb128 0x11
 2652 01c8 01       		.uleb128 0x1
 2653 01c9 9542     		.uleb128 0x2115
 2654 01cb 19       		.uleb128 0x19
 2655 01cc 31       		.uleb128 0x31
 2656 01cd 13       		.uleb128 0x13
 2657 01ce 00       		.byte	0
 2658 01cf 00       		.byte	0
 2659 01d0 25       		.uleb128 0x25
 2660 01d1 1D       		.uleb128 0x1d
 2661 01d2 01       		.byte	0x1
 2662 01d3 31       		.uleb128 0x31
 2663 01d4 13       		.uleb128 0x13
 2664 01d5 52       		.uleb128 0x52
 2665 01d6 01       		.uleb128 0x1
 2666 01d7 55       		.uleb128 0x55
 2667 01d8 17       		.uleb128 0x17
 2668 01d9 58       		.uleb128 0x58
 2669 01da 0B       		.uleb128 0xb
 2670 01db 59       		.uleb128 0x59
 2671 01dc 05       		.uleb128 0x5
 2672 01dd 01       		.uleb128 0x1
 2673 01de 13       		.uleb128 0x13
 2674 01df 00       		.byte	0
 2675 01e0 00       		.byte	0
 2676 01e1 26       		.uleb128 0x26
 2677 01e2 1D       		.uleb128 0x1d
 2678 01e3 01       		.byte	0x1
 2679 01e4 31       		.uleb128 0x31
ARM GAS  /tmp/cciMLgRf.s 			page 48


 2680 01e5 13       		.uleb128 0x13
 2681 01e6 52       		.uleb128 0x52
 2682 01e7 01       		.uleb128 0x1
 2683 01e8 55       		.uleb128 0x55
 2684 01e9 17       		.uleb128 0x17
 2685 01ea 58       		.uleb128 0x58
 2686 01eb 0B       		.uleb128 0xb
 2687 01ec 59       		.uleb128 0x59
 2688 01ed 0B       		.uleb128 0xb
 2689 01ee 00       		.byte	0
 2690 01ef 00       		.byte	0
 2691 01f0 27       		.uleb128 0x27
 2692 01f1 1D       		.uleb128 0x1d
 2693 01f2 00       		.byte	0
 2694 01f3 31       		.uleb128 0x31
 2695 01f4 13       		.uleb128 0x13
 2696 01f5 52       		.uleb128 0x52
 2697 01f6 01       		.uleb128 0x1
 2698 01f7 55       		.uleb128 0x55
 2699 01f8 17       		.uleb128 0x17
 2700 01f9 58       		.uleb128 0x58
 2701 01fa 0B       		.uleb128 0xb
 2702 01fb 59       		.uleb128 0x59
 2703 01fc 0B       		.uleb128 0xb
 2704 01fd 00       		.byte	0
 2705 01fe 00       		.byte	0
 2706 01ff 28       		.uleb128 0x28
 2707 0200 1D       		.uleb128 0x1d
 2708 0201 01       		.byte	0x1
 2709 0202 31       		.uleb128 0x31
 2710 0203 13       		.uleb128 0x13
 2711 0204 11       		.uleb128 0x11
 2712 0205 01       		.uleb128 0x1
 2713 0206 12       		.uleb128 0x12
 2714 0207 06       		.uleb128 0x6
 2715 0208 58       		.uleb128 0x58
 2716 0209 0B       		.uleb128 0xb
 2717 020a 59       		.uleb128 0x59
 2718 020b 05       		.uleb128 0x5
 2719 020c 01       		.uleb128 0x1
 2720 020d 13       		.uleb128 0x13
 2721 020e 00       		.byte	0
 2722 020f 00       		.byte	0
 2723 0210 29       		.uleb128 0x29
 2724 0211 05       		.uleb128 0x5
 2725 0212 00       		.byte	0
 2726 0213 31       		.uleb128 0x31
 2727 0214 13       		.uleb128 0x13
 2728 0215 00       		.byte	0
 2729 0216 00       		.byte	0
 2730 0217 2A       		.uleb128 0x2a
 2731 0218 05       		.uleb128 0x5
 2732 0219 00       		.byte	0
 2733 021a 31       		.uleb128 0x31
 2734 021b 13       		.uleb128 0x13
 2735 021c 02       		.uleb128 0x2
 2736 021d 17       		.uleb128 0x17
ARM GAS  /tmp/cciMLgRf.s 			page 49


 2737 021e 00       		.byte	0
 2738 021f 00       		.byte	0
 2739 0220 2B       		.uleb128 0x2b
 2740 0221 1D       		.uleb128 0x1d
 2741 0222 01       		.byte	0x1
 2742 0223 31       		.uleb128 0x31
 2743 0224 13       		.uleb128 0x13
 2744 0225 52       		.uleb128 0x52
 2745 0226 01       		.uleb128 0x1
 2746 0227 55       		.uleb128 0x55
 2747 0228 17       		.uleb128 0x17
 2748 0229 58       		.uleb128 0x58
 2749 022a 0B       		.uleb128 0xb
 2750 022b 59       		.uleb128 0x59
 2751 022c 05       		.uleb128 0x5
 2752 022d 00       		.byte	0
 2753 022e 00       		.byte	0
 2754 022f 2C       		.uleb128 0x2c
 2755 0230 05       		.uleb128 0x5
 2756 0231 00       		.byte	0
 2757 0232 03       		.uleb128 0x3
 2758 0233 0E       		.uleb128 0xe
 2759 0234 3A       		.uleb128 0x3a
 2760 0235 0B       		.uleb128 0xb
 2761 0236 3B       		.uleb128 0x3b
 2762 0237 0B       		.uleb128 0xb
 2763 0238 49       		.uleb128 0x49
 2764 0239 13       		.uleb128 0x13
 2765 023a 02       		.uleb128 0x2
 2766 023b 17       		.uleb128 0x17
 2767 023c 00       		.byte	0
 2768 023d 00       		.byte	0
 2769 023e 2D       		.uleb128 0x2d
 2770 023f 34       		.uleb128 0x34
 2771 0240 00       		.byte	0
 2772 0241 03       		.uleb128 0x3
 2773 0242 08       		.uleb128 0x8
 2774 0243 3A       		.uleb128 0x3a
 2775 0244 0B       		.uleb128 0xb
 2776 0245 3B       		.uleb128 0x3b
 2777 0246 0B       		.uleb128 0xb
 2778 0247 49       		.uleb128 0x49
 2779 0248 13       		.uleb128 0x13
 2780 0249 02       		.uleb128 0x2
 2781 024a 17       		.uleb128 0x17
 2782 024b 00       		.byte	0
 2783 024c 00       		.byte	0
 2784 024d 2E       		.uleb128 0x2e
 2785 024e 0B       		.uleb128 0xb
 2786 024f 01       		.byte	0x1
 2787 0250 55       		.uleb128 0x55
 2788 0251 17       		.uleb128 0x17
 2789 0252 00       		.byte	0
 2790 0253 00       		.byte	0
 2791 0254 2F       		.uleb128 0x2f
 2792 0255 34       		.uleb128 0x34
 2793 0256 00       		.byte	0
ARM GAS  /tmp/cciMLgRf.s 			page 50


 2794 0257 03       		.uleb128 0x3
 2795 0258 08       		.uleb128 0x8
 2796 0259 3A       		.uleb128 0x3a
 2797 025a 0B       		.uleb128 0xb
 2798 025b 3B       		.uleb128 0x3b
 2799 025c 0B       		.uleb128 0xb
 2800 025d 49       		.uleb128 0x49
 2801 025e 13       		.uleb128 0x13
 2802 025f 00       		.byte	0
 2803 0260 00       		.byte	0
 2804 0261 30       		.uleb128 0x30
 2805 0262 0B       		.uleb128 0xb
 2806 0263 01       		.byte	0x1
 2807 0264 11       		.uleb128 0x11
 2808 0265 01       		.uleb128 0x1
 2809 0266 12       		.uleb128 0x12
 2810 0267 06       		.uleb128 0x6
 2811 0268 01       		.uleb128 0x1
 2812 0269 13       		.uleb128 0x13
 2813 026a 00       		.byte	0
 2814 026b 00       		.byte	0
 2815 026c 31       		.uleb128 0x31
 2816 026d 1D       		.uleb128 0x1d
 2817 026e 01       		.byte	0x1
 2818 026f 31       		.uleb128 0x31
 2819 0270 13       		.uleb128 0x13
 2820 0271 11       		.uleb128 0x11
 2821 0272 01       		.uleb128 0x1
 2822 0273 12       		.uleb128 0x12
 2823 0274 06       		.uleb128 0x6
 2824 0275 58       		.uleb128 0x58
 2825 0276 0B       		.uleb128 0xb
 2826 0277 59       		.uleb128 0x59
 2827 0278 0B       		.uleb128 0xb
 2828 0279 00       		.byte	0
 2829 027a 00       		.byte	0
 2830 027b 32       		.uleb128 0x32
 2831 027c 898201   		.uleb128 0x4109
 2832 027f 00       		.byte	0
 2833 0280 11       		.uleb128 0x11
 2834 0281 01       		.uleb128 0x1
 2835 0282 31       		.uleb128 0x31
 2836 0283 13       		.uleb128 0x13
 2837 0284 00       		.byte	0
 2838 0285 00       		.byte	0
 2839 0286 33       		.uleb128 0x33
 2840 0287 1D       		.uleb128 0x1d
 2841 0288 01       		.byte	0x1
 2842 0289 31       		.uleb128 0x31
 2843 028a 13       		.uleb128 0x13
 2844 028b 52       		.uleb128 0x52
 2845 028c 01       		.uleb128 0x1
 2846 028d 55       		.uleb128 0x55
 2847 028e 17       		.uleb128 0x17
 2848 028f 58       		.uleb128 0x58
 2849 0290 0B       		.uleb128 0xb
 2850 0291 59       		.uleb128 0x59
ARM GAS  /tmp/cciMLgRf.s 			page 51


 2851 0292 0B       		.uleb128 0xb
 2852 0293 01       		.uleb128 0x1
 2853 0294 13       		.uleb128 0x13
 2854 0295 00       		.byte	0
 2855 0296 00       		.byte	0
 2856 0297 34       		.uleb128 0x34
 2857 0298 2E       		.uleb128 0x2e
 2858 0299 00       		.byte	0
 2859 029a 3F       		.uleb128 0x3f
 2860 029b 19       		.uleb128 0x19
 2861 029c 03       		.uleb128 0x3
 2862 029d 0E       		.uleb128 0xe
 2863 029e 3A       		.uleb128 0x3a
 2864 029f 0B       		.uleb128 0xb
 2865 02a0 3B       		.uleb128 0x3b
 2866 02a1 0B       		.uleb128 0xb
 2867 02a2 27       		.uleb128 0x27
 2868 02a3 19       		.uleb128 0x19
 2869 02a4 11       		.uleb128 0x11
 2870 02a5 01       		.uleb128 0x1
 2871 02a6 12       		.uleb128 0x12
 2872 02a7 06       		.uleb128 0x6
 2873 02a8 40       		.uleb128 0x40
 2874 02a9 18       		.uleb128 0x18
 2875 02aa 9742     		.uleb128 0x2117
 2876 02ac 19       		.uleb128 0x19
 2877 02ad 00       		.byte	0
 2878 02ae 00       		.byte	0
 2879 02af 35       		.uleb128 0x35
 2880 02b0 2E       		.uleb128 0x2e
 2881 02b1 00       		.byte	0
 2882 02b2 03       		.uleb128 0x3
 2883 02b3 0E       		.uleb128 0xe
 2884 02b4 3A       		.uleb128 0x3a
 2885 02b5 0B       		.uleb128 0xb
 2886 02b6 3B       		.uleb128 0x3b
 2887 02b7 0B       		.uleb128 0xb
 2888 02b8 27       		.uleb128 0x27
 2889 02b9 19       		.uleb128 0x19
 2890 02ba 49       		.uleb128 0x49
 2891 02bb 13       		.uleb128 0x13
 2892 02bc 20       		.uleb128 0x20
 2893 02bd 0B       		.uleb128 0xb
 2894 02be 00       		.byte	0
 2895 02bf 00       		.byte	0
 2896 02c0 36       		.uleb128 0x36
 2897 02c1 2E       		.uleb128 0x2e
 2898 02c2 01       		.byte	0x1
 2899 02c3 03       		.uleb128 0x3
 2900 02c4 0E       		.uleb128 0xe
 2901 02c5 3A       		.uleb128 0x3a
 2902 02c6 0B       		.uleb128 0xb
 2903 02c7 3B       		.uleb128 0x3b
 2904 02c8 0B       		.uleb128 0xb
 2905 02c9 27       		.uleb128 0x27
 2906 02ca 19       		.uleb128 0x19
 2907 02cb 20       		.uleb128 0x20
ARM GAS  /tmp/cciMLgRf.s 			page 52


 2908 02cc 0B       		.uleb128 0xb
 2909 02cd 01       		.uleb128 0x1
 2910 02ce 13       		.uleb128 0x13
 2911 02cf 00       		.byte	0
 2912 02d0 00       		.byte	0
 2913 02d1 37       		.uleb128 0x37
 2914 02d2 05       		.uleb128 0x5
 2915 02d3 00       		.byte	0
 2916 02d4 03       		.uleb128 0x3
 2917 02d5 0E       		.uleb128 0xe
 2918 02d6 3A       		.uleb128 0x3a
 2919 02d7 0B       		.uleb128 0xb
 2920 02d8 3B       		.uleb128 0x3b
 2921 02d9 0B       		.uleb128 0xb
 2922 02da 49       		.uleb128 0x49
 2923 02db 13       		.uleb128 0x13
 2924 02dc 00       		.byte	0
 2925 02dd 00       		.byte	0
 2926 02de 38       		.uleb128 0x38
 2927 02df 2E       		.uleb128 0x2e
 2928 02e0 00       		.byte	0
 2929 02e1 03       		.uleb128 0x3
 2930 02e2 0E       		.uleb128 0xe
 2931 02e3 3A       		.uleb128 0x3a
 2932 02e4 0B       		.uleb128 0xb
 2933 02e5 3B       		.uleb128 0x3b
 2934 02e6 0B       		.uleb128 0xb
 2935 02e7 27       		.uleb128 0x27
 2936 02e8 19       		.uleb128 0x19
 2937 02e9 20       		.uleb128 0x20
 2938 02ea 0B       		.uleb128 0xb
 2939 02eb 00       		.byte	0
 2940 02ec 00       		.byte	0
 2941 02ed 39       		.uleb128 0x39
 2942 02ee 2E       		.uleb128 0x2e
 2943 02ef 01       		.byte	0x1
 2944 02f0 03       		.uleb128 0x3
 2945 02f1 0E       		.uleb128 0xe
 2946 02f2 3A       		.uleb128 0x3a
 2947 02f3 0B       		.uleb128 0xb
 2948 02f4 3B       		.uleb128 0x3b
 2949 02f5 05       		.uleb128 0x5
 2950 02f6 27       		.uleb128 0x27
 2951 02f7 19       		.uleb128 0x19
 2952 02f8 49       		.uleb128 0x49
 2953 02f9 13       		.uleb128 0x13
 2954 02fa 20       		.uleb128 0x20
 2955 02fb 0B       		.uleb128 0xb
 2956 02fc 01       		.uleb128 0x1
 2957 02fd 13       		.uleb128 0x13
 2958 02fe 00       		.byte	0
 2959 02ff 00       		.byte	0
 2960 0300 3A       		.uleb128 0x3a
 2961 0301 05       		.uleb128 0x5
 2962 0302 00       		.byte	0
 2963 0303 03       		.uleb128 0x3
 2964 0304 0E       		.uleb128 0xe
ARM GAS  /tmp/cciMLgRf.s 			page 53


 2965 0305 3A       		.uleb128 0x3a
 2966 0306 0B       		.uleb128 0xb
 2967 0307 3B       		.uleb128 0x3b
 2968 0308 05       		.uleb128 0x5
 2969 0309 49       		.uleb128 0x49
 2970 030a 13       		.uleb128 0x13
 2971 030b 00       		.byte	0
 2972 030c 00       		.byte	0
 2973 030d 3B       		.uleb128 0x3b
 2974 030e 05       		.uleb128 0x5
 2975 030f 00       		.byte	0
 2976 0310 03       		.uleb128 0x3
 2977 0311 08       		.uleb128 0x8
 2978 0312 3A       		.uleb128 0x3a
 2979 0313 0B       		.uleb128 0xb
 2980 0314 3B       		.uleb128 0x3b
 2981 0315 05       		.uleb128 0x5
 2982 0316 49       		.uleb128 0x49
 2983 0317 13       		.uleb128 0x13
 2984 0318 00       		.byte	0
 2985 0319 00       		.byte	0
 2986 031a 3C       		.uleb128 0x3c
 2987 031b 2E       		.uleb128 0x2e
 2988 031c 00       		.byte	0
 2989 031d 3F       		.uleb128 0x3f
 2990 031e 19       		.uleb128 0x19
 2991 031f 3C       		.uleb128 0x3c
 2992 0320 19       		.uleb128 0x19
 2993 0321 6E       		.uleb128 0x6e
 2994 0322 0E       		.uleb128 0xe
 2995 0323 03       		.uleb128 0x3
 2996 0324 0E       		.uleb128 0xe
 2997 0325 3A       		.uleb128 0x3a
 2998 0326 0B       		.uleb128 0xb
 2999 0327 3B       		.uleb128 0x3b
 3000 0328 0B       		.uleb128 0xb
 3001 0329 00       		.byte	0
 3002 032a 00       		.byte	0
 3003 032b 00       		.byte	0
 3004              		.section	.debug_loc,"",%progbits
 3005              	.Ldebug_loc0:
 3006              	.LLST9:
 3007 0000 00000000 		.4byte	.LVL17
 3008 0004 2A000000 		.4byte	.LVL18
 3009 0008 0100     		.2byte	0x1
 3010 000a 50       		.byte	0x50
 3011 000b 2A000000 		.4byte	.LVL18
 3012 000f 30000000 		.4byte	.LVL19
 3013 0013 0400     		.2byte	0x4
 3014 0015 F3       		.byte	0xf3
 3015 0016 01       		.uleb128 0x1
 3016 0017 50       		.byte	0x50
 3017 0018 9F       		.byte	0x9f
 3018 0019 30000000 		.4byte	.LVL19
 3019 001d 36000000 		.4byte	.LVL20
 3020 0021 0100     		.2byte	0x1
 3021 0023 50       		.byte	0x50
ARM GAS  /tmp/cciMLgRf.s 			page 54


 3022 0024 36000000 		.4byte	.LVL20
 3023 0028 74000000 		.4byte	.LFE292
 3024 002c 0400     		.2byte	0x4
 3025 002e F3       		.byte	0xf3
 3026 002f 01       		.uleb128 0x1
 3027 0030 50       		.byte	0x50
 3028 0031 9F       		.byte	0x9f
 3029 0032 00000000 		.4byte	0
 3030 0036 00000000 		.4byte	0
 3031              	.LLST10:
 3032 003a 5A000000 		.4byte	.LVL24
 3033 003e 5C000000 		.4byte	.LVL25
 3034 0042 0600     		.2byte	0x6
 3035 0044 73       		.byte	0x73
 3036 0045 00       		.sleb128 0
 3037 0046 72       		.byte	0x72
 3038 0047 00       		.sleb128 0
 3039 0048 1C       		.byte	0x1c
 3040 0049 9F       		.byte	0x9f
 3041 004a 5C000000 		.4byte	.LVL25
 3042 004e 62000000 		.4byte	.LVL26
 3043 0052 0100     		.2byte	0x1
 3044 0054 51       		.byte	0x51
 3045 0055 62000000 		.4byte	.LVL26
 3046 0059 6B000000 		.4byte	.LVL27-1
 3047 005d 0100     		.2byte	0x1
 3048 005f 53       		.byte	0x53
 3049 0060 00000000 		.4byte	0
 3050 0064 00000000 		.4byte	0
 3051              	.LLST11:
 3052 0068 54000000 		.4byte	.LVL22
 3053 006c 56000000 		.4byte	.LVL23
 3054 0070 0100     		.2byte	0x1
 3055 0072 50       		.byte	0x50
 3056 0073 00000000 		.4byte	0
 3057 0077 00000000 		.4byte	0
 3058              	.LLST0:
 3059 007b 00000000 		.4byte	.LVL0
 3060 007f 2E000000 		.4byte	.LVL4
 3061 0083 0100     		.2byte	0x1
 3062 0085 50       		.byte	0x50
 3063 0086 2E000000 		.4byte	.LVL4
 3064 008a 32000000 		.4byte	.LVL5
 3065 008e 0100     		.2byte	0x1
 3066 0090 56       		.byte	0x56
 3067 0091 32000000 		.4byte	.LVL5
 3068 0095 35000000 		.4byte	.LVL6-1
 3069 0099 0200     		.2byte	0x2
 3070 009b 72       		.byte	0x72
 3071 009c 00       		.sleb128 0
 3072 009d 35000000 		.4byte	.LVL6-1
 3073 00a1 36000000 		.4byte	.LVL6
 3074 00a5 0400     		.2byte	0x4
 3075 00a7 F3       		.byte	0xf3
 3076 00a8 01       		.uleb128 0x1
 3077 00a9 50       		.byte	0x50
 3078 00aa 9F       		.byte	0x9f
ARM GAS  /tmp/cciMLgRf.s 			page 55


 3079 00ab 36000000 		.4byte	.LVL6
 3080 00af 38000000 		.4byte	.LVL7
 3081 00b3 0100     		.2byte	0x1
 3082 00b5 50       		.byte	0x50
 3083 00b6 38000000 		.4byte	.LVL7
 3084 00ba 70000000 		.4byte	.LVL16
 3085 00be 0100     		.2byte	0x1
 3086 00c0 56       		.byte	0x56
 3087 00c1 70000000 		.4byte	.LVL16
 3088 00c5 78000000 		.4byte	.LFE291
 3089 00c9 0400     		.2byte	0x4
 3090 00cb F3       		.byte	0xf3
 3091 00cc 01       		.uleb128 0x1
 3092 00cd 50       		.byte	0x50
 3093 00ce 9F       		.byte	0x9f
 3094 00cf 00000000 		.4byte	0
 3095 00d3 00000000 		.4byte	0
 3096              	.LLST1:
 3097 00d7 00000000 		.4byte	.LVL0
 3098 00db 18000000 		.4byte	.LVL3
 3099 00df 0100     		.2byte	0x1
 3100 00e1 51       		.byte	0x51
 3101 00e2 18000000 		.4byte	.LVL3
 3102 00e6 35000000 		.4byte	.LVL6-1
 3103 00ea 0100     		.2byte	0x1
 3104 00ec 51       		.byte	0x51
 3105 00ed 35000000 		.4byte	.LVL6-1
 3106 00f1 36000000 		.4byte	.LVL6
 3107 00f5 1700     		.2byte	0x17
 3108 00f7 32       		.byte	0x32
 3109 00f8 F3       		.byte	0xf3
 3110 00f9 01       		.uleb128 0x1
 3111 00fa 51       		.byte	0x51
 3112 00fb F3       		.byte	0xf3
 3113 00fc 01       		.uleb128 0x1
 3114 00fd 51       		.byte	0x51
 3115 00fe 40       		.byte	0x40
 3116 00ff 4B       		.byte	0x4b
 3117 0100 24       		.byte	0x24
 3118 0101 22       		.byte	0x22
 3119 0102 0C       		.byte	0xc
 3120 0103 02000080 		.4byte	0x80000002
 3121 0107 2D       		.byte	0x2d
 3122 0108 28       		.byte	0x28
 3123 0109 0100     		.2byte	0x1
 3124 010b 16       		.byte	0x16
 3125 010c 13       		.byte	0x13
 3126 010d 9F       		.byte	0x9f
 3127 010e 36000000 		.4byte	.LVL6
 3128 0112 40000000 		.4byte	.LVL10
 3129 0116 0100     		.2byte	0x1
 3130 0118 51       		.byte	0x51
 3131 0119 40000000 		.4byte	.LVL10
 3132 011d 46000000 		.4byte	.LVL13
 3133 0121 1700     		.2byte	0x17
 3134 0123 32       		.byte	0x32
 3135 0124 F3       		.byte	0xf3
ARM GAS  /tmp/cciMLgRf.s 			page 56


 3136 0125 01       		.uleb128 0x1
 3137 0126 51       		.byte	0x51
 3138 0127 F3       		.byte	0xf3
 3139 0128 01       		.uleb128 0x1
 3140 0129 51       		.byte	0x51
 3141 012a 40       		.byte	0x40
 3142 012b 4B       		.byte	0x4b
 3143 012c 24       		.byte	0x24
 3144 012d 22       		.byte	0x22
 3145 012e 0C       		.byte	0xc
 3146 012f 02000080 		.4byte	0x80000002
 3147 0133 2D       		.byte	0x2d
 3148 0134 28       		.byte	0x28
 3149 0135 0100     		.2byte	0x1
 3150 0137 16       		.byte	0x16
 3151 0138 13       		.byte	0x13
 3152 0139 9F       		.byte	0x9f
 3153 013a 46000000 		.4byte	.LVL13
 3154 013e 4F000000 		.4byte	.LVL15-1
 3155 0142 0100     		.2byte	0x1
 3156 0144 51       		.byte	0x51
 3157 0145 4F000000 		.4byte	.LVL15-1
 3158 0149 78000000 		.4byte	.LFE291
 3159 014d 1700     		.2byte	0x17
 3160 014f 32       		.byte	0x32
 3161 0150 F3       		.byte	0xf3
 3162 0151 01       		.uleb128 0x1
 3163 0152 51       		.byte	0x51
 3164 0153 F3       		.byte	0xf3
 3165 0154 01       		.uleb128 0x1
 3166 0155 51       		.byte	0x51
 3167 0156 40       		.byte	0x40
 3168 0157 4B       		.byte	0x4b
 3169 0158 24       		.byte	0x24
 3170 0159 22       		.byte	0x22
 3171 015a 0C       		.byte	0xc
 3172 015b 02000080 		.4byte	0x80000002
 3173 015f 2D       		.byte	0x2d
 3174 0160 28       		.byte	0x28
 3175 0161 0100     		.2byte	0x1
 3176 0163 16       		.byte	0x16
 3177 0164 13       		.byte	0x13
 3178 0165 9F       		.byte	0x9f
 3179 0166 00000000 		.4byte	0
 3180 016a 00000000 		.4byte	0
 3181              	.LLST2:
 3182 016e 00000000 		.4byte	.LVL0
 3183 0172 0E000000 		.4byte	.LVL2
 3184 0176 0100     		.2byte	0x1
 3185 0178 52       		.byte	0x52
 3186 0179 0E000000 		.4byte	.LVL2
 3187 017d 2E000000 		.4byte	.LVL4
 3188 0181 0200     		.2byte	0x2
 3189 0183 70       		.byte	0x70
 3190 0184 0C       		.sleb128 12
 3191 0185 2E000000 		.4byte	.LVL4
 3192 0189 32000000 		.4byte	.LVL5
ARM GAS  /tmp/cciMLgRf.s 			page 57


 3193 018d 0200     		.2byte	0x2
 3194 018f 76       		.byte	0x76
 3195 0190 0C       		.sleb128 12
 3196 0191 32000000 		.4byte	.LVL5
 3197 0195 35000000 		.4byte	.LVL6-1
 3198 0199 0500     		.2byte	0x5
 3199 019b 72       		.byte	0x72
 3200 019c 00       		.sleb128 0
 3201 019d 06       		.byte	0x6
 3202 019e 23       		.byte	0x23
 3203 019f 0C       		.uleb128 0xc
 3204 01a0 35000000 		.4byte	.LVL6-1
 3205 01a4 36000000 		.4byte	.LVL6
 3206 01a8 0400     		.2byte	0x4
 3207 01aa F3       		.byte	0xf3
 3208 01ab 01       		.uleb128 0x1
 3209 01ac 52       		.byte	0x52
 3210 01ad 9F       		.byte	0x9f
 3211 01ae 36000000 		.4byte	.LVL6
 3212 01b2 38000000 		.4byte	.LVL7
 3213 01b6 0200     		.2byte	0x2
 3214 01b8 70       		.byte	0x70
 3215 01b9 0C       		.sleb128 12
 3216 01ba 38000000 		.4byte	.LVL7
 3217 01be 40000000 		.4byte	.LVL10
 3218 01c2 0200     		.2byte	0x2
 3219 01c4 76       		.byte	0x76
 3220 01c5 0C       		.sleb128 12
 3221 01c6 40000000 		.4byte	.LVL10
 3222 01ca 46000000 		.4byte	.LVL13
 3223 01ce 0400     		.2byte	0x4
 3224 01d0 F3       		.byte	0xf3
 3225 01d1 01       		.uleb128 0x1
 3226 01d2 52       		.byte	0x52
 3227 01d3 9F       		.byte	0x9f
 3228 01d4 46000000 		.4byte	.LVL13
 3229 01d8 4F000000 		.4byte	.LVL15-1
 3230 01dc 0200     		.2byte	0x2
 3231 01de 76       		.byte	0x76
 3232 01df 0C       		.sleb128 12
 3233 01e0 4F000000 		.4byte	.LVL15-1
 3234 01e4 78000000 		.4byte	.LFE291
 3235 01e8 0400     		.2byte	0x4
 3236 01ea F3       		.byte	0xf3
 3237 01eb 01       		.uleb128 0x1
 3238 01ec 52       		.byte	0x52
 3239 01ed 9F       		.byte	0x9f
 3240 01ee 00000000 		.4byte	0
 3241 01f2 00000000 		.4byte	0
 3242              	.LLST3:
 3243 01f6 00000000 		.4byte	.LVL0
 3244 01fa 06000000 		.4byte	.LVL1
 3245 01fe 0100     		.2byte	0x1
 3246 0200 53       		.byte	0x53
 3247 0201 06000000 		.4byte	.LVL1
 3248 0205 2E000000 		.4byte	.LVL4
 3249 0209 0200     		.2byte	0x2
ARM GAS  /tmp/cciMLgRf.s 			page 58


 3250 020b 70       		.byte	0x70
 3251 020c 10       		.sleb128 16
 3252 020d 2E000000 		.4byte	.LVL4
 3253 0211 32000000 		.4byte	.LVL5
 3254 0215 0200     		.2byte	0x2
 3255 0217 76       		.byte	0x76
 3256 0218 10       		.sleb128 16
 3257 0219 32000000 		.4byte	.LVL5
 3258 021d 35000000 		.4byte	.LVL6-1
 3259 0221 0500     		.2byte	0x5
 3260 0223 72       		.byte	0x72
 3261 0224 00       		.sleb128 0
 3262 0225 06       		.byte	0x6
 3263 0226 23       		.byte	0x23
 3264 0227 10       		.uleb128 0x10
 3265 0228 35000000 		.4byte	.LVL6-1
 3266 022c 36000000 		.4byte	.LVL6
 3267 0230 0400     		.2byte	0x4
 3268 0232 F3       		.byte	0xf3
 3269 0233 01       		.uleb128 0x1
 3270 0234 53       		.byte	0x53
 3271 0235 9F       		.byte	0x9f
 3272 0236 36000000 		.4byte	.LVL6
 3273 023a 38000000 		.4byte	.LVL7
 3274 023e 0200     		.2byte	0x2
 3275 0240 70       		.byte	0x70
 3276 0241 10       		.sleb128 16
 3277 0242 38000000 		.4byte	.LVL7
 3278 0246 40000000 		.4byte	.LVL10
 3279 024a 0200     		.2byte	0x2
 3280 024c 76       		.byte	0x76
 3281 024d 10       		.sleb128 16
 3282 024e 40000000 		.4byte	.LVL10
 3283 0252 46000000 		.4byte	.LVL13
 3284 0256 0400     		.2byte	0x4
 3285 0258 F3       		.byte	0xf3
 3286 0259 01       		.uleb128 0x1
 3287 025a 53       		.byte	0x53
 3288 025b 9F       		.byte	0x9f
 3289 025c 46000000 		.4byte	.LVL13
 3290 0260 4F000000 		.4byte	.LVL15-1
 3291 0264 0200     		.2byte	0x2
 3292 0266 76       		.byte	0x76
 3293 0267 10       		.sleb128 16
 3294 0268 4F000000 		.4byte	.LVL15-1
 3295 026c 78000000 		.4byte	.LFE291
 3296 0270 0400     		.2byte	0x4
 3297 0272 F3       		.byte	0xf3
 3298 0273 01       		.uleb128 0x1
 3299 0274 53       		.byte	0x53
 3300 0275 9F       		.byte	0x9f
 3301 0276 00000000 		.4byte	0
 3302 027a 00000000 		.4byte	0
 3303              	.LLST4:
 3304 027e 36000000 		.4byte	.LVL6
 3305 0282 70000000 		.4byte	.LVL16
 3306 0286 0100     		.2byte	0x1
ARM GAS  /tmp/cciMLgRf.s 			page 59


 3307 0288 55       		.byte	0x55
 3308 0289 00000000 		.4byte	0
 3309 028d 00000000 		.4byte	0
 3310              	.LLST5:
 3311 0291 3C000000 		.4byte	.LVL8
 3312 0295 3E000000 		.4byte	.LVL9
 3313 0299 0600     		.2byte	0x6
 3314 029b 71       		.byte	0x71
 3315 029c 00       		.sleb128 0
 3316 029d 74       		.byte	0x74
 3317 029e 00       		.sleb128 0
 3318 029f 22       		.byte	0x22
 3319 02a0 9F       		.byte	0x9f
 3320 02a1 3E000000 		.4byte	.LVL9
 3321 02a5 70000000 		.4byte	.LVL16
 3322 02a9 0100     		.2byte	0x1
 3323 02ab 54       		.byte	0x54
 3324 02ac 00000000 		.4byte	0
 3325 02b0 00000000 		.4byte	0
 3326              	.LLST8:
 3327 02b4 4A000000 		.4byte	.LVL14
 3328 02b8 50000000 		.4byte	.LVL15
 3329 02bc 0100     		.2byte	0x1
 3330 02be 54       		.byte	0x54
 3331 02bf 00000000 		.4byte	0
 3332 02c3 00000000 		.4byte	0
 3333              	.LLST6:
 3334 02c7 38000000 		.4byte	.LVL7
 3335 02cb 3C000000 		.4byte	.LVL8
 3336 02cf 0100     		.2byte	0x1
 3337 02d1 54       		.byte	0x54
 3338 02d2 00000000 		.4byte	0
 3339 02d6 00000000 		.4byte	0
 3340              	.LLST7:
 3341 02da 38000000 		.4byte	.LVL7
 3342 02de 3C000000 		.4byte	.LVL8
 3343 02e2 0100     		.2byte	0x1
 3344 02e4 50       		.byte	0x50
 3345 02e5 00000000 		.4byte	0
 3346 02e9 00000000 		.4byte	0
 3347              		.section	.debug_aranges,"",%progbits
 3348 0000 2C000000 		.4byte	0x2c
 3349 0004 0200     		.2byte	0x2
 3350 0006 00000000 		.4byte	.Ldebug_info0
 3351 000a 04       		.byte	0x4
 3352 000b 00       		.byte	0
 3353 000c 0000     		.2byte	0
 3354 000e 0000     		.2byte	0
 3355 0010 00000000 		.4byte	.LFB290
 3356 0014 1C000000 		.4byte	.LFE290-.LFB290
 3357 0018 00000000 		.4byte	.LFB291
 3358 001c 78000000 		.4byte	.LFE291-.LFB291
 3359 0020 00000000 		.4byte	.LFB292
 3360 0024 74000000 		.4byte	.LFE292-.LFB292
 3361 0028 00000000 		.4byte	0
 3362 002c 00000000 		.4byte	0
 3363              		.section	.debug_ranges,"",%progbits
ARM GAS  /tmp/cciMLgRf.s 			page 60


 3364              	.Ldebug_ranges0:
 3365 0000 04000000 		.4byte	.LBB40
 3366 0004 06000000 		.4byte	.LBE40
 3367 0008 08000000 		.4byte	.LBB58
 3368 000c 1A000000 		.4byte	.LBE58
 3369 0010 1E000000 		.4byte	.LBB59
 3370 0014 2E000000 		.4byte	.LBE59
 3371 0018 32000000 		.4byte	.LBB60
 3372 001c 40000000 		.4byte	.LBE60
 3373 0020 46000000 		.4byte	.LBB61
 3374 0024 50000000 		.4byte	.LBE61
 3375 0028 00000000 		.4byte	0
 3376 002c 00000000 		.4byte	0
 3377 0030 04000000 		.4byte	.LBB41
 3378 0034 06000000 		.4byte	.LBE41
 3379 0038 08000000 		.4byte	.LBB48
 3380 003c 0A000000 		.4byte	.LBE48
 3381 0040 00000000 		.4byte	0
 3382 0044 00000000 		.4byte	0
 3383 0048 2C000000 		.4byte	.LBB49
 3384 004c 2E000000 		.4byte	.LBE49
 3385 0050 32000000 		.4byte	.LBB52
 3386 0054 36000000 		.4byte	.LBE52
 3387 0058 00000000 		.4byte	0
 3388 005c 00000000 		.4byte	0
 3389 0060 4E000000 		.4byte	.LBB64
 3390 0064 50000000 		.4byte	.LBE64
 3391 0068 52000000 		.4byte	.LBB71
 3392 006c 54000000 		.4byte	.LBE71
 3393 0070 00000000 		.4byte	0
 3394 0074 00000000 		.4byte	0
 3395 0078 62000000 		.4byte	.LBB74
 3396 007c 64000000 		.4byte	.LBE74
 3397 0080 68000000 		.4byte	.LBB77
 3398 0084 74000000 		.4byte	.LBE77
 3399 0088 00000000 		.4byte	0
 3400 008c 00000000 		.4byte	0
 3401 0090 00000000 		.4byte	.LFB290
 3402 0094 1C000000 		.4byte	.LFE290
 3403 0098 00000000 		.4byte	.LFB291
 3404 009c 78000000 		.4byte	.LFE291
 3405 00a0 00000000 		.4byte	.LFB292
 3406 00a4 74000000 		.4byte	.LFE292
 3407 00a8 00000000 		.4byte	0
 3408 00ac 00000000 		.4byte	0
 3409              		.section	.debug_line,"",%progbits
 3410              	.Ldebug_line0:
 3411 0000 CC040000 		.section	.debug_str,"MS",%progbits,1
 3411      0200DA03 
 3411      00000201 
 3411      FB0E0D00 
 3411      01010101 
 3412              	.LASF54:
 3413 0000 72656164 		.ascii	"ready_list_t\000"
 3413      795F6C69 
 3413      73745F74 
 3413      00
ARM GAS  /tmp/cciMLgRf.s 			page 61


 3414              	.LASF85:
 3415 000d 44494552 		.ascii	"DIER\000"
 3415      00
 3416              	.LASF4:
 3417 0012 73697A65 		.ascii	"size_t\000"
 3417      5F7400
 3418              	.LASF50:
 3419 0019 6E657874 		.ascii	"next\000"
 3419      00
 3420              	.LASF60:
 3421 001e 64656C74 		.ascii	"delta\000"
 3421      6100
 3422              	.LASF96:
 3423 0024 7264796D 		.ascii	"rdymsg\000"
 3423      736700
 3424              	.LASF20:
 3425 002b 75696E74 		.ascii	"uint64_t\000"
 3425      36345F74 
 3425      00
 3426              	.LASF27:
 3427 0034 6576656E 		.ascii	"eventmask_t\000"
 3427      746D6173 
 3427      6B5F7400 
 3428              	.LASF5:
 3429 0040 5F5F7569 		.ascii	"__uint8_t\000"
 3429      6E74385F 
 3429      7400
 3430              	.LASF26:
 3431 004a 6D73675F 		.ascii	"msg_t\000"
 3431      7400
 3432              	.LASF53:
 3433 0050 70726576 		.ascii	"prev\000"
 3433      00
 3434              	.LASF83:
 3435 0055 706F7274 		.ascii	"port_intctx\000"
 3435      5F696E74 
 3435      63747800 
 3436              	.LASF65:
 3437 0061 73797374 		.ascii	"system_debug_t\000"
 3437      656D5F64 
 3437      65627567 
 3437      5F7400
 3438              	.LASF87:
 3439 0070 43434D52 		.ascii	"CCMR2\000"
 3439      3200
 3440              	.LASF139:
 3441 0076 70726F76 		.ascii	"provider\000"
 3441      69646572 
 3441      00
 3442              	.LASF149:
 3443 007f 73656D5F 		.ascii	"sem_list\000"
 3443      6C697374 
 3443      00
 3444              	.LASF131:
 3445 0088 6D656D67 		.ascii	"memgetfunc_t\000"
 3445      65746675 
 3445      6E635F74 
ARM GAS  /tmp/cciMLgRf.s 			page 62


 3445      00
 3446              	.LASF15:
 3447 0095 6C6F6E67 		.ascii	"long long unsigned int\000"
 3447      206C6F6E 
 3447      6720756E 
 3447      7369676E 
 3447      65642069 
 3448              	.LASF155:
 3449 00ac 63685654 		.ascii	"chVTDoResetI\000"
 3449      446F5265 
 3449      73657449 
 3449      00
 3450              	.LASF97:
 3451 00b9 65786974 		.ascii	"exitcode\000"
 3451      636F6465 
 3451      00
 3452              	.LASF72:
 3453 00c2 6D61696E 		.ascii	"mainthread\000"
 3453      74687265 
 3453      616400
 3454              	.LASF100:
 3455 00cd 73656E74 		.ascii	"sentmsg\000"
 3455      6D736700 
 3456              	.LASF62:
 3457 00d5 76697274 		.ascii	"virtual_timers_list_t\000"
 3457      75616C5F 
 3457      74696D65 
 3457      72735F6C 
 3457      6973745F 
 3458              	.LASF76:
 3459 00eb 49544D5F 		.ascii	"ITM_RxBuffer\000"
 3459      52784275 
 3459      66666572 
 3459      00
 3460              	.LASF61:
 3461 00f8 66756E63 		.ascii	"func\000"
 3461      00
 3462              	.LASF89:
 3463 00fd 42445452 		.ascii	"BDTR\000"
 3463      00
 3464              	.LASF52:
 3465 0102 63685F74 		.ascii	"ch_threads_queue\000"
 3465      68726561 
 3465      64735F71 
 3465      75657565 
 3465      00
 3466              	.LASF86:
 3467 0113 43434D52 		.ascii	"CCMR1\000"
 3467      3100
 3468              	.LASF179:
 3469 0119 5F76745F 		.ascii	"_vt_init\000"
 3469      696E6974 
 3469      00
 3470              	.LASF91:
 3471 0122 43434D52 		.ascii	"CCMR3\000"
 3471      3300
 3472              	.LASF3:
ARM GAS  /tmp/cciMLgRf.s 			page 63


 3473 0128 7369676E 		.ascii	"signed char\000"
 3473      65642063 
 3473      68617200 
 3474              	.LASF176:
 3475 0134 474E5520 		.ascii	"GNU C11 6.3.1 20170620 (release) [ARM/embedded-6-br"
 3475      43313120 
 3475      362E332E 
 3475      31203230 
 3475      31373036 
 3476 0167 616E6368 		.ascii	"anch revision 249437] -mcpu=cortex-m4 -mfloat-abi=h"
 3476      20726576 
 3476      6973696F 
 3476      6E203234 
 3476      39343337 
 3477 019a 61726420 		.ascii	"ard -mfpu=fpv4-sp-d16 -mno-thumb-interwork -mthumb "
 3477      2D6D6670 
 3477      753D6670 
 3477      76342D73 
 3477      702D6431 
 3478 01cd 2D67202D 		.ascii	"-g -Os -fomit-frame-pointer -falign-functions=16 -f"
 3478      4F73202D 
 3478      666F6D69 
 3478      742D6672 
 3478      616D652D 
 3479 0200 66756E63 		.ascii	"function-sections -fdata-sections -fno-common -fsin"
 3479      74696F6E 
 3479      2D736563 
 3479      74696F6E 
 3479      73202D66 
 3480 0233 676C652D 		.ascii	"gle-precision-constant\000"
 3480      70726563 
 3480      6973696F 
 3480      6E2D636F 
 3480      6E737461 
 3481              	.LASF168:
 3482 024a 73746172 		.ascii	"start\000"
 3482      7400
 3483              	.LASF71:
 3484 0250 76746C69 		.ascii	"vtlist\000"
 3484      737400
 3485              	.LASF41:
 3486 0257 6D736771 		.ascii	"msgqueue\000"
 3486      75657565 
 3486      00
 3487              	.LASF37:
 3488 0260 73746174 		.ascii	"state\000"
 3488      6500
 3489              	.LASF11:
 3490 0266 6C6F6E67 		.ascii	"long int\000"
 3490      20696E74 
 3490      00
 3491              	.LASF22:
 3492 026f 746D6F64 		.ascii	"tmode_t\000"
 3492      655F7400 
 3493              	.LASF23:
 3494 0277 74737461 		.ascii	"tstate_t\000"
 3494      74655F74 
ARM GAS  /tmp/cciMLgRf.s 			page 64


 3494      00
 3495              	.LASF0:
 3496 0280 756E7369 		.ascii	"unsigned int\000"
 3496      676E6564 
 3496      20696E74 
 3496      00
 3497              	.LASF125:
 3498 028d 6F66665F 		.ascii	"off_preempt\000"
 3498      70726565 
 3498      6D707400 
 3499              	.LASF34:
 3500 0299 6F6C6465 		.ascii	"older\000"
 3500      7200
 3501              	.LASF124:
 3502 029f 6F66665F 		.ascii	"off_refs\000"
 3502      72656673 
 3502      00
 3503              	.LASF172:
 3504 02a8 696E7465 		.ascii	"interval\000"
 3504      7276616C 
 3504      00
 3505              	.LASF121:
 3506 02b1 6F66665F 		.ascii	"off_stklimit\000"
 3506      73746B6C 
 3506      696D6974 
 3506      00
 3507              	.LASF12:
 3508 02be 5F5F7569 		.ascii	"__uint32_t\000"
 3508      6E743332 
 3508      5F7400
 3509              	.LASF80:
 3510 02c9 72656761 		.ascii	"regarm_t\000"
 3510      726D5F74 
 3510      00
 3511              	.LASF151:
 3512 02d2 6D62785F 		.ascii	"mbx_list\000"
 3512      6C697374 
 3512      00
 3513              	.LASF66:
 3514 02db 63685F73 		.ascii	"ch_system_debug\000"
 3514      79737465 
 3514      6D5F6465 
 3514      62756700 
 3515              	.LASF40:
 3516 02eb 77616974 		.ascii	"waiting\000"
 3516      696E6700 
 3517              	.LASF70:
 3518 02f3 726C6973 		.ascii	"rlist\000"
 3518      7400
 3519              	.LASF110:
 3520 02f9 7A65726F 		.ascii	"zero\000"
 3520      00
 3521              	.LASF1:
 3522 02fe 6C6F6E67 		.ascii	"long long int\000"
 3522      206C6F6E 
 3522      6720696E 
 3522      7400
ARM GAS  /tmp/cciMLgRf.s 			page 65


 3523              	.LASF138:
 3524 030c 616C6967 		.ascii	"align\000"
 3524      6E00
 3525              	.LASF74:
 3526 0312 73797369 		.ascii	"sysinterval_t\000"
 3526      6E746572 
 3526      76616C5F 
 3526      7400
 3527              	.LASF28:
 3528 0320 636E745F 		.ascii	"cnt_t\000"
 3528      7400
 3529              	.LASF162:
 3530 0326 63685654 		.ascii	"chVTGetSystemTimeX\000"
 3530      47657453 
 3530      79737465 
 3530      6D54696D 
 3530      655800
 3531              	.LASF160:
 3532 0339 6E6F7764 		.ascii	"nowdelta\000"
 3532      656C7461 
 3532      00
 3533              	.LASF161:
 3534 0342 64656164 		.ascii	"deadline_delta\000"
 3534      6C696E65 
 3534      5F64656C 
 3534      746100
 3535              	.LASF17:
 3536 0351 75696E74 		.ascii	"uint16_t\000"
 3536      31365F74 
 3536      00
 3537              	.LASF77:
 3538 035a 53797374 		.ascii	"SystemCoreClock\000"
 3538      656D436F 
 3538      7265436C 
 3538      6F636B00 
 3539              	.LASF101:
 3540 036a 77747365 		.ascii	"wtsemp\000"
 3540      6D7000
 3541              	.LASF99:
 3542 0371 77747472 		.ascii	"wttrp\000"
 3542      7000
 3543              	.LASF128:
 3544 0377 63685F64 		.ascii	"ch_debug\000"
 3544      65627567 
 3544      00
 3545              	.LASF154:
 3546 0380 63685F66 		.ascii	"ch_factory\000"
 3546      6163746F 
 3546      727900
 3547              	.LASF140:
 3548 038b 6D656D6F 		.ascii	"memory_pool_t\000"
 3548      72795F70 
 3548      6F6F6C5F 
 3548      7400
 3549              	.LASF35:
 3550 0399 6E616D65 		.ascii	"name\000"
 3550      00
ARM GAS  /tmp/cciMLgRf.s 			page 66


 3551              	.LASF31:
 3552 039e 71756575 		.ascii	"queue\000"
 3552      6500
 3553              	.LASF45:
 3554 03a4 6D706F6F 		.ascii	"mpool\000"
 3554      6C00
 3555              	.LASF84:
 3556 03aa 534D4352 		.ascii	"SMCR\000"
 3556      00
 3557              	.LASF148:
 3558 03af 6275665F 		.ascii	"buf_list\000"
 3558      6C697374 
 3558      00
 3559              	.LASF48:
 3560 03b8 63685F74 		.ascii	"ch_thread\000"
 3560      68726561 
 3560      6400
 3561              	.LASF165:
 3562 03c2 706F7274 		.ascii	"port_timer_start_alarm\000"
 3562      5F74696D 
 3562      65725F73 
 3562      74617274 
 3562      5F616C61 
 3563              	.LASF29:
 3564 03d9 75636E74 		.ascii	"ucnt_t\000"
 3564      5F7400
 3565              	.LASF42:
 3566 03e0 6570656E 		.ascii	"epending\000"
 3566      64696E67 
 3566      00
 3567              	.LASF144:
 3568 03e9 64796E5F 		.ascii	"dyn_list_t\000"
 3568      6C697374 
 3568      5F7400
 3569              	.LASF68:
 3570 03f4 63685F73 		.ascii	"ch_system_t\000"
 3570      79737465 
 3570      6D5F7400 
 3571              	.LASF117:
 3572 0400 6F66665F 		.ascii	"off_ctx\000"
 3572      63747800 
 3573              	.LASF93:
 3574 0408 73746D33 		.ascii	"stm32_tim_t\000"
 3574      325F7469 
 3574      6D5F7400 
 3575              	.LASF171:
 3576 0414 73797374 		.ascii	"systime\000"
 3576      696D6500 
 3577              	.LASF109:
 3578 041c 6964656E 		.ascii	"identifier\000"
 3578      74696669 
 3578      657200
 3579              	.LASF55:
 3580 0427 63685F72 		.ascii	"ch_ready_list\000"
 3580      65616479 
 3580      5F6C6973 
 3580      7400
ARM GAS  /tmp/cciMLgRf.s 			page 67


 3581              	.LASF156:
 3582 0435 63685654 		.ascii	"chVTDoSetI\000"
 3582      446F5365 
 3582      744900
 3583              	.LASF133:
 3584 0440 656E646D 		.ascii	"endmem\000"
 3584      656D00
 3585              	.LASF10:
 3586 0447 5F5F696E 		.ascii	"__int32_t\000"
 3586      7433325F 
 3586      7400
 3587              	.LASF81:
 3588 0451 73746B61 		.ascii	"stkalign_t\000"
 3588      6C69676E 
 3588      5F7400
 3589              	.LASF33:
 3590 045c 6E657765 		.ascii	"newer\000"
 3590      7200
 3591              	.LASF126:
 3592 0462 6F66665F 		.ascii	"off_time\000"
 3592      74696D65 
 3592      00
 3593              	.LASF44:
 3594 046b 7265616C 		.ascii	"realprio\000"
 3594      7072696F 
 3594      00
 3595              	.LASF112:
 3596 0474 76657273 		.ascii	"version\000"
 3596      696F6E00 
 3597              	.LASF75:
 3598 047c 73697A65 		.ascii	"sizetype\000"
 3598      74797065 
 3598      00
 3599              	.LASF142:
 3600 0485 64796E5F 		.ascii	"dyn_element_t\000"
 3600      656C656D 
 3600      656E745F 
 3600      7400
 3601              	.LASF63:
 3602 0493 63685F76 		.ascii	"ch_virtual_timers_list\000"
 3602      69727475 
 3602      616C5F74 
 3602      696D6572 
 3602      735F6C69 
 3603              	.LASF2:
 3604 04aa 6C6F6E67 		.ascii	"long double\000"
 3604      20646F75 
 3604      626C6500 
 3605              	.LASF143:
 3606 04b6 63685F64 		.ascii	"ch_dyn_list\000"
 3606      796E5F6C 
 3606      69737400 
 3607              	.LASF118:
 3608 04c2 6F66665F 		.ascii	"off_newer\000"
 3608      6E657765 
 3608      7200
 3609              	.LASF79:
ARM GAS  /tmp/cciMLgRf.s 			page 68


 3610 04cc 41504250 		.ascii	"APBPrescTable\000"
 3610      72657363 
 3610      5461626C 
 3610      6500
 3611              	.LASF82:
 3612 04da 706F7274 		.ascii	"port_context\000"
 3612      5F636F6E 
 3612      74657874 
 3612      00
 3613              	.LASF95:
 3614 04e7 746D5F63 		.ascii	"tm_calibration_t\000"
 3614      616C6962 
 3614      72617469 
 3614      6F6E5F74 
 3614      00
 3615              	.LASF177:
 3616 04f8 2E2E2F2E 		.ascii	"../../modules/ChibiOS/os/rt/src/chvt.c\000"
 3616      2E2F6D6F 
 3616      64756C65 
 3616      732F4368 
 3616      6962694F 
 3617              	.LASF166:
 3618 051f 74696D65 		.ascii	"time\000"
 3618      00
 3619              	.LASF32:
 3620 0524 7072696F 		.ascii	"prio\000"
 3620      00
 3621              	.LASF150:
 3622 0529 73656D5F 		.ascii	"sem_pool\000"
 3622      706F6F6C 
 3622      00
 3623              	.LASF56:
 3624 0532 63757272 		.ascii	"current\000"
 3624      656E7400 
 3625              	.LASF170:
 3626 053a 63685469 		.ascii	"chTimeAddX\000"
 3626      6D654164 
 3626      645800
 3627              	.LASF14:
 3628 0545 5F5F7569 		.ascii	"__uint64_t\000"
 3628      6E743634 
 3628      5F7400
 3629              	.LASF134:
 3630 0550 6D656D63 		.ascii	"memcore_t\000"
 3630      6F72655F 
 3630      7400
 3631              	.LASF24:
 3632 055a 74726566 		.ascii	"trefs_t\000"
 3632      735F7400 
 3633              	.LASF127:
 3634 0562 63686465 		.ascii	"chdebug_t\000"
 3634      6275675F 
 3634      7400
 3635              	.LASF39:
 3636 056c 72656673 		.ascii	"refs\000"
 3636      00
 3637              	.LASF58:
ARM GAS  /tmp/cciMLgRf.s 			page 69


 3638 0571 76697274 		.ascii	"virtual_timer_t\000"
 3638      75616C5F 
 3638      74696D65 
 3638      725F7400 
 3639              	.LASF141:
 3640 0581 63685F64 		.ascii	"ch_dyn_element\000"
 3640      796E5F65 
 3640      6C656D65 
 3640      6E7400
 3641              	.LASF25:
 3642 0590 74707269 		.ascii	"tprio_t\000"
 3642      6F5F7400 
 3643              	.LASF115:
 3644 0598 74687265 		.ascii	"threadsize\000"
 3644      61647369 
 3644      7A6500
 3645              	.LASF130:
 3646 05a3 5F426F6F 		.ascii	"_Bool\000"
 3646      6C00
 3647              	.LASF18:
 3648 05a9 696E7433 		.ascii	"int32_t\000"
 3648      325F7400 
 3649              	.LASF6:
 3650 05b1 756E7369 		.ascii	"unsigned char\000"
 3650      676E6564 
 3650      20636861 
 3650      7200
 3651              	.LASF116:
 3652 05bf 6F66665F 		.ascii	"off_prio\000"
 3652      7072696F 
 3652      00
 3653              	.LASF152:
 3654 05c8 6669666F 		.ascii	"fifo_list\000"
 3654      5F6C6973 
 3654      7400
 3655              	.LASF157:
 3656 05d2 64656C61 		.ascii	"delay\000"
 3656      7900
 3657              	.LASF7:
 3658 05d8 73686F72 		.ascii	"short int\000"
 3658      7420696E 
 3658      7400
 3659              	.LASF64:
 3660 05e2 6C617374 		.ascii	"lasttime\000"
 3660      74696D65 
 3660      00
 3661              	.LASF103:
 3662 05eb 65776D61 		.ascii	"ewmask\000"
 3662      736B00
 3663              	.LASF69:
 3664 05f2 63685F73 		.ascii	"ch_system\000"
 3664      79737465 
 3664      6D00
 3665              	.LASF16:
 3666 05fc 75696E74 		.ascii	"uint8_t\000"
 3666      385F7400 
 3667              	.LASF159:
ARM GAS  /tmp/cciMLgRf.s 			page 70


 3668 0604 5F5F6675 		.ascii	"__func__\000"
 3668      6E635F5F 
 3668      00
 3669              	.LASF147:
 3670 060d 6F626A5F 		.ascii	"obj_pool\000"
 3670      706F6F6C 
 3670      00
 3671              	.LASF105:
 3672 0616 63685F6D 		.ascii	"ch_mutex\000"
 3672      75746578 
 3672      00
 3673              	.LASF59:
 3674 061f 63685F76 		.ascii	"ch_virtual_timer\000"
 3674      69727475 
 3674      616C5F74 
 3674      696D6572 
 3674      00
 3675              	.LASF104:
 3676 0630 63685F73 		.ascii	"ch_semaphore\000"
 3676      656D6170 
 3676      686F7265 
 3676      00
 3677              	.LASF92:
 3678 063d 43435852 		.ascii	"CCXR\000"
 3678      00
 3679              	.LASF108:
 3680 0642 63685F69 		.ascii	"ch_idle_thread_wa\000"
 3680      646C655F 
 3680      74687265 
 3680      61645F77 
 3680      6100
 3681              	.LASF114:
 3682 0654 74696D65 		.ascii	"timesize\000"
 3682      73697A65 
 3682      00
 3683              	.LASF167:
 3684 065d 73745F6C 		.ascii	"st_lld_get_counter\000"
 3684      6C645F67 
 3684      65745F63 
 3684      6F756E74 
 3684      657200
 3685              	.LASF19:
 3686 0670 75696E74 		.ascii	"uint32_t\000"
 3686      33325F74 
 3686      00
 3687              	.LASF102:
 3688 0679 77746D74 		.ascii	"wtmtxp\000"
 3688      787000
 3689              	.LASF49:
 3690 0680 63685F74 		.ascii	"ch_threads_list\000"
 3690      68726561 
 3690      64735F6C 
 3690      69737400 
 3691              	.LASF106:
 3692 0690 6F776E65 		.ascii	"owner\000"
 3692      7200
 3693              	.LASF13:
ARM GAS  /tmp/cciMLgRf.s 			page 71


 3694 0696 6C6F6E67 		.ascii	"long unsigned int\000"
 3694      20756E73 
 3694      69676E65 
 3694      6420696E 
 3694      7400
 3695              	.LASF36:
 3696 06a8 77616261 		.ascii	"wabase\000"
 3696      736500
 3697              	.LASF173:
 3698 06af 73745374 		.ascii	"stStopAlarm\000"
 3698      6F70416C 
 3698      61726D00 
 3699              	.LASF107:
 3700 06bb 63686172 		.ascii	"char\000"
 3700      00
 3701              	.LASF8:
 3702 06c0 5F5F7569 		.ascii	"__uint16_t\000"
 3702      6E743136 
 3702      5F7400
 3703              	.LASF146:
 3704 06cb 6F626A5F 		.ascii	"obj_list\000"
 3704      6C697374 
 3704      00
 3705              	.LASF90:
 3706 06d4 444D4152 		.ascii	"DMAR\000"
 3706      00
 3707              	.LASF30:
 3708 06d9 74687265 		.ascii	"thread_t\000"
 3708      61645F74 
 3708      00
 3709              	.LASF88:
 3710 06e2 43434552 		.ascii	"CCER\000"
 3710      00
 3711              	.LASF135:
 3712 06e7 63685F6D 		.ascii	"ch_memcore\000"
 3712      656D636F 
 3712      726500
 3713              	.LASF73:
 3714 06f2 73797374 		.ascii	"systime_t\000"
 3714      696D655F 
 3714      7400
 3715              	.LASF57:
 3716 06fc 76746675 		.ascii	"vtfunc_t\000"
 3716      6E635F74 
 3716      00
 3717              	.LASF78:
 3718 0705 41484250 		.ascii	"AHBPrescTable\000"
 3718      72657363 
 3718      5461626C 
 3718      6500
 3719              	.LASF67:
 3720 0713 70616E69 		.ascii	"panic_msg\000"
 3720      635F6D73 
 3720      6700
 3721              	.LASF94:
 3722 071d 6F666673 		.ascii	"offset\000"
 3722      657400
ARM GAS  /tmp/cciMLgRf.s 			page 72


 3723              	.LASF175:
 3724 0724 73745374 		.ascii	"stStartAlarm\000"
 3724      61727441 
 3724      6C61726D 
 3724      00
 3725              	.LASF119:
 3726 0731 6F66665F 		.ascii	"off_older\000"
 3726      6F6C6465 
 3726      7200
 3727              	.LASF9:
 3728 073b 73686F72 		.ascii	"short unsigned int\000"
 3728      7420756E 
 3728      7369676E 
 3728      65642069 
 3728      6E7400
 3729              	.LASF163:
 3730 074e 706F7274 		.ascii	"port_timer_get_time\000"
 3730      5F74696D 
 3730      65725F67 
 3730      65745F74 
 3730      696D6500 
 3731              	.LASF21:
 3732 0762 7274636E 		.ascii	"rtcnt_t\000"
 3732      745F7400 
 3733              	.LASF137:
 3734 076a 6F626A65 		.ascii	"object_size\000"
 3734      63745F73 
 3734      697A6500 
 3735              	.LASF158:
 3736 0776 76746675 		.ascii	"vtfunc\000"
 3736      6E6300
 3737              	.LASF113:
 3738 077d 70747273 		.ascii	"ptrsize\000"
 3738      697A6500 
 3739              	.LASF145:
 3740 0785 63685F6F 		.ascii	"ch_objects_factory\000"
 3740      626A6563 
 3740      74735F66 
 3740      6163746F 
 3740      727900
 3741              	.LASF51:
 3742 0798 74687265 		.ascii	"threads_queue_t\000"
 3742      6164735F 
 3742      71756575 
 3742      655F7400 
 3743              	.LASF136:
 3744 07a8 706F6F6C 		.ascii	"pool_header\000"
 3744      5F686561 
 3744      64657200 
 3745              	.LASF169:
 3746 07b4 63685469 		.ascii	"chTimeDiffX\000"
 3746      6D654469 
 3746      66665800 
 3747              	.LASF120:
 3748 07c0 6F66665F 		.ascii	"off_name\000"
 3748      6E616D65 
 3748      00
ARM GAS  /tmp/cciMLgRf.s 			page 73


 3749              	.LASF174:
 3750 07c9 73745365 		.ascii	"stSetAlarm\000"
 3750      74416C61 
 3750      726D00
 3751              	.LASF38:
 3752 07d4 666C6167 		.ascii	"flags\000"
 3752      7300
 3753              	.LASF180:
 3754 07da 706F7274 		.ascii	"port_timer_stop_alarm\000"
 3754      5F74696D 
 3754      65725F73 
 3754      746F705F 
 3754      616C6172 
 3755              	.LASF46:
 3756 07f0 74687265 		.ascii	"thread_reference_t\000"
 3756      61645F72 
 3756      65666572 
 3756      656E6365 
 3756      5F7400
 3757              	.LASF164:
 3758 0803 706F7274 		.ascii	"port_timer_set_alarm\000"
 3758      5F74696D 
 3758      65725F73 
 3758      65745F61 
 3758      6C61726D 
 3759              	.LASF98:
 3760 0818 77746F62 		.ascii	"wtobjp\000"
 3760      6A7000
 3761              	.LASF111:
 3762 081f 73697A65 		.ascii	"size\000"
 3762      00
 3763              	.LASF47:
 3764 0824 74687265 		.ascii	"threads_list_t\000"
 3764      6164735F 
 3764      6C697374 
 3764      5F7400
 3765              	.LASF122:
 3766 0833 6F66665F 		.ascii	"off_state\000"
 3766      73746174 
 3766      6500
 3767              	.LASF153:
 3768 083d 6F626A65 		.ascii	"objects_factory_t\000"
 3768      6374735F 
 3768      66616374 
 3768      6F72795F 
 3768      7400
 3769              	.LASF123:
 3770 084f 6F66665F 		.ascii	"off_flags\000"
 3770      666C6167 
 3770      7300
 3771              	.LASF43:
 3772 0859 6D74786C 		.ascii	"mtxlist\000"
 3772      69737400 
 3773              	.LASF129:
 3774 0861 6D757465 		.ascii	"mutex_t\000"
 3774      785F7400 
 3775              	.LASF178:
ARM GAS  /tmp/cciMLgRf.s 			page 74


 3776 0869 2F686F6D 		.ascii	"/home/alex/ArduPilot/ardupilot/build/Pix2.4\000"
 3776      652F616C 
 3776      65782F41 
 3776      72647550 
 3776      696C6F74 
 3777              	.LASF132:
 3778 0895 6E657874 		.ascii	"nextmem\000"
 3778      6D656D00 
 3779              		.ident	"GCC: (GNU Tools for ARM Embedded Processors 6-2017-q2-update) 6.3.1 20170620 (release) [AR
ARM GAS  /tmp/cciMLgRf.s 			page 75


DEFINED SYMBOLS
                            *ABS*:0000000000000000 chvt.c
     /tmp/cciMLgRf.s:18     .text._vt_init:0000000000000000 $t
     /tmp/cciMLgRf.s:25     .text._vt_init:0000000000000000 _vt_init
     /tmp/cciMLgRf.s:49     .text._vt_init:0000000000000018 $d
     /tmp/cciMLgRf.s:54     .text.chVTDoSetI:0000000000000000 $t
     /tmp/cciMLgRf.s:61     .text.chVTDoSetI:0000000000000000 chVTDoSetI
     /tmp/cciMLgRf.s:238    .text.chVTDoSetI:0000000000000070 $d
     /tmp/cciMLgRf.s:244    .text.chVTDoResetI:0000000000000000 $t
     /tmp/cciMLgRf.s:251    .text.chVTDoResetI:0000000000000000 chVTDoResetI
     /tmp/cciMLgRf.s:392    .text.chVTDoResetI:000000000000006c $d
                     .debug_frame:0000000000000010 $d

UNDEFINED SYMBOLS
ch
stStartAlarm
stSetAlarm
stStopAlarm
