ARM GAS  /tmp/cctTVEgH.s 			page 1


   1              		.cpu cortex-m4
   2              		.eabi_attribute 27, 1
   3              		.eabi_attribute 28, 1
   4              		.eabi_attribute 20, 1
   5              		.eabi_attribute 21, 1
   6              		.eabi_attribute 23, 3
   7              		.eabi_attribute 24, 1
   8              		.eabi_attribute 25, 1
   9              		.eabi_attribute 26, 1
  10              		.eabi_attribute 30, 4
  11              		.eabi_attribute 34, 1
  12              		.eabi_attribute 18, 4
  13              		.file	"fatfs_diskio.c"
  14              		.text
  15              	.Ltext0:
  16              		.cfi_sections	.debug_frame
  17              		.section	.text.disk_status,"ax",%progbits
  18              		.align	1
  19              		.global	disk_status
  20              		.syntax unified
  21              		.thumb
  22              		.thumb_func
  23              		.fpu fpv4-sp-d16
  24              		.type	disk_status, %function
  25              	disk_status:
  26              	.LFB324:
  27              		.file 1 "../../modules/ChibiOS/os/various/fatfs_bindings/fatfs_diskio.c"
  28              		.loc 1 90 0
  29              		.cfi_startproc
  30              		@ args = 0, pretend = 0, frame = 0
  31              		@ frame_needed = 0, uses_anonymous_args = 0
  32              	.LVL0:
  33 0000 10B5     		push	{r4, lr}
  34              		.cfi_def_cfa_offset 8
  35              		.cfi_offset 4, -8
  36              		.cfi_offset 14, -4
  37              		.loc 1 93 0
  38 0002 58B9     		cbnz	r0, .L8
  39              	.LVL1:
  40              		.loc 1 107 0
  41 0004 0648     		ldr	r0, .L9
  42              	.LVL2:
  43 0006 0479     		ldrb	r4, [r0, #4]	@ zero_extendqisi2
  44              		.loc 1 105 0
  45 0008 053C     		subs	r4, r4, #5
  46 000a 18BF     		it	ne
  47 000c 0124     		movne	r4, #1
  48              	.LVL3:
  49              		.loc 1 109 0
  50 000e FFF7FEFF 		bl	sdc_lld_is_write_protected
  51              	.LVL4:
  52 0012 08B1     		cbz	r0, .L2
  53              		.loc 1 110 0
  54 0014 44F00404 		orr	r4, r4, #4
  55              	.LVL5:
  56              	.L2:
  57              		.loc 1 115 0
ARM GAS  /tmp/cctTVEgH.s 			page 2


  58 0018 2046     		mov	r0, r4
  59 001a 10BD     		pop	{r4, pc}
  60              	.LVL6:
  61              	.L8:
  62              		.loc 1 114 0
  63 001c 0124     		movs	r4, #1
  64 001e FBE7     		b	.L2
  65              	.L10:
  66              		.align	2
  67              	.L9:
  68 0020 00000000 		.word	SDCD1
  69              		.cfi_endproc
  70              	.LFE324:
  71              		.size	disk_status, .-disk_status
  72              		.section	.text.disk_initialize,"ax",%progbits
  73              		.align	1
  74              		.global	disk_initialize
  75              		.syntax unified
  76              		.thumb
  77              		.thumb_func
  78              		.fpu fpv4-sp-d16
  79              		.type	disk_initialize, %function
  80              	disk_initialize:
  81              	.LFB329:
  82              		.cfi_startproc
  83              		@ args = 0, pretend = 0, frame = 0
  84              		@ frame_needed = 0, uses_anonymous_args = 0
  85              		@ link register save eliminated.
  86 0000 FFF7FEBF 		b	disk_status
  87              		.cfi_endproc
  88              	.LFE329:
  89              		.size	disk_initialize, .-disk_initialize
  90              		.section	.text.disk_read,"ax",%progbits
  91              		.align	1
  92              		.global	disk_read
  93              		.syntax unified
  94              		.thumb
  95              		.thumb_func
  96              		.fpu fpv4-sp-d16
  97              		.type	disk_read, %function
  98              	disk_read:
  99              	.LFB325:
 100              		.loc 1 128 0
 101              		.cfi_startproc
 102              		@ args = 0, pretend = 0, frame = 0
 103              		@ frame_needed = 0, uses_anonymous_args = 0
 104              	.LVL7:
 105              		.loc 1 128 0
 106 0000 2DE9F041 		push	{r4, r5, r6, r7, r8, lr}
 107              		.cfi_def_cfa_offset 24
 108              		.cfi_offset 4, -24
 109              		.cfi_offset 5, -20
 110              		.cfi_offset 6, -16
 111              		.cfi_offset 7, -12
 112              		.cfi_offset 8, -8
 113              		.cfi_offset 14, -4
 114              		.loc 1 128 0
ARM GAS  /tmp/cctTVEgH.s 			page 3


 115 0004 0E46     		mov	r6, r1
 116 0006 1546     		mov	r5, r2
 117 0008 1F46     		mov	r7, r3
 118              		.loc 1 129 0
 119 000a A0B9     		cbnz	r0, .L21
 120              		.loc 1 144 0
 121 000c 0D48     		ldr	r0, .L22
 122              	.LVL8:
 123 000e 0479     		ldrb	r4, [r0, #4]	@ zero_extendqisi2
 124 0010 052C     		cmp	r4, #5
 125 0012 13D1     		bne	.L19
 126              	.LBB2:
 127              		.loc 1 146 0
 128 0014 8046     		mov	r8, r0
 129              	.LVL9:
 130              	.L16:
 131              		.loc 1 146 0 is_stmt 0 discriminator 5
 132 0016 3B46     		mov	r3, r7
 133 0018 3246     		mov	r2, r6
 134 001a 2946     		mov	r1, r5
 135 001c 4046     		mov	r0, r8
 136 001e FFF7FEFF 		bl	sdcRead
 137              	.LVL10:
 138 0022 08B9     		cbnz	r0, .L17
 139 0024 BDE8F081 		pop	{r4, r5, r6, r7, r8, pc}
 140              	.LVL11:
 141              	.L17:
 142 0028 013C     		subs	r4, r4, #1
 143              	.LVL12:
 144              		.loc 1 146 0 discriminator 2
 145 002a 14F0FF04 		ands	r4, r4, #255
 146 002e F2D1     		bne	.L16
 147              		.loc 1 146 0
 148 0030 0120     		movs	r0, #1
 149              	.LBE2:
 150              		.loc 1 151 0 is_stmt 1
 151 0032 BDE8F081 		pop	{r4, r5, r6, r7, r8, pc}
 152              	.LVL13:
 153              	.L21:
 154              		.loc 1 150 0
 155 0036 0420     		movs	r0, #4
 156              	.LVL14:
 157 0038 BDE8F081 		pop	{r4, r5, r6, r7, r8, pc}
 158              	.L19:
 159              		.loc 1 145 0
 160 003c 0320     		movs	r0, #3
 161 003e BDE8F081 		pop	{r4, r5, r6, r7, r8, pc}
 162              	.L23:
 163 0042 00BF     		.align	2
 164              	.L22:
 165 0044 00000000 		.word	SDCD1
 166              		.cfi_endproc
 167              	.LFE325:
 168              		.size	disk_read, .-disk_read
 169              		.section	.text.disk_write,"ax",%progbits
 170              		.align	1
 171              		.global	disk_write
ARM GAS  /tmp/cctTVEgH.s 			page 4


 172              		.syntax unified
 173              		.thumb
 174              		.thumb_func
 175              		.fpu fpv4-sp-d16
 176              		.type	disk_write, %function
 177              	disk_write:
 178              	.LFB326:
 179              		.loc 1 165 0
 180              		.cfi_startproc
 181              		@ args = 0, pretend = 0, frame = 0
 182              		@ frame_needed = 0, uses_anonymous_args = 0
 183              	.LVL15:
 184 0000 2DE9F041 		push	{r4, r5, r6, r7, r8, lr}
 185              		.cfi_def_cfa_offset 24
 186              		.cfi_offset 4, -24
 187              		.cfi_offset 5, -20
 188              		.cfi_offset 6, -16
 189              		.cfi_offset 7, -12
 190              		.cfi_offset 8, -8
 191              		.cfi_offset 14, -4
 192              		.loc 1 165 0
 193 0004 0E46     		mov	r6, r1
 194 0006 1546     		mov	r5, r2
 195 0008 1F46     		mov	r7, r3
 196              		.loc 1 166 0
 197 000a A0B9     		cbnz	r0, .L33
 198              		.loc 1 183 0
 199 000c 0D48     		ldr	r0, .L34
 200              	.LVL16:
 201 000e 0479     		ldrb	r4, [r0, #4]	@ zero_extendqisi2
 202 0010 052C     		cmp	r4, #5
 203 0012 13D1     		bne	.L31
 204              	.LBB3:
 205              		.loc 1 185 0
 206 0014 8046     		mov	r8, r0
 207              	.LVL17:
 208              	.L28:
 209              		.loc 1 185 0 is_stmt 0 discriminator 5
 210 0016 3B46     		mov	r3, r7
 211 0018 3246     		mov	r2, r6
 212 001a 2946     		mov	r1, r5
 213 001c 4046     		mov	r0, r8
 214 001e FFF7FEFF 		bl	sdcWrite
 215              	.LVL18:
 216 0022 08B9     		cbnz	r0, .L29
 217 0024 BDE8F081 		pop	{r4, r5, r6, r7, r8, pc}
 218              	.LVL19:
 219              	.L29:
 220 0028 013C     		subs	r4, r4, #1
 221              	.LVL20:
 222              		.loc 1 185 0 discriminator 2
 223 002a 14F0FF04 		ands	r4, r4, #255
 224 002e F2D1     		bne	.L28
 225              		.loc 1 185 0
 226 0030 0120     		movs	r0, #1
 227              	.LBE3:
 228              		.loc 1 190 0 is_stmt 1
ARM GAS  /tmp/cctTVEgH.s 			page 5


 229 0032 BDE8F081 		pop	{r4, r5, r6, r7, r8, pc}
 230              	.LVL21:
 231              	.L33:
 232              		.loc 1 189 0
 233 0036 0420     		movs	r0, #4
 234              	.LVL22:
 235 0038 BDE8F081 		pop	{r4, r5, r6, r7, r8, pc}
 236              	.L31:
 237              		.loc 1 184 0
 238 003c 0320     		movs	r0, #3
 239 003e BDE8F081 		pop	{r4, r5, r6, r7, r8, pc}
 240              	.L35:
 241 0042 00BF     		.align	2
 242              	.L34:
 243 0044 00000000 		.word	SDCD1
 244              		.cfi_endproc
 245              	.LFE326:
 246              		.size	disk_write, .-disk_write
 247              		.section	.text.disk_ioctl,"ax",%progbits
 248              		.align	1
 249              		.global	disk_ioctl
 250              		.syntax unified
 251              		.thumb
 252              		.thumb_func
 253              		.fpu fpv4-sp-d16
 254              		.type	disk_ioctl, %function
 255              	disk_ioctl:
 256              	.LFB327:
 257              		.loc 1 203 0
 258              		.cfi_startproc
 259              		@ args = 0, pretend = 0, frame = 0
 260              		@ frame_needed = 0, uses_anonymous_args = 0
 261              		@ link register save eliminated.
 262              	.LVL23:
 263              		.loc 1 206 0
 264 0000 20B9     		cbnz	r0, .L44
 265              		.loc 1 227 0
 266 0002 0129     		cmp	r1, #1
 267 0004 04D0     		beq	.L40
 268 0006 02D3     		bcc	.L37
 269 0008 0329     		cmp	r1, #3
 270 000a 05D0     		beq	.L41
 271              	.L44:
 272              		.loc 1 251 0
 273 000c 0420     		movs	r0, #4
 274              	.LVL24:
 275              	.L37:
 276              		.loc 1 252 0
 277 000e 7047     		bx	lr
 278              	.LVL25:
 279              	.L40:
 280              		.loc 1 231 0
 281 0010 034B     		ldr	r3, .L46
 282 0012 9B6A     		ldr	r3, [r3, #40]
 283              	.L45:
 284              		.loc 1 239 0
 285 0014 1360     		str	r3, [r2]
ARM GAS  /tmp/cctTVEgH.s 			page 6


 286              		.loc 1 240 0
 287 0016 7047     		bx	lr
 288              	.L41:
 289              		.loc 1 239 0
 290 0018 4FF48073 		mov	r3, #256
 291 001c FAE7     		b	.L45
 292              	.L47:
 293 001e 00BF     		.align	2
 294              	.L46:
 295 0020 00000000 		.word	SDCD1
 296              		.cfi_endproc
 297              	.LFE327:
 298              		.size	disk_ioctl, .-disk_ioctl
 299              		.text
 300              	.Letext0:
 301              		.file 2 "/opt/gcc-arm-none-eabi-6-2017-q2-update/lib/gcc/arm-none-eabi/6.3.1/include/stddef.h"
 302              		.file 3 "/opt/gcc-arm-none-eabi-6-2017-q2-update/arm-none-eabi/include/machine/_default_types.h"
 303              		.file 4 "/opt/gcc-arm-none-eabi-6-2017-q2-update/arm-none-eabi/include/sys/_stdint.h"
 304              		.file 5 "/opt/gcc-arm-none-eabi-6-2017-q2-update/arm-none-eabi/include/stdint.h"
 305              		.file 6 "../../modules/ChibiOS/os/common/ports/ARMCMx/compilers/GCC/chtypes.h"
 306              		.file 7 "../../modules/ChibiOS/os/rt/include/chsystypes.h"
 307              		.file 8 "../../modules/ChibiOS/os/rt/include/chschd.h"
 308              		.file 9 "../../modules/ChibiOS/os/rt/include/chtime.h"
 309              		.file 10 "../../modules/ChibiOS/os/common/ext/ARM/CMSIS/Core/Include/core_cm4.h"
 310              		.file 11 "../../modules/ChibiOS/os/common/ext/ST/STM32F4xx/system_stm32f4xx.h"
 311              		.file 12 "../../modules/ChibiOS/os/common/ext/ST/STM32F4xx/stm32f427xx.h"
 312              		.file 13 "../../modules/ChibiOS/os/common/ports/ARMCMx/chcore.h"
 313              		.file 14 "../../modules/ChibiOS/os/common/ports/ARMCMx/chcore_v7m.h"
 314              		.file 15 "../../modules/ChibiOS/os/hal/ports/STM32/LLD/TIMv1/stm32_tim.h"
 315              		.file 16 "../../modules/ChibiOS/os/rt/include/chtm.h"
 316              		.file 17 "../../modules/ChibiOS/os/rt/include/chsem.h"
 317              		.file 18 "../../modules/ChibiOS/os/rt/include/chmtx.h"
 318              		.file 19 "../../modules/ChibiOS/os/rt/include/chsys.h"
 319              		.file 20 "../../modules/ChibiOS/os/rt/include/chregistry.h"
 320              		.file 21 "../../modules/ChibiOS/os/rt/include/chevents.h"
 321              		.file 22 "../../modules/ChibiOS/os/oslib/include/chmemcore.h"
 322              		.file 23 "../../modules/ChibiOS/os/oslib/include/chmempools.h"
 323              		.file 24 "../../modules/ChibiOS/os/oslib/include/chfactory.h"
 324              		.file 25 "../../modules/ChibiOS/os/hal/ports/STM32/LLD/DMAv2/stm32_dma.h"
 325              		.file 26 "../../modules/ChibiOS/os/hal/include/hal_ioblock.h"
 326              		.file 27 "../../modules/ChibiOS/os/hal/include/hal_queues.h"
 327              		.file 28 "../../modules/ChibiOS/os/hal/include/hal_pal.h"
 328              		.file 29 "../../modules/ChibiOS/os/hal/ports/STM32/LLD/GPIOv2/stm32_gpio.h"
 329              		.file 30 "../../modules/ChibiOS/os/hal/ports/STM32/LLD/GPIOv2/hal_pal_lld.h"
 330              		.file 31 "../../modules/ChibiOS/os/hal/include/hal_adc.h"
 331              		.file 32 "../../modules/ChibiOS/os/hal/ports/STM32/LLD/ADCv2/hal_adc_lld.h"
 332              		.file 33 "../../modules/ChibiOS/os/hal/include/hal_i2c.h"
 333              		.file 34 "../../modules/ChibiOS/os/hal/ports/STM32/LLD/I2Cv1/hal_i2c_lld.h"
 334              		.file 35 "../../modules/ChibiOS/os/hal/include/hal_pwm.h"
 335              		.file 36 "../../modules/ChibiOS/os/hal/ports/STM32/LLD/TIMv1/hal_pwm_lld.h"
 336              		.file 37 "../../modules/ChibiOS/os/hal/include/hal_serial.h"
 337              		.file 38 "../../modules/ChibiOS/os/hal/ports/STM32/LLD/USARTv1/hal_serial_lld.h"
 338              		.file 39 "../../modules/ChibiOS/os/hal/include/hal_sdc.h"
 339              		.file 40 "../../modules/ChibiOS/os/hal/ports/STM32/LLD/SDIOv1/hal_sdc_lld.h"
 340              		.file 41 "../../modules/ChibiOS/os/hal/include/hal_spi.h"
 341              		.file 42 "../../modules/ChibiOS/os/hal/ports/STM32/LLD/SPIv1/hal_spi_lld.h"
 342              		.file 43 "../../modules/ChibiOS/os/hal/include/hal_usb.h"
ARM GAS  /tmp/cctTVEgH.s 			page 7


 343              		.file 44 "../../modules/ChibiOS/os/hal/ports/STM32/LLD/OTGv1/hal_usb_lld.h"
 344              		.file 45 "../../modules/ChibiOS/os/hal/ports/STM32/LLD/OTGv1/stm32_otg.h"
 345              		.file 46 "../../modules/ChibiOS/ext/fatfs/src/integer.h"
 346              		.file 47 "../../modules/ChibiOS/ext/fatfs/src/diskio.h"