ARM GAS  /tmp/ccrP6wFi.s 			page 1


   1              		.cpu cortex-m4
   2              		.eabi_attribute 27, 1
   3              		.eabi_attribute 28, 1
   4              		.eabi_attribute 20, 1
   5              		.eabi_attribute 21, 1
   6              		.eabi_attribute 23, 3
   7              		.eabi_attribute 24, 1
   8              		.eabi_attribute 25, 1
   9              		.eabi_attribute 26, 1
  10              		.eabi_attribute 30, 4
  11              		.eabi_attribute 34, 1
  12              		.eabi_attribute 18, 4
  13              		.file	"flash.c"
  14              		.text
  15              	.Ltext0:
  16              		.cfi_sections	.debug_frame
  17              		.section	.text.stm32_flash_wait_idle,"ax",%progbits
  18              		.align	1
  19              		.syntax unified
  20              		.thumb
  21              		.thumb_func
  22              		.fpu fpv4-sp-d16
  23              		.type	stm32_flash_wait_idle, %function
  24              	stm32_flash_wait_idle:
  25              	.LFB327:
  26              		.file 1 "../../libraries/AP_HAL_ChibiOS/hwdef/common/flash.c"
  27              		.loc 1 185 0
  28              		.cfi_startproc
  29              		@ args = 0, pretend = 0, frame = 0
  30              		@ frame_needed = 0, uses_anonymous_args = 0
  31              		@ link register save eliminated.
  32              	.LBB44:
  33              	.LBB45:
  34              		.file 2 "../../modules/ChibiOS/os/common/ext/ARM/CMSIS/Core/Include/cmsis_gcc.h"
  35              		.loc 2 879 0
  36              		.syntax unified
  37              	@ 879 "../../modules/ChibiOS/os/common/ext/ARM/CMSIS/Core/Include/cmsis_gcc.h" 1
  38 0000 BFF34F8F 		dsb 0xF
  39              	@ 0 "" 2
  40              		.thumb
  41              		.syntax unified
  42              	.LBE45:
  43              	.LBE44:
  44              		.loc 1 193 0
  45 0004 024A     		ldr	r2, .L4
  46              	.L2:
  47              		.loc 1 193 0 is_stmt 0 discriminator 1
  48 0006 D368     		ldr	r3, [r2, #12]
  49 0008 DB03     		lsls	r3, r3, #15
  50 000a FCD4     		bmi	.L2
  51              		.loc 1 197 0 is_stmt 1
  52 000c 7047     		bx	lr
  53              	.L5:
  54 000e 00BF     		.align	2
  55              	.L4:
  56 0010 003C0240 		.word	1073888256
  57              		.cfi_endproc
ARM GAS  /tmp/ccrP6wFi.s 			page 2


  58              	.LFE327:
  59              		.size	stm32_flash_wait_idle, .-stm32_flash_wait_idle
  60              		.section	.text.stm32_flash_unlock,"ax",%progbits
  61              		.align	1
  62              		.syntax unified
  63              		.thumb
  64              		.thumb_func
  65              		.fpu fpv4-sp-d16
  66              		.type	stm32_flash_unlock, %function
  67              	stm32_flash_unlock:
  68              	.LFB329:
  69              		.loc 1 210 0
  70              		.cfi_startproc
  71              		@ args = 0, pretend = 0, frame = 0
  72              		@ frame_needed = 0, uses_anonymous_args = 0
  73 0000 08B5     		push	{r3, lr}
  74              		.cfi_def_cfa_offset 8
  75              		.cfi_offset 3, -8
  76              		.cfi_offset 14, -4
  77              		.loc 1 211 0
  78 0002 094B     		ldr	r3, .L9
  79 0004 1B78     		ldrb	r3, [r3]	@ zero_extendqisi2
  80 0006 73B9     		cbnz	r3, .L6
  81              	.LBB48:
  82              	.LBB49:
  83              		.loc 1 214 0
  84 0008 FFF7FEFF 		bl	stm32_flash_wait_idle
  85              	.LVL0:
  86              		.loc 1 228 0
  87 000c 074B     		ldr	r3, .L9+4
  88 000e 1A69     		ldr	r2, [r3, #16]
  89 0010 002A     		cmp	r2, #0
  90              		.loc 1 230 0
  91 0012 BFBF     		itttt	lt
  92 0014 064A     		ldrlt	r2, .L9+8
  93 0016 5A60     		strlt	r2, [r3, #4]
  94              		.loc 1 231 0
  95 0018 02F18832 		addlt	r2, r2, #-2004318072
  96 001c 5A60     		strlt	r2, [r3, #4]
  97              		.loc 1 237 0
  98 001e 1A68     		ldr	r2, [r3]
  99 0020 22F48062 		bic	r2, r2, #1024
 100 0024 1A60     		str	r2, [r3]
 101              	.L6:
 102 0026 08BD     		pop	{r3, pc}
 103              	.L10:
 104              		.align	2
 105              	.L9:
 106 0028 00000000 		.word	.LANCHOR0
 107 002c 003C0240 		.word	1073888256
 108 0030 23016745 		.word	1164378403
 109              	.LBE49:
 110              	.LBE48:
 111              		.cfi_endproc
 112              	.LFE329:
 113              		.size	stm32_flash_unlock, .-stm32_flash_unlock
 114              		.section	.text.stm32_flash_lock,"ax",%progbits
ARM GAS  /tmp/ccrP6wFi.s 			page 3


 115              		.align	1
 116              		.global	stm32_flash_lock
 117              		.syntax unified
 118              		.thumb
 119              		.thumb_func
 120              		.fpu fpv4-sp-d16
 121              		.type	stm32_flash_lock, %function
 122              	stm32_flash_lock:
 123              	.LFB330:
 124              		.loc 1 242 0
 125              		.cfi_startproc
 126              		@ args = 0, pretend = 0, frame = 0
 127              		@ frame_needed = 0, uses_anonymous_args = 0
 128 0000 08B5     		push	{r3, lr}
 129              		.cfi_def_cfa_offset 8
 130              		.cfi_offset 3, -8
 131              		.cfi_offset 14, -4
 132              		.loc 1 243 0
 133 0002 0B4B     		ldr	r3, .L13
 134 0004 1B78     		ldrb	r3, [r3]	@ zero_extendqisi2
 135 0006 93B9     		cbnz	r3, .L11
 136              	.LBB52:
 137              	.LBB53:
 138              		.loc 1 257 0
 139 0008 FFF7FEFF 		bl	stm32_flash_wait_idle
 140              	.LVL1:
 141              		.loc 1 258 0
 142 000c 094B     		ldr	r3, .L13+4
 143 000e 1A69     		ldr	r2, [r3, #16]
 144 0010 42F00042 		orr	r2, r2, #-2147483648
 145 0014 1A61     		str	r2, [r3, #16]
 146              		.loc 1 263 0
 147 0016 1A68     		ldr	r2, [r3]
 148 0018 42F48052 		orr	r2, r2, #4096
 149 001c 1A60     		str	r2, [r3]
 150              		.loc 1 264 0
 151 001e 1A68     		ldr	r2, [r3]
 152 0020 22F48052 		bic	r2, r2, #4096
 153 0024 1A60     		str	r2, [r3]
 154              		.loc 1 265 0
 155 0026 1A68     		ldr	r2, [r3]
 156 0028 42F48062 		orr	r2, r2, #1024
 157 002c 1A60     		str	r2, [r3]
 158              	.L11:
 159 002e 08BD     		pop	{r3, pc}
 160              	.L14:
 161              		.align	2
 162              	.L13:
 163 0030 00000000 		.word	.LANCHOR0
 164 0034 003C0240 		.word	1073888256
 165              	.LBE53:
 166              	.LBE52:
 167              		.cfi_endproc
 168              	.LFE330:
 169              		.size	stm32_flash_lock, .-stm32_flash_lock
 170              		.section	.text.stm32_flash_getpageaddr,"ax",%progbits
 171              		.align	1
ARM GAS  /tmp/ccrP6wFi.s 			page 4


 172              		.global	stm32_flash_getpageaddr
 173              		.syntax unified
 174              		.thumb
 175              		.thumb_func
 176              		.fpu fpv4-sp-d16
 177              		.type	stm32_flash_getpageaddr, %function
 178              	stm32_flash_getpageaddr:
 179              	.LFB331:
 180              		.loc 1 275 0
 181              		.cfi_startproc
 182              		@ args = 0, pretend = 0, frame = 0
 183              		@ frame_needed = 0, uses_anonymous_args = 0
 184              	.LVL2:
 185              		.loc 1 276 0
 186 0000 1728     		cmp	r0, #23
 187              		.loc 1 275 0
 188 0002 70B5     		push	{r4, r5, r6, lr}
 189              		.cfi_def_cfa_offset 16
 190              		.cfi_offset 4, -16
 191              		.cfi_offset 5, -12
 192              		.cfi_offset 6, -8
 193              		.cfi_offset 14, -4
 194              		.loc 1 276 0
 195 0004 13D8     		bhi	.L19
 196              	.LVL3:
 197              	.LBB59:
 198              	.LBB60:
 199              		.loc 1 282 0
 200 0006 0B4A     		ldr	r2, .L21
 201 0008 0B4C     		ldr	r4, .L21+4
 202 000a 1378     		ldrb	r3, [r2]	@ zero_extendqisi2
 203 000c 63B9     		cbnz	r3, .L17
 204              	.LBB61:
 205              	.LBB62:
 206              	.LBB63:
 207              		.loc 1 306 0
 208 000e 0B4E     		ldr	r6, .L21+8
 209              	.LBE63:
 210              	.LBE62:
 211              	.LBE61:
 212              		.loc 1 282 0
 213 0010 4FF00061 		mov	r1, #134217728
 214              	.L18:
 215              	.LVL4:
 216              	.LBB64:
 217              		.loc 1 287 0
 218 0014 44F82310 		str	r1, [r4, r3, lsl #2]
 219              		.loc 1 288 0
 220 0018 56F82350 		ldr	r5, [r6, r3, lsl #2]
 221 001c 0133     		adds	r3, r3, #1
 222              	.LVL5:
 223              		.loc 1 286 0
 224 001e 182B     		cmp	r3, #24
 225              		.loc 1 288 0
 226 0020 2944     		add	r1, r1, r5
 227              	.LVL6:
 228              		.loc 1 286 0
ARM GAS  /tmp/ccrP6wFi.s 			page 5


 229 0022 F7D1     		bne	.L18
 230              		.loc 1 290 0
 231 0024 0123     		movs	r3, #1
 232 0026 1370     		strb	r3, [r2]
 233              	.LVL7:
 234              	.L17:
 235              	.LBE64:
 236              		.loc 1 293 0
 237 0028 54F82000 		ldr	r0, [r4, r0, lsl #2]
 238              	.LVL8:
 239 002c 70BD     		pop	{r4, r5, r6, pc}
 240              	.LVL9:
 241              	.L19:
 242              	.LBE60:
 243              	.LBE59:
 244              		.loc 1 277 0
 245 002e 0020     		movs	r0, #0
 246              	.LVL10:
 247              		.loc 1 295 0
 248 0030 70BD     		pop	{r4, r5, r6, pc}
 249              	.L22:
 250 0032 00BF     		.align	2
 251              	.L21:
 252 0034 00000000 		.word	.LANCHOR1
 253 0038 00000000 		.word	.LANCHOR2
 254 003c 00000000 		.word	.LANCHOR3
 255              		.cfi_endproc
 256              	.LFE331:
 257              		.size	stm32_flash_getpageaddr, .-stm32_flash_getpageaddr
 258              		.section	.text.stm32_flash_getpagesize,"ax",%progbits
 259              		.align	1
 260              		.global	stm32_flash_getpagesize
 261              		.syntax unified
 262              		.thumb
 263              		.thumb_func
 264              		.fpu fpv4-sp-d16
 265              		.type	stm32_flash_getpagesize, %function
 266              	stm32_flash_getpagesize:
 267              	.LFB332:
 268              		.loc 1 301 0
 269              		.cfi_startproc
 270              		@ args = 0, pretend = 0, frame = 0
 271              		@ frame_needed = 0, uses_anonymous_args = 0
 272              		@ link register save eliminated.
 273              	.LVL11:
 274              		.loc 1 308 0
 275 0000 014B     		ldr	r3, .L24
 276 0002 53F82000 		ldr	r0, [r3, r0, lsl #2]
 277              	.LVL12:
 278 0006 7047     		bx	lr
 279              	.L25:
 280              		.align	2
 281              	.L24:
 282 0008 00000000 		.word	.LANCHOR3
 283              		.cfi_endproc
 284              	.LFE332:
 285              		.size	stm32_flash_getpagesize, .-stm32_flash_getpagesize
ARM GAS  /tmp/ccrP6wFi.s 			page 6


 286              		.section	.text.stm32_flash_getnumpages,"ax",%progbits
 287              		.align	1
 288              		.global	stm32_flash_getnumpages
 289              		.syntax unified
 290              		.thumb
 291              		.thumb_func
 292              		.fpu fpv4-sp-d16
 293              		.type	stm32_flash_getnumpages, %function
 294              	stm32_flash_getnumpages:
 295              	.LFB333:
 296              		.loc 1 314 0
 297              		.cfi_startproc
 298              		@ args = 0, pretend = 0, frame = 0
 299              		@ frame_needed = 0, uses_anonymous_args = 0
 300              		@ link register save eliminated.
 301              		.loc 1 316 0
 302 0000 1820     		movs	r0, #24
 303 0002 7047     		bx	lr
 304              		.cfi_endproc
 305              	.LFE333:
 306              		.size	stm32_flash_getnumpages, .-stm32_flash_getnumpages
 307              		.section	.text.stm32_flash_ispageerased,"ax",%progbits
 308              		.align	1
 309              		.global	stm32_flash_ispageerased
 310              		.syntax unified
 311              		.thumb
 312              		.thumb_func
 313              		.fpu fpv4-sp-d16
 314              		.type	stm32_flash_ispageerased, %function
 315              	stm32_flash_ispageerased:
 316              	.LFB334:
 317              		.loc 1 319 0
 318              		.cfi_startproc
 319              		@ args = 0, pretend = 0, frame = 0
 320              		@ frame_needed = 0, uses_anonymous_args = 0
 321              	.LVL13:
 322              		.loc 1 323 0
 323 0000 1728     		cmp	r0, #23
 324              		.loc 1 319 0
 325 0002 10B5     		push	{r4, lr}
 326              		.cfi_def_cfa_offset 8
 327              		.cfi_offset 4, -8
 328              		.cfi_offset 14, -4
 329              		.loc 1 319 0
 330 0004 0446     		mov	r4, r0
 331              		.loc 1 323 0
 332 0006 01D9     		bls	.L28
 333              	.LVL14:
 334              	.L31:
 335              		.loc 1 324 0
 336 0008 0020     		movs	r0, #0
 337 000a 10BD     		pop	{r4, pc}
 338              	.LVL15:
 339              	.L28:
 340              	.LBB72:
 341              	.LBB73:
 342              		.loc 1 327 0
ARM GAS  /tmp/ccrP6wFi.s 			page 7


 343 000c FFF7FEFF 		bl	stm32_flash_getpageaddr
 344              	.LVL16:
 345              	.LBB74:
 346              	.LBB75:
 347              		.loc 1 306 0
 348 0010 064B     		ldr	r3, .L33
 349 0012 53F82430 		ldr	r3, [r3, r4, lsl #2]
 350              	.LVL17:
 351 0016 1844     		add	r0, r0, r3
 352              	.LVL18:
 353              	.L30:
 354 0018 C21A     		subs	r2, r0, r3
 355              	.LVL19:
 356              	.LBE75:
 357              	.LBE74:
 358              		.loc 1 327 0
 359 001a 0BB9     		cbnz	r3, .L32
 360              		.loc 1 335 0
 361 001c 0120     		movs	r0, #1
 362              	.LBE73:
 363              	.LBE72:
 364              		.loc 1 336 0
 365 001e 10BD     		pop	{r4, pc}
 366              	.LVL20:
 367              	.L32:
 368              	.LBB80:
 369              	.LBB79:
 370              	.LBB76:
 371              	.LBB77:
 372              	.LBB78:
 373              		.loc 1 174 0
 374              		.syntax unified
 375              	@ 174 "../../libraries/AP_HAL_ChibiOS/hwdef/common/flash.c" 1
 376 0020 1268     			ldr r2, [r2]
 377              		
 378              	@ 0 "" 2
 379              	.LVL21:
 380              		.thumb
 381              		.syntax unified
 382              	.LBE78:
 383              	.LBE77:
 384              		.loc 1 330 0
 385 0022 0132     		adds	r2, r2, #1
 386 0024 F0D1     		bne	.L31
 387              	.LBE76:
 388              		.loc 1 328 0
 389 0026 043B     		subs	r3, r3, #4
 390              	.LVL22:
 391 0028 F6E7     		b	.L30
 392              	.L34:
 393 002a 00BF     		.align	2
 394              	.L33:
 395 002c 00000000 		.word	.LANCHOR3
 396              	.LBE79:
 397              	.LBE80:
 398              		.cfi_endproc
 399              	.LFE334:
ARM GAS  /tmp/ccrP6wFi.s 			page 8


 400              		.size	stm32_flash_ispageerased, .-stm32_flash_ispageerased
 401              		.section	.text.stm32_flash_erasepage,"ax",%progbits
 402              		.align	1
 403              		.global	stm32_flash_erasepage
 404              		.syntax unified
 405              		.thumb
 406              		.thumb_func
 407              		.fpu fpv4-sp-d16
 408              		.type	stm32_flash_erasepage, %function
 409              	stm32_flash_erasepage:
 410              	.LFB335:
 411              		.loc 1 346 0
 412              		.cfi_startproc
 413              		@ args = 0, pretend = 0, frame = 0
 414              		@ frame_needed = 0, uses_anonymous_args = 0
 415              	.LVL23:
 416              		.loc 1 347 0
 417 0000 1728     		cmp	r0, #23
 418              		.loc 1 346 0
 419 0002 38B5     		push	{r3, r4, r5, lr}
 420              		.cfi_def_cfa_offset 16
 421              		.cfi_offset 3, -16
 422              		.cfi_offset 4, -12
 423              		.cfi_offset 5, -8
 424              		.cfi_offset 14, -4
 425              		.loc 1 346 0
 426 0004 0446     		mov	r4, r0
 427              		.loc 1 347 0
 428 0006 30D8     		bhi	.L36
 429              		.loc 1 352 0
 430 0008 FFF7FEFF 		bl	hrt_millis32
 431              	.LVL24:
 432 000c 184D     		ldr	r5, .L37
 433 000e 2860     		str	r0, [r5]
 434              		.loc 1 358 0
 435 0010 FFF7FEFF 		bl	stm32_flash_wait_idle
 436              	.LVL25:
 437              		.loc 1 359 0
 438 0014 FFF7FEFF 		bl	stm32_flash_unlock
 439              	.LVL26:
 440              	.LBB81:
 441              	.LBB82:
 442              		.loc 1 205 0
 443 0018 1649     		ldr	r1, .L37+4
 444 001a F323     		movs	r3, #243
 445 001c CB60     		str	r3, [r1, #12]
 446              	.LVL27:
 447              	.LBE82:
 448              	.LBE81:
 449              		.loc 1 396 0
 450 001e 0C23     		movs	r3, #12
 451 0020 B4FBF3F2 		udiv	r2, r4, r3
 452 0024 03FB1240 		mls	r0, r3, r2, r4
 453 0028 D301     		lsls	r3, r2, #7
 454 002a 43EAC003 		orr	r3, r3, r0, lsl #3
 455              		.loc 1 399 0
 456 002e DBB2     		uxtb	r3, r3
ARM GAS  /tmp/ccrP6wFi.s 			page 9


 457 0030 43F40073 		orr	r3, r3, #512
 458 0034 43F00203 		orr	r3, r3, #2
 459 0038 0B61     		str	r3, [r1, #16]
 460              		.loc 1 400 0
 461 003a 0B69     		ldr	r3, [r1, #16]
 462 003c 43F48033 		orr	r3, r3, #65536
 463 0040 0B61     		str	r3, [r1, #16]
 464              		.loc 1 405 0
 465 0042 FFF7FEFF 		bl	stm32_flash_wait_idle
 466              	.LVL28:
 467              		.loc 1 407 0
 468 0046 2046     		mov	r0, r4
 469 0048 FFF7FEFF 		bl	stm32_flash_getpageaddr
 470              	.LVL29:
 471              	.LBB83:
 472              	.LBB84:
 473              		.loc 1 306 0
 474 004c 0A4B     		ldr	r3, .L37+8
 475              	.LBE84:
 476              	.LBE83:
 477              		.loc 1 407 0
 478 004e 53F82410 		ldr	r1, [r3, r4, lsl #2]
 479 0052 FFF7FEFF 		bl	stm32_cacheBufferInvalidate
 480              	.LVL30:
 481              		.loc 1 409 0
 482 0056 FFF7FEFF 		bl	stm32_flash_lock
 483              	.LVL31:
 484              		.loc 1 415 0
 485 005a FFF7FEFF 		bl	hrt_millis32
 486              	.LVL32:
 487 005e 2860     		str	r0, [r5]
 488              		.loc 1 418 0
 489 0060 2046     		mov	r0, r4
 490              		.loc 1 419 0
 491 0062 BDE83840 		pop	{r3, r4, r5, lr}
 492              		.cfi_remember_state
 493              		.cfi_restore 14
 494              		.cfi_restore 5
 495              		.cfi_restore 4
 496              		.cfi_restore 3
 497              		.cfi_def_cfa_offset 0
 498              	.LVL33:
 499              		.loc 1 418 0
 500 0066 FFF7FEBF 		b	stm32_flash_ispageerased
 501              	.LVL34:
 502              	.L36:
 503              		.cfi_restore_state
 504              		.loc 1 419 0
 505 006a 0020     		movs	r0, #0
 506              	.LVL35:
 507 006c 38BD     		pop	{r3, r4, r5, pc}
 508              	.LVL36:
 509              	.L38:
 510 006e 00BF     		.align	2
 511              	.L37:
 512 0070 00000000 		.word	.LANCHOR4
 513 0074 003C0240 		.word	1073888256
ARM GAS  /tmp/ccrP6wFi.s 			page 10


 514 0078 00000000 		.word	.LANCHOR3
 515              		.cfi_endproc
 516              	.LFE335:
 517              		.size	stm32_flash_erasepage, .-stm32_flash_erasepage
 518              		.section	.text.stm32_flash_write,"ax",%progbits
 519              		.align	1
 520              		.global	stm32_flash_write
 521              		.syntax unified
 522              		.thumb
 523              		.thumb_func
 524              		.fpu fpv4-sp-d16
 525              		.type	stm32_flash_write, %function
 526              	stm32_flash_write:
 527              	.LFB337:
 528              		.loc 1 649 0
 529              		.cfi_startproc
 530              		@ args = 0, pretend = 0, frame = 0
 531              		@ frame_needed = 0, uses_anonymous_args = 0
 532              	.LVL37:
 533 0000 2DE9F843 		push	{r3, r4, r5, r6, r7, r8, r9, lr}
 534              		.cfi_def_cfa_offset 32
 535              		.cfi_offset 3, -32
 536              		.cfi_offset 4, -28
 537              		.cfi_offset 5, -24
 538              		.cfi_offset 6, -20
 539              		.cfi_offset 7, -16
 540              		.cfi_offset 8, -12
 541              		.cfi_offset 9, -8
 542              		.cfi_offset 14, -4
 543              	.LBB102:
 544              	.LBB103:
 545              		.loc 1 492 0
 546 0004 12F00103 		ands	r3, r2, #1
 547              	.LBE103:
 548              	.LBE102:
 549              		.loc 1 649 0
 550 0008 1546     		mov	r5, r2
 551              	.LBB127:
 552              	.LBB125:
 553              		.loc 1 492 0
 554 000a 40D1     		bne	.L53
 555              		.loc 1 496 0
 556 000c 8218     		adds	r2, r0, r2
 557              	.LVL38:
 558 000e B2F1026F 		cmp	r2, #136314880
 559 0012 3CD2     		bcs	.L53
 560              		.loc 1 502 0
 561 0014 2C4B     		ldr	r3, .L54
 562 0016 1B68     		ldr	r3, [r3]
 563 0018 13F00103 		ands	r3, r3, #1
 564 001c 37D0     		beq	.L53
 565              	.LBB104:
 566              	.LBB105:
 567              		.loc 1 205 0
 568 001e 2B4C     		ldr	r4, .L54+4
 569              	.LBE105:
 570              	.LBE104:
ARM GAS  /tmp/ccrP6wFi.s 			page 11


 571              		.loc 1 510 0
 572 0020 FFF7FEFF 		bl	stm32_flash_unlock
 573              	.LVL39:
 574              	.LBB107:
 575              	.LBB106:
 576              		.loc 1 205 0
 577 0024 F323     		movs	r3, #243
 578 0026 E360     		str	r3, [r4, #12]
 579              	.LBE106:
 580              	.LBE107:
 581              		.loc 1 515 0
 582 0028 FFF7FEFF 		bl	stm32_flash_wait_idle
 583              	.LVL40:
 584              	.LBB108:
 585              		.loc 1 520 0
 586 002c 40F20127 		movw	r7, #513
 587              	.LVL41:
 588              	.L41:
 589              	.LBE108:
 590              		.loc 1 518 0
 591 0030 032D     		cmp	r5, #3
 592 0032 01D9     		bls	.L44
 593 0034 8307     		lsls	r3, r0, #30
 594 0036 13D0     		beq	.L45
 595              	.L44:
 596 0038 244C     		ldr	r4, .L54+4
 597              	.LBE125:
 598              	.LBE127:
 599              		.loc 1 649 0
 600 003a 0F46     		mov	r7, r1
 601 003c 401A     		subs	r0, r0, r1
 602              	.LVL42:
 603              	.LBB128:
 604              	.LBB126:
 605              		.loc 1 544 0
 606 003e 40F20118 		movw	r8, #257
 607              	.LVL43:
 608              	.L46:
 609 0042 EB1B     		subs	r3, r5, r7
 610 0044 0B44     		add	r3, r3, r1
 611              		.loc 1 542 0
 612 0046 012B     		cmp	r3, #1
 613 0048 00EB0706 		add	r6, r0, r7
 614              	.LVL44:
 615              		.loc 1 543 0
 616 004c 2369     		ldr	r3, [r4, #16]
 617              		.loc 1 542 0
 618 004e 24D8     		bhi	.L47
 619              		.loc 1 563 0
 620 0050 23F00103 		bic	r3, r3, #1
 621 0054 2361     		str	r3, [r4, #16]
 622              		.loc 1 565 0
 623 0056 FFF7FEFF 		bl	stm32_flash_lock
 624              	.LVL45:
 625              		.loc 1 569 0
 626 005a 0120     		movs	r0, #1
 627 005c BDE8F883 		pop	{r3, r4, r5, r6, r7, r8, r9, pc}
ARM GAS  /tmp/ccrP6wFi.s 			page 12


 628              	.LVL46:
 629              	.L45:
 630              	.LBB115:
 631              		.loc 1 519 0
 632 0060 2369     		ldr	r3, [r4, #16]
 633 0062 23F44073 		bic	r3, r3, #768
 634 0066 2361     		str	r3, [r4, #16]
 635              		.loc 1 520 0
 636 0068 2369     		ldr	r3, [r4, #16]
 637 006a 3B43     		orrs	r3, r3, r7
 638 006c 2361     		str	r3, [r4, #16]
 639              		.loc 1 521 0
 640 006e 51F8046B 		ldr	r6, [r1], #4
 641              	.LVL47:
 642              	.LBB109:
 643              	.LBB110:
 644              		.loc 1 181 0
 645 0072 0660     		str	r6, [r0]
 646              	.LVL48:
 647              	.LBE110:
 648              	.LBE109:
 649              	.LBB111:
 650              	.LBB112:
 651              		.loc 2 879 0
 652              		.syntax unified
 653              	@ 879 "../../modules/ChibiOS/os/common/ext/ARM/CMSIS/Core/Include/cmsis_gcc.h" 1
 654 0074 BFF34F8F 		dsb 0xF
 655              	@ 0 "" 2
 656              		.thumb
 657              		.syntax unified
 658              	.LBE112:
 659              	.LBE111:
 660              		.loc 1 528 0
 661 0078 FFF7FEFF 		bl	stm32_flash_wait_idle
 662              	.LVL49:
 663              	.LBB113:
 664              	.LBB114:
 665              		.loc 1 174 0
 666              		.syntax unified
 667              	@ 174 "../../libraries/AP_HAL_ChibiOS/hwdef/common/flash.c" 1
 668 007c 0368     			ldr r3, [r0]
 669              		
 670              	@ 0 "" 2
 671              	.LVL50:
 672              		.thumb
 673              		.syntax unified
 674              	.LBE114:
 675              	.LBE113:
 676              		.loc 1 531 0
 677 007e 9E42     		cmp	r6, r3
 678 0080 08D0     		beq	.L42
 679              	.LVL51:
 680              	.L52:
 681              	.L43:
 682              	.LBE115:
 683              		.loc 1 554 0
 684 0082 2369     		ldr	r3, [r4, #16]
ARM GAS  /tmp/ccrP6wFi.s 			page 13


 685 0084 23F00103 		bic	r3, r3, #1
 686 0088 2361     		str	r3, [r4, #16]
 687              		.loc 1 572 0
 688 008a FFF7FEFF 		bl	stm32_flash_lock
 689              	.LVL52:
 690              	.L53:
 691              		.loc 1 576 0
 692 008e 0020     		movs	r0, #0
 693 0090 BDE8F883 		pop	{r3, r4, r5, r6, r7, r8, r9, pc}
 694              	.LVL53:
 695              	.L42:
 696              	.LBB116:
 697              		.loc 1 536 0
 698 0094 043D     		subs	r5, r5, #4
 699              	.LVL54:
 700              		.loc 1 538 0
 701 0096 0430     		adds	r0, r0, #4
 702              	.LVL55:
 703 0098 CAE7     		b	.L41
 704              	.LVL56:
 705              	.L47:
 706              	.LBE116:
 707              		.loc 1 543 0
 708 009a 23F44073 		bic	r3, r3, #768
 709 009e 2361     		str	r3, [r4, #16]
 710              		.loc 1 544 0
 711 00a0 2369     		ldr	r3, [r4, #16]
 712 00a2 43EA0803 		orr	r3, r3, r8
 713 00a6 2361     		str	r3, [r4, #16]
 714 00a8 B946     		mov	r9, r7
 715              	.LVL57:
 716              	.LBB117:
 717              	.LBB118:
 718              		.loc 1 167 0
 719 00aa 37F8023B 		ldrh	r3, [r7], #2
 720              	.LVL58:
 721              		.syntax unified
 722              	@ 167 "../../libraries/AP_HAL_ChibiOS/hwdef/common/flash.c" 1
 723 00ae 3380     			strh r3, [r6]
 724              		
 725              	@ 0 "" 2
 726              	.LVL59:
 727              		.thumb
 728              		.syntax unified
 729              	.LBE118:
 730              	.LBE117:
 731              	.LBB119:
 732              	.LBB120:
 733              		.loc 2 879 0
 734              		.syntax unified
 735              	@ 879 "../../modules/ChibiOS/os/common/ext/ARM/CMSIS/Core/Include/cmsis_gcc.h" 1
 736 00b0 BFF34F8F 		dsb 0xF
 737              	@ 0 "" 2
 738              		.thumb
 739              		.syntax unified
 740              	.LBE120:
 741              	.LBE119:
ARM GAS  /tmp/ccrP6wFi.s 			page 14


 742              		.loc 1 551 0
 743 00b4 FFF7FEFF 		bl	stm32_flash_wait_idle
 744              	.LVL60:
 745              	.LBB121:
 746              	.LBB122:
 747              		.loc 1 160 0
 748              		.syntax unified
 749              	@ 160 "../../libraries/AP_HAL_ChibiOS/hwdef/common/flash.c" 1
 750 00b8 3688     			ldrh r6, [r6]
 751              		
 752              	@ 0 "" 2
 753              	.LVL61:
 754              		.thumb
 755              		.syntax unified
 756              	.LBE122:
 757              	.LBE121:
 758              		.loc 1 553 0
 759 00ba B9F80030 		ldrh	r3, [r9]
 760              	.LBB124:
 761              	.LBB123:
 762              		.loc 1 160 0
 763 00be B6B2     		uxth	r6, r6
 764              	.LVL62:
 765              	.LBE123:
 766              	.LBE124:
 767              		.loc 1 553 0
 768 00c0 B342     		cmp	r3, r6
 769 00c2 BED0     		beq	.L46
 770 00c4 DDE7     		b	.L52
 771              	.L55:
 772 00c6 00BF     		.align	2
 773              	.L54:
 774 00c8 00380240 		.word	1073887232
 775 00cc 003C0240 		.word	1073888256
 776              	.LBE126:
 777              	.LBE128:
 778              		.cfi_endproc
 779              	.LFE337:
 780              		.size	stm32_flash_write, .-stm32_flash_write
 781              		.section	.text.stm32_flash_keep_unlocked,"ax",%progbits
 782              		.align	1
 783              		.global	stm32_flash_keep_unlocked
 784              		.syntax unified
 785              		.thumb
 786              		.thumb_func
 787              		.fpu fpv4-sp-d16
 788              		.type	stm32_flash_keep_unlocked, %function
 789              	stm32_flash_keep_unlocked:
 790              	.LFB338:
 791              		.loc 1 662 0
 792              		.cfi_startproc
 793              		@ args = 0, pretend = 0, frame = 0
 794              		@ frame_needed = 0, uses_anonymous_args = 0
 795              	.LVL63:
 796 0000 0849     		ldr	r1, .L62
 797 0002 08B5     		push	{r3, lr}
 798              		.cfi_def_cfa_offset 8
ARM GAS  /tmp/ccrP6wFi.s 			page 15


 799              		.cfi_offset 3, -8
 800              		.cfi_offset 14, -4
 801              		.loc 1 663 0
 802 0004 0B78     		ldrb	r3, [r1]	@ zero_extendqisi2
 803 0006 28B1     		cbz	r0, .L57
 804              		.loc 1 663 0 is_stmt 0 discriminator 1
 805 0008 53B9     		cbnz	r3, .L56
 806              		.loc 1 664 0 is_stmt 1
 807 000a FFF7FEFF 		bl	stm32_flash_unlock
 808              	.LVL64:
 809              		.loc 1 665 0
 810 000e 0123     		movs	r3, #1
 811 0010 0B70     		strb	r3, [r1]
 812 0012 08BD     		pop	{r3, pc}
 813              	.L57:
 814              		.loc 1 666 0 discriminator 1
 815 0014 23B1     		cbz	r3, .L56
 816              		.loc 1 670 0
 817 0016 BDE80840 		pop	{r3, lr}
 818              		.cfi_remember_state
 819              		.cfi_restore 14
 820              		.cfi_restore 3
 821              		.cfi_def_cfa_offset 0
 822              		.loc 1 667 0
 823 001a 0870     		strb	r0, [r1]
 824              		.loc 1 668 0
 825 001c FFF7FEBF 		b	stm32_flash_lock
 826              	.LVL65:
 827              	.L56:
 828              		.cfi_restore_state
 829 0020 08BD     		pop	{r3, pc}
 830              	.L63:
 831 0022 00BF     		.align	2
 832              	.L62:
 833 0024 00000000 		.word	.LANCHOR0
 834              		.cfi_endproc
 835              	.LFE338:
 836              		.size	stm32_flash_keep_unlocked, .-stm32_flash_keep_unlocked
 837              		.section	.text.stm32_flash_recent_erase,"ax",%progbits
 838              		.align	1
 839              		.global	stm32_flash_recent_erase
 840              		.syntax unified
 841              		.thumb
 842              		.thumb_func
 843              		.fpu fpv4-sp-d16
 844              		.type	stm32_flash_recent_erase, %function
 845              	stm32_flash_recent_erase:
 846              	.LFB339:
 847              		.loc 1 677 0
 848              		.cfi_startproc
 849              		@ args = 0, pretend = 0, frame = 0
 850              		@ frame_needed = 0, uses_anonymous_args = 0
 851 0000 08B5     		push	{r3, lr}
 852              		.cfi_def_cfa_offset 8
 853              		.cfi_offset 3, -8
 854              		.cfi_offset 14, -4
 855              		.loc 1 678 0
ARM GAS  /tmp/ccrP6wFi.s 			page 16


 856 0002 FFF7FEFF 		bl	hrt_millis32
 857              	.LVL66:
 858 0006 054B     		ldr	r3, .L65
 859 0008 1B68     		ldr	r3, [r3]
 860 000a C01A     		subs	r0, r0, r3
 861              		.loc 1 679 0
 862 000c 40F6B733 		movw	r3, #2999
 863 0010 9842     		cmp	r0, r3
 864 0012 8CBF     		ite	hi
 865 0014 0020     		movhi	r0, #0
 866 0016 0120     		movls	r0, #1
 867 0018 08BD     		pop	{r3, pc}
 868              	.L66:
 869 001a 00BF     		.align	2
 870              	.L65:
 871 001c 00000000 		.word	.LANCHOR4
 872              		.cfi_endproc
 873              	.LFE339:
 874              		.size	stm32_flash_recent_erase, .-stm32_flash_recent_erase
 875              		.global	_flash_fail_buf
 876              		.global	_flash_fail_count
 877              		.global	_flash_fail_addr
 878              		.global	_flash_fail_line
 879              		.section	.bss._flash_fail_addr,"aw",%nobits
 880              		.align	2
 881              		.type	_flash_fail_addr, %object
 882              		.size	_flash_fail_addr, 4
 883              	_flash_fail_addr:
 884 0000 00000000 		.space	4
 885              		.section	.bss._flash_fail_buf,"aw",%nobits
 886              		.align	2
 887              		.type	_flash_fail_buf, %object
 888              		.size	_flash_fail_buf, 4
 889              	_flash_fail_buf:
 890 0000 00000000 		.space	4
 891              		.section	.bss._flash_fail_count,"aw",%nobits
 892              		.align	2
 893              		.type	_flash_fail_count, %object
 894              		.size	_flash_fail_count, 4
 895              	_flash_fail_count:
 896 0000 00000000 		.space	4
 897              		.section	.bss._flash_fail_line,"aw",%nobits
 898              		.align	2
 899              		.type	_flash_fail_line, %object
 900              		.size	_flash_fail_line, 4
 901              	_flash_fail_line:
 902 0000 00000000 		.space	4
 903              		.section	.bss.flash_keep_unlocked,"aw",%nobits
 904              		.set	.LANCHOR0,. + 0
 905              		.type	flash_keep_unlocked, %object
 906              		.size	flash_keep_unlocked, 1
 907              	flash_keep_unlocked:
 908 0000 00       		.space	1
 909              		.section	.bss.flash_pageaddr,"aw",%nobits
 910              		.align	2
 911              		.set	.LANCHOR2,. + 0
 912              		.type	flash_pageaddr, %object
ARM GAS  /tmp/ccrP6wFi.s 			page 17


 913              		.size	flash_pageaddr, 96
 914              	flash_pageaddr:
 915 0000 00000000 		.space	96
 915      00000000 
 915      00000000 
 915      00000000 
 915      00000000 
 916              		.section	.bss.flash_pageaddr_initialised,"aw",%nobits
 917              		.set	.LANCHOR1,. + 0
 918              		.type	flash_pageaddr_initialised, %object
 919              		.size	flash_pageaddr_initialised, 1
 920              	flash_pageaddr_initialised:
 921 0000 00       		.space	1
 922              		.section	.bss.last_erase_ms,"aw",%nobits
 923              		.align	2
 924              		.set	.LANCHOR4,. + 0
 925              		.type	last_erase_ms, %object
 926              		.size	last_erase_ms, 4
 927              	last_erase_ms:
 928 0000 00000000 		.space	4
 929              		.section	.rodata.flash_memmap,"a",%progbits
 930              		.align	2
 931              		.set	.LANCHOR3,. + 0
 932              		.type	flash_memmap, %object
 933              		.size	flash_memmap, 96
 934              	flash_memmap:
 935 0000 00400000 		.word	16384
 936 0004 00400000 		.word	16384
 937 0008 00400000 		.word	16384
 938 000c 00400000 		.word	16384
 939 0010 00000100 		.word	65536
 940 0014 00000200 		.word	131072
 941 0018 00000200 		.word	131072
 942 001c 00000200 		.word	131072
 943 0020 00000200 		.word	131072
 944 0024 00000200 		.word	131072
 945 0028 00000200 		.word	131072
 946 002c 00000200 		.word	131072
 947 0030 00400000 		.word	16384
 948 0034 00400000 		.word	16384
 949 0038 00400000 		.word	16384
 950 003c 00400000 		.word	16384
 951 0040 00000100 		.word	65536
 952 0044 00000200 		.word	131072
 953 0048 00000200 		.word	131072
 954 004c 00000200 		.word	131072
 955 0050 00000200 		.word	131072
 956 0054 00000200 		.word	131072
 957 0058 00000200 		.word	131072
 958 005c 00000200 		.word	131072
 959              		.text
 960              	.Letext0:
 961              		.file 3 "/opt/gcc-arm-none-eabi-6-2017-q2-update/lib/gcc/arm-none-eabi/6.3.1/include/stddef.h"
 962              		.file 4 "/opt/gcc-arm-none-eabi-6-2017-q2-update/arm-none-eabi/include/machine/_default_types.h"
 963              		.file 5 "/opt/gcc-arm-none-eabi-6-2017-q2-update/arm-none-eabi/include/sys/_stdint.h"
 964              		.file 6 "/opt/gcc-arm-none-eabi-6-2017-q2-update/arm-none-eabi/include/stdint.h"
 965              		.file 7 "../../modules/ChibiOS/os/common/ports/ARMCMx/compilers/GCC/chtypes.h"
ARM GAS  /tmp/ccrP6wFi.s 			page 18


 966              		.file 8 "../../modules/ChibiOS/os/rt/include/chsystypes.h"
 967              		.file 9 "../../modules/ChibiOS/os/rt/include/chschd.h"
 968              		.file 10 "../../modules/ChibiOS/os/rt/include/chtime.h"
 969              		.file 11 "../../modules/ChibiOS/os/common/ext/ARM/CMSIS/Core/Include/core_cm4.h"
 970              		.file 12 "../../modules/ChibiOS/os/common/ext/ST/STM32F4xx/system_stm32f4xx.h"
 971              		.file 13 "../../modules/ChibiOS/os/common/ext/ST/STM32F4xx/stm32f427xx.h"
 972              		.file 14 "../../modules/ChibiOS/os/common/ports/ARMCMx/chcore.h"
 973              		.file 15 "../../modules/ChibiOS/os/common/ports/ARMCMx/chcore_v7m.h"
 974              		.file 16 "../../modules/ChibiOS/os/hal/ports/STM32/LLD/TIMv1/stm32_tim.h"
 975              		.file 17 "../../modules/ChibiOS/os/rt/include/chtm.h"
 976              		.file 18 "../../modules/ChibiOS/os/rt/include/chsem.h"
 977              		.file 19 "../../modules/ChibiOS/os/rt/include/chmtx.h"
 978              		.file 20 "../../modules/ChibiOS/os/rt/include/chsys.h"
 979              		.file 21 "../../modules/ChibiOS/os/rt/include/chregistry.h"
 980              		.file 22 "../../modules/ChibiOS/os/rt/include/chevents.h"
 981              		.file 23 "../../modules/ChibiOS/os/oslib/include/chmemcore.h"
 982              		.file 24 "../../modules/ChibiOS/os/oslib/include/chmempools.h"
 983              		.file 25 "../../modules/ChibiOS/os/oslib/include/chfactory.h"
 984              		.file 26 "../../modules/ChibiOS/os/hal/ports/STM32/LLD/DMAv2/stm32_dma.h"
 985              		.file 27 "../../modules/ChibiOS/os/hal/include/hal_ioblock.h"
 986              		.file 28 "../../modules/ChibiOS/os/hal/include/hal_queues.h"
 987              		.file 29 "../../modules/ChibiOS/os/hal/include/hal_pal.h"
 988              		.file 30 "../../modules/ChibiOS/os/hal/ports/STM32/LLD/GPIOv2/stm32_gpio.h"
 989              		.file 31 "../../modules/ChibiOS/os/hal/ports/STM32/LLD/GPIOv2/hal_pal_lld.h"
 990              		.file 32 "../../modules/ChibiOS/os/hal/include/hal_adc.h"
 991              		.file 33 "../../modules/ChibiOS/os/hal/ports/STM32/LLD/ADCv2/hal_adc_lld.h"
 992              		.file 34 "../../modules/ChibiOS/os/hal/include/hal_i2c.h"
 993              		.file 35 "../../modules/ChibiOS/os/hal/ports/STM32/LLD/I2Cv1/hal_i2c_lld.h"
 994              		.file 36 "../../modules/ChibiOS/os/hal/include/hal_pwm.h"
 995              		.file 37 "../../modules/ChibiOS/os/hal/ports/STM32/LLD/TIMv1/hal_pwm_lld.h"
 996              		.file 38 "../../modules/ChibiOS/os/hal/include/hal_serial.h"
 997              		.file 39 "../../modules/ChibiOS/os/hal/ports/STM32/LLD/USARTv1/hal_serial_lld.h"
 998              		.file 40 "../../modules/ChibiOS/os/hal/include/hal_sdc.h"
 999              		.file 41 "../../modules/ChibiOS/os/hal/ports/STM32/LLD/SDIOv1/hal_sdc_lld.h"
 1000              		.file 42 "../../modules/ChibiOS/os/hal/include/hal_spi.h"
 1001              		.file 43 "../../modules/ChibiOS/os/hal/ports/STM32/LLD/SPIv1/hal_spi_lld.h"
 1002              		.file 44 "../../modules/ChibiOS/os/hal/include/hal_usb.h"
 1003              		.file 45 "../../modules/ChibiOS/os/hal/ports/STM32/LLD/OTGv1/hal_usb_lld.h"
 1004              		.file 46 "../../modules/ChibiOS/os/hal/ports/STM32/LLD/OTGv1/stm32_otg.h"
 1005              		.file 47 "/opt/gcc-arm-none-eabi-6-2017-q2-update/arm-none-eabi/include/sys/lock.h"
 1006              		.file 48 "/opt/gcc-arm-none-eabi-6-2017-q2-update/arm-none-eabi/include/sys/_types.h"
 1007              		.file 49 "/opt/gcc-arm-none-eabi-6-2017-q2-update/arm-none-eabi/include/sys/reent.h"
 1008              		.file 50 "../../libraries/AP_HAL_ChibiOS/hwdef/common/stm32_util.h"
 1009              		.file 51 "../../libraries/AP_HAL_ChibiOS/hwdef/common/hrt.h"