ARM GAS  /tmp/ccgPrfhI.s 			page 1


   1              		.cpu cortex-m4
   2              		.eabi_attribute 27, 1
   3              		.eabi_attribute 28, 1
   4              		.eabi_attribute 20, 1
   5              		.eabi_attribute 21, 1
   6              		.eabi_attribute 23, 3
   7              		.eabi_attribute 24, 1
   8              		.eabi_attribute 25, 1
   9              		.eabi_attribute 26, 1
  10              		.eabi_attribute 30, 4
  11              		.eabi_attribute 34, 1
  12              		.eabi_attribute 18, 4
  13              		.file	"hal_serial_lld.c"
  14              		.text
  15              	.Ltext0:
  16              		.cfi_sections	.debug_frame
  17              		.section	.text.notify2,"ax",%progbits
  18              		.align	1
  19              		.syntax unified
  20              		.thumb
  21              		.thumb_func
  22              		.fpu fpv4-sp-d16
  23              		.type	notify2, %function
  24              	notify2:
  25              	.LFB327:
  26              		.file 1 "../../modules/ChibiOS/os/hal/ports/STM32/LLD/USARTv1/hal_serial_lld.c"
  27              		.loc 1 248 0
  28              		.cfi_startproc
  29              		@ args = 0, pretend = 0, frame = 0
  30              		@ frame_needed = 0, uses_anonymous_args = 0
  31              		@ link register save eliminated.
  32              	.LVL0:
  33              		.loc 1 251 0
  34 0000 024A     		ldr	r2, .L2
  35 0002 D368     		ldr	r3, [r2, #12]
  36 0004 43F0C003 		orr	r3, r3, #192
  37 0008 D360     		str	r3, [r2, #12]
  38 000a 7047     		bx	lr
  39              	.L3:
  40              		.align	2
  41              	.L2:
  42 000c 00440040 		.word	1073759232
  43              		.cfi_endproc
  44              	.LFE327:
  45              		.size	notify2, .-notify2
  46              		.section	.text.notify3,"ax",%progbits
  47              		.align	1
  48              		.syntax unified
  49              		.thumb
  50              		.thumb_func
  51              		.fpu fpv4-sp-d16
  52              		.type	notify3, %function
  53              	notify3:
  54              	.LFB328:
  55              		.loc 1 256 0
  56              		.cfi_startproc
  57              		@ args = 0, pretend = 0, frame = 0
ARM GAS  /tmp/ccgPrfhI.s 			page 2


  58              		@ frame_needed = 0, uses_anonymous_args = 0
  59              		@ link register save eliminated.
  60              	.LVL1:
  61              		.loc 1 259 0
  62 0000 024A     		ldr	r2, .L5
  63 0002 D368     		ldr	r3, [r2, #12]
  64 0004 43F0C003 		orr	r3, r3, #192
  65 0008 D360     		str	r3, [r2, #12]
  66 000a 7047     		bx	lr
  67              	.L6:
  68              		.align	2
  69              	.L5:
  70 000c 00480040 		.word	1073760256
  71              		.cfi_endproc
  72              	.LFE328:
  73              		.size	notify3, .-notify3
  74              		.section	.text.serve_interrupt,"ax",%progbits
  75              		.align	1
  76              		.syntax unified
  77              		.thumb
  78              		.thumb_func
  79              		.fpu fpv4-sp-d16
  80              		.type	serve_interrupt, %function
  81              	serve_interrupt:
  82              	.LFB326:
  83              		.loc 1 184 0
  84              		.cfi_startproc
  85              		@ args = 0, pretend = 0, frame = 0
  86              		@ frame_needed = 0, uses_anonymous_args = 0
  87              	.LVL2:
  88 0000 2DE9F041 		push	{r4, r5, r6, r7, r8, lr}
  89              		.cfi_def_cfa_offset 24
  90              		.cfi_offset 4, -24
  91              		.cfi_offset 5, -20
  92              		.cfi_offset 6, -16
  93              		.cfi_offset 7, -12
  94              		.cfi_offset 8, -8
  95              		.cfi_offset 14, -4
  96              		.loc 1 185 0
  97 0004 D0F85464 		ldr	r6, [r0, #1108]
  98              	.LVL3:
  99              		.loc 1 186 0
 100 0008 F768     		ldr	r7, [r6, #12]
 101              	.LVL4:
 102              		.loc 1 187 0
 103 000a 3368     		ldr	r3, [r6]
 104              		.loc 1 190 0
 105 000c DA05     		lsls	r2, r3, #23
 106              		.loc 1 184 0
 107 000e 0546     		mov	r5, r0
 108              		.loc 1 187 0
 109 0010 9CB2     		uxth	r4, r3
 110              	.LVL5:
 111              		.loc 1 190 0
 112 0012 0DD5     		bpl	.L8
 113              	.LVL6:
 114              	.LBB164:
ARM GAS  /tmp/ccgPrfhI.s 			page 3


 115              	.LBB165:
 116              	.LBB166:
 117              	.LBB167:
 118              	.LBB168:
 119              	.LBB169:
 120              		.file 2 "../../modules/ChibiOS/os/common/ext/ARM/CMSIS/Core/Include/cmsis_gcc.h"
 121              		.loc 2 493 0
 122 0014 2023     		movs	r3, #32
 123              		.syntax unified
 124              	@ 493 "../../modules/ChibiOS/os/common/ext/ARM/CMSIS/Core/Include/cmsis_gcc.h" 1
 125 0016 83F31188 		MSR basepri, r3
 126              	@ 0 "" 2
 127              	.LVL7:
 128              		.thumb
 129              		.syntax unified
 130              	.LBE169:
 131              	.LBE168:
 132              	.LBE167:
 133              	.LBE166:
 134              	.LBE165:
 135              	.LBE164:
 136              	.LBB170:
 137              	.LBB171:
 138              		.file 3 "../../modules/ChibiOS/os/hal/osal/rt/osal.h"
 139              		.loc 3 895 0
 140 001a 4FF40071 		mov	r1, #512
 141 001e 0430     		adds	r0, r0, #4
 142              	.LVL8:
 143 0020 FFF7FEFF 		bl	chEvtBroadcastFlagsI
 144              	.LVL9:
 145              	.LBE171:
 146              	.LBE170:
 147              		.loc 1 193 0
 148 0024 6FF48073 		mvn	r3, #256
 149 0028 3360     		str	r3, [r6]
 150              	.LVL10:
 151              	.LBB172:
 152              	.LBB173:
 153              	.LBB174:
 154              	.LBB175:
 155              	.LBB176:
 156              	.LBB177:
 157              		.loc 2 493 0
 158 002a 0023     		movs	r3, #0
 159              		.syntax unified
 160              	@ 493 "../../modules/ChibiOS/os/common/ext/ARM/CMSIS/Core/Include/cmsis_gcc.h" 1
 161 002c 83F31188 		MSR basepri, r3
 162              	@ 0 "" 2
 163              	.LVL11:
 164              		.thumb
 165              		.syntax unified
 166              	.L8:
 167              	.LBE177:
 168              	.LBE176:
 169              	.LBE175:
 170              	.LBE174:
 171              	.LBE173:
ARM GAS  /tmp/ccgPrfhI.s 			page 4


 172              	.LBE172:
 173              	.LBB178:
 174              	.LBB179:
 175              	.LBB180:
 176              	.LBB181:
 177              	.LBB182:
 178              	.LBB183:
 179 0030 2023     		movs	r3, #32
 180              		.syntax unified
 181              	@ 493 "../../modules/ChibiOS/os/common/ext/ARM/CMSIS/Core/Include/cmsis_gcc.h" 1
 182 0032 83F31188 		MSR basepri, r3
 183              	@ 0 "" 2
 184              	.LVL12:
 185              		.thumb
 186              		.syntax unified
 187              	.LBE183:
 188              	.LBE182:
 189              	.LBE181:
 190              	.LBE180:
 191              	.LBE179:
 192              	.LBE178:
 193              	.LBB184:
 194              	.LBB185:
 195              	.LBB186:
 196              		.loc 1 176 0
 197 0036 05F10408 		add	r8, r5, #4
 198              	.L9:
 199              	.LBE186:
 200              	.LBE185:
 201              	.LBE184:
 202              		.loc 1 199 0
 203 003a 14F02F03 		ands	r3, r4, #47
 204 003e 33D1     		bne	.L16
 205              	.LVL13:
 206              	.LBB191:
 207              	.LBB192:
 208              	.LBB193:
 209              	.LBB194:
 210              	.LBB195:
 211              	.LBB196:
 212              		.loc 2 493 0
 213              		.syntax unified
 214              	@ 493 "../../modules/ChibiOS/os/common/ext/ARM/CMSIS/Core/Include/cmsis_gcc.h" 1
 215 0040 83F31188 		MSR basepri, r3
 216              	@ 0 "" 2
 217              	.LVL14:
 218              		.thumb
 219              		.syntax unified
 220              	.LBE196:
 221              	.LBE195:
 222              	.LBE194:
 223              	.LBE193:
 224              	.LBE192:
 225              	.LBE191:
 226              		.loc 1 214 0
 227 0044 3806     		lsls	r0, r7, #24
 228 0046 15D5     		bpl	.L17
ARM GAS  /tmp/ccgPrfhI.s 			page 5


 229              		.loc 1 214 0 is_stmt 0 discriminator 1
 230 0048 2106     		lsls	r1, r4, #24
 231 004a 13D5     		bpl	.L17
 232              	.LVL15:
 233              	.LBB197:
 234              	.LBB198:
 235              	.LBB199:
 236              	.LBB200:
 237              	.LBB201:
 238              	.LBB202:
 239              	.LBB203:
 240              		.loc 2 493 0 is_stmt 1
 241 004c 2023     		movs	r3, #32
 242              		.syntax unified
 243              	@ 493 "../../modules/ChibiOS/os/common/ext/ARM/CMSIS/Core/Include/cmsis_gcc.h" 1
 244 004e 83F31188 		MSR basepri, r3
 245              	@ 0 "" 2
 246              	.LVL16:
 247              		.thumb
 248              		.syntax unified
 249              	.LBE203:
 250              	.LBE202:
 251              	.LBE201:
 252              	.LBE200:
 253              	.LBE199:
 254              	.LBE198:
 255              		.loc 1 217 0
 256 0052 05F13000 		add	r0, r5, #48
 257 0056 FFF7FEFF 		bl	oqGetI
 258              	.LVL17:
 259              		.loc 1 218 0
 260 005a 0028     		cmp	r0, #0
 261 005c 46DA     		bge	.L18
 262              	.LVL18:
 263              	.LBB204:
 264              	.LBB205:
 265              		.loc 3 895 0
 266 005e 0821     		movs	r1, #8
 267 0060 281D     		adds	r0, r5, #4
 268              	.LVL19:
 269 0062 FFF7FEFF 		bl	chEvtBroadcastFlagsI
 270              	.LVL20:
 271              	.LBE205:
 272              	.LBE204:
 273              		.loc 1 220 0
 274 0066 4FF67F73 		movw	r3, #65407
 275 006a 3B40     		ands	r3, r3, r7
 276 006c F360     		str	r3, [r6, #12]
 277              	.L19:
 278              	.LVL21:
 279              	.LBB206:
 280              	.LBB207:
 281              	.LBB208:
 282              	.LBB209:
 283              	.LBB210:
 284              	.LBB211:
 285              		.loc 2 493 0
ARM GAS  /tmp/ccgPrfhI.s 			page 6


 286 006e 0023     		movs	r3, #0
 287              		.syntax unified
 288              	@ 493 "../../modules/ChibiOS/os/common/ext/ARM/CMSIS/Core/Include/cmsis_gcc.h" 1
 289 0070 83F31188 		MSR basepri, r3
 290              	@ 0 "" 2
 291              	.LVL22:
 292              		.thumb
 293              		.syntax unified
 294              	.L17:
 295              	.LBE211:
 296              	.LBE210:
 297              	.LBE209:
 298              	.LBE208:
 299              	.LBE207:
 300              	.LBE206:
 301              	.LBE197:
 302              		.loc 1 228 0
 303 0074 7A06     		lsls	r2, r7, #25
 304 0076 0ED5     		bpl	.L20
 305              		.loc 1 228 0 is_stmt 0 discriminator 1
 306 0078 6306     		lsls	r3, r4, #25
 307 007a 0CD5     		bpl	.L20
 308              	.LVL23:
 309              	.LBB212:
 310              	.LBB213:
 311              	.LBB214:
 312              	.LBB215:
 313              	.LBB216:
 314              	.LBB217:
 315              		.loc 2 493 0 is_stmt 1
 316 007c 2023     		movs	r3, #32
 317              		.syntax unified
 318              	@ 493 "../../modules/ChibiOS/os/common/ext/ARM/CMSIS/Core/Include/cmsis_gcc.h" 1
 319 007e 83F31188 		MSR basepri, r3
 320              	@ 0 "" 2
 321              	.LVL24:
 322              		.thumb
 323              		.syntax unified
 324              	.LBE217:
 325              	.LBE216:
 326              	.LBE215:
 327              	.LBE214:
 328              	.LBE213:
 329              	.LBE212:
 330              		.loc 1 230 0
 331 0082 6A6C     		ldr	r2, [r5, #68]
 332 0084 AB6C     		ldr	r3, [r5, #72]
 333 0086 9A42     		cmp	r2, r3
 334 0088 02D1     		bne	.L21
 335              		.loc 1 230 0 is_stmt 0 discriminator 1
 336 008a AB6B     		ldr	r3, [r5, #56]
 337 008c 002B     		cmp	r3, #0
 338 008e 2FD1     		bne	.L22
 339              	.LVL25:
 340              	.L21:
 341              	.LBB218:
 342              	.LBB219:
ARM GAS  /tmp/ccgPrfhI.s 			page 7


 343              	.LBB220:
 344              	.LBB221:
 345              	.LBB222:
 346              	.LBB223:
 347              		.loc 2 493 0 is_stmt 1
 348 0090 0023     		movs	r3, #0
 349              		.syntax unified
 350              	@ 493 "../../modules/ChibiOS/os/common/ext/ARM/CMSIS/Core/Include/cmsis_gcc.h" 1
 351 0092 83F31188 		MSR basepri, r3
 352              	@ 0 "" 2
 353              	.LVL26:
 354              		.thumb
 355              		.syntax unified
 356              	.L20:
 357              	.LBE223:
 358              	.LBE222:
 359              	.LBE221:
 360              	.LBE220:
 361              	.LBE219:
 362              	.LBE218:
 363              		.loc 1 236 0
 364 0096 D5F85C24 		ldr	r2, [r5, #1116]
 365 009a D368     		ldr	r3, [r2, #12]
 366 009c 002B     		cmp	r3, #0
 367 009e 31D0     		beq	.L7
 368              		.loc 1 236 0 is_stmt 0 discriminator 1
 369 00a0 1069     		ldr	r0, [r2, #16]
 370              		.loc 1 237 0 is_stmt 1 discriminator 1
 371 00a2 BDE8F041 		pop	{r4, r5, r6, r7, r8, lr}
 372              		.cfi_remember_state
 373              		.cfi_restore 14
 374              		.cfi_restore 8
 375              		.cfi_restore 7
 376              		.cfi_restore 6
 377              		.cfi_restore 5
 378              		.cfi_restore 4
 379              		.cfi_def_cfa_offset 0
 380              	.LVL27:
 381              		.loc 1 236 0 discriminator 1
 382 00a6 1847     		bx	r3	@ indirect register sibling call
 383              	.LVL28:
 384              	.L16:
 385              		.cfi_restore_state
 386              	.LBB224:
 387              		.loc 1 204 0
 388 00a8 2307     		lsls	r3, r4, #28
 389 00aa 13D0     		beq	.L10
 390              	.LVL29:
 391              	.LBB190:
 392              	.LBB189:
 393              		.loc 1 169 0
 394 00ac 14F0080F 		tst	r4, #8
 395 00b0 0CBF     		ite	eq
 396 00b2 0021     		moveq	r1, #0
 397 00b4 8021     		movne	r1, #128
 398              	.LVL30:
 399              		.loc 1 170 0
ARM GAS  /tmp/ccgPrfhI.s 			page 8


 400 00b6 E007     		lsls	r0, r4, #31
 401              		.loc 1 171 0
 402 00b8 48BF     		it	mi
 403 00ba 41F02001 		orrmi	r1, r1, #32
 404              	.LVL31:
 405              		.loc 1 172 0
 406 00be A207     		lsls	r2, r4, #30
 407              		.loc 1 173 0
 408 00c0 48BF     		it	mi
 409 00c2 41F04001 		orrmi	r1, r1, #64
 410              	.LVL32:
 411              		.loc 1 174 0
 412 00c6 6307     		lsls	r3, r4, #29
 413              		.loc 1 175 0
 414 00c8 48BF     		it	mi
 415 00ca 41F48071 		orrmi	r1, r1, #256
 416              	.LVL33:
 417              	.LBB187:
 418              	.LBB188:
 419              		.loc 3 895 0
 420 00ce 4046     		mov	r0, r8
 421 00d0 FFF7FEFF 		bl	chEvtBroadcastFlagsI
 422              	.LVL34:
 423              	.L10:
 424              	.LBE188:
 425              	.LBE187:
 426              	.LBE189:
 427              	.LBE190:
 428              		.loc 1 207 0
 429 00d4 A406     		lsls	r4, r4, #26
 430              	.LVL35:
 431              		.loc 1 206 0
 432 00d6 7368     		ldr	r3, [r6, #4]
 433              	.LVL36:
 434              		.loc 1 207 0
 435 00d8 05D5     		bpl	.L15
 436              		.loc 1 206 0
 437 00da 95F85814 		ldrb	r1, [r5, #1112]	@ zero_extendqisi2
 438              		.loc 1 208 0
 439 00de 2846     		mov	r0, r5
 440 00e0 1940     		ands	r1, r1, r3
 441 00e2 FFF7FEFF 		bl	sdIncomingDataI
 442              	.LVL37:
 443              	.L15:
 444              		.loc 1 209 0
 445 00e6 3468     		ldr	r4, [r6]
 446 00e8 A4B2     		uxth	r4, r4
 447              	.LVL38:
 448 00ea A6E7     		b	.L9
 449              	.LVL39:
 450              	.L18:
 451              	.LBE224:
 452              	.LBB225:
 453              		.loc 1 223 0
 454 00ec 7060     		str	r0, [r6, #4]
 455 00ee BEE7     		b	.L19
 456              	.LVL40:
ARM GAS  /tmp/ccgPrfhI.s 			page 9


 457              	.L22:
 458              	.LBE225:
 459              		.loc 1 232 0
 460 00f0 27F04007 		bic	r7, r7, #64
 461              	.LVL41:
 462 00f4 3F04     		lsls	r7, r7, #16
 463              	.LBB226:
 464              	.LBB227:
 465              		.loc 3 895 0
 466 00f6 1021     		movs	r1, #16
 467 00f8 281D     		adds	r0, r5, #4
 468              	.LVL42:
 469              	.LBE227:
 470              	.LBE226:
 471              		.loc 1 232 0
 472 00fa 3F0C     		lsrs	r7, r7, #16
 473              	.LBB229:
 474              	.LBB228:
 475              		.loc 3 895 0
 476 00fc FFF7FEFF 		bl	chEvtBroadcastFlagsI
 477              	.LVL43:
 478              	.LBE228:
 479              	.LBE229:
 480              		.loc 1 232 0
 481 0100 F760     		str	r7, [r6, #12]
 482 0102 C5E7     		b	.L21
 483              	.L7:
 484 0104 BDE8F081 		pop	{r4, r5, r6, r7, r8, pc}
 485              		.cfi_endproc
 486              	.LFE326:
 487              		.size	serve_interrupt, .-serve_interrupt
 488              		.section	.text.VectorD8,"ax",%progbits
 489              		.align	1
 490              		.global	VectorD8
 491              		.syntax unified
 492              		.thumb
 493              		.thumb_func
 494              		.fpu fpv4-sp-d16
 495              		.type	VectorD8, %function
 496              	VectorD8:
 497              	.LFB329:
 498              		.loc 1 335 0
 499              		.cfi_startproc
 500              		@ args = 0, pretend = 0, frame = 0
 501              		@ frame_needed = 0, uses_anonymous_args = 0
 502 0000 08B5     		push	{r3, lr}
 503              		.cfi_def_cfa_offset 8
 504              		.cfi_offset 3, -8
 505              		.cfi_offset 14, -4
 506              		.loc 1 339 0
 507 0002 0348     		ldr	r0, .L56
 508 0004 FFF7FEFF 		bl	serve_interrupt
 509              	.LVL44:
 510              		.loc 1 342 0
 511 0008 BDE80840 		pop	{r3, lr}
 512              		.cfi_restore 14
 513              		.cfi_restore 3
ARM GAS  /tmp/ccgPrfhI.s 			page 10


 514              		.cfi_def_cfa_offset 0
 515              		.loc 1 341 0
 516 000c FFF7FEBF 		b	_port_irq_epilogue
 517              	.LVL45:
 518              	.L57:
 519              		.align	2
 520              	.L56:
 521 0010 00000000 		.word	.LANCHOR0
 522              		.cfi_endproc
 523              	.LFE329:
 524              		.size	VectorD8, .-VectorD8
 525              		.section	.text.VectorDC,"ax",%progbits
 526              		.align	1
 527              		.global	VectorDC
 528              		.syntax unified
 529              		.thumb
 530              		.thumb_func
 531              		.fpu fpv4-sp-d16
 532              		.type	VectorDC, %function
 533              	VectorDC:
 534              	.LFB330:
 535              		.loc 1 354 0
 536              		.cfi_startproc
 537              		@ args = 0, pretend = 0, frame = 0
 538              		@ frame_needed = 0, uses_anonymous_args = 0
 539 0000 08B5     		push	{r3, lr}
 540              		.cfi_def_cfa_offset 8
 541              		.cfi_offset 3, -8
 542              		.cfi_offset 14, -4
 543              		.loc 1 358 0
 544 0002 0348     		ldr	r0, .L59
 545 0004 FFF7FEFF 		bl	serve_interrupt
 546              	.LVL46:
 547              		.loc 1 361 0
 548 0008 BDE80840 		pop	{r3, lr}
 549              		.cfi_restore 14
 550              		.cfi_restore 3
 551              		.cfi_def_cfa_offset 0
 552              		.loc 1 360 0
 553 000c FFF7FEBF 		b	_port_irq_epilogue
 554              	.LVL47:
 555              	.L60:
 556              		.align	2
 557              	.L59:
 558 0010 00000000 		.word	.LANCHOR1
 559              		.cfi_endproc
 560              	.LFE330:
 561              		.size	VectorDC, .-VectorDC
 562              		.section	.text.sd_lld_init,"ax",%progbits
 563              		.align	1
 564              		.global	sd_lld_init
 565              		.syntax unified
 566              		.thumb
 567              		.thumb_func
 568              		.fpu fpv4-sp-d16
 569              		.type	sd_lld_init, %function
 570              	sd_lld_init:
ARM GAS  /tmp/ccgPrfhI.s 			page 11


 571              	.LFB331:
 572              		.loc 1 468 0
 573              		.cfi_startproc
 574              		@ args = 0, pretend = 0, frame = 0
 575              		@ frame_needed = 0, uses_anonymous_args = 0
 576 0000 10B5     		push	{r4, lr}
 577              		.cfi_def_cfa_offset 8
 578              		.cfi_offset 4, -8
 579              		.cfi_offset 14, -4
 580              		.loc 1 476 0
 581 0002 094C     		ldr	r4, .L62
 582 0004 094A     		ldr	r2, .L62+4
 583 0006 2046     		mov	r0, r4
 584 0008 0021     		movs	r1, #0
 585 000a FFF7FEFF 		bl	sdObjectInit
 586              	.LVL48:
 587              		.loc 1 477 0
 588 000e 084B     		ldr	r3, .L62+8
 589 0010 C4F85434 		str	r3, [r4, #1108]
 590              		.loc 1 481 0
 591 0014 074C     		ldr	r4, .L62+12
 592 0016 084A     		ldr	r2, .L62+16
 593 0018 0021     		movs	r1, #0
 594 001a 2046     		mov	r0, r4
 595 001c FFF7FEFF 		bl	sdObjectInit
 596              	.LVL49:
 597              		.loc 1 482 0
 598 0020 064B     		ldr	r3, .L62+20
 599 0022 C4F85434 		str	r3, [r4, #1108]
 600 0026 10BD     		pop	{r4, pc}
 601              	.L63:
 602              		.align	2
 603              	.L62:
 604 0028 00000000 		.word	.LANCHOR0
 605 002c 00000000 		.word	notify2
 606 0030 00440040 		.word	1073759232
 607 0034 00000000 		.word	.LANCHOR1
 608 0038 00000000 		.word	notify3
 609 003c 00480040 		.word	1073760256
 610              		.cfi_endproc
 611              	.LFE331:
 612              		.size	sd_lld_init, .-sd_lld_init
 613              		.section	.text.sd_lld_start,"ax",%progbits
 614              		.align	1
 615              		.global	sd_lld_start
 616              		.syntax unified
 617              		.thumb
 618              		.thumb_func
 619              		.fpu fpv4-sp-d16
 620              		.type	sd_lld_start, %function
 621              	sd_lld_start:
 622              	.LFB332:
 623              		.loc 1 521 0
 624              		.cfi_startproc
 625              		@ args = 0, pretend = 0, frame = 0
 626              		@ frame_needed = 0, uses_anonymous_args = 0
 627              	.LVL50:
ARM GAS  /tmp/ccgPrfhI.s 			page 12


 628 0000 38B5     		push	{r3, r4, r5, lr}
 629              		.cfi_def_cfa_offset 16
 630              		.cfi_offset 3, -16
 631              		.cfi_offset 4, -12
 632              		.cfi_offset 5, -8
 633              		.cfi_offset 14, -4
 634              		.loc 1 524 0
 635 0002 314D     		ldr	r5, .L77
 636              		.loc 1 528 0
 637 0004 037A     		ldrb	r3, [r0, #8]	@ zero_extendqisi2
 638              		.loc 1 524 0
 639 0006 0029     		cmp	r1, #0
 640 0008 18BF     		it	ne
 641 000a 0D46     		movne	r5, r1
 642              	.LVL51:
 643              		.loc 1 528 0
 644 000c 012B     		cmp	r3, #1
 645              		.loc 1 521 0
 646 000e 0446     		mov	r4, r0
 647              		.loc 1 526 0
 648 0010 C0F85C54 		str	r5, [r0, #1116]
 649              		.loc 1 528 0
 650 0014 10D1     		bne	.L66
 651              		.loc 1 536 0
 652 0016 2D4B     		ldr	r3, .L77+4
 653 0018 9842     		cmp	r0, r3
 654 001a 42D1     		bne	.L67
 655              		.loc 1 537 0
 656 001c 2C4B     		ldr	r3, .L77+8
 657 001e 1A6C     		ldr	r2, [r3, #64]
 658 0020 42F40032 		orr	r2, r2, #131072
 659 0024 1A64     		str	r2, [r3, #64]
 660 0026 1A6E     		ldr	r2, [r3, #96]
 661 0028 42F40032 		orr	r2, r2, #131072
 662 002c 1A66     		str	r2, [r3, #96]
 663 002e 1B6E     		ldr	r3, [r3, #96]
 664              		.loc 1 538 0
 665 0030 0B21     		movs	r1, #11
 666 0032 2620     		movs	r0, #38
 667              	.LVL52:
 668              	.L74:
 669              		.loc 1 544 0
 670 0034 FFF7FEFF 		bl	nvicEnableVector
 671              	.LVL53:
 672              	.L66:
 673              	.LBB232:
 674              	.LBB233:
 675              		.loc 1 109 0
 676 0038 264B     		ldr	r3, .L77+12
 677              		.loc 1 105 0
 678 003a D4F85424 		ldr	r2, [r4, #1108]
 679              	.LVL54:
 680              		.loc 1 109 0
 681 003e 9A42     		cmp	r2, r3
 682 0040 2B68     		ldr	r3, [r5]
 683 0042 02D0     		beq	.L68
 684 0044 2449     		ldr	r1, .L77+16
ARM GAS  /tmp/ccgPrfhI.s 			page 13


 685 0046 8A42     		cmp	r2, r1
 686 0048 3BD1     		bne	.L69
 687              	.L68:
 688              		.loc 1 113 0
 689 004a 2449     		ldr	r1, .L77+20
 690              	.L75:
 691              		.loc 1 115 0
 692 004c 01EB5301 		add	r1, r1, r3, lsr #1
 693 0050 B1FBF3F3 		udiv	r3, r1, r3
 694              	.LVL55:
 695              		.loc 1 121 0
 696 0054 A988     		ldrh	r1, [r5, #4]
 697 0056 0804     		lsls	r0, r1, #16
 698              		.loc 1 122 0
 699 0058 42BF     		ittt	mi
 700 005a 23F00700 		bicmi	r0, r3, #7
 701 005e 03F00703 		andmi	r3, r3, #7
 702              	.LVL56:
 703 0062 43EA4003 		orrmi	r3, r3, r0, lsl #1
 704              	.LVL57:
 705              		.loc 1 124 0
 706 0066 9360     		str	r3, [r2, #8]
 707              		.loc 1 127 0
 708 0068 EB88     		ldrh	r3, [r5, #6]
 709              	.LVL58:
 710 006a 43F04003 		orr	r3, r3, #64
 711 006e 9BB2     		uxth	r3, r3
 712 0070 1361     		str	r3, [r2, #16]
 713              	.LVL59:
 714              		.loc 1 128 0
 715 0072 2B89     		ldrh	r3, [r5, #8]
 716 0074 43F00103 		orr	r3, r3, #1
 717 0078 9BB2     		uxth	r3, r3
 718 007a 5361     		str	r3, [r2, #20]
 719              		.loc 1 130 0
 720 007c 41F40453 		orr	r3, r1, #8448
 721 0080 43F02C03 		orr	r3, r3, #44
 722              		.loc 1 129 0
 723 0084 D360     		str	r3, [r2, #12]
 724              		.loc 1 138 0
 725 0086 01F4A051 		and	r1, r1, #5120
 726              		.loc 1 132 0
 727 008a 0023     		movs	r3, #0
 728 008c 1360     		str	r3, [r2]
 729              		.loc 1 138 0
 730 008e B1F5806F 		cmp	r1, #1024
 731              		.loc 1 133 0
 732 0092 1368     		ldr	r3, [r2]
 733              		.loc 1 134 0
 734 0094 5368     		ldr	r3, [r2, #4]
 735              		.loc 1 139 0
 736 0096 0CBF     		ite	eq
 737 0098 7F23     		moveq	r3, #127
 738              		.loc 1 142 0
 739 009a FF23     		movne	r3, #255
 740 009c 84F85834 		strb	r3, [r4, #1112]
 741              	.LVL60:
ARM GAS  /tmp/ccgPrfhI.s 			page 14


 742 00a0 38BD     		pop	{r3, r4, r5, pc}
 743              	.LVL61:
 744              	.L67:
 745              	.LBE233:
 746              	.LBE232:
 747              		.loc 1 542 0
 748 00a2 0F4B     		ldr	r3, .L77+24
 749 00a4 9842     		cmp	r0, r3
 750 00a6 C7D1     		bne	.L66
 751              		.loc 1 543 0
 752 00a8 094B     		ldr	r3, .L77+8
 753 00aa 1A6C     		ldr	r2, [r3, #64]
 754 00ac 42F48022 		orr	r2, r2, #262144
 755 00b0 1A64     		str	r2, [r3, #64]
 756 00b2 1A6E     		ldr	r2, [r3, #96]
 757 00b4 42F48022 		orr	r2, r2, #262144
 758 00b8 1A66     		str	r2, [r3, #96]
 759 00ba 1B6E     		ldr	r3, [r3, #96]
 760              		.loc 1 544 0
 761 00bc 0B21     		movs	r1, #11
 762 00be 2720     		movs	r0, #39
 763              	.LVL62:
 764 00c0 B8E7     		b	.L74
 765              	.LVL63:
 766              	.L69:
 767              	.LBB235:
 768              	.LBB234:
 769              		.loc 1 115 0
 770 00c2 0849     		ldr	r1, .L77+28
 771 00c4 C2E7     		b	.L75
 772              	.L78:
 773 00c6 00BF     		.align	2
 774              	.L77:
 775 00c8 00000000 		.word	.LANCHOR2
 776 00cc 00000000 		.word	.LANCHOR0
 777 00d0 00380240 		.word	1073887232
 778 00d4 00100140 		.word	1073811456
 779 00d8 00140140 		.word	1073812480
 780 00dc 00BD0105 		.word	84000000
 781 00e0 00000000 		.word	.LANCHOR1
 782 00e4 80DE8002 		.word	42000000
 783              	.LBE234:
 784              	.LBE235:
 785              		.cfi_endproc
 786              	.LFE332:
 787              		.size	sd_lld_start, .-sd_lld_start
 788              		.section	.text.sd_lld_stop,"ax",%progbits
 789              		.align	1
 790              		.global	sd_lld_stop
 791              		.syntax unified
 792              		.thumb
 793              		.thumb_func
 794              		.fpu fpv4-sp-d16
 795              		.type	sd_lld_stop, %function
 796              	sd_lld_stop:
 797              	.LFB333:
 798              		.loc 1 590 0
ARM GAS  /tmp/ccgPrfhI.s 			page 15


 799              		.cfi_startproc
 800              		@ args = 0, pretend = 0, frame = 0
 801              		@ frame_needed = 0, uses_anonymous_args = 0
 802              		@ link register save eliminated.
 803              	.LVL64:
 804              		.loc 1 592 0
 805 0000 037A     		ldrb	r3, [r0, #8]	@ zero_extendqisi2
 806 0002 022B     		cmp	r3, #2
 807 0004 24D1     		bne	.L79
 808              		.loc 1 593 0
 809 0006 D0F85434 		ldr	r3, [r0, #1108]
 810              	.LVL65:
 811              	.LBB236:
 812              	.LBB237:
 813              		.loc 1 154 0
 814 000a 0022     		movs	r2, #0
 815 000c DA60     		str	r2, [r3, #12]
 816              		.loc 1 155 0
 817 000e 1A61     		str	r2, [r3, #16]
 818              		.loc 1 156 0
 819 0010 5A61     		str	r2, [r3, #20]
 820              	.LVL66:
 821              	.LBE237:
 822              	.LBE236:
 823              		.loc 1 602 0
 824 0012 104B     		ldr	r3, .L85
 825 0014 9842     		cmp	r0, r3
 826 0016 0CD1     		bne	.L82
 827              		.loc 1 603 0
 828 0018 0F4B     		ldr	r3, .L85+4
 829 001a 1A6C     		ldr	r2, [r3, #64]
 830 001c 22F40032 		bic	r2, r2, #131072
 831 0020 1A64     		str	r2, [r3, #64]
 832 0022 1A6E     		ldr	r2, [r3, #96]
 833 0024 22F40032 		bic	r2, r2, #131072
 834 0028 1A66     		str	r2, [r3, #96]
 835 002a 1B6E     		ldr	r3, [r3, #96]
 836              		.loc 1 604 0
 837 002c 2620     		movs	r0, #38
 838              	.LVL67:
 839              	.L84:
 840              		.loc 1 611 0
 841 002e FFF7FEBF 		b	nvicDisableVector
 842              	.LVL68:
 843              	.L82:
 844              		.loc 1 609 0
 845 0032 0A4B     		ldr	r3, .L85+8
 846 0034 9842     		cmp	r0, r3
 847 0036 0BD1     		bne	.L79
 848              		.loc 1 610 0
 849 0038 074B     		ldr	r3, .L85+4
 850 003a 1A6C     		ldr	r2, [r3, #64]
 851 003c 22F48022 		bic	r2, r2, #262144
 852 0040 1A64     		str	r2, [r3, #64]
 853 0042 1A6E     		ldr	r2, [r3, #96]
 854 0044 22F48022 		bic	r2, r2, #262144
 855 0048 1A66     		str	r2, [r3, #96]
ARM GAS  /tmp/ccgPrfhI.s 			page 16


 856 004a 1B6E     		ldr	r3, [r3, #96]
 857              		.loc 1 611 0
 858 004c 2720     		movs	r0, #39
 859              	.LVL69:
 860 004e EEE7     		b	.L84
 861              	.LVL70:
 862              	.L79:
 863 0050 7047     		bx	lr
 864              	.L86:
 865 0052 00BF     		.align	2
 866              	.L85:
 867 0054 00000000 		.word	.LANCHOR0
 868 0058 00380240 		.word	1073887232
 869 005c 00000000 		.word	.LANCHOR1
 870              		.cfi_endproc
 871              	.LFE333:
 872              		.size	sd_lld_stop, .-sd_lld_stop
 873              		.global	SD3
 874              		.global	SD2
 875              		.section	.bss.SD2,"aw",%nobits
 876              		.align	2
 877              		.set	.LANCHOR0,. + 0
 878              		.type	SD2, %object
 879              		.size	SD2, 1120
 880              	SD2:
 881 0000 00000000 		.space	1120
 881      00000000 
 881      00000000 
 881      00000000 
 881      00000000 
 882              		.section	.bss.SD3,"aw",%nobits
 883              		.align	2
 884              		.set	.LANCHOR1,. + 0
 885              		.type	SD3, %object
 886              		.size	SD3, 1120
 887              	SD3:
 888 0000 00000000 		.space	1120
 888      00000000 
 888      00000000 
 888      00000000 
 888      00000000 
 889              		.section	.rodata.default_config,"a",%progbits
 890              		.align	2
 891              		.set	.LANCHOR2,. + 0
 892              		.type	default_config, %object
 893              		.size	default_config, 20
 894              	default_config:
 895 0000 00960000 		.word	38400
 896 0004 0000     		.short	0
 897 0006 0000     		.short	0
 898 0008 0000     		.short	0
 899 000a 0000     		.space	2
 900 000c 00000000 		.word	0
 901 0010 00000000 		.word	0
 902              		.text
 903              	.Letext0:
 904              		.file 4 "/opt/gcc-arm-none-eabi-6-2017-q2-update/lib/gcc/arm-none-eabi/6.3.1/include/stddef.h"
ARM GAS  /tmp/ccgPrfhI.s 			page 17


 905              		.file 5 "/opt/gcc-arm-none-eabi-6-2017-q2-update/arm-none-eabi/include/machine/_default_types.h"
 906              		.file 6 "/opt/gcc-arm-none-eabi-6-2017-q2-update/arm-none-eabi/include/sys/_stdint.h"
 907              		.file 7 "../../modules/ChibiOS/os/common/ports/ARMCMx/compilers/GCC/chtypes.h"
 908              		.file 8 "../../modules/ChibiOS/os/rt/include/chsystypes.h"
 909              		.file 9 "../../modules/ChibiOS/os/rt/include/chschd.h"
 910              		.file 10 "../../modules/ChibiOS/os/rt/include/chtime.h"
 911              		.file 11 "../../modules/ChibiOS/os/common/ext/ARM/CMSIS/Core/Include/core_cm4.h"
 912              		.file 12 "../../modules/ChibiOS/os/common/ext/ST/STM32F4xx/system_stm32f4xx.h"
 913              		.file 13 "../../modules/ChibiOS/os/common/ext/ST/STM32F4xx/stm32f427xx.h"
 914              		.file 14 "../../modules/ChibiOS/os/common/ports/ARMCMx/chcore.h"
 915              		.file 15 "../../modules/ChibiOS/os/common/ports/ARMCMx/chcore_v7m.h"
 916              		.file 16 "../../modules/ChibiOS/os/rt/include/chtm.h"
 917              		.file 17 "../../modules/ChibiOS/os/rt/include/chsem.h"
 918              		.file 18 "../../modules/ChibiOS/os/rt/include/chmtx.h"
 919              		.file 19 "../../modules/ChibiOS/os/rt/include/chsys.h"
 920              		.file 20 "../../modules/ChibiOS/os/rt/include/chregistry.h"
 921              		.file 21 "../../modules/ChibiOS/os/rt/include/chevents.h"
 922              		.file 22 "../../modules/ChibiOS/os/oslib/include/chmemcore.h"
 923              		.file 23 "../../modules/ChibiOS/os/oslib/include/chmempools.h"
 924              		.file 24 "../../modules/ChibiOS/os/oslib/include/chfactory.h"
 925              		.file 25 "../../modules/ChibiOS/os/hal/ports/STM32/LLD/DMAv2/stm32_dma.h"
 926              		.file 26 "../../modules/ChibiOS/os/hal/include/hal_queues.h"
 927              		.file 27 "../../modules/ChibiOS/os/hal/include/hal_pal.h"
 928              		.file 28 "../../modules/ChibiOS/os/hal/ports/STM32/LLD/GPIOv2/hal_pal_lld.h"
 929              		.file 29 "../../modules/ChibiOS/os/hal/include/hal_adc.h"
 930              		.file 30 "../../modules/ChibiOS/os/hal/ports/STM32/LLD/ADCv2/hal_adc_lld.h"
 931              		.file 31 "../../modules/ChibiOS/os/hal/include/hal_serial.h"
 932              		.file 32 "../../modules/ChibiOS/os/hal/ports/STM32/LLD/USARTv1/hal_serial_lld.h"
 933              		.file 33 "../../modules/ChibiOS/os/hal/include/hal_usb.h"
 934              		.file 34 "../../modules/ChibiOS/os/hal/ports/STM32/LLD/OTGv1/hal_usb_lld.h"
 935              		.file 35 "../../modules/ChibiOS/os/hal/ports/STM32/LLD/OTGv1/stm32_otg.h"
 936              		.file 36 "../../modules/ChibiOS/os/hal/ports/common/ARMCMx/nvic.h"