ARM GAS  /tmp/ccODC5Ge.s 			page 1


   1              		.cpu cortex-m4
   2              		.eabi_attribute 27, 1
   3              		.eabi_attribute 28, 1
   4              		.eabi_attribute 20, 1
   5              		.eabi_attribute 21, 1
   6              		.eabi_attribute 23, 3
   7              		.eabi_attribute 24, 1
   8              		.eabi_attribute 25, 1
   9              		.eabi_attribute 26, 1
  10              		.eabi_attribute 30, 4
  11              		.eabi_attribute 34, 1
  12              		.eabi_attribute 18, 4
  13              		.file	"hal_sdc_lld.c"
  14              		.text
  15              	.Ltext0:
  16              		.cfi_sections	.debug_frame
  17              		.section	.text.sdc_lld_collect_errors.isra.0,"ax",%progbits
  18              		.align	1
  19              		.syntax unified
  20              		.thumb
  21              		.thumb_func
  22              		.fpu fpv4-sp-d16
  23              		.type	sdc_lld_collect_errors.isra.0, %function
  24              	sdc_lld_collect_errors.isra.0:
  25              	.LFB347:
  26              		.file 1 "../../modules/ChibiOS/os/hal/ports/STM32/LLD/SDIOv1/hal_sdc_lld.c"
  27              		.loc 1 263 0
  28              		.cfi_startproc
  29              		@ args = 0, pretend = 0, frame = 0
  30              		@ frame_needed = 0, uses_anonymous_args = 0
  31              		@ link register save eliminated.
  32              	.LVL0:
  33              		.loc 1 266 0
  34 0000 01F00103 		and	r3, r1, #1
  35              	.LVL1:
  36              		.loc 1 268 0
  37 0004 8A07     		lsls	r2, r1, #30
  38              		.loc 1 269 0
  39 0006 48BF     		it	mi
  40 0008 43F00203 		orrmi	r3, r3, #2
  41              	.LVL2:
  42              		.loc 1 270 0
  43 000c 4A07     		lsls	r2, r1, #29
  44              		.loc 1 271 0
  45 000e 48BF     		it	mi
  46 0010 43F00803 		orrmi	r3, r3, #8
  47              	.LVL3:
  48              		.loc 1 272 0
  49 0014 0A07     		lsls	r2, r1, #28
  50              		.loc 1 273 0
  51 0016 48BF     		it	mi
  52 0018 43F00403 		orrmi	r3, r3, #4
  53              	.LVL4:
  54              		.loc 1 274 0
  55 001c CA06     		lsls	r2, r1, #27
  56              		.loc 1 275 0
  57 001e 48BF     		it	mi
ARM GAS  /tmp/ccODC5Ge.s 			page 2


  58 0020 43F01003 		orrmi	r3, r3, #16
  59              	.LVL5:
  60              		.loc 1 276 0
  61 0024 8A06     		lsls	r2, r1, #26
  62              		.loc 1 277 0
  63 0026 48BF     		it	mi
  64 0028 43F02003 		orrmi	r3, r3, #32
  65              	.LVL6:
  66              		.loc 1 278 0
  67 002c 8A05     		lsls	r2, r1, #22
  68              		.loc 1 281 0
  69 002e 0268     		ldr	r2, [r0]
  70              		.loc 1 279 0
  71 0030 48BF     		it	mi
  72 0032 43F04003 		orrmi	r3, r3, #64
  73              	.LVL7:
  74              		.loc 1 281 0
  75 0036 1343     		orrs	r3, r3, r2
  76              	.LVL8:
  77 0038 0360     		str	r3, [r0]
  78 003a 7047     		bx	lr
  79              		.cfi_endproc
  80              	.LFE347:
  81              		.size	sdc_lld_collect_errors.isra.0, .-sdc_lld_collect_errors.isra.0
  82              		.section	.text.Vector104,"ax",%progbits
  83              		.align	1
  84              		.global	Vector104
  85              		.syntax unified
  86              		.thumb
  87              		.thumb_func
  88              		.fpu fpv4-sp-d16
  89              		.type	Vector104, %function
  90              	Vector104:
  91              	.LFB329:
  92              		.loc 1 322 0
  93              		.cfi_startproc
  94              		@ args = 0, pretend = 0, frame = 0
  95              		@ frame_needed = 0, uses_anonymous_args = 0
  96              	.LVL9:
  97 0000 10B5     		push	{r4, lr}
  98              		.cfi_def_cfa_offset 8
  99              		.cfi_offset 4, -8
 100              		.cfi_offset 14, -4
 101              	.LBB109:
 102              	.LBB110:
 103              	.LBB111:
 104              	.LBB112:
 105              	.LBB113:
 106              	.LBB114:
 107              		.file 2 "../../modules/ChibiOS/os/common/ext/ARM/CMSIS/Core/Include/cmsis_gcc.h"
 108              		.loc 2 493 0
 109 0002 2023     		movs	r3, #32
 110              		.syntax unified
 111              	@ 493 "../../modules/ChibiOS/os/common/ext/ARM/CMSIS/Core/Include/cmsis_gcc.h" 1
 112 0004 83F31188 		MSR basepri, r3
 113              	@ 0 "" 2
 114              	.LVL10:
ARM GAS  /tmp/ccODC5Ge.s 			page 3


 115              		.thumb
 116              		.syntax unified
 117              	.LBE114:
 118              	.LBE113:
 119              	.LBE112:
 120              	.LBE111:
 121              	.LBE110:
 122              	.LBE109:
 123              		.loc 1 330 0
 124 0008 064B     		ldr	r3, .L27
 125              	.LBB115:
 126              	.LBB116:
 127              		.file 3 "../../modules/ChibiOS/os/hal/osal/rt/osal.h"
 128              		.loc 3 775 0
 129 000a 0748     		ldr	r0, .L27+4
 130              	.LBE116:
 131              	.LBE115:
 132              		.loc 1 330 0
 133 000c 0024     		movs	r4, #0
 134 000e DC63     		str	r4, [r3, #60]
 135              	.LVL11:
 136              	.LBB118:
 137              	.LBB117:
 138              		.loc 3 775 0
 139 0010 2146     		mov	r1, r4
 140 0012 FFF7FEFF 		bl	chThdResumeI
 141              	.LVL12:
 142              	.LBE117:
 143              	.LBE118:
 144              	.LBB119:
 145              	.LBB120:
 146              	.LBB121:
 147              	.LBB122:
 148              	.LBB123:
 149              	.LBB124:
 150              		.loc 2 493 0
 151              		.syntax unified
 152              	@ 493 "../../modules/ChibiOS/os/common/ext/ARM/CMSIS/Core/Include/cmsis_gcc.h" 1
 153 0016 84F31188 		MSR basepri, r4
 154              	@ 0 "" 2
 155              	.LVL13:
 156              		.thumb
 157              		.syntax unified
 158              	.LBE124:
 159              	.LBE123:
 160              	.LBE122:
 161              	.LBE121:
 162              	.LBE120:
 163              	.LBE119:
 164              		.loc 1 337 0
 165 001a BDE81040 		pop	{r4, lr}
 166              		.cfi_restore 14
 167              		.cfi_restore 4
 168              		.cfi_def_cfa_offset 0
 169              		.loc 1 336 0
 170 001e FFF7FEBF 		b	_port_irq_epilogue
 171              	.LVL14:
ARM GAS  /tmp/ccODC5Ge.s 			page 4


 172              	.L28:
 173 0022 00BF     		.align	2
 174              	.L27:
 175 0024 002C0140 		.word	1073818624
 176 0028 3C000000 		.word	.LANCHOR0+60
 177              		.cfi_endproc
 178              	.LFE329:
 179              		.size	Vector104, .-Vector104
 180              		.section	.text.sdc_lld_init,"ax",%progbits
 181              		.align	1
 182              		.global	sdc_lld_init
 183              		.syntax unified
 184              		.thumb
 185              		.thumb_func
 186              		.fpu fpv4-sp-d16
 187              		.type	sdc_lld_init, %function
 188              	sdc_lld_init:
 189              	.LFB330:
 190              		.loc 1 348 0
 191              		.cfi_startproc
 192              		@ args = 0, pretend = 0, frame = 0
 193              		@ frame_needed = 0, uses_anonymous_args = 0
 194 0000 10B5     		push	{r4, lr}
 195              		.cfi_def_cfa_offset 8
 196              		.cfi_offset 4, -8
 197              		.cfi_offset 14, -4
 198              		.loc 1 350 0
 199 0002 074C     		ldr	r4, .L30
 200 0004 2046     		mov	r0, r4
 201 0006 FFF7FEFF 		bl	sdcObjectInit
 202              	.LVL15:
 203              		.loc 1 351 0
 204 000a 0023     		movs	r3, #0
 205 000c E363     		str	r3, [r4, #60]
 206              		.loc 1 352 0
 207 000e 6364     		str	r3, [r4, #68]
 208              		.loc 1 353 0
 209 0010 044B     		ldr	r3, .L30+4
 210 0012 A364     		str	r3, [r4, #72]
 211              		.loc 1 354 0
 212 0014 0921     		movs	r1, #9
 213 0016 3120     		movs	r0, #49
 214              		.loc 1 355 0
 215 0018 BDE81040 		pop	{r4, lr}
 216              		.cfi_restore 14
 217              		.cfi_restore 4
 218              		.cfi_def_cfa_offset 0
 219              		.loc 1 354 0
 220 001c FFF7FEBF 		b	nvicEnableVector
 221              	.LVL16:
 222              	.L31:
 223              		.align	2
 224              	.L30:
 225 0020 00000000 		.word	.LANCHOR0
 226 0024 002C0140 		.word	1073818624
 227              		.cfi_endproc
 228              	.LFE330:
ARM GAS  /tmp/ccODC5Ge.s 			page 5


 229              		.size	sdc_lld_init, .-sdc_lld_init
 230              		.section	.text.sdc_lld_start,"ax",%progbits
 231              		.align	1
 232              		.global	sdc_lld_start
 233              		.syntax unified
 234              		.thumb
 235              		.thumb_func
 236              		.fpu fpv4-sp-d16
 237              		.type	sdc_lld_start, %function
 238              	sdc_lld_start:
 239              	.LFB331:
 240              		.loc 1 364 0
 241              		.cfi_startproc
 242              		@ args = 0, pretend = 0, frame = 0
 243              		@ frame_needed = 0, uses_anonymous_args = 0
 244              	.LVL17:
 245              		.loc 1 367 0
 246 0000 C36A     		ldr	r3, [r0, #44]
 247              		.loc 1 364 0
 248 0002 10B5     		push	{r4, lr}
 249              		.cfi_def_cfa_offset 8
 250              		.cfi_offset 4, -8
 251              		.cfi_offset 14, -4
 252              		.loc 1 364 0
 253 0004 0446     		mov	r4, r0
 254              		.loc 1 367 0
 255 0006 0BB9     		cbnz	r3, .L33
 256              		.loc 1 368 0
 257 0008 124B     		ldr	r3, .L35
 258 000a C362     		str	r3, [r0, #44]
 259              	.L33:
 260              		.loc 1 378 0
 261 000c 124B     		ldr	r3, .L35+4
 262 000e 2364     		str	r3, [r4, #64]
 263              		.loc 1 383 0
 264 0010 2379     		ldrb	r3, [r4, #4]	@ zero_extendqisi2
 265 0012 012B     		cmp	r3, #1
 266 0014 16D1     		bne	.L34
 267              		.loc 1 384 0
 268 0016 0023     		movs	r3, #0
 269 0018 1A46     		mov	r2, r3
 270 001a 0921     		movs	r1, #9
 271 001c 0E20     		movs	r0, #14
 272              	.LVL18:
 273 001e FFF7FEFF 		bl	dmaStreamAllocI
 274              	.LVL19:
 275              		.loc 1 390 0
 276 0022 A36C     		ldr	r3, [r4, #72]
 277 0024 0268     		ldr	r2, [r0]
 278              		.loc 1 384 0
 279 0026 6064     		str	r0, [r4, #68]
 280              		.loc 1 390 0
 281 0028 8033     		adds	r3, r3, #128
 282 002a 9360     		str	r3, [r2, #8]
 283              		.loc 1 392 0
 284 002c 0723     		movs	r3, #7
 285 002e 5361     		str	r3, [r2, #20]
ARM GAS  /tmp/ccODC5Ge.s 			page 6


 286              		.loc 1 394 0
 287 0030 0A4B     		ldr	r3, .L35+8
 288 0032 5A6C     		ldr	r2, [r3, #68]
 289 0034 42F40062 		orr	r2, r2, #2048
 290 0038 5A64     		str	r2, [r3, #68]
 291 003a 5A6E     		ldr	r2, [r3, #100]
 292 003c 42F40062 		orr	r2, r2, #2048
 293 0040 5A66     		str	r2, [r3, #100]
 294 0042 5B6E     		ldr	r3, [r3, #100]
 295              	.L34:
 296              		.loc 1 398 0
 297 0044 A36C     		ldr	r3, [r4, #72]
 298 0046 0022     		movs	r2, #0
 299 0048 1A60     		str	r2, [r3]
 300              		.loc 1 399 0
 301 004a 5A60     		str	r2, [r3, #4]
 302              		.loc 1 400 0
 303 004c DA62     		str	r2, [r3, #44]
 304              		.loc 1 401 0
 305 004e 5A62     		str	r2, [r3, #36]
 306 0050 10BD     		pop	{r4, pc}
 307              	.LVL20:
 308              	.L36:
 309 0052 00BF     		.align	2
 310              	.L35:
 311 0054 00000000 		.word	.LANCHOR1
 312 0058 2054A308 		.word	144921632
 313 005c 00380240 		.word	1073887232
 314              		.cfi_endproc
 315              	.LFE331:
 316              		.size	sdc_lld_start, .-sdc_lld_start
 317              		.section	.text.sdc_lld_stop,"ax",%progbits
 318              		.align	1
 319              		.global	sdc_lld_stop
 320              		.syntax unified
 321              		.thumb
 322              		.thumb_func
 323              		.fpu fpv4-sp-d16
 324              		.type	sdc_lld_stop, %function
 325              	sdc_lld_stop:
 326              	.LFB332:
 327              		.loc 1 411 0
 328              		.cfi_startproc
 329              		@ args = 0, pretend = 0, frame = 0
 330              		@ frame_needed = 0, uses_anonymous_args = 0
 331              	.LVL21:
 332 0000 38B5     		push	{r3, r4, r5, lr}
 333              		.cfi_def_cfa_offset 16
 334              		.cfi_offset 3, -16
 335              		.cfi_offset 4, -12
 336              		.cfi_offset 5, -8
 337              		.cfi_offset 14, -4
 338              		.loc 1 413 0
 339 0002 0379     		ldrb	r3, [r0, #4]	@ zero_extendqisi2
 340 0004 012B     		cmp	r3, #1
 341              		.loc 1 411 0
 342 0006 0546     		mov	r5, r0
ARM GAS  /tmp/ccODC5Ge.s 			page 7


 343              		.loc 1 413 0
 344 0008 13D0     		beq	.L37
 345              		.loc 1 416 0
 346 000a 836C     		ldr	r3, [r0, #72]
 347              		.loc 1 422 0
 348 000c 406C     		ldr	r0, [r0, #68]
 349              	.LVL22:
 350              		.loc 1 416 0
 351 000e 0024     		movs	r4, #0
 352 0010 1C60     		str	r4, [r3]
 353              		.loc 1 417 0
 354 0012 5C60     		str	r4, [r3, #4]
 355              		.loc 1 418 0
 356 0014 DC62     		str	r4, [r3, #44]
 357              		.loc 1 419 0
 358 0016 5C62     		str	r4, [r3, #36]
 359              		.loc 1 422 0
 360 0018 FFF7FEFF 		bl	dmaStreamFreeI
 361              	.LVL23:
 362              		.loc 1 426 0
 363 001c 054B     		ldr	r3, .L42
 364              		.loc 1 423 0
 365 001e 6C64     		str	r4, [r5, #68]
 366              		.loc 1 426 0
 367 0020 5A6C     		ldr	r2, [r3, #68]
 368 0022 22F40062 		bic	r2, r2, #2048
 369 0026 5A64     		str	r2, [r3, #68]
 370 0028 5A6E     		ldr	r2, [r3, #100]
 371 002a 22F40062 		bic	r2, r2, #2048
 372 002e 5A66     		str	r2, [r3, #100]
 373 0030 5B6E     		ldr	r3, [r3, #100]
 374              	.L37:
 375 0032 38BD     		pop	{r3, r4, r5, pc}
 376              	.LVL24:
 377              	.L43:
 378              		.align	2
 379              	.L42:
 380 0034 00380240 		.word	1073887232
 381              		.cfi_endproc
 382              	.LFE332:
 383              		.size	sdc_lld_stop, .-sdc_lld_stop
 384              		.section	.text.sdc_lld_start_clk,"ax",%progbits
 385              		.align	1
 386              		.global	sdc_lld_start_clk
 387              		.syntax unified
 388              		.thumb
 389              		.thumb_func
 390              		.fpu fpv4-sp-d16
 391              		.type	sdc_lld_start_clk, %function
 392              	sdc_lld_start_clk:
 393              	.LFB333:
 394              		.loc 1 437 0
 395              		.cfi_startproc
 396              		@ args = 0, pretend = 0, frame = 0
 397              		@ frame_needed = 0, uses_anonymous_args = 0
 398              		@ link register save eliminated.
 399              	.LVL25:
ARM GAS  /tmp/ccODC5Ge.s 			page 8


 400              		.loc 1 440 0
 401 0000 836C     		ldr	r3, [r0, #72]
 402 0002 7822     		movs	r2, #120
 403 0004 5A60     		str	r2, [r3, #4]
 404              		.loc 1 441 0
 405 0006 1A68     		ldr	r2, [r3]
 406 0008 42F00302 		orr	r2, r2, #3
 407 000c 1A60     		str	r2, [r3]
 408              		.loc 1 442 0
 409 000e 5A68     		ldr	r2, [r3, #4]
 410 0010 42F48072 		orr	r2, r2, #256
 411 0014 5A60     		str	r2, [r3, #4]
 412              	.LVL26:
 413              	.LBB125:
 414              	.LBB126:
 415              		.loc 3 720 0
 416 0016 42F21070 		movw	r0, #10000
 417              	.LVL27:
 418 001a FFF7FEBF 		b	chThdSleep
 419              	.LVL28:
 420              	.LBE126:
 421              	.LBE125:
 422              		.cfi_endproc
 423              	.LFE333:
 424              		.size	sdc_lld_start_clk, .-sdc_lld_start_clk
 425              		.section	.text.sdc_lld_set_data_clk,"ax",%progbits
 426              		.align	1
 427              		.global	sdc_lld_set_data_clk
 428              		.syntax unified
 429              		.thumb
 430              		.thumb_func
 431              		.fpu fpv4-sp-d16
 432              		.type	sdc_lld_set_data_clk, %function
 433              	sdc_lld_set_data_clk:
 434              	.LFB334:
 435              		.loc 1 456 0
 436              		.cfi_startproc
 437              		@ args = 0, pretend = 0, frame = 0
 438              		@ frame_needed = 0, uses_anonymous_args = 0
 439              		@ link register save eliminated.
 440              	.LVL29:
 441              		.loc 1 468 0
 442 0000 816C     		ldr	r1, [r0, #72]
 443              	.LVL30:
 444              		.loc 1 457 0
 445 0002 C36A     		ldr	r3, [r0, #44]
 446              		.loc 1 468 0
 447 0004 4A68     		ldr	r2, [r1, #4]
 448 0006 5B79     		ldrb	r3, [r3, #5]	@ zero_extendqisi2
 449 0008 22F0FF02 		bic	r2, r2, #255
 450 000c 1343     		orrs	r3, r3, r2
 451 000e 4B60     		str	r3, [r1, #4]
 452              	.LVL31:
 453 0010 7047     		bx	lr
 454              		.cfi_endproc
 455              	.LFE334:
 456              		.size	sdc_lld_set_data_clk, .-sdc_lld_set_data_clk
ARM GAS  /tmp/ccODC5Ge.s 			page 9


 457              		.section	.text.sdc_lld_stop_clk,"ax",%progbits
 458              		.align	1
 459              		.global	sdc_lld_stop_clk
 460              		.syntax unified
 461              		.thumb
 462              		.thumb_func
 463              		.fpu fpv4-sp-d16
 464              		.type	sdc_lld_stop_clk, %function
 465              	sdc_lld_stop_clk:
 466              	.LFB335:
 467              		.loc 1 479 0
 468              		.cfi_startproc
 469              		@ args = 0, pretend = 0, frame = 0
 470              		@ frame_needed = 0, uses_anonymous_args = 0
 471              		@ link register save eliminated.
 472              	.LVL32:
 473              		.loc 1 481 0
 474 0000 836C     		ldr	r3, [r0, #72]
 475 0002 0022     		movs	r2, #0
 476 0004 5A60     		str	r2, [r3, #4]
 477              		.loc 1 482 0
 478 0006 1A60     		str	r2, [r3]
 479 0008 7047     		bx	lr
 480              		.cfi_endproc
 481              	.LFE335:
 482              		.size	sdc_lld_stop_clk, .-sdc_lld_stop_clk
 483              		.section	.text.sdc_lld_set_bus_mode,"ax",%progbits
 484              		.align	1
 485              		.global	sdc_lld_set_bus_mode
 486              		.syntax unified
 487              		.thumb
 488              		.thumb_func
 489              		.fpu fpv4-sp-d16
 490              		.type	sdc_lld_set_bus_mode, %function
 491              	sdc_lld_set_bus_mode:
 492              	.LFB336:
 493              		.loc 1 493 0
 494              		.cfi_startproc
 495              		@ args = 0, pretend = 0, frame = 0
 496              		@ frame_needed = 0, uses_anonymous_args = 0
 497              		@ link register save eliminated.
 498              	.LVL33:
 499              		.loc 1 494 0
 500 0000 826C     		ldr	r2, [r0, #72]
 501 0002 5368     		ldr	r3, [r2, #4]
 502              		.loc 1 496 0
 503 0004 0129     		cmp	r1, #1
 504              		.loc 1 494 0
 505 0006 23F4C053 		bic	r3, r3, #6144
 506              	.LVL34:
 507              		.loc 1 496 0
 508 000a 03D0     		beq	.L49
 509 000c 04D3     		bcc	.L52
 510 000e 0229     		cmp	r1, #2
 511 0010 04D0     		beq	.L51
 512 0012 7047     		bx	lr
 513              	.L49:
ARM GAS  /tmp/ccODC5Ge.s 			page 10


 514              		.loc 1 501 0
 515 0014 43F40063 		orr	r3, r3, #2048
 516              	.LVL35:
 517              	.L52:
 518              		.loc 1 504 0
 519 0018 5360     		str	r3, [r2, #4]
 520 001a 7047     		bx	lr
 521              	.LVL36:
 522              	.L51:
 523 001c 43F48053 		orr	r3, r3, #4096
 524              	.LVL37:
 525 0020 FAE7     		b	.L52
 526              		.cfi_endproc
 527              	.LFE336:
 528              		.size	sdc_lld_set_bus_mode, .-sdc_lld_set_bus_mode
 529              		.section	.text.sdc_lld_send_cmd_none,"ax",%progbits
 530              		.align	1
 531              		.global	sdc_lld_send_cmd_none
 532              		.syntax unified
 533              		.thumb
 534              		.thumb_func
 535              		.fpu fpv4-sp-d16
 536              		.type	sdc_lld_send_cmd_none, %function
 537              	sdc_lld_send_cmd_none:
 538              	.LFB337:
 539              		.loc 1 518 0
 540              		.cfi_startproc
 541              		@ args = 0, pretend = 0, frame = 0
 542              		@ frame_needed = 0, uses_anonymous_args = 0
 543              		@ link register save eliminated.
 544              	.LVL38:
 545              		.loc 1 520 0
 546 0000 836C     		ldr	r3, [r0, #72]
 547              		.loc 1 521 0
 548 0002 41F48061 		orr	r1, r1, #1024
 549              	.LVL39:
 550              		.loc 1 520 0
 551 0006 9A60     		str	r2, [r3, #8]
 552              		.loc 1 521 0
 553 0008 D960     		str	r1, [r3, #12]
 554              	.LVL40:
 555              	.L54:
 556              		.loc 1 522 0 discriminator 1
 557 000a 5A6B     		ldr	r2, [r3, #52]
 558 000c 1206     		lsls	r2, r2, #24
 559 000e FCD5     		bpl	.L54
 560              		.loc 1 524 0
 561 0010 8022     		movs	r2, #128
 562 0012 9A63     		str	r2, [r3, #56]
 563 0014 7047     		bx	lr
 564              		.cfi_endproc
 565              	.LFE337:
 566              		.size	sdc_lld_send_cmd_none, .-sdc_lld_send_cmd_none
 567              		.section	.text.sdc_lld_send_cmd_short,"ax",%progbits
 568              		.align	1
 569              		.global	sdc_lld_send_cmd_short
 570              		.syntax unified
ARM GAS  /tmp/ccODC5Ge.s 			page 11


 571              		.thumb
 572              		.thumb_func
 573              		.fpu fpv4-sp-d16
 574              		.type	sdc_lld_send_cmd_short, %function
 575              	sdc_lld_send_cmd_short:
 576              	.LFB338:
 577              		.loc 1 543 0
 578              		.cfi_startproc
 579              		@ args = 0, pretend = 0, frame = 0
 580              		@ frame_needed = 0, uses_anonymous_args = 0
 581              	.LVL41:
 582 0000 10B5     		push	{r4, lr}
 583              		.cfi_def_cfa_offset 8
 584              		.cfi_offset 4, -8
 585              		.cfi_offset 14, -4
 586              		.loc 1 546 0
 587 0002 846C     		ldr	r4, [r0, #72]
 588              		.loc 1 547 0
 589 0004 41F48861 		orr	r1, r1, #1088
 590              	.LVL42:
 591              		.loc 1 546 0
 592 0008 A260     		str	r2, [r4, #8]
 593              		.loc 1 547 0
 594 000a E160     		str	r1, [r4, #12]
 595              	.LVL43:
 596              	.L58:
 597              		.loc 1 548 0 discriminator 1
 598 000c 616B     		ldr	r1, [r4, #52]
 599              	.LVL44:
 600 000e 11F04502 		ands	r2, r1, #69
 601 0012 FBD0     		beq	.L58
 602              		.loc 1 551 0
 603 0014 A263     		str	r2, [r4, #56]
 604              		.loc 1 553 0
 605 0016 11F00402 		ands	r2, r1, #4
 606 001a 04D0     		beq	.L59
 607              		.loc 1 554 0
 608 001c 3430     		adds	r0, r0, #52
 609              	.LVL45:
 610 001e FFF7FEFF 		bl	sdc_lld_collect_errors.isra.0
 611              	.LVL46:
 612              		.loc 1 555 0
 613 0022 0120     		movs	r0, #1
 614              	.LVL47:
 615 0024 10BD     		pop	{r4, pc}
 616              	.LVL48:
 617              	.L59:
 618              		.loc 1 557 0
 619 0026 6169     		ldr	r1, [r4, #20]
 620              	.LVL49:
 621 0028 1960     		str	r1, [r3]
 622              		.loc 1 558 0
 623 002a 1046     		mov	r0, r2
 624              	.LVL50:
 625              		.loc 1 559 0
 626 002c 10BD     		pop	{r4, pc}
 627              		.cfi_endproc
ARM GAS  /tmp/ccODC5Ge.s 			page 12


 628              	.LFE338:
 629              		.size	sdc_lld_send_cmd_short, .-sdc_lld_send_cmd_short
 630              		.section	.text.sdc_lld_send_cmd_short_crc,"ax",%progbits
 631              		.align	1
 632              		.global	sdc_lld_send_cmd_short_crc
 633              		.syntax unified
 634              		.thumb
 635              		.thumb_func
 636              		.fpu fpv4-sp-d16
 637              		.type	sdc_lld_send_cmd_short_crc, %function
 638              	sdc_lld_send_cmd_short_crc:
 639              	.LFB339:
 640              		.loc 1 576 0
 641              		.cfi_startproc
 642              		@ args = 0, pretend = 0, frame = 0
 643              		@ frame_needed = 0, uses_anonymous_args = 0
 644              	.LVL51:
 645 0000 10B5     		push	{r4, lr}
 646              		.cfi_def_cfa_offset 8
 647              		.cfi_offset 4, -8
 648              		.cfi_offset 14, -4
 649              		.loc 1 579 0
 650 0002 846C     		ldr	r4, [r0, #72]
 651              		.loc 1 580 0
 652 0004 41F48861 		orr	r1, r1, #1088
 653              	.LVL52:
 654              		.loc 1 579 0
 655 0008 A260     		str	r2, [r4, #8]
 656              		.loc 1 580 0
 657 000a E160     		str	r1, [r4, #12]
 658              	.LVL53:
 659              	.L64:
 660              		.loc 1 581 0 discriminator 1
 661 000c 616B     		ldr	r1, [r4, #52]
 662              	.LVL54:
 663 000e 11F04502 		ands	r2, r1, #69
 664 0012 FBD0     		beq	.L64
 665              		.loc 1 584 0
 666 0014 A263     		str	r2, [r4, #56]
 667              		.loc 1 585 0
 668 0016 11F00502 		ands	r2, r1, #5
 669 001a 04D0     		beq	.L65
 670              		.loc 1 586 0
 671 001c 3430     		adds	r0, r0, #52
 672              	.LVL55:
 673 001e FFF7FEFF 		bl	sdc_lld_collect_errors.isra.0
 674              	.LVL56:
 675              		.loc 1 587 0
 676 0022 0120     		movs	r0, #1
 677              	.LVL57:
 678 0024 10BD     		pop	{r4, pc}
 679              	.LVL58:
 680              	.L65:
 681              		.loc 1 589 0
 682 0026 6169     		ldr	r1, [r4, #20]
 683              	.LVL59:
 684 0028 1960     		str	r1, [r3]
ARM GAS  /tmp/ccODC5Ge.s 			page 13


 685              		.loc 1 590 0
 686 002a 1046     		mov	r0, r2
 687              	.LVL60:
 688              		.loc 1 591 0
 689 002c 10BD     		pop	{r4, pc}
 690              		.cfi_endproc
 691              	.LFE339:
 692              		.size	sdc_lld_send_cmd_short_crc, .-sdc_lld_send_cmd_short_crc
 693              		.section	.text.sdc_lld_wait_transaction_end,"ax",%progbits
 694              		.align	1
 695              		.syntax unified
 696              		.thumb
 697              		.thumb_func
 698              		.fpu fpv4-sp-d16
 699              		.type	sdc_lld_wait_transaction_end, %function
 700              	sdc_lld_wait_transaction_end:
 701              	.LFB326:
 702              		.loc 1 211 0
 703              		.cfi_startproc
 704              		@ args = 0, pretend = 0, frame = 0
 705              		@ frame_needed = 0, uses_anonymous_args = 0
 706              	.LVL61:
 707 0000 2DE9F041 		push	{r4, r5, r6, r7, r8, lr}
 708              		.cfi_def_cfa_offset 24
 709              		.cfi_offset 4, -24
 710              		.cfi_offset 5, -20
 711              		.cfi_offset 6, -16
 712              		.cfi_offset 7, -12
 713              		.cfi_offset 8, -8
 714              		.cfi_offset 14, -4
 715              	.LBB165:
 716              	.LBB166:
 717              	.LBB167:
 718              	.LBB168:
 719              	.LBB169:
 720              		.loc 2 493 0
 721 0004 2023     		movs	r3, #32
 722              	.LBE169:
 723              	.LBE168:
 724              	.LBE167:
 725              	.LBE166:
 726              	.LBE165:
 727              		.loc 1 211 0
 728 0006 0446     		mov	r4, r0
 729              	.LVL62:
 730 0008 0E46     		mov	r6, r1
 731 000a 1746     		mov	r7, r2
 732              	.LBB174:
 733              	.LBB173:
 734              	.LBB172:
 735              	.LBB171:
 736              	.LBB170:
 737              		.loc 2 493 0
 738              		.syntax unified
 739              	@ 493 "../../modules/ChibiOS/os/common/ext/ARM/CMSIS/Core/Include/cmsis_gcc.h" 1
 740 000c 83F31188 		MSR basepri, r3
 741              	@ 0 "" 2
ARM GAS  /tmp/ccODC5Ge.s 			page 14


 742              	.LVL63:
 743              		.thumb
 744              		.syntax unified
 745              	.LBE170:
 746              	.LBE171:
 747              	.LBE172:
 748              	.LBE173:
 749              	.LBE174:
 750              		.loc 1 216 0
 751 0010 836C     		ldr	r3, [r0, #72]
 752 0012 DB6B     		ldr	r3, [r3, #60]
 753 0014 23B1     		cbz	r3, .L70
 754              	.LVL64:
 755              	.LBB175:
 756              	.LBB176:
 757              		.loc 3 735 0
 758 0016 4FF0FF31 		mov	r1, #-1
 759              	.LVL65:
 760 001a 3C30     		adds	r0, r0, #60
 761              	.LVL66:
 762 001c FFF7FEFF 		bl	chThdSuspendTimeoutS
 763              	.LVL67:
 764              	.L70:
 765              	.LBE176:
 766              	.LBE175:
 767              		.loc 1 218 0
 768 0020 A56C     		ldr	r5, [r4, #72]
 769 0022 696B     		ldr	r1, [r5, #52]
 770 0024 11F48071 		ands	r1, r1, #256
 771 0028 04D1     		bne	.L71
 772              	.LVL68:
 773              	.LBB177:
 774              	.LBB178:
 775              	.LBB179:
 776              	.LBB180:
 777              	.LBB181:
 778              	.LBB182:
 779              		.loc 2 493 0
 780              		.syntax unified
 781              	@ 493 "../../modules/ChibiOS/os/common/ext/ARM/CMSIS/Core/Include/cmsis_gcc.h" 1
 782 002a 81F31188 		MSR basepri, r1
 783              	@ 0 "" 2
 784              	.LVL69:
 785              		.thumb
 786              		.syntax unified
 787              	.LBE182:
 788              	.LBE181:
 789              	.LBE180:
 790              	.LBE179:
 791              	.LBE178:
 792              	.LBE177:
 793              		.loc 1 220 0
 794 002e 0120     		movs	r0, #1
 795 0030 BDE8F081 		pop	{r4, r5, r6, r7, r8, pc}
 796              	.LVL70:
 797              	.L71:
 798              		.loc 1 225 0
ARM GAS  /tmp/ccODC5Ge.s 			page 15


 799 0034 636C     		ldr	r3, [r4, #68]
 800 0036 1A68     		ldr	r2, [r3]
 801              	.L73:
 802              		.loc 1 225 0 is_stmt 0 discriminator 1
 803 0038 1068     		ldr	r0, [r2]
 804 003a 10F00100 		ands	r0, r0, #1
 805 003e FBD1     		bne	.L73
 806              		.loc 1 229 0 is_stmt 1
 807 0040 5A68     		ldr	r2, [r3, #4]
 808 0042 5B7A     		ldrb	r3, [r3, #9]	@ zero_extendqisi2
 809 0044 3D21     		movs	r1, #61
 810 0046 9940     		lsls	r1, r1, r3
 811              		.loc 1 231 0
 812 0048 084B     		ldr	r3, .L79
 813              		.loc 1 229 0
 814 004a 1160     		str	r1, [r2]
 815              		.loc 1 231 0
 816 004c AB63     		str	r3, [r5, #56]
 817              		.loc 1 232 0
 818 004e E862     		str	r0, [r5, #44]
 819              	.LVL71:
 820              	.LBB183:
 821              	.LBB184:
 822              	.LBB185:
 823              	.LBB186:
 824              	.LBB187:
 825              	.LBB188:
 826              		.loc 2 493 0
 827              		.syntax unified
 828              	@ 493 "../../modules/ChibiOS/os/common/ext/ARM/CMSIS/Core/Include/cmsis_gcc.h" 1
 829 0050 80F31188 		MSR basepri, r0
 830              	@ 0 "" 2
 831              	.LVL72:
 832              		.thumb
 833              		.syntax unified
 834              	.LBE188:
 835              	.LBE187:
 836              	.LBE186:
 837              	.LBE185:
 838              	.LBE184:
 839              	.LBE183:
 840              		.loc 1 249 0
 841 0054 012E     		cmp	r6, #1
 842 0056 07D9     		bls	.L72
 843              	.LVL73:
 844              	.LBB189:
 845              	.LBB190:
 846              		.loc 1 250 0
 847 0058 3B46     		mov	r3, r7
 848 005a 0246     		mov	r2, r0
 849 005c 0C21     		movs	r1, #12
 850 005e 2046     		mov	r0, r4
 851              	.LBE190:
 852              	.LBE189:
 853              		.loc 1 253 0
 854 0060 BDE8F041 		pop	{r4, r5, r6, r7, r8, lr}
 855              		.cfi_remember_state
ARM GAS  /tmp/ccODC5Ge.s 			page 16


 856              		.cfi_restore 14
 857              		.cfi_restore 8
 858              		.cfi_restore 7
 859              		.cfi_restore 6
 860              		.cfi_restore 5
 861              		.cfi_restore 4
 862              		.cfi_def_cfa_offset 0
 863              	.LVL74:
 864              	.LBB192:
 865              	.LBB191:
 866              		.loc 1 250 0
 867 0064 FFF7FEBF 		b	sdc_lld_send_cmd_short_crc
 868              	.LVL75:
 869              	.L72:
 870              		.cfi_restore_state
 871              	.LBE191:
 872              	.LBE192:
 873              		.loc 1 253 0
 874 0068 BDE8F081 		pop	{r4, r5, r6, r7, r8, pc}
 875              	.LVL76:
 876              	.L80:
 877              		.align	2
 878              	.L79:
 879 006c FF07C000 		.word	12584959
 880              		.cfi_endproc
 881              	.LFE326:
 882              		.size	sdc_lld_wait_transaction_end, .-sdc_lld_wait_transaction_end
 883              		.section	.text.sdc_lld_error_cleanup,"ax",%progbits
 884              		.align	1
 885              		.syntax unified
 886              		.thumb
 887              		.thumb_func
 888              		.fpu fpv4-sp-d16
 889              		.type	sdc_lld_error_cleanup, %function
 890              	sdc_lld_error_cleanup:
 891              	.LFB328:
 892              		.loc 1 295 0
 893              		.cfi_startproc
 894              		@ args = 0, pretend = 0, frame = 0
 895              		@ frame_needed = 0, uses_anonymous_args = 0
 896              	.LVL77:
 897 0000 2DE9F041 		push	{r4, r5, r6, r7, r8, lr}
 898              		.cfi_def_cfa_offset 24
 899              		.cfi_offset 4, -24
 900              		.cfi_offset 5, -20
 901              		.cfi_offset 6, -16
 902              		.cfi_offset 7, -12
 903              		.cfi_offset 8, -8
 904              		.cfi_offset 14, -4
 905              		.loc 1 298 0
 906 0004 446C     		ldr	r4, [r0, #68]
 907 0006 667A     		ldrb	r6, [r4, #9]	@ zero_extendqisi2
 908 0008 6368     		ldr	r3, [r4, #4]
 909              		.loc 1 295 0
 910 000a 0546     		mov	r5, r0
 911 000c 9046     		mov	r8, r2
 912              		.loc 1 296 0
ARM GAS  /tmp/ccODC5Ge.s 			page 17


 913 000e 826C     		ldr	r2, [r0, #72]
 914              	.LVL78:
 915              		.loc 1 298 0
 916 0010 3D20     		movs	r0, #61
 917              	.LVL79:
 918 0012 B040     		lsls	r0, r0, r6
 919              		.loc 1 299 0
 920 0014 2668     		ldr	r6, [r4]
 921              		.loc 1 295 0
 922 0016 0F46     		mov	r7, r1
 923              		.loc 1 296 0
 924 0018 516B     		ldr	r1, [r2, #52]
 925              	.LVL80:
 926              		.loc 1 298 0
 927 001a 1860     		str	r0, [r3]
 928              		.loc 1 299 0
 929 001c 3468     		ldr	r4, [r6]
 930 001e 24F01F04 		bic	r4, r4, #31
 931 0022 3460     		str	r4, [r6]
 932              	.L82:
 933              		.loc 1 299 0 is_stmt 0 discriminator 2
 934 0024 3468     		ldr	r4, [r6]
 935 0026 14F00104 		ands	r4, r4, #1
 936 002a FBD1     		bne	.L82
 937              		.loc 1 299 0 discriminator 3
 938 002c 1860     		str	r0, [r3]
 939              		.loc 1 300 0 is_stmt 1 discriminator 3
 940 002e 0A4B     		ldr	r3, .L85
 941 0030 9363     		str	r3, [r2, #56]
 942              		.loc 1 303 0 discriminator 3
 943 0032 05F13400 		add	r0, r5, #52
 944              		.loc 1 301 0 discriminator 3
 945 0036 D463     		str	r4, [r2, #60]
 946              		.loc 1 302 0 discriminator 3
 947 0038 D462     		str	r4, [r2, #44]
 948              		.loc 1 303 0 discriminator 3
 949 003a FFF7FEFF 		bl	sdc_lld_collect_errors.isra.0
 950              	.LVL81:
 951              		.loc 1 304 0 discriminator 3
 952 003e 012F     		cmp	r7, #1
 953 0040 07D9     		bls	.L81
 954              	.LVL82:
 955              	.LBB195:
 956              	.LBB196:
 957              		.loc 1 305 0
 958 0042 4346     		mov	r3, r8
 959 0044 2246     		mov	r2, r4
 960 0046 2846     		mov	r0, r5
 961 0048 0C21     		movs	r1, #12
 962              	.LVL83:
 963              	.LBE196:
 964              	.LBE195:
 965              		.loc 1 306 0
 966 004a BDE8F041 		pop	{r4, r5, r6, r7, r8, lr}
 967              		.cfi_remember_state
 968              		.cfi_restore 14
 969              		.cfi_restore 8
ARM GAS  /tmp/ccODC5Ge.s 			page 18


 970              		.cfi_restore 7
 971              		.cfi_restore 6
 972              		.cfi_restore 5
 973              		.cfi_restore 4
 974              		.cfi_def_cfa_offset 0
 975              	.LVL84:
 976              	.LBB198:
 977              	.LBB197:
 978              		.loc 1 305 0
 979 004e FFF7FEBF 		b	sdc_lld_send_cmd_short_crc
 980              	.LVL85:
 981              	.L81:
 982              		.cfi_restore_state
 983 0052 BDE8F081 		pop	{r4, r5, r6, r7, r8, pc}
 984              	.LVL86:
 985              	.L86:
 986 0056 00BF     		.align	2
 987              	.L85:
 988 0058 FF07C000 		.word	12584959
 989              	.LBE197:
 990              	.LBE198:
 991              		.cfi_endproc
 992              	.LFE328:
 993              		.size	sdc_lld_error_cleanup, .-sdc_lld_error_cleanup
 994              		.section	.text.sdc_lld_send_cmd_long_crc,"ax",%progbits
 995              		.align	1
 996              		.global	sdc_lld_send_cmd_long_crc
 997              		.syntax unified
 998              		.thumb
 999              		.thumb_func
 1000              		.fpu fpv4-sp-d16
 1001              		.type	sdc_lld_send_cmd_long_crc, %function
 1002              	sdc_lld_send_cmd_long_crc:
 1003              	.LFB340:
 1004              		.loc 1 608 0
 1005              		.cfi_startproc
 1006              		@ args = 0, pretend = 0, frame = 0
 1007              		@ frame_needed = 0, uses_anonymous_args = 0
 1008              	.LVL87:
 1009 0000 10B5     		push	{r4, lr}
 1010              		.cfi_def_cfa_offset 8
 1011              		.cfi_offset 4, -8
 1012              		.cfi_offset 14, -4
 1013              		.loc 1 613 0
 1014 0002 846C     		ldr	r4, [r0, #72]
 1015              		.loc 1 614 0
 1016 0004 41F49861 		orr	r1, r1, #1216
 1017              	.LVL88:
 1018              		.loc 1 613 0
 1019 0008 A260     		str	r2, [r4, #8]
 1020              		.loc 1 614 0
 1021 000a E160     		str	r1, [r4, #12]
 1022              	.LVL89:
 1023              	.L88:
 1024              		.loc 1 616 0 discriminator 1
 1025 000c 616B     		ldr	r1, [r4, #52]
 1026              	.LVL90:
ARM GAS  /tmp/ccODC5Ge.s 			page 19


 1027 000e 11F04502 		ands	r2, r1, #69
 1028 0012 FBD0     		beq	.L88
 1029              		.loc 1 619 0
 1030 0014 A263     		str	r2, [r4, #56]
 1031              		.loc 1 621 0
 1032 0016 11F03F02 		ands	r2, r1, #63
 1033 001a 04D0     		beq	.L89
 1034              		.loc 1 622 0
 1035 001c 3430     		adds	r0, r0, #52
 1036              	.LVL91:
 1037 001e FFF7FEFF 		bl	sdc_lld_collect_errors.isra.0
 1038              	.LVL92:
 1039              		.loc 1 623 0
 1040 0022 0120     		movs	r0, #1
 1041              	.LVL93:
 1042 0024 10BD     		pop	{r4, pc}
 1043              	.LVL94:
 1044              	.L89:
 1045              		.loc 1 626 0
 1046 0026 216A     		ldr	r1, [r4, #32]
 1047              	.LVL95:
 1048 0028 1960     		str	r1, [r3]
 1049              	.LVL96:
 1050              		.loc 1 627 0
 1051 002a E169     		ldr	r1, [r4, #28]
 1052 002c 5960     		str	r1, [r3, #4]
 1053              	.LVL97:
 1054              		.loc 1 628 0
 1055 002e A169     		ldr	r1, [r4, #24]
 1056 0030 9960     		str	r1, [r3, #8]
 1057              		.loc 1 629 0
 1058 0032 6169     		ldr	r1, [r4, #20]
 1059 0034 D960     		str	r1, [r3, #12]
 1060              		.loc 1 630 0
 1061 0036 1046     		mov	r0, r2
 1062              	.LVL98:
 1063              		.loc 1 631 0
 1064 0038 10BD     		pop	{r4, pc}
 1065              		.cfi_endproc
 1066              	.LFE340:
 1067              		.size	sdc_lld_send_cmd_long_crc, .-sdc_lld_send_cmd_long_crc
 1068              		.section	.text.sdc_lld_read_special,"ax",%progbits
 1069              		.align	1
 1070              		.global	sdc_lld_read_special
 1071              		.syntax unified
 1072              		.thumb
 1073              		.thumb_func
 1074              		.fpu fpv4-sp-d16
 1075              		.type	sdc_lld_read_special, %function
 1076              	sdc_lld_read_special:
 1077              	.LFB341:
 1078              		.loc 1 650 0
 1079              		.cfi_startproc
 1080              		@ args = 4, pretend = 0, frame = 16
 1081              		@ frame_needed = 0, uses_anonymous_args = 0
 1082              	.LVL99:
 1083 0000 2DE9FF41 		push	{r0, r1, r2, r3, r4, r5, r6, r7, r8, lr}
ARM GAS  /tmp/ccODC5Ge.s 			page 20


 1084              		.cfi_def_cfa_offset 40
 1085              		.cfi_offset 4, -24
 1086              		.cfi_offset 5, -20
 1087              		.cfi_offset 6, -16
 1088              		.cfi_offset 7, -12
 1089              		.cfi_offset 8, -8
 1090              		.cfi_offset 14, -4
 1091              		.loc 1 650 0
 1092 0004 0446     		mov	r4, r0
 1093 0006 04A8     		add	r0, sp, #16
 1094              	.LVL100:
 1095 0008 1646     		mov	r6, r2
 1096 000a 40F80C1D 		str	r1, [r0, #-12]!
 1097              		.loc 1 653 0
 1098 000e 0146     		mov	r1, r0
 1099              	.LVL101:
 1100 0010 E06C     		ldr	r0, [r4, #76]
 1101              	.LVL102:
 1102              		.loc 1 650 0
 1103 0012 1D46     		mov	r5, r3
 1104              		.loc 1 653 0
 1105 0014 FFF7FEFF 		bl	bouncebuffer_setup_read
 1106              	.LVL103:
 1107 0018 0746     		mov	r7, r0
 1108 001a 0028     		cmp	r0, #0
 1109 001c 45D0     		beq	.L96
 1110              	.LBB201:
 1111              	.LBB202:
 1112              		.loc 1 93 0
 1113 001e A36C     		ldr	r3, [r4, #72]
 1114 0020 234A     		ldr	r2, .L97
 1115 0022 5A62     		str	r2, [r3, #36]
 1116              		.loc 1 96 0
 1117 0024 2046     		mov	r0, r4
 1118              	.LBE202:
 1119              	.LBE201:
 1120              		.loc 1 657 0
 1121 0026 DDF80480 		ldr	r8, [sp, #4]
 1122              	.LVL104:
 1123              	.LBB205:
 1124              	.LBB203:
 1125              		.loc 1 96 0
 1126 002a FFF7FEFF 		bl	_sdc_wait_for_transfer_state
 1127              	.LVL105:
 1128 002e 0028     		cmp	r0, #0
 1129 0030 2FD1     		bne	.L95
 1130              		.loc 1 100 0
 1131 0032 636C     		ldr	r3, [r4, #68]
 1132 0034 1B68     		ldr	r3, [r3]
 1133              		.loc 1 101 0
 1134 0036 B208     		lsrs	r2, r6, #2
 1135              		.loc 1 100 0
 1136 0038 C3F80C80 		str	r8, [r3, #12]
 1137              		.loc 1 101 0
 1138 003c 5A60     		str	r2, [r3, #4]
 1139              		.loc 1 102 0
 1140 003e 226C     		ldr	r2, [r4, #64]
ARM GAS  /tmp/ccODC5Ge.s 			page 21


 1141 0040 1A60     		str	r2, [r3]
 1142              		.loc 1 103 0
 1143 0042 1A68     		ldr	r2, [r3]
 1144 0044 42F00102 		orr	r2, r2, #1
 1145 0048 1A60     		str	r2, [r3]
 1146              		.loc 1 106 0
 1147 004a A36C     		ldr	r3, [r4, #72]
 1148 004c 194A     		ldr	r2, .L97+4
 1149 004e 9A63     		str	r2, [r3, #56]
 1150              		.loc 1 107 0
 1151 0050 40F22A32 		movw	r2, #810
 1152 0054 DA63     		str	r2, [r3, #60]
 1153              		.loc 1 115 0
 1154 0056 0F22     		movs	r2, #15
 1155              		.loc 1 112 0
 1156 0058 9E62     		str	r6, [r3, #40]
 1157              	.LBE203:
 1158              	.LBE205:
 1159              		.loc 1 660 0
 1160 005a 2946     		mov	r1, r5
 1161              	.LBB206:
 1162              	.LBB204:
 1163              		.loc 1 115 0
 1164 005c DA62     		str	r2, [r3, #44]
 1165              	.LVL106:
 1166              	.LBE204:
 1167              	.LBE206:
 1168              		.loc 1 660 0
 1169 005e 2046     		mov	r0, r4
 1170 0060 03AB     		add	r3, sp, #12
 1171 0062 0A9A     		ldr	r2, [sp, #40]
 1172 0064 FFF7FEFF 		bl	sdc_lld_send_cmd_short_crc
 1173              	.LVL107:
 1174 0068 98B9     		cbnz	r0, .L95
 1175              		.loc 1 661 0
 1176 006a 134B     		ldr	r3, .L97+8
 1177 006c 039A     		ldr	r2, [sp, #12]
 1178 006e 1340     		ands	r3, r3, r2
 1179 0070 7BB9     		cbnz	r3, .L95
 1180              		.loc 1 664 0
 1181 0072 03AA     		add	r2, sp, #12
 1182 0074 0121     		movs	r1, #1
 1183 0076 2046     		mov	r0, r4
 1184 0078 FFF7FEFF 		bl	sdc_lld_wait_transaction_end
 1185              	.LVL108:
 1186 007c 0546     		mov	r5, r0
 1187 007e 40B9     		cbnz	r0, .L95
 1188              		.loc 1 667 0
 1189 0080 3246     		mov	r2, r6
 1190 0082 0199     		ldr	r1, [sp, #4]
 1191 0084 E06C     		ldr	r0, [r4, #76]
 1192 0086 FFF7FEFF 		bl	bouncebuffer_finish_read
 1193              	.LVL109:
 1194              	.L94:
 1195              		.loc 1 675 0
 1196 008a 2846     		mov	r0, r5
 1197 008c 04B0     		add	sp, sp, #16
ARM GAS  /tmp/ccODC5Ge.s 			page 22


 1198              		.cfi_remember_state
 1199              		.cfi_def_cfa_offset 24
 1200              		@ sp needed
 1201 008e BDE8F081 		pop	{r4, r5, r6, r7, r8, pc}
 1202              	.LVL110:
 1203              	.L95:
 1204              		.cfi_restore_state
 1205              	.LDL1:
 1206              		.loc 1 672 0
 1207 0092 0022     		movs	r2, #0
 1208 0094 0199     		ldr	r1, [sp, #4]
 1209 0096 E06C     		ldr	r0, [r4, #76]
 1210 0098 FFF7FEFF 		bl	bouncebuffer_finish_read
 1211              	.LVL111:
 1212              		.loc 1 673 0
 1213 009c 03AA     		add	r2, sp, #12
 1214 009e 0121     		movs	r1, #1
 1215 00a0 2046     		mov	r0, r4
 1216 00a2 FFF7FEFF 		bl	sdc_lld_error_cleanup
 1217              	.LVL112:
 1218              		.loc 1 674 0
 1219 00a6 3D46     		mov	r5, r7
 1220 00a8 EFE7     		b	.L94
 1221              	.L96:
 1222              		.loc 1 654 0
 1223 00aa 0125     		movs	r5, #1
 1224 00ac EDE7     		b	.L94
 1225              	.L98:
 1226 00ae 00BF     		.align	2
 1227              	.L97:
 1228 00b0 00366E01 		.word	24000000
 1229 00b4 FF07C000 		.word	12584959
 1230 00b8 08E0FFFD 		.word	-33562616
 1231              		.cfi_endproc
 1232              	.LFE341:
 1233              		.size	sdc_lld_read_special, .-sdc_lld_read_special
 1234              		.section	.text.sdc_lld_read_aligned,"ax",%progbits
 1235              		.align	1
 1236              		.global	sdc_lld_read_aligned
 1237              		.syntax unified
 1238              		.thumb
 1239              		.thumb_func
 1240              		.fpu fpv4-sp-d16
 1241              		.type	sdc_lld_read_aligned, %function
 1242              	sdc_lld_read_aligned:
 1243              	.LFB342:
 1244              		.loc 1 692 0
 1245              		.cfi_startproc
 1246              		@ args = 0, pretend = 0, frame = 16
 1247              		@ frame_needed = 0, uses_anonymous_args = 0
 1248              	.LVL113:
 1249 0000 2DE9FF41 		push	{r0, r1, r2, r3, r4, r5, r6, r7, r8, lr}
 1250              		.cfi_def_cfa_offset 40
 1251              		.cfi_offset 4, -24
 1252              		.cfi_offset 5, -20
 1253              		.cfi_offset 6, -16
 1254              		.cfi_offset 7, -12
ARM GAS  /tmp/ccODC5Ge.s 			page 23


 1255              		.cfi_offset 8, -8
 1256              		.cfi_offset 14, -4
 1257              		.loc 1 692 0
 1258 0004 1F46     		mov	r7, r3
 1259              		.loc 1 697 0
 1260 0006 836C     		ldr	r3, [r0, #72]
 1261              	.LVL114:
 1262              		.loc 1 692 0
 1263 0008 0192     		str	r2, [sp, #4]
 1264              		.loc 1 697 0
 1265 000a 2B4A     		ldr	r2, .L115
 1266              	.LVL115:
 1267 000c 5A62     		str	r2, [r3, #36]
 1268              		.loc 1 692 0
 1269 000e 0446     		mov	r4, r0
 1270 0010 8846     		mov	r8, r1
 1271              		.loc 1 700 0
 1272 0012 FFF7FEFF 		bl	_sdc_wait_for_transfer_state
 1273              	.LVL116:
 1274 0016 20B1     		cbz	r0, .L100
 1275              	.L102:
 1276              		.loc 1 701 0
 1277 0018 0125     		movs	r5, #1
 1278              	.LVL117:
 1279              	.L111:
 1280              		.loc 1 744 0
 1281 001a 2846     		mov	r0, r5
 1282 001c 04B0     		add	sp, sp, #16
 1283              		.cfi_remember_state
 1284              		.cfi_def_cfa_offset 24
 1285              		@ sp needed
 1286 001e BDE8F081 		pop	{r4, r5, r6, r7, r8, pc}
 1287              	.LVL118:
 1288              	.L100:
 1289              		.cfi_restore_state
 1290              		.loc 1 703 0
 1291 0022 7E02     		lsls	r6, r7, #9
 1292 0024 3246     		mov	r2, r6
 1293 0026 01A9     		add	r1, sp, #4
 1294 0028 E06C     		ldr	r0, [r4, #76]
 1295 002a FFF7FEFF 		bl	bouncebuffer_setup_read
 1296              	.LVL119:
 1297 002e 0546     		mov	r5, r0
 1298 0030 0028     		cmp	r0, #0
 1299 0032 F1D0     		beq	.L102
 1300              		.loc 1 708 0
 1301 0034 636C     		ldr	r3, [r4, #68]
 1302 0036 019A     		ldr	r2, [sp, #4]
 1303 0038 1B68     		ldr	r3, [r3]
 1304 003a DA60     		str	r2, [r3, #12]
 1305              		.loc 1 709 0
 1306 003c B208     		lsrs	r2, r6, #2
 1307 003e 5A60     		str	r2, [r3, #4]
 1308              		.loc 1 711 0
 1309 0040 226C     		ldr	r2, [r4, #64]
 1310 0042 1A60     		str	r2, [r3]
 1311              		.loc 1 712 0
ARM GAS  /tmp/ccODC5Ge.s 			page 24


 1312 0044 1A68     		ldr	r2, [r3]
 1313 0046 42F00102 		orr	r2, r2, #1
 1314 004a 1A60     		str	r2, [r3]
 1315              		.loc 1 715 0
 1316 004c A36C     		ldr	r3, [r4, #72]
 1317 004e 1B4A     		ldr	r2, .L115+4
 1318 0050 9A63     		str	r2, [r3, #56]
 1319              		.loc 1 716 0
 1320 0052 40F22A32 		movw	r2, #810
 1321 0056 DA63     		str	r2, [r3, #60]
 1322              		.loc 1 724 0
 1323 0058 9B22     		movs	r2, #155
 1324              		.loc 1 721 0
 1325 005a 9E62     		str	r6, [r3, #40]
 1326              		.loc 1 724 0
 1327 005c DA62     		str	r2, [r3, #44]
 1328              	.LVL120:
 1329              	.LBB209:
 1330              	.LBB210:
 1331              		.loc 1 142 0
 1332 005e 236B     		ldr	r3, [r4, #48]
 1333 0060 DB06     		lsls	r3, r3, #27
 1334              		.loc 1 143 0
 1335 0062 58BF     		it	pl
 1336 0064 4FEA4828 		lslpl	r8, r8, #9
 1337              	.LVL121:
 1338              		.loc 1 145 0
 1339 0068 012F     		cmp	r7, #1
 1340              		.loc 1 147 0
 1341 006a 8CBF     		ite	hi
 1342 006c 1221     		movhi	r1, #18
 1343              		.loc 1 153 0
 1344 006e 1121     		movls	r1, #17
 1345              		.loc 1 147 0
 1346 0070 03AB     		add	r3, sp, #12
 1347              	.LVL122:
 1348 0072 4246     		mov	r2, r8
 1349              		.loc 1 153 0
 1350 0074 2046     		mov	r0, r4
 1351 0076 FFF7FEFF 		bl	sdc_lld_send_cmd_short_crc
 1352              	.LVL123:
 1353 007a 18B9     		cbnz	r0, .L105
 1354              		.loc 1 154 0
 1355 007c 104B     		ldr	r3, .L115+8
 1356 007e 039A     		ldr	r2, [sp, #12]
 1357 0080 1340     		ands	r3, r3, r2
 1358 0082 53B1     		cbz	r3, .L106
 1359              	.LVL124:
 1360              	.L105:
 1361              	.LDL2:
 1362              	.LBE210:
 1363              	.LBE209:
 1364              		.loc 1 741 0
 1365 0084 0199     		ldr	r1, [sp, #4]
 1366 0086 E06C     		ldr	r0, [r4, #76]
 1367 0088 0022     		movs	r2, #0
 1368 008a FFF7FEFF 		bl	bouncebuffer_finish_read
ARM GAS  /tmp/ccODC5Ge.s 			page 25


 1369              	.LVL125:
 1370              		.loc 1 742 0
 1371 008e 03AA     		add	r2, sp, #12
 1372 0090 3946     		mov	r1, r7
 1373 0092 2046     		mov	r0, r4
 1374 0094 FFF7FEFF 		bl	sdc_lld_error_cleanup
 1375              	.LVL126:
 1376              		.loc 1 743 0
 1377 0098 BFE7     		b	.L111
 1378              	.LVL127:
 1379              	.L106:
 1380              		.loc 1 733 0
 1381 009a 03AA     		add	r2, sp, #12
 1382 009c 3946     		mov	r1, r7
 1383 009e 2046     		mov	r0, r4
 1384 00a0 FFF7FEFF 		bl	sdc_lld_wait_transaction_end
 1385              	.LVL128:
 1386 00a4 8046     		mov	r8, r0
 1387 00a6 0028     		cmp	r0, #0
 1388 00a8 ECD1     		bne	.L105
 1389              		.loc 1 736 0
 1390 00aa 3246     		mov	r2, r6
 1391 00ac 0199     		ldr	r1, [sp, #4]
 1392 00ae E06C     		ldr	r0, [r4, #76]
 1393 00b0 FFF7FEFF 		bl	bouncebuffer_finish_read
 1394              	.LVL129:
 1395              		.loc 1 738 0
 1396 00b4 4546     		mov	r5, r8
 1397 00b6 B0E7     		b	.L111
 1398              	.L116:
 1399              		.align	2
 1400              	.L115:
 1401 00b8 00366E01 		.word	24000000
 1402 00bc FF07C000 		.word	12584959
 1403 00c0 08E0FFFD 		.word	-33562616
 1404              		.cfi_endproc
 1405              	.LFE342:
 1406              		.size	sdc_lld_read_aligned, .-sdc_lld_read_aligned
 1407              		.section	.text.sdc_lld_write_aligned,"ax",%progbits
 1408              		.align	1
 1409              		.global	sdc_lld_write_aligned
 1410              		.syntax unified
 1411              		.thumb
 1412              		.thumb_func
 1413              		.fpu fpv4-sp-d16
 1414              		.type	sdc_lld_write_aligned, %function
 1415              	sdc_lld_write_aligned:
 1416              	.LFB343:
 1417              		.loc 1 761 0
 1418              		.cfi_startproc
 1419              		@ args = 0, pretend = 0, frame = 16
 1420              		@ frame_needed = 0, uses_anonymous_args = 0
 1421              	.LVL130:
 1422 0000 2DE9FF41 		push	{r0, r1, r2, r3, r4, r5, r6, r7, r8, lr}
 1423              		.cfi_def_cfa_offset 40
 1424              		.cfi_offset 4, -24
 1425              		.cfi_offset 5, -20
ARM GAS  /tmp/ccODC5Ge.s 			page 26


 1426              		.cfi_offset 6, -16
 1427              		.cfi_offset 7, -12
 1428              		.cfi_offset 8, -8
 1429              		.cfi_offset 14, -4
 1430              		.loc 1 761 0
 1431 0004 1E46     		mov	r6, r3
 1432              		.loc 1 766 0
 1433 0006 836C     		ldr	r3, [r0, #72]
 1434              	.LVL131:
 1435              		.loc 1 761 0
 1436 0008 0192     		str	r2, [sp, #4]
 1437              		.loc 1 766 0
 1438 000a 2D4A     		ldr	r2, .L133
 1439              	.LVL132:
 1440 000c 5A62     		str	r2, [r3, #36]
 1441              		.loc 1 761 0
 1442 000e 0446     		mov	r4, r0
 1443 0010 0F46     		mov	r7, r1
 1444              		.loc 1 769 0
 1445 0012 FFF7FEFF 		bl	_sdc_wait_for_transfer_state
 1446              	.LVL133:
 1447 0016 20B1     		cbz	r0, .L118
 1448              	.L120:
 1449              		.loc 1 770 0
 1450 0018 0125     		movs	r5, #1
 1451              	.LVL134:
 1452              	.L129:
 1453              		.loc 1 813 0
 1454 001a 2846     		mov	r0, r5
 1455 001c 04B0     		add	sp, sp, #16
 1456              		.cfi_remember_state
 1457              		.cfi_def_cfa_offset 24
 1458              		@ sp needed
 1459 001e BDE8F081 		pop	{r4, r5, r6, r7, r8, pc}
 1460              	.LVL135:
 1461              	.L118:
 1462              		.cfi_restore_state
 1463              		.loc 1 772 0
 1464 0022 4FEA4628 		lsl	r8, r6, #9
 1465 0026 4246     		mov	r2, r8
 1466 0028 01A9     		add	r1, sp, #4
 1467 002a E06C     		ldr	r0, [r4, #76]
 1468 002c FFF7FEFF 		bl	bouncebuffer_setup_write
 1469              	.LVL136:
 1470 0030 0546     		mov	r5, r0
 1471 0032 0028     		cmp	r0, #0
 1472 0034 F0D0     		beq	.L120
 1473              		.loc 1 777 0
 1474 0036 636C     		ldr	r3, [r4, #68]
 1475 0038 019A     		ldr	r2, [sp, #4]
 1476 003a 1B68     		ldr	r3, [r3]
 1477 003c DA60     		str	r2, [r3, #12]
 1478              		.loc 1 778 0
 1479 003e 4FEA9802 		lsr	r2, r8, #2
 1480 0042 5A60     		str	r2, [r3, #4]
 1481              		.loc 1 780 0
 1482 0044 226C     		ldr	r2, [r4, #64]
ARM GAS  /tmp/ccODC5Ge.s 			page 27


 1483 0046 42F04002 		orr	r2, r2, #64
 1484 004a 1A60     		str	r2, [r3]
 1485              		.loc 1 781 0
 1486 004c 1A68     		ldr	r2, [r3]
 1487 004e 42F00102 		orr	r2, r2, #1
 1488 0052 1A60     		str	r2, [r3]
 1489              		.loc 1 784 0
 1490 0054 A36C     		ldr	r3, [r4, #72]
 1491 0056 1B4A     		ldr	r2, .L133+4
 1492 0058 9A63     		str	r2, [r3, #56]
 1493              		.loc 1 785 0
 1494 005a 40F21A32 		movw	r2, #794
 1495 005e DA63     		str	r2, [r3, #60]
 1496              		.loc 1 790 0
 1497 0060 C3F82880 		str	r8, [r3, #40]
 1498              	.LVL137:
 1499              	.LBB213:
 1500              	.LBB214:
 1501              		.loc 1 180 0
 1502 0064 236B     		ldr	r3, [r4, #48]
 1503 0066 DB06     		lsls	r3, r3, #27
 1504              		.loc 1 181 0
 1505 0068 58BF     		it	pl
 1506 006a 7F02     		lslpl	r7, r7, #9
 1507              	.LVL138:
 1508              		.loc 1 183 0
 1509 006c 012E     		cmp	r6, #1
 1510              		.loc 1 185 0
 1511 006e 8CBF     		ite	hi
 1512 0070 1921     		movhi	r1, #25
 1513              		.loc 1 191 0
 1514 0072 1821     		movls	r1, #24
 1515              		.loc 1 185 0
 1516 0074 03AB     		add	r3, sp, #12
 1517              	.LVL139:
 1518 0076 3A46     		mov	r2, r7
 1519              		.loc 1 191 0
 1520 0078 2046     		mov	r0, r4
 1521 007a FFF7FEFF 		bl	sdc_lld_send_cmd_short_crc
 1522              	.LVL140:
 1523 007e 18B9     		cbnz	r0, .L123
 1524              		.loc 1 192 0
 1525 0080 114B     		ldr	r3, .L133+8
 1526 0082 039A     		ldr	r2, [sp, #12]
 1527 0084 1340     		ands	r3, r3, r2
 1528 0086 4BB1     		cbz	r3, .L124
 1529              	.LVL141:
 1530              	.L123:
 1531              	.LDL3:
 1532              	.LBE214:
 1533              	.LBE213:
 1534              		.loc 1 810 0
 1535 0088 0199     		ldr	r1, [sp, #4]
 1536 008a E06C     		ldr	r0, [r4, #76]
 1537 008c FFF7FEFF 		bl	bouncebuffer_finish_write
 1538              	.LVL142:
 1539              		.loc 1 811 0
ARM GAS  /tmp/ccODC5Ge.s 			page 28


 1540 0090 03AA     		add	r2, sp, #12
 1541 0092 3146     		mov	r1, r6
 1542 0094 2046     		mov	r0, r4
 1543 0096 FFF7FEFF 		bl	sdc_lld_error_cleanup
 1544              	.LVL143:
 1545              		.loc 1 812 0
 1546 009a BEE7     		b	.L129
 1547              	.LVL144:
 1548              	.L124:
 1549              		.loc 1 797 0
 1550 009c A36C     		ldr	r3, [r4, #72]
 1551 009e 9922     		movs	r2, #153
 1552 00a0 DA62     		str	r2, [r3, #44]
 1553              		.loc 1 802 0
 1554 00a2 3146     		mov	r1, r6
 1555 00a4 03AA     		add	r2, sp, #12
 1556 00a6 2046     		mov	r0, r4
 1557 00a8 FFF7FEFF 		bl	sdc_lld_wait_transaction_end
 1558              	.LVL145:
 1559 00ac 0746     		mov	r7, r0
 1560 00ae 0028     		cmp	r0, #0
 1561 00b0 EAD1     		bne	.L123
 1562              		.loc 1 805 0
 1563 00b2 0199     		ldr	r1, [sp, #4]
 1564 00b4 E06C     		ldr	r0, [r4, #76]
 1565 00b6 FFF7FEFF 		bl	bouncebuffer_finish_write
 1566              	.LVL146:
 1567              		.loc 1 807 0
 1568 00ba 3D46     		mov	r5, r7
 1569 00bc ADE7     		b	.L129
 1570              	.L134:
 1571 00be 00BF     		.align	2
 1572              	.L133:
 1573 00c0 00366E01 		.word	24000000
 1574 00c4 FF07C000 		.word	12584959
 1575 00c8 08E0FFFD 		.word	-33562616
 1576              		.cfi_endproc
 1577              	.LFE343:
 1578              		.size	sdc_lld_write_aligned, .-sdc_lld_write_aligned
 1579              		.section	.text.sdc_lld_read,"ax",%progbits
 1580              		.align	1
 1581              		.global	sdc_lld_read
 1582              		.syntax unified
 1583              		.thumb
 1584              		.thumb_func
 1585              		.fpu fpv4-sp-d16
 1586              		.type	sdc_lld_read, %function
 1587              	sdc_lld_read:
 1588              	.LFB344:
 1589              		.loc 1 830 0
 1590              		.cfi_startproc
 1591              		@ args = 0, pretend = 0, frame = 0
 1592              		@ frame_needed = 0, uses_anonymous_args = 0
 1593              	.LVL147:
 1594              		.loc 1 833 0
 1595 0000 12F0030F 		tst	r2, #3
 1596              		.loc 1 830 0
ARM GAS  /tmp/ccODC5Ge.s 			page 29


 1597 0004 2DE9F041 		push	{r4, r5, r6, r7, r8, lr}
 1598              		.cfi_def_cfa_offset 24
 1599              		.cfi_offset 4, -24
 1600              		.cfi_offset 5, -20
 1601              		.cfi_offset 6, -16
 1602              		.cfi_offset 7, -12
 1603              		.cfi_offset 8, -8
 1604              		.cfi_offset 14, -4
 1605              		.loc 1 830 0
 1606 0008 0746     		mov	r7, r0
 1607 000a 0C46     		mov	r4, r1
 1608 000c 1E46     		mov	r6, r3
 1609              		.loc 1 833 0
 1610 000e 1BD0     		beq	.L136
 1611 0010 C1EBC153 		rsb	r3, r1, r1, lsl #23
 1612              	.LVL148:
 1613              	.LBB215:
 1614              		.loc 1 836 0
 1615 0014 DFF83C80 		ldr	r8, .L140
 1616 0018 0E44     		add	r6, r6, r1
 1617              	.LVL149:
 1618 001a 02EB4325 		add	r5, r2, r3, lsl #9
 1619              	.LVL150:
 1620              	.L137:
 1621              		.loc 1 835 0 discriminator 1
 1622 001e B442     		cmp	r4, r6
 1623 0020 02D1     		bne	.L139
 1624              		.loc 1 842 0
 1625 0022 0020     		movs	r0, #0
 1626 0024 BDE8F081 		pop	{r4, r5, r6, r7, r8, pc}
 1627              	.LVL151:
 1628              	.L139:
 1629              		.loc 1 836 0
 1630 0028 0123     		movs	r3, #1
 1631 002a 0A4A     		ldr	r2, .L140
 1632 002c 2146     		mov	r1, r4
 1633 002e 3846     		mov	r0, r7
 1634 0030 FFF7FEFF 		bl	sdc_lld_read_aligned
 1635              	.LVL152:
 1636 0034 60B9     		cbnz	r0, .L138
 1637              		.loc 1 838 0 discriminator 2
 1638 0036 05EB4420 		add	r0, r5, r4, lsl #9
 1639 003a 4FF40072 		mov	r2, #512
 1640 003e 4146     		mov	r1, r8
 1641 0040 FFF7FEFF 		bl	memcpy
 1642              	.LVL153:
 1643              		.loc 1 840 0 discriminator 2
 1644 0044 0134     		adds	r4, r4, #1
 1645              	.LVL154:
 1646 0046 EAE7     		b	.L137
 1647              	.LVL155:
 1648              	.L136:
 1649              	.LBE215:
 1650              		.loc 1 848 0
 1651 0048 BDE8F041 		pop	{r4, r5, r6, r7, r8, lr}
 1652              		.cfi_remember_state
 1653              		.cfi_restore 14
ARM GAS  /tmp/ccODC5Ge.s 			page 30


 1654              		.cfi_restore 8
 1655              		.cfi_restore 7
 1656              		.cfi_restore 6
 1657              		.cfi_restore 5
 1658              		.cfi_restore 4
 1659              		.cfi_def_cfa_offset 0
 1660              		.loc 1 847 0
 1661 004c FFF7FEBF 		b	sdc_lld_read_aligned
 1662              	.LVL156:
 1663              	.L138:
 1664              		.cfi_restore_state
 1665              		.loc 1 848 0
 1666 0050 BDE8F081 		pop	{r4, r5, r6, r7, r8, pc}
 1667              	.LVL157:
 1668              	.L141:
 1669              		.align	2
 1670              	.L140:
 1671 0054 00000000 		.word	.LANCHOR2
 1672              		.cfi_endproc
 1673              	.LFE344:
 1674              		.size	sdc_lld_read, .-sdc_lld_read
 1675              		.section	.text.sdc_lld_write,"ax",%progbits
 1676              		.align	1
 1677              		.global	sdc_lld_write
 1678              		.syntax unified
 1679              		.thumb
 1680              		.thumb_func
 1681              		.fpu fpv4-sp-d16
 1682              		.type	sdc_lld_write, %function
 1683              	sdc_lld_write:
 1684              	.LFB345:
 1685              		.loc 1 865 0
 1686              		.cfi_startproc
 1687              		@ args = 0, pretend = 0, frame = 0
 1688              		@ frame_needed = 0, uses_anonymous_args = 0
 1689              	.LVL158:
 1690 0000 2DE9F041 		push	{r4, r5, r6, r7, r8, lr}
 1691              		.cfi_def_cfa_offset 24
 1692              		.cfi_offset 4, -24
 1693              		.cfi_offset 5, -20
 1694              		.cfi_offset 6, -16
 1695              		.cfi_offset 7, -12
 1696              		.cfi_offset 8, -8
 1697              		.cfi_offset 14, -4
 1698              		.loc 1 868 0
 1699 0004 9707     		lsls	r7, r2, #30
 1700              		.loc 1 865 0
 1701 0006 8046     		mov	r8, r0
 1702 0008 0C46     		mov	r4, r1
 1703 000a 1E46     		mov	r6, r3
 1704              		.loc 1 868 0
 1705 000c 1AD0     		beq	.L143
 1706 000e C1EBC153 		rsb	r3, r1, r1, lsl #23
 1707              	.LVL159:
 1708              	.LBB216:
 1709              		.loc 1 871 0
 1710 0012 0F4F     		ldr	r7, .L147
ARM GAS  /tmp/ccODC5Ge.s 			page 31


 1711 0014 0E44     		add	r6, r6, r1
 1712              	.LVL160:
 1713 0016 02EB4325 		add	r5, r2, r3, lsl #9
 1714              	.LVL161:
 1715              	.L144:
 1716              		.loc 1 870 0 discriminator 1
 1717 001a B442     		cmp	r4, r6
 1718 001c 02D1     		bne	.L146
 1719              		.loc 1 877 0
 1720 001e 0020     		movs	r0, #0
 1721 0020 BDE8F081 		pop	{r4, r5, r6, r7, r8, pc}
 1722              	.LVL162:
 1723              	.L146:
 1724              		.loc 1 871 0
 1725 0024 4FF40072 		mov	r2, #512
 1726 0028 05EB4421 		add	r1, r5, r4, lsl #9
 1727 002c 3846     		mov	r0, r7
 1728 002e FFF7FEFF 		bl	memcpy
 1729              	.LVL163:
 1730              		.loc 1 873 0
 1731 0032 0123     		movs	r3, #1
 1732 0034 3A46     		mov	r2, r7
 1733 0036 2146     		mov	r1, r4
 1734 0038 4046     		mov	r0, r8
 1735 003a FFF7FEFF 		bl	sdc_lld_write_aligned
 1736              	.LVL164:
 1737 003e 28B9     		cbnz	r0, .L145
 1738              		.loc 1 875 0 discriminator 2
 1739 0040 0134     		adds	r4, r4, #1
 1740              	.LVL165:
 1741 0042 EAE7     		b	.L144
 1742              	.LVL166:
 1743              	.L143:
 1744              	.LBE216:
 1745              		.loc 1 883 0
 1746 0044 BDE8F041 		pop	{r4, r5, r6, r7, r8, lr}
 1747              		.cfi_remember_state
 1748              		.cfi_restore 14
 1749              		.cfi_restore 8
 1750              		.cfi_restore 7
 1751              		.cfi_restore 6
 1752              		.cfi_restore 5
 1753              		.cfi_restore 4
 1754              		.cfi_def_cfa_offset 0
 1755              		.loc 1 882 0
 1756 0048 FFF7FEBF 		b	sdc_lld_write_aligned
 1757              	.LVL167:
 1758              	.L145:
 1759              		.cfi_restore_state
 1760              		.loc 1 883 0
 1761 004c BDE8F081 		pop	{r4, r5, r6, r7, r8, pc}
 1762              	.LVL168:
 1763              	.L148:
 1764              		.align	2
 1765              	.L147:
 1766 0050 00000000 		.word	.LANCHOR2
 1767              		.cfi_endproc
ARM GAS  /tmp/ccODC5Ge.s 			page 32


 1768              	.LFE345:
 1769              		.size	sdc_lld_write, .-sdc_lld_write
 1770              		.section	.text.sdc_lld_sync,"ax",%progbits
 1771              		.align	1
 1772              		.global	sdc_lld_sync
 1773              		.syntax unified
 1774              		.thumb
 1775              		.thumb_func
 1776              		.fpu fpv4-sp-d16
 1777              		.type	sdc_lld_sync, %function
 1778              	sdc_lld_sync:
 1779              	.LFB346:
 1780              		.loc 1 896 0
 1781              		.cfi_startproc
 1782              		@ args = 0, pretend = 0, frame = 0
 1783              		@ frame_needed = 0, uses_anonymous_args = 0
 1784              		@ link register save eliminated.
 1785              	.LVL169:
 1786              		.loc 1 901 0
 1787 0000 0020     		movs	r0, #0
 1788              	.LVL170:
 1789 0002 7047     		bx	lr
 1790              		.cfi_endproc
 1791              	.LFE346:
 1792              		.size	sdc_lld_sync, .-sdc_lld_sync
 1793              		.global	SDCD1
 1794              		.section	.bss.SDCD1,"aw",%nobits
 1795              		.align	2
 1796              		.set	.LANCHOR0,. + 0
 1797              		.type	SDCD1, %object
 1798              		.size	SDCD1, 80
 1799              	SDCD1:
 1800 0000 00000000 		.space	80
 1800      00000000 
 1800      00000000 
 1800      00000000 
 1800      00000000 
 1801              		.section	.bss.u,"aw",%nobits
 1802              		.align	2
 1803              		.set	.LANCHOR2,. + 0
 1804              		.type	u, %object
 1805              		.size	u, 512
 1806              	u:
 1807 0000 00000000 		.space	512
 1807      00000000 
 1807      00000000 
 1807      00000000 
 1807      00000000 
 1808              		.section	.rodata.sdc_default_cfg,"a",%progbits
 1809              		.align	2
 1810              		.set	.LANCHOR1,. + 0
 1811              		.type	sdc_default_cfg, %object
 1812              		.size	sdc_default_cfg, 8
 1813              	sdc_default_cfg:
 1814 0000 00000000 		.word	0
 1815 0004 01       		.byte	1
 1816 0005 00       		.byte	0
ARM GAS  /tmp/ccODC5Ge.s 			page 33


 1817 0006 0000     		.space	2
 1818              		.text
 1819              	.Letext0:
 1820              		.file 4 "/opt/gcc-arm-none-eabi-6-2017-q2-update/lib/gcc/arm-none-eabi/6.3.1/include/stddef.h"
 1821              		.file 5 "/opt/gcc-arm-none-eabi-6-2017-q2-update/arm-none-eabi/include/machine/_default_types.h"
 1822              		.file 6 "/opt/gcc-arm-none-eabi-6-2017-q2-update/arm-none-eabi/include/sys/lock.h"
 1823              		.file 7 "/opt/gcc-arm-none-eabi-6-2017-q2-update/arm-none-eabi/include/sys/_types.h"
 1824              		.file 8 "/opt/gcc-arm-none-eabi-6-2017-q2-update/arm-none-eabi/include/sys/reent.h"
 1825              		.file 9 "/opt/gcc-arm-none-eabi-6-2017-q2-update/arm-none-eabi/include/sys/_stdint.h"
 1826              		.file 10 "/opt/gcc-arm-none-eabi-6-2017-q2-update/arm-none-eabi/include/stdint.h"
 1827              		.file 11 "../../modules/ChibiOS/os/common/ports/ARMCMx/compilers/GCC/chtypes.h"
 1828              		.file 12 "../../modules/ChibiOS/os/rt/include/chsystypes.h"
 1829              		.file 13 "../../modules/ChibiOS/os/rt/include/chschd.h"
 1830              		.file 14 "../../modules/ChibiOS/os/rt/include/chtime.h"
 1831              		.file 15 "../../modules/ChibiOS/os/common/ext/ARM/CMSIS/Core/Include/core_cm4.h"
 1832              		.file 16 "../../modules/ChibiOS/os/common/ext/ST/STM32F4xx/system_stm32f4xx.h"
 1833              		.file 17 "../../modules/ChibiOS/os/common/ext/ST/STM32F4xx/stm32f427xx.h"
 1834              		.file 18 "../../modules/ChibiOS/os/common/ports/ARMCMx/chcore.h"
 1835              		.file 19 "../../modules/ChibiOS/os/common/ports/ARMCMx/chcore_v7m.h"
 1836              		.file 20 "../../modules/ChibiOS/os/hal/ports/STM32/LLD/TIMv1/stm32_tim.h"
 1837              		.file 21 "../../modules/ChibiOS/os/rt/include/chtm.h"
 1838              		.file 22 "../../modules/ChibiOS/os/rt/include/chsem.h"
 1839              		.file 23 "../../modules/ChibiOS/os/rt/include/chmtx.h"
 1840              		.file 24 "../../modules/ChibiOS/os/rt/include/chsys.h"
 1841              		.file 25 "../../modules/ChibiOS/os/rt/include/chregistry.h"
 1842              		.file 26 "../../modules/ChibiOS/os/rt/include/chevents.h"
 1843              		.file 27 "../../modules/ChibiOS/os/oslib/include/chmemcore.h"
 1844              		.file 28 "../../modules/ChibiOS/os/oslib/include/chmempools.h"
 1845              		.file 29 "../../modules/ChibiOS/os/oslib/include/chfactory.h"
 1846              		.file 30 "../../modules/ChibiOS/os/hal/ports/STM32/LLD/DMAv2/stm32_dma.h"
 1847              		.file 31 "../../modules/ChibiOS/os/hal/include/hal_ioblock.h"
 1848              		.file 32 "../../modules/ChibiOS/os/hal/include/hal_queues.h"
 1849              		.file 33 "../../modules/ChibiOS/os/hal/include/hal_pal.h"
 1850              		.file 34 "../../modules/ChibiOS/os/hal/ports/STM32/LLD/GPIOv2/stm32_gpio.h"
 1851              		.file 35 "../../modules/ChibiOS/os/hal/ports/STM32/LLD/GPIOv2/hal_pal_lld.h"
 1852              		.file 36 "../../modules/ChibiOS/os/hal/include/hal_adc.h"
 1853              		.file 37 "../../modules/ChibiOS/os/hal/ports/STM32/LLD/ADCv2/hal_adc_lld.h"
 1854              		.file 38 "../../modules/ChibiOS/os/hal/include/hal_i2c.h"
 1855              		.file 39 "../../modules/ChibiOS/os/hal/ports/STM32/LLD/I2Cv1/hal_i2c_lld.h"
 1856              		.file 40 "../../modules/ChibiOS/os/hal/include/hal_pwm.h"
 1857              		.file 41 "../../modules/ChibiOS/os/hal/ports/STM32/LLD/TIMv1/hal_pwm_lld.h"
 1858              		.file 42 "../../modules/ChibiOS/os/hal/include/hal_serial.h"
 1859              		.file 43 "../../modules/ChibiOS/os/hal/ports/STM32/LLD/USARTv1/hal_serial_lld.h"
 1860              		.file 44 "../../modules/ChibiOS/os/hal/include/hal_sdc.h"
 1861              		.file 45 "../../modules/ChibiOS/os/hal/ports/STM32/LLD/SDIOv1/hal_sdc_lld.h"
 1862              		.file 46 "../../libraries/AP_HAL_ChibiOS/hwdef/common/bouncebuffer.h"
 1863              		.file 47 "../../modules/ChibiOS/os/hal/include/hal_spi.h"
 1864              		.file 48 "../../modules/ChibiOS/os/hal/ports/STM32/LLD/SPIv1/hal_spi_lld.h"
 1865              		.file 49 "../../modules/ChibiOS/os/hal/include/hal_usb.h"
 1866              		.file 50 "../../modules/ChibiOS/os/hal/ports/STM32/LLD/OTGv1/hal_usb_lld.h"
 1867              		.file 51 "../../modules/ChibiOS/os/hal/ports/STM32/LLD/OTGv1/stm32_otg.h"
 1868              		.file 52 "../../modules/ChibiOS/os/rt/include/chthreads.h"
 1869              		.file 53 "../../modules/ChibiOS/os/hal/ports/common/ARMCMx/nvic.h"