ARM GAS  /tmp/cclpTHg3.s 			page 1


   1              		.cpu cortex-m4
   2              		.eabi_attribute 27, 1
   3              		.eabi_attribute 28, 1
   4              		.eabi_attribute 20, 1
   5              		.eabi_attribute 21, 1
   6              		.eabi_attribute 23, 3
   7              		.eabi_attribute 24, 1
   8              		.eabi_attribute 25, 1
   9              		.eabi_attribute 26, 1
  10              		.eabi_attribute 30, 4
  11              		.eabi_attribute 34, 1
  12              		.eabi_attribute 18, 4
  13              		.file	"hal_pwm_lld.c"
  14              		.text
  15              	.Ltext0:
  16              		.cfi_sections	.debug_frame
  17              		.section	.text.pwm_lld_init,"ax",%progbits
  18              		.align	1
  19              		.global	pwm_lld_init
  20              		.syntax unified
  21              		.thumb
  22              		.thumb_func
  23              		.fpu fpv4-sp-d16
  24              		.type	pwm_lld_init, %function
  25              	pwm_lld_init:
  26              	.LFB323:
  27              		.file 1 "../../modules/ChibiOS/os/hal/ports/STM32/LLD/TIMv1/hal_pwm_lld.c"
  28              		.loc 1 391 0
  29              		.cfi_startproc
  30              		@ args = 0, pretend = 0, frame = 0
  31              		@ frame_needed = 0, uses_anonymous_args = 0
  32 0000 38B5     		push	{r3, r4, r5, lr}
  33              		.cfi_def_cfa_offset 16
  34              		.cfi_offset 3, -16
  35              		.cfi_offset 4, -12
  36              		.cfi_offset 5, -8
  37              		.cfi_offset 14, -4
  38              		.loc 1 395 0
  39 0002 0C4C     		ldr	r4, .L2
  40 0004 2046     		mov	r0, r4
  41 0006 FFF7FEFF 		bl	pwmObjectInit
  42              	.LVL0:
  43              		.loc 1 396 0
  44 000a 0425     		movs	r5, #4
  45              		.loc 1 397 0
  46 000c 0A4B     		ldr	r3, .L2+4
  47 000e A361     		str	r3, [r4, #24]
  48              		.loc 1 396 0
  49 0010 2574     		strb	r5, [r4, #16]
  50              		.loc 1 402 0
  51 0012 0A4C     		ldr	r4, .L2+8
  52 0014 2046     		mov	r0, r4
  53 0016 FFF7FEFF 		bl	pwmObjectInit
  54              	.LVL1:
  55              		.loc 1 404 0
  56 001a 4FF08043 		mov	r3, #1073741824
  57 001e A361     		str	r3, [r4, #24]
ARM GAS  /tmp/cclpTHg3.s 			page 2


  58              		.loc 1 403 0
  59 0020 2574     		strb	r5, [r4, #16]
  60              		.loc 1 416 0
  61 0022 074C     		ldr	r4, .L2+12
  62 0024 2046     		mov	r0, r4
  63 0026 FFF7FEFF 		bl	pwmObjectInit
  64              	.LVL2:
  65              		.loc 1 418 0
  66 002a 064B     		ldr	r3, .L2+16
  67              		.loc 1 417 0
  68 002c 2574     		strb	r5, [r4, #16]
  69              		.loc 1 418 0
  70 002e A361     		str	r3, [r4, #24]
  71 0030 38BD     		pop	{r3, r4, r5, pc}
  72              	.L3:
  73 0032 00BF     		.align	2
  74              	.L2:
  75 0034 00000000 		.word	.LANCHOR0
  76 0038 00000140 		.word	1073807360
  77 003c 00000000 		.word	.LANCHOR1
  78 0040 00000000 		.word	.LANCHOR2
  79 0044 00080040 		.word	1073743872
  80              		.cfi_endproc
  81              	.LFE323:
  82              		.size	pwm_lld_init, .-pwm_lld_init
  83              		.section	.text.pwm_lld_start,"ax",%progbits
  84              		.align	1
  85              		.global	pwm_lld_start
  86              		.syntax unified
  87              		.thumb
  88              		.thumb_func
  89              		.fpu fpv4-sp-d16
  90              		.type	pwm_lld_start, %function
  91              	pwm_lld_start:
  92              	.LFB324:
  93              		.loc 1 494 0
  94              		.cfi_startproc
  95              		@ args = 0, pretend = 0, frame = 0
  96              		@ frame_needed = 0, uses_anonymous_args = 0
  97              	.LVL3:
  98              		.loc 1 498 0
  99 0000 0378     		ldrb	r3, [r0]	@ zero_extendqisi2
 100 0002 8269     		ldr	r2, [r0, #24]
 101 0004 012B     		cmp	r3, #1
 102              		.loc 1 494 0
 103 0006 10B5     		push	{r4, lr}
 104              		.cfi_def_cfa_offset 8
 105              		.cfi_offset 4, -8
 106              		.cfi_offset 14, -4
 107              		.loc 1 498 0
 108 0008 40F08E80 		bne	.L5
 109              		.loc 1 501 0
 110 000c 4C4B     		ldr	r3, .L36
 111 000e 9842     		cmp	r0, r3
 112 0010 5DD1     		bne	.L6
 113              		.loc 1 502 0
 114 0012 4C4B     		ldr	r3, .L36+4
ARM GAS  /tmp/cclpTHg3.s 			page 3


 115 0014 596C     		ldr	r1, [r3, #68]
 116 0016 41F00101 		orr	r1, r1, #1
 117 001a 5964     		str	r1, [r3, #68]
 118 001c 596E     		ldr	r1, [r3, #100]
 119 001e 41F00101 		orr	r1, r1, #1
 120 0022 5966     		str	r1, [r3, #100]
 121 0024 596E     		ldr	r1, [r3, #100]
 122              		.loc 1 503 0
 123 0026 596A     		ldr	r1, [r3, #36]
 124 0028 41F00101 		orr	r1, r1, #1
 125 002c 5962     		str	r1, [r3, #36]
 126 002e 596A     		ldr	r1, [r3, #36]
 127 0030 21F00101 		bic	r1, r1, #1
 128 0034 5962     		str	r1, [r3, #36]
 129 0036 5B6A     		ldr	r3, [r3, #36]
 130              		.loc 1 511 0
 131 0038 434B     		ldr	r3, .L36+8
 132              	.L34:
 133              		.loc 1 556 0
 134 003a 4361     		str	r3, [r0, #20]
 135              	.L7:
 136              		.loc 1 681 0
 137 003c 46F66803 		movw	r3, #26728
 138 0040 9361     		str	r3, [r2, #24]
 139              		.loc 1 683 0
 140 0042 D361     		str	r3, [r2, #28]
 141              	.L9:
 142              		.loc 1 707 0
 143 0044 4168     		ldr	r1, [r0, #4]
 144 0046 4369     		ldr	r3, [r0, #20]
 145 0048 0C68     		ldr	r4, [r1]
 146 004a B3FBF4F3 		udiv	r3, r3, r4
 147 004e 013B     		subs	r3, r3, #1
 148              	.LVL4:
 149              		.loc 1 709 0
 150 0050 9362     		str	r3, [r2, #40]
 151              		.loc 1 710 0
 152 0052 8368     		ldr	r3, [r0, #8]
 153              	.LVL5:
 154 0054 013B     		subs	r3, r3, #1
 155 0056 D362     		str	r3, [r2, #44]
 156              	.LVL6:
 157              		.loc 1 711 0
 158 0058 CB6A     		ldr	r3, [r1, #44]
 159 005a 5360     		str	r3, [r2, #4]
 160              	.LVL7:
 161              		.loc 1 715 0
 162 005c CB68     		ldr	r3, [r1, #12]
 163 005e 03F00F03 		and	r3, r3, #15
 164 0062 012B     		cmp	r3, #1
 165 0064 68D0     		beq	.L23
 166 0066 022B     		cmp	r3, #2
 167 0068 68D1     		bne	.L33
 168              	.L11:
 169              	.LVL8:
 170              		.loc 1 720 0
 171 006a 43F00103 		orr	r3, r3, #1
ARM GAS  /tmp/cclpTHg3.s 			page 4


 172              	.LVL9:
 173              	.L10:
 174              		.loc 1 725 0
 175 006e 4869     		ldr	r0, [r1, #20]
 176              	.LVL10:
 177 0070 00F00F00 		and	r0, r0, #15
 178 0074 0128     		cmp	r0, #1
 179 0076 03D0     		beq	.L14
 180 0078 0228     		cmp	r0, #2
 181 007a 03D1     		bne	.L13
 182              		.loc 1 727 0
 183 007c 43F02003 		orr	r3, r3, #32
 184              	.LVL11:
 185              	.L14:
 186              		.loc 1 730 0
 187 0080 43F01003 		orr	r3, r3, #16
 188              	.LVL12:
 189              	.L13:
 190              		.loc 1 735 0
 191 0084 C869     		ldr	r0, [r1, #28]
 192 0086 00F00F00 		and	r0, r0, #15
 193 008a 0128     		cmp	r0, #1
 194 008c 03D0     		beq	.L17
 195 008e 0228     		cmp	r0, #2
 196 0090 03D1     		bne	.L16
 197              		.loc 1 737 0
 198 0092 43F40073 		orr	r3, r3, #512
 199              	.LVL13:
 200              	.L17:
 201              		.loc 1 740 0
 202 0096 43F48073 		orr	r3, r3, #256
 203              	.LVL14:
 204              	.L16:
 205              		.loc 1 745 0
 206 009a 486A     		ldr	r0, [r1, #36]
 207 009c 00F00F00 		and	r0, r0, #15
 208 00a0 0128     		cmp	r0, #1
 209 00a2 03D0     		beq	.L20
 210 00a4 0228     		cmp	r0, #2
 211 00a6 03D1     		bne	.L19
 212              		.loc 1 747 0
 213 00a8 43F40053 		orr	r3, r3, #8192
 214              	.LVL15:
 215              	.L20:
 216              		.loc 1 750 0
 217 00ac 43F48053 		orr	r3, r3, #4096
 218              	.LVL16:
 219              	.L19:
 220              		.loc 1 798 0
 221 00b0 1362     		str	r3, [r2, #32]
 222              		.loc 1 799 0
 223 00b2 0123     		movs	r3, #1
 224              	.LVL17:
 225 00b4 5361     		str	r3, [r2, #20]
 226              	.LVL18:
 227              		.loc 1 800 0
 228 00b6 0023     		movs	r3, #0
ARM GAS  /tmp/cclpTHg3.s 			page 5


 229 00b8 1361     		str	r3, [r2, #16]
 230              		.loc 1 801 0
 231 00ba 0B6B     		ldr	r3, [r1, #48]
 232 00bc 23F0FF03 		bic	r3, r3, #255
 233 00c0 D360     		str	r3, [r2, #12]
 234              		.loc 1 807 0
 235 00c2 4FF40043 		mov	r3, #32768
 236 00c6 5364     		str	r3, [r2, #68]
 237              		.loc 1 811 0
 238 00c8 8523     		movs	r3, #133
 239 00ca 1360     		str	r3, [r2]
 240 00cc 10BD     		pop	{r4, pc}
 241              	.LVL19:
 242              	.L6:
 243              		.loc 1 517 0
 244 00ce 1F4B     		ldr	r3, .L36+12
 245 00d0 9842     		cmp	r0, r3
 246 00d2 14D1     		bne	.L8
 247              		.loc 1 518 0
 248 00d4 1B4B     		ldr	r3, .L36+4
 249 00d6 196C     		ldr	r1, [r3, #64]
 250 00d8 41F00101 		orr	r1, r1, #1
 251 00dc 1964     		str	r1, [r3, #64]
 252 00de 196E     		ldr	r1, [r3, #96]
 253 00e0 41F00101 		orr	r1, r1, #1
 254 00e4 1966     		str	r1, [r3, #96]
 255 00e6 196E     		ldr	r1, [r3, #96]
 256              		.loc 1 519 0
 257 00e8 196A     		ldr	r1, [r3, #32]
 258 00ea 41F00101 		orr	r1, r1, #1
 259 00ee 1962     		str	r1, [r3, #32]
 260 00f0 196A     		ldr	r1, [r3, #32]
 261 00f2 21F00101 		bic	r1, r1, #1
 262              	.L35:
 263              		.loc 1 549 0
 264 00f6 1962     		str	r1, [r3, #32]
 265 00f8 1B6A     		ldr	r3, [r3, #32]
 266              		.loc 1 556 0
 267 00fa 154B     		ldr	r3, .L36+16
 268 00fc 9DE7     		b	.L34
 269              	.L8:
 270              		.loc 1 547 0
 271 00fe 154B     		ldr	r3, .L36+20
 272 0100 9842     		cmp	r0, r3
 273 0102 9BD1     		bne	.L7
 274              		.loc 1 548 0
 275 0104 0F4B     		ldr	r3, .L36+4
 276 0106 196C     		ldr	r1, [r3, #64]
 277 0108 41F00401 		orr	r1, r1, #4
 278 010c 1964     		str	r1, [r3, #64]
 279 010e 196E     		ldr	r1, [r3, #96]
 280 0110 41F00401 		orr	r1, r1, #4
 281 0114 1966     		str	r1, [r3, #96]
 282 0116 196E     		ldr	r1, [r3, #96]
 283              		.loc 1 549 0
 284 0118 196A     		ldr	r1, [r3, #32]
 285 011a 41F00401 		orr	r1, r1, #4
ARM GAS  /tmp/cclpTHg3.s 			page 6


 286 011e 1962     		str	r1, [r3, #32]
 287 0120 196A     		ldr	r1, [r3, #32]
 288 0122 21F00401 		bic	r1, r1, #4
 289 0126 E6E7     		b	.L35
 290              	.L5:
 291              		.loc 1 692 0
 292 0128 0023     		movs	r3, #0
 293 012a 1360     		str	r3, [r2]
 294              		.loc 1 693 0
 295 012c 5363     		str	r3, [r2, #52]
 296              		.loc 1 694 0
 297 012e 9363     		str	r3, [r2, #56]
 298              		.loc 1 695 0
 299 0130 D363     		str	r3, [r2, #60]
 300              		.loc 1 696 0
 301 0132 1364     		str	r3, [r2, #64]
 302              		.loc 1 703 0
 303 0134 5362     		str	r3, [r2, #36]
 304 0136 85E7     		b	.L9
 305              	.LVL20:
 306              	.L23:
 307              		.loc 1 714 0
 308 0138 0023     		movs	r3, #0
 309 013a 96E7     		b	.L11
 310              	.L33:
 311 013c 0023     		movs	r3, #0
 312 013e 96E7     		b	.L10
 313              	.L37:
 314              		.align	2
 315              	.L36:
 316 0140 00000000 		.word	.LANCHOR0
 317 0144 00380240 		.word	1073887232
 318 0148 007A030A 		.word	168000000
 319 014c 00000000 		.word	.LANCHOR1
 320 0150 00BD0105 		.word	84000000
 321 0154 00000000 		.word	.LANCHOR2
 322              		.cfi_endproc
 323              	.LFE324:
 324              		.size	pwm_lld_start, .-pwm_lld_start
 325              		.section	.text.pwm_lld_stop,"ax",%progbits
 326              		.align	1
 327              		.global	pwm_lld_stop
 328              		.syntax unified
 329              		.thumb
 330              		.thumb_func
 331              		.fpu fpv4-sp-d16
 332              		.type	pwm_lld_stop, %function
 333              	pwm_lld_stop:
 334              	.LFB325:
 335              		.loc 1 822 0
 336              		.cfi_startproc
 337              		@ args = 0, pretend = 0, frame = 0
 338              		@ frame_needed = 0, uses_anonymous_args = 0
 339              		@ link register save eliminated.
 340              	.LVL21:
 341              		.loc 1 825 0
 342 0000 0378     		ldrb	r3, [r0]	@ zero_extendqisi2
ARM GAS  /tmp/cclpTHg3.s 			page 7


 343 0002 022B     		cmp	r3, #2
 344 0004 20D1     		bne	.L38
 345              		.loc 1 826 0
 346 0006 8369     		ldr	r3, [r0, #24]
 347 0008 0022     		movs	r2, #0
 348 000a 1A60     		str	r2, [r3]
 349              		.loc 1 827 0
 350 000c DA60     		str	r2, [r3, #12]
 351              		.loc 1 828 0
 352 000e 1A61     		str	r2, [r3, #16]
 353              		.loc 1 830 0
 354 0010 5A64     		str	r2, [r3, #68]
 355              		.loc 1 834 0
 356 0012 144B     		ldr	r3, .L45
 357 0014 9842     		cmp	r0, r3
 358 0016 0AD1     		bne	.L41
 359              		.loc 1 839 0
 360 0018 134B     		ldr	r3, .L45+4
 361 001a 5A6C     		ldr	r2, [r3, #68]
 362 001c 22F00102 		bic	r2, r2, #1
 363 0020 5A64     		str	r2, [r3, #68]
 364 0022 5A6E     		ldr	r2, [r3, #100]
 365 0024 22F00102 		bic	r2, r2, #1
 366 0028 5A66     		str	r2, [r3, #100]
 367 002a 5B6E     		ldr	r3, [r3, #100]
 368 002c 7047     		bx	lr
 369              	.L41:
 370              		.loc 1 844 0
 371 002e 0F4B     		ldr	r3, .L45+8
 372 0030 9842     		cmp	r0, r3
 373 0032 0AD1     		bne	.L42
 374              		.loc 1 848 0
 375 0034 0C4B     		ldr	r3, .L45+4
 376 0036 1A6C     		ldr	r2, [r3, #64]
 377 0038 22F00102 		bic	r2, r2, #1
 378 003c 1A64     		str	r2, [r3, #64]
 379 003e 1A6E     		ldr	r2, [r3, #96]
 380 0040 22F00102 		bic	r2, r2, #1
 381              	.L44:
 382              		.loc 1 866 0
 383 0044 1A66     		str	r2, [r3, #96]
 384 0046 1B6E     		ldr	r3, [r3, #96]
 385              	.L38:
 386 0048 7047     		bx	lr
 387              	.L42:
 388              		.loc 1 862 0
 389 004a 094B     		ldr	r3, .L45+12
 390 004c 9842     		cmp	r0, r3
 391 004e FBD1     		bne	.L38
 392              		.loc 1 866 0
 393 0050 054B     		ldr	r3, .L45+4
 394 0052 1A6C     		ldr	r2, [r3, #64]
 395 0054 22F00402 		bic	r2, r2, #4
 396 0058 1A64     		str	r2, [r3, #64]
 397 005a 1A6E     		ldr	r2, [r3, #96]
 398 005c 22F00402 		bic	r2, r2, #4
 399 0060 F0E7     		b	.L44
ARM GAS  /tmp/cclpTHg3.s 			page 8


 400              	.L46:
 401 0062 00BF     		.align	2
 402              	.L45:
 403 0064 00000000 		.word	.LANCHOR0
 404 0068 00380240 		.word	1073887232
 405 006c 00000000 		.word	.LANCHOR1
 406 0070 00000000 		.word	.LANCHOR2
 407              		.cfi_endproc
 408              	.LFE325:
 409              		.size	pwm_lld_stop, .-pwm_lld_stop
 410              		.section	.text.pwm_lld_enable_channel,"ax",%progbits
 411              		.align	1
 412              		.global	pwm_lld_enable_channel
 413              		.syntax unified
 414              		.thumb
 415              		.thumb_func
 416              		.fpu fpv4-sp-d16
 417              		.type	pwm_lld_enable_channel, %function
 418              	pwm_lld_enable_channel:
 419              	.LFB326:
 420              		.loc 1 951 0
 421              		.cfi_startproc
 422              		@ args = 0, pretend = 0, frame = 0
 423              		@ frame_needed = 0, uses_anonymous_args = 0
 424              		@ link register save eliminated.
 425              	.LVL22:
 426              		.loc 1 955 0
 427 0000 8369     		ldr	r3, [r0, #24]
 428 0002 0C31     		adds	r1, r1, #12
 429              	.LVL23:
 430 0004 03EB8103 		add	r3, r3, r1, lsl #2
 431 0008 5A60     		str	r2, [r3, #4]
 432 000a 7047     		bx	lr
 433              		.cfi_endproc
 434              	.LFE326:
 435              		.size	pwm_lld_enable_channel, .-pwm_lld_enable_channel
 436              		.section	.text.pwm_lld_disable_channel,"ax",%progbits
 437              		.align	1
 438              		.global	pwm_lld_disable_channel
 439              		.syntax unified
 440              		.thumb
 441              		.thumb_func
 442              		.fpu fpv4-sp-d16
 443              		.type	pwm_lld_disable_channel, %function
 444              	pwm_lld_disable_channel:
 445              	.LFB327:
 446              		.loc 1 976 0
 447              		.cfi_startproc
 448              		@ args = 0, pretend = 0, frame = 0
 449              		@ frame_needed = 0, uses_anonymous_args = 0
 450              		@ link register save eliminated.
 451              	.LVL24:
 452              		.loc 1 979 0
 453 0000 8369     		ldr	r3, [r0, #24]
 454 0002 01F10C02 		add	r2, r1, #12
 455 0006 03EB8202 		add	r2, r3, r2, lsl #2
 456 000a 0020     		movs	r0, #0
ARM GAS  /tmp/cclpTHg3.s 			page 9


 457              	.LVL25:
 458 000c 5060     		str	r0, [r2, #4]
 459              		.loc 1 980 0
 460 000e DA68     		ldr	r2, [r3, #12]
 461 0010 0220     		movs	r0, #2
 462 0012 00FA01F1 		lsl	r1, r0, r1
 463              	.LVL26:
 464 0016 22EA0101 		bic	r1, r2, r1
 465 001a D960     		str	r1, [r3, #12]
 466 001c 7047     		bx	lr
 467              		.cfi_endproc
 468              	.LFE327:
 469              		.size	pwm_lld_disable_channel, .-pwm_lld_disable_channel
 470              		.section	.text.pwm_lld_enable_periodic_notification,"ax",%progbits
 471              		.align	1
 472              		.global	pwm_lld_enable_periodic_notification
 473              		.syntax unified
 474              		.thumb
 475              		.thumb_func
 476              		.fpu fpv4-sp-d16
 477              		.type	pwm_lld_enable_periodic_notification, %function
 478              	pwm_lld_enable_periodic_notification:
 479              	.LFB328:
 480              		.loc 1 1000 0
 481              		.cfi_startproc
 482              		@ args = 0, pretend = 0, frame = 0
 483              		@ frame_needed = 0, uses_anonymous_args = 0
 484              		@ link register save eliminated.
 485              	.LVL27:
 486              		.loc 1 1001 0
 487 0000 8269     		ldr	r2, [r0, #24]
 488 0002 D368     		ldr	r3, [r2, #12]
 489              	.LVL28:
 490              		.loc 1 1005 0
 491 0004 D907     		lsls	r1, r3, #31
 492              		.loc 1 1006 0
 493 0006 5FBF     		itttt	pl
 494 0008 6FF00101 		mvnpl	r1, #1
 495              		.loc 1 1007 0
 496 000c 43F00103 		orrpl	r3, r3, #1
 497              	.LVL29:
 498              		.loc 1 1006 0
 499 0010 1161     		strpl	r1, [r2, #16]
 500              		.loc 1 1007 0
 501 0012 D360     		strpl	r3, [r2, #12]
 502 0014 7047     		bx	lr
 503              		.cfi_endproc
 504              	.LFE328:
 505              		.size	pwm_lld_enable_periodic_notification, .-pwm_lld_enable_periodic_notification
 506              		.section	.text.pwm_lld_disable_periodic_notification,"ax",%progbits
 507              		.align	1
 508              		.global	pwm_lld_disable_periodic_notification
 509              		.syntax unified
 510              		.thumb
 511              		.thumb_func
 512              		.fpu fpv4-sp-d16
 513              		.type	pwm_lld_disable_periodic_notification, %function
ARM GAS  /tmp/cclpTHg3.s 			page 10


 514              	pwm_lld_disable_periodic_notification:
 515              	.LFB329:
 516              		.loc 1 1020 0
 517              		.cfi_startproc
 518              		@ args = 0, pretend = 0, frame = 0
 519              		@ frame_needed = 0, uses_anonymous_args = 0
 520              		@ link register save eliminated.
 521              	.LVL30:
 522              		.loc 1 1022 0
 523 0000 8269     		ldr	r2, [r0, #24]
 524 0002 D368     		ldr	r3, [r2, #12]
 525 0004 23F00103 		bic	r3, r3, #1
 526 0008 D360     		str	r3, [r2, #12]
 527 000a 7047     		bx	lr
 528              		.cfi_endproc
 529              	.LFE329:
 530              		.size	pwm_lld_disable_periodic_notification, .-pwm_lld_disable_periodic_notification
 531              		.section	.text.pwm_lld_enable_channel_notification,"ax",%progbits
 532              		.align	1
 533              		.global	pwm_lld_enable_channel_notification
 534              		.syntax unified
 535              		.thumb
 536              		.thumb_func
 537              		.fpu fpv4-sp-d16
 538              		.type	pwm_lld_enable_channel_notification, %function
 539              	pwm_lld_enable_channel_notification:
 540              	.LFB330:
 541              		.loc 1 1037 0
 542              		.cfi_startproc
 543              		@ args = 0, pretend = 0, frame = 0
 544              		@ frame_needed = 0, uses_anonymous_args = 0
 545              		@ link register save eliminated.
 546              	.LVL31:
 547              		.loc 1 1038 0
 548 0000 8069     		ldr	r0, [r0, #24]
 549              	.LVL32:
 550              		.loc 1 1047 0
 551 0002 0223     		movs	r3, #2
 552              		.loc 1 1038 0
 553 0004 C268     		ldr	r2, [r0, #12]
 554              	.LVL33:
 555              		.loc 1 1047 0
 556 0006 03FA01F1 		lsl	r1, r3, r1
 557              	.LVL34:
 558 000a 0A42     		tst	r2, r1
 559              		.loc 1 1048 0
 560 000c 01BF     		itttt	eq
 561 000e CB43     		mvneq	r3, r1
 562              		.loc 1 1049 0
 563 0010 1143     		orreq	r1, r1, r2
 564              		.loc 1 1048 0
 565 0012 0361     		streq	r3, [r0, #16]
 566              		.loc 1 1049 0
 567 0014 C160     		streq	r1, [r0, #12]
 568 0016 7047     		bx	lr
 569              		.cfi_endproc
 570              	.LFE330:
ARM GAS  /tmp/cclpTHg3.s 			page 11


 571              		.size	pwm_lld_enable_channel_notification, .-pwm_lld_enable_channel_notification
 572              		.section	.text.pwm_lld_disable_channel_notification,"ax",%progbits
 573              		.align	1
 574              		.global	pwm_lld_disable_channel_notification
 575              		.syntax unified
 576              		.thumb
 577              		.thumb_func
 578              		.fpu fpv4-sp-d16
 579              		.type	pwm_lld_disable_channel_notification, %function
 580              	pwm_lld_disable_channel_notification:
 581              	.LFB331:
 582              		.loc 1 1065 0
 583              		.cfi_startproc
 584              		@ args = 0, pretend = 0, frame = 0
 585              		@ frame_needed = 0, uses_anonymous_args = 0
 586              		@ link register save eliminated.
 587              	.LVL35:
 588              		.loc 1 1067 0
 589 0000 8069     		ldr	r0, [r0, #24]
 590              	.LVL36:
 591 0002 0222     		movs	r2, #2
 592 0004 C368     		ldr	r3, [r0, #12]
 593 0006 02FA01F1 		lsl	r1, r2, r1
 594              	.LVL37:
 595 000a 23EA0103 		bic	r3, r3, r1
 596 000e C360     		str	r3, [r0, #12]
 597 0010 7047     		bx	lr
 598              		.cfi_endproc
 599              	.LFE331:
 600              		.size	pwm_lld_disable_channel_notification, .-pwm_lld_disable_channel_notification
 601              		.section	.text.pwm_lld_serve_interrupt,"ax",%progbits
 602              		.align	1
 603              		.global	pwm_lld_serve_interrupt
 604              		.syntax unified
 605              		.thumb
 606              		.thumb_func
 607              		.fpu fpv4-sp-d16
 608              		.type	pwm_lld_serve_interrupt, %function
 609              	pwm_lld_serve_interrupt:
 610              	.LFB332:
 611              		.loc 1 1080 0
 612              		.cfi_startproc
 613              		@ args = 0, pretend = 0, frame = 0
 614              		@ frame_needed = 0, uses_anonymous_args = 0
 615              	.LVL38:
 616              		.loc 1 1083 0
 617 0000 8369     		ldr	r3, [r0, #24]
 618              		.loc 1 1080 0
 619 0002 70B5     		push	{r4, r5, r6, lr}
 620              		.cfi_def_cfa_offset 16
 621              		.cfi_offset 4, -16
 622              		.cfi_offset 5, -12
 623              		.cfi_offset 6, -8
 624              		.cfi_offset 14, -4
 625              		.loc 1 1083 0
 626 0004 1D69     		ldr	r5, [r3, #16]
 627              	.LVL39:
ARM GAS  /tmp/cclpTHg3.s 			page 12


 628              		.loc 1 1084 0
 629 0006 DA68     		ldr	r2, [r3, #12]
 630 0008 1540     		ands	r5, r5, r2
 631              	.LVL40:
 632 000a EAB2     		uxtb	r2, r5
 633              		.loc 1 1085 0
 634 000c D243     		mvns	r2, r2
 635              		.loc 1 1086 0
 636 000e AE07     		lsls	r6, r5, #30
 637              		.loc 1 1080 0
 638 0010 0446     		mov	r4, r0
 639              		.loc 1 1085 0
 640 0012 1A61     		str	r2, [r3, #16]
 641              		.loc 1 1086 0
 642 0014 03D5     		bpl	.L56
 643              		.loc 1 1087 0 discriminator 1
 644 0016 4368     		ldr	r3, [r0, #4]
 645 0018 1B69     		ldr	r3, [r3, #16]
 646              		.loc 1 1086 0 discriminator 1
 647 001a 03B1     		cbz	r3, .L56
 648              		.loc 1 1088 0
 649 001c 9847     		blx	r3
 650              	.LVL41:
 651              	.L56:
 652              		.loc 1 1089 0
 653 001e 6807     		lsls	r0, r5, #29
 654 0020 04D5     		bpl	.L57
 655              		.loc 1 1090 0 discriminator 1
 656 0022 6368     		ldr	r3, [r4, #4]
 657 0024 9B69     		ldr	r3, [r3, #24]
 658              		.loc 1 1089 0 discriminator 1
 659 0026 0BB1     		cbz	r3, .L57
 660              		.loc 1 1091 0
 661 0028 2046     		mov	r0, r4
 662 002a 9847     		blx	r3
 663              	.LVL42:
 664              	.L57:
 665              		.loc 1 1092 0
 666 002c 2907     		lsls	r1, r5, #28
 667 002e 04D5     		bpl	.L58
 668              		.loc 1 1093 0 discriminator 1
 669 0030 6368     		ldr	r3, [r4, #4]
 670 0032 1B6A     		ldr	r3, [r3, #32]
 671              		.loc 1 1092 0 discriminator 1
 672 0034 0BB1     		cbz	r3, .L58
 673              		.loc 1 1094 0
 674 0036 2046     		mov	r0, r4
 675 0038 9847     		blx	r3
 676              	.LVL43:
 677              	.L58:
 678              		.loc 1 1095 0
 679 003a EA06     		lsls	r2, r5, #27
 680 003c 04D5     		bpl	.L59
 681              		.loc 1 1096 0 discriminator 1
 682 003e 6368     		ldr	r3, [r4, #4]
 683 0040 9B6A     		ldr	r3, [r3, #40]
 684              		.loc 1 1095 0 discriminator 1
ARM GAS  /tmp/cclpTHg3.s 			page 13


 685 0042 0BB1     		cbz	r3, .L59
 686              		.loc 1 1097 0
 687 0044 2046     		mov	r0, r4
 688 0046 9847     		blx	r3
 689              	.LVL44:
 690              	.L59:
 691              		.loc 1 1098 0
 692 0048 EB07     		lsls	r3, r5, #31
 693 004a 06D5     		bpl	.L55
 694              		.loc 1 1098 0 is_stmt 0 discriminator 1
 695 004c 6368     		ldr	r3, [r4, #4]
 696 004e 9B68     		ldr	r3, [r3, #8]
 697 0050 1BB1     		cbz	r3, .L55
 698              		.loc 1 1099 0 is_stmt 1
 699 0052 2046     		mov	r0, r4
 700              		.loc 1 1100 0
 701 0054 BDE87040 		pop	{r4, r5, r6, lr}
 702              		.cfi_remember_state
 703              		.cfi_restore 14
 704              		.cfi_restore 6
 705              		.cfi_restore 5
 706              		.cfi_restore 4
 707              		.cfi_def_cfa_offset 0
 708              	.LVL45:
 709              		.loc 1 1099 0
 710 0058 1847     		bx	r3	@ indirect register sibling call
 711              	.LVL46:
 712              	.L55:
 713              		.cfi_restore_state
 714 005a 70BD     		pop	{r4, r5, r6, pc}
 715              		.cfi_endproc
 716              	.LFE332:
 717              		.size	pwm_lld_serve_interrupt, .-pwm_lld_serve_interrupt
 718              		.global	PWMD4
 719              		.global	PWMD2
 720              		.global	PWMD1
 721              		.section	.bss.PWMD1,"aw",%nobits
 722              		.align	2
 723              		.set	.LANCHOR0,. + 0
 724              		.type	PWMD1, %object
 725              		.size	PWMD1, 28
 726              	PWMD1:
 727 0000 00000000 		.space	28
 727      00000000 
 727      00000000 
 727      00000000 
 727      00000000 
 728              		.section	.bss.PWMD2,"aw",%nobits
 729              		.align	2
 730              		.set	.LANCHOR1,. + 0
 731              		.type	PWMD2, %object
 732              		.size	PWMD2, 28
 733              	PWMD2:
 734 0000 00000000 		.space	28
 734      00000000 
 734      00000000 
 734      00000000 
ARM GAS  /tmp/cclpTHg3.s 			page 14


 734      00000000 
 735              		.section	.bss.PWMD4,"aw",%nobits
 736              		.align	2
 737              		.set	.LANCHOR2,. + 0
 738              		.type	PWMD4, %object
 739              		.size	PWMD4, 28
 740              	PWMD4:
 741 0000 00000000 		.space	28
 741      00000000 
 741      00000000 
 741      00000000 
 741      00000000 
 742              		.text
 743              	.Letext0:
 744              		.file 2 "/opt/gcc-arm-none-eabi-6-2017-q2-update/lib/gcc/arm-none-eabi/6.3.1/include/stddef.h"
 745              		.file 3 "/opt/gcc-arm-none-eabi-6-2017-q2-update/arm-none-eabi/include/machine/_default_types.h"
 746              		.file 4 "/opt/gcc-arm-none-eabi-6-2017-q2-update/arm-none-eabi/include/sys/_stdint.h"
 747              		.file 5 "/opt/gcc-arm-none-eabi-6-2017-q2-update/arm-none-eabi/include/stdint.h"
 748              		.file 6 "../../modules/ChibiOS/os/common/ports/ARMCMx/compilers/GCC/chtypes.h"
 749              		.file 7 "../../modules/ChibiOS/os/rt/include/chsystypes.h"
 750              		.file 8 "../../modules/ChibiOS/os/rt/include/chschd.h"
 751              		.file 9 "../../modules/ChibiOS/os/rt/include/chtime.h"
 752              		.file 10 "../../modules/ChibiOS/os/common/ext/ARM/CMSIS/Core/Include/core_cm4.h"
 753              		.file 11 "../../modules/ChibiOS/os/common/ext/ST/STM32F4xx/system_stm32f4xx.h"
 754              		.file 12 "../../modules/ChibiOS/os/common/ext/ST/STM32F4xx/stm32f427xx.h"
 755              		.file 13 "../../modules/ChibiOS/os/common/ports/ARMCMx/chcore.h"
 756              		.file 14 "../../modules/ChibiOS/os/common/ports/ARMCMx/chcore_v7m.h"
 757              		.file 15 "../../modules/ChibiOS/os/hal/ports/STM32/LLD/TIMv1/stm32_tim.h"
 758              		.file 16 "../../modules/ChibiOS/os/rt/include/chtm.h"
 759              		.file 17 "../../modules/ChibiOS/os/rt/include/chsem.h"
 760              		.file 18 "../../modules/ChibiOS/os/rt/include/chmtx.h"
 761              		.file 19 "../../modules/ChibiOS/os/rt/include/chsys.h"
 762              		.file 20 "../../modules/ChibiOS/os/rt/include/chregistry.h"
 763              		.file 21 "../../modules/ChibiOS/os/rt/include/chevents.h"
 764              		.file 22 "../../modules/ChibiOS/os/oslib/include/chmemcore.h"
 765              		.file 23 "../../modules/ChibiOS/os/oslib/include/chmempools.h"
 766              		.file 24 "../../modules/ChibiOS/os/oslib/include/chfactory.h"
 767              		.file 25 "../../modules/ChibiOS/os/hal/ports/STM32/LLD/DMAv2/stm32_dma.h"
 768              		.file 26 "../../modules/ChibiOS/os/hal/include/hal_ioblock.h"
 769              		.file 27 "../../modules/ChibiOS/os/hal/include/hal_queues.h"
 770              		.file 28 "../../modules/ChibiOS/os/hal/include/hal_pal.h"
 771              		.file 29 "../../modules/ChibiOS/os/hal/ports/STM32/LLD/GPIOv2/stm32_gpio.h"
 772              		.file 30 "../../modules/ChibiOS/os/hal/ports/STM32/LLD/GPIOv2/hal_pal_lld.h"
 773              		.file 31 "../../modules/ChibiOS/os/hal/include/hal_adc.h"
 774              		.file 32 "../../modules/ChibiOS/os/hal/ports/STM32/LLD/ADCv2/hal_adc_lld.h"
 775              		.file 33 "../../modules/ChibiOS/os/hal/include/hal_i2c.h"
 776              		.file 34 "../../modules/ChibiOS/os/hal/ports/STM32/LLD/I2Cv1/hal_i2c_lld.h"
 777              		.file 35 "../../modules/ChibiOS/os/hal/include/hal_pwm.h"
 778              		.file 36 "../../modules/ChibiOS/os/hal/ports/STM32/LLD/TIMv1/hal_pwm_lld.h"
 779              		.file 37 "../../modules/ChibiOS/os/hal/include/hal_serial.h"
 780              		.file 38 "../../modules/ChibiOS/os/hal/ports/STM32/LLD/USARTv1/hal_serial_lld.h"
 781              		.file 39 "../../modules/ChibiOS/os/hal/include/hal_sdc.h"
 782              		.file 40 "../../modules/ChibiOS/os/hal/ports/STM32/LLD/SDIOv1/hal_sdc_lld.h"
 783              		.file 41 "../../modules/ChibiOS/os/hal/include/hal_spi.h"
 784              		.file 42 "../../modules/ChibiOS/os/hal/ports/STM32/LLD/SPIv1/hal_spi_lld.h"
 785              		.file 43 "../../modules/ChibiOS/os/hal/include/hal_usb.h"
 786              		.file 44 "../../modules/ChibiOS/os/hal/ports/STM32/LLD/OTGv1/hal_usb_lld.h"
ARM GAS  /tmp/cclpTHg3.s 			page 15


 787              		.file 45 "../../modules/ChibiOS/os/hal/ports/STM32/LLD/OTGv1/stm32_otg.h"