ARM GAS  /tmp/ccoLuXua.s 			page 1


   1              		.cpu cortex-m4
   2              		.eabi_attribute 27, 1
   3              		.eabi_attribute 28, 1
   4              		.eabi_attribute 20, 1
   5              		.eabi_attribute 21, 1
   6              		.eabi_attribute 23, 3
   7              		.eabi_attribute 24, 1
   8              		.eabi_attribute 25, 1
   9              		.eabi_attribute 26, 1
  10              		.eabi_attribute 30, 4
  11              		.eabi_attribute 34, 1
  12              		.eabi_attribute 18, 4
  13              		.file	"hal_adc_lld.c"
  14              		.text
  15              	.Ltext0:
  16              		.cfi_sections	.debug_frame
  17              		.section	.text.adc_lld_init,"ax",%progbits
  18              		.align	1
  19              		.global	adc_lld_init
  20              		.syntax unified
  21              		.thumb
  22              		.thumb_func
  23              		.fpu fpv4-sp-d16
  24              		.type	adc_lld_init, %function
  25              	adc_lld_init:
  26              	.LFB325:
  27              		.file 1 "../../modules/ChibiOS/os/hal/ports/STM32/LLD/ADCv2/hal_adc_lld.c"
  28              		.loc 1 192 0
  29              		.cfi_startproc
  30              		@ args = 0, pretend = 0, frame = 0
  31              		@ frame_needed = 0, uses_anonymous_args = 0
  32 0000 10B5     		push	{r4, lr}
  33              		.cfi_def_cfa_offset 8
  34              		.cfi_offset 4, -8
  35              		.cfi_offset 14, -4
  36              		.loc 1 196 0
  37 0002 084C     		ldr	r4, .L2
  38 0004 2046     		mov	r0, r4
  39 0006 FFF7FEFF 		bl	adcObjectInit
  40              	.LVL0:
  41              		.loc 1 197 0
  42 000a 074B     		ldr	r3, .L2+4
  43 000c A361     		str	r3, [r4, #24]
  44              		.loc 1 198 0
  45 000e 0023     		movs	r3, #0
  46 0010 E361     		str	r3, [r4, #28]
  47              		.loc 1 199 0
  48 0012 064B     		ldr	r3, .L2+8
  49 0014 2362     		str	r3, [r4, #32]
  50              		.loc 1 235 0
  51 0016 0621     		movs	r1, #6
  52 0018 1220     		movs	r0, #18
  53              		.loc 1 236 0
  54 001a BDE81040 		pop	{r4, lr}
  55              		.cfi_restore 14
  56              		.cfi_restore 4
  57              		.cfi_def_cfa_offset 0
ARM GAS  /tmp/ccoLuXua.s 			page 2


  58              		.loc 1 235 0
  59 001e FFF7FEBF 		b	nvicEnableVector
  60              	.LVL1:
  61              	.L3:
  62 0022 00BF     		.align	2
  63              	.L2:
  64 0024 00000000 		.word	.LANCHOR0
  65 0028 00200140 		.word	1073815552
  66 002c 162C0200 		.word	142358
  67              		.cfi_endproc
  68              	.LFE325:
  69              		.size	adc_lld_init, .-adc_lld_init
  70              		.section	.text.adc_lld_start,"ax",%progbits
  71              		.align	1
  72              		.global	adc_lld_start
  73              		.syntax unified
  74              		.thumb
  75              		.thumb_func
  76              		.fpu fpv4-sp-d16
  77              		.type	adc_lld_start, %function
  78              	adc_lld_start:
  79              	.LFB326:
  80              		.loc 1 245 0
  81              		.cfi_startproc
  82              		@ args = 0, pretend = 0, frame = 0
  83              		@ frame_needed = 0, uses_anonymous_args = 0
  84              	.LVL2:
  85              		.loc 1 248 0
  86 0000 0378     		ldrb	r3, [r0]	@ zero_extendqisi2
  87 0002 012B     		cmp	r3, #1
  88              		.loc 1 245 0
  89 0004 10B5     		push	{r4, lr}
  90              		.cfi_def_cfa_offset 8
  91              		.cfi_offset 4, -8
  92              		.cfi_offset 14, -4
  93              		.loc 1 245 0
  94 0006 0446     		mov	r4, r0
  95              		.loc 1 248 0
  96 0008 23D1     		bne	.L4
  97              		.loc 1 250 0
  98 000a 124B     		ldr	r3, .L7
  99 000c 9842     		cmp	r0, r3
 100 000e 13D1     		bne	.L6
 101              		.loc 1 251 0
 102 0010 0346     		mov	r3, r0
 103 0012 114A     		ldr	r2, .L7+4
 104 0014 0621     		movs	r1, #6
 105 0016 0820     		movs	r0, #8
 106              	.LVL3:
 107 0018 FFF7FEFF 		bl	dmaStreamAllocI
 108              	.LVL4:
 109              		.loc 1 256 0
 110 001c 0368     		ldr	r3, [r0]
 111 001e 0F4A     		ldr	r2, .L7+8
 112              		.loc 1 251 0
 113 0020 E061     		str	r0, [r4, #28]
 114              		.loc 1 256 0
ARM GAS  /tmp/ccoLuXua.s 			page 3


 115 0022 9A60     		str	r2, [r3, #8]
 116              		.loc 1 257 0
 117 0024 0E4B     		ldr	r3, .L7+12
 118 0026 5A6C     		ldr	r2, [r3, #68]
 119 0028 42F48072 		orr	r2, r2, #256
 120 002c 5A64     		str	r2, [r3, #68]
 121 002e 5A6E     		ldr	r2, [r3, #100]
 122 0030 42F48072 		orr	r2, r2, #256
 123 0034 5A66     		str	r2, [r3, #100]
 124 0036 5B6E     		ldr	r3, [r3, #100]
 125              	.L6:
 126              		.loc 1 287 0
 127 0038 0A4A     		ldr	r2, .L7+16
 128 003a 5368     		ldr	r3, [r2, #4]
 129 003c 03F44003 		and	r3, r3, #12582912
 130 0040 43F48033 		orr	r3, r3, #65536
 131 0044 5360     		str	r3, [r2, #4]
 132              		.loc 1 292 0
 133 0046 A369     		ldr	r3, [r4, #24]
 134 0048 0022     		movs	r2, #0
 135 004a 5A60     		str	r2, [r3, #4]
 136              		.loc 1 293 0
 137 004c 9A60     		str	r2, [r3, #8]
 138              		.loc 1 294 0
 139 004e 0122     		movs	r2, #1
 140 0050 9A60     		str	r2, [r3, #8]
 141              	.L4:
 142 0052 10BD     		pop	{r4, pc}
 143              	.LVL5:
 144              	.L8:
 145              		.align	2
 146              	.L7:
 147 0054 00000000 		.word	.LANCHOR0
 148 0058 00000000 		.word	adc_lld_serve_rx_interrupt
 149 005c 4C200140 		.word	1073815628
 150 0060 00380240 		.word	1073887232
 151 0064 00230140 		.word	1073816320
 152              		.cfi_endproc
 153              	.LFE326:
 154              		.size	adc_lld_start, .-adc_lld_start
 155              		.section	.text.adc_lld_stop,"ax",%progbits
 156              		.align	1
 157              		.global	adc_lld_stop
 158              		.syntax unified
 159              		.thumb
 160              		.thumb_func
 161              		.fpu fpv4-sp-d16
 162              		.type	adc_lld_stop, %function
 163              	adc_lld_stop:
 164              	.LFB327:
 165              		.loc 1 305 0
 166              		.cfi_startproc
 167              		@ args = 0, pretend = 0, frame = 0
 168              		@ frame_needed = 0, uses_anonymous_args = 0
 169              	.LVL6:
 170              		.loc 1 308 0
 171 0000 0378     		ldrb	r3, [r0]	@ zero_extendqisi2
ARM GAS  /tmp/ccoLuXua.s 			page 4


 172 0002 022B     		cmp	r3, #2
 173              		.loc 1 305 0
 174 0004 10B5     		push	{r4, lr}
 175              		.cfi_def_cfa_offset 8
 176              		.cfi_offset 4, -8
 177              		.cfi_offset 14, -4
 178              		.loc 1 305 0
 179 0006 0446     		mov	r4, r0
 180              		.loc 1 308 0
 181 0008 14D1     		bne	.L9
 182              		.loc 1 310 0
 183 000a C069     		ldr	r0, [r0, #28]
 184              	.LVL7:
 185 000c FFF7FEFF 		bl	dmaStreamFreeI
 186              	.LVL8:
 187              		.loc 1 313 0
 188 0010 A269     		ldr	r2, [r4, #24]
 189              		.loc 1 311 0
 190 0012 0023     		movs	r3, #0
 191 0014 E361     		str	r3, [r4, #28]
 192              		.loc 1 313 0
 193 0016 5360     		str	r3, [r2, #4]
 194              		.loc 1 314 0
 195 0018 9360     		str	r3, [r2, #8]
 196              		.loc 1 317 0
 197 001a 074B     		ldr	r3, .L13
 198 001c 9C42     		cmp	r4, r3
 199 001e 09D1     		bne	.L9
 200              		.loc 1 318 0
 201 0020 064B     		ldr	r3, .L13+4
 202 0022 5A6C     		ldr	r2, [r3, #68]
 203 0024 22F48072 		bic	r2, r2, #256
 204 0028 5A64     		str	r2, [r3, #68]
 205 002a 5A6E     		ldr	r2, [r3, #100]
 206 002c 22F48072 		bic	r2, r2, #256
 207 0030 5A66     		str	r2, [r3, #100]
 208 0032 5B6E     		ldr	r3, [r3, #100]
 209              	.L9:
 210 0034 10BD     		pop	{r4, pc}
 211              	.LVL9:
 212              	.L14:
 213 0036 00BF     		.align	2
 214              	.L13:
 215 0038 00000000 		.word	.LANCHOR0
 216 003c 00380240 		.word	1073887232
 217              		.cfi_endproc
 218              	.LFE327:
 219              		.size	adc_lld_stop, .-adc_lld_stop
 220              		.section	.text.adc_lld_start_conversion,"ax",%progbits
 221              		.align	1
 222              		.global	adc_lld_start_conversion
 223              		.syntax unified
 224              		.thumb
 225              		.thumb_func
 226              		.fpu fpv4-sp-d16
 227              		.type	adc_lld_start_conversion, %function
 228              	adc_lld_start_conversion:
ARM GAS  /tmp/ccoLuXua.s 			page 5


 229              	.LFB328:
 230              		.loc 1 340 0
 231              		.cfi_startproc
 232              		@ args = 0, pretend = 0, frame = 0
 233              		@ frame_needed = 0, uses_anonymous_args = 0
 234              	.LVL10:
 235              		.loc 1 343 0
 236 0000 0269     		ldr	r2, [r0, #16]
 237              	.LVL11:
 238              		.loc 1 346 0
 239 0002 016A     		ldr	r1, [r0, #32]
 240              	.LVL12:
 241              		.loc 1 347 0
 242 0004 1378     		ldrb	r3, [r2]	@ zero_extendqisi2
 243              		.loc 1 340 0
 244 0006 30B5     		push	{r4, r5, lr}
 245              		.cfi_def_cfa_offset 12
 246              		.cfi_offset 4, -12
 247              		.cfi_offset 5, -8
 248              		.cfi_offset 14, -4
 249 0008 C568     		ldr	r5, [r0, #12]
 250              		.loc 1 347 0
 251 000a 2BB1     		cbz	r3, .L16
 252              	.LVL13:
 253              		.loc 1 349 0
 254 000c 012D     		cmp	r5, #1
 255              		.loc 1 348 0
 256 000e 94BF     		ite	ls
 257 0010 41F48071 		orrls	r1, r1, #256
 258              	.LVL14:
 259              		.loc 1 352 0
 260 0014 41F48471 		orrhi	r1, r1, #264
 261              	.LVL15:
 262              	.L16:
 263              		.loc 1 355 0
 264 0018 C369     		ldr	r3, [r0, #28]
 265 001a 8468     		ldr	r4, [r0, #8]
 266 001c 1B68     		ldr	r3, [r3]
 267 001e DC60     		str	r4, [r3, #12]
 268              		.loc 1 356 0
 269 0020 5488     		ldrh	r4, [r2, #2]
 270 0022 6543     		muls	r5, r4, r5
 271 0024 5D60     		str	r5, [r3, #4]
 272              		.loc 1 358 0
 273 0026 1960     		str	r1, [r3]
 274              		.loc 1 359 0
 275 0028 1968     		ldr	r1, [r3]
 276              	.LVL16:
 277 002a 41F00101 		orr	r1, r1, #1
 278 002e 1960     		str	r1, [r3]
 279              	.LVL17:
 280              		.loc 1 362 0
 281 0030 8369     		ldr	r3, [r0, #24]
 282 0032 0021     		movs	r1, #0
 283 0034 1960     		str	r1, [r3]
 284              		.loc 1 363 0
 285 0036 5169     		ldr	r1, [r2, #20]
ARM GAS  /tmp/ccoLuXua.s 			page 6


 286 0038 D960     		str	r1, [r3, #12]
 287              		.loc 1 364 0
 288 003a 9169     		ldr	r1, [r2, #24]
 289 003c 1961     		str	r1, [r3, #16]
 290              		.loc 1 365 0
 291 003e 918B     		ldrh	r1, [r2, #28]
 292 0040 5962     		str	r1, [r3, #36]
 293              		.loc 1 366 0
 294 0042 D18B     		ldrh	r1, [r2, #30]
 295 0044 9962     		str	r1, [r3, #40]
 296              		.loc 1 367 0
 297 0046 116A     		ldr	r1, [r2, #32]
 298 0048 013C     		subs	r4, r4, #1
 299 004a 41EA0454 		orr	r4, r1, r4, lsl #20
 300              		.loc 1 368 0
 301 004e 516A     		ldr	r1, [r2, #36]
 302              		.loc 1 367 0
 303 0050 DC62     		str	r4, [r3, #44]
 304              		.loc 1 368 0
 305 0052 1963     		str	r1, [r3, #48]
 306              		.loc 1 369 0
 307 0054 916A     		ldr	r1, [r2, #40]
 308 0056 5963     		str	r1, [r3, #52]
 309              		.loc 1 372 0
 310 0058 D168     		ldr	r1, [r2, #12]
 311              		.loc 1 375 0
 312 005a 1269     		ldr	r2, [r2, #16]
 313              	.LVL18:
 314              		.loc 1 372 0
 315 005c 41F08061 		orr	r1, r1, #67108864
 316 0060 41F48071 		orr	r1, r1, #256
 317 0064 5960     		str	r1, [r3, #4]
 318              		.loc 1 379 0
 319 0066 5100     		lsls	r1, r2, #1
 320              		.loc 1 381 0
 321 0068 43BF     		ittte	mi
 322 006a 22F08041 		bicmi	r1, r2, #1073741824
 323 006e 21F00201 		bicmi	r1, r1, #2
 324 0072 40F20330 		movwmi	r0, #771
 325              	.LVL19:
 326              		.loc 1 375 0
 327 0076 42F44072 		orrpl	r2, r2, #768
 328              	.LVL20:
 329              		.loc 1 381 0
 330 007a 45BF     		ittet	mi
 331 007c 0143     		orrmi	r1, r1, r0
 332              		.loc 1 384 0
 333 007e 0243     		orrmi	r2, r2, r0
 334              		.loc 1 375 0
 335 0080 42F00102 		orrpl	r2, r2, #1
 336              		.loc 1 381 0
 337 0084 9960     		strmi	r1, [r3, #8]
 338              		.loc 1 387 0
 339 0086 9A60     		str	r2, [r3, #8]
 340              	.LVL21:
 341 0088 30BD     		pop	{r4, r5, pc}
 342              		.cfi_endproc
ARM GAS  /tmp/ccoLuXua.s 			page 7


 343              	.LFE328:
 344              		.size	adc_lld_start_conversion, .-adc_lld_start_conversion
 345              		.section	.text.adc_lld_stop_conversion,"ax",%progbits
 346              		.align	1
 347              		.global	adc_lld_stop_conversion
 348              		.syntax unified
 349              		.thumb
 350              		.thumb_func
 351              		.fpu fpv4-sp-d16
 352              		.type	adc_lld_stop_conversion, %function
 353              	adc_lld_stop_conversion:
 354              	.LFB329:
 355              		.loc 1 397 0
 356              		.cfi_startproc
 357              		@ args = 0, pretend = 0, frame = 0
 358              		@ frame_needed = 0, uses_anonymous_args = 0
 359              	.LVL22:
 360              		.loc 1 399 0
 361 0000 C169     		ldr	r1, [r0, #28]
 362              		.loc 1 397 0
 363 0002 10B5     		push	{r4, lr}
 364              		.cfi_def_cfa_offset 8
 365              		.cfi_offset 4, -8
 366              		.cfi_offset 14, -4
 367              		.loc 1 399 0
 368 0004 0C68     		ldr	r4, [r1]
 369 0006 2368     		ldr	r3, [r4]
 370 0008 23F01F03 		bic	r3, r3, #31
 371 000c 2360     		str	r3, [r4]
 372              	.L25:
 373              		.loc 1 399 0 is_stmt 0 discriminator 2
 374 000e 2268     		ldr	r2, [r4]
 375 0010 12F00102 		ands	r2, r2, #1
 376 0014 FBD1     		bne	.L25
 377              		.loc 1 399 0 discriminator 3
 378 0016 4C68     		ldr	r4, [r1, #4]
 379 0018 497A     		ldrb	r1, [r1, #9]	@ zero_extendqisi2
 380 001a 3D23     		movs	r3, #61
 381 001c 8B40     		lsls	r3, r3, r1
 382 001e 2360     		str	r3, [r4]
 383              		.loc 1 400 0 is_stmt 1 discriminator 3
 384 0020 8369     		ldr	r3, [r0, #24]
 385 0022 5A60     		str	r2, [r3, #4]
 386              		.loc 1 402 0 discriminator 3
 387 0024 9A68     		ldr	r2, [r3, #8]
 388 0026 22F08042 		bic	r2, r2, #1073741824
 389 002a 9A60     		str	r2, [r3, #8]
 390              		.loc 1 403 0 discriminator 3
 391 002c 0122     		movs	r2, #1
 392 002e 9A60     		str	r2, [r3, #8]
 393 0030 10BD     		pop	{r4, pc}
 394              		.cfi_endproc
 395              	.LFE329:
 396              		.size	adc_lld_stop_conversion, .-adc_lld_stop_conversion
 397              		.section	.text.Vector88,"ax",%progbits
 398              		.align	1
 399              		.global	Vector88
ARM GAS  /tmp/ccoLuXua.s 			page 8


 400              		.syntax unified
 401              		.thumb
 402              		.thumb_func
 403              		.fpu fpv4-sp-d16
 404              		.type	Vector88, %function
 405              	Vector88:
 406              	.LFB324:
 407              		.loc 1 111 0
 408              		.cfi_startproc
 409              		@ args = 0, pretend = 0, frame = 0
 410              		@ frame_needed = 0, uses_anonymous_args = 0
 411              		.loc 1 117 0
 412 0000 2C4B     		ldr	r3, .L51
 413              		.loc 1 111 0
 414 0002 70B5     		push	{r4, r5, r6, lr}
 415              		.cfi_def_cfa_offset 16
 416              		.cfi_offset 4, -16
 417              		.cfi_offset 5, -12
 418              		.cfi_offset 6, -8
 419              		.cfi_offset 14, -4
 420              		.loc 1 117 0
 421 0004 1E68     		ldr	r6, [r3]
 422              	.LVL23:
 423              		.loc 1 118 0
 424 0006 0022     		movs	r2, #0
 425 0008 1A60     		str	r2, [r3]
 426              		.loc 1 121 0
 427 000a B206     		lsls	r2, r6, #26
 428 000c 24D5     		bpl	.L28
 429              		.loc 1 121 0 is_stmt 0 discriminator 1
 430 000e 2A4D     		ldr	r5, .L51+4
 431 0010 EB69     		ldr	r3, [r5, #28]
 432 0012 1B68     		ldr	r3, [r3]
 433 0014 5B68     		ldr	r3, [r3, #4]
 434 0016 FBB1     		cbz	r3, .L28
 435              		.loc 1 124 0 is_stmt 1
 436 0018 2B69     		ldr	r3, [r5, #16]
 437 001a EBB1     		cbz	r3, .L28
 438              		.loc 1 125 0
 439 001c 2846     		mov	r0, r5
 440 001e FFF7FEFF 		bl	adc_lld_stop_conversion
 441              	.LVL24:
 442 0022 2B69     		ldr	r3, [r5, #16]
 443 0024 9B68     		ldr	r3, [r3, #8]
 444 0026 002B     		cmp	r3, #0
 445 0028 3CD0     		beq	.L29
 446              		.loc 1 125 0 is_stmt 0 discriminator 1
 447 002a 0522     		movs	r2, #5
 448 002c 2A70     		strb	r2, [r5]
 449 002e 0121     		movs	r1, #1
 450 0030 2846     		mov	r0, r5
 451 0032 9847     		blx	r3
 452              	.LVL25:
 453 0034 2B78     		ldrb	r3, [r5]	@ zero_extendqisi2
 454 0036 052B     		cmp	r3, #5
 455 0038 04BF     		itt	eq
 456 003a 0223     		moveq	r3, #2
ARM GAS  /tmp/ccoLuXua.s 			page 9


 457 003c 2B70     		strbeq	r3, [r5]
 458 003e 0023     		movs	r3, #0
 459 0040 2B61     		str	r3, [r5, #16]
 460              	.L31:
 461              	.LVL26:
 462              	.LBB100:
 463              	.LBB101:
 464              	.LBB102:
 465              	.LBB103:
 466              	.LBB104:
 467              	.LBB105:
 468              		.file 2 "../../modules/ChibiOS/os/common/ext/ARM/CMSIS/Core/Include/cmsis_gcc.h"
 469              		.loc 2 493 0 is_stmt 1 discriminator 7
 470 0042 2023     		movs	r3, #32
 471              		.syntax unified
 472              	@ 493 "../../modules/ChibiOS/os/common/ext/ARM/CMSIS/Core/Include/cmsis_gcc.h" 1
 473 0044 83F31188 		MSR basepri, r3
 474              	@ 0 "" 2
 475              	.LVL27:
 476              		.thumb
 477              		.syntax unified
 478              	.LBE105:
 479              	.LBE104:
 480              	.LBE103:
 481              	.LBE102:
 482              	.LBE101:
 483              	.LBE100:
 484              	.LBB106:
 485              	.LBB107:
 486              		.file 3 "../../modules/ChibiOS/os/hal/osal/rt/osal.h"
 487              		.loc 3 775 0 discriminator 7
 488 0048 4FF0FF31 		mov	r1, #-1
 489 004c 1B48     		ldr	r0, .L51+8
 490 004e FFF7FEFF 		bl	chThdResumeI
 491              	.LVL28:
 492              	.LBE107:
 493              	.LBE106:
 494              	.LBB108:
 495              	.LBB109:
 496              	.LBB110:
 497              	.LBB111:
 498              	.LBB112:
 499              	.LBB113:
 500              		.loc 2 493 0 discriminator 7
 501 0052 0023     		movs	r3, #0
 502              		.syntax unified
 503              	@ 493 "../../modules/ChibiOS/os/common/ext/ARM/CMSIS/Core/Include/cmsis_gcc.h" 1
 504 0054 83F31188 		MSR basepri, r3
 505              	@ 0 "" 2
 506              	.LVL29:
 507              		.thumb
 508              		.syntax unified
 509              	.L28:
 510              	.LBE113:
 511              	.LBE112:
 512              	.LBE111:
 513              	.LBE110:
ARM GAS  /tmp/ccoLuXua.s 			page 10


 514              	.LBE109:
 515              	.LBE108:
 516              		.loc 1 127 0
 517 0058 F307     		lsls	r3, r6, #31
 518 005a 1FD5     		bpl	.L32
 519              		.loc 1 128 0
 520 005c 164D     		ldr	r5, .L51+4
 521 005e 2B69     		ldr	r3, [r5, #16]
 522 0060 E3B1     		cbz	r3, .L32
 523              		.loc 1 129 0
 524 0062 2846     		mov	r0, r5
 525 0064 FFF7FEFF 		bl	adc_lld_stop_conversion
 526              	.LVL30:
 527 0068 2B69     		ldr	r3, [r5, #16]
 528 006a 9B68     		ldr	r3, [r3, #8]
 529 006c F3B1     		cbz	r3, .L33
 530              		.loc 1 129 0 is_stmt 0 discriminator 1
 531 006e 0522     		movs	r2, #5
 532 0070 2A70     		strb	r2, [r5]
 533 0072 0221     		movs	r1, #2
 534 0074 2846     		mov	r0, r5
 535 0076 9847     		blx	r3
 536              	.LVL31:
 537 0078 2B78     		ldrb	r3, [r5]	@ zero_extendqisi2
 538 007a 052B     		cmp	r3, #5
 539 007c 04BF     		itt	eq
 540 007e 0223     		moveq	r3, #2
 541 0080 2B70     		strbeq	r3, [r5]
 542 0082 0023     		movs	r3, #0
 543 0084 2B61     		str	r3, [r5, #16]
 544              	.L35:
 545              	.LVL32:
 546              	.LBB114:
 547              	.LBB115:
 548              	.LBB116:
 549              	.LBB117:
 550              	.LBB118:
 551              	.LBB119:
 552              		.loc 2 493 0 is_stmt 1 discriminator 7
 553 0086 2023     		movs	r3, #32
 554              		.syntax unified
 555              	@ 493 "../../modules/ChibiOS/os/common/ext/ARM/CMSIS/Core/Include/cmsis_gcc.h" 1
 556 0088 83F31188 		MSR basepri, r3
 557              	@ 0 "" 2
 558              	.LVL33:
 559              		.thumb
 560              		.syntax unified
 561              	.LBE119:
 562              	.LBE118:
 563              	.LBE117:
 564              	.LBE116:
 565              	.LBE115:
 566              	.LBE114:
 567              	.LBB120:
 568              	.LBB121:
 569              		.loc 3 775 0 discriminator 7
 570 008c 4FF0FF31 		mov	r1, #-1
ARM GAS  /tmp/ccoLuXua.s 			page 11


 571 0090 0A48     		ldr	r0, .L51+8
 572 0092 FFF7FEFF 		bl	chThdResumeI
 573              	.LVL34:
 574              	.LBE121:
 575              	.LBE120:
 576              	.LBB122:
 577              	.LBB123:
 578              	.LBB124:
 579              	.LBB125:
 580              	.LBB126:
 581              	.LBB127:
 582              		.loc 2 493 0 discriminator 7
 583 0096 0023     		movs	r3, #0
 584              		.syntax unified
 585              	@ 493 "../../modules/ChibiOS/os/common/ext/ARM/CMSIS/Core/Include/cmsis_gcc.h" 1
 586 0098 83F31188 		MSR basepri, r3
 587              	@ 0 "" 2
 588              	.LVL35:
 589              		.thumb
 590              		.syntax unified
 591              	.L32:
 592              	.LBE127:
 593              	.LBE126:
 594              	.LBE125:
 595              	.LBE124:
 596              	.LBE123:
 597              	.LBE122:
 598              		.loc 1 180 0
 599 009c BDE87040 		pop	{r4, r5, r6, lr}
 600              		.cfi_remember_state
 601              		.cfi_restore 14
 602              		.cfi_restore 6
 603              		.cfi_restore 5
 604              		.cfi_restore 4
 605              		.cfi_def_cfa_offset 0
 606              	.LVL36:
 607              		.loc 1 179 0
 608 00a0 FFF7FEBF 		b	_port_irq_epilogue
 609              	.LVL37:
 610              	.L29:
 611              		.cfi_restore_state
 612              		.loc 1 125 0 discriminator 2
 613 00a4 0222     		movs	r2, #2
 614 00a6 2A70     		strb	r2, [r5]
 615 00a8 2B61     		str	r3, [r5, #16]
 616 00aa CAE7     		b	.L31
 617              	.L33:
 618              		.loc 1 129 0 discriminator 2
 619 00ac 0222     		movs	r2, #2
 620 00ae 2A70     		strb	r2, [r5]
 621 00b0 2B61     		str	r3, [r5, #16]
 622 00b2 E8E7     		b	.L35
 623              	.L52:
 624              		.align	2
 625              	.L51:
 626 00b4 00200140 		.word	1073815552
 627 00b8 00000000 		.word	.LANCHOR0
ARM GAS  /tmp/ccoLuXua.s 			page 12


 628 00bc 14000000 		.word	.LANCHOR0+20
 629              		.cfi_endproc
 630              	.LFE324:
 631              		.size	Vector88, .-Vector88
 632              		.section	.text.adc_lld_serve_rx_interrupt,"ax",%progbits
 633              		.align	1
 634              		.syntax unified
 635              		.thumb
 636              		.thumb_func
 637              		.fpu fpv4-sp-d16
 638              		.type	adc_lld_serve_rx_interrupt, %function
 639              	adc_lld_serve_rx_interrupt:
 640              	.LFB323:
 641              		.loc 1 75 0
 642              		.cfi_startproc
 643              		@ args = 0, pretend = 0, frame = 0
 644              		@ frame_needed = 0, uses_anonymous_args = 0
 645              	.LVL38:
 646              		.loc 1 78 0
 647 0000 11F00C0F 		tst	r1, #12
 648              		.loc 1 75 0
 649 0004 10B5     		push	{r4, lr}
 650              		.cfi_def_cfa_offset 8
 651              		.cfi_offset 4, -8
 652              		.cfi_offset 14, -4
 653              		.loc 1 75 0
 654 0006 0446     		mov	r4, r0
 655              		.loc 1 78 0
 656 0008 1FD0     		beq	.L54
 657              		.loc 1 81 0
 658 000a FFF7FEFF 		bl	adc_lld_stop_conversion
 659              	.LVL39:
 660 000e 0369     		ldr	r3, [r0, #16]
 661 0010 9B68     		ldr	r3, [r3, #8]
 662 0012 BBB1     		cbz	r3, .L55
 663              		.loc 1 81 0 is_stmt 0 discriminator 1
 664 0014 0522     		movs	r2, #5
 665 0016 0270     		strb	r2, [r0]
 666 0018 0021     		movs	r1, #0
 667 001a 9847     		blx	r3
 668              	.LVL40:
 669 001c 2378     		ldrb	r3, [r4]	@ zero_extendqisi2
 670 001e 052B     		cmp	r3, #5
 671 0020 04BF     		itt	eq
 672 0022 0223     		moveq	r3, #2
 673 0024 2370     		strbeq	r3, [r4]
 674 0026 0023     		movs	r3, #0
 675              	.L77:
 676              		.loc 1 81 0 discriminator 2
 677 0028 2361     		str	r3, [r4, #16]
 678              	.LVL41:
 679              	.LBB128:
 680              	.LBB129:
 681              	.LBB130:
 682              	.LBB131:
 683              	.LBB132:
 684              	.LBB133:
ARM GAS  /tmp/ccoLuXua.s 			page 13


 685              		.loc 2 493 0 is_stmt 1 discriminator 2
 686 002a 2023     		movs	r3, #32
 687              		.syntax unified
 688              	@ 493 "../../modules/ChibiOS/os/common/ext/ARM/CMSIS/Core/Include/cmsis_gcc.h" 1
 689 002c 83F31188 		MSR basepri, r3
 690              	@ 0 "" 2
 691              	.LVL42:
 692              		.thumb
 693              		.syntax unified
 694              	.LBE133:
 695              	.LBE132:
 696              	.LBE131:
 697              	.LBE130:
 698              	.LBE129:
 699              	.LBE128:
 700              	.LBB134:
 701              	.LBB135:
 702              		.loc 3 775 0 discriminator 2
 703 0030 4FF0FF31 		mov	r1, #-1
 704              	.LVL43:
 705              	.L78:
 706              	.LBE135:
 707              	.LBE134:
 708              	.LBB136:
 709              	.LBB137:
 710              		.loc 3 775 0 is_stmt 0 discriminator 8
 711 0034 04F11400 		add	r0, r4, #20
 712 0038 FFF7FEFF 		bl	chThdResumeI
 713              	.LVL44:
 714              	.LBE137:
 715              	.LBE136:
 716              	.LBB139:
 717              	.LBB140:
 718              	.LBB141:
 719              	.LBB142:
 720              	.LBB143:
 721              	.LBB144:
 722              		.loc 2 493 0 is_stmt 1 discriminator 8
 723 003c 0023     		movs	r3, #0
 724              		.syntax unified
 725              	@ 493 "../../modules/ChibiOS/os/common/ext/ARM/CMSIS/Core/Include/cmsis_gcc.h" 1
 726 003e 83F31188 		MSR basepri, r3
 727              	@ 0 "" 2
 728              	.LVL45:
 729              		.thumb
 730              		.syntax unified
 731 0042 10BD     		pop	{r4, pc}
 732              	.LVL46:
 733              	.L55:
 734              	.LBE144:
 735              	.LBE143:
 736              	.LBE142:
 737              	.LBE141:
 738              	.LBE140:
 739              	.LBE139:
 740              		.loc 1 81 0 discriminator 2
 741 0044 0222     		movs	r2, #2
ARM GAS  /tmp/ccoLuXua.s 			page 14


 742 0046 0270     		strb	r2, [r0]
 743 0048 EEE7     		b	.L77
 744              	.LVL47:
 745              	.L54:
 746              		.loc 1 86 0
 747 004a 0369     		ldr	r3, [r0, #16]
 748 004c 4BB3     		cbz	r3, .L53
 749              		.loc 1 88 0
 750 004e 8A06     		lsls	r2, r1, #26
 751 0050 20D5     		bpl	.L60
 752              		.loc 1 90 0
 753 0052 1A78     		ldrb	r2, [r3]	@ zero_extendqisi2
 754 0054 52B1     		cbz	r2, .L61
 755              		.loc 1 90 0 is_stmt 0 discriminator 1
 756 0056 5B68     		ldr	r3, [r3, #4]
 757 0058 1BB3     		cbz	r3, .L53
 758              		.loc 1 90 0 discriminator 3
 759 005a 0422     		movs	r2, #4
 760 005c 0270     		strb	r2, [r0]
 761 005e 9847     		blx	r3
 762              	.LVL48:
 763 0060 2378     		ldrb	r3, [r4]	@ zero_extendqisi2
 764 0062 042B     		cmp	r3, #4
 765 0064 1DD1     		bne	.L53
 766              		.loc 1 90 0 discriminator 4
 767 0066 0323     		movs	r3, #3
 768 0068 2370     		strb	r3, [r4]
 769 006a 10BD     		pop	{r4, pc}
 770              	.LVL49:
 771              	.L61:
 772              		.loc 1 90 0 discriminator 2
 773 006c FFF7FEFF 		bl	adc_lld_stop_conversion
 774              	.LVL50:
 775 0070 0369     		ldr	r3, [r0, #16]
 776 0072 5B68     		ldr	r3, [r3, #4]
 777 0074 2BB1     		cbz	r3, .L63
 778              		.loc 1 90 0 discriminator 5
 779 0076 0422     		movs	r2, #4
 780 0078 0270     		strb	r2, [r0]
 781 007a 9847     		blx	r3
 782              	.LVL51:
 783 007c 2378     		ldrb	r3, [r4]	@ zero_extendqisi2
 784 007e 042B     		cmp	r3, #4
 785 0080 03D1     		bne	.L64
 786              	.L63:
 787              		.loc 1 90 0 discriminator 7
 788 0082 0223     		movs	r3, #2
 789 0084 2370     		strb	r3, [r4]
 790 0086 0023     		movs	r3, #0
 791 0088 2361     		str	r3, [r4, #16]
 792              	.L64:
 793              	.LVL52:
 794              	.LBB145:
 795              	.LBB146:
 796              	.LBB147:
 797              	.LBB148:
 798              	.LBB149:
ARM GAS  /tmp/ccoLuXua.s 			page 15


 799              	.LBB150:
 800              		.loc 2 493 0 is_stmt 1 discriminator 8
 801 008a 2023     		movs	r3, #32
 802              		.syntax unified
 803              	@ 493 "../../modules/ChibiOS/os/common/ext/ARM/CMSIS/Core/Include/cmsis_gcc.h" 1
 804 008c 83F31188 		MSR basepri, r3
 805              	@ 0 "" 2
 806              	.LVL53:
 807              		.thumb
 808              		.syntax unified
 809              	.LBE150:
 810              	.LBE149:
 811              	.LBE148:
 812              	.LBE147:
 813              	.LBE146:
 814              	.LBE145:
 815              	.LBB151:
 816              	.LBB138:
 817              		.loc 3 775 0 discriminator 8
 818 0090 0021     		movs	r1, #0
 819 0092 CFE7     		b	.L78
 820              	.LVL54:
 821              	.L60:
 822              	.LBE138:
 823              	.LBE151:
 824              		.loc 1 92 0
 825 0094 CA06     		lsls	r2, r1, #27
 826 0096 04D5     		bpl	.L53
 827              		.loc 1 94 0
 828 0098 5B68     		ldr	r3, [r3, #4]
 829 009a 13B1     		cbz	r3, .L53
 830              		.loc 1 98 0 discriminator 1
 831 009c BDE81040 		pop	{r4, lr}
 832              		.cfi_remember_state
 833              		.cfi_restore 14
 834              		.cfi_restore 4
 835              		.cfi_def_cfa_offset 0
 836              		.loc 1 94 0 discriminator 1
 837 00a0 1847     		bx	r3	@ indirect register sibling call
 838              	.LVL55:
 839              	.L53:
 840              		.cfi_restore_state
 841 00a2 10BD     		pop	{r4, pc}
 842              		.cfi_endproc
 843              	.LFE323:
 844              		.size	adc_lld_serve_rx_interrupt, .-adc_lld_serve_rx_interrupt
 845              		.section	.text.adcSTM32EnableTSVREFE,"ax",%progbits
 846              		.align	1
 847              		.global	adcSTM32EnableTSVREFE
 848              		.syntax unified
 849              		.thumb
 850              		.thumb_func
 851              		.fpu fpv4-sp-d16
 852              		.type	adcSTM32EnableTSVREFE, %function
 853              	adcSTM32EnableTSVREFE:
 854              	.LFB330:
 855              		.loc 1 412 0
ARM GAS  /tmp/ccoLuXua.s 			page 16


 856              		.cfi_startproc
 857              		@ args = 0, pretend = 0, frame = 0
 858              		@ frame_needed = 0, uses_anonymous_args = 0
 859              		@ link register save eliminated.
 860              		.loc 1 414 0
 861 0000 024A     		ldr	r2, .L80
 862 0002 5368     		ldr	r3, [r2, #4]
 863 0004 43F40003 		orr	r3, r3, #8388608
 864 0008 5360     		str	r3, [r2, #4]
 865 000a 7047     		bx	lr
 866              	.L81:
 867              		.align	2
 868              	.L80:
 869 000c 00230140 		.word	1073816320
 870              		.cfi_endproc
 871              	.LFE330:
 872              		.size	adcSTM32EnableTSVREFE, .-adcSTM32EnableTSVREFE
 873              		.section	.text.adcSTM32DisableTSVREFE,"ax",%progbits
 874              		.align	1
 875              		.global	adcSTM32DisableTSVREFE
 876              		.syntax unified
 877              		.thumb
 878              		.thumb_func
 879              		.fpu fpv4-sp-d16
 880              		.type	adcSTM32DisableTSVREFE, %function
 881              	adcSTM32DisableTSVREFE:
 882              	.LFB331:
 883              		.loc 1 423 0
 884              		.cfi_startproc
 885              		@ args = 0, pretend = 0, frame = 0
 886              		@ frame_needed = 0, uses_anonymous_args = 0
 887              		@ link register save eliminated.
 888              		.loc 1 425 0
 889 0000 024A     		ldr	r2, .L83
 890 0002 5368     		ldr	r3, [r2, #4]
 891 0004 23F40003 		bic	r3, r3, #8388608
 892 0008 5360     		str	r3, [r2, #4]
 893 000a 7047     		bx	lr
 894              	.L84:
 895              		.align	2
 896              	.L83:
 897 000c 00230140 		.word	1073816320
 898              		.cfi_endproc
 899              	.LFE331:
 900              		.size	adcSTM32DisableTSVREFE, .-adcSTM32DisableTSVREFE
 901              		.section	.text.adcSTM32EnableVBATE,"ax",%progbits
 902              		.align	1
 903              		.global	adcSTM32EnableVBATE
 904              		.syntax unified
 905              		.thumb
 906              		.thumb_func
 907              		.fpu fpv4-sp-d16
 908              		.type	adcSTM32EnableVBATE, %function
 909              	adcSTM32EnableVBATE:
 910              	.LFB332:
 911              		.loc 1 434 0
 912              		.cfi_startproc
ARM GAS  /tmp/ccoLuXua.s 			page 17


 913              		@ args = 0, pretend = 0, frame = 0
 914              		@ frame_needed = 0, uses_anonymous_args = 0
 915              		@ link register save eliminated.
 916              		.loc 1 436 0
 917 0000 024A     		ldr	r2, .L86
 918 0002 5368     		ldr	r3, [r2, #4]
 919 0004 43F48003 		orr	r3, r3, #4194304
 920 0008 5360     		str	r3, [r2, #4]
 921 000a 7047     		bx	lr
 922              	.L87:
 923              		.align	2
 924              	.L86:
 925 000c 00230140 		.word	1073816320
 926              		.cfi_endproc
 927              	.LFE332:
 928              		.size	adcSTM32EnableVBATE, .-adcSTM32EnableVBATE
 929              		.section	.text.adcSTM32DisableVBATE,"ax",%progbits
 930              		.align	1
 931              		.global	adcSTM32DisableVBATE
 932              		.syntax unified
 933              		.thumb
 934              		.thumb_func
 935              		.fpu fpv4-sp-d16
 936              		.type	adcSTM32DisableVBATE, %function
 937              	adcSTM32DisableVBATE:
 938              	.LFB333:
 939              		.loc 1 445 0
 940              		.cfi_startproc
 941              		@ args = 0, pretend = 0, frame = 0
 942              		@ frame_needed = 0, uses_anonymous_args = 0
 943              		@ link register save eliminated.
 944              		.loc 1 447 0
 945 0000 024A     		ldr	r2, .L89
 946 0002 5368     		ldr	r3, [r2, #4]
 947 0004 23F48003 		bic	r3, r3, #4194304
 948 0008 5360     		str	r3, [r2, #4]
 949 000a 7047     		bx	lr
 950              	.L90:
 951              		.align	2
 952              	.L89:
 953 000c 00230140 		.word	1073816320
 954              		.cfi_endproc
 955              	.LFE333:
 956              		.size	adcSTM32DisableVBATE, .-adcSTM32DisableVBATE
 957              		.global	ADCD1
 958              		.section	.bss.ADCD1,"aw",%nobits
 959              		.align	2
 960              		.set	.LANCHOR0,. + 0
 961              		.type	ADCD1, %object
 962              		.size	ADCD1, 36
 963              	ADCD1:
 964 0000 00000000 		.space	36
 964      00000000 
 964      00000000 
 964      00000000 
 964      00000000 
 965              		.text
ARM GAS  /tmp/ccoLuXua.s 			page 18


 966              	.Letext0:
 967              		.file 4 "/opt/gcc-arm-none-eabi-6-2017-q2-update/lib/gcc/arm-none-eabi/6.3.1/include/stddef.h"
 968              		.file 5 "/opt/gcc-arm-none-eabi-6-2017-q2-update/arm-none-eabi/include/machine/_default_types.h"
 969              		.file 6 "/opt/gcc-arm-none-eabi-6-2017-q2-update/arm-none-eabi/include/sys/_stdint.h"
 970              		.file 7 "../../modules/ChibiOS/os/common/ports/ARMCMx/compilers/GCC/chtypes.h"
 971              		.file 8 "../../modules/ChibiOS/os/rt/include/chsystypes.h"
 972              		.file 9 "../../modules/ChibiOS/os/rt/include/chschd.h"
 973              		.file 10 "../../modules/ChibiOS/os/rt/include/chtime.h"
 974              		.file 11 "../../modules/ChibiOS/os/common/ext/ARM/CMSIS/Core/Include/core_cm4.h"
 975              		.file 12 "../../modules/ChibiOS/os/common/ext/ST/STM32F4xx/system_stm32f4xx.h"
 976              		.file 13 "../../modules/ChibiOS/os/common/ext/ST/STM32F4xx/stm32f427xx.h"
 977              		.file 14 "../../modules/ChibiOS/os/common/ports/ARMCMx/chcore.h"
 978              		.file 15 "../../modules/ChibiOS/os/common/ports/ARMCMx/chcore_v7m.h"
 979              		.file 16 "../../modules/ChibiOS/os/rt/include/chtm.h"
 980              		.file 17 "../../modules/ChibiOS/os/rt/include/chsem.h"
 981              		.file 18 "../../modules/ChibiOS/os/rt/include/chmtx.h"
 982              		.file 19 "../../modules/ChibiOS/os/rt/include/chsys.h"
 983              		.file 20 "../../modules/ChibiOS/os/rt/include/chregistry.h"
 984              		.file 21 "../../modules/ChibiOS/os/rt/include/chevents.h"
 985              		.file 22 "../../modules/ChibiOS/os/oslib/include/chmemcore.h"
 986              		.file 23 "../../modules/ChibiOS/os/oslib/include/chmempools.h"
 987              		.file 24 "../../modules/ChibiOS/os/oslib/include/chfactory.h"
 988              		.file 25 "../../modules/ChibiOS/os/hal/ports/STM32/LLD/DMAv2/stm32_dma.h"
 989              		.file 26 "../../modules/ChibiOS/os/hal/include/hal_queues.h"
 990              		.file 27 "../../modules/ChibiOS/os/hal/include/hal_pal.h"
 991              		.file 28 "../../modules/ChibiOS/os/hal/ports/STM32/LLD/GPIOv2/hal_pal_lld.h"
 992              		.file 29 "../../modules/ChibiOS/os/hal/include/hal_adc.h"
 993              		.file 30 "../../modules/ChibiOS/os/hal/ports/STM32/LLD/ADCv2/hal_adc_lld.h"
 994              		.file 31 "../../modules/ChibiOS/os/hal/include/hal_serial.h"
 995              		.file 32 "../../modules/ChibiOS/os/hal/ports/STM32/LLD/USARTv1/hal_serial_lld.h"
 996              		.file 33 "../../modules/ChibiOS/os/hal/include/hal_usb.h"
 997              		.file 34 "../../modules/ChibiOS/os/hal/ports/STM32/LLD/OTGv1/hal_usb_lld.h"
 998              		.file 35 "../../modules/ChibiOS/os/hal/ports/STM32/LLD/OTGv1/stm32_otg.h"
 999              		.file 36 "../../modules/ChibiOS/os/hal/ports/common/ARMCMx/nvic.h"
 1000              		.file 37 "../../modules/ChibiOS/os/rt/include/chthreads.h"