ARM GAS  /tmp/ccESzJ2O.s 			page 1


   1              		.cpu cortex-m4
   2              		.eabi_attribute 27, 1
   3              		.eabi_attribute 28, 1
   4              		.eabi_attribute 20, 1
   5              		.eabi_attribute 21, 1
   6              		.eabi_attribute 23, 3
   7              		.eabi_attribute 24, 1
   8              		.eabi_attribute 25, 1
   9              		.eabi_attribute 26, 1
  10              		.eabi_attribute 30, 4
  11              		.eabi_attribute 34, 1
  12              		.eabi_attribute 18, 4
  13              		.file	"hal_mmcsd.c"
  14              		.text
  15              	.Ltext0:
  16              		.cfi_sections	.debug_frame
  17              		.section	.text._mmcsd_get_slice,"ax",%progbits
  18              		.align	1
  19              		.global	_mmcsd_get_slice
  20              		.syntax unified
  21              		.thumb
  22              		.thumb_func
  23              		.fpu fpv4-sp-d16
  24              		.type	_mmcsd_get_slice, %function
  25              	_mmcsd_get_slice:
  26              	.LFB323:
  27              		.file 1 "../../modules/ChibiOS/os/hal/src/hal_mmcsd.c"
  28              		.loc 1 63 0
  29              		.cfi_startproc
  30              		@ args = 0, pretend = 0, frame = 0
  31              		@ frame_needed = 0, uses_anonymous_args = 0
  32              	.LVL0:
  33 0000 30B5     		push	{r4, r5, lr}
  34              		.cfi_def_cfa_offset 12
  35              		.cfi_offset 4, -12
  36              		.cfi_offset 5, -8
  37              		.cfi_offset 14, -4
  38              		.loc 1 71 0
  39 0002 4D09     		lsrs	r5, r1, #5
  40              		.loc 1 72 0
  41 0004 01F01F01 		and	r1, r1, #31
  42              	.LVL1:
  43              		.loc 1 69 0
  44 0008 5409     		lsrs	r4, r2, #5
  45              	.LVL2:
  46              		.loc 1 72 0
  47 000a 0131     		adds	r1, r1, #1
  48 000c 0123     		movs	r3, #1
  49 000e 8B40     		lsls	r3, r3, r1
  50              		.loc 1 75 0
  51 0010 AC42     		cmp	r4, r5
  52              		.loc 1 70 0
  53 0012 02F01F02 		and	r2, r2, #31
  54              	.LVL3:
  55              		.loc 1 72 0
  56 0016 03F1FF33 		add	r3, r3, #-1
  57              	.LVL4:
ARM GAS  /tmp/ccESzJ2O.s 			page 2


  58              		.loc 1 75 0
  59 001a 0AD2     		bcs	.L2
  60              		.loc 1 77 0
  61 001c 50F82510 		ldr	r1, [r0, r5, lsl #2]
  62              		.loc 1 76 0
  63 0020 50F82400 		ldr	r0, [r0, r4, lsl #2]
  64              	.LVL5:
  65              		.loc 1 77 0
  66 0024 0B40     		ands	r3, r3, r1
  67              	.LVL6:
  68 0026 C2F12001 		rsb	r1, r2, #32
  69 002a 8B40     		lsls	r3, r3, r1
  70              		.loc 1 76 0
  71 002c D040     		lsrs	r0, r0, r2
  72 002e 1843     		orrs	r0, r0, r3
  73 0030 30BD     		pop	{r4, r5, pc}
  74              	.LVL7:
  75              	.L2:
  76              		.loc 1 79 0
  77 0032 50F82400 		ldr	r0, [r0, r4, lsl #2]
  78              	.LVL8:
  79 0036 1840     		ands	r0, r0, r3
  80 0038 D040     		lsrs	r0, r0, r2
  81              		.loc 1 80 0
  82 003a 30BD     		pop	{r4, r5, pc}
  83              		.cfi_endproc
  84              	.LFE323:
  85              		.size	_mmcsd_get_slice, .-_mmcsd_get_slice
  86              		.section	.text._mmcsd_get_capacity,"ax",%progbits
  87              		.align	1
  88              		.global	_mmcsd_get_capacity
  89              		.syntax unified
  90              		.thumb
  91              		.thumb_func
  92              		.fpu fpv4-sp-d16
  93              		.type	_mmcsd_get_capacity, %function
  94              	_mmcsd_get_capacity:
  95              	.LFB324:
  96              		.loc 1 93 0
  97              		.cfi_startproc
  98              		@ args = 0, pretend = 0, frame = 0
  99              		@ frame_needed = 0, uses_anonymous_args = 0
 100              	.LVL9:
 101 0000 70B5     		push	{r4, r5, r6, lr}
 102              		.cfi_def_cfa_offset 16
 103              		.cfi_offset 4, -16
 104              		.cfi_offset 5, -12
 105              		.cfi_offset 6, -8
 106              		.cfi_offset 14, -4
 107              		.loc 1 98 0
 108 0002 7E22     		movs	r2, #126
 109 0004 7F21     		movs	r1, #127
 110              		.loc 1 93 0
 111 0006 0546     		mov	r5, r0
 112              		.loc 1 98 0
 113 0008 FFF7FEFF 		bl	_mmcsd_get_slice
 114              	.LVL10:
ARM GAS  /tmp/ccESzJ2O.s 			page 3


 115 000c 18B1     		cbz	r0, .L6
 116 000e 0128     		cmp	r0, #1
 117 0010 19D0     		beq	.L7
 118              		.loc 1 112 0
 119 0012 0020     		movs	r0, #0
 120              		.loc 1 113 0
 121 0014 70BD     		pop	{r4, r5, r6, pc}
 122              	.LVL11:
 123              	.L6:
 124              		.loc 1 101 0
 125 0016 3E22     		movs	r2, #62
 126 0018 4921     		movs	r1, #73
 127 001a 2846     		mov	r0, r5
 128 001c FFF7FEFF 		bl	_mmcsd_get_slice
 129              	.LVL12:
 130              		.loc 1 102 0
 131 0020 2F22     		movs	r2, #47
 132              		.loc 1 101 0
 133 0022 0446     		mov	r4, r0
 134              	.LVL13:
 135              		.loc 1 102 0
 136 0024 3121     		movs	r1, #49
 137 0026 2846     		mov	r0, r5
 138              	.LVL14:
 139 0028 FFF7FEFF 		bl	_mmcsd_get_slice
 140              	.LVL15:
 141              		.loc 1 103 0
 142 002c 5022     		movs	r2, #80
 143              		.loc 1 102 0
 144 002e 0646     		mov	r6, r0
 145              	.LVL16:
 146              		.loc 1 103 0
 147 0030 5321     		movs	r1, #83
 148 0032 2846     		mov	r0, r5
 149              	.LVL17:
 150 0034 FFF7FEFF 		bl	_mmcsd_get_slice
 151              	.LVL18:
 152              		.loc 1 104 0
 153 0038 0236     		adds	r6, r6, #2
 154              	.LVL19:
 155 003a 0134     		adds	r4, r4, #1
 156              	.LVL20:
 157 003c B440     		lsls	r4, r4, r6
 158              	.LVL21:
 159 003e 0938     		subs	r0, r0, #9
 160              	.LVL22:
 161 0040 04FA00F0 		lsl	r0, r4, r0
 162              	.LVL23:
 163 0044 70BD     		pop	{r4, r5, r6, pc}
 164              	.LVL24:
 165              	.L7:
 166              		.loc 1 107 0
 167 0046 3022     		movs	r2, #48
 168 0048 4521     		movs	r1, #69
 169 004a 2846     		mov	r0, r5
 170 004c FFF7FEFF 		bl	_mmcsd_get_slice
 171              	.LVL25:
ARM GAS  /tmp/ccESzJ2O.s 			page 4


 172 0050 0130     		adds	r0, r0, #1
 173 0052 8002     		lsls	r0, r0, #10
 174 0054 70BD     		pop	{r4, r5, r6, pc}
 175              		.cfi_endproc
 176              	.LFE324:
 177              		.size	_mmcsd_get_capacity, .-_mmcsd_get_capacity
 178              		.section	.text._mmcsd_get_capacity_ext,"ax",%progbits
 179              		.align	1
 180              		.global	_mmcsd_get_capacity_ext
 181              		.syntax unified
 182              		.thumb
 183              		.thumb_func
 184              		.fpu fpv4-sp-d16
 185              		.type	_mmcsd_get_capacity_ext, %function
 186              	_mmcsd_get_capacity_ext:
 187              	.LFB325:
 188              		.loc 1 125 0
 189              		.cfi_startproc
 190              		@ args = 0, pretend = 0, frame = 0
 191              		@ frame_needed = 0, uses_anonymous_args = 0
 192              		@ link register save eliminated.
 193              	.LVL26:
 194              		.loc 1 130 0
 195 0000 90F8D630 		ldrb	r3, [r0, #214]	@ zero_extendqisi2
 196              		.loc 1 129 0
 197 0004 90F8D720 		ldrb	r2, [r0, #215]	@ zero_extendqisi2
 198              		.loc 1 130 0
 199 0008 1B04     		lsls	r3, r3, #16
 200              		.loc 1 129 0
 201 000a 03EB0263 		add	r3, r3, r2, lsl #24
 202              		.loc 1 132 0
 203 000e 90F8D420 		ldrb	r2, [r0, #212]	@ zero_extendqisi2
 204              		.loc 1 131 0
 205 0012 90F8D500 		ldrb	r0, [r0, #213]	@ zero_extendqisi2
 206              	.LVL27:
 207 0016 1344     		add	r3, r3, r2
 208              		.loc 1 133 0
 209 0018 03EB0020 		add	r0, r3, r0, lsl #8
 210 001c 7047     		bx	lr
 211              		.cfi_endproc
 212              	.LFE325:
 213              		.size	_mmcsd_get_capacity_ext, .-_mmcsd_get_capacity_ext
 214              		.section	.text._mmcsd_unpack_sdc_cid,"ax",%progbits
 215              		.align	1
 216              		.global	_mmcsd_unpack_sdc_cid
 217              		.syntax unified
 218              		.thumb
 219              		.thumb_func
 220              		.fpu fpv4-sp-d16
 221              		.type	_mmcsd_unpack_sdc_cid, %function
 222              	_mmcsd_unpack_sdc_cid:
 223              	.LFB326:
 224              		.loc 1 144 0
 225              		.cfi_startproc
 226              		@ args = 0, pretend = 0, frame = 0
 227              		@ frame_needed = 0, uses_anonymous_args = 0
 228              	.LVL28:
ARM GAS  /tmp/ccESzJ2O.s 			page 5


 229 0000 38B5     		push	{r3, r4, r5, lr}
 230              		.cfi_def_cfa_offset 16
 231              		.cfi_offset 3, -16
 232              		.cfi_offset 4, -12
 233              		.cfi_offset 5, -8
 234              		.cfi_offset 14, -4
 235              		.loc 1 149 0
 236 0002 00F10805 		add	r5, r0, #8
 237              	.LVL29:
 238              		.loc 1 144 0
 239 0006 0C46     		mov	r4, r1
 240              		.loc 1 150 0
 241 0008 0122     		movs	r2, #1
 242 000a 0721     		movs	r1, #7
 243              	.LVL30:
 244 000c 2846     		mov	r0, r5
 245              	.LVL31:
 246 000e FFF7FEFF 		bl	_mmcsd_get_slice
 247              	.LVL32:
 248              		.loc 1 151 0
 249 0012 0C22     		movs	r2, #12
 250              		.loc 1 150 0
 251 0014 2075     		strb	r0, [r4, #20]
 252              		.loc 1 151 0
 253 0016 1321     		movs	r1, #19
 254 0018 2846     		mov	r0, r5
 255 001a FFF7FEFF 		bl	_mmcsd_get_slice
 256              	.LVL33:
 257 001e 00F5FA60 		add	r0, r0, #2000
 258 0022 6082     		strh	r0, [r4, #18]	@ movhi
 259              		.loc 1 153 0
 260 0024 0822     		movs	r2, #8
 261 0026 0B21     		movs	r1, #11
 262 0028 2846     		mov	r0, r5
 263 002a FFF7FEFF 		bl	_mmcsd_get_slice
 264              	.LVL34:
 265              		.loc 1 154 0
 266 002e 7822     		movs	r2, #120
 267              		.loc 1 153 0
 268 0030 2074     		strb	r0, [r4, #16]
 269              		.loc 1 154 0
 270 0032 7F21     		movs	r1, #127
 271 0034 2846     		mov	r0, r5
 272 0036 FFF7FEFF 		bl	_mmcsd_get_slice
 273              	.LVL35:
 274              		.loc 1 155 0
 275 003a 6822     		movs	r2, #104
 276              		.loc 1 154 0
 277 003c 2070     		strb	r0, [r4]
 278              		.loc 1 155 0
 279 003e 7721     		movs	r1, #119
 280 0040 2846     		mov	r0, r5
 281 0042 FFF7FEFF 		bl	_mmcsd_get_slice
 282              	.LVL36:
 283              		.loc 1 156 0
 284 0046 4022     		movs	r2, #64
 285              		.loc 1 155 0
ARM GAS  /tmp/ccESzJ2O.s 			page 6


 286 0048 6080     		strh	r0, [r4, #2]	@ movhi
 287              		.loc 1 156 0
 288 004a 4721     		movs	r1, #71
 289 004c 2846     		mov	r0, r5
 290 004e FFF7FEFF 		bl	_mmcsd_get_slice
 291              	.LVL37:
 292              		.loc 1 157 0
 293 0052 4822     		movs	r2, #72
 294              		.loc 1 156 0
 295 0054 2072     		strb	r0, [r4, #8]
 296              		.loc 1 157 0
 297 0056 4F21     		movs	r1, #79
 298 0058 2846     		mov	r0, r5
 299 005a FFF7FEFF 		bl	_mmcsd_get_slice
 300              	.LVL38:
 301              		.loc 1 158 0
 302 005e 5022     		movs	r2, #80
 303              		.loc 1 157 0
 304 0060 E071     		strb	r0, [r4, #7]
 305              		.loc 1 158 0
 306 0062 5721     		movs	r1, #87
 307 0064 2846     		mov	r0, r5
 308 0066 FFF7FEFF 		bl	_mmcsd_get_slice
 309              	.LVL39:
 310              		.loc 1 159 0
 311 006a 5822     		movs	r2, #88
 312              		.loc 1 158 0
 313 006c A071     		strb	r0, [r4, #6]
 314              		.loc 1 159 0
 315 006e 5F21     		movs	r1, #95
 316 0070 2846     		mov	r0, r5
 317 0072 FFF7FEFF 		bl	_mmcsd_get_slice
 318              	.LVL40:
 319              		.loc 1 160 0
 320 0076 6022     		movs	r2, #96
 321              		.loc 1 159 0
 322 0078 6071     		strb	r0, [r4, #5]
 323              		.loc 1 160 0
 324 007a 6721     		movs	r1, #103
 325 007c 2846     		mov	r0, r5
 326 007e FFF7FEFF 		bl	_mmcsd_get_slice
 327              	.LVL41:
 328              		.loc 1 161 0
 329 0082 3C22     		movs	r2, #60
 330              		.loc 1 160 0
 331 0084 2071     		strb	r0, [r4, #4]
 332              		.loc 1 161 0
 333 0086 3F21     		movs	r1, #63
 334 0088 2846     		mov	r0, r5
 335 008a FFF7FEFF 		bl	_mmcsd_get_slice
 336              	.LVL42:
 337              		.loc 1 162 0
 338 008e 3822     		movs	r2, #56
 339              		.loc 1 161 0
 340 0090 6072     		strb	r0, [r4, #9]
 341              		.loc 1 162 0
 342 0092 3B21     		movs	r1, #59
ARM GAS  /tmp/ccESzJ2O.s 			page 7


 343 0094 2846     		mov	r0, r5
 344 0096 FFF7FEFF 		bl	_mmcsd_get_slice
 345              	.LVL43:
 346              		.loc 1 163 0
 347 009a 1822     		movs	r2, #24
 348              		.loc 1 162 0
 349 009c A072     		strb	r0, [r4, #10]
 350              		.loc 1 163 0
 351 009e 3721     		movs	r1, #55
 352 00a0 2846     		mov	r0, r5
 353 00a2 FFF7FEFF 		bl	_mmcsd_get_slice
 354              	.LVL44:
 355 00a6 E060     		str	r0, [r4, #12]
 356 00a8 38BD     		pop	{r3, r4, r5, pc}
 357              		.cfi_endproc
 358              	.LFE326:
 359              		.size	_mmcsd_unpack_sdc_cid, .-_mmcsd_unpack_sdc_cid
 360              		.section	.text._mmcsd_unpack_mmc_cid,"ax",%progbits
 361              		.align	1
 362              		.global	_mmcsd_unpack_mmc_cid
 363              		.syntax unified
 364              		.thumb
 365              		.thumb_func
 366              		.fpu fpv4-sp-d16
 367              		.type	_mmcsd_unpack_mmc_cid, %function
 368              	_mmcsd_unpack_mmc_cid:
 369              	.LFB327:
 370              		.loc 1 175 0
 371              		.cfi_startproc
 372              		@ args = 0, pretend = 0, frame = 0
 373              		@ frame_needed = 0, uses_anonymous_args = 0
 374              	.LVL45:
 375 0000 38B5     		push	{r3, r4, r5, lr}
 376              		.cfi_def_cfa_offset 16
 377              		.cfi_offset 3, -16
 378              		.cfi_offset 4, -12
 379              		.cfi_offset 5, -8
 380              		.cfi_offset 14, -4
 381              		.loc 1 180 0
 382 0002 00F10805 		add	r5, r0, #8
 383              	.LVL46:
 384              		.loc 1 175 0
 385 0006 0C46     		mov	r4, r1
 386              		.loc 1 181 0
 387 0008 0122     		movs	r2, #1
 388 000a 0721     		movs	r1, #7
 389              	.LVL47:
 390 000c 2846     		mov	r0, r5
 391              	.LVL48:
 392 000e FFF7FEFF 		bl	_mmcsd_get_slice
 393              	.LVL49:
 394              		.loc 1 182 0
 395 0012 0822     		movs	r2, #8
 396              		.loc 1 181 0
 397 0014 2075     		strb	r0, [r4, #20]
 398              		.loc 1 182 0
 399 0016 0B21     		movs	r1, #11
ARM GAS  /tmp/ccESzJ2O.s 			page 8


 400 0018 2846     		mov	r0, r5
 401 001a FFF7FEFF 		bl	_mmcsd_get_slice
 402              	.LVL50:
 403 001e 00F2CD70 		addw	r0, r0, #1997
 404 0022 6082     		strh	r0, [r4, #18]	@ movhi
 405              		.loc 1 184 0
 406 0024 0C22     		movs	r2, #12
 407 0026 0F21     		movs	r1, #15
 408 0028 2846     		mov	r0, r5
 409 002a FFF7FEFF 		bl	_mmcsd_get_slice
 410              	.LVL51:
 411              		.loc 1 185 0
 412 002e 7822     		movs	r2, #120
 413              		.loc 1 184 0
 414 0030 2074     		strb	r0, [r4, #16]
 415              		.loc 1 185 0
 416 0032 7F21     		movs	r1, #127
 417 0034 2846     		mov	r0, r5
 418 0036 FFF7FEFF 		bl	_mmcsd_get_slice
 419              	.LVL52:
 420              		.loc 1 186 0
 421 003a 6822     		movs	r2, #104
 422              		.loc 1 185 0
 423 003c 2070     		strb	r0, [r4]
 424              		.loc 1 186 0
 425 003e 7721     		movs	r1, #119
 426 0040 2846     		mov	r0, r5
 427 0042 FFF7FEFF 		bl	_mmcsd_get_slice
 428              	.LVL53:
 429              		.loc 1 187 0
 430 0046 3822     		movs	r2, #56
 431              		.loc 1 186 0
 432 0048 6080     		strh	r0, [r4, #2]	@ movhi
 433              		.loc 1 187 0
 434 004a 3F21     		movs	r1, #63
 435 004c 2846     		mov	r0, r5
 436 004e FFF7FEFF 		bl	_mmcsd_get_slice
 437              	.LVL54:
 438              		.loc 1 188 0
 439 0052 4022     		movs	r2, #64
 440              		.loc 1 187 0
 441 0054 6072     		strb	r0, [r4, #9]
 442              		.loc 1 188 0
 443 0056 4721     		movs	r1, #71
 444 0058 2846     		mov	r0, r5
 445 005a FFF7FEFF 		bl	_mmcsd_get_slice
 446              	.LVL55:
 447              		.loc 1 189 0
 448 005e 4822     		movs	r2, #72
 449              		.loc 1 188 0
 450 0060 2072     		strb	r0, [r4, #8]
 451              		.loc 1 189 0
 452 0062 4F21     		movs	r1, #79
 453 0064 2846     		mov	r0, r5
 454 0066 FFF7FEFF 		bl	_mmcsd_get_slice
 455              	.LVL56:
 456              		.loc 1 190 0
ARM GAS  /tmp/ccESzJ2O.s 			page 9


 457 006a 5022     		movs	r2, #80
 458              		.loc 1 189 0
 459 006c E071     		strb	r0, [r4, #7]
 460              		.loc 1 190 0
 461 006e 5721     		movs	r1, #87
 462 0070 2846     		mov	r0, r5
 463 0072 FFF7FEFF 		bl	_mmcsd_get_slice
 464              	.LVL57:
 465              		.loc 1 191 0
 466 0076 5822     		movs	r2, #88
 467              		.loc 1 190 0
 468 0078 A071     		strb	r0, [r4, #6]
 469              		.loc 1 191 0
 470 007a 5F21     		movs	r1, #95
 471 007c 2846     		mov	r0, r5
 472 007e FFF7FEFF 		bl	_mmcsd_get_slice
 473              	.LVL58:
 474              		.loc 1 192 0
 475 0082 6022     		movs	r2, #96
 476              		.loc 1 191 0
 477 0084 6071     		strb	r0, [r4, #5]
 478              		.loc 1 192 0
 479 0086 6721     		movs	r1, #103
 480 0088 2846     		mov	r0, r5
 481 008a FFF7FEFF 		bl	_mmcsd_get_slice
 482              	.LVL59:
 483              		.loc 1 193 0
 484 008e 3422     		movs	r2, #52
 485              		.loc 1 192 0
 486 0090 2071     		strb	r0, [r4, #4]
 487              		.loc 1 193 0
 488 0092 3721     		movs	r1, #55
 489 0094 2846     		mov	r0, r5
 490 0096 FFF7FEFF 		bl	_mmcsd_get_slice
 491              	.LVL60:
 492              		.loc 1 194 0
 493 009a 3022     		movs	r2, #48
 494              		.loc 1 193 0
 495 009c A072     		strb	r0, [r4, #10]
 496              		.loc 1 194 0
 497 009e 3321     		movs	r1, #51
 498 00a0 2846     		mov	r0, r5
 499 00a2 FFF7FEFF 		bl	_mmcsd_get_slice
 500              	.LVL61:
 501              		.loc 1 195 0
 502 00a6 1022     		movs	r2, #16
 503              		.loc 1 194 0
 504 00a8 E072     		strb	r0, [r4, #11]
 505              		.loc 1 195 0
 506 00aa 2F21     		movs	r1, #47
 507 00ac 2846     		mov	r0, r5
 508 00ae FFF7FEFF 		bl	_mmcsd_get_slice
 509              	.LVL62:
 510 00b2 E060     		str	r0, [r4, #12]
 511 00b4 38BD     		pop	{r3, r4, r5, pc}
 512              		.cfi_endproc
 513              	.LFE327:
ARM GAS  /tmp/ccESzJ2O.s 			page 10


 514              		.size	_mmcsd_unpack_mmc_cid, .-_mmcsd_unpack_mmc_cid
 515              		.section	.text._mmcsd_unpack_csd_mmc,"ax",%progbits
 516              		.align	1
 517              		.global	_mmcsd_unpack_csd_mmc
 518              		.syntax unified
 519              		.thumb
 520              		.thumb_func
 521              		.fpu fpv4-sp-d16
 522              		.type	_mmcsd_unpack_csd_mmc, %function
 523              	_mmcsd_unpack_csd_mmc:
 524              	.LFB328:
 525              		.loc 1 207 0
 526              		.cfi_startproc
 527              		@ args = 0, pretend = 0, frame = 0
 528              		@ frame_needed = 0, uses_anonymous_args = 0
 529              	.LVL63:
 530 0000 38B5     		push	{r3, r4, r5, lr}
 531              		.cfi_def_cfa_offset 16
 532              		.cfi_offset 3, -16
 533              		.cfi_offset 4, -12
 534              		.cfi_offset 5, -8
 535              		.cfi_offset 14, -4
 536              		.loc 1 212 0
 537 0002 00F11805 		add	r5, r0, #24
 538              	.LVL64:
 539              		.loc 1 207 0
 540 0006 0C46     		mov	r4, r1
 541              		.loc 1 213 0
 542 0008 3E22     		movs	r2, #62
 543 000a 4921     		movs	r1, #73
 544              	.LVL65:
 545 000c 2846     		mov	r0, r5
 546              	.LVL66:
 547 000e FFF7FEFF 		bl	_mmcsd_get_slice
 548              	.LVL67:
 549              		.loc 1 214 0
 550 0012 2F22     		movs	r2, #47
 551              		.loc 1 213 0
 552 0014 E081     		strh	r0, [r4, #14]	@ movhi
 553              		.loc 1 214 0
 554 0016 3121     		movs	r1, #49
 555 0018 2846     		mov	r0, r5
 556 001a FFF7FEFF 		bl	_mmcsd_get_slice
 557              	.LVL68:
 558              		.loc 1 215 0
 559 001e 5422     		movs	r2, #84
 560              		.loc 1 214 0
 561 0020 2075     		strb	r0, [r4, #20]
 562              		.loc 1 215 0
 563 0022 5F21     		movs	r1, #95
 564 0024 2846     		mov	r0, r5
 565 0026 FFF7FEFF 		bl	_mmcsd_get_slice
 566              	.LVL69:
 567              		.loc 1 216 0
 568 002a 0E22     		movs	r2, #14
 569 002c 1146     		mov	r1, r2
 570              		.loc 1 215 0
ARM GAS  /tmp/ccESzJ2O.s 			page 11


 571 002e E080     		strh	r0, [r4, #6]	@ movhi
 572              		.loc 1 216 0
 573 0030 2846     		mov	r0, r5
 574 0032 FFF7FEFF 		bl	_mmcsd_get_slice
 575              	.LVL70:
 576              		.loc 1 217 0
 577 0036 0122     		movs	r2, #1
 578              		.loc 1 216 0
 579 0038 E077     		strb	r0, [r4, #31]
 580              		.loc 1 217 0
 581 003a 0721     		movs	r1, #7
 582 003c 2846     		mov	r0, r5
 583 003e FFF7FEFF 		bl	_mmcsd_get_slice
 584              	.LVL71:
 585              		.loc 1 218 0
 586 0042 7E22     		movs	r2, #126
 587              		.loc 1 217 0
 588 0044 84F82400 		strb	r0, [r4, #36]
 589              		.loc 1 218 0
 590 0048 7F21     		movs	r1, #127
 591 004a 2846     		mov	r0, r5
 592 004c FFF7FEFF 		bl	_mmcsd_get_slice
 593              	.LVL72:
 594              		.loc 1 219 0
 595 0050 4C22     		movs	r2, #76
 596 0052 1146     		mov	r1, r2
 597              		.loc 1 218 0
 598 0054 2070     		strb	r0, [r4]
 599              		.loc 1 219 0
 600 0056 2846     		mov	r0, r5
 601 0058 FFF7FEFF 		bl	_mmcsd_get_slice
 602              	.LVL73:
 603              		.loc 1 220 0
 604 005c 0822     		movs	r2, #8
 605              		.loc 1 219 0
 606 005e 2073     		strb	r0, [r4, #12]
 607              		.loc 1 220 0
 608 0060 0921     		movs	r1, #9
 609 0062 2846     		mov	r0, r5
 610 0064 FFF7FEFF 		bl	_mmcsd_get_slice
 611              	.LVL74:
 612              		.loc 1 221 0
 613 0068 2522     		movs	r2, #37
 614              		.loc 1 220 0
 615 006a 84F82300 		strb	r0, [r4, #35]
 616              		.loc 1 221 0
 617 006e 2921     		movs	r1, #41
 618 0070 2846     		mov	r0, r5
 619 0072 FFF7FEFF 		bl	_mmcsd_get_slice
 620              	.LVL75:
 621              		.loc 1 222 0
 622 0076 2A22     		movs	r2, #42
 623              		.loc 1 221 0
 624 0078 A075     		strb	r0, [r4, #22]
 625              		.loc 1 222 0
 626 007a 2E21     		movs	r1, #46
 627 007c 2846     		mov	r0, r5
ARM GAS  /tmp/ccESzJ2O.s 			page 12


 628 007e FFF7FEFF 		bl	_mmcsd_get_slice
 629              	.LVL76:
 630              		.loc 1 223 0
 631 0082 0A22     		movs	r2, #10
 632              		.loc 1 222 0
 633 0084 6075     		strb	r0, [r4, #21]
 634              		.loc 1 223 0
 635 0086 0B21     		movs	r1, #11
 636 0088 2846     		mov	r0, r5
 637 008a FFF7FEFF 		bl	_mmcsd_get_slice
 638              	.LVL77:
 639              		.loc 1 224 0
 640 008e 0F22     		movs	r2, #15
 641 0090 1146     		mov	r1, r2
 642              		.loc 1 223 0
 643 0092 84F82200 		strb	r0, [r4, #34]
 644              		.loc 1 224 0
 645 0096 2846     		mov	r0, r5
 646 0098 FFF7FEFF 		bl	_mmcsd_get_slice
 647              	.LVL78:
 648              		.loc 1 225 0
 649 009c 6822     		movs	r2, #104
 650              		.loc 1 224 0
 651 009e A077     		strb	r0, [r4, #30]
 652              		.loc 1 225 0
 653 00a0 6F21     		movs	r1, #111
 654 00a2 2846     		mov	r0, r5
 655 00a4 FFF7FEFF 		bl	_mmcsd_get_slice
 656              	.LVL79:
 657              		.loc 1 226 0
 658 00a8 0D22     		movs	r2, #13
 659 00aa 1146     		mov	r1, r2
 660              		.loc 1 225 0
 661 00ac E070     		strb	r0, [r4, #3]
 662              		.loc 1 226 0
 663 00ae 2846     		mov	r0, r5
 664 00b0 FFF7FEFF 		bl	_mmcsd_get_slice
 665              	.LVL80:
 666              		.loc 1 227 0
 667 00b4 1A22     		movs	r2, #26
 668              		.loc 1 226 0
 669 00b6 84F82000 		strb	r0, [r4, #32]
 670              		.loc 1 227 0
 671 00ba 1C21     		movs	r1, #28
 672 00bc 2846     		mov	r0, r5
 673 00be FFF7FEFF 		bl	_mmcsd_get_slice
 674              	.LVL81:
 675              		.loc 1 228 0
 676 00c2 5022     		movs	r2, #80
 677              		.loc 1 227 0
 678 00c4 A076     		strb	r0, [r4, #26]
 679              		.loc 1 228 0
 680 00c6 5321     		movs	r1, #83
 681 00c8 2846     		mov	r0, r5
 682 00ca FFF7FEFF 		bl	_mmcsd_get_slice
 683              	.LVL82:
 684              		.loc 1 229 0
ARM GAS  /tmp/ccESzJ2O.s 			page 13


 685 00ce 4F22     		movs	r2, #79
 686 00d0 1146     		mov	r1, r2
 687              		.loc 1 228 0
 688 00d2 2072     		strb	r0, [r4, #8]
 689              		.loc 1 229 0
 690 00d4 2846     		mov	r0, r5
 691 00d6 FFF7FEFF 		bl	_mmcsd_get_slice
 692              	.LVL83:
 693              		.loc 1 230 0
 694 00da 4D22     		movs	r2, #77
 695 00dc 1146     		mov	r1, r2
 696              		.loc 1 229 0
 697 00de 6072     		strb	r0, [r4, #9]
 698              		.loc 1 230 0
 699 00e0 2846     		mov	r0, r5
 700 00e2 FFF7FEFF 		bl	_mmcsd_get_slice
 701              	.LVL84:
 702              		.loc 1 231 0
 703 00e6 7A22     		movs	r2, #122
 704              		.loc 1 230 0
 705 00e8 E072     		strb	r0, [r4, #11]
 706              		.loc 1 231 0
 707 00ea 7D21     		movs	r1, #125
 708 00ec 2846     		mov	r0, r5
 709 00ee FFF7FEFF 		bl	_mmcsd_get_slice
 710              	.LVL85:
 711              		.loc 1 232 0
 712 00f2 7022     		movs	r2, #112
 713              		.loc 1 231 0
 714 00f4 6070     		strb	r0, [r4, #1]
 715              		.loc 1 232 0
 716 00f6 7721     		movs	r1, #119
 717 00f8 2846     		mov	r0, r5
 718 00fa FFF7FEFF 		bl	_mmcsd_get_slice
 719              	.LVL86:
 720              		.loc 1 233 0
 721 00fe 0C22     		movs	r2, #12
 722 0100 1146     		mov	r1, r2
 723              		.loc 1 232 0
 724 0102 A070     		strb	r0, [r4, #2]
 725              		.loc 1 233 0
 726 0104 2846     		mov	r0, r5
 727 0106 FFF7FEFF 		bl	_mmcsd_get_slice
 728              	.LVL87:
 729              		.loc 1 234 0
 730 010a 6022     		movs	r2, #96
 731              		.loc 1 233 0
 732 010c 84F82100 		strb	r0, [r4, #33]
 733              		.loc 1 234 0
 734 0110 6721     		movs	r1, #103
 735 0112 2846     		mov	r0, r5
 736 0114 FFF7FEFF 		bl	_mmcsd_get_slice
 737              	.LVL88:
 738              		.loc 1 235 0
 739 0118 3822     		movs	r2, #56
 740              		.loc 1 234 0
 741 011a 2071     		strb	r0, [r4, #4]
ARM GAS  /tmp/ccESzJ2O.s 			page 14


 742              		.loc 1 235 0
 743 011c 3A21     		movs	r1, #58
 744 011e 2846     		mov	r0, r5
 745 0120 FFF7FEFF 		bl	_mmcsd_get_slice
 746              	.LVL89:
 747              		.loc 1 236 0
 748 0124 3B22     		movs	r2, #59
 749              		.loc 1 235 0
 750 0126 6074     		strb	r0, [r4, #17]
 751              		.loc 1 236 0
 752 0128 3D21     		movs	r1, #61
 753 012a 2846     		mov	r0, r5
 754 012c FFF7FEFF 		bl	_mmcsd_get_slice
 755              	.LVL90:
 756              		.loc 1 237 0
 757 0130 3222     		movs	r2, #50
 758              		.loc 1 236 0
 759 0132 2074     		strb	r0, [r4, #16]
 760              		.loc 1 237 0
 761 0134 3421     		movs	r1, #52
 762 0136 2846     		mov	r0, r5
 763 0138 FFF7FEFF 		bl	_mmcsd_get_slice
 764              	.LVL91:
 765              		.loc 1 238 0
 766 013c 3522     		movs	r2, #53
 767              		.loc 1 237 0
 768 013e E074     		strb	r0, [r4, #19]
 769              		.loc 1 238 0
 770 0140 3721     		movs	r1, #55
 771 0142 2846     		mov	r0, r5
 772 0144 FFF7FEFF 		bl	_mmcsd_get_slice
 773              	.LVL92:
 774              		.loc 1 239 0
 775 0148 1F22     		movs	r2, #31
 776 014a 1146     		mov	r1, r2
 777              		.loc 1 238 0
 778 014c A074     		strb	r0, [r4, #18]
 779              		.loc 1 239 0
 780 014e 2846     		mov	r0, r5
 781 0150 FFF7FEFF 		bl	_mmcsd_get_slice
 782              	.LVL93:
 783              		.loc 1 240 0
 784 0154 2022     		movs	r2, #32
 785              		.loc 1 239 0
 786 0156 2076     		strb	r0, [r4, #24]
 787              		.loc 1 240 0
 788 0158 2421     		movs	r1, #36
 789 015a 2846     		mov	r0, r5
 790 015c FFF7FEFF 		bl	_mmcsd_get_slice
 791              	.LVL94:
 792              		.loc 1 241 0
 793 0160 1622     		movs	r2, #22
 794              		.loc 1 240 0
 795 0162 E075     		strb	r0, [r4, #23]
 796              		.loc 1 241 0
 797 0164 1921     		movs	r1, #25
 798 0166 2846     		mov	r0, r5
ARM GAS  /tmp/ccESzJ2O.s 			page 15


 799 0168 FFF7FEFF 		bl	_mmcsd_get_slice
 800              	.LVL95:
 801              		.loc 1 242 0
 802 016c 1522     		movs	r2, #21
 803 016e 1146     		mov	r1, r2
 804              		.loc 1 241 0
 805 0170 E076     		strb	r0, [r4, #27]
 806              		.loc 1 242 0
 807 0172 2846     		mov	r0, r5
 808 0174 FFF7FEFF 		bl	_mmcsd_get_slice
 809              	.LVL96:
 810              		.loc 1 243 0
 811 0178 4E22     		movs	r2, #78
 812              		.loc 1 242 0
 813 017a 2077     		strb	r0, [r4, #28]
 814              		.loc 1 243 0
 815 017c 1146     		mov	r1, r2
 816 017e 2846     		mov	r0, r5
 817 0180 FFF7FEFF 		bl	_mmcsd_get_slice
 818              	.LVL97:
 819 0184 A072     		strb	r0, [r4, #10]
 820 0186 38BD     		pop	{r3, r4, r5, pc}
 821              		.cfi_endproc
 822              	.LFE328:
 823              		.size	_mmcsd_unpack_csd_mmc, .-_mmcsd_unpack_csd_mmc
 824              		.section	.text._mmcsd_unpack_csd_v10,"ax",%progbits
 825              		.align	1
 826              		.global	_mmcsd_unpack_csd_v10
 827              		.syntax unified
 828              		.thumb
 829              		.thumb_func
 830              		.fpu fpv4-sp-d16
 831              		.type	_mmcsd_unpack_csd_v10, %function
 832              	_mmcsd_unpack_csd_v10:
 833              	.LFB329:
 834              		.loc 1 255 0
 835              		.cfi_startproc
 836              		@ args = 0, pretend = 0, frame = 0
 837              		@ frame_needed = 0, uses_anonymous_args = 0
 838              	.LVL98:
 839 0000 38B5     		push	{r3, r4, r5, lr}
 840              		.cfi_def_cfa_offset 16
 841              		.cfi_offset 3, -16
 842              		.cfi_offset 4, -12
 843              		.cfi_offset 5, -8
 844              		.cfi_offset 14, -4
 845              		.loc 1 260 0
 846 0002 00F11805 		add	r5, r0, #24
 847              	.LVL99:
 848              		.loc 1 255 0
 849 0006 0C46     		mov	r4, r1
 850              		.loc 1 261 0
 851 0008 3E22     		movs	r2, #62
 852 000a 4921     		movs	r1, #73
 853              	.LVL100:
 854 000c 2846     		mov	r0, r5
 855              	.LVL101:
ARM GAS  /tmp/ccESzJ2O.s 			page 16


 856 000e FFF7FEFF 		bl	_mmcsd_get_slice
 857              	.LVL102:
 858              		.loc 1 262 0
 859 0012 2F22     		movs	r2, #47
 860              		.loc 1 261 0
 861 0014 A081     		strh	r0, [r4, #12]	@ movhi
 862              		.loc 1 262 0
 863 0016 3121     		movs	r1, #49
 864 0018 2846     		mov	r0, r5
 865 001a FFF7FEFF 		bl	_mmcsd_get_slice
 866              	.LVL103:
 867              		.loc 1 263 0
 868 001e 5422     		movs	r2, #84
 869              		.loc 1 262 0
 870 0020 A074     		strb	r0, [r4, #18]
 871              		.loc 1 263 0
 872 0022 5F21     		movs	r1, #95
 873 0024 2846     		mov	r0, r5
 874 0026 FFF7FEFF 		bl	_mmcsd_get_slice
 875              	.LVL104:
 876              		.loc 1 264 0
 877 002a 0E22     		movs	r2, #14
 878 002c 1146     		mov	r1, r2
 879              		.loc 1 263 0
 880 002e A080     		strh	r0, [r4, #4]	@ movhi
 881              		.loc 1 264 0
 882 0030 2846     		mov	r0, r5
 883 0032 FFF7FEFF 		bl	_mmcsd_get_slice
 884              	.LVL105:
 885              		.loc 1 265 0
 886 0036 0122     		movs	r2, #1
 887              		.loc 1 264 0
 888 0038 E076     		strb	r0, [r4, #27]
 889              		.loc 1 265 0
 890 003a 0721     		movs	r1, #7
 891 003c 2846     		mov	r0, r5
 892 003e FFF7FEFF 		bl	_mmcsd_get_slice
 893              	.LVL106:
 894              		.loc 1 266 0
 895 0042 7E22     		movs	r2, #126
 896              		.loc 1 265 0
 897 0044 E077     		strb	r0, [r4, #31]
 898              		.loc 1 266 0
 899 0046 7F21     		movs	r1, #127
 900 0048 2846     		mov	r0, r5
 901 004a FFF7FEFF 		bl	_mmcsd_get_slice
 902              	.LVL107:
 903              		.loc 1 267 0
 904 004e 4C22     		movs	r2, #76
 905 0050 1146     		mov	r1, r2
 906              		.loc 1 266 0
 907 0052 2070     		strb	r0, [r4]
 908              		.loc 1 267 0
 909 0054 2846     		mov	r0, r5
 910 0056 FFF7FEFF 		bl	_mmcsd_get_slice
 911              	.LVL108:
 912              		.loc 1 268 0
ARM GAS  /tmp/ccESzJ2O.s 			page 17


 913 005a 2E22     		movs	r2, #46
 914 005c 1146     		mov	r1, r2
 915              		.loc 1 267 0
 916 005e A072     		strb	r0, [r4, #10]
 917              		.loc 1 268 0
 918 0060 2846     		mov	r0, r5
 919 0062 FFF7FEFF 		bl	_mmcsd_get_slice
 920              	.LVL109:
 921              		.loc 1 269 0
 922 0066 2722     		movs	r2, #39
 923              		.loc 1 268 0
 924 0068 E074     		strb	r0, [r4, #19]
 925              		.loc 1 269 0
 926 006a 2D21     		movs	r1, #45
 927 006c 2846     		mov	r0, r5
 928 006e FFF7FEFF 		bl	_mmcsd_get_slice
 929              	.LVL110:
 930              		.loc 1 270 0
 931 0072 0A22     		movs	r2, #10
 932              		.loc 1 269 0
 933 0074 2075     		strb	r0, [r4, #20]
 934              		.loc 1 270 0
 935 0076 0B21     		movs	r1, #11
 936 0078 2846     		mov	r0, r5
 937 007a FFF7FEFF 		bl	_mmcsd_get_slice
 938              	.LVL111:
 939              		.loc 1 271 0
 940 007e 0F22     		movs	r2, #15
 941 0080 1146     		mov	r1, r2
 942              		.loc 1 270 0
 943 0082 A077     		strb	r0, [r4, #30]
 944              		.loc 1 271 0
 945 0084 2846     		mov	r0, r5
 946 0086 FFF7FEFF 		bl	_mmcsd_get_slice
 947              	.LVL112:
 948              		.loc 1 272 0
 949 008a 6822     		movs	r2, #104
 950              		.loc 1 271 0
 951 008c A076     		strb	r0, [r4, #26]
 952              		.loc 1 272 0
 953 008e 6F21     		movs	r1, #111
 954 0090 2846     		mov	r0, r5
 955 0092 FFF7FEFF 		bl	_mmcsd_get_slice
 956              	.LVL113:
 957              		.loc 1 273 0
 958 0096 0D22     		movs	r2, #13
 959 0098 1146     		mov	r1, r2
 960              		.loc 1 272 0
 961 009a A070     		strb	r0, [r4, #2]
 962              		.loc 1 273 0
 963 009c 2846     		mov	r0, r5
 964 009e FFF7FEFF 		bl	_mmcsd_get_slice
 965              	.LVL114:
 966              		.loc 1 274 0
 967 00a2 1A22     		movs	r2, #26
 968              		.loc 1 273 0
 969 00a4 2077     		strb	r0, [r4, #28]
ARM GAS  /tmp/ccESzJ2O.s 			page 18


 970              		.loc 1 274 0
 971 00a6 1C21     		movs	r1, #28
 972 00a8 2846     		mov	r0, r5
 973 00aa FFF7FEFF 		bl	_mmcsd_get_slice
 974              	.LVL115:
 975              		.loc 1 275 0
 976 00ae 5022     		movs	r2, #80
 977              		.loc 1 274 0
 978 00b0 E075     		strb	r0, [r4, #23]
 979              		.loc 1 275 0
 980 00b2 5321     		movs	r1, #83
 981 00b4 2846     		mov	r0, r5
 982 00b6 FFF7FEFF 		bl	_mmcsd_get_slice
 983              	.LVL116:
 984              		.loc 1 276 0
 985 00ba 4F22     		movs	r2, #79
 986 00bc 1146     		mov	r1, r2
 987              		.loc 1 275 0
 988 00be A071     		strb	r0, [r4, #6]
 989              		.loc 1 276 0
 990 00c0 2846     		mov	r0, r5
 991 00c2 FFF7FEFF 		bl	_mmcsd_get_slice
 992              	.LVL117:
 993              		.loc 1 277 0
 994 00c6 4D22     		movs	r2, #77
 995 00c8 1146     		mov	r1, r2
 996              		.loc 1 276 0
 997 00ca E071     		strb	r0, [r4, #7]
 998              		.loc 1 277 0
 999 00cc 2846     		mov	r0, r5
 1000 00ce FFF7FEFF 		bl	_mmcsd_get_slice
 1001              	.LVL118:
 1002              		.loc 1 278 0
 1003 00d2 7022     		movs	r2, #112
 1004              		.loc 1 277 0
 1005 00d4 6072     		strb	r0, [r4, #9]
 1006              		.loc 1 278 0
 1007 00d6 7721     		movs	r1, #119
 1008 00d8 2846     		mov	r0, r5
 1009 00da FFF7FEFF 		bl	_mmcsd_get_slice
 1010              	.LVL119:
 1011              		.loc 1 279 0
 1012 00de 0C22     		movs	r2, #12
 1013 00e0 1146     		mov	r1, r2
 1014              		.loc 1 278 0
 1015 00e2 6070     		strb	r0, [r4, #1]
 1016              		.loc 1 279 0
 1017 00e4 2846     		mov	r0, r5
 1018 00e6 FFF7FEFF 		bl	_mmcsd_get_slice
 1019              	.LVL120:
 1020              		.loc 1 280 0
 1021 00ea 6022     		movs	r2, #96
 1022              		.loc 1 279 0
 1023 00ec 6077     		strb	r0, [r4, #29]
 1024              		.loc 1 280 0
 1025 00ee 6721     		movs	r1, #103
 1026 00f0 2846     		mov	r0, r5
ARM GAS  /tmp/ccESzJ2O.s 			page 19


 1027 00f2 FFF7FEFF 		bl	_mmcsd_get_slice
 1028              	.LVL121:
 1029              		.loc 1 281 0
 1030 00f6 1F22     		movs	r2, #31
 1031 00f8 1146     		mov	r1, r2
 1032              		.loc 1 280 0
 1033 00fa E070     		strb	r0, [r4, #3]
 1034              		.loc 1 281 0
 1035 00fc 2846     		mov	r0, r5
 1036 00fe FFF7FEFF 		bl	_mmcsd_get_slice
 1037              	.LVL122:
 1038              		.loc 1 282 0
 1039 0102 2022     		movs	r2, #32
 1040              		.loc 1 281 0
 1041 0104 A075     		strb	r0, [r4, #22]
 1042              		.loc 1 282 0
 1043 0106 2621     		movs	r1, #38
 1044 0108 2846     		mov	r0, r5
 1045 010a FFF7FEFF 		bl	_mmcsd_get_slice
 1046              	.LVL123:
 1047              		.loc 1 283 0
 1048 010e 0C22     		movs	r2, #12
 1049              		.loc 1 282 0
 1050 0110 6075     		strb	r0, [r4, #21]
 1051              		.loc 1 283 0
 1052 0112 1921     		movs	r1, #25
 1053 0114 2846     		mov	r0, r5
 1054 0116 FFF7FEFF 		bl	_mmcsd_get_slice
 1055              	.LVL124:
 1056              		.loc 1 284 0
 1057 011a 1522     		movs	r2, #21
 1058 011c 1146     		mov	r1, r2
 1059              		.loc 1 283 0
 1060 011e 2076     		strb	r0, [r4, #24]
 1061              		.loc 1 284 0
 1062 0120 2846     		mov	r0, r5
 1063 0122 FFF7FEFF 		bl	_mmcsd_get_slice
 1064              	.LVL125:
 1065              		.loc 1 285 0
 1066 0126 4E22     		movs	r2, #78
 1067              		.loc 1 284 0
 1068 0128 6076     		strb	r0, [r4, #25]
 1069              		.loc 1 285 0
 1070 012a 1146     		mov	r1, r2
 1071 012c 2846     		mov	r0, r5
 1072 012e FFF7FEFF 		bl	_mmcsd_get_slice
 1073              	.LVL126:
 1074 0132 2072     		strb	r0, [r4, #8]
 1075 0134 38BD     		pop	{r3, r4, r5, pc}
 1076              		.cfi_endproc
 1077              	.LFE329:
 1078              		.size	_mmcsd_unpack_csd_v10, .-_mmcsd_unpack_csd_v10
 1079              		.section	.text._mmcsd_unpack_csd_v20,"ax",%progbits
 1080              		.align	1
 1081              		.global	_mmcsd_unpack_csd_v20
 1082              		.syntax unified
 1083              		.thumb
ARM GAS  /tmp/ccESzJ2O.s 			page 20


 1084              		.thumb_func
 1085              		.fpu fpv4-sp-d16
 1086              		.type	_mmcsd_unpack_csd_v20, %function
 1087              	_mmcsd_unpack_csd_v20:
 1088              	.LFB330:
 1089              		.loc 1 297 0
 1090              		.cfi_startproc
 1091              		@ args = 0, pretend = 0, frame = 0
 1092              		@ frame_needed = 0, uses_anonymous_args = 0
 1093              	.LVL127:
 1094 0000 38B5     		push	{r3, r4, r5, lr}
 1095              		.cfi_def_cfa_offset 16
 1096              		.cfi_offset 3, -16
 1097              		.cfi_offset 4, -12
 1098              		.cfi_offset 5, -8
 1099              		.cfi_offset 14, -4
 1100              		.loc 1 302 0
 1101 0002 00F11805 		add	r5, r0, #24
 1102              	.LVL128:
 1103              		.loc 1 297 0
 1104 0006 0C46     		mov	r4, r1
 1105              		.loc 1 303 0
 1106 0008 3022     		movs	r2, #48
 1107 000a 4521     		movs	r1, #69
 1108              	.LVL129:
 1109 000c 2846     		mov	r0, r5
 1110              	.LVL130:
 1111 000e FFF7FEFF 		bl	_mmcsd_get_slice
 1112              	.LVL131:
 1113              		.loc 1 304 0
 1114 0012 0122     		movs	r2, #1
 1115              		.loc 1 303 0
 1116 0014 E060     		str	r0, [r4, #12]
 1117              		.loc 1 304 0
 1118 0016 0721     		movs	r1, #7
 1119 0018 2846     		mov	r0, r5
 1120 001a FFF7FEFF 		bl	_mmcsd_get_slice
 1121              	.LVL132:
 1122              		.loc 1 305 0
 1123 001e 5422     		movs	r2, #84
 1124              		.loc 1 304 0
 1125 0020 2077     		strb	r0, [r4, #28]
 1126              		.loc 1 305 0
 1127 0022 5F21     		movs	r1, #95
 1128 0024 2846     		mov	r0, r5
 1129 0026 FFF7FEFF 		bl	_mmcsd_get_slice
 1130              	.LVL133:
 1131              		.loc 1 306 0
 1132 002a 0E22     		movs	r2, #14
 1133 002c 1146     		mov	r1, r2
 1134              		.loc 1 305 0
 1135 002e A080     		strh	r0, [r4, #4]	@ movhi
 1136              		.loc 1 306 0
 1137 0030 2846     		mov	r0, r5
 1138 0032 FFF7FEFF 		bl	_mmcsd_get_slice
 1139              	.LVL134:
 1140              		.loc 1 307 0
ARM GAS  /tmp/ccESzJ2O.s 			page 21


 1141 0036 7E22     		movs	r2, #126
 1142              		.loc 1 306 0
 1143 0038 2076     		strb	r0, [r4, #24]
 1144              		.loc 1 307 0
 1145 003a 7F21     		movs	r1, #127
 1146 003c 2846     		mov	r0, r5
 1147 003e FFF7FEFF 		bl	_mmcsd_get_slice
 1148              	.LVL135:
 1149              		.loc 1 308 0
 1150 0042 4C22     		movs	r2, #76
 1151 0044 1146     		mov	r1, r2
 1152              		.loc 1 307 0
 1153 0046 2070     		strb	r0, [r4]
 1154              		.loc 1 308 0
 1155 0048 2846     		mov	r0, r5
 1156 004a FFF7FEFF 		bl	_mmcsd_get_slice
 1157              	.LVL136:
 1158              		.loc 1 309 0
 1159 004e 2E22     		movs	r2, #46
 1160 0050 1146     		mov	r1, r2
 1161              		.loc 1 308 0
 1162 0052 A072     		strb	r0, [r4, #10]
 1163              		.loc 1 309 0
 1164 0054 2846     		mov	r0, r5
 1165 0056 FFF7FEFF 		bl	_mmcsd_get_slice
 1166              	.LVL137:
 1167              		.loc 1 310 0
 1168 005a 0A22     		movs	r2, #10
 1169              		.loc 1 309 0
 1170 005c 2074     		strb	r0, [r4, #16]
 1171              		.loc 1 310 0
 1172 005e 0B21     		movs	r1, #11
 1173 0060 2846     		mov	r0, r5
 1174 0062 FFF7FEFF 		bl	_mmcsd_get_slice
 1175              	.LVL138:
 1176              		.loc 1 311 0
 1177 0066 0F22     		movs	r2, #15
 1178 0068 1146     		mov	r1, r2
 1179              		.loc 1 310 0
 1180 006a E076     		strb	r0, [r4, #27]
 1181              		.loc 1 311 0
 1182 006c 2846     		mov	r0, r5
 1183 006e FFF7FEFF 		bl	_mmcsd_get_slice
 1184              	.LVL139:
 1185              		.loc 1 312 0
 1186 0072 6822     		movs	r2, #104
 1187              		.loc 1 311 0
 1188 0074 E075     		strb	r0, [r4, #23]
 1189              		.loc 1 312 0
 1190 0076 6F21     		movs	r1, #111
 1191 0078 2846     		mov	r0, r5
 1192 007a FFF7FEFF 		bl	_mmcsd_get_slice
 1193              	.LVL140:
 1194              		.loc 1 313 0
 1195 007e 0D22     		movs	r2, #13
 1196 0080 1146     		mov	r1, r2
 1197              		.loc 1 312 0
ARM GAS  /tmp/ccESzJ2O.s 			page 22


 1198 0082 A070     		strb	r0, [r4, #2]
 1199              		.loc 1 313 0
 1200 0084 2846     		mov	r0, r5
 1201 0086 FFF7FEFF 		bl	_mmcsd_get_slice
 1202              	.LVL141:
 1203              		.loc 1 314 0
 1204 008a 1A22     		movs	r2, #26
 1205              		.loc 1 313 0
 1206 008c 6076     		strb	r0, [r4, #25]
 1207              		.loc 1 314 0
 1208 008e 1C21     		movs	r1, #28
 1209 0090 2846     		mov	r0, r5
 1210 0092 FFF7FEFF 		bl	_mmcsd_get_slice
 1211              	.LVL142:
 1212              		.loc 1 315 0
 1213 0096 5022     		movs	r2, #80
 1214              		.loc 1 314 0
 1215 0098 2075     		strb	r0, [r4, #20]
 1216              		.loc 1 315 0
 1217 009a 5321     		movs	r1, #83
 1218 009c 2846     		mov	r0, r5
 1219 009e FFF7FEFF 		bl	_mmcsd_get_slice
 1220              	.LVL143:
 1221              		.loc 1 316 0
 1222 00a2 4F22     		movs	r2, #79
 1223 00a4 1146     		mov	r1, r2
 1224              		.loc 1 315 0
 1225 00a6 A071     		strb	r0, [r4, #6]
 1226              		.loc 1 316 0
 1227 00a8 2846     		mov	r0, r5
 1228 00aa FFF7FEFF 		bl	_mmcsd_get_slice
 1229              	.LVL144:
 1230              		.loc 1 317 0
 1231 00ae 4D22     		movs	r2, #77
 1232 00b0 1146     		mov	r1, r2
 1233              		.loc 1 316 0
 1234 00b2 E071     		strb	r0, [r4, #7]
 1235              		.loc 1 317 0
 1236 00b4 2846     		mov	r0, r5
 1237 00b6 FFF7FEFF 		bl	_mmcsd_get_slice
 1238              	.LVL145:
 1239              		.loc 1 318 0
 1240 00ba 2722     		movs	r2, #39
 1241              		.loc 1 317 0
 1242 00bc 6072     		strb	r0, [r4, #9]
 1243              		.loc 1 318 0
 1244 00be 2D21     		movs	r1, #45
 1245 00c0 2846     		mov	r0, r5
 1246 00c2 FFF7FEFF 		bl	_mmcsd_get_slice
 1247              	.LVL146:
 1248              		.loc 1 319 0
 1249 00c6 7022     		movs	r2, #112
 1250              		.loc 1 318 0
 1251 00c8 6074     		strb	r0, [r4, #17]
 1252              		.loc 1 319 0
 1253 00ca 7721     		movs	r1, #119
 1254 00cc 2846     		mov	r0, r5
ARM GAS  /tmp/ccESzJ2O.s 			page 23


 1255 00ce FFF7FEFF 		bl	_mmcsd_get_slice
 1256              	.LVL147:
 1257              		.loc 1 320 0
 1258 00d2 0C22     		movs	r2, #12
 1259 00d4 1146     		mov	r1, r2
 1260              		.loc 1 319 0
 1261 00d6 6070     		strb	r0, [r4, #1]
 1262              		.loc 1 320 0
 1263 00d8 2846     		mov	r0, r5
 1264 00da FFF7FEFF 		bl	_mmcsd_get_slice
 1265              	.LVL148:
 1266              		.loc 1 321 0
 1267 00de 6022     		movs	r2, #96
 1268              		.loc 1 320 0
 1269 00e0 A076     		strb	r0, [r4, #26]
 1270              		.loc 1 321 0
 1271 00e2 6721     		movs	r1, #103
 1272 00e4 2846     		mov	r0, r5
 1273 00e6 FFF7FEFF 		bl	_mmcsd_get_slice
 1274              	.LVL149:
 1275              		.loc 1 322 0
 1276 00ea 1F22     		movs	r2, #31
 1277 00ec 1146     		mov	r1, r2
 1278              		.loc 1 321 0
 1279 00ee E070     		strb	r0, [r4, #3]
 1280              		.loc 1 322 0
 1281 00f0 2846     		mov	r0, r5
 1282 00f2 FFF7FEFF 		bl	_mmcsd_get_slice
 1283              	.LVL150:
 1284              		.loc 1 323 0
 1285 00f6 2022     		movs	r2, #32
 1286              		.loc 1 322 0
 1287 00f8 E074     		strb	r0, [r4, #19]
 1288              		.loc 1 323 0
 1289 00fa 2621     		movs	r1, #38
 1290 00fc 2846     		mov	r0, r5
 1291 00fe FFF7FEFF 		bl	_mmcsd_get_slice
 1292              	.LVL151:
 1293              		.loc 1 324 0
 1294 0102 0C22     		movs	r2, #12
 1295              		.loc 1 323 0
 1296 0104 A074     		strb	r0, [r4, #18]
 1297              		.loc 1 324 0
 1298 0106 1921     		movs	r1, #25
 1299 0108 2846     		mov	r0, r5
 1300 010a FFF7FEFF 		bl	_mmcsd_get_slice
 1301              	.LVL152:
 1302              		.loc 1 325 0
 1303 010e 1522     		movs	r2, #21
 1304 0110 1146     		mov	r1, r2
 1305              		.loc 1 324 0
 1306 0112 6075     		strb	r0, [r4, #21]
 1307              		.loc 1 325 0
 1308 0114 2846     		mov	r0, r5
 1309 0116 FFF7FEFF 		bl	_mmcsd_get_slice
 1310              	.LVL153:
 1311              		.loc 1 326 0
ARM GAS  /tmp/ccESzJ2O.s 			page 24


 1312 011a 4E22     		movs	r2, #78
 1313              		.loc 1 325 0
 1314 011c A075     		strb	r0, [r4, #22]
 1315              		.loc 1 326 0
 1316 011e 1146     		mov	r1, r2
 1317 0120 2846     		mov	r0, r5
 1318 0122 FFF7FEFF 		bl	_mmcsd_get_slice
 1319              	.LVL154:
 1320 0126 2072     		strb	r0, [r4, #8]
 1321 0128 38BD     		pop	{r3, r4, r5, pc}
 1322              		.cfi_endproc
 1323              	.LFE330:
 1324              		.size	_mmcsd_unpack_csd_v20, .-_mmcsd_unpack_csd_v20
 1325              		.text
 1326              	.Letext0:
 1327              		.file 2 "/opt/gcc-arm-none-eabi-6-2017-q2-update/lib/gcc/arm-none-eabi/6.3.1/include/stddef.h"
 1328              		.file 3 "/opt/gcc-arm-none-eabi-6-2017-q2-update/arm-none-eabi/include/machine/_default_types.h"
 1329              		.file 4 "/opt/gcc-arm-none-eabi-6-2017-q2-update/arm-none-eabi/include/sys/_stdint.h"
 1330              		.file 5 "/opt/gcc-arm-none-eabi-6-2017-q2-update/arm-none-eabi/include/stdint.h"
 1331              		.file 6 "../../modules/ChibiOS/os/common/ports/ARMCMx/compilers/GCC/chtypes.h"
 1332              		.file 7 "../../modules/ChibiOS/os/rt/include/chsystypes.h"
 1333              		.file 8 "../../modules/ChibiOS/os/rt/include/chschd.h"
 1334              		.file 9 "../../modules/ChibiOS/os/rt/include/chtime.h"
 1335              		.file 10 "../../modules/ChibiOS/os/common/ext/ARM/CMSIS/Core/Include/core_cm4.h"
 1336              		.file 11 "../../modules/ChibiOS/os/common/ext/ST/STM32F4xx/system_stm32f4xx.h"
 1337              		.file 12 "../../modules/ChibiOS/os/common/ext/ST/STM32F4xx/stm32f427xx.h"
 1338              		.file 13 "../../modules/ChibiOS/os/common/ports/ARMCMx/chcore.h"
 1339              		.file 14 "../../modules/ChibiOS/os/common/ports/ARMCMx/chcore_v7m.h"
 1340              		.file 15 "../../modules/ChibiOS/os/hal/ports/STM32/LLD/TIMv1/stm32_tim.h"
 1341              		.file 16 "../../modules/ChibiOS/os/rt/include/chtm.h"
 1342              		.file 17 "../../modules/ChibiOS/os/rt/include/chsem.h"
 1343              		.file 18 "../../modules/ChibiOS/os/rt/include/chmtx.h"
 1344              		.file 19 "../../modules/ChibiOS/os/rt/include/chsys.h"
 1345              		.file 20 "../../modules/ChibiOS/os/rt/include/chregistry.h"
 1346              		.file 21 "../../modules/ChibiOS/os/rt/include/chevents.h"
 1347              		.file 22 "../../modules/ChibiOS/os/oslib/include/chmemcore.h"
 1348              		.file 23 "../../modules/ChibiOS/os/oslib/include/chmempools.h"
 1349              		.file 24 "../../modules/ChibiOS/os/oslib/include/chfactory.h"
 1350              		.file 25 "../../modules/ChibiOS/os/hal/ports/STM32/LLD/DMAv2/stm32_dma.h"
 1351              		.file 26 "../../modules/ChibiOS/os/hal/include/hal_ioblock.h"
 1352              		.file 27 "../../modules/ChibiOS/os/hal/include/hal_mmcsd.h"
 1353              		.file 28 "../../modules/ChibiOS/os/hal/include/hal_queues.h"
 1354              		.file 29 "../../modules/ChibiOS/os/hal/include/hal_pal.h"
 1355              		.file 30 "../../modules/ChibiOS/os/hal/ports/STM32/LLD/GPIOv2/stm32_gpio.h"
 1356              		.file 31 "../../modules/ChibiOS/os/hal/ports/STM32/LLD/GPIOv2/hal_pal_lld.h"
 1357              		.file 32 "../../modules/ChibiOS/os/hal/include/hal_adc.h"
 1358              		.file 33 "../../modules/ChibiOS/os/hal/ports/STM32/LLD/ADCv2/hal_adc_lld.h"
 1359              		.file 34 "../../modules/ChibiOS/os/hal/include/hal_i2c.h"
 1360              		.file 35 "../../modules/ChibiOS/os/hal/ports/STM32/LLD/I2Cv1/hal_i2c_lld.h"
 1361              		.file 36 "../../modules/ChibiOS/os/hal/include/hal_pwm.h"
 1362              		.file 37 "../../modules/ChibiOS/os/hal/ports/STM32/LLD/TIMv1/hal_pwm_lld.h"
 1363              		.file 38 "../../modules/ChibiOS/os/hal/include/hal_serial.h"
 1364              		.file 39 "../../modules/ChibiOS/os/hal/ports/STM32/LLD/USARTv1/hal_serial_lld.h"
 1365              		.file 40 "../../modules/ChibiOS/os/hal/include/hal_sdc.h"
 1366              		.file 41 "../../modules/ChibiOS/os/hal/ports/STM32/LLD/SDIOv1/hal_sdc_lld.h"
 1367              		.file 42 "../../modules/ChibiOS/os/hal/include/hal_spi.h"
 1368              		.file 43 "../../modules/ChibiOS/os/hal/ports/STM32/LLD/SPIv1/hal_spi_lld.h"
ARM GAS  /tmp/ccESzJ2O.s 			page 25


 1369              		.file 44 "../../modules/ChibiOS/os/hal/include/hal_usb.h"
 1370              		.file 45 "../../modules/ChibiOS/os/hal/ports/STM32/LLD/OTGv1/hal_usb_lld.h"
 1371              		.file 46 "../../modules/ChibiOS/os/hal/ports/STM32/LLD/OTGv1/stm32_otg.h"