ARM GAS  /tmp/cchAPRix.s 			page 1


   1              		.cpu cortex-m4
   2              		.eabi_attribute 27, 1
   3              		.eabi_attribute 28, 1
   4              		.eabi_attribute 20, 1
   5              		.eabi_attribute 21, 1
   6              		.eabi_attribute 23, 3
   7              		.eabi_attribute 24, 1
   8              		.eabi_attribute 25, 1
   9              		.eabi_attribute 26, 1
  10              		.eabi_attribute 30, 4
  11              		.eabi_attribute 34, 1
  12              		.eabi_attribute 18, 4
  13              		.file	"hal_spi.c"
  14              		.text
  15              	.Ltext0:
  16              		.cfi_sections	.debug_frame
  17              		.section	.text.osalThreadSuspendS,"ax",%progbits
  18              		.align	1
  19              		.syntax unified
  20              		.thumb
  21              		.thumb_func
  22              		.fpu fpv4-sp-d16
  23              		.type	osalThreadSuspendS, %function
  24              	osalThreadSuspendS:
  25              	.LFB309:
  26              		.file 1 "../../modules/ChibiOS/os/hal/osal/rt/osal.h"
  27              		.loc 1 733 0
  28              		.cfi_startproc
  29              		@ args = 0, pretend = 0, frame = 0
  30              		@ frame_needed = 0, uses_anonymous_args = 0
  31              		@ link register save eliminated.
  32              	.LVL0:
  33              		.loc 1 735 0
  34 0000 4FF0FF31 		mov	r1, #-1
  35 0004 FFF7FEBF 		b	chThdSuspendTimeoutS
  36              	.LVL1:
  37              		.cfi_endproc
  38              	.LFE309:
  39              		.size	osalThreadSuspendS, .-osalThreadSuspendS
  40              		.section	.text.spiInit,"ax",%progbits
  41              		.align	1
  42              		.global	spiInit
  43              		.syntax unified
  44              		.thumb
  45              		.thumb_func
  46              		.fpu fpv4-sp-d16
  47              		.type	spiInit, %function
  48              	spiInit:
  49              	.LFB323:
  50              		.file 2 "../../modules/ChibiOS/os/hal/src/hal_spi.c"
  51              		.loc 2 56 0
  52              		.cfi_startproc
  53              		@ args = 0, pretend = 0, frame = 0
  54              		@ frame_needed = 0, uses_anonymous_args = 0
  55              		@ link register save eliminated.
  56              		.loc 2 58 0
  57 0000 FFF7FEBF 		b	spi_lld_init
ARM GAS  /tmp/cchAPRix.s 			page 2


  58              	.LVL2:
  59              		.cfi_endproc
  60              	.LFE323:
  61              		.size	spiInit, .-spiInit
  62              		.section	.text.spiObjectInit,"ax",%progbits
  63              		.align	1
  64              		.global	spiObjectInit
  65              		.syntax unified
  66              		.thumb
  67              		.thumb_func
  68              		.fpu fpv4-sp-d16
  69              		.type	spiObjectInit, %function
  70              	spiObjectInit:
  71              	.LFB324:
  72              		.loc 2 68 0
  73              		.cfi_startproc
  74              		@ args = 0, pretend = 0, frame = 0
  75              		@ frame_needed = 0, uses_anonymous_args = 0
  76              		@ link register save eliminated.
  77              	.LVL3:
  78              		.loc 2 70 0
  79 0000 0123     		movs	r3, #1
  80 0002 0370     		strb	r3, [r0]
  81              		.loc 2 71 0
  82 0004 0023     		movs	r3, #0
  83 0006 4360     		str	r3, [r0, #4]
  84              		.loc 2 73 0
  85 0008 8360     		str	r3, [r0, #8]
  86              	.LVL4:
  87              	.LBB203:
  88              	.LBB204:
  89              		.loc 1 974 0
  90 000a 0C30     		adds	r0, r0, #12
  91              	.LVL5:
  92 000c FFF7FEBF 		b	chMtxObjectInit
  93              	.LVL6:
  94              	.LBE204:
  95              	.LBE203:
  96              		.cfi_endproc
  97              	.LFE324:
  98              		.size	spiObjectInit, .-spiObjectInit
  99              		.section	.text.spiStart,"ax",%progbits
 100              		.align	1
 101              		.global	spiStart
 102              		.syntax unified
 103              		.thumb
 104              		.thumb_func
 105              		.fpu fpv4-sp-d16
 106              		.type	spiStart, %function
 107              	spiStart:
 108              	.LFB325:
 109              		.loc 2 91 0
 110              		.cfi_startproc
 111              		@ args = 0, pretend = 0, frame = 0
 112              		@ frame_needed = 0, uses_anonymous_args = 0
 113              	.LVL7:
 114 0000 10B5     		push	{r4, lr}
ARM GAS  /tmp/cchAPRix.s 			page 3


 115              		.cfi_def_cfa_offset 8
 116              		.cfi_offset 4, -8
 117              		.cfi_offset 14, -4
 118              	.LBB205:
 119              	.LBB206:
 120              	.LBB207:
 121              	.LBB208:
 122              	.LBB209:
 123              		.file 3 "../../modules/ChibiOS/os/common/ext/ARM/CMSIS/Core/Include/cmsis_gcc.h"
 124              		.loc 3 493 0
 125 0002 2023     		movs	r3, #32
 126              	.LBE209:
 127              	.LBE208:
 128              	.LBE207:
 129              	.LBE206:
 130              	.LBE205:
 131              		.loc 2 91 0
 132 0004 0446     		mov	r4, r0
 133              	.LBB214:
 134              	.LBB213:
 135              	.LBB212:
 136              	.LBB211:
 137              	.LBB210:
 138              		.loc 3 493 0
 139              		.syntax unified
 140              	@ 493 "../../modules/ChibiOS/os/common/ext/ARM/CMSIS/Core/Include/cmsis_gcc.h" 1
 141 0006 83F31188 		MSR basepri, r3
 142              	@ 0 "" 2
 143              	.LVL8:
 144              		.thumb
 145              		.syntax unified
 146              	.LBE210:
 147              	.LBE211:
 148              	.LBE212:
 149              	.LBE213:
 150              	.LBE214:
 151              		.loc 2 98 0
 152 000a 4160     		str	r1, [r0, #4]
 153              		.loc 2 99 0
 154 000c FFF7FEFF 		bl	spi_lld_start
 155              	.LVL9:
 156              		.loc 2 100 0
 157 0010 0223     		movs	r3, #2
 158 0012 2370     		strb	r3, [r4]
 159              	.LVL10:
 160              	.LBB215:
 161              	.LBB216:
 162              	.LBB217:
 163              	.LBB218:
 164              	.LBB219:
 165              	.LBB220:
 166              		.loc 3 493 0
 167 0014 0023     		movs	r3, #0
 168              		.syntax unified
 169              	@ 493 "../../modules/ChibiOS/os/common/ext/ARM/CMSIS/Core/Include/cmsis_gcc.h" 1
 170 0016 83F31188 		MSR basepri, r3
 171              	@ 0 "" 2
ARM GAS  /tmp/cchAPRix.s 			page 4


 172              	.LVL11:
 173              		.thumb
 174              		.syntax unified
 175 001a 10BD     		pop	{r4, pc}
 176              	.LBE220:
 177              	.LBE219:
 178              	.LBE218:
 179              	.LBE217:
 180              	.LBE216:
 181              	.LBE215:
 182              		.cfi_endproc
 183              	.LFE325:
 184              		.size	spiStart, .-spiStart
 185              		.section	.text.spiStop,"ax",%progbits
 186              		.align	1
 187              		.global	spiStop
 188              		.syntax unified
 189              		.thumb
 190              		.thumb_func
 191              		.fpu fpv4-sp-d16
 192              		.type	spiStop, %function
 193              	spiStop:
 194              	.LFB326:
 195              		.loc 2 111 0
 196              		.cfi_startproc
 197              		@ args = 0, pretend = 0, frame = 0
 198              		@ frame_needed = 0, uses_anonymous_args = 0
 199              	.LVL12:
 200 0000 10B5     		push	{r4, lr}
 201              		.cfi_def_cfa_offset 8
 202              		.cfi_offset 4, -8
 203              		.cfi_offset 14, -4
 204              	.LBB221:
 205              	.LBB222:
 206              	.LBB223:
 207              	.LBB224:
 208              	.LBB225:
 209              		.loc 3 493 0
 210 0002 2023     		movs	r3, #32
 211              	.LBE225:
 212              	.LBE224:
 213              	.LBE223:
 214              	.LBE222:
 215              	.LBE221:
 216              		.loc 2 111 0
 217 0004 0446     		mov	r4, r0
 218              	.LBB230:
 219              	.LBB229:
 220              	.LBB228:
 221              	.LBB227:
 222              	.LBB226:
 223              		.loc 3 493 0
 224              		.syntax unified
 225              	@ 493 "../../modules/ChibiOS/os/common/ext/ARM/CMSIS/Core/Include/cmsis_gcc.h" 1
 226 0006 83F31188 		MSR basepri, r3
 227              	@ 0 "" 2
 228              	.LVL13:
ARM GAS  /tmp/cchAPRix.s 			page 5


 229              		.thumb
 230              		.syntax unified
 231              	.LBE226:
 232              	.LBE227:
 233              	.LBE228:
 234              	.LBE229:
 235              	.LBE230:
 236              		.loc 2 120 0
 237 000a FFF7FEFF 		bl	spi_lld_stop
 238              	.LVL14:
 239              		.loc 2 121 0
 240 000e 0023     		movs	r3, #0
 241              		.loc 2 122 0
 242 0010 0122     		movs	r2, #1
 243              		.loc 2 121 0
 244 0012 6360     		str	r3, [r4, #4]
 245              		.loc 2 122 0
 246 0014 2270     		strb	r2, [r4]
 247              	.LVL15:
 248              	.LBB231:
 249              	.LBB232:
 250              	.LBB233:
 251              	.LBB234:
 252              	.LBB235:
 253              	.LBB236:
 254              		.loc 3 493 0
 255              		.syntax unified
 256              	@ 493 "../../modules/ChibiOS/os/common/ext/ARM/CMSIS/Core/Include/cmsis_gcc.h" 1
 257 0016 83F31188 		MSR basepri, r3
 258              	@ 0 "" 2
 259              	.LVL16:
 260              		.thumb
 261              		.syntax unified
 262 001a 10BD     		pop	{r4, pc}
 263              	.LBE236:
 264              	.LBE235:
 265              	.LBE234:
 266              	.LBE233:
 267              	.LBE232:
 268              	.LBE231:
 269              		.cfi_endproc
 270              	.LFE326:
 271              		.size	spiStop, .-spiStop
 272              		.section	.text.spiSelect,"ax",%progbits
 273              		.align	1
 274              		.global	spiSelect
 275              		.syntax unified
 276              		.thumb
 277              		.thumb_func
 278              		.fpu fpv4-sp-d16
 279              		.type	spiSelect, %function
 280              	spiSelect:
 281              	.LFB327:
 282              		.loc 2 134 0
 283              		.cfi_startproc
 284              		@ args = 0, pretend = 0, frame = 0
 285              		@ frame_needed = 0, uses_anonymous_args = 0
ARM GAS  /tmp/cchAPRix.s 			page 6


 286              		@ link register save eliminated.
 287              	.LVL17:
 288              	.LBB237:
 289              	.LBB238:
 290              	.LBB239:
 291              	.LBB240:
 292              	.LBB241:
 293              		.loc 3 493 0
 294 0000 2023     		movs	r3, #32
 295              		.syntax unified
 296              	@ 493 "../../modules/ChibiOS/os/common/ext/ARM/CMSIS/Core/Include/cmsis_gcc.h" 1
 297 0002 83F31188 		MSR basepri, r3
 298              	@ 0 "" 2
 299              	.LVL18:
 300              		.thumb
 301              		.syntax unified
 302              	.LBE241:
 303              	.LBE240:
 304              	.LBE239:
 305              	.LBE238:
 306              	.LBE237:
 307              		.loc 2 140 0
 308 0006 4368     		ldr	r3, [r0, #4]
 309 0008 D968     		ldr	r1, [r3, #12]
 310 000a 9A68     		ldr	r2, [r3, #8]
 311 000c 0123     		movs	r3, #1
 312 000e 8B40     		lsls	r3, r3, r1
 313 0010 9BB2     		uxth	r3, r3
 314 0012 5383     		strh	r3, [r2, #26]	@ movhi
 315              	.LVL19:
 316              	.LBB242:
 317              	.LBB243:
 318              	.LBB244:
 319              	.LBB245:
 320              	.LBB246:
 321              	.LBB247:
 322              		.loc 3 493 0
 323 0014 0023     		movs	r3, #0
 324              		.syntax unified
 325              	@ 493 "../../modules/ChibiOS/os/common/ext/ARM/CMSIS/Core/Include/cmsis_gcc.h" 1
 326 0016 83F31188 		MSR basepri, r3
 327              	@ 0 "" 2
 328              	.LVL20:
 329              		.thumb
 330              		.syntax unified
 331 001a 7047     		bx	lr
 332              	.LBE247:
 333              	.LBE246:
 334              	.LBE245:
 335              	.LBE244:
 336              	.LBE243:
 337              	.LBE242:
 338              		.cfi_endproc
 339              	.LFE327:
 340              		.size	spiSelect, .-spiSelect
 341              		.section	.text.spiUnselect,"ax",%progbits
 342              		.align	1
ARM GAS  /tmp/cchAPRix.s 			page 7


 343              		.global	spiUnselect
 344              		.syntax unified
 345              		.thumb
 346              		.thumb_func
 347              		.fpu fpv4-sp-d16
 348              		.type	spiUnselect, %function
 349              	spiUnselect:
 350              	.LFB328:
 351              		.loc 2 152 0
 352              		.cfi_startproc
 353              		@ args = 0, pretend = 0, frame = 0
 354              		@ frame_needed = 0, uses_anonymous_args = 0
 355              		@ link register save eliminated.
 356              	.LVL21:
 357              	.LBB248:
 358              	.LBB249:
 359              	.LBB250:
 360              	.LBB251:
 361              	.LBB252:
 362              		.loc 3 493 0
 363 0000 2023     		movs	r3, #32
 364              		.syntax unified
 365              	@ 493 "../../modules/ChibiOS/os/common/ext/ARM/CMSIS/Core/Include/cmsis_gcc.h" 1
 366 0002 83F31188 		MSR basepri, r3
 367              	@ 0 "" 2
 368              	.LVL22:
 369              		.thumb
 370              		.syntax unified
 371              	.LBE252:
 372              	.LBE251:
 373              	.LBE250:
 374              	.LBE249:
 375              	.LBE248:
 376              		.loc 2 158 0
 377 0006 4368     		ldr	r3, [r0, #4]
 378 0008 D968     		ldr	r1, [r3, #12]
 379 000a 9A68     		ldr	r2, [r3, #8]
 380 000c 0123     		movs	r3, #1
 381 000e 8B40     		lsls	r3, r3, r1
 382 0010 9BB2     		uxth	r3, r3
 383 0012 1383     		strh	r3, [r2, #24]	@ movhi
 384              	.LVL23:
 385              	.LBB253:
 386              	.LBB254:
 387              	.LBB255:
 388              	.LBB256:
 389              	.LBB257:
 390              	.LBB258:
 391              		.loc 3 493 0
 392 0014 0023     		movs	r3, #0
 393              		.syntax unified
 394              	@ 493 "../../modules/ChibiOS/os/common/ext/ARM/CMSIS/Core/Include/cmsis_gcc.h" 1
 395 0016 83F31188 		MSR basepri, r3
 396              	@ 0 "" 2
 397              	.LVL24:
 398              		.thumb
 399              		.syntax unified
ARM GAS  /tmp/cchAPRix.s 			page 8


 400 001a 7047     		bx	lr
 401              	.LBE258:
 402              	.LBE257:
 403              	.LBE256:
 404              	.LBE255:
 405              	.LBE254:
 406              	.LBE253:
 407              		.cfi_endproc
 408              	.LFE328:
 409              		.size	spiUnselect, .-spiUnselect
 410              		.section	.text.spiStartIgnore,"ax",%progbits
 411              		.align	1
 412              		.global	spiStartIgnore
 413              		.syntax unified
 414              		.thumb
 415              		.thumb_func
 416              		.fpu fpv4-sp-d16
 417              		.type	spiStartIgnore, %function
 418              	spiStartIgnore:
 419              	.LFB329:
 420              		.loc 2 175 0
 421              		.cfi_startproc
 422              		@ args = 0, pretend = 0, frame = 0
 423              		@ frame_needed = 0, uses_anonymous_args = 0
 424              	.LVL25:
 425 0000 08B5     		push	{r3, lr}
 426              		.cfi_def_cfa_offset 8
 427              		.cfi_offset 3, -8
 428              		.cfi_offset 14, -4
 429              	.LBB259:
 430              	.LBB260:
 431              	.LBB261:
 432              	.LBB262:
 433              	.LBB263:
 434              		.loc 3 493 0
 435 0002 2022     		movs	r2, #32
 436              		.syntax unified
 437              	@ 493 "../../modules/ChibiOS/os/common/ext/ARM/CMSIS/Core/Include/cmsis_gcc.h" 1
 438 0004 82F31188 		MSR basepri, r2
 439              	@ 0 "" 2
 440              	.LVL26:
 441              		.thumb
 442              		.syntax unified
 443              	.LBE263:
 444              	.LBE262:
 445              	.LBE261:
 446              	.LBE260:
 447              	.LBE259:
 448              		.loc 2 181 0
 449 0008 0322     		movs	r2, #3
 450 000a 0270     		strb	r2, [r0]
 451 000c FFF7FEFF 		bl	spi_lld_ignore
 452              	.LVL27:
 453              	.LBB264:
 454              	.LBB265:
 455              	.LBB266:
 456              	.LBB267:
ARM GAS  /tmp/cchAPRix.s 			page 9


 457              	.LBB268:
 458              	.LBB269:
 459              		.loc 3 493 0
 460 0010 0023     		movs	r3, #0
 461              		.syntax unified
 462              	@ 493 "../../modules/ChibiOS/os/common/ext/ARM/CMSIS/Core/Include/cmsis_gcc.h" 1
 463 0012 83F31188 		MSR basepri, r3
 464              	@ 0 "" 2
 465              	.LVL28:
 466              		.thumb
 467              		.syntax unified
 468 0016 08BD     		pop	{r3, pc}
 469              	.LBE269:
 470              	.LBE268:
 471              	.LBE267:
 472              	.LBE266:
 473              	.LBE265:
 474              	.LBE264:
 475              		.cfi_endproc
 476              	.LFE329:
 477              		.size	spiStartIgnore, .-spiStartIgnore
 478              		.section	.text.spiStartExchange,"ax",%progbits
 479              		.align	1
 480              		.global	spiStartExchange
 481              		.syntax unified
 482              		.thumb
 483              		.thumb_func
 484              		.fpu fpv4-sp-d16
 485              		.type	spiStartExchange, %function
 486              	spiStartExchange:
 487              	.LFB330:
 488              		.loc 2 203 0
 489              		.cfi_startproc
 490              		@ args = 0, pretend = 0, frame = 0
 491              		@ frame_needed = 0, uses_anonymous_args = 0
 492              	.LVL29:
 493 0000 38B5     		push	{r3, r4, r5, lr}
 494              		.cfi_def_cfa_offset 16
 495              		.cfi_offset 3, -16
 496              		.cfi_offset 4, -12
 497              		.cfi_offset 5, -8
 498              		.cfi_offset 14, -4
 499              	.LBB270:
 500              	.LBB271:
 501              	.LBB272:
 502              	.LBB273:
 503              	.LBB274:
 504              		.loc 3 493 0
 505 0002 2025     		movs	r5, #32
 506              		.syntax unified
 507              	@ 493 "../../modules/ChibiOS/os/common/ext/ARM/CMSIS/Core/Include/cmsis_gcc.h" 1
 508 0004 85F31188 		MSR basepri, r5
 509              	@ 0 "" 2
 510              	.LVL30:
 511              		.thumb
 512              		.syntax unified
 513              	.LBE274:
ARM GAS  /tmp/cchAPRix.s 			page 10


 514              	.LBE273:
 515              	.LBE272:
 516              	.LBE271:
 517              	.LBE270:
 518              		.loc 2 210 0
 519 0008 0325     		movs	r5, #3
 520 000a 0570     		strb	r5, [r0]
 521 000c FFF7FEFF 		bl	spi_lld_exchange
 522              	.LVL31:
 523              	.LBB275:
 524              	.LBB276:
 525              	.LBB277:
 526              	.LBB278:
 527              	.LBB279:
 528              	.LBB280:
 529              		.loc 3 493 0
 530 0010 0023     		movs	r3, #0
 531              		.syntax unified
 532              	@ 493 "../../modules/ChibiOS/os/common/ext/ARM/CMSIS/Core/Include/cmsis_gcc.h" 1
 533 0012 83F31188 		MSR basepri, r3
 534              	@ 0 "" 2
 535              	.LVL32:
 536              		.thumb
 537              		.syntax unified
 538 0016 38BD     		pop	{r3, r4, r5, pc}
 539              	.LBE280:
 540              	.LBE279:
 541              	.LBE278:
 542              	.LBE277:
 543              	.LBE276:
 544              	.LBE275:
 545              		.cfi_endproc
 546              	.LFE330:
 547              		.size	spiStartExchange, .-spiStartExchange
 548              		.section	.text.spiStartSend,"ax",%progbits
 549              		.align	1
 550              		.global	spiStartSend
 551              		.syntax unified
 552              		.thumb
 553              		.thumb_func
 554              		.fpu fpv4-sp-d16
 555              		.type	spiStartSend, %function
 556              	spiStartSend:
 557              	.LFB331:
 558              		.loc 2 229 0
 559              		.cfi_startproc
 560              		@ args = 0, pretend = 0, frame = 0
 561              		@ frame_needed = 0, uses_anonymous_args = 0
 562              	.LVL33:
 563 0000 10B5     		push	{r4, lr}
 564              		.cfi_def_cfa_offset 8
 565              		.cfi_offset 4, -8
 566              		.cfi_offset 14, -4
 567              	.LBB281:
 568              	.LBB282:
 569              	.LBB283:
 570              	.LBB284:
ARM GAS  /tmp/cchAPRix.s 			page 11


 571              	.LBB285:
 572              		.loc 3 493 0
 573 0002 2024     		movs	r4, #32
 574              		.syntax unified
 575              	@ 493 "../../modules/ChibiOS/os/common/ext/ARM/CMSIS/Core/Include/cmsis_gcc.h" 1
 576 0004 84F31188 		MSR basepri, r4
 577              	@ 0 "" 2
 578              	.LVL34:
 579              		.thumb
 580              		.syntax unified
 581              	.LBE285:
 582              	.LBE284:
 583              	.LBE283:
 584              	.LBE282:
 585              	.LBE281:
 586              		.loc 2 235 0
 587 0008 0324     		movs	r4, #3
 588 000a 0470     		strb	r4, [r0]
 589 000c FFF7FEFF 		bl	spi_lld_send
 590              	.LVL35:
 591              	.LBB286:
 592              	.LBB287:
 593              	.LBB288:
 594              	.LBB289:
 595              	.LBB290:
 596              	.LBB291:
 597              		.loc 3 493 0
 598 0010 0023     		movs	r3, #0
 599              		.syntax unified
 600              	@ 493 "../../modules/ChibiOS/os/common/ext/ARM/CMSIS/Core/Include/cmsis_gcc.h" 1
 601 0012 83F31188 		MSR basepri, r3
 602              	@ 0 "" 2
 603              	.LVL36:
 604              		.thumb
 605              		.syntax unified
 606 0016 10BD     		pop	{r4, pc}
 607              	.LBE291:
 608              	.LBE290:
 609              	.LBE289:
 610              	.LBE288:
 611              	.LBE287:
 612              	.LBE286:
 613              		.cfi_endproc
 614              	.LFE331:
 615              		.size	spiStartSend, .-spiStartSend
 616              		.section	.text.spiStartReceive,"ax",%progbits
 617              		.align	1
 618              		.global	spiStartReceive
 619              		.syntax unified
 620              		.thumb
 621              		.thumb_func
 622              		.fpu fpv4-sp-d16
 623              		.type	spiStartReceive, %function
 624              	spiStartReceive:
 625              	.LFB332:
 626              		.loc 2 254 0
 627              		.cfi_startproc
ARM GAS  /tmp/cchAPRix.s 			page 12


 628              		@ args = 0, pretend = 0, frame = 0
 629              		@ frame_needed = 0, uses_anonymous_args = 0
 630              	.LVL37:
 631 0000 10B5     		push	{r4, lr}
 632              		.cfi_def_cfa_offset 8
 633              		.cfi_offset 4, -8
 634              		.cfi_offset 14, -4
 635              	.LBB292:
 636              	.LBB293:
 637              	.LBB294:
 638              	.LBB295:
 639              	.LBB296:
 640              		.loc 3 493 0
 641 0002 2024     		movs	r4, #32
 642              		.syntax unified
 643              	@ 493 "../../modules/ChibiOS/os/common/ext/ARM/CMSIS/Core/Include/cmsis_gcc.h" 1
 644 0004 84F31188 		MSR basepri, r4
 645              	@ 0 "" 2
 646              	.LVL38:
 647              		.thumb
 648              		.syntax unified
 649              	.LBE296:
 650              	.LBE295:
 651              	.LBE294:
 652              	.LBE293:
 653              	.LBE292:
 654              		.loc 2 260 0
 655 0008 0324     		movs	r4, #3
 656 000a 0470     		strb	r4, [r0]
 657 000c FFF7FEFF 		bl	spi_lld_receive
 658              	.LVL39:
 659              	.LBB297:
 660              	.LBB298:
 661              	.LBB299:
 662              	.LBB300:
 663              	.LBB301:
 664              	.LBB302:
 665              		.loc 3 493 0
 666 0010 0023     		movs	r3, #0
 667              		.syntax unified
 668              	@ 493 "../../modules/ChibiOS/os/common/ext/ARM/CMSIS/Core/Include/cmsis_gcc.h" 1
 669 0012 83F31188 		MSR basepri, r3
 670              	@ 0 "" 2
 671              	.LVL40:
 672              		.thumb
 673              		.syntax unified
 674 0016 10BD     		pop	{r4, pc}
 675              	.LBE302:
 676              	.LBE301:
 677              	.LBE300:
 678              	.LBE299:
 679              	.LBE298:
 680              	.LBE297:
 681              		.cfi_endproc
 682              	.LFE332:
 683              		.size	spiStartReceive, .-spiStartReceive
 684              		.section	.text.spiAbortI,"ax",%progbits
ARM GAS  /tmp/cchAPRix.s 			page 13


 685              		.align	1
 686              		.global	spiAbortI
 687              		.syntax unified
 688              		.thumb
 689              		.thumb_func
 690              		.fpu fpv4-sp-d16
 691              		.type	spiAbortI, %function
 692              	spiAbortI:
 693              	.LFB333:
 694              		.loc 2 272 0
 695              		.cfi_startproc
 696              		@ args = 0, pretend = 0, frame = 0
 697              		@ frame_needed = 0, uses_anonymous_args = 0
 698              	.LVL41:
 699 0000 10B5     		push	{r4, lr}
 700              		.cfi_def_cfa_offset 8
 701              		.cfi_offset 4, -8
 702              		.cfi_offset 14, -4
 703              		.loc 2 272 0
 704 0002 0446     		mov	r4, r0
 705              		.loc 2 280 0
 706 0004 FFF7FEFF 		bl	spi_lld_abort
 707              	.LVL42:
 708              		.loc 2 281 0
 709 0008 2046     		mov	r0, r4
 710 000a 0223     		movs	r3, #2
 711 000c 00F8083B 		strb	r3, [r0], #8
 712              	.LVL43:
 713              	.LBB303:
 714              	.LBB304:
 715              		.loc 1 775 0
 716 0010 0021     		movs	r1, #0
 717              	.LBE304:
 718              	.LBE303:
 719              		.loc 2 285 0
 720 0012 BDE81040 		pop	{r4, lr}
 721              		.cfi_restore 14
 722              		.cfi_restore 4
 723              		.cfi_def_cfa_offset 0
 724              	.LVL44:
 725              	.LBB306:
 726              	.LBB305:
 727              		.loc 1 775 0
 728 0016 FFF7FEBF 		b	chThdResumeI
 729              	.LVL45:
 730              	.LBE305:
 731              	.LBE306:
 732              		.cfi_endproc
 733              	.LFE333:
 734              		.size	spiAbortI, .-spiAbortI
 735              		.section	.text.spiAbort,"ax",%progbits
 736              		.align	1
 737              		.global	spiAbort
 738              		.syntax unified
 739              		.thumb
 740              		.thumb_func
 741              		.fpu fpv4-sp-d16
ARM GAS  /tmp/cchAPRix.s 			page 14


 742              		.type	spiAbort, %function
 743              	spiAbort:
 744              	.LFB334:
 745              		.loc 2 294 0
 746              		.cfi_startproc
 747              		@ args = 0, pretend = 0, frame = 0
 748              		@ frame_needed = 0, uses_anonymous_args = 0
 749              	.LVL46:
 750 0000 08B5     		push	{r3, lr}
 751              		.cfi_def_cfa_offset 8
 752              		.cfi_offset 3, -8
 753              		.cfi_offset 14, -4
 754              	.LBB307:
 755              	.LBB308:
 756              	.LBB309:
 757              	.LBB310:
 758              	.LBB311:
 759              		.loc 3 493 0
 760 0002 2022     		movs	r2, #32
 761              		.syntax unified
 762              	@ 493 "../../modules/ChibiOS/os/common/ext/ARM/CMSIS/Core/Include/cmsis_gcc.h" 1
 763 0004 82F31188 		MSR basepri, r2
 764              	@ 0 "" 2
 765              	.LVL47:
 766              		.thumb
 767              		.syntax unified
 768              	.LBE311:
 769              	.LBE310:
 770              	.LBE309:
 771              	.LBE308:
 772              	.LBE307:
 773              		.loc 2 299 0
 774 0008 0378     		ldrb	r3, [r0]	@ zero_extendqisi2
 775 000a 032B     		cmp	r3, #3
 776 000c 03D1     		bne	.L14
 777              		.loc 2 300 0
 778 000e FFF7FEFF 		bl	spiAbortI
 779              	.LVL48:
 780              	.LBB312:
 781              	.LBB313:
 782              		.loc 1 618 0
 783 0012 FFF7FEFF 		bl	chSchRescheduleS
 784              	.LVL49:
 785              	.L14:
 786              	.LBE313:
 787              	.LBE312:
 788              	.LBB314:
 789              	.LBB315:
 790              	.LBB316:
 791              	.LBB317:
 792              	.LBB318:
 793              	.LBB319:
 794              		.loc 3 493 0
 795 0016 0023     		movs	r3, #0
 796              		.syntax unified
 797              	@ 493 "../../modules/ChibiOS/os/common/ext/ARM/CMSIS/Core/Include/cmsis_gcc.h" 1
 798 0018 83F31188 		MSR basepri, r3
ARM GAS  /tmp/cchAPRix.s 			page 15


 799              	@ 0 "" 2
 800              	.LVL50:
 801              		.thumb
 802              		.syntax unified
 803 001c 08BD     		pop	{r3, pc}
 804              	.LBE319:
 805              	.LBE318:
 806              	.LBE317:
 807              	.LBE316:
 808              	.LBE315:
 809              	.LBE314:
 810              		.cfi_endproc
 811              	.LFE334:
 812              		.size	spiAbort, .-spiAbort
 813              		.section	.text.spiIgnore,"ax",%progbits
 814              		.align	1
 815              		.global	spiIgnore
 816              		.syntax unified
 817              		.thumb
 818              		.thumb_func
 819              		.fpu fpv4-sp-d16
 820              		.type	spiIgnore, %function
 821              	spiIgnore:
 822              	.LFB335:
 823              		.loc 2 322 0
 824              		.cfi_startproc
 825              		@ args = 0, pretend = 0, frame = 0
 826              		@ frame_needed = 0, uses_anonymous_args = 0
 827              	.LVL51:
 828 0000 10B5     		push	{r4, lr}
 829              		.cfi_def_cfa_offset 8
 830              		.cfi_offset 4, -8
 831              		.cfi_offset 14, -4
 832              	.LBB320:
 833              	.LBB321:
 834              	.LBB322:
 835              	.LBB323:
 836              	.LBB324:
 837              		.loc 3 493 0
 838 0002 2023     		movs	r3, #32
 839              	.LBE324:
 840              	.LBE323:
 841              	.LBE322:
 842              	.LBE321:
 843              	.LBE320:
 844              		.loc 2 322 0
 845 0004 0446     		mov	r4, r0
 846              	.LBB329:
 847              	.LBB328:
 848              	.LBB327:
 849              	.LBB326:
 850              	.LBB325:
 851              		.loc 3 493 0
 852              		.syntax unified
 853              	@ 493 "../../modules/ChibiOS/os/common/ext/ARM/CMSIS/Core/Include/cmsis_gcc.h" 1
 854 0006 83F31188 		MSR basepri, r3
 855              	@ 0 "" 2
ARM GAS  /tmp/cchAPRix.s 			page 16


 856              	.LVL52:
 857              		.thumb
 858              		.syntax unified
 859              	.LBE325:
 860              	.LBE326:
 861              	.LBE327:
 862              	.LBE328:
 863              	.LBE329:
 864              		.loc 2 331 0
 865 000a 0323     		movs	r3, #3
 866 000c 04F8083B 		strb	r3, [r4], #8
 867 0010 FFF7FEFF 		bl	spi_lld_ignore
 868              	.LVL53:
 869              		.loc 2 332 0
 870 0014 2046     		mov	r0, r4
 871 0016 FFF7FEFF 		bl	osalThreadSuspendS
 872              	.LVL54:
 873              	.LBB330:
 874              	.LBB331:
 875              	.LBB332:
 876              	.LBB333:
 877              	.LBB334:
 878              	.LBB335:
 879              		.loc 3 493 0
 880 001a 0023     		movs	r3, #0
 881              		.syntax unified
 882              	@ 493 "../../modules/ChibiOS/os/common/ext/ARM/CMSIS/Core/Include/cmsis_gcc.h" 1
 883 001c 83F31188 		MSR basepri, r3
 884              	@ 0 "" 2
 885              	.LVL55:
 886              		.thumb
 887              		.syntax unified
 888 0020 10BD     		pop	{r4, pc}
 889              	.LBE335:
 890              	.LBE334:
 891              	.LBE333:
 892              	.LBE332:
 893              	.LBE331:
 894              	.LBE330:
 895              		.cfi_endproc
 896              	.LFE335:
 897              		.size	spiIgnore, .-spiIgnore
 898              		.section	.text.spiExchange,"ax",%progbits
 899              		.align	1
 900              		.global	spiExchange
 901              		.syntax unified
 902              		.thumb
 903              		.thumb_func
 904              		.fpu fpv4-sp-d16
 905              		.type	spiExchange, %function
 906              	spiExchange:
 907              	.LFB336:
 908              		.loc 2 355 0
 909              		.cfi_startproc
 910              		@ args = 0, pretend = 0, frame = 0
 911              		@ frame_needed = 0, uses_anonymous_args = 0
 912              	.LVL56:
ARM GAS  /tmp/cchAPRix.s 			page 17


 913 0000 38B5     		push	{r3, r4, r5, lr}
 914              		.cfi_def_cfa_offset 16
 915              		.cfi_offset 3, -16
 916              		.cfi_offset 4, -12
 917              		.cfi_offset 5, -8
 918              		.cfi_offset 14, -4
 919              		.loc 2 355 0
 920 0002 0446     		mov	r4, r0
 921              	.LBB336:
 922              	.LBB337:
 923              	.LBB338:
 924              	.LBB339:
 925              	.LBB340:
 926              		.loc 3 493 0
 927 0004 2025     		movs	r5, #32
 928              		.syntax unified
 929              	@ 493 "../../modules/ChibiOS/os/common/ext/ARM/CMSIS/Core/Include/cmsis_gcc.h" 1
 930 0006 85F31188 		MSR basepri, r5
 931              	@ 0 "" 2
 932              	.LVL57:
 933              		.thumb
 934              		.syntax unified
 935              	.LBE340:
 936              	.LBE339:
 937              	.LBE338:
 938              	.LBE337:
 939              	.LBE336:
 940              		.loc 2 365 0
 941 000a 0325     		movs	r5, #3
 942 000c 04F8085B 		strb	r5, [r4], #8
 943 0010 FFF7FEFF 		bl	spi_lld_exchange
 944              	.LVL58:
 945              		.loc 2 366 0
 946 0014 2046     		mov	r0, r4
 947 0016 FFF7FEFF 		bl	osalThreadSuspendS
 948              	.LVL59:
 949              	.LBB341:
 950              	.LBB342:
 951              	.LBB343:
 952              	.LBB344:
 953              	.LBB345:
 954              	.LBB346:
 955              		.loc 3 493 0
 956 001a 0023     		movs	r3, #0
 957              		.syntax unified
 958              	@ 493 "../../modules/ChibiOS/os/common/ext/ARM/CMSIS/Core/Include/cmsis_gcc.h" 1
 959 001c 83F31188 		MSR basepri, r3
 960              	@ 0 "" 2
 961              	.LVL60:
 962              		.thumb
 963              		.syntax unified
 964 0020 38BD     		pop	{r3, r4, r5, pc}
 965              	.LBE346:
 966              	.LBE345:
 967              	.LBE344:
 968              	.LBE343:
 969              	.LBE342:
ARM GAS  /tmp/cchAPRix.s 			page 18


 970              	.LBE341:
 971              		.cfi_endproc
 972              	.LFE336:
 973              		.size	spiExchange, .-spiExchange
 974              		.section	.text.spiSend,"ax",%progbits
 975              		.align	1
 976              		.global	spiSend
 977              		.syntax unified
 978              		.thumb
 979              		.thumb_func
 980              		.fpu fpv4-sp-d16
 981              		.type	spiSend, %function
 982              	spiSend:
 983              	.LFB337:
 984              		.loc 2 386 0
 985              		.cfi_startproc
 986              		@ args = 0, pretend = 0, frame = 0
 987              		@ frame_needed = 0, uses_anonymous_args = 0
 988              	.LVL61:
 989 0000 10B5     		push	{r4, lr}
 990              		.cfi_def_cfa_offset 8
 991              		.cfi_offset 4, -8
 992              		.cfi_offset 14, -4
 993              	.LBB347:
 994              	.LBB348:
 995              	.LBB349:
 996              	.LBB350:
 997              	.LBB351:
 998              		.loc 3 493 0
 999 0002 2023     		movs	r3, #32
 1000              	.LBE351:
 1001              	.LBE350:
 1002              	.LBE349:
 1003              	.LBE348:
 1004              	.LBE347:
 1005              		.loc 2 386 0
 1006 0004 0446     		mov	r4, r0
 1007              	.LBB356:
 1008              	.LBB355:
 1009              	.LBB354:
 1010              	.LBB353:
 1011              	.LBB352:
 1012              		.loc 3 493 0
 1013              		.syntax unified
 1014              	@ 493 "../../modules/ChibiOS/os/common/ext/ARM/CMSIS/Core/Include/cmsis_gcc.h" 1
 1015 0006 83F31188 		MSR basepri, r3
 1016              	@ 0 "" 2
 1017              	.LVL62:
 1018              		.thumb
 1019              		.syntax unified
 1020              	.LBE352:
 1021              	.LBE353:
 1022              	.LBE354:
 1023              	.LBE355:
 1024              	.LBE356:
 1025              		.loc 2 395 0
 1026 000a 0323     		movs	r3, #3
ARM GAS  /tmp/cchAPRix.s 			page 19


 1027 000c 04F8083B 		strb	r3, [r4], #8
 1028 0010 FFF7FEFF 		bl	spi_lld_send
 1029              	.LVL63:
 1030              		.loc 2 396 0
 1031 0014 2046     		mov	r0, r4
 1032 0016 FFF7FEFF 		bl	osalThreadSuspendS
 1033              	.LVL64:
 1034              	.LBB357:
 1035              	.LBB358:
 1036              	.LBB359:
 1037              	.LBB360:
 1038              	.LBB361:
 1039              	.LBB362:
 1040              		.loc 3 493 0
 1041 001a 0023     		movs	r3, #0
 1042              		.syntax unified
 1043              	@ 493 "../../modules/ChibiOS/os/common/ext/ARM/CMSIS/Core/Include/cmsis_gcc.h" 1
 1044 001c 83F31188 		MSR basepri, r3
 1045              	@ 0 "" 2
 1046              	.LVL65:
 1047              		.thumb
 1048              		.syntax unified
 1049 0020 10BD     		pop	{r4, pc}
 1050              	.LBE362:
 1051              	.LBE361:
 1052              	.LBE360:
 1053              	.LBE359:
 1054              	.LBE358:
 1055              	.LBE357:
 1056              		.cfi_endproc
 1057              	.LFE337:
 1058              		.size	spiSend, .-spiSend
 1059              		.section	.text.spiReceive,"ax",%progbits
 1060              		.align	1
 1061              		.global	spiReceive
 1062              		.syntax unified
 1063              		.thumb
 1064              		.thumb_func
 1065              		.fpu fpv4-sp-d16
 1066              		.type	spiReceive, %function
 1067              	spiReceive:
 1068              	.LFB338:
 1069              		.loc 2 416 0
 1070              		.cfi_startproc
 1071              		@ args = 0, pretend = 0, frame = 0
 1072              		@ frame_needed = 0, uses_anonymous_args = 0
 1073              	.LVL66:
 1074 0000 10B5     		push	{r4, lr}
 1075              		.cfi_def_cfa_offset 8
 1076              		.cfi_offset 4, -8
 1077              		.cfi_offset 14, -4
 1078              	.LBB363:
 1079              	.LBB364:
 1080              	.LBB365:
 1081              	.LBB366:
 1082              	.LBB367:
 1083              		.loc 3 493 0
ARM GAS  /tmp/cchAPRix.s 			page 20


 1084 0002 2023     		movs	r3, #32
 1085              	.LBE367:
 1086              	.LBE366:
 1087              	.LBE365:
 1088              	.LBE364:
 1089              	.LBE363:
 1090              		.loc 2 416 0
 1091 0004 0446     		mov	r4, r0
 1092              	.LBB372:
 1093              	.LBB371:
 1094              	.LBB370:
 1095              	.LBB369:
 1096              	.LBB368:
 1097              		.loc 3 493 0
 1098              		.syntax unified
 1099              	@ 493 "../../modules/ChibiOS/os/common/ext/ARM/CMSIS/Core/Include/cmsis_gcc.h" 1
 1100 0006 83F31188 		MSR basepri, r3
 1101              	@ 0 "" 2
 1102              	.LVL67:
 1103              		.thumb
 1104              		.syntax unified
 1105              	.LBE368:
 1106              	.LBE369:
 1107              	.LBE370:
 1108              	.LBE371:
 1109              	.LBE372:
 1110              		.loc 2 425 0
 1111 000a 0323     		movs	r3, #3
 1112 000c 04F8083B 		strb	r3, [r4], #8
 1113 0010 FFF7FEFF 		bl	spi_lld_receive
 1114              	.LVL68:
 1115              		.loc 2 426 0
 1116 0014 2046     		mov	r0, r4
 1117 0016 FFF7FEFF 		bl	osalThreadSuspendS
 1118              	.LVL69:
 1119              	.LBB373:
 1120              	.LBB374:
 1121              	.LBB375:
 1122              	.LBB376:
 1123              	.LBB377:
 1124              	.LBB378:
 1125              		.loc 3 493 0
 1126 001a 0023     		movs	r3, #0
 1127              		.syntax unified
 1128              	@ 493 "../../modules/ChibiOS/os/common/ext/ARM/CMSIS/Core/Include/cmsis_gcc.h" 1
 1129 001c 83F31188 		MSR basepri, r3
 1130              	@ 0 "" 2
 1131              	.LVL70:
 1132              		.thumb
 1133              		.syntax unified
 1134 0020 10BD     		pop	{r4, pc}
 1135              	.LBE378:
 1136              	.LBE377:
 1137              	.LBE376:
 1138              	.LBE375:
 1139              	.LBE374:
 1140              	.LBE373:
ARM GAS  /tmp/cchAPRix.s 			page 21


 1141              		.cfi_endproc
 1142              	.LFE338:
 1143              		.size	spiReceive, .-spiReceive
 1144              		.section	.text.spiAcquireBus,"ax",%progbits
 1145              		.align	1
 1146              		.global	spiAcquireBus
 1147              		.syntax unified
 1148              		.thumb
 1149              		.thumb_func
 1150              		.fpu fpv4-sp-d16
 1151              		.type	spiAcquireBus, %function
 1152              	spiAcquireBus:
 1153              	.LFB339:
 1154              		.loc 2 443 0
 1155              		.cfi_startproc
 1156              		@ args = 0, pretend = 0, frame = 0
 1157              		@ frame_needed = 0, uses_anonymous_args = 0
 1158              		@ link register save eliminated.
 1159              	.LVL71:
 1160              	.LBB379:
 1161              	.LBB380:
 1162              		.loc 1 994 0
 1163 0000 0C30     		adds	r0, r0, #12
 1164              	.LVL72:
 1165 0002 FFF7FEBF 		b	chMtxLock
 1166              	.LVL73:
 1167              	.LBE380:
 1168              	.LBE379:
 1169              		.cfi_endproc
 1170              	.LFE339:
 1171              		.size	spiAcquireBus, .-spiAcquireBus
 1172              		.section	.text.spiReleaseBus,"ax",%progbits
 1173              		.align	1
 1174              		.global	spiReleaseBus
 1175              		.syntax unified
 1176              		.thumb
 1177              		.thumb_func
 1178              		.fpu fpv4-sp-d16
 1179              		.type	spiReleaseBus, %function
 1180              	spiReleaseBus:
 1181              	.LFB340:
 1182              		.loc 2 459 0
 1183              		.cfi_startproc
 1184              		@ args = 0, pretend = 0, frame = 0
 1185              		@ frame_needed = 0, uses_anonymous_args = 0
 1186              		@ link register save eliminated.
 1187              	.LVL74:
 1188              	.LBB381:
 1189              	.LBB382:
 1190              		.loc 1 1018 0
 1191 0000 0C30     		adds	r0, r0, #12
 1192              	.LVL75:
 1193 0002 FFF7FEBF 		b	chMtxUnlock
 1194              	.LVL76:
 1195              	.LBE382:
 1196              	.LBE381:
 1197              		.cfi_endproc
ARM GAS  /tmp/cchAPRix.s 			page 22


 1198              	.LFE340:
 1199              		.size	spiReleaseBus, .-spiReleaseBus
 1200              		.text
 1201              	.Letext0:
 1202              		.file 4 "/opt/gcc-arm-none-eabi-6-2017-q2-update/lib/gcc/arm-none-eabi/6.3.1/include/stddef.h"
 1203              		.file 5 "/opt/gcc-arm-none-eabi-6-2017-q2-update/arm-none-eabi/include/machine/_default_types.h"
 1204              		.file 6 "/opt/gcc-arm-none-eabi-6-2017-q2-update/arm-none-eabi/include/sys/_stdint.h"
 1205              		.file 7 "/opt/gcc-arm-none-eabi-6-2017-q2-update/arm-none-eabi/include/stdint.h"
 1206              		.file 8 "../../modules/ChibiOS/os/common/ports/ARMCMx/compilers/GCC/chtypes.h"
 1207              		.file 9 "../../modules/ChibiOS/os/rt/include/chsystypes.h"
 1208              		.file 10 "../../modules/ChibiOS/os/rt/include/chschd.h"
 1209              		.file 11 "../../modules/ChibiOS/os/rt/include/chtime.h"
 1210              		.file 12 "../../modules/ChibiOS/os/common/ext/ARM/CMSIS/Core/Include/core_cm4.h"
 1211              		.file 13 "../../modules/ChibiOS/os/common/ext/ST/STM32F4xx/system_stm32f4xx.h"
 1212              		.file 14 "../../modules/ChibiOS/os/common/ext/ST/STM32F4xx/stm32f427xx.h"
 1213              		.file 15 "../../modules/ChibiOS/os/common/ports/ARMCMx/chcore.h"
 1214              		.file 16 "../../modules/ChibiOS/os/common/ports/ARMCMx/chcore_v7m.h"
 1215              		.file 17 "../../modules/ChibiOS/os/hal/ports/STM32/LLD/TIMv1/stm32_tim.h"
 1216              		.file 18 "../../modules/ChibiOS/os/rt/include/chtm.h"
 1217              		.file 19 "../../modules/ChibiOS/os/rt/include/chsem.h"
 1218              		.file 20 "../../modules/ChibiOS/os/rt/include/chmtx.h"
 1219              		.file 21 "../../modules/ChibiOS/os/rt/include/chsys.h"
 1220              		.file 22 "../../modules/ChibiOS/os/rt/include/chregistry.h"
 1221              		.file 23 "../../modules/ChibiOS/os/rt/include/chevents.h"
 1222              		.file 24 "../../modules/ChibiOS/os/oslib/include/chmemcore.h"
 1223              		.file 25 "../../modules/ChibiOS/os/oslib/include/chmempools.h"
 1224              		.file 26 "../../modules/ChibiOS/os/oslib/include/chfactory.h"
 1225              		.file 27 "../../modules/ChibiOS/os/hal/ports/STM32/LLD/DMAv2/stm32_dma.h"
 1226              		.file 28 "../../modules/ChibiOS/os/hal/include/hal_ioblock.h"
 1227              		.file 29 "../../modules/ChibiOS/os/hal/include/hal_queues.h"
 1228              		.file 30 "../../modules/ChibiOS/os/hal/include/hal_pal.h"
 1229              		.file 31 "../../modules/ChibiOS/os/hal/ports/STM32/LLD/GPIOv2/stm32_gpio.h"
 1230              		.file 32 "../../modules/ChibiOS/os/hal/ports/STM32/LLD/GPIOv2/hal_pal_lld.h"
 1231              		.file 33 "../../modules/ChibiOS/os/hal/include/hal_adc.h"
 1232              		.file 34 "../../modules/ChibiOS/os/hal/ports/STM32/LLD/ADCv2/hal_adc_lld.h"
 1233              		.file 35 "../../modules/ChibiOS/os/hal/include/hal_i2c.h"
 1234              		.file 36 "../../modules/ChibiOS/os/hal/ports/STM32/LLD/I2Cv1/hal_i2c_lld.h"
 1235              		.file 37 "../../modules/ChibiOS/os/hal/include/hal_pwm.h"
 1236              		.file 38 "../../modules/ChibiOS/os/hal/ports/STM32/LLD/TIMv1/hal_pwm_lld.h"
 1237              		.file 39 "../../modules/ChibiOS/os/hal/include/hal_serial.h"
 1238              		.file 40 "../../modules/ChibiOS/os/hal/ports/STM32/LLD/USARTv1/hal_serial_lld.h"
 1239              		.file 41 "../../modules/ChibiOS/os/hal/include/hal_sdc.h"
 1240              		.file 42 "../../modules/ChibiOS/os/hal/ports/STM32/LLD/SDIOv1/hal_sdc_lld.h"
 1241              		.file 43 "../../modules/ChibiOS/os/hal/include/hal_spi.h"
 1242              		.file 44 "../../modules/ChibiOS/os/hal/ports/STM32/LLD/SPIv1/hal_spi_lld.h"
 1243              		.file 45 "../../modules/ChibiOS/os/hal/include/hal_usb.h"
 1244              		.file 46 "../../modules/ChibiOS/os/hal/ports/STM32/LLD/OTGv1/hal_usb_lld.h"
 1245              		.file 47 "../../modules/ChibiOS/os/hal/ports/STM32/LLD/OTGv1/stm32_otg.h"
 1246              		.file 48 "../../modules/ChibiOS/os/rt/include/chthreads.h"