ARM GAS  /tmp/ccXwZqFk.s 			page 1


   1              		.cpu cortex-m4
   2              		.eabi_attribute 27, 1
   3              		.eabi_attribute 28, 1
   4              		.eabi_attribute 20, 1
   5              		.eabi_attribute 21, 1
   6              		.eabi_attribute 23, 3
   7              		.eabi_attribute 24, 1
   8              		.eabi_attribute 25, 1
   9              		.eabi_attribute 26, 1
  10              		.eabi_attribute 30, 4
  11              		.eabi_attribute 34, 1
  12              		.eabi_attribute 18, 4
  13              		.file	"hal_lld.c"
  14              		.text
  15              	.Ltext0:
  16              		.cfi_sections	.debug_frame
  17              		.section	.text.hal_lld_init,"ax",%progbits
  18              		.align	1
  19              		.global	hal_lld_init
  20              		.syntax unified
  21              		.thumb
  22              		.thumb_func
  23              		.fpu fpv4-sp-d16
  24              		.type	hal_lld_init, %function
  25              	hal_lld_init:
  26              	.LFB324:
  27              		.file 1 "../../modules/ChibiOS/os/hal/ports/STM32/STM32F4xx/hal_lld.c"
  28              		.loc 1 114 0
  29              		.cfi_startproc
  30              		@ args = 0, pretend = 0, frame = 0
  31              		@ frame_needed = 0, uses_anonymous_args = 0
  32 0000 08B5     		push	{r3, lr}
  33              		.cfi_def_cfa_offset 8
  34              		.cfi_offset 3, -8
  35              		.cfi_offset 14, -4
  36              		.loc 1 120 0
  37 0002 224B     		ldr	r3, .L6
  38 0004 1A69     		ldr	r2, [r3, #16]
  39 0006 6FEAC252 		mvn	r2, r2, lsl #23
  40 000a 6FEAD252 		mvn	r2, r2, lsr #23
  41 000e 1A61     		str	r2, [r3, #16]
  42 0010 1A69     		ldr	r2, [r3, #16]
  43 0012 C2F30802 		ubfx	r2, r2, #0, #9
  44 0016 1A61     		str	r2, [r3, #16]
  45              		.loc 1 122 0
  46 0018 4FF0FF30 		mov	r0, #-1
  47              		.loc 1 120 0
  48 001c 1A69     		ldr	r2, [r3, #16]
  49              		.loc 1 122 0
  50 001e 5A69     		ldr	r2, [r3, #20]
  51 0020 5861     		str	r0, [r3, #20]
  52 0022 0021     		movs	r1, #0
  53 0024 5A69     		ldr	r2, [r3, #20]
  54 0026 5961     		str	r1, [r3, #20]
  55 0028 5A69     		ldr	r2, [r3, #20]
  56              		.loc 1 124 0
  57 002a 1A6A     		ldr	r2, [r3, #32]
ARM GAS  /tmp/ccXwZqFk.s 			page 2


  58 002c 62F08052 		orn	r2, r2, #268435456
  59 0030 1A62     		str	r2, [r3, #32]
  60 0032 1A6A     		ldr	r2, [r3, #32]
  61 0034 02F08052 		and	r2, r2, #268435456
  62 0038 1A62     		str	r2, [r3, #32]
  63 003a 1A6A     		ldr	r2, [r3, #32]
  64              		.loc 1 125 0
  65 003c 5A6A     		ldr	r2, [r3, #36]
  66 003e 5862     		str	r0, [r3, #36]
  67 0040 5A6A     		ldr	r2, [r3, #36]
  68 0042 5962     		str	r1, [r3, #36]
  69 0044 5A6A     		ldr	r2, [r3, #36]
  70              		.loc 1 128 0
  71 0046 1A6C     		ldr	r2, [r3, #64]
  72 0048 42F08052 		orr	r2, r2, #268435456
  73 004c 1A64     		str	r2, [r3, #64]
  74 004e 1A6E     		ldr	r2, [r3, #96]
  75 0050 42F08052 		orr	r2, r2, #268435456
  76 0054 1A66     		str	r2, [r3, #96]
  77 0056 1A6E     		ldr	r2, [r3, #96]
  78              	.LBB4:
  79              	.LBB5:
  80              		.loc 1 57 0
  81 0058 0D4A     		ldr	r2, .L6+4
  82 005a 1068     		ldr	r0, [r2]
  83 005c 40F48070 		orr	r0, r0, #256
  84 0060 1060     		str	r0, [r2]
  85              		.loc 1 60 0
  86 0062 186F     		ldr	r0, [r3, #112]
  87 0064 00F44070 		and	r0, r0, #768
  88 0068 B0F5007F 		cmp	r0, #512
  89              		.loc 1 62 0
  90 006c 1EBF     		ittt	ne
  91 006e 4FF48030 		movne	r0, #65536
  92 0072 1867     		strne	r0, [r3, #112]
  93              		.loc 1 63 0
  94 0074 1967     		strne	r1, [r3, #112]
  95              		.loc 1 97 0
  96 0076 5368     		ldr	r3, [r2, #4]
  97 0078 23F40073 		bic	r3, r3, #512
  98 007c 5360     		str	r3, [r2, #4]
  99              	.LBE5:
 100              	.LBE4:
 101              		.loc 1 135 0
 102 007e FFF7FEFF 		bl	dmaInit
 103              	.LVL0:
 104              		.loc 1 145 0
 105 0082 BDE80840 		pop	{r3, lr}
 106              		.cfi_restore 14
 107              		.cfi_restore 3
 108              		.cfi_def_cfa_offset 0
 109              		.loc 1 139 0
 110 0086 FFF7FEBF 		b	irqInit
 111              	.LVL1:
 112              	.L7:
 113 008a 00BF     		.align	2
 114              	.L6:
ARM GAS  /tmp/ccXwZqFk.s 			page 3


 115 008c 00380240 		.word	1073887232
 116 0090 00700040 		.word	1073770496
 117              		.cfi_endproc
 118              	.LFE324:
 119              		.size	hal_lld_init, .-hal_lld_init
 120              		.section	.text.stm32_clock_init,"ax",%progbits
 121              		.align	1
 122              		.global	stm32_clock_init
 123              		.syntax unified
 124              		.thumb
 125              		.thumb_func
 126              		.fpu fpv4-sp-d16
 127              		.type	stm32_clock_init, %function
 128              	stm32_clock_init:
 129              	.LFB325:
 130              		.loc 1 154 0
 131              		.cfi_startproc
 132              		@ args = 0, pretend = 0, frame = 0
 133              		@ frame_needed = 0, uses_anonymous_args = 0
 134              		@ link register save eliminated.
 135              		.loc 1 161 0
 136 0000 324B     		ldr	r3, .L32
 137 0002 4FF08052 		mov	r2, #268435456
 138 0006 1A64     		str	r2, [r3, #64]
 139              		.loc 1 166 0
 140 0008 314A     		ldr	r2, .L32+4
 141 000a 4FF44041 		mov	r1, #49152
 142 000e 1160     		str	r1, [r2]
 143              		.loc 1 173 0
 144 0010 1A68     		ldr	r2, [r3]
 145 0012 42F00102 		orr	r2, r2, #1
 146 0016 1A60     		str	r2, [r3]
 147              	.L9:
 148              		.loc 1 174 0 discriminator 1
 149 0018 1A68     		ldr	r2, [r3]
 150 001a 9207     		lsls	r2, r2, #30
 151 001c FCD5     		bpl	.L9
 152              		.loc 1 180 0
 153 001e 9A68     		ldr	r2, [r3, #8]
 154 0020 22F00302 		bic	r2, r2, #3
 155 0024 9A60     		str	r2, [r3, #8]
 156              		.loc 1 181 0
 157 0026 294B     		ldr	r3, .L32
 158 0028 1946     		mov	r1, r3
 159              	.L10:
 160              		.loc 1 181 0 is_stmt 0 discriminator 1
 161 002a 9A68     		ldr	r2, [r3, #8]
 162 002c 12F00C02 		ands	r2, r2, #12
 163 0030 FBD1     		bne	.L10
 164              		.loc 1 185 0 is_stmt 1
 165 0032 1868     		ldr	r0, [r3]
 166 0034 00F0F900 		and	r0, r0, #249
 167 0038 1860     		str	r0, [r3]
 168              		.loc 1 186 0
 169 003a 9A60     		str	r2, [r3, #8]
 170              		.loc 1 195 0
 171 003c 1A68     		ldr	r2, [r3]
ARM GAS  /tmp/ccXwZqFk.s 			page 4


 172 003e 42F48032 		orr	r2, r2, #65536
 173 0042 1A60     		str	r2, [r3]
 174              	.L11:
 175              		.loc 1 197 0 discriminator 1
 176 0044 0B68     		ldr	r3, [r1]
 177 0046 9B03     		lsls	r3, r3, #14
 178 0048 FCD5     		bpl	.L11
 179              		.loc 1 203 0
 180 004a 4B6F     		ldr	r3, [r1, #116]
 181 004c 43F00103 		orr	r3, r3, #1
 182 0050 4B67     		str	r3, [r1, #116]
 183              		.loc 1 204 0
 184 0052 1E4B     		ldr	r3, .L32
 185              	.L12:
 186              		.loc 1 204 0 is_stmt 0 discriminator 1
 187 0054 5A6F     		ldr	r2, [r3, #116]
 188 0056 9007     		lsls	r0, r2, #30
 189 0058 FCD5     		bpl	.L12
 190              		.loc 1 210 0 is_stmt 1
 191 005a 1E4A     		ldr	r2, .L32+8
 192 005c 5A60     		str	r2, [r3, #4]
 193              		.loc 1 212 0
 194 005e 1A68     		ldr	r2, [r3]
 195 0060 42F08072 		orr	r2, r2, #16777216
 196 0064 1A60     		str	r2, [r3]
 197              		.loc 1 216 0
 198 0066 1A4A     		ldr	r2, .L32+4
 199              	.L13:
 200              		.loc 1 216 0 is_stmt 0 discriminator 1
 201 0068 5368     		ldr	r3, [r2, #4]
 202 006a 5904     		lsls	r1, r3, #17
 203 006c FCD5     		bpl	.L13
 204              		.loc 1 232 0 is_stmt 1 discriminator 1
 205 006e 174B     		ldr	r3, .L32
 206              	.L25:
 207 0070 1A68     		ldr	r2, [r3]
 208 0072 9201     		lsls	r2, r2, #6
 209 0074 FCD5     		bpl	.L25
 210              		.loc 1 260 0
 211 0076 184A     		ldr	r2, .L32+12
 212 0078 9A60     		str	r2, [r3, #8]
 213              	.LVL2:
 214              	.LBB6:
 215              		.loc 1 290 0
 216 007a 0322     		movs	r2, #3
 217 007c C3F88C20 		str	r2, [r3, #140]
 218              	.LBE6:
 219              		.loc 1 308 0
 220 0080 164B     		ldr	r3, .L32+16
 221 0082 1A68     		ldr	r2, [r3]
 222 0084 164B     		ldr	r3, .L32+20
 223 0086 9A42     		cmp	r2, r3
 224 0088 164B     		ldr	r3, .L32+24
 225 008a 1BD1     		bne	.L15
 226              		.loc 1 308 0 is_stmt 0 discriminator 1
 227 008c 164A     		ldr	r2, .L32+28
 228 008e 1168     		ldr	r1, [r2]
ARM GAS  /tmp/ccXwZqFk.s 			page 5


 229 0090 164A     		ldr	r2, .L32+32
 230 0092 9142     		cmp	r1, r2
 231 0094 16D1     		bne	.L15
 232              		.loc 1 309 0 is_stmt 1
 233 0096 40F20512 		movw	r2, #261
 234              	.L31:
 235              		.loc 1 311 0
 236 009a 1A60     		str	r2, [r3]
 237              		.loc 1 320 0
 238 009c 0B4B     		ldr	r3, .L32
 239 009e 9A68     		ldr	r2, [r3, #8]
 240 00a0 42F00202 		orr	r2, r2, #2
 241 00a4 9A60     		str	r2, [r3, #8]
 242              	.L17:
 243              		.loc 1 321 0 discriminator 1
 244 00a6 9A68     		ldr	r2, [r3, #8]
 245 00a8 02F00C02 		and	r2, r2, #12
 246 00ac 082A     		cmp	r2, #8
 247 00ae FAD1     		bne	.L17
 248              		.loc 1 328 0
 249 00b0 5A6C     		ldr	r2, [r3, #68]
 250 00b2 42F48042 		orr	r2, r2, #16384
 251 00b6 5A64     		str	r2, [r3, #68]
 252 00b8 5A6E     		ldr	r2, [r3, #100]
 253 00ba 42F48042 		orr	r2, r2, #16384
 254 00be 5A66     		str	r2, [r3, #100]
 255 00c0 5B6E     		ldr	r3, [r3, #100]
 256 00c2 7047     		bx	lr
 257              	.L15:
 258              		.loc 1 311 0
 259 00c4 40F20572 		movw	r2, #1797
 260 00c8 E7E7     		b	.L31
 261              	.L33:
 262 00ca 00BF     		.align	2
 263              	.L32:
 264 00cc 00380240 		.word	1073887232
 265 00d0 00700040 		.word	1073770496
 266 00d4 18544007 		.word	121656344
 267 00d8 00948838 		.word	948474880
 268 00dc 002004E0 		.word	-536600576
 269 00e0 11640020 		.word	536896529
 270 00e4 003C0240 		.word	1073888256
 271 00e8 00ED00E0 		.word	-536810240
 272 00ec 41C20F41 		.word	1091551809
 273              		.cfi_endproc
 274              	.LFE325:
 275              		.size	stm32_clock_init, .-stm32_clock_init
 276              		.global	SystemCoreClock
 277              		.section	.data.SystemCoreClock,"aw",%progbits
 278              		.align	2
 279              		.type	SystemCoreClock, %object
 280              		.size	SystemCoreClock, 4
 281              	SystemCoreClock:
 282 0000 007A030A 		.word	168000000
 283              		.text
 284              	.Letext0:
 285              		.file 2 "/opt/gcc-arm-none-eabi-6-2017-q2-update/lib/gcc/arm-none-eabi/6.3.1/include/stddef.h"
ARM GAS  /tmp/ccXwZqFk.s 			page 6


 286              		.file 3 "/opt/gcc-arm-none-eabi-6-2017-q2-update/arm-none-eabi/include/machine/_default_types.h"
 287              		.file 4 "/opt/gcc-arm-none-eabi-6-2017-q2-update/arm-none-eabi/include/sys/_stdint.h"
 288              		.file 5 "../../modules/ChibiOS/os/common/ports/ARMCMx/compilers/GCC/chtypes.h"
 289              		.file 6 "../../modules/ChibiOS/os/rt/include/chsystypes.h"
 290              		.file 7 "../../modules/ChibiOS/os/rt/include/chschd.h"
 291              		.file 8 "../../modules/ChibiOS/os/rt/include/chtime.h"
 292              		.file 9 "../../modules/ChibiOS/os/common/ext/ARM/CMSIS/Core/Include/core_cm4.h"
 293              		.file 10 "../../modules/ChibiOS/os/common/ext/ST/STM32F4xx/system_stm32f4xx.h"
 294              		.file 11 "../../modules/ChibiOS/os/common/ext/ST/STM32F4xx/stm32f427xx.h"
 295              		.file 12 "../../modules/ChibiOS/os/common/ports/ARMCMx/chcore.h"
 296              		.file 13 "../../modules/ChibiOS/os/common/ports/ARMCMx/chcore_v7m.h"
 297              		.file 14 "../../modules/ChibiOS/os/rt/include/chtm.h"
 298              		.file 15 "../../modules/ChibiOS/os/rt/include/chsem.h"
 299              		.file 16 "../../modules/ChibiOS/os/rt/include/chmtx.h"
 300              		.file 17 "../../modules/ChibiOS/os/rt/include/chsys.h"
 301              		.file 18 "../../modules/ChibiOS/os/rt/include/chregistry.h"
 302              		.file 19 "../../modules/ChibiOS/os/rt/include/chevents.h"
 303              		.file 20 "../../modules/ChibiOS/os/oslib/include/chmemcore.h"
 304              		.file 21 "../../modules/ChibiOS/os/oslib/include/chmempools.h"
 305              		.file 22 "../../modules/ChibiOS/os/oslib/include/chfactory.h"
 306              		.file 23 "../../modules/ChibiOS/os/hal/ports/STM32/LLD/DMAv2/stm32_dma.h"
 307              		.file 24 "../../modules/ChibiOS/os/hal/include/hal_queues.h"
 308              		.file 25 "../../modules/ChibiOS/os/hal/include/hal_pal.h"
 309              		.file 26 "../../modules/ChibiOS/os/hal/ports/STM32/LLD/GPIOv2/hal_pal_lld.h"
 310              		.file 27 "../../modules/ChibiOS/os/hal/include/hal_adc.h"
 311              		.file 28 "../../modules/ChibiOS/os/hal/ports/STM32/LLD/ADCv2/hal_adc_lld.h"
 312              		.file 29 "../../modules/ChibiOS/os/hal/include/hal_serial.h"
 313              		.file 30 "../../modules/ChibiOS/os/hal/ports/STM32/LLD/USARTv1/hal_serial_lld.h"
 314              		.file 31 "../../modules/ChibiOS/os/hal/include/hal_usb.h"
 315              		.file 32 "../../modules/ChibiOS/os/hal/ports/STM32/LLD/OTGv1/hal_usb_lld.h"
 316              		.file 33 "../../modules/ChibiOS/os/hal/ports/STM32/LLD/OTGv1/stm32_otg.h"
 317              		.file 34 "../../modules/ChibiOS/os/hal/ports/STM32/STM32F4xx/stm32_isr.h"