ARM GAS  /tmp/cchdv7B0.s 			page 1


   1              		.cpu cortex-m4
   2              		.eabi_attribute 27, 1
   3              		.eabi_attribute 28, 1
   4              		.eabi_attribute 20, 1
   5              		.eabi_attribute 21, 1
   6              		.eabi_attribute 23, 3
   7              		.eabi_attribute 24, 1
   8              		.eabi_attribute 25, 1
   9              		.eabi_attribute 26, 1
  10              		.eabi_attribute 30, 4
  11              		.eabi_attribute 34, 1
  12              		.eabi_attribute 18, 4
  13              		.file	"hal_serial.c"
  14              		.text
  15              	.Ltext0:
  16              		.cfi_sections	.debug_frame
  17              		.section	.text._readt,"ax",%progbits
  18              		.align	1
  19              		.syntax unified
  20              		.thumb
  21              		.thumb_func
  22              		.fpu fpv4-sp-d16
  23              		.type	_readt, %function
  24              	_readt:
  25              	.LFB330:
  26              		.file 1 "../../modules/ChibiOS/os/hal/src/hal_serial.c"
  27              		.loc 1 89 0
  28              		.cfi_startproc
  29              		@ args = 0, pretend = 0, frame = 0
  30              		@ frame_needed = 0, uses_anonymous_args = 0
  31              		@ link register save eliminated.
  32              	.LVL0:
  33              		.loc 1 91 0
  34 0000 0C30     		adds	r0, r0, #12
  35              	.LVL1:
  36 0002 FFF7FEBF 		b	iqReadTimeout
  37              	.LVL2:
  38              		.cfi_endproc
  39              	.LFE330:
  40              		.size	_readt, .-_readt
  41              		.section	.text._read,"ax",%progbits
  42              		.align	1
  43              		.syntax unified
  44              		.thumb
  45              		.thumb_func
  46              		.fpu fpv4-sp-d16
  47              		.type	_read, %function
  48              	_read:
  49              	.LFB324:
  50              		.loc 1 56 0
  51              		.cfi_startproc
  52              		@ args = 0, pretend = 0, frame = 0
  53              		@ frame_needed = 0, uses_anonymous_args = 0
  54              		@ link register save eliminated.
  55              	.LVL3:
  56              		.loc 1 58 0
  57 0000 4FF0FF33 		mov	r3, #-1
ARM GAS  /tmp/cchdv7B0.s 			page 2


  58 0004 0C30     		adds	r0, r0, #12
  59              	.LVL4:
  60 0006 FFF7FEBF 		b	iqReadTimeout
  61              	.LVL5:
  62              		.cfi_endproc
  63              	.LFE324:
  64              		.size	_read, .-_read
  65              		.section	.text._writet,"ax",%progbits
  66              		.align	1
  67              		.syntax unified
  68              		.thumb
  69              		.thumb_func
  70              		.fpu fpv4-sp-d16
  71              		.type	_writet, %function
  72              	_writet:
  73              	.LFB329:
  74              		.loc 1 83 0
  75              		.cfi_startproc
  76              		@ args = 0, pretend = 0, frame = 0
  77              		@ frame_needed = 0, uses_anonymous_args = 0
  78              		@ link register save eliminated.
  79              	.LVL6:
  80              		.loc 1 85 0
  81 0000 3030     		adds	r0, r0, #48
  82              	.LVL7:
  83 0002 FFF7FEBF 		b	oqWriteTimeout
  84              	.LVL8:
  85              		.cfi_endproc
  86              	.LFE329:
  87              		.size	_writet, .-_writet
  88              		.section	.text._write,"ax",%progbits
  89              		.align	1
  90              		.syntax unified
  91              		.thumb
  92              		.thumb_func
  93              		.fpu fpv4-sp-d16
  94              		.type	_write, %function
  95              	_write:
  96              	.LFB323:
  97              		.loc 1 50 0
  98              		.cfi_startproc
  99              		@ args = 0, pretend = 0, frame = 0
 100              		@ frame_needed = 0, uses_anonymous_args = 0
 101              		@ link register save eliminated.
 102              	.LVL9:
 103              		.loc 1 52 0
 104 0000 4FF0FF33 		mov	r3, #-1
 105 0004 3030     		adds	r0, r0, #48
 106              	.LVL10:
 107 0006 FFF7FEBF 		b	oqWriteTimeout
 108              	.LVL11:
 109              		.cfi_endproc
 110              	.LFE323:
 111              		.size	_write, .-_write
 112              		.section	.text._gett,"ax",%progbits
 113              		.align	1
 114              		.syntax unified
ARM GAS  /tmp/cchdv7B0.s 			page 3


 115              		.thumb
 116              		.thumb_func
 117              		.fpu fpv4-sp-d16
 118              		.type	_gett, %function
 119              	_gett:
 120              	.LFB328:
 121              		.loc 1 77 0
 122              		.cfi_startproc
 123              		@ args = 0, pretend = 0, frame = 0
 124              		@ frame_needed = 0, uses_anonymous_args = 0
 125              		@ link register save eliminated.
 126              	.LVL12:
 127              		.loc 1 79 0
 128 0000 0C30     		adds	r0, r0, #12
 129              	.LVL13:
 130 0002 FFF7FEBF 		b	iqGetTimeout
 131              	.LVL14:
 132              		.cfi_endproc
 133              	.LFE328:
 134              		.size	_gett, .-_gett
 135              		.section	.text._get,"ax",%progbits
 136              		.align	1
 137              		.syntax unified
 138              		.thumb
 139              		.thumb_func
 140              		.fpu fpv4-sp-d16
 141              		.type	_get, %function
 142              	_get:
 143              	.LFB326:
 144              		.loc 1 67 0
 145              		.cfi_startproc
 146              		@ args = 0, pretend = 0, frame = 0
 147              		@ frame_needed = 0, uses_anonymous_args = 0
 148              		@ link register save eliminated.
 149              	.LVL15:
 150              		.loc 1 69 0
 151 0000 4FF0FF31 		mov	r1, #-1
 152 0004 0C30     		adds	r0, r0, #12
 153              	.LVL16:
 154 0006 FFF7FEBF 		b	iqGetTimeout
 155              	.LVL17:
 156              		.cfi_endproc
 157              	.LFE326:
 158              		.size	_get, .-_get
 159              		.section	.text._putt,"ax",%progbits
 160              		.align	1
 161              		.syntax unified
 162              		.thumb
 163              		.thumb_func
 164              		.fpu fpv4-sp-d16
 165              		.type	_putt, %function
 166              	_putt:
 167              	.LFB327:
 168              		.loc 1 72 0
 169              		.cfi_startproc
 170              		@ args = 0, pretend = 0, frame = 0
 171              		@ frame_needed = 0, uses_anonymous_args = 0
ARM GAS  /tmp/cchdv7B0.s 			page 4


 172              		@ link register save eliminated.
 173              	.LVL18:
 174              		.loc 1 74 0
 175 0000 3030     		adds	r0, r0, #48
 176              	.LVL19:
 177 0002 FFF7FEBF 		b	oqPutTimeout
 178              	.LVL20:
 179              		.cfi_endproc
 180              	.LFE327:
 181              		.size	_putt, .-_putt
 182              		.section	.text._put,"ax",%progbits
 183              		.align	1
 184              		.syntax unified
 185              		.thumb
 186              		.thumb_func
 187              		.fpu fpv4-sp-d16
 188              		.type	_put, %function
 189              	_put:
 190              	.LFB325:
 191              		.loc 1 62 0
 192              		.cfi_startproc
 193              		@ args = 0, pretend = 0, frame = 0
 194              		@ frame_needed = 0, uses_anonymous_args = 0
 195              		@ link register save eliminated.
 196              	.LVL21:
 197              		.loc 1 64 0
 198 0000 4FF0FF32 		mov	r2, #-1
 199 0004 3030     		adds	r0, r0, #48
 200              	.LVL22:
 201 0006 FFF7FEBF 		b	oqPutTimeout
 202              	.LVL23:
 203              		.cfi_endproc
 204              	.LFE325:
 205              		.size	_put, .-_put
 206              		.section	.text._ctl,"ax",%progbits
 207              		.align	1
 208              		.syntax unified
 209              		.thumb
 210              		.thumb_func
 211              		.fpu fpv4-sp-d16
 212              		.type	_ctl, %function
 213              	_ctl:
 214              	.LFB342:
 215              		.cfi_startproc
 216              		@ args = 0, pretend = 0, frame = 0
 217              		@ frame_needed = 0, uses_anonymous_args = 0
 218              		@ link register save eliminated.
 219 0000 0020     		movs	r0, #0
 220 0002 7047     		bx	lr
 221              		.cfi_endproc
 222              	.LFE342:
 223              		.size	_ctl, .-_ctl
 224              		.section	.text.sdInit,"ax",%progbits
 225              		.align	1
 226              		.global	sdInit
 227              		.syntax unified
 228              		.thumb
ARM GAS  /tmp/cchdv7B0.s 			page 5


 229              		.thumb_func
 230              		.fpu fpv4-sp-d16
 231              		.type	sdInit, %function
 232              	sdInit:
 233              	.LFB332:
 234              		.loc 1 135 0
 235              		.cfi_startproc
 236              		@ args = 0, pretend = 0, frame = 0
 237              		@ frame_needed = 0, uses_anonymous_args = 0
 238              		@ link register save eliminated.
 239              		.loc 1 137 0
 240 0000 FFF7FEBF 		b	sd_lld_init
 241              	.LVL24:
 242              		.cfi_endproc
 243              	.LFE332:
 244              		.size	sdInit, .-sdInit
 245              		.section	.text.sdObjectInit,"ax",%progbits
 246              		.align	1
 247              		.global	sdObjectInit
 248              		.syntax unified
 249              		.thumb
 250              		.thumb_func
 251              		.fpu fpv4-sp-d16
 252              		.type	sdObjectInit, %function
 253              	sdObjectInit:
 254              	.LFB333:
 255              		.loc 1 158 0
 256              		.cfi_startproc
 257              		@ args = 0, pretend = 0, frame = 0
 258              		@ frame_needed = 0, uses_anonymous_args = 0
 259              	.LVL25:
 260 0000 37B5     		push	{r0, r1, r2, r4, r5, lr}
 261              		.cfi_def_cfa_offset 24
 262              		.cfi_offset 4, -12
 263              		.cfi_offset 5, -8
 264              		.cfi_offset 14, -4
 265              		.loc 1 160 0
 266 0002 0346     		mov	r3, r0
 267              		.loc 1 158 0
 268 0004 1546     		mov	r5, r2
 269              		.loc 1 160 0
 270 0006 0E4A     		ldr	r2, .L12
 271              	.LVL26:
 272 0008 43F8042B 		str	r2, [r3], #4
 273              	.LVL27:
 274              	.LBB92:
 275              	.LBB93:
 276              	.LBB94:
 277              		.file 2 "../../modules/ChibiOS/os/rt/include/chevents.h"
 278              		.loc 2 173 0
 279 000c 4360     		str	r3, [r0, #4]
 280              	.LVL28:
 281              	.LBE94:
 282              	.LBE93:
 283              	.LBE92:
 284              		.loc 1 162 0
 285 000e 0123     		movs	r3, #1
ARM GAS  /tmp/cchdv7B0.s 			page 6


 286              		.loc 1 158 0
 287 0010 0446     		mov	r4, r0
 288              		.loc 1 162 0
 289 0012 0372     		strb	r3, [r0, #8]
 290              		.loc 1 163 0
 291 0014 4FF40072 		mov	r2, #512
 292 0018 0090     		str	r0, [sp]
 293 001a 0B46     		mov	r3, r1
 294 001c 00F15401 		add	r1, r0, #84
 295              	.LVL29:
 296 0020 0C30     		adds	r0, r0, #12
 297              	.LVL30:
 298 0022 FFF7FEFF 		bl	iqObjectInit
 299              	.LVL31:
 300              		.loc 1 164 0
 301 0026 0094     		str	r4, [sp]
 302 0028 2B46     		mov	r3, r5
 303 002a 4FF40072 		mov	r2, #512
 304 002e 04F51571 		add	r1, r4, #596
 305 0032 04F13000 		add	r0, r4, #48
 306 0036 FFF7FEFF 		bl	oqObjectInit
 307              	.LVL32:
 308              		.loc 1 165 0
 309 003a 03B0     		add	sp, sp, #12
 310              		.cfi_def_cfa_offset 12
 311              		@ sp needed
 312 003c 30BD     		pop	{r4, r5, pc}
 313              	.LVL33:
 314              	.L13:
 315 003e 00BF     		.align	2
 316              	.L12:
 317 0040 00000000 		.word	.LANCHOR0
 318              		.cfi_endproc
 319              	.LFE333:
 320              		.size	sdObjectInit, .-sdObjectInit
 321              		.section	.text.sdStart,"ax",%progbits
 322              		.align	1
 323              		.global	sdStart
 324              		.syntax unified
 325              		.thumb
 326              		.thumb_func
 327              		.fpu fpv4-sp-d16
 328              		.type	sdStart, %function
 329              	sdStart:
 330              	.LFB334:
 331              		.loc 1 185 0
 332              		.cfi_startproc
 333              		@ args = 0, pretend = 0, frame = 0
 334              		@ frame_needed = 0, uses_anonymous_args = 0
 335              	.LVL34:
 336 0000 10B5     		push	{r4, lr}
 337              		.cfi_def_cfa_offset 8
 338              		.cfi_offset 4, -8
 339              		.cfi_offset 14, -4
 340              	.LBB95:
 341              	.LBB96:
 342              	.LBB97:
ARM GAS  /tmp/cchdv7B0.s 			page 7


 343              	.LBB98:
 344              	.LBB99:
 345              		.file 3 "../../modules/ChibiOS/os/common/ext/ARM/CMSIS/Core/Include/cmsis_gcc.h"
 346              		.loc 3 493 0
 347 0002 2023     		movs	r3, #32
 348              	.LBE99:
 349              	.LBE98:
 350              	.LBE97:
 351              	.LBE96:
 352              	.LBE95:
 353              		.loc 1 185 0
 354 0004 0446     		mov	r4, r0
 355              	.LBB104:
 356              	.LBB103:
 357              	.LBB102:
 358              	.LBB101:
 359              	.LBB100:
 360              		.loc 3 493 0
 361              		.syntax unified
 362              	@ 493 "../../modules/ChibiOS/os/common/ext/ARM/CMSIS/Core/Include/cmsis_gcc.h" 1
 363 0006 83F31188 		MSR basepri, r3
 364              	@ 0 "" 2
 365              	.LVL35:
 366              		.thumb
 367              		.syntax unified
 368              	.LBE100:
 369              	.LBE101:
 370              	.LBE102:
 371              	.LBE103:
 372              	.LBE104:
 373              		.loc 1 192 0
 374 000a FFF7FEFF 		bl	sd_lld_start
 375              	.LVL36:
 376              		.loc 1 193 0
 377 000e 0223     		movs	r3, #2
 378 0010 2372     		strb	r3, [r4, #8]
 379              	.LVL37:
 380              	.LBB105:
 381              	.LBB106:
 382              	.LBB107:
 383              	.LBB108:
 384              	.LBB109:
 385              	.LBB110:
 386              		.loc 3 493 0
 387 0012 0023     		movs	r3, #0
 388              		.syntax unified
 389              	@ 493 "../../modules/ChibiOS/os/common/ext/ARM/CMSIS/Core/Include/cmsis_gcc.h" 1
 390 0014 83F31188 		MSR basepri, r3
 391              	@ 0 "" 2
 392              	.LVL38:
 393              		.thumb
 394              		.syntax unified
 395 0018 10BD     		pop	{r4, pc}
 396              	.LBE110:
 397              	.LBE109:
 398              	.LBE108:
 399              	.LBE107:
ARM GAS  /tmp/cchdv7B0.s 			page 8


 400              	.LBE106:
 401              	.LBE105:
 402              		.cfi_endproc
 403              	.LFE334:
 404              		.size	sdStart, .-sdStart
 405              		.section	.text.sdStop,"ax",%progbits
 406              		.align	1
 407              		.global	sdStop
 408              		.syntax unified
 409              		.thumb
 410              		.thumb_func
 411              		.fpu fpv4-sp-d16
 412              		.type	sdStop, %function
 413              	sdStop:
 414              	.LFB335:
 415              		.loc 1 206 0
 416              		.cfi_startproc
 417              		@ args = 0, pretend = 0, frame = 0
 418              		@ frame_needed = 0, uses_anonymous_args = 0
 419              	.LVL39:
 420 0000 10B5     		push	{r4, lr}
 421              		.cfi_def_cfa_offset 8
 422              		.cfi_offset 4, -8
 423              		.cfi_offset 14, -4
 424              	.LBB111:
 425              	.LBB112:
 426              	.LBB113:
 427              	.LBB114:
 428              	.LBB115:
 429              		.loc 3 493 0
 430 0002 2023     		movs	r3, #32
 431              	.LBE115:
 432              	.LBE114:
 433              	.LBE113:
 434              	.LBE112:
 435              	.LBE111:
 436              		.loc 1 206 0
 437 0004 0446     		mov	r4, r0
 438              	.LBB120:
 439              	.LBB119:
 440              	.LBB118:
 441              	.LBB117:
 442              	.LBB116:
 443              		.loc 3 493 0
 444              		.syntax unified
 445              	@ 493 "../../modules/ChibiOS/os/common/ext/ARM/CMSIS/Core/Include/cmsis_gcc.h" 1
 446 0006 83F31188 		MSR basepri, r3
 447              	@ 0 "" 2
 448              	.LVL40:
 449              		.thumb
 450              		.syntax unified
 451              	.LBE116:
 452              	.LBE117:
 453              	.LBE118:
 454              	.LBE119:
 455              	.LBE120:
 456              		.loc 1 215 0
ARM GAS  /tmp/cchdv7B0.s 			page 9


 457 000a FFF7FEFF 		bl	sd_lld_stop
 458              	.LVL41:
 459              		.loc 1 216 0
 460 000e 0123     		movs	r3, #1
 461 0010 2372     		strb	r3, [r4, #8]
 462              		.loc 1 217 0
 463 0012 04F13000 		add	r0, r4, #48
 464 0016 FFF7FEFF 		bl	oqResetI
 465              	.LVL42:
 466              		.loc 1 218 0
 467 001a 04F10C00 		add	r0, r4, #12
 468 001e FFF7FEFF 		bl	iqResetI
 469              	.LVL43:
 470              	.LBB121:
 471              	.LBB122:
 472              		.file 4 "../../modules/ChibiOS/os/hal/osal/rt/osal.h"
 473              		.loc 4 618 0
 474 0022 FFF7FEFF 		bl	chSchRescheduleS
 475              	.LVL44:
 476              	.LBE122:
 477              	.LBE121:
 478              	.LBB123:
 479              	.LBB124:
 480              	.LBB125:
 481              	.LBB126:
 482              	.LBB127:
 483              	.LBB128:
 484              		.loc 3 493 0
 485 0026 0023     		movs	r3, #0
 486              		.syntax unified
 487              	@ 493 "../../modules/ChibiOS/os/common/ext/ARM/CMSIS/Core/Include/cmsis_gcc.h" 1
 488 0028 83F31188 		MSR basepri, r3
 489              	@ 0 "" 2
 490              	.LVL45:
 491              		.thumb
 492              		.syntax unified
 493 002c 10BD     		pop	{r4, pc}
 494              	.LBE128:
 495              	.LBE127:
 496              	.LBE126:
 497              	.LBE125:
 498              	.LBE124:
 499              	.LBE123:
 500              		.cfi_endproc
 501              	.LFE335:
 502              		.size	sdStop, .-sdStop
 503              		.section	.text.sdIncomingDataI,"ax",%progbits
 504              		.align	1
 505              		.global	sdIncomingDataI
 506              		.syntax unified
 507              		.thumb
 508              		.thumb_func
 509              		.fpu fpv4-sp-d16
 510              		.type	sdIncomingDataI, %function
 511              	sdIncomingDataI:
 512              	.LFB336:
 513              		.loc 1 240 0
ARM GAS  /tmp/cchdv7B0.s 			page 10


 514              		.cfi_startproc
 515              		@ args = 0, pretend = 0, frame = 0
 516              		@ frame_needed = 0, uses_anonymous_args = 0
 517              	.LVL46:
 518 0000 38B5     		push	{r3, r4, r5, lr}
 519              		.cfi_def_cfa_offset 16
 520              		.cfi_offset 3, -16
 521              		.cfi_offset 4, -12
 522              		.cfi_offset 5, -8
 523              		.cfi_offset 14, -4
 524              		.loc 1 245 0
 525 0002 4369     		ldr	r3, [r0, #20]
 526              		.loc 1 240 0
 527 0004 0446     		mov	r4, r0
 528 0006 0D46     		mov	r5, r1
 529              		.loc 1 245 0
 530 0008 1BB9     		cbnz	r3, .L17
 531              	.LVL47:
 532              	.LBB129:
 533              	.LBB130:
 534              		.loc 4 895 0
 535 000a 0421     		movs	r1, #4
 536              	.LVL48:
 537 000c 0844     		add	r0, r0, r1
 538              	.LVL49:
 539 000e FFF7FEFF 		bl	chEvtBroadcastFlagsI
 540              	.LVL50:
 541              	.L17:
 542              	.LBE130:
 543              	.LBE129:
 544              		.loc 1 247 0
 545 0012 2946     		mov	r1, r5
 546 0014 04F10C00 		add	r0, r4, #12
 547 0018 FFF7FEFF 		bl	iqPutI
 548              	.LVL51:
 549 001c 0028     		cmp	r0, #0
 550 001e 06DA     		bge	.L16
 551              	.LVL52:
 552              	.LBB131:
 553              	.LBB132:
 554              		.loc 4 895 0
 555 0020 201D     		adds	r0, r4, #4
 556              	.LVL53:
 557 0022 4FF48061 		mov	r1, #1024
 558              	.LBE132:
 559              	.LBE131:
 560              		.loc 1 249 0
 561 0026 BDE83840 		pop	{r3, r4, r5, lr}
 562              		.cfi_remember_state
 563              		.cfi_restore 14
 564              		.cfi_restore 5
 565              		.cfi_restore 4
 566              		.cfi_restore 3
 567              		.cfi_def_cfa_offset 0
 568              	.LVL54:
 569              	.LBB134:
 570              	.LBB133:
ARM GAS  /tmp/cchdv7B0.s 			page 11


 571              		.loc 4 895 0
 572 002a FFF7FEBF 		b	chEvtBroadcastFlagsI
 573              	.LVL55:
 574              	.L16:
 575              		.cfi_restore_state
 576 002e 38BD     		pop	{r3, r4, r5, pc}
 577              	.LBE133:
 578              	.LBE134:
 579              		.cfi_endproc
 580              	.LFE336:
 581              		.size	sdIncomingDataI, .-sdIncomingDataI
 582              		.section	.text.sdRequestDataI,"ax",%progbits
 583              		.align	1
 584              		.global	sdRequestDataI
 585              		.syntax unified
 586              		.thumb
 587              		.thumb_func
 588              		.fpu fpv4-sp-d16
 589              		.type	sdRequestDataI, %function
 590              	sdRequestDataI:
 591              	.LFB337:
 592              		.loc 1 266 0
 593              		.cfi_startproc
 594              		@ args = 0, pretend = 0, frame = 0
 595              		@ frame_needed = 0, uses_anonymous_args = 0
 596              	.LVL56:
 597 0000 38B5     		push	{r3, r4, r5, lr}
 598              		.cfi_def_cfa_offset 16
 599              		.cfi_offset 3, -16
 600              		.cfi_offset 4, -12
 601              		.cfi_offset 5, -8
 602              		.cfi_offset 14, -4
 603              		.loc 1 266 0
 604 0002 0446     		mov	r4, r0
 605              		.loc 1 272 0
 606 0004 3030     		adds	r0, r0, #48
 607              	.LVL57:
 608 0006 FFF7FEFF 		bl	oqGetI
 609              	.LVL58:
 610              		.loc 1 273 0
 611 000a 051E     		subs	r5, r0, #0
 612 000c 03DA     		bge	.L19
 613              	.LVL59:
 614              	.LBB135:
 615              	.LBB136:
 616              		.loc 4 895 0
 617 000e 0821     		movs	r1, #8
 618 0010 201D     		adds	r0, r4, #4
 619              	.LVL60:
 620 0012 FFF7FEFF 		bl	chEvtBroadcastFlagsI
 621              	.LVL61:
 622              	.L19:
 623              	.LBE136:
 624              	.LBE135:
 625              		.loc 1 276 0
 626 0016 2846     		mov	r0, r5
 627 0018 38BD     		pop	{r3, r4, r5, pc}
ARM GAS  /tmp/cchdv7B0.s 			page 12


 628              		.cfi_endproc
 629              	.LFE337:
 630              		.size	sdRequestDataI, .-sdRequestDataI
 631              		.section	.text.sdPutWouldBlock,"ax",%progbits
 632              		.align	1
 633              		.global	sdPutWouldBlock
 634              		.syntax unified
 635              		.thumb
 636              		.thumb_func
 637              		.fpu fpv4-sp-d16
 638              		.type	sdPutWouldBlock, %function
 639              	sdPutWouldBlock:
 640              	.LFB338:
 641              		.loc 1 293 0
 642              		.cfi_startproc
 643              		@ args = 0, pretend = 0, frame = 0
 644              		@ frame_needed = 0, uses_anonymous_args = 0
 645              		@ link register save eliminated.
 646              	.LVL62:
 647              	.LBB137:
 648              	.LBB138:
 649              	.LBB139:
 650              	.LBB140:
 651              	.LBB141:
 652              		.loc 3 493 0
 653 0000 2023     		movs	r3, #32
 654              		.syntax unified
 655              	@ 493 "../../modules/ChibiOS/os/common/ext/ARM/CMSIS/Core/Include/cmsis_gcc.h" 1
 656 0002 83F31188 		MSR basepri, r3
 657              	@ 0 "" 2
 658              	.LVL63:
 659              		.thumb
 660              		.syntax unified
 661              	.LBE141:
 662              	.LBE140:
 663              	.LBE139:
 664              	.LBE138:
 665              	.LBE137:
 666              	.LBB142:
 667              	.LBB143:
 668              	.LBB144:
 669              	.LBB145:
 670              	.LBB146:
 671              	.LBB147:
 672 0006 0023     		movs	r3, #0
 673              	.LBE147:
 674              	.LBE146:
 675              	.LBE145:
 676              	.LBE144:
 677              	.LBE143:
 678              	.LBE142:
 679              		.loc 1 297 0
 680 0008 806B     		ldr	r0, [r0, #56]
 681              	.LVL64:
 682              	.LBB153:
 683              	.LBB152:
 684              	.LBB151:
ARM GAS  /tmp/cchdv7B0.s 			page 13


 685              	.LBB150:
 686              	.LBB149:
 687              	.LBB148:
 688              		.loc 3 493 0
 689              		.syntax unified
 690              	@ 493 "../../modules/ChibiOS/os/common/ext/ARM/CMSIS/Core/Include/cmsis_gcc.h" 1
 691 000a 83F31188 		MSR basepri, r3
 692              	@ 0 "" 2
 693              	.LVL65:
 694              		.thumb
 695              		.syntax unified
 696              	.LBE148:
 697              	.LBE149:
 698              	.LBE150:
 699              	.LBE151:
 700              	.LBE152:
 701              	.LBE153:
 702              		.loc 1 301 0
 703 000e B0FA80F0 		clz	r0, r0
 704              	.LVL66:
 705 0012 4009     		lsrs	r0, r0, #5
 706 0014 7047     		bx	lr
 707              		.cfi_endproc
 708              	.LFE338:
 709              		.size	sdPutWouldBlock, .-sdPutWouldBlock
 710              		.section	.text.sdGetWouldBlock,"ax",%progbits
 711              		.align	1
 712              		.global	sdGetWouldBlock
 713              		.syntax unified
 714              		.thumb
 715              		.thumb_func
 716              		.fpu fpv4-sp-d16
 717              		.type	sdGetWouldBlock, %function
 718              	sdGetWouldBlock:
 719              	.LFB339:
 720              		.loc 1 318 0
 721              		.cfi_startproc
 722              		@ args = 0, pretend = 0, frame = 0
 723              		@ frame_needed = 0, uses_anonymous_args = 0
 724              		@ link register save eliminated.
 725              	.LVL67:
 726              	.LBB154:
 727              	.LBB155:
 728              	.LBB156:
 729              	.LBB157:
 730              	.LBB158:
 731              		.loc 3 493 0
 732 0000 2023     		movs	r3, #32
 733              		.syntax unified
 734              	@ 493 "../../modules/ChibiOS/os/common/ext/ARM/CMSIS/Core/Include/cmsis_gcc.h" 1
 735 0002 83F31188 		MSR basepri, r3
 736              	@ 0 "" 2
 737              	.LVL68:
 738              		.thumb
 739              		.syntax unified
 740              	.LBE158:
 741              	.LBE157:
ARM GAS  /tmp/cchdv7B0.s 			page 14


 742              	.LBE156:
 743              	.LBE155:
 744              	.LBE154:
 745              	.LBB159:
 746              	.LBB160:
 747              	.LBB161:
 748              	.LBB162:
 749              	.LBB163:
 750              	.LBB164:
 751 0006 0023     		movs	r3, #0
 752              	.LBE164:
 753              	.LBE163:
 754              	.LBE162:
 755              	.LBE161:
 756              	.LBE160:
 757              	.LBE159:
 758              		.loc 1 322 0
 759 0008 4069     		ldr	r0, [r0, #20]
 760              	.LVL69:
 761              	.LBB170:
 762              	.LBB169:
 763              	.LBB168:
 764              	.LBB167:
 765              	.LBB166:
 766              	.LBB165:
 767              		.loc 3 493 0
 768              		.syntax unified
 769              	@ 493 "../../modules/ChibiOS/os/common/ext/ARM/CMSIS/Core/Include/cmsis_gcc.h" 1
 770 000a 83F31188 		MSR basepri, r3
 771              	@ 0 "" 2
 772              	.LVL70:
 773              		.thumb
 774              		.syntax unified
 775              	.LBE165:
 776              	.LBE166:
 777              	.LBE167:
 778              	.LBE168:
 779              	.LBE169:
 780              	.LBE170:
 781              		.loc 1 326 0
 782 000e B0FA80F0 		clz	r0, r0
 783              	.LVL71:
 784 0012 4009     		lsrs	r0, r0, #5
 785 0014 7047     		bx	lr
 786              		.cfi_endproc
 787              	.LFE339:
 788              		.size	sdGetWouldBlock, .-sdGetWouldBlock
 789              		.section	.text.sdControl,"ax",%progbits
 790              		.align	1
 791              		.global	sdControl
 792              		.syntax unified
 793              		.thumb
 794              		.thumb_func
 795              		.fpu fpv4-sp-d16
 796              		.type	sdControl, %function
 797              	sdControl:
 798              	.LFB340:
ARM GAS  /tmp/cchdv7B0.s 			page 15


 799              		.loc 1 342 0
 800              		.cfi_startproc
 801              		@ args = 0, pretend = 0, frame = 0
 802              		@ frame_needed = 0, uses_anonymous_args = 0
 803              		@ link register save eliminated.
 804              	.LVL72:
 805              		.loc 1 345 0
 806 0000 0020     		movs	r0, #0
 807              	.LVL73:
 808 0002 7047     		bx	lr
 809              		.cfi_endproc
 810              	.LFE340:
 811              		.size	sdControl, .-sdControl
 812              		.section	.rodata.vmt,"a",%progbits
 813              		.align	2
 814              		.set	.LANCHOR0,. + 0
 815              		.type	vmt, %object
 816              		.size	vmt, 40
 817              	vmt:
 818 0000 00000000 		.word	0
 819 0004 00000000 		.word	_write
 820 0008 00000000 		.word	_read
 821 000c 00000000 		.word	_put
 822 0010 00000000 		.word	_get
 823 0014 00000000 		.word	_putt
 824 0018 00000000 		.word	_gett
 825 001c 00000000 		.word	_writet
 826 0020 00000000 		.word	_readt
 827 0024 00000000 		.word	_ctl
 828              		.text
 829              	.Letext0:
 830              		.file 5 "/opt/gcc-arm-none-eabi-6-2017-q2-update/lib/gcc/arm-none-eabi/6.3.1/include/stddef.h"
 831              		.file 6 "/opt/gcc-arm-none-eabi-6-2017-q2-update/arm-none-eabi/include/machine/_default_types.h"
 832              		.file 7 "/opt/gcc-arm-none-eabi-6-2017-q2-update/arm-none-eabi/include/sys/_stdint.h"
 833              		.file 8 "../../modules/ChibiOS/os/common/ports/ARMCMx/compilers/GCC/chtypes.h"
 834              		.file 9 "../../modules/ChibiOS/os/rt/include/chsystypes.h"
 835              		.file 10 "../../modules/ChibiOS/os/rt/include/chschd.h"
 836              		.file 11 "../../modules/ChibiOS/os/rt/include/chtime.h"
 837              		.file 12 "../../modules/ChibiOS/os/common/ext/ARM/CMSIS/Core/Include/core_cm4.h"
 838              		.file 13 "../../modules/ChibiOS/os/common/ext/ST/STM32F4xx/system_stm32f4xx.h"
 839              		.file 14 "../../modules/ChibiOS/os/common/ext/ST/STM32F4xx/stm32f427xx.h"
 840              		.file 15 "../../modules/ChibiOS/os/common/ports/ARMCMx/chcore.h"
 841              		.file 16 "../../modules/ChibiOS/os/common/ports/ARMCMx/chcore_v7m.h"
 842              		.file 17 "../../modules/ChibiOS/os/rt/include/chtm.h"
 843              		.file 18 "../../modules/ChibiOS/os/rt/include/chsem.h"
 844              		.file 19 "../../modules/ChibiOS/os/rt/include/chmtx.h"
 845              		.file 20 "../../modules/ChibiOS/os/rt/include/chsys.h"
 846              		.file 21 "../../modules/ChibiOS/os/rt/include/chregistry.h"
 847              		.file 22 "../../modules/ChibiOS/os/oslib/include/chmemcore.h"
 848              		.file 23 "../../modules/ChibiOS/os/oslib/include/chmempools.h"
 849              		.file 24 "../../modules/ChibiOS/os/oslib/include/chfactory.h"
 850              		.file 25 "../../modules/ChibiOS/os/hal/ports/STM32/LLD/DMAv2/stm32_dma.h"
 851              		.file 26 "../../modules/ChibiOS/os/hal/include/hal_queues.h"
 852              		.file 27 "../../modules/ChibiOS/os/hal/include/hal_pal.h"
 853              		.file 28 "../../modules/ChibiOS/os/hal/ports/STM32/LLD/GPIOv2/hal_pal_lld.h"
 854              		.file 29 "../../modules/ChibiOS/os/hal/include/hal_adc.h"
 855              		.file 30 "../../modules/ChibiOS/os/hal/ports/STM32/LLD/ADCv2/hal_adc_lld.h"
ARM GAS  /tmp/cchdv7B0.s 			page 16


 856              		.file 31 "../../modules/ChibiOS/os/hal/include/hal_serial.h"
 857              		.file 32 "../../modules/ChibiOS/os/hal/ports/STM32/LLD/USARTv1/hal_serial_lld.h"
 858              		.file 33 "../../modules/ChibiOS/os/hal/include/hal_usb.h"
 859              		.file 34 "../../modules/ChibiOS/os/hal/ports/STM32/LLD/OTGv1/hal_usb_lld.h"
 860              		.file 35 "../../modules/ChibiOS/os/hal/ports/STM32/LLD/OTGv1/stm32_otg.h"