ARM GAS  /tmp/cczzuzYi.s 			page 1


   1              		.cpu cortex-m4
   2              		.eabi_attribute 27, 1
   3              		.eabi_attribute 28, 1
   4              		.eabi_attribute 20, 1
   5              		.eabi_attribute 21, 1
   6              		.eabi_attribute 23, 3
   7              		.eabi_attribute 24, 1
   8              		.eabi_attribute 25, 1
   9              		.eabi_attribute 26, 1
  10              		.eabi_attribute 30, 4
  11              		.eabi_attribute 34, 1
  12              		.eabi_attribute 18, 4
  13              		.file	"hal_sdc.c"
  14              		.text
  15              	.Ltext0:
  16              		.cfi_sections	.debug_frame
  17              		.section	.text.sdcGetInfo,"ax",%progbits
  18              		.align	1
  19              		.global	sdcGetInfo
  20              		.syntax unified
  21              		.thumb
  22              		.thumb_func
  23              		.fpu fpv4-sp-d16
  24              		.type	sdcGetInfo, %function
  25              	sdcGetInfo:
  26              	.LFB346:
  27              		.file 1 "../../modules/ChibiOS/os/hal/src/hal_sdc.c"
  28              		.loc 1 927 0
  29              		.cfi_startproc
  30              		@ args = 0, pretend = 0, frame = 0
  31              		@ frame_needed = 0, uses_anonymous_args = 0
  32              		@ link register save eliminated.
  33              	.LVL0:
  34              		.loc 1 931 0
  35 0000 0379     		ldrb	r3, [r0, #4]	@ zero_extendqisi2
  36 0002 052B     		cmp	r3, #5
  37              		.loc 1 935 0
  38 0004 01BF     		itttt	eq
  39 0006 836A     		ldreq	r3, [r0, #40]
  40 0008 4B60     		streq	r3, [r1, #4]
  41              		.loc 1 936 0
  42 000a 4FF40073 		moveq	r3, #512
  43              		.loc 1 938 0
  44 000e 0020     		moveq	r0, #0
  45              	.LVL1:
  46              		.loc 1 936 0
  47 0010 0CBF     		ite	eq
  48 0012 0B60     		streq	r3, [r1]
  49              		.loc 1 932 0
  50 0014 0120     		movne	r0, #1
  51              		.loc 1 939 0
  52 0016 7047     		bx	lr
  53              		.cfi_endproc
  54              	.LFE346:
  55              		.size	sdcGetInfo, .-sdcGetInfo
  56              		.section	.text.sdcRead,"ax",%progbits
  57              		.align	1
ARM GAS  /tmp/cczzuzYi.s 			page 2


  58              		.global	sdcRead
  59              		.syntax unified
  60              		.thumb
  61              		.thumb_func
  62              		.fpu fpv4-sp-d16
  63              		.type	sdcRead, %function
  64              	sdcRead:
  65              	.LFB342:
  66              		.loc 1 805 0
  67              		.cfi_startproc
  68              		@ args = 0, pretend = 0, frame = 0
  69              		@ frame_needed = 0, uses_anonymous_args = 0
  70              	.LVL2:
  71 0000 70B5     		push	{r4, r5, r6, lr}
  72              		.cfi_def_cfa_offset 16
  73              		.cfi_offset 4, -16
  74              		.cfi_offset 5, -12
  75              		.cfi_offset 6, -8
  76              		.cfi_offset 14, -4
  77              		.loc 1 811 0
  78 0002 5D1E     		subs	r5, r3, #1
  79 0004 866A     		ldr	r6, [r0, #40]
  80 0006 0D44     		add	r5, r5, r1
  81 0008 B542     		cmp	r5, r6
  82              		.loc 1 805 0
  83 000a 0446     		mov	r4, r0
  84              		.loc 1 811 0
  85 000c 05D9     		bls	.L5
  86              		.loc 1 812 0
  87 000e 436B     		ldr	r3, [r0, #52]
  88              	.LVL3:
  89 0010 43F08003 		orr	r3, r3, #128
  90 0014 4363     		str	r3, [r0, #52]
  91              		.loc 1 813 0
  92 0016 0120     		movs	r0, #1
  93              	.LVL4:
  94 0018 70BD     		pop	{r4, r5, r6, pc}
  95              	.LVL5:
  96              	.L5:
  97              	.LBB118:
  98              	.LBB119:
  99              		.loc 1 817 0
 100 001a 0625     		movs	r5, #6
 101 001c 0571     		strb	r5, [r0, #4]
 102              		.loc 1 819 0
 103 001e FFF7FEFF 		bl	sdc_lld_read
 104              	.LVL6:
 105              		.loc 1 822 0
 106 0022 0523     		movs	r3, #5
 107 0024 2371     		strb	r3, [r4, #4]
 108              	.LVL7:
 109              	.LBE119:
 110              	.LBE118:
 111              		.loc 1 824 0
 112 0026 70BD     		pop	{r4, r5, r6, pc}
 113              		.cfi_endproc
 114              	.LFE342:
ARM GAS  /tmp/cczzuzYi.s 			page 3


 115              		.size	sdcRead, .-sdcRead
 116              		.section	.text.sdcWrite,"ax",%progbits
 117              		.align	1
 118              		.global	sdcWrite
 119              		.syntax unified
 120              		.thumb
 121              		.thumb_func
 122              		.fpu fpv4-sp-d16
 123              		.type	sdcWrite, %function
 124              	sdcWrite:
 125              	.LFB343:
 126              		.loc 1 843 0
 127              		.cfi_startproc
 128              		@ args = 0, pretend = 0, frame = 0
 129              		@ frame_needed = 0, uses_anonymous_args = 0
 130              	.LVL8:
 131 0000 70B5     		push	{r4, r5, r6, lr}
 132              		.cfi_def_cfa_offset 16
 133              		.cfi_offset 4, -16
 134              		.cfi_offset 5, -12
 135              		.cfi_offset 6, -8
 136              		.cfi_offset 14, -4
 137              		.loc 1 849 0
 138 0002 5D1E     		subs	r5, r3, #1
 139 0004 866A     		ldr	r6, [r0, #40]
 140 0006 0D44     		add	r5, r5, r1
 141 0008 B542     		cmp	r5, r6
 142              		.loc 1 843 0
 143 000a 0446     		mov	r4, r0
 144              		.loc 1 849 0
 145 000c 05D9     		bls	.L8
 146              		.loc 1 850 0
 147 000e 436B     		ldr	r3, [r0, #52]
 148              	.LVL9:
 149 0010 43F08003 		orr	r3, r3, #128
 150 0014 4363     		str	r3, [r0, #52]
 151              		.loc 1 851 0
 152 0016 0120     		movs	r0, #1
 153              	.LVL10:
 154 0018 70BD     		pop	{r4, r5, r6, pc}
 155              	.LVL11:
 156              	.L8:
 157              	.LBB122:
 158              	.LBB123:
 159              		.loc 1 855 0
 160 001a 0725     		movs	r5, #7
 161 001c 0571     		strb	r5, [r0, #4]
 162              		.loc 1 857 0
 163 001e FFF7FEFF 		bl	sdc_lld_write
 164              	.LVL12:
 165              		.loc 1 860 0
 166 0022 0523     		movs	r3, #5
 167 0024 2371     		strb	r3, [r4, #4]
 168              	.LVL13:
 169              	.LBE123:
 170              	.LBE122:
 171              		.loc 1 862 0
ARM GAS  /tmp/cczzuzYi.s 			page 4


 172 0026 70BD     		pop	{r4, r5, r6, pc}
 173              		.cfi_endproc
 174              	.LFE343:
 175              		.size	sdcWrite, .-sdcWrite
 176              		.section	.text.sdcSync,"ax",%progbits
 177              		.align	1
 178              		.global	sdcSync
 179              		.syntax unified
 180              		.thumb
 181              		.thumb_func
 182              		.fpu fpv4-sp-d16
 183              		.type	sdcSync, %function
 184              	sdcSync:
 185              	.LFB345:
 186              		.loc 1 896 0
 187              		.cfi_startproc
 188              		@ args = 0, pretend = 0, frame = 0
 189              		@ frame_needed = 0, uses_anonymous_args = 0
 190              	.LVL14:
 191 0000 38B5     		push	{r3, r4, r5, lr}
 192              		.cfi_def_cfa_offset 16
 193              		.cfi_offset 3, -16
 194              		.cfi_offset 4, -12
 195              		.cfi_offset 5, -8
 196              		.cfi_offset 14, -4
 197              		.loc 1 901 0
 198 0002 0579     		ldrb	r5, [r0, #4]	@ zero_extendqisi2
 199 0004 052D     		cmp	r5, #5
 200              		.loc 1 896 0
 201 0006 0446     		mov	r4, r0
 202              		.loc 1 901 0
 203 0008 05D1     		bne	.L12
 204              	.LVL15:
 205              	.LBB126:
 206              	.LBB127:
 207              		.loc 1 906 0
 208 000a 0823     		movs	r3, #8
 209 000c 0371     		strb	r3, [r0, #4]
 210              		.loc 1 908 0
 211 000e FFF7FEFF 		bl	sdc_lld_sync
 212              	.LVL16:
 213              		.loc 1 911 0
 214 0012 2571     		strb	r5, [r4, #4]
 215              	.LVL17:
 216 0014 38BD     		pop	{r3, r4, r5, pc}
 217              	.LVL18:
 218              	.L12:
 219              	.LBE127:
 220              	.LBE126:
 221              		.loc 1 902 0
 222 0016 0120     		movs	r0, #1
 223              	.LVL19:
 224              		.loc 1 913 0
 225 0018 38BD     		pop	{r3, r4, r5, pc}
 226              		.cfi_endproc
 227              	.LFE345:
 228              		.size	sdcSync, .-sdcSync
ARM GAS  /tmp/cczzuzYi.s 			page 5


 229              		.section	.text.sdcConnect,"ax",%progbits
 230              		.align	1
 231              		.global	sdcConnect
 232              		.syntax unified
 233              		.thumb
 234              		.thumb_func
 235              		.fpu fpv4-sp-d16
 236              		.type	sdcConnect, %function
 237              	sdcConnect:
 238              	.LFB340:
 239              		.loc 1 623 0
 240              		.cfi_startproc
 241              		@ args = 0, pretend = 0, frame = 8
 242              		@ frame_needed = 1, uses_anonymous_args = 0
 243              	.LVL20:
 244 0000 2DE9F043 		push	{r4, r5, r6, r7, r8, r9, lr}
 245              		.cfi_def_cfa_offset 28
 246              		.cfi_offset 4, -28
 247              		.cfi_offset 5, -24
 248              		.cfi_offset 6, -20
 249              		.cfi_offset 7, -16
 250              		.cfi_offset 8, -12
 251              		.cfi_offset 9, -8
 252              		.cfi_offset 14, -4
 253              		.loc 1 632 0
 254 0004 0323     		movs	r3, #3
 255              		.loc 1 623 0
 256 0006 85B0     		sub	sp, sp, #20
 257              		.cfi_def_cfa_offset 48
 258 0008 02AF     		add	r7, sp, #8
 259              		.cfi_def_cfa 7, 40
 260              		.loc 1 632 0
 261 000a 0371     		strb	r3, [r0, #4]
 262              		.loc 1 623 0
 263 000c 0446     		mov	r4, r0
 264              		.loc 1 635 0
 265 000e FFF7FEFF 		bl	sdc_lld_start_clk
 266              	.LVL21:
 267              		.loc 1 638 0
 268 0012 0022     		movs	r2, #0
 269 0014 1146     		mov	r1, r2
 270 0016 2046     		mov	r0, r4
 271 0018 FFF7FEFF 		bl	sdc_lld_send_cmd_none
 272              	.LVL22:
 273              	.LBB153:
 274              	.LBB154:
 275              		.loc 1 104 0
 276 001c 4FF4D572 		mov	r2, #426
 277 0020 3B1D     		adds	r3, r7, #4
 278 0022 0821     		movs	r1, #8
 279 0024 2046     		mov	r0, r4
 280 0026 FFF7FEFF 		bl	sdc_lld_send_cmd_short_crc
 281              	.LVL23:
 282 002a 0246     		mov	r2, r0
 283 002c F0B9     		cbnz	r0, .L14
 284              		.loc 1 106 0
 285 002e 0123     		movs	r3, #1
ARM GAS  /tmp/cczzuzYi.s 			page 6


 286 0030 2363     		str	r3, [r4, #48]
 287              		.loc 1 108 0
 288 0032 7B68     		ldr	r3, [r7, #4]
 289 0034 C3F30323 		ubfx	r3, r3, #8, #4
 290 0038 012B     		cmp	r3, #1
 291 003a 40F01381 		bne	.L42
 292              		.loc 1 111 0
 293 003e 3B1D     		adds	r3, r7, #4
 294 0040 3721     		movs	r1, #55
 295 0042 2046     		mov	r0, r4
 296 0044 FFF7FEFF 		bl	sdc_lld_send_cmd_short_crc
 297              	.LVL24:
 298 0048 0028     		cmp	r0, #0
 299 004a 40F00B81 		bne	.L42
 300              		.loc 1 112 0
 301 004e AF4B     		ldr	r3, .L85
 302 0050 7A68     		ldr	r2, [r7, #4]
 303 0052 1340     		ands	r3, r3, r2
 304              		.loc 1 111 0
 305 0054 002B     		cmp	r3, #0
 306 0056 40F00581 		bne	.L42
 307              	.L16:
 308              	.LVL25:
 309              	.LBE154:
 310              	.LBE153:
 311              		.loc 1 646 0
 312 005a 236B     		ldr	r3, [r4, #48]
 313 005c 03F00F03 		and	r3, r3, #15
 314 0060 022B     		cmp	r3, #2
 315 0062 40F0BB80 		bne	.L53
 316 0066 6425     		movs	r5, #100
 317              	.LBB156:
 318              	.LBB157:
 319              		.loc 1 152 0
 320 0068 A94E     		ldr	r6, .L85+4
 321 006a 1AE0     		b	.L22
 322              	.LVL26:
 323              	.L14:
 324              	.LBE157:
 325              	.LBE156:
 326              	.LBB161:
 327              	.LBB155:
 328              		.loc 1 118 0
 329 006c 3B1D     		adds	r3, r7, #4
 330 006e 0022     		movs	r2, #0
 331 0070 3721     		movs	r1, #55
 332 0072 2046     		mov	r0, r4
 333 0074 FFF7FEFF 		bl	sdc_lld_send_cmd_short_crc
 334              	.LVL27:
 335 0078 18B9     		cbnz	r0, .L17
 336              		.loc 1 119 0
 337 007a A44A     		ldr	r2, .L85
 338 007c 7B68     		ldr	r3, [r7, #4]
 339 007e 1A40     		ands	r2, r2, r3
 340              		.loc 1 118 0
 341 0080 12B1     		cbz	r2, .L18
 342              	.L17:
ARM GAS  /tmp/cczzuzYi.s 			page 7


 343              		.loc 1 120 0
 344 0082 0223     		movs	r3, #2
 345 0084 2363     		str	r3, [r4, #48]
 346 0086 E8E7     		b	.L16
 347              	.L18:
 348              		.loc 1 123 0
 349 0088 2263     		str	r2, [r4, #48]
 350              		.loc 1 126 0
 351 008a 1146     		mov	r1, r2
 352 008c 2046     		mov	r0, r4
 353 008e FFF7FEFF 		bl	sdc_lld_send_cmd_none
 354              	.LVL28:
 355 0092 E2E7     		b	.L16
 356              	.LVL29:
 357              	.L20:
 358              	.LBE155:
 359              	.LBE161:
 360              	.LBB162:
 361              	.LBB160:
 362              		.loc 1 161 0
 363 0094 013D     		subs	r5, r5, #1
 364              	.LVL30:
 365 0096 00F0E580 		beq	.L42
 366              	.LVL31:
 367              	.LBB158:
 368              	.LBB159:
 369              		.file 2 "../../modules/ChibiOS/os/hal/osal/rt/osal.h"
 370              		.loc 2 720 0
 371 009a 42F21070 		movw	r0, #10000
 372 009e FFF7FEFF 		bl	chThdSleep
 373              	.LVL32:
 374              	.L22:
 375              	.LBE159:
 376              	.LBE158:
 377              		.loc 1 152 0
 378 00a2 3B1D     		adds	r3, r7, #4
 379 00a4 3246     		mov	r2, r6
 380 00a6 0121     		movs	r1, #1
 381 00a8 2046     		mov	r0, r4
 382 00aa FFF7FEFF 		bl	sdc_lld_send_cmd_short
 383              	.LVL33:
 384 00ae 0028     		cmp	r0, #0
 385 00b0 40F0D880 		bne	.L42
 386              		.loc 1 155 0
 387 00b4 7B68     		ldr	r3, [r7, #4]
 388 00b6 002B     		cmp	r3, #0
 389 00b8 ECDA     		bge	.L20
 390              	.LVL34:
 391              	.L84:
 392              	.LBE160:
 393              	.LBE162:
 394              	.LBB163:
 395              	.LBB164:
 396              		.loc 1 203 0
 397 00ba 5A00     		lsls	r2, r3, #1
 398 00bc 03D5     		bpl	.L54
 399              		.loc 1 204 0
ARM GAS  /tmp/cczzuzYi.s 			page 8


 400 00be 236B     		ldr	r3, [r4, #48]
 401 00c0 43F01003 		orr	r3, r3, #16
 402 00c4 2363     		str	r3, [r4, #48]
 403              	.L54:
 404              	.LBE164:
 405              	.LBE163:
 406              		.loc 1 658 0
 407 00c6 0022     		movs	r2, #0
 408 00c8 04F10803 		add	r3, r4, #8
 409 00cc 0221     		movs	r1, #2
 410 00ce 2046     		mov	r0, r4
 411 00d0 FFF7FEFF 		bl	sdc_lld_send_cmd_long_crc
 412              	.LVL35:
 413 00d4 0246     		mov	r2, r0
 414 00d6 0028     		cmp	r0, #0
 415 00d8 40F0C480 		bne	.L42
 416              		.loc 1 663 0
 417 00dc 04F13803 		add	r3, r4, #56
 418 00e0 0321     		movs	r1, #3
 419 00e2 2046     		mov	r0, r4
 420 00e4 FFF7FEFF 		bl	sdc_lld_send_cmd_short_crc
 421              	.LVL36:
 422 00e8 0028     		cmp	r0, #0
 423 00ea 40F0BB80 		bne	.L42
 424              		.loc 1 670 0
 425 00ee 04F11806 		add	r6, r4, #24
 426              		.loc 1 669 0
 427 00f2 3346     		mov	r3, r6
 428 00f4 A26B     		ldr	r2, [r4, #56]
 429 00f6 0921     		movs	r1, #9
 430 00f8 2046     		mov	r0, r4
 431 00fa FFF7FEFF 		bl	sdc_lld_send_cmd_long_crc
 432              	.LVL37:
 433 00fe 0028     		cmp	r0, #0
 434 0100 40F0B080 		bne	.L42
 435              		.loc 1 675 0
 436 0104 3B46     		mov	r3, r7
 437 0106 A26B     		ldr	r2, [r4, #56]
 438 0108 0721     		movs	r1, #7
 439 010a 2046     		mov	r0, r4
 440 010c FFF7FEFF 		bl	sdc_lld_send_cmd_short_crc
 441              	.LVL38:
 442 0110 0546     		mov	r5, r0
 443 0112 0028     		cmp	r0, #0
 444 0114 40F0A680 		bne	.L42
 445              	.LVL39:
 446              	.LBB168:
 447              	.LBB169:
 448              		.loc 1 409 0
 449 0118 236B     		ldr	r3, [r4, #48]
 450 011a 03F00F03 		and	r3, r3, #15
 451 011e 022B     		cmp	r3, #2
 452 0120 40F09180 		bne	.L29
 453              	.LVL40:
 454              	.LBB170:
 455              	.LBB171:
 456              		.loc 1 376 0
ARM GAS  /tmp/cczzuzYi.s 			page 9


 457 0124 E36A     		ldr	r3, [r4, #44]
 458              		.loc 1 382 0
 459 0126 1B68     		ldr	r3, [r3]
 460 0128 002B     		cmp	r3, #0
 461 012a 7CD1     		bne	.L30
 462              	.LVL41:
 463              	.L32:
 464              		.loc 1 379 0
 465 012c 0021     		movs	r1, #0
 466              	.LVL42:
 467              	.L33:
 468              	.LBE171:
 469              	.LBE170:
 470              	.LBE169:
 471              	.LBE168:
 472              		.loc 1 684 0
 473 012e 2046     		mov	r0, r4
 474 0130 FFF7FEFF 		bl	sdc_lld_set_data_clk
 475              	.LVL43:
 476              		.loc 1 687 0
 477 0134 236B     		ldr	r3, [r4, #48]
 478 0136 03F00F03 		and	r3, r3, #15
 479 013a 022B     		cmp	r3, #2
 480 013c 40F0BB80 		bne	.L39
 481              		.loc 1 690 0
 482 0140 7E22     		movs	r2, #126
 483 0142 7F21     		movs	r1, #127
 484 0144 3046     		mov	r0, r6
 485 0146 FFF7FEFF 		bl	_mmcsd_get_slice
 486              	.LVL44:
 487 014a 0128     		cmp	r0, #1
 488 014c 40F2B380 		bls	.L39
 489              	.LBB184:
 490              		.loc 1 691 0
 491 0150 E36A     		ldr	r3, [r4, #44]
 492 0152 1D68     		ldr	r5, [r3]
 493              	.LVL45:
 494              		.loc 1 694 0
 495 0154 002D     		cmp	r5, #0
 496 0156 00F08580 		beq	.L42
 497              		.loc 1 698 0
 498 015a 0023     		movs	r3, #0
 499 015c 0093     		str	r3, [sp]
 500 015e 4FF40072 		mov	r2, #512
 501 0162 0823     		movs	r3, #8
 502 0164 2946     		mov	r1, r5
 503 0166 2046     		mov	r0, r4
 504 0168 FFF7FEFF 		bl	sdc_lld_read_special
 505              	.LVL46:
 506 016c 0028     		cmp	r0, #0
 507 016e 79D1     		bne	.L42
 508              		.loc 1 703 0
 509 0170 2846     		mov	r0, r5
 510 0172 FFF7FEFF 		bl	_mmcsd_get_capacity_ext
 511              	.LVL47:
 512              	.L81:
 513              	.LBE184:
ARM GAS  /tmp/cczzuzYi.s 			page 10


 514              		.loc 1 712 0
 515 0176 A062     		str	r0, [r4, #40]
 516              		.loc 1 716 0
 517 0178 3B46     		mov	r3, r7
 518 017a 4FF40072 		mov	r2, #512
 519 017e 1021     		movs	r1, #16
 520 0180 2046     		mov	r0, r4
 521 0182 FFF7FEFF 		bl	sdc_lld_send_cmd_short_crc
 522              	.LVL48:
 523 0186 0646     		mov	r6, r0
 524 0188 0028     		cmp	r0, #0
 525 018a 6BD1     		bne	.L42
 526              		.loc 1 718 0
 527 018c 5F4D     		ldr	r5, .L85
 528              		.loc 1 717 0
 529 018e 3B68     		ldr	r3, [r7]
 530 0190 2B42     		tst	r3, r5
 531 0192 A846     		mov	r8, r5
 532 0194 66D1     		bne	.L42
 533              		.loc 1 723 0
 534 0196 236B     		ldr	r3, [r4, #48]
 535 0198 03F00F03 		and	r3, r3, #15
 536 019c 012B     		cmp	r3, #1
 537 019e 40F28E80 		bls	.L43
 538 01a2 022B     		cmp	r3, #2
 539 01a4 5ED1     		bne	.L42
 540              	.LVL49:
 541              	.LBB185:
 542              	.LBB186:
 543              		.loc 1 468 0
 544 01a6 E36A     		ldr	r3, [r4, #44]
 545 01a8 1979     		ldrb	r1, [r3, #4]	@ zero_extendqisi2
 546 01aa 0129     		cmp	r1, #1
 547 01ac 00F0AC80 		beq	.L57
 548 01b0 C0F0A380 		bcc	.L55
 549              		.loc 1 466 0
 550 01b4 574A     		ldr	r2, .L85+8
 551 01b6 584D     		ldr	r5, .L85+12
 552 01b8 0229     		cmp	r1, #2
 553 01ba 18BF     		it	ne
 554 01bc 1546     		movne	r5, r2
 555              	.L48:
 556              	.LVL50:
 557              		.loc 1 483 0
 558 01be 2046     		mov	r0, r4
 559 01c0 FFF7FEFF 		bl	sdc_lld_set_bus_mode
 560              	.LVL51:
 561              		.loc 1 484 0
 562 01c4 3B1D     		adds	r3, r7, #4
 563 01c6 2A46     		mov	r2, r5
 564 01c8 0621     		movs	r1, #6
 565 01ca 2046     		mov	r0, r4
 566 01cc FFF7FEFF 		bl	sdc_lld_send_cmd_short_crc
 567              	.LVL52:
 568 01d0 0028     		cmp	r0, #0
 569 01d2 47D1     		bne	.L42
 570 01d4 7B68     		ldr	r3, [r7, #4]
ARM GAS  /tmp/cczzuzYi.s 			page 11


 571 01d6 13EA080F 		tst	r3, r8
 572 01da 8DE0     		b	.L82
 573              	.LVL53:
 574              	.L53:
 575              	.LBE186:
 576              	.LBE185:
 577              	.LBB189:
 578              	.LBB167:
 579              		.loc 1 190 0
 580 01dc 4F4A     		ldr	r2, .L85+16
 581 01de 504D     		ldr	r5, .L85+20
 582              		.loc 1 196 0
 583 01e0 DFF82881 		ldr	r8, .L85
 584              		.loc 1 190 0
 585 01e4 012B     		cmp	r3, #1
 586 01e6 18BF     		it	ne
 587 01e8 1546     		movne	r5, r2
 588              	.LVL54:
 589 01ea 6426     		movs	r6, #100
 590              	.LVL55:
 591              	.L27:
 592              		.loc 1 195 0
 593 01ec 3B1D     		adds	r3, r7, #4
 594 01ee 0022     		movs	r2, #0
 595 01f0 3721     		movs	r1, #55
 596 01f2 2046     		mov	r0, r4
 597 01f4 FFF7FEFF 		bl	sdc_lld_send_cmd_short_crc
 598              	.LVL56:
 599 01f8 A0BB     		cbnz	r0, .L42
 600 01fa 7B68     		ldr	r3, [r7, #4]
 601 01fc 13EA080F 		tst	r3, r8
 602 0200 30D1     		bne	.L42
 603              		.loc 1 199 0
 604 0202 3B1D     		adds	r3, r7, #4
 605 0204 2A46     		mov	r2, r5
 606 0206 2921     		movs	r1, #41
 607 0208 2046     		mov	r0, r4
 608 020a FFF7FEFF 		bl	sdc_lld_send_cmd_short
 609              	.LVL57:
 610 020e 48BB     		cbnz	r0, .L42
 611              		.loc 1 202 0
 612 0210 7B68     		ldr	r3, [r7, #4]
 613 0212 002B     		cmp	r3, #0
 614 0214 FFF651AF 		blt	.L84
 615              	.LVL58:
 616              		.loc 1 208 0
 617 0218 013E     		subs	r6, r6, #1
 618              	.LVL59:
 619 021a 23D0     		beq	.L42
 620              	.LVL60:
 621              	.LBB165:
 622              	.LBB166:
 623              		.loc 2 720 0
 624 021c 42F21070 		movw	r0, #10000
 625 0220 FFF7FEFF 		bl	chThdSleep
 626              	.LVL61:
 627 0224 E2E7     		b	.L27
ARM GAS  /tmp/cczzuzYi.s 			page 12


 628              	.LVL62:
 629              	.L30:
 630              	.LBE166:
 631              	.LBE165:
 632              	.LBE167:
 633              	.LBE189:
 634              	.LBB190:
 635              	.LBB182:
 636              	.LBB173:
 637              	.LBB172:
 638              		.loc 1 387 0
 639 0226 3B1D     		adds	r3, r7, #4
 640              	.LVL63:
 641 0228 3E4A     		ldr	r2, .L85+24
 642 022a 0621     		movs	r1, #6
 643 022c 2046     		mov	r0, r4
 644 022e FFF7FEFF 		bl	sdc_lld_send_cmd_short_crc
 645              	.LVL64:
 646 0232 0028     		cmp	r0, #0
 647 0234 7FF47AAF 		bne	.L32
 648              		.loc 1 388 0
 649 0238 3449     		ldr	r1, .L85
 650 023a 7B68     		ldr	r3, [r7, #4]
 651 023c 1940     		ands	r1, r1, r3
 652              		.loc 1 379 0
 653 023e B1FA81F1 		clz	r1, r1
 654 0242 4909     		lsrs	r1, r1, #5
 655              	.LVL65:
 656 0244 73E7     		b	.L33
 657              	.LVL66:
 658              	.L29:
 659              	.LBE172:
 660              	.LBE173:
 661              	.LBB174:
 662              	.LBB175:
 663              		.loc 1 319 0
 664 0246 E846     		mov	r8, sp
 665              	.LVL67:
 666              		.loc 1 329 0
 667 0248 7E22     		movs	r2, #126
 668              		.loc 1 322 0
 669 024a 90B0     		sub	sp, sp, #64
 670              		.loc 1 329 0
 671 024c 7F21     		movs	r1, #127
 672 024e 3046     		mov	r0, r6
 673              		.loc 1 322 0
 674 0250 0DF10809 		add	r9, sp, #8
 675              	.LVL68:
 676              		.loc 1 329 0
 677 0254 FFF7FEFF 		bl	_mmcsd_get_slice
 678              	.LVL69:
 679 0258 58B9     		cbnz	r0, .L34
 680              	.L37:
 681              		.loc 1 330 0
 682 025a 0021     		movs	r1, #0
 683              	.L35:
 684              	.LVL70:
ARM GAS  /tmp/cczzuzYi.s 			page 13


 685 025c C546     		mov	sp, r8
 686              	.LVL71:
 687              	.LBE175:
 688              	.LBE174:
 689              	.LBE182:
 690              	.LBE190:
 691              		.loc 1 681 0
 692 025e 002D     		cmp	r5, #0
 693 0260 3FF465AF 		beq	.L33
 694              	.LVL72:
 695              	.L42:
 696              		.loc 1 746 0
 697 0264 2046     		mov	r0, r4
 698 0266 FFF7FEFF 		bl	sdc_lld_stop_clk
 699              	.LVL73:
 700              		.loc 1 747 0
 701 026a 0223     		movs	r3, #2
 702 026c 2371     		strb	r3, [r4, #4]
 703              		.loc 1 748 0
 704 026e 0126     		movs	r6, #1
 705 0270 45E0     		b	.L79
 706              	.LVL74:
 707              	.L34:
 708              	.LBB191:
 709              	.LBB183:
 710              	.LBB181:
 711              	.LBB180:
 712              		.loc 1 335 0
 713 0272 0095     		str	r5, [sp]
 714 0274 0623     		movs	r3, #6
 715 0276 4022     		movs	r2, #64
 716 0278 4946     		mov	r1, r9
 717 027a 2046     		mov	r0, r4
 718 027c FFF7FEFF 		bl	sdc_lld_read_special
 719              	.LVL75:
 720 0280 10B1     		cbz	r0, .L36
 721              	.L38:
 722              		.loc 1 325 0
 723 0282 0021     		movs	r1, #0
 724              		.loc 1 336 0
 725 0284 0125     		movs	r5, #1
 726 0286 E9E7     		b	.L35
 727              	.L36:
 728              	.LBB176:
 729              	.LBB177:
 730              		.loc 1 276 0
 731 0288 99F80D30 		ldrb	r3, [r9, #13]	@ zero_extendqisi2
 732              	.LBE177:
 733              	.LBE176:
 734              		.loc 1 340 0
 735 028c 9B07     		lsls	r3, r3, #30
 736 028e E4D5     		bpl	.L37
 737              		.loc 1 345 0
 738 0290 254B     		ldr	r3, .L85+28
 739 0292 0093     		str	r3, [sp]
 740 0294 4022     		movs	r2, #64
 741 0296 0623     		movs	r3, #6
ARM GAS  /tmp/cczzuzYi.s 			page 14


 742 0298 4946     		mov	r1, r9
 743 029a 2046     		mov	r0, r4
 744 029c FFF7FEFF 		bl	sdc_lld_read_special
 745              	.LVL76:
 746 02a0 0546     		mov	r5, r0
 747 02a2 0028     		cmp	r0, #0
 748 02a4 EDD1     		bne	.L38
 749              	.LVL77:
 750              	.LBB178:
 751              	.LBB179:
 752              		.loc 1 299 0
 753 02a6 99F81010 		ldrb	r1, [r9, #16]	@ zero_extendqisi2
 754              		.loc 1 300 0
 755 02aa 01F00F01 		and	r1, r1, #15
 756              	.LBE179:
 757              	.LBE178:
 758              		.loc 1 330 0
 759 02ae 0F39     		subs	r1, r1, #15
 760 02b0 18BF     		it	ne
 761 02b2 0121     		movne	r1, #1
 762 02b4 D2E7     		b	.L35
 763              	.LVL78:
 764              	.L39:
 765              	.LBE180:
 766              	.LBE181:
 767              	.LBE183:
 768              	.LBE191:
 769              		.loc 1 712 0
 770 02b6 3046     		mov	r0, r6
 771 02b8 FFF7FEFF 		bl	_mmcsd_get_capacity
 772              	.LVL79:
 773 02bc 5BE7     		b	.L81
 774              	.L43:
 775              	.LVL80:
 776              	.LBB192:
 777              	.LBB193:
 778              		.loc 1 429 0
 779 02be E36A     		ldr	r3, [r4, #44]
 780 02c0 1979     		ldrb	r1, [r3, #4]	@ zero_extendqisi2
 781 02c2 D1B1     		cbz	r1, .L55
 782              		.loc 1 433 0
 783 02c4 0129     		cmp	r1, #1
 784 02c6 CDD1     		bne	.L42
 785              		.loc 1 434 0
 786 02c8 2046     		mov	r0, r4
 787 02ca FFF7FEFF 		bl	sdc_lld_set_bus_mode
 788              	.LVL81:
 789              		.loc 1 435 0
 790 02ce 3B1D     		adds	r3, r7, #4
 791 02d0 A26B     		ldr	r2, [r4, #56]
 792 02d2 3721     		movs	r1, #55
 793 02d4 2046     		mov	r0, r4
 794 02d6 FFF7FEFF 		bl	sdc_lld_send_cmd_short_crc
 795              	.LVL82:
 796 02da 0028     		cmp	r0, #0
 797 02dc C2D1     		bne	.L42
 798 02de 7B68     		ldr	r3, [r7, #4]
ARM GAS  /tmp/cczzuzYi.s 			page 15


 799 02e0 2B42     		tst	r3, r5
 800 02e2 BFD1     		bne	.L42
 801              		.loc 1 440 0
 802 02e4 3B1D     		adds	r3, r7, #4
 803 02e6 0222     		movs	r2, #2
 804 02e8 0621     		movs	r1, #6
 805 02ea 2046     		mov	r0, r4
 806 02ec FFF7FEFF 		bl	sdc_lld_send_cmd_short_crc
 807              	.LVL83:
 808 02f0 0028     		cmp	r0, #0
 809 02f2 B7D1     		bne	.L42
 810 02f4 7B68     		ldr	r3, [r7, #4]
 811 02f6 2B42     		tst	r3, r5
 812              	.LVL84:
 813              	.L82:
 814              	.LBE193:
 815              	.LBE192:
 816              	.LBB194:
 817              	.LBB187:
 818              		.loc 1 484 0
 819 02f8 B4D1     		bne	.L42
 820              	.L55:
 821              	.LBE187:
 822              	.LBE194:
 823              		.loc 1 741 0
 824 02fa 0523     		movs	r3, #5
 825 02fc 2371     		strb	r3, [r4, #4]
 826              	.L79:
 827              		.loc 1 749 0
 828 02fe 3046     		mov	r0, r6
 829 0300 0C37     		adds	r7, r7, #12
 830              		.cfi_remember_state
 831              		.cfi_def_cfa_offset 28
 832 0302 BD46     		mov	sp, r7
 833              		.cfi_def_cfa_register 13
 834              		@ sp needed
 835 0304 BDE8F083 		pop	{r4, r5, r6, r7, r8, r9, pc}
 836              	.LVL85:
 837              	.L57:
 838              		.cfi_restore_state
 839              	.LBB195:
 840              	.LBB188:
 841              		.loc 1 473 0
 842 0308 084D     		ldr	r5, .L85+32
 843 030a 58E7     		b	.L48
 844              	.L86:
 845              		.align	2
 846              	.L85:
 847 030c 08E0FFFD 		.word	-33562616
 848 0310 0080FFC0 		.word	-1056997376
 849 0314 0000B703 		.word	62324736
 850 0318 0002B703 		.word	62325248
 851 031c 00001080 		.word	-2146435072
 852 0320 0080FF50 		.word	1358921728
 853 0324 0001B903 		.word	62456064
 854 0328 F1FFFF80 		.word	-2130706447
 855 032c 0001B703 		.word	62324992
ARM GAS  /tmp/cczzuzYi.s 			page 16


 856              	.LBE188:
 857              	.LBE195:
 858              		.cfi_endproc
 859              	.LFE340:
 860              		.size	sdcConnect, .-sdcConnect
 861              		.section	.text._sdc_wait_for_transfer_state,"ax",%progbits
 862              		.align	1
 863              		.global	_sdc_wait_for_transfer_state
 864              		.syntax unified
 865              		.thumb
 866              		.thumb_func
 867              		.fpu fpv4-sp-d16
 868              		.type	_sdc_wait_for_transfer_state, %function
 869              	_sdc_wait_for_transfer_state:
 870              	.LFB335:
 871              		.loc 1 503 0
 872              		.cfi_startproc
 873              		@ args = 0, pretend = 0, frame = 8
 874              		@ frame_needed = 0, uses_anonymous_args = 0
 875              	.LVL86:
 876 0000 37B5     		push	{r0, r1, r2, r4, r5, lr}
 877              		.cfi_def_cfa_offset 24
 878              		.cfi_offset 4, -12
 879              		.cfi_offset 5, -8
 880              		.cfi_offset 14, -4
 881              		.loc 1 509 0
 882 0002 0D4D     		ldr	r5, .L97
 883              		.loc 1 503 0
 884 0004 0446     		mov	r4, r0
 885              	.LVL87:
 886              	.L91:
 887              		.loc 1 507 0
 888 0006 01AB     		add	r3, sp, #4
 889 0008 A26B     		ldr	r2, [r4, #56]
 890 000a 0D21     		movs	r1, #13
 891 000c 2046     		mov	r0, r4
 892 000e FFF7FEFF 		bl	sdc_lld_send_cmd_short_crc
 893              	.LVL88:
 894 0012 50B9     		cbnz	r0, .L88
 895              		.loc 1 509 0
 896 0014 019B     		ldr	r3, [sp, #4]
 897              		.loc 1 508 0
 898 0016 2B42     		tst	r3, r5
 899 0018 06D1     		bne	.L92
 900              		.loc 1 513 0
 901 001a C3F34323 		ubfx	r3, r3, #9, #4
 902 001e 042B     		cmp	r3, #4
 903 0020 03D0     		beq	.L88
 904 0022 01D3     		bcc	.L92
 905 0024 072B     		cmp	r3, #7
 906 0026 02D9     		bls	.L96
 907              	.L92:
 908              		.loc 1 510 0
 909 0028 0120     		movs	r0, #1
 910              	.L88:
 911              		.loc 1 529 0
 912 002a 03B0     		add	sp, sp, #12
ARM GAS  /tmp/cczzuzYi.s 			page 17


 913              		.cfi_remember_state
 914              		.cfi_def_cfa_offset 12
 915              		@ sp needed
 916 002c 30BD     		pop	{r4, r5, pc}
 917              	.LVL89:
 918              	.L96:
 919              		.cfi_restore_state
 920              	.LBB196:
 921              	.LBB197:
 922              		.loc 2 720 0
 923 002e 4FF47A70 		mov	r0, #1000
 924 0032 FFF7FEFF 		bl	chThdSleep
 925              	.LVL90:
 926              	.LBE197:
 927              	.LBE196:
 928              		.loc 1 507 0
 929 0036 E6E7     		b	.L91
 930              	.L98:
 931              		.align	2
 932              	.L97:
 933 0038 08E0FFFD 		.word	-33562616
 934              		.cfi_endproc
 935              	.LFE335:
 936              		.size	_sdc_wait_for_transfer_state, .-_sdc_wait_for_transfer_state
 937              		.section	.text.sdcDisconnect,"ax",%progbits
 938              		.align	1
 939              		.global	sdcDisconnect
 940              		.syntax unified
 941              		.thumb
 942              		.thumb_func
 943              		.fpu fpv4-sp-d16
 944              		.type	sdcDisconnect, %function
 945              	sdcDisconnect:
 946              	.LFB341:
 947              		.loc 1 762 0
 948              		.cfi_startproc
 949              		@ args = 0, pretend = 0, frame = 0
 950              		@ frame_needed = 0, uses_anonymous_args = 0
 951              	.LVL91:
 952 0000 70B5     		push	{r4, r5, r6, lr}
 953              		.cfi_def_cfa_offset 16
 954              		.cfi_offset 4, -16
 955              		.cfi_offset 5, -12
 956              		.cfi_offset 6, -8
 957              		.cfi_offset 14, -4
 958              	.LBB228:
 959              	.LBB229:
 960              	.LBB230:
 961              	.LBB231:
 962              	.LBB232:
 963              		.file 3 "../../modules/ChibiOS/os/common/ext/ARM/CMSIS/Core/Include/cmsis_gcc.h"
 964              		.loc 3 493 0
 965 0002 2023     		movs	r3, #32
 966              	.LBE232:
 967              	.LBE231:
 968              	.LBE230:
 969              	.LBE229:
ARM GAS  /tmp/cczzuzYi.s 			page 18


 970              	.LBE228:
 971              		.loc 1 762 0
 972 0004 0546     		mov	r5, r0
 973              	.LBB237:
 974              	.LBB236:
 975              	.LBB235:
 976              	.LBB234:
 977              	.LBB233:
 978              		.loc 3 493 0
 979              		.syntax unified
 980              	@ 493 "../../modules/ChibiOS/os/common/ext/ARM/CMSIS/Core/Include/cmsis_gcc.h" 1
 981 0006 83F31188 		MSR basepri, r3
 982              	@ 0 "" 2
 983              	.LVL92:
 984              		.thumb
 985              		.syntax unified
 986              	.LBE233:
 987              	.LBE234:
 988              	.LBE235:
 989              	.LBE236:
 990              	.LBE237:
 991              		.loc 1 769 0
 992 000a 0379     		ldrb	r3, [r0, #4]	@ zero_extendqisi2
 993 000c 022B     		cmp	r3, #2
 994 000e 4FF00004 		mov	r4, #0
 995 0012 03D1     		bne	.L100
 996              	.LVL93:
 997              	.LBB238:
 998              	.LBB239:
 999              	.LBB240:
 1000              	.LBB241:
 1001              	.LBB242:
 1002              	.LBB243:
 1003              		.loc 3 493 0
 1004              		.syntax unified
 1005              	@ 493 "../../modules/ChibiOS/os/common/ext/ARM/CMSIS/Core/Include/cmsis_gcc.h" 1
 1006 0014 84F31188 		MSR basepri, r4
 1007              	@ 0 "" 2
 1008              	.LVL94:
 1009              		.thumb
 1010              		.syntax unified
 1011              	.L101:
 1012              	.LBE243:
 1013              	.LBE242:
 1014              	.LBE241:
 1015              	.LBE240:
 1016              	.LBE239:
 1017              	.LBE238:
 1018              		.loc 1 787 0
 1019 0018 2046     		mov	r0, r4
 1020 001a 70BD     		pop	{r4, r5, r6, pc}
 1021              	.LVL95:
 1022              	.L100:
 1023              	.LBB244:
 1024              	.LBB245:
 1025              		.loc 1 773 0
 1026 001c 0423     		movs	r3, #4
ARM GAS  /tmp/cczzuzYi.s 			page 19


 1027 001e 0371     		strb	r3, [r0, #4]
 1028              	.LVL96:
 1029              	.LBB246:
 1030              	.LBB247:
 1031              	.LBB248:
 1032              	.LBB249:
 1033              	.LBB250:
 1034              	.LBB251:
 1035              		.loc 3 493 0
 1036              		.syntax unified
 1037              	@ 493 "../../modules/ChibiOS/os/common/ext/ARM/CMSIS/Core/Include/cmsis_gcc.h" 1
 1038 0020 84F31188 		MSR basepri, r4
 1039              	@ 0 "" 2
 1040              	.LVL97:
 1041              		.thumb
 1042              		.syntax unified
 1043              	.LBE251:
 1044              	.LBE250:
 1045              	.LBE249:
 1046              	.LBE248:
 1047              	.LBE247:
 1048              	.LBE246:
 1049              		.loc 1 777 0
 1050 0024 FFF7FEFF 		bl	_sdc_wait_for_transfer_state
 1051              	.LVL98:
 1052 0028 0226     		movs	r6, #2
 1053 002a 0446     		mov	r4, r0
 1054              		.loc 1 778 0
 1055 002c 2846     		mov	r0, r5
 1056              		.loc 1 784 0
 1057 002e FFF7FEFF 		bl	sdc_lld_stop_clk
 1058              	.LVL99:
 1059              		.loc 1 785 0
 1060 0032 2E71     		strb	r6, [r5, #4]
 1061 0034 F0E7     		b	.L101
 1062              	.LBE245:
 1063              	.LBE244:
 1064              		.cfi_endproc
 1065              	.LFE341:
 1066              		.size	sdcDisconnect, .-sdcDisconnect
 1067              		.section	.text.sdcInit,"ax",%progbits
 1068              		.align	1
 1069              		.global	sdcInit
 1070              		.syntax unified
 1071              		.thumb
 1072              		.thumb_func
 1073              		.fpu fpv4-sp-d16
 1074              		.type	sdcInit, %function
 1075              	sdcInit:
 1076              	.LFB336:
 1077              		.loc 1 542 0
 1078              		.cfi_startproc
 1079              		@ args = 0, pretend = 0, frame = 0
 1080              		@ frame_needed = 0, uses_anonymous_args = 0
 1081              		@ link register save eliminated.
 1082              		.loc 1 544 0
 1083 0000 FFF7FEBF 		b	sdc_lld_init
ARM GAS  /tmp/cczzuzYi.s 			page 20


 1084              	.LVL100:
 1085              		.cfi_endproc
 1086              	.LFE336:
 1087              		.size	sdcInit, .-sdcInit
 1088              		.section	.text.sdcObjectInit,"ax",%progbits
 1089              		.align	1
 1090              		.global	sdcObjectInit
 1091              		.syntax unified
 1092              		.thumb
 1093              		.thumb_func
 1094              		.fpu fpv4-sp-d16
 1095              		.type	sdcObjectInit, %function
 1096              	sdcObjectInit:
 1097              	.LFB337:
 1098              		.loc 1 554 0
 1099              		.cfi_startproc
 1100              		@ args = 0, pretend = 0, frame = 0
 1101              		@ frame_needed = 0, uses_anonymous_args = 0
 1102              		@ link register save eliminated.
 1103              	.LVL101:
 1104              		.loc 1 556 0
 1105 0000 044B     		ldr	r3, .L105
 1106 0002 0360     		str	r3, [r0]
 1107              		.loc 1 557 0
 1108 0004 0123     		movs	r3, #1
 1109 0006 0371     		strb	r3, [r0, #4]
 1110              		.loc 1 558 0
 1111 0008 0023     		movs	r3, #0
 1112 000a 4363     		str	r3, [r0, #52]
 1113              		.loc 1 559 0
 1114 000c C362     		str	r3, [r0, #44]
 1115              		.loc 1 560 0
 1116 000e 8362     		str	r3, [r0, #40]
 1117 0010 7047     		bx	lr
 1118              	.L106:
 1119 0012 00BF     		.align	2
 1120              	.L105:
 1121 0014 00000000 		.word	.LANCHOR0
 1122              		.cfi_endproc
 1123              	.LFE337:
 1124              		.size	sdcObjectInit, .-sdcObjectInit
 1125              		.section	.text.sdcStart,"ax",%progbits
 1126              		.align	1
 1127              		.global	sdcStart
 1128              		.syntax unified
 1129              		.thumb
 1130              		.thumb_func
 1131              		.fpu fpv4-sp-d16
 1132              		.type	sdcStart, %function
 1133              	sdcStart:
 1134              	.LFB338:
 1135              		.loc 1 573 0
 1136              		.cfi_startproc
 1137              		@ args = 0, pretend = 0, frame = 0
 1138              		@ frame_needed = 0, uses_anonymous_args = 0
 1139              	.LVL102:
 1140 0000 10B5     		push	{r4, lr}
ARM GAS  /tmp/cczzuzYi.s 			page 21


 1141              		.cfi_def_cfa_offset 8
 1142              		.cfi_offset 4, -8
 1143              		.cfi_offset 14, -4
 1144              	.LBB252:
 1145              	.LBB253:
 1146              	.LBB254:
 1147              	.LBB255:
 1148              	.LBB256:
 1149              		.loc 3 493 0
 1150 0002 2023     		movs	r3, #32
 1151              	.LBE256:
 1152              	.LBE255:
 1153              	.LBE254:
 1154              	.LBE253:
 1155              	.LBE252:
 1156              		.loc 1 573 0
 1157 0004 0446     		mov	r4, r0
 1158              	.LBB261:
 1159              	.LBB260:
 1160              	.LBB259:
 1161              	.LBB258:
 1162              	.LBB257:
 1163              		.loc 3 493 0
 1164              		.syntax unified
 1165              	@ 493 "../../modules/ChibiOS/os/common/ext/ARM/CMSIS/Core/Include/cmsis_gcc.h" 1
 1166 0006 83F31188 		MSR basepri, r3
 1167              	@ 0 "" 2
 1168              	.LVL103:
 1169              		.thumb
 1170              		.syntax unified
 1171              	.LBE257:
 1172              	.LBE258:
 1173              	.LBE259:
 1174              	.LBE260:
 1175              	.LBE261:
 1176              		.loc 1 580 0
 1177 000a C162     		str	r1, [r0, #44]
 1178              		.loc 1 581 0
 1179 000c FFF7FEFF 		bl	sdc_lld_start
 1180              	.LVL104:
 1181              		.loc 1 582 0
 1182 0010 0223     		movs	r3, #2
 1183 0012 2371     		strb	r3, [r4, #4]
 1184              	.LVL105:
 1185              	.LBB262:
 1186              	.LBB263:
 1187              	.LBB264:
 1188              	.LBB265:
 1189              	.LBB266:
 1190              	.LBB267:
 1191              		.loc 3 493 0
 1192 0014 0023     		movs	r3, #0
 1193              		.syntax unified
 1194              	@ 493 "../../modules/ChibiOS/os/common/ext/ARM/CMSIS/Core/Include/cmsis_gcc.h" 1
 1195 0016 83F31188 		MSR basepri, r3
 1196              	@ 0 "" 2
 1197              	.LVL106:
ARM GAS  /tmp/cczzuzYi.s 			page 22


 1198              		.thumb
 1199              		.syntax unified
 1200 001a 10BD     		pop	{r4, pc}
 1201              	.LBE267:
 1202              	.LBE266:
 1203              	.LBE265:
 1204              	.LBE264:
 1205              	.LBE263:
 1206              	.LBE262:
 1207              		.cfi_endproc
 1208              	.LFE338:
 1209              		.size	sdcStart, .-sdcStart
 1210              		.section	.text.sdcStop,"ax",%progbits
 1211              		.align	1
 1212              		.global	sdcStop
 1213              		.syntax unified
 1214              		.thumb
 1215              		.thumb_func
 1216              		.fpu fpv4-sp-d16
 1217              		.type	sdcStop, %function
 1218              	sdcStop:
 1219              	.LFB339:
 1220              		.loc 1 593 0
 1221              		.cfi_startproc
 1222              		@ args = 0, pretend = 0, frame = 0
 1223              		@ frame_needed = 0, uses_anonymous_args = 0
 1224              	.LVL107:
 1225 0000 10B5     		push	{r4, lr}
 1226              		.cfi_def_cfa_offset 8
 1227              		.cfi_offset 4, -8
 1228              		.cfi_offset 14, -4
 1229              	.LBB268:
 1230              	.LBB269:
 1231              	.LBB270:
 1232              	.LBB271:
 1233              	.LBB272:
 1234              		.loc 3 493 0
 1235 0002 2023     		movs	r3, #32
 1236              	.LBE272:
 1237              	.LBE271:
 1238              	.LBE270:
 1239              	.LBE269:
 1240              	.LBE268:
 1241              		.loc 1 593 0
 1242 0004 0446     		mov	r4, r0
 1243              	.LBB277:
 1244              	.LBB276:
 1245              	.LBB275:
 1246              	.LBB274:
 1247              	.LBB273:
 1248              		.loc 3 493 0
 1249              		.syntax unified
 1250              	@ 493 "../../modules/ChibiOS/os/common/ext/ARM/CMSIS/Core/Include/cmsis_gcc.h" 1
 1251 0006 83F31188 		MSR basepri, r3
 1252              	@ 0 "" 2
 1253              	.LVL108:
 1254              		.thumb
ARM GAS  /tmp/cczzuzYi.s 			page 23


 1255              		.syntax unified
 1256              	.LBE273:
 1257              	.LBE274:
 1258              	.LBE275:
 1259              	.LBE276:
 1260              	.LBE277:
 1261              		.loc 1 602 0
 1262 000a FFF7FEFF 		bl	sdc_lld_stop
 1263              	.LVL109:
 1264              		.loc 1 603 0
 1265 000e 0023     		movs	r3, #0
 1266              		.loc 1 604 0
 1267 0010 0122     		movs	r2, #1
 1268              		.loc 1 603 0
 1269 0012 E362     		str	r3, [r4, #44]
 1270              		.loc 1 604 0
 1271 0014 2271     		strb	r2, [r4, #4]
 1272              	.LVL110:
 1273              	.LBB278:
 1274              	.LBB279:
 1275              	.LBB280:
 1276              	.LBB281:
 1277              	.LBB282:
 1278              	.LBB283:
 1279              		.loc 3 493 0
 1280              		.syntax unified
 1281              	@ 493 "../../modules/ChibiOS/os/common/ext/ARM/CMSIS/Core/Include/cmsis_gcc.h" 1
 1282 0016 83F31188 		MSR basepri, r3
 1283              	@ 0 "" 2
 1284              	.LVL111:
 1285              		.thumb
 1286              		.syntax unified
 1287 001a 10BD     		pop	{r4, pc}
 1288              	.LBE283:
 1289              	.LBE282:
 1290              	.LBE281:
 1291              	.LBE280:
 1292              	.LBE279:
 1293              	.LBE278:
 1294              		.cfi_endproc
 1295              	.LFE339:
 1296              		.size	sdcStop, .-sdcStop
 1297              		.section	.text.sdcGetAndClearErrors,"ax",%progbits
 1298              		.align	1
 1299              		.global	sdcGetAndClearErrors
 1300              		.syntax unified
 1301              		.thumb
 1302              		.thumb_func
 1303              		.fpu fpv4-sp-d16
 1304              		.type	sdcGetAndClearErrors, %function
 1305              	sdcGetAndClearErrors:
 1306              	.LFB344:
 1307              		.loc 1 872 0
 1308              		.cfi_startproc
 1309              		@ args = 0, pretend = 0, frame = 0
 1310              		@ frame_needed = 0, uses_anonymous_args = 0
 1311              		@ link register save eliminated.
ARM GAS  /tmp/cczzuzYi.s 			page 24


 1312              	.LVL112:
 1313              		.loc 1 872 0
 1314 0000 0246     		mov	r2, r0
 1315              	.LBB284:
 1316              	.LBB285:
 1317              	.LBB286:
 1318              	.LBB287:
 1319              	.LBB288:
 1320              		.loc 3 493 0
 1321 0002 2023     		movs	r3, #32
 1322              		.syntax unified
 1323              	@ 493 "../../modules/ChibiOS/os/common/ext/ARM/CMSIS/Core/Include/cmsis_gcc.h" 1
 1324 0004 83F31188 		MSR basepri, r3
 1325              	@ 0 "" 2
 1326              	.LVL113:
 1327              		.thumb
 1328              		.syntax unified
 1329              	.LBE288:
 1330              	.LBE287:
 1331              	.LBE286:
 1332              	.LBE285:
 1333              	.LBE284:
 1334              		.loc 1 880 0
 1335 0008 0023     		movs	r3, #0
 1336              		.loc 1 879 0
 1337 000a 406B     		ldr	r0, [r0, #52]
 1338              	.LVL114:
 1339              		.loc 1 880 0
 1340 000c 5363     		str	r3, [r2, #52]
 1341              	.LVL115:
 1342              	.LBB289:
 1343              	.LBB290:
 1344              	.LBB291:
 1345              	.LBB292:
 1346              	.LBB293:
 1347              	.LBB294:
 1348              		.loc 3 493 0
 1349              		.syntax unified
 1350              	@ 493 "../../modules/ChibiOS/os/common/ext/ARM/CMSIS/Core/Include/cmsis_gcc.h" 1
 1351 000e 83F31188 		MSR basepri, r3
 1352              	@ 0 "" 2
 1353              	.LVL116:
 1354              		.thumb
 1355              		.syntax unified
 1356              	.LBE294:
 1357              	.LBE293:
 1358              	.LBE292:
 1359              	.LBE291:
 1360              	.LBE290:
 1361              	.LBE289:
 1362              		.loc 1 883 0
 1363 0012 7047     		bx	lr
 1364              		.cfi_endproc
 1365              	.LFE344:
 1366              		.size	sdcGetAndClearErrors, .-sdcGetAndClearErrors
 1367              		.section	.text.sdcErase,"ax",%progbits
 1368              		.align	1
ARM GAS  /tmp/cczzuzYi.s 			page 25


 1369              		.global	sdcErase
 1370              		.syntax unified
 1371              		.thumb
 1372              		.thumb_func
 1373              		.fpu fpv4-sp-d16
 1374              		.type	sdcErase, %function
 1375              	sdcErase:
 1376              	.LFB347:
 1377              		.loc 1 954 0
 1378              		.cfi_startproc
 1379              		@ args = 0, pretend = 0, frame = 8
 1380              		@ frame_needed = 0, uses_anonymous_args = 0
 1381              	.LVL117:
 1382              		.loc 1 961 0
 1383 0000 0723     		movs	r3, #7
 1384              		.loc 1 954 0
 1385 0002 73B5     		push	{r0, r1, r4, r5, r6, lr}
 1386              		.cfi_def_cfa_offset 24
 1387              		.cfi_offset 4, -16
 1388              		.cfi_offset 5, -12
 1389              		.cfi_offset 6, -8
 1390              		.cfi_offset 14, -4
 1391              		.loc 1 961 0
 1392 0004 0371     		strb	r3, [r0, #4]
 1393              		.loc 1 964 0
 1394 0006 036B     		ldr	r3, [r0, #48]
 1395 0008 DB06     		lsls	r3, r3, #27
 1396              		.loc 1 954 0
 1397 000a 0D46     		mov	r5, r1
 1398 000c 1646     		mov	r6, r2
 1399              		.loc 1 965 0
 1400 000e 44BF     		itt	mi
 1401 0010 4D02     		lslmi	r5, r1, #9
 1402              	.LVL118:
 1403              		.loc 1 966 0
 1404 0012 5602     		lslmi	r6, r2, #9
 1405              	.LVL119:
 1406              		.loc 1 954 0
 1407 0014 0446     		mov	r4, r0
 1408              		.loc 1 969 0
 1409 0016 FFF7FEFF 		bl	_sdc_wait_for_transfer_state
 1410              	.LVL120:
 1411 001a 28BB     		cbnz	r0, .L112
 1412              		.loc 1 973 0
 1413 001c 01AB     		add	r3, sp, #4
 1414 001e 2A46     		mov	r2, r5
 1415 0020 2021     		movs	r1, #32
 1416 0022 2046     		mov	r0, r4
 1417 0024 FFF7FEFF 		bl	sdc_lld_send_cmd_short_crc
 1418              	.LVL121:
 1419 0028 F0B9     		cbnz	r0, .L112
 1420              		.loc 1 975 0
 1421 002a 114D     		ldr	r5, .L117
 1422              	.LVL122:
 1423              		.loc 1 974 0
 1424 002c 019B     		ldr	r3, [sp, #4]
 1425 002e 2B42     		tst	r3, r5
ARM GAS  /tmp/cczzuzYi.s 			page 26


 1426 0030 1AD1     		bne	.L112
 1427              		.loc 1 979 0
 1428 0032 01AB     		add	r3, sp, #4
 1429 0034 3246     		mov	r2, r6
 1430 0036 2121     		movs	r1, #33
 1431 0038 2046     		mov	r0, r4
 1432 003a FFF7FEFF 		bl	sdc_lld_send_cmd_short_crc
 1433              	.LVL123:
 1434 003e 98B9     		cbnz	r0, .L112
 1435              		.loc 1 981 0
 1436 0040 019A     		ldr	r2, [sp, #4]
 1437              		.loc 1 980 0
 1438 0042 2A40     		ands	r2, r2, r5
 1439 0044 10D1     		bne	.L112
 1440              		.loc 1 985 0
 1441 0046 01AB     		add	r3, sp, #4
 1442 0048 2621     		movs	r1, #38
 1443 004a 2046     		mov	r0, r4
 1444 004c FFF7FEFF 		bl	sdc_lld_send_cmd_short_crc
 1445              	.LVL124:
 1446 0050 50B9     		cbnz	r0, .L112
 1447              		.loc 1 986 0
 1448 0052 019B     		ldr	r3, [sp, #4]
 1449 0054 2B42     		tst	r3, r5
 1450 0056 07D1     		bne	.L112
 1451              		.loc 1 995 0
 1452 0058 2046     		mov	r0, r4
 1453 005a FFF7FEFF 		bl	_sdc_wait_for_transfer_state
 1454              	.LVL125:
 1455 005e 18B9     		cbnz	r0, .L112
 1456              		.loc 1 999 0
 1457 0060 0523     		movs	r3, #5
 1458 0062 2371     		strb	r3, [r4, #4]
 1459              	.L113:
 1460              		.loc 1 1005 0
 1461 0064 02B0     		add	sp, sp, #8
 1462              		.cfi_remember_state
 1463              		.cfi_def_cfa_offset 16
 1464              		@ sp needed
 1465 0066 70BD     		pop	{r4, r5, r6, pc}
 1466              	.LVL126:
 1467              	.L112:
 1468              		.cfi_restore_state
 1469              	.LDL1:
 1470              		.loc 1 1003 0
 1471 0068 0523     		movs	r3, #5
 1472 006a 2371     		strb	r3, [r4, #4]
 1473              		.loc 1 1004 0
 1474 006c 0120     		movs	r0, #1
 1475 006e F9E7     		b	.L113
 1476              	.L118:
 1477              		.align	2
 1478              	.L117:
 1479 0070 08E0FFFD 		.word	-33562616
 1480              		.cfi_endproc
 1481              	.LFE347:
 1482              		.size	sdcErase, .-sdcErase
ARM GAS  /tmp/cczzuzYi.s 			page 27


 1483              		.section	.rodata.sdc_vmt,"a",%progbits
 1484              		.align	2
 1485              		.set	.LANCHOR0,. + 0
 1486              		.type	sdc_vmt, %object
 1487              		.size	sdc_vmt, 36
 1488              	sdc_vmt:
 1489 0000 00000000 		.word	0
 1490 0004 00000000 		.word	sdc_lld_is_card_inserted
 1491 0008 00000000 		.word	sdc_lld_is_write_protected
 1492 000c 00000000 		.word	sdcConnect
 1493 0010 00000000 		.word	sdcDisconnect
 1494 0014 00000000 		.word	sdcRead
 1495 0018 00000000 		.word	sdcWrite
 1496 001c 00000000 		.word	sdcSync
 1497 0020 00000000 		.word	sdcGetInfo
 1498              		.text
 1499              	.Letext0:
 1500              		.file 4 "/opt/gcc-arm-none-eabi-6-2017-q2-update/lib/gcc/arm-none-eabi/6.3.1/include/stddef.h"
 1501              		.file 5 "/opt/gcc-arm-none-eabi-6-2017-q2-update/arm-none-eabi/include/machine/_default_types.h"
 1502              		.file 6 "/opt/gcc-arm-none-eabi-6-2017-q2-update/arm-none-eabi/include/sys/lock.h"
 1503              		.file 7 "/opt/gcc-arm-none-eabi-6-2017-q2-update/arm-none-eabi/include/sys/_types.h"
 1504              		.file 8 "/opt/gcc-arm-none-eabi-6-2017-q2-update/arm-none-eabi/include/sys/reent.h"
 1505              		.file 9 "/opt/gcc-arm-none-eabi-6-2017-q2-update/arm-none-eabi/include/sys/_stdint.h"
 1506              		.file 10 "/opt/gcc-arm-none-eabi-6-2017-q2-update/arm-none-eabi/include/stdint.h"
 1507              		.file 11 "../../modules/ChibiOS/os/common/ports/ARMCMx/compilers/GCC/chtypes.h"
 1508              		.file 12 "../../modules/ChibiOS/os/rt/include/chsystypes.h"
 1509              		.file 13 "../../modules/ChibiOS/os/rt/include/chschd.h"
 1510              		.file 14 "../../modules/ChibiOS/os/rt/include/chtime.h"
 1511              		.file 15 "../../modules/ChibiOS/os/common/ext/ARM/CMSIS/Core/Include/core_cm4.h"
 1512              		.file 16 "../../modules/ChibiOS/os/common/ext/ST/STM32F4xx/system_stm32f4xx.h"
 1513              		.file 17 "../../modules/ChibiOS/os/common/ext/ST/STM32F4xx/stm32f427xx.h"
 1514              		.file 18 "../../modules/ChibiOS/os/common/ports/ARMCMx/chcore.h"
 1515              		.file 19 "../../modules/ChibiOS/os/common/ports/ARMCMx/chcore_v7m.h"
 1516              		.file 20 "../../modules/ChibiOS/os/hal/ports/STM32/LLD/TIMv1/stm32_tim.h"
 1517              		.file 21 "../../modules/ChibiOS/os/rt/include/chtm.h"
 1518              		.file 22 "../../modules/ChibiOS/os/rt/include/chsem.h"
 1519              		.file 23 "../../modules/ChibiOS/os/rt/include/chmtx.h"
 1520              		.file 24 "../../modules/ChibiOS/os/rt/include/chsys.h"
 1521              		.file 25 "../../modules/ChibiOS/os/rt/include/chregistry.h"
 1522              		.file 26 "../../modules/ChibiOS/os/rt/include/chevents.h"
 1523              		.file 27 "../../modules/ChibiOS/os/oslib/include/chmemcore.h"
 1524              		.file 28 "../../modules/ChibiOS/os/oslib/include/chmempools.h"
 1525              		.file 29 "../../modules/ChibiOS/os/oslib/include/chfactory.h"
 1526              		.file 30 "../../modules/ChibiOS/os/hal/ports/STM32/LLD/DMAv2/stm32_dma.h"
 1527              		.file 31 "../../modules/ChibiOS/os/hal/include/hal_ioblock.h"
 1528              		.file 32 "../../modules/ChibiOS/os/hal/include/hal_queues.h"
 1529              		.file 33 "../../modules/ChibiOS/os/hal/include/hal_pal.h"
 1530              		.file 34 "../../modules/ChibiOS/os/hal/ports/STM32/LLD/GPIOv2/stm32_gpio.h"
 1531              		.file 35 "../../modules/ChibiOS/os/hal/ports/STM32/LLD/GPIOv2/hal_pal_lld.h"
 1532              		.file 36 "../../modules/ChibiOS/os/hal/include/hal_adc.h"
 1533              		.file 37 "../../modules/ChibiOS/os/hal/ports/STM32/LLD/ADCv2/hal_adc_lld.h"
 1534              		.file 38 "../../modules/ChibiOS/os/hal/include/hal_i2c.h"
 1535              		.file 39 "../../modules/ChibiOS/os/hal/ports/STM32/LLD/I2Cv1/hal_i2c_lld.h"
 1536              		.file 40 "../../modules/ChibiOS/os/hal/include/hal_pwm.h"
 1537              		.file 41 "../../modules/ChibiOS/os/hal/ports/STM32/LLD/TIMv1/hal_pwm_lld.h"
 1538              		.file 42 "../../modules/ChibiOS/os/hal/include/hal_serial.h"
 1539              		.file 43 "../../modules/ChibiOS/os/hal/ports/STM32/LLD/USARTv1/hal_serial_lld.h"
ARM GAS  /tmp/cczzuzYi.s 			page 28


 1540              		.file 44 "../../modules/ChibiOS/os/hal/include/hal_sdc.h"
 1541              		.file 45 "../../modules/ChibiOS/os/hal/ports/STM32/LLD/SDIOv1/hal_sdc_lld.h"
 1542              		.file 46 "../../modules/ChibiOS/os/hal/include/hal_spi.h"
 1543              		.file 47 "../../modules/ChibiOS/os/hal/ports/STM32/LLD/SPIv1/hal_spi_lld.h"
 1544              		.file 48 "../../modules/ChibiOS/os/hal/include/hal_usb.h"
 1545              		.file 49 "../../modules/ChibiOS/os/hal/ports/STM32/LLD/OTGv1/hal_usb_lld.h"
 1546              		.file 50 "../../modules/ChibiOS/os/hal/ports/STM32/LLD/OTGv1/stm32_otg.h"
 1547              		.file 51 "../../modules/ChibiOS/os/hal/include/hal_mmcsd.h"
 1548              		.file 52 "../../modules/ChibiOS/os/rt/include/chthreads.h"