ARM GAS  /tmp/cc7saPTd.s 			page 1


   1              		.cpu cortex-m4
   2              		.eabi_attribute 27, 1
   3              		.eabi_attribute 28, 1
   4              		.eabi_attribute 20, 1
   5              		.eabi_attribute 21, 1
   6              		.eabi_attribute 23, 3
   7              		.eabi_attribute 24, 1
   8              		.eabi_attribute 25, 1
   9              		.eabi_attribute 26, 1
  10              		.eabi_attribute 30, 4
  11              		.eabi_attribute 34, 1
  12              		.eabi_attribute 18, 4
  13              		.file	"hal_pwm.c"
  14              		.text
  15              	.Ltext0:
  16              		.cfi_sections	.debug_frame
  17              		.section	.text.pwmInit,"ax",%progbits
  18              		.align	1
  19              		.global	pwmInit
  20              		.syntax unified
  21              		.thumb
  22              		.thumb_func
  23              		.fpu fpv4-sp-d16
  24              		.type	pwmInit, %function
  25              	pwmInit:
  26              	.LFB323:
  27              		.file 1 "../../modules/ChibiOS/os/hal/src/hal_pwm.c"
  28              		.loc 1 56 0
  29              		.cfi_startproc
  30              		@ args = 0, pretend = 0, frame = 0
  31              		@ frame_needed = 0, uses_anonymous_args = 0
  32              		@ link register save eliminated.
  33              		.loc 1 58 0
  34 0000 FFF7FEBF 		b	pwm_lld_init
  35              	.LVL0:
  36              		.cfi_endproc
  37              	.LFE323:
  38              		.size	pwmInit, .-pwmInit
  39              		.section	.text.pwmObjectInit,"ax",%progbits
  40              		.align	1
  41              		.global	pwmObjectInit
  42              		.syntax unified
  43              		.thumb
  44              		.thumb_func
  45              		.fpu fpv4-sp-d16
  46              		.type	pwmObjectInit, %function
  47              	pwmObjectInit:
  48              	.LFB324:
  49              		.loc 1 68 0
  50              		.cfi_startproc
  51              		@ args = 0, pretend = 0, frame = 0
  52              		@ frame_needed = 0, uses_anonymous_args = 0
  53              		@ link register save eliminated.
  54              	.LVL1:
  55              		.loc 1 70 0
  56 0000 0123     		movs	r3, #1
  57 0002 0370     		strb	r3, [r0]
ARM GAS  /tmp/cc7saPTd.s 			page 2


  58              		.loc 1 71 0
  59 0004 0023     		movs	r3, #0
  60 0006 4360     		str	r3, [r0, #4]
  61              		.loc 1 72 0
  62 0008 C360     		str	r3, [r0, #12]
  63              		.loc 1 73 0
  64 000a 0374     		strb	r3, [r0, #16]
  65 000c 7047     		bx	lr
  66              		.cfi_endproc
  67              	.LFE324:
  68              		.size	pwmObjectInit, .-pwmObjectInit
  69              		.section	.text.pwmStart,"ax",%progbits
  70              		.align	1
  71              		.global	pwmStart
  72              		.syntax unified
  73              		.thumb
  74              		.thumb_func
  75              		.fpu fpv4-sp-d16
  76              		.type	pwmStart, %function
  77              	pwmStart:
  78              	.LFB325:
  79              		.loc 1 89 0
  80              		.cfi_startproc
  81              		@ args = 0, pretend = 0, frame = 0
  82              		@ frame_needed = 0, uses_anonymous_args = 0
  83              	.LVL2:
  84 0000 10B5     		push	{r4, lr}
  85              		.cfi_def_cfa_offset 8
  86              		.cfi_offset 4, -8
  87              		.cfi_offset 14, -4
  88              	.LBB141:
  89              	.LBB142:
  90              	.LBB143:
  91              	.LBB144:
  92              	.LBB145:
  93              		.file 2 "../../modules/ChibiOS/os/common/ext/ARM/CMSIS/Core/Include/cmsis_gcc.h"
  94              		.loc 2 493 0
  95 0002 2023     		movs	r3, #32
  96              	.LBE145:
  97              	.LBE144:
  98              	.LBE143:
  99              	.LBE142:
 100              	.LBE141:
 101              		.loc 1 89 0
 102 0004 0446     		mov	r4, r0
 103              	.LBB150:
 104              	.LBB149:
 105              	.LBB148:
 106              	.LBB147:
 107              	.LBB146:
 108              		.loc 2 493 0
 109              		.syntax unified
 110              	@ 493 "../../modules/ChibiOS/os/common/ext/ARM/CMSIS/Core/Include/cmsis_gcc.h" 1
 111 0006 83F31188 		MSR basepri, r3
 112              	@ 0 "" 2
 113              	.LVL3:
 114              		.thumb
ARM GAS  /tmp/cc7saPTd.s 			page 3


 115              		.syntax unified
 116              	.LBE146:
 117              	.LBE147:
 118              	.LBE148:
 119              	.LBE149:
 120              	.LBE150:
 121              		.loc 1 97 0
 122 000a 4B68     		ldr	r3, [r1, #4]
 123 000c 8360     		str	r3, [r0, #8]
 124              		.loc 1 96 0
 125 000e 4160     		str	r1, [r0, #4]
 126              		.loc 1 98 0
 127 0010 FFF7FEFF 		bl	pwm_lld_start
 128              	.LVL4:
 129              		.loc 1 99 0
 130 0014 0023     		movs	r3, #0
 131              		.loc 1 100 0
 132 0016 0222     		movs	r2, #2
 133              		.loc 1 99 0
 134 0018 E360     		str	r3, [r4, #12]
 135              		.loc 1 100 0
 136 001a 2270     		strb	r2, [r4]
 137              	.LVL5:
 138              	.LBB151:
 139              	.LBB152:
 140              	.LBB153:
 141              	.LBB154:
 142              	.LBB155:
 143              	.LBB156:
 144              		.loc 2 493 0
 145              		.syntax unified
 146              	@ 493 "../../modules/ChibiOS/os/common/ext/ARM/CMSIS/Core/Include/cmsis_gcc.h" 1
 147 001c 83F31188 		MSR basepri, r3
 148              	@ 0 "" 2
 149              	.LVL6:
 150              		.thumb
 151              		.syntax unified
 152 0020 10BD     		pop	{r4, pc}
 153              	.LBE156:
 154              	.LBE155:
 155              	.LBE154:
 156              	.LBE153:
 157              	.LBE152:
 158              	.LBE151:
 159              		.cfi_endproc
 160              	.LFE325:
 161              		.size	pwmStart, .-pwmStart
 162              		.section	.text.pwmStop,"ax",%progbits
 163              		.align	1
 164              		.global	pwmStop
 165              		.syntax unified
 166              		.thumb
 167              		.thumb_func
 168              		.fpu fpv4-sp-d16
 169              		.type	pwmStop, %function
 170              	pwmStop:
 171              	.LFB326:
ARM GAS  /tmp/cc7saPTd.s 			page 4


 172              		.loc 1 111 0
 173              		.cfi_startproc
 174              		@ args = 0, pretend = 0, frame = 0
 175              		@ frame_needed = 0, uses_anonymous_args = 0
 176              	.LVL7:
 177 0000 10B5     		push	{r4, lr}
 178              		.cfi_def_cfa_offset 8
 179              		.cfi_offset 4, -8
 180              		.cfi_offset 14, -4
 181              	.LBB157:
 182              	.LBB158:
 183              	.LBB159:
 184              	.LBB160:
 185              	.LBB161:
 186              		.loc 2 493 0
 187 0002 2023     		movs	r3, #32
 188              	.LBE161:
 189              	.LBE160:
 190              	.LBE159:
 191              	.LBE158:
 192              	.LBE157:
 193              		.loc 1 111 0
 194 0004 0446     		mov	r4, r0
 195              	.LBB166:
 196              	.LBB165:
 197              	.LBB164:
 198              	.LBB163:
 199              	.LBB162:
 200              		.loc 2 493 0
 201              		.syntax unified
 202              	@ 493 "../../modules/ChibiOS/os/common/ext/ARM/CMSIS/Core/Include/cmsis_gcc.h" 1
 203 0006 83F31188 		MSR basepri, r3
 204              	@ 0 "" 2
 205              	.LVL8:
 206              		.thumb
 207              		.syntax unified
 208              	.LBE162:
 209              	.LBE163:
 210              	.LBE164:
 211              	.LBE165:
 212              	.LBE166:
 213              		.loc 1 120 0
 214 000a FFF7FEFF 		bl	pwm_lld_stop
 215              	.LVL9:
 216              		.loc 1 121 0
 217 000e 0023     		movs	r3, #0
 218              		.loc 1 123 0
 219 0010 0122     		movs	r2, #1
 220              		.loc 1 121 0
 221 0012 E360     		str	r3, [r4, #12]
 222              		.loc 1 122 0
 223 0014 6360     		str	r3, [r4, #4]
 224              		.loc 1 123 0
 225 0016 2270     		strb	r2, [r4]
 226              	.LVL10:
 227              	.LBB167:
 228              	.LBB168:
ARM GAS  /tmp/cc7saPTd.s 			page 5


 229              	.LBB169:
 230              	.LBB170:
 231              	.LBB171:
 232              	.LBB172:
 233              		.loc 2 493 0
 234              		.syntax unified
 235              	@ 493 "../../modules/ChibiOS/os/common/ext/ARM/CMSIS/Core/Include/cmsis_gcc.h" 1
 236 0018 83F31188 		MSR basepri, r3
 237              	@ 0 "" 2
 238              	.LVL11:
 239              		.thumb
 240              		.syntax unified
 241 001c 10BD     		pop	{r4, pc}
 242              	.LBE172:
 243              	.LBE171:
 244              	.LBE170:
 245              	.LBE169:
 246              	.LBE168:
 247              	.LBE167:
 248              		.cfi_endproc
 249              	.LFE326:
 250              		.size	pwmStop, .-pwmStop
 251              		.section	.text.pwmChangePeriod,"ax",%progbits
 252              		.align	1
 253              		.global	pwmChangePeriod
 254              		.syntax unified
 255              		.thumb
 256              		.thumb_func
 257              		.fpu fpv4-sp-d16
 258              		.type	pwmChangePeriod, %function
 259              	pwmChangePeriod:
 260              	.LFB327:
 261              		.loc 1 143 0
 262              		.cfi_startproc
 263              		@ args = 0, pretend = 0, frame = 0
 264              		@ frame_needed = 0, uses_anonymous_args = 0
 265              		@ link register save eliminated.
 266              	.LVL12:
 267              	.LBB173:
 268              	.LBB174:
 269              	.LBB175:
 270              	.LBB176:
 271              	.LBB177:
 272              		.loc 2 493 0
 273 0000 2023     		movs	r3, #32
 274              		.syntax unified
 275              	@ 493 "../../modules/ChibiOS/os/common/ext/ARM/CMSIS/Core/Include/cmsis_gcc.h" 1
 276 0002 83F31188 		MSR basepri, r3
 277              	@ 0 "" 2
 278              	.LVL13:
 279              		.thumb
 280              		.syntax unified
 281              	.LBE177:
 282              	.LBE176:
 283              	.LBE175:
 284              	.LBE174:
 285              	.LBE173:
ARM GAS  /tmp/cc7saPTd.s 			page 6


 286              		.loc 1 149 0
 287 0006 8369     		ldr	r3, [r0, #24]
 288 0008 8160     		str	r1, [r0, #8]
 289 000a 0139     		subs	r1, r1, #1
 290              	.LVL14:
 291 000c D962     		str	r1, [r3, #44]
 292              	.LVL15:
 293              	.LBB178:
 294              	.LBB179:
 295              	.LBB180:
 296              	.LBB181:
 297              	.LBB182:
 298              	.LBB183:
 299              		.loc 2 493 0
 300 000e 0023     		movs	r3, #0
 301              		.syntax unified
 302              	@ 493 "../../modules/ChibiOS/os/common/ext/ARM/CMSIS/Core/Include/cmsis_gcc.h" 1
 303 0010 83F31188 		MSR basepri, r3
 304              	@ 0 "" 2
 305              	.LVL16:
 306              		.thumb
 307              		.syntax unified
 308 0014 7047     		bx	lr
 309              	.LBE183:
 310              	.LBE182:
 311              	.LBE181:
 312              	.LBE180:
 313              	.LBE179:
 314              	.LBE178:
 315              		.cfi_endproc
 316              	.LFE327:
 317              		.size	pwmChangePeriod, .-pwmChangePeriod
 318              		.section	.text.pwmEnableChannel,"ax",%progbits
 319              		.align	1
 320              		.global	pwmEnableChannel
 321              		.syntax unified
 322              		.thumb
 323              		.thumb_func
 324              		.fpu fpv4-sp-d16
 325              		.type	pwmEnableChannel, %function
 326              	pwmEnableChannel:
 327              	.LFB328:
 328              		.loc 1 169 0
 329              		.cfi_startproc
 330              		@ args = 0, pretend = 0, frame = 0
 331              		@ frame_needed = 0, uses_anonymous_args = 0
 332              	.LVL17:
 333 0000 38B5     		push	{r3, r4, r5, lr}
 334              		.cfi_def_cfa_offset 16
 335              		.cfi_offset 3, -16
 336              		.cfi_offset 4, -12
 337              		.cfi_offset 5, -8
 338              		.cfi_offset 14, -4
 339              	.LBB184:
 340              	.LBB185:
 341              	.LBB186:
 342              	.LBB187:
ARM GAS  /tmp/cc7saPTd.s 			page 7


 343              	.LBB188:
 344              		.loc 2 493 0
 345 0002 2023     		movs	r3, #32
 346              		.syntax unified
 347              	@ 493 "../../modules/ChibiOS/os/common/ext/ARM/CMSIS/Core/Include/cmsis_gcc.h" 1
 348 0004 83F31188 		MSR basepri, r3
 349              	@ 0 "" 2
 350              	.LVL18:
 351              		.thumb
 352              		.syntax unified
 353              	.LBE188:
 354              	.LBE187:
 355              	.LBE186:
 356              	.LBE185:
 357              	.LBE184:
 358              		.loc 1 177 0
 359 0008 0123     		movs	r3, #1
 360 000a 03FA01F4 		lsl	r4, r3, r1
 361 000e C368     		ldr	r3, [r0, #12]
 362 0010 2343     		orrs	r3, r3, r4
 363 0012 C360     		str	r3, [r0, #12]
 364 0014 FFF7FEFF 		bl	pwm_lld_enable_channel
 365              	.LVL19:
 366              	.LBB189:
 367              	.LBB190:
 368              	.LBB191:
 369              	.LBB192:
 370              	.LBB193:
 371              	.LBB194:
 372              		.loc 2 493 0
 373 0018 0023     		movs	r3, #0
 374              		.syntax unified
 375              	@ 493 "../../modules/ChibiOS/os/common/ext/ARM/CMSIS/Core/Include/cmsis_gcc.h" 1
 376 001a 83F31188 		MSR basepri, r3
 377              	@ 0 "" 2
 378              	.LVL20:
 379              		.thumb
 380              		.syntax unified
 381 001e 38BD     		pop	{r3, r4, r5, pc}
 382              	.LBE194:
 383              	.LBE193:
 384              	.LBE192:
 385              	.LBE191:
 386              	.LBE190:
 387              	.LBE189:
 388              		.cfi_endproc
 389              	.LFE328:
 390              		.size	pwmEnableChannel, .-pwmEnableChannel
 391              		.section	.text.pwmDisableChannel,"ax",%progbits
 392              		.align	1
 393              		.global	pwmDisableChannel
 394              		.syntax unified
 395              		.thumb
 396              		.thumb_func
 397              		.fpu fpv4-sp-d16
 398              		.type	pwmDisableChannel, %function
 399              	pwmDisableChannel:
ARM GAS  /tmp/cc7saPTd.s 			page 8


 400              	.LFB329:
 401              		.loc 1 196 0
 402              		.cfi_startproc
 403              		@ args = 0, pretend = 0, frame = 0
 404              		@ frame_needed = 0, uses_anonymous_args = 0
 405              	.LVL21:
 406 0000 10B5     		push	{r4, lr}
 407              		.cfi_def_cfa_offset 8
 408              		.cfi_offset 4, -8
 409              		.cfi_offset 14, -4
 410              	.LBB195:
 411              	.LBB196:
 412              	.LBB197:
 413              	.LBB198:
 414              	.LBB199:
 415              		.loc 2 493 0
 416 0002 2023     		movs	r3, #32
 417              		.syntax unified
 418              	@ 493 "../../modules/ChibiOS/os/common/ext/ARM/CMSIS/Core/Include/cmsis_gcc.h" 1
 419 0004 83F31188 		MSR basepri, r3
 420              	@ 0 "" 2
 421              	.LVL22:
 422              		.thumb
 423              		.syntax unified
 424              	.LBE199:
 425              	.LBE198:
 426              	.LBE197:
 427              	.LBE196:
 428              	.LBE195:
 429              		.loc 1 204 0
 430 0008 0123     		movs	r3, #1
 431 000a 03FA01F2 		lsl	r2, r3, r1
 432 000e C368     		ldr	r3, [r0, #12]
 433 0010 23EA0203 		bic	r3, r3, r2
 434 0014 C360     		str	r3, [r0, #12]
 435 0016 FFF7FEFF 		bl	pwm_lld_disable_channel
 436              	.LVL23:
 437              	.LBB200:
 438              	.LBB201:
 439              	.LBB202:
 440              	.LBB203:
 441              	.LBB204:
 442              	.LBB205:
 443              		.loc 2 493 0
 444 001a 0023     		movs	r3, #0
 445              		.syntax unified
 446              	@ 493 "../../modules/ChibiOS/os/common/ext/ARM/CMSIS/Core/Include/cmsis_gcc.h" 1
 447 001c 83F31188 		MSR basepri, r3
 448              	@ 0 "" 2
 449              	.LVL24:
 450              		.thumb
 451              		.syntax unified
 452 0020 10BD     		pop	{r4, pc}
 453              	.LBE205:
 454              	.LBE204:
 455              	.LBE203:
 456              	.LBE202:
ARM GAS  /tmp/cc7saPTd.s 			page 9


 457              	.LBE201:
 458              	.LBE200:
 459              		.cfi_endproc
 460              	.LFE329:
 461              		.size	pwmDisableChannel, .-pwmDisableChannel
 462              		.section	.text.pwmEnablePeriodicNotification,"ax",%progbits
 463              		.align	1
 464              		.global	pwmEnablePeriodicNotification
 465              		.syntax unified
 466              		.thumb
 467              		.thumb_func
 468              		.fpu fpv4-sp-d16
 469              		.type	pwmEnablePeriodicNotification, %function
 470              	pwmEnablePeriodicNotification:
 471              	.LFB330:
 472              		.loc 1 218 0
 473              		.cfi_startproc
 474              		@ args = 0, pretend = 0, frame = 0
 475              		@ frame_needed = 0, uses_anonymous_args = 0
 476              	.LVL25:
 477 0000 08B5     		push	{r3, lr}
 478              		.cfi_def_cfa_offset 8
 479              		.cfi_offset 3, -8
 480              		.cfi_offset 14, -4
 481              	.LBB206:
 482              	.LBB207:
 483              	.LBB208:
 484              	.LBB209:
 485              	.LBB210:
 486              		.loc 2 493 0
 487 0002 2023     		movs	r3, #32
 488              		.syntax unified
 489              	@ 493 "../../modules/ChibiOS/os/common/ext/ARM/CMSIS/Core/Include/cmsis_gcc.h" 1
 490 0004 83F31188 		MSR basepri, r3
 491              	@ 0 "" 2
 492              	.LVL26:
 493              		.thumb
 494              		.syntax unified
 495              	.LBE210:
 496              	.LBE209:
 497              	.LBE208:
 498              	.LBE207:
 499              	.LBE206:
 500              		.loc 1 227 0
 501 0008 FFF7FEFF 		bl	pwm_lld_enable_periodic_notification
 502              	.LVL27:
 503              	.LBB211:
 504              	.LBB212:
 505              	.LBB213:
 506              	.LBB214:
 507              	.LBB215:
 508              	.LBB216:
 509              		.loc 2 493 0
 510 000c 0023     		movs	r3, #0
 511              		.syntax unified
 512              	@ 493 "../../modules/ChibiOS/os/common/ext/ARM/CMSIS/Core/Include/cmsis_gcc.h" 1
 513 000e 83F31188 		MSR basepri, r3
ARM GAS  /tmp/cc7saPTd.s 			page 10


 514              	@ 0 "" 2
 515              	.LVL28:
 516              		.thumb
 517              		.syntax unified
 518 0012 08BD     		pop	{r3, pc}
 519              	.LBE216:
 520              	.LBE215:
 521              	.LBE214:
 522              	.LBE213:
 523              	.LBE212:
 524              	.LBE211:
 525              		.cfi_endproc
 526              	.LFE330:
 527              		.size	pwmEnablePeriodicNotification, .-pwmEnablePeriodicNotification
 528              		.section	.text.pwmDisablePeriodicNotification,"ax",%progbits
 529              		.align	1
 530              		.global	pwmDisablePeriodicNotification
 531              		.syntax unified
 532              		.thumb
 533              		.thumb_func
 534              		.fpu fpv4-sp-d16
 535              		.type	pwmDisablePeriodicNotification, %function
 536              	pwmDisablePeriodicNotification:
 537              	.LFB331:
 538              		.loc 1 241 0
 539              		.cfi_startproc
 540              		@ args = 0, pretend = 0, frame = 0
 541              		@ frame_needed = 0, uses_anonymous_args = 0
 542              	.LVL29:
 543 0000 08B5     		push	{r3, lr}
 544              		.cfi_def_cfa_offset 8
 545              		.cfi_offset 3, -8
 546              		.cfi_offset 14, -4
 547              	.LBB217:
 548              	.LBB218:
 549              	.LBB219:
 550              	.LBB220:
 551              	.LBB221:
 552              		.loc 2 493 0
 553 0002 2023     		movs	r3, #32
 554              		.syntax unified
 555              	@ 493 "../../modules/ChibiOS/os/common/ext/ARM/CMSIS/Core/Include/cmsis_gcc.h" 1
 556 0004 83F31188 		MSR basepri, r3
 557              	@ 0 "" 2
 558              	.LVL30:
 559              		.thumb
 560              		.syntax unified
 561              	.LBE221:
 562              	.LBE220:
 563              	.LBE219:
 564              	.LBE218:
 565              	.LBE217:
 566              		.loc 1 250 0
 567 0008 FFF7FEFF 		bl	pwm_lld_disable_periodic_notification
 568              	.LVL31:
 569              	.LBB222:
 570              	.LBB223:
ARM GAS  /tmp/cc7saPTd.s 			page 11


 571              	.LBB224:
 572              	.LBB225:
 573              	.LBB226:
 574              	.LBB227:
 575              		.loc 2 493 0
 576 000c 0023     		movs	r3, #0
 577              		.syntax unified
 578              	@ 493 "../../modules/ChibiOS/os/common/ext/ARM/CMSIS/Core/Include/cmsis_gcc.h" 1
 579 000e 83F31188 		MSR basepri, r3
 580              	@ 0 "" 2
 581              	.LVL32:
 582              		.thumb
 583              		.syntax unified
 584 0012 08BD     		pop	{r3, pc}
 585              	.LBE227:
 586              	.LBE226:
 587              	.LBE225:
 588              	.LBE224:
 589              	.LBE223:
 590              	.LBE222:
 591              		.cfi_endproc
 592              	.LFE331:
 593              		.size	pwmDisablePeriodicNotification, .-pwmDisablePeriodicNotification
 594              		.section	.text.pwmEnableChannelNotification,"ax",%progbits
 595              		.align	1
 596              		.global	pwmEnableChannelNotification
 597              		.syntax unified
 598              		.thumb
 599              		.thumb_func
 600              		.fpu fpv4-sp-d16
 601              		.type	pwmEnableChannelNotification, %function
 602              	pwmEnableChannelNotification:
 603              	.LFB332:
 604              		.loc 1 266 0
 605              		.cfi_startproc
 606              		@ args = 0, pretend = 0, frame = 0
 607              		@ frame_needed = 0, uses_anonymous_args = 0
 608              	.LVL33:
 609 0000 08B5     		push	{r3, lr}
 610              		.cfi_def_cfa_offset 8
 611              		.cfi_offset 3, -8
 612              		.cfi_offset 14, -4
 613              	.LBB228:
 614              	.LBB229:
 615              	.LBB230:
 616              	.LBB231:
 617              	.LBB232:
 618              		.loc 2 493 0
 619 0002 2023     		movs	r3, #32
 620              		.syntax unified
 621              	@ 493 "../../modules/ChibiOS/os/common/ext/ARM/CMSIS/Core/Include/cmsis_gcc.h" 1
 622 0004 83F31188 		MSR basepri, r3
 623              	@ 0 "" 2
 624              	.LVL34:
 625              		.thumb
 626              		.syntax unified
 627              	.LBE232:
ARM GAS  /tmp/cc7saPTd.s 			page 12


 628              	.LBE231:
 629              	.LBE230:
 630              	.LBE229:
 631              	.LBE228:
 632              		.loc 1 278 0
 633 0008 FFF7FEFF 		bl	pwm_lld_enable_channel_notification
 634              	.LVL35:
 635              	.LBB233:
 636              	.LBB234:
 637              	.LBB235:
 638              	.LBB236:
 639              	.LBB237:
 640              	.LBB238:
 641              		.loc 2 493 0
 642 000c 0023     		movs	r3, #0
 643              		.syntax unified
 644              	@ 493 "../../modules/ChibiOS/os/common/ext/ARM/CMSIS/Core/Include/cmsis_gcc.h" 1
 645 000e 83F31188 		MSR basepri, r3
 646              	@ 0 "" 2
 647              	.LVL36:
 648              		.thumb
 649              		.syntax unified
 650 0012 08BD     		pop	{r3, pc}
 651              	.LBE238:
 652              	.LBE237:
 653              	.LBE236:
 654              	.LBE235:
 655              	.LBE234:
 656              	.LBE233:
 657              		.cfi_endproc
 658              	.LFE332:
 659              		.size	pwmEnableChannelNotification, .-pwmEnableChannelNotification
 660              		.section	.text.pwmDisableChannelNotification,"ax",%progbits
 661              		.align	1
 662              		.global	pwmDisableChannelNotification
 663              		.syntax unified
 664              		.thumb
 665              		.thumb_func
 666              		.fpu fpv4-sp-d16
 667              		.type	pwmDisableChannelNotification, %function
 668              	pwmDisableChannelNotification:
 669              	.LFB333:
 670              		.loc 1 294 0
 671              		.cfi_startproc
 672              		@ args = 0, pretend = 0, frame = 0
 673              		@ frame_needed = 0, uses_anonymous_args = 0
 674              	.LVL37:
 675 0000 08B5     		push	{r3, lr}
 676              		.cfi_def_cfa_offset 8
 677              		.cfi_offset 3, -8
 678              		.cfi_offset 14, -4
 679              	.LBB239:
 680              	.LBB240:
 681              	.LBB241:
 682              	.LBB242:
 683              	.LBB243:
 684              		.loc 2 493 0
ARM GAS  /tmp/cc7saPTd.s 			page 13


 685 0002 2023     		movs	r3, #32
 686              		.syntax unified
 687              	@ 493 "../../modules/ChibiOS/os/common/ext/ARM/CMSIS/Core/Include/cmsis_gcc.h" 1
 688 0004 83F31188 		MSR basepri, r3
 689              	@ 0 "" 2
 690              	.LVL38:
 691              		.thumb
 692              		.syntax unified
 693              	.LBE243:
 694              	.LBE242:
 695              	.LBE241:
 696              	.LBE240:
 697              	.LBE239:
 698              		.loc 1 306 0
 699 0008 FFF7FEFF 		bl	pwm_lld_disable_channel_notification
 700              	.LVL39:
 701              	.LBB244:
 702              	.LBB245:
 703              	.LBB246:
 704              	.LBB247:
 705              	.LBB248:
 706              	.LBB249:
 707              		.loc 2 493 0
 708 000c 0023     		movs	r3, #0
 709              		.syntax unified
 710              	@ 493 "../../modules/ChibiOS/os/common/ext/ARM/CMSIS/Core/Include/cmsis_gcc.h" 1
 711 000e 83F31188 		MSR basepri, r3
 712              	@ 0 "" 2
 713              	.LVL40:
 714              		.thumb
 715              		.syntax unified
 716 0012 08BD     		pop	{r3, pc}
 717              	.LBE249:
 718              	.LBE248:
 719              	.LBE247:
 720              	.LBE246:
 721              	.LBE245:
 722              	.LBE244:
 723              		.cfi_endproc
 724              	.LFE333:
 725              		.size	pwmDisableChannelNotification, .-pwmDisableChannelNotification
 726              		.text
 727              	.Letext0:
 728              		.file 3 "/opt/gcc-arm-none-eabi-6-2017-q2-update/lib/gcc/arm-none-eabi/6.3.1/include/stddef.h"
 729              		.file 4 "/opt/gcc-arm-none-eabi-6-2017-q2-update/arm-none-eabi/include/machine/_default_types.h"
 730              		.file 5 "/opt/gcc-arm-none-eabi-6-2017-q2-update/arm-none-eabi/include/sys/_stdint.h"
 731              		.file 6 "/opt/gcc-arm-none-eabi-6-2017-q2-update/arm-none-eabi/include/stdint.h"
 732              		.file 7 "../../modules/ChibiOS/os/common/ports/ARMCMx/compilers/GCC/chtypes.h"
 733              		.file 8 "../../modules/ChibiOS/os/rt/include/chsystypes.h"
 734              		.file 9 "../../modules/ChibiOS/os/rt/include/chschd.h"
 735              		.file 10 "../../modules/ChibiOS/os/rt/include/chtime.h"
 736              		.file 11 "../../modules/ChibiOS/os/common/ext/ARM/CMSIS/Core/Include/core_cm4.h"
 737              		.file 12 "../../modules/ChibiOS/os/common/ext/ST/STM32F4xx/system_stm32f4xx.h"
 738              		.file 13 "../../modules/ChibiOS/os/common/ext/ST/STM32F4xx/stm32f427xx.h"
 739              		.file 14 "../../modules/ChibiOS/os/common/ports/ARMCMx/chcore.h"
 740              		.file 15 "../../modules/ChibiOS/os/common/ports/ARMCMx/chcore_v7m.h"
 741              		.file 16 "../../modules/ChibiOS/os/hal/ports/STM32/LLD/TIMv1/stm32_tim.h"
ARM GAS  /tmp/cc7saPTd.s 			page 14


 742              		.file 17 "../../modules/ChibiOS/os/rt/include/chtm.h"
 743              		.file 18 "../../modules/ChibiOS/os/rt/include/chsem.h"
 744              		.file 19 "../../modules/ChibiOS/os/rt/include/chmtx.h"
 745              		.file 20 "../../modules/ChibiOS/os/rt/include/chsys.h"
 746              		.file 21 "../../modules/ChibiOS/os/rt/include/chregistry.h"
 747              		.file 22 "../../modules/ChibiOS/os/rt/include/chevents.h"
 748              		.file 23 "../../modules/ChibiOS/os/oslib/include/chmemcore.h"
 749              		.file 24 "../../modules/ChibiOS/os/oslib/include/chmempools.h"
 750              		.file 25 "../../modules/ChibiOS/os/oslib/include/chfactory.h"
 751              		.file 26 "../../modules/ChibiOS/os/hal/ports/STM32/LLD/DMAv2/stm32_dma.h"
 752              		.file 27 "../../modules/ChibiOS/os/hal/include/hal_ioblock.h"
 753              		.file 28 "../../modules/ChibiOS/os/hal/include/hal_queues.h"
 754              		.file 29 "../../modules/ChibiOS/os/hal/include/hal_pal.h"
 755              		.file 30 "../../modules/ChibiOS/os/hal/ports/STM32/LLD/GPIOv2/stm32_gpio.h"
 756              		.file 31 "../../modules/ChibiOS/os/hal/ports/STM32/LLD/GPIOv2/hal_pal_lld.h"
 757              		.file 32 "../../modules/ChibiOS/os/hal/include/hal_adc.h"
 758              		.file 33 "../../modules/ChibiOS/os/hal/ports/STM32/LLD/ADCv2/hal_adc_lld.h"
 759              		.file 34 "../../modules/ChibiOS/os/hal/include/hal_i2c.h"
 760              		.file 35 "../../modules/ChibiOS/os/hal/ports/STM32/LLD/I2Cv1/hal_i2c_lld.h"
 761              		.file 36 "../../modules/ChibiOS/os/hal/include/hal_pwm.h"
 762              		.file 37 "../../modules/ChibiOS/os/hal/ports/STM32/LLD/TIMv1/hal_pwm_lld.h"
 763              		.file 38 "../../modules/ChibiOS/os/hal/include/hal_serial.h"
 764              		.file 39 "../../modules/ChibiOS/os/hal/ports/STM32/LLD/USARTv1/hal_serial_lld.h"
 765              		.file 40 "../../modules/ChibiOS/os/hal/include/hal_sdc.h"
 766              		.file 41 "../../modules/ChibiOS/os/hal/ports/STM32/LLD/SDIOv1/hal_sdc_lld.h"
 767              		.file 42 "../../modules/ChibiOS/os/hal/include/hal_spi.h"
 768              		.file 43 "../../modules/ChibiOS/os/hal/ports/STM32/LLD/SPIv1/hal_spi_lld.h"
 769              		.file 44 "../../modules/ChibiOS/os/hal/include/hal_usb.h"
 770              		.file 45 "../../modules/ChibiOS/os/hal/ports/STM32/LLD/OTGv1/hal_usb_lld.h"
 771              		.file 46 "../../modules/ChibiOS/os/hal/ports/STM32/LLD/OTGv1/stm32_otg.h"
 772              		.file 47 "../../modules/ChibiOS/os/hal/osal/rt/osal.h"