ARM GAS  /tmp/ccnljRkL.s 			page 1


   1              		.cpu cortex-m4
   2              		.eabi_attribute 27, 1
   3              		.eabi_attribute 28, 1
   4              		.eabi_attribute 20, 1
   5              		.eabi_attribute 21, 1
   6              		.eabi_attribute 23, 3
   7              		.eabi_attribute 24, 1
   8              		.eabi_attribute 25, 1
   9              		.eabi_attribute 26, 1
  10              		.eabi_attribute 30, 4
  11              		.eabi_attribute 34, 1
  12              		.eabi_attribute 18, 4
  13              		.file	"hal_spi_lld.c"
  14              		.text
  15              	.Ltext0:
  16              		.cfi_sections	.debug_frame
  17              		.section	.text.spi_lld_serve_tx_interrupt,"ax",%progbits
  18              		.align	1
  19              		.syntax unified
  20              		.thumb
  21              		.thumb_func
  22              		.fpu fpv4-sp-d16
  23              		.type	spi_lld_serve_tx_interrupt, %function
  24              	spi_lld_serve_tx_interrupt:
  25              	.LFB324:
  26              		.file 1 "../../modules/ChibiOS/os/hal/ports/STM32/LLD/SPIv1/hal_spi_lld.c"
  27              		.loc 1 170 0
  28              		.cfi_startproc
  29              		@ args = 0, pretend = 0, frame = 0
  30              		@ frame_needed = 0, uses_anonymous_args = 0
  31              		@ link register save eliminated.
  32              	.LVL0:
  33              		.loc 1 175 0
  34 0000 11F00C0F 		tst	r1, #12
  35 0004 02D0     		beq	.L1
  36              	.LVL1:
  37              	.LBB56:
  38              	.LBB57:
  39              		.file 2 "../../modules/ChibiOS/os/hal/osal/rt/osal.h"
  40              		.loc 2 480 0
  41 0006 0248     		ldr	r0, .L3
  42              	.LVL2:
  43 0008 FFF7FEBF 		b	chSysHalt
  44              	.LVL3:
  45              	.L1:
  46 000c 7047     		bx	lr
  47              	.L4:
  48 000e 00BF     		.align	2
  49              	.L3:
  50 0010 00000000 		.word	.LC0
  51              	.LBE57:
  52              	.LBE56:
  53              		.cfi_endproc
  54              	.LFE324:
  55              		.size	spi_lld_serve_tx_interrupt, .-spi_lld_serve_tx_interrupt
  56              		.section	.text.spi_lld_serve_rx_interrupt,"ax",%progbits
  57              		.align	1
ARM GAS  /tmp/ccnljRkL.s 			page 2


  58              		.syntax unified
  59              		.thumb
  60              		.thumb_func
  61              		.fpu fpv4-sp-d16
  62              		.type	spi_lld_serve_rx_interrupt, %function
  63              	spi_lld_serve_rx_interrupt:
  64              	.LFB323:
  65              		.loc 1 132 0
  66              		.cfi_startproc
  67              		@ args = 0, pretend = 0, frame = 0
  68              		@ frame_needed = 0, uses_anonymous_args = 0
  69              	.LVL4:
  70              		.loc 1 136 0
  71 0000 11F00C0F 		tst	r1, #12
  72              		.loc 1 132 0
  73 0004 38B5     		push	{r3, r4, r5, lr}
  74              		.cfi_def_cfa_offset 16
  75              		.cfi_offset 3, -16
  76              		.cfi_offset 4, -12
  77              		.cfi_offset 5, -8
  78              		.cfi_offset 14, -4
  79              		.loc 1 132 0
  80 0006 0446     		mov	r4, r0
  81 0008 0D46     		mov	r5, r1
  82              		.loc 1 136 0
  83 000a 02D0     		beq	.L6
  84              	.LVL5:
  85              	.LBB58:
  86              	.LBB59:
  87              		.loc 2 480 0
  88 000c 2748     		ldr	r0, .L33
  89              	.LVL6:
  90 000e FFF7FEFF 		bl	chSysHalt
  91              	.LVL7:
  92              	.L6:
  93              	.LBE59:
  94              	.LBE58:
  95              		.loc 1 143 0
  96 0012 6368     		ldr	r3, [r4, #4]
  97 0014 1A78     		ldrb	r2, [r3]	@ zero_extendqisi2
  98 0016 AAB1     		cbz	r2, .L7
  99              		.loc 1 144 0
 100 0018 EA06     		lsls	r2, r5, #27
 101 001a 03D5     		bpl	.L8
 102              		.loc 1 146 0
 103 001c 5B68     		ldr	r3, [r3, #4]
 104 001e 0BB1     		cbz	r3, .L8
 105              		.loc 1 146 0 is_stmt 0 discriminator 1
 106 0020 2046     		mov	r0, r4
 107 0022 9847     		blx	r3
 108              	.LVL8:
 109              	.L8:
 110              		.loc 1 148 0 is_stmt 1
 111 0024 AB06     		lsls	r3, r5, #26
 112 0026 3FD5     		bpl	.L5
 113              		.loc 1 150 0
 114 0028 6368     		ldr	r3, [r4, #4]
ARM GAS  /tmp/ccnljRkL.s 			page 3


 115 002a 5B68     		ldr	r3, [r3, #4]
 116 002c 002B     		cmp	r3, #0
 117 002e 3BD0     		beq	.L5
 118              		.loc 1 150 0 is_stmt 0 discriminator 1
 119 0030 0422     		movs	r2, #4
 120 0032 2270     		strb	r2, [r4]
 121 0034 2046     		mov	r0, r4
 122 0036 9847     		blx	r3
 123              	.LVL9:
 124 0038 2378     		ldrb	r3, [r4]	@ zero_extendqisi2
 125 003a 042B     		cmp	r3, #4
 126 003c 34D1     		bne	.L5
 127              		.loc 1 150 0 discriminator 2
 128 003e 0323     		movs	r3, #3
 129 0040 2370     		strb	r3, [r4]
 130 0042 38BD     		pop	{r3, r4, r5, pc}
 131              	.LVL10:
 132              	.L7:
 133              		.loc 1 155 0 is_stmt 1
 134 0044 A26A     		ldr	r2, [r4, #40]
 135 0046 1168     		ldr	r1, [r2]
 136 0048 0868     		ldr	r0, [r1]
 137 004a 20F01F00 		bic	r0, r0, #31
 138 004e 0860     		str	r0, [r1]
 139              	.LVL11:
 140              	.L12:
 141              		.loc 1 155 0 is_stmt 0 discriminator 2
 142 0050 0868     		ldr	r0, [r1]
 143 0052 C507     		lsls	r5, r0, #31
 144 0054 FCD4     		bmi	.L12
 145              		.loc 1 155 0 discriminator 3
 146 0056 507A     		ldrb	r0, [r2, #9]	@ zero_extendqisi2
 147 0058 5168     		ldr	r1, [r2, #4]
 148 005a 3D22     		movs	r2, #61
 149 005c 8240     		lsls	r2, r2, r0
 150 005e 0A60     		str	r2, [r1]
 151              		.loc 1 156 0 is_stmt 1 discriminator 3
 152 0060 626A     		ldr	r2, [r4, #36]
 153 0062 1168     		ldr	r1, [r2]
 154 0064 0868     		ldr	r0, [r1]
 155 0066 20F01F00 		bic	r0, r0, #31
 156 006a 0860     		str	r0, [r1]
 157              	.L13:
 158              		.loc 1 156 0 is_stmt 0 discriminator 2
 159 006c 0868     		ldr	r0, [r1]
 160 006e C007     		lsls	r0, r0, #31
 161 0070 FCD4     		bmi	.L13
 162              		.loc 1 156 0 discriminator 3
 163 0072 507A     		ldrb	r0, [r2, #9]	@ zero_extendqisi2
 164 0074 5168     		ldr	r1, [r2, #4]
 165              		.loc 1 160 0 is_stmt 1 discriminator 3
 166 0076 5B68     		ldr	r3, [r3, #4]
 167              		.loc 1 156 0 discriminator 3
 168 0078 3D22     		movs	r2, #61
 169 007a 8240     		lsls	r2, r2, r0
 170 007c 0A60     		str	r2, [r1]
 171              		.loc 1 160 0 discriminator 3
ARM GAS  /tmp/ccnljRkL.s 			page 4


 172 007e 33B1     		cbz	r3, .L14
 173              		.loc 1 160 0 is_stmt 0 discriminator 1
 174 0080 0422     		movs	r2, #4
 175 0082 2270     		strb	r2, [r4]
 176 0084 2046     		mov	r0, r4
 177 0086 9847     		blx	r3
 178              	.LVL12:
 179 0088 2378     		ldrb	r3, [r4]	@ zero_extendqisi2
 180 008a 042B     		cmp	r3, #4
 181 008c 01D1     		bne	.L15
 182              	.L14:
 183              		.loc 1 160 0 discriminator 3
 184 008e 0223     		movs	r3, #2
 185 0090 2370     		strb	r3, [r4]
 186              	.L15:
 187              	.LVL13:
 188              	.LBB60:
 189              	.LBB61:
 190              	.LBB62:
 191              	.LBB63:
 192              	.LBB64:
 193              	.LBB65:
 194              		.file 3 "../../modules/ChibiOS/os/common/ext/ARM/CMSIS/Core/Include/cmsis_gcc.h"
 195              		.loc 3 493 0 is_stmt 1 discriminator 4
 196 0092 2023     		movs	r3, #32
 197              		.syntax unified
 198              	@ 493 "../../modules/ChibiOS/os/common/ext/ARM/CMSIS/Core/Include/cmsis_gcc.h" 1
 199 0094 83F31188 		MSR basepri, r3
 200              	@ 0 "" 2
 201              	.LVL14:
 202              		.thumb
 203              		.syntax unified
 204              	.LBE65:
 205              	.LBE64:
 206              	.LBE63:
 207              	.LBE62:
 208              	.LBE61:
 209              	.LBE60:
 210              	.LBB66:
 211              	.LBB67:
 212              		.loc 2 775 0 discriminator 4
 213 0098 0021     		movs	r1, #0
 214 009a 04F10800 		add	r0, r4, #8
 215              	.LVL15:
 216 009e FFF7FEFF 		bl	chThdResumeI
 217              	.LVL16:
 218              	.LBE67:
 219              	.LBE66:
 220              	.LBB68:
 221              	.LBB69:
 222              	.LBB70:
 223              	.LBB71:
 224              	.LBB72:
 225              	.LBB73:
 226              		.loc 3 493 0 discriminator 4
 227 00a2 0023     		movs	r3, #0
 228              		.syntax unified
ARM GAS  /tmp/ccnljRkL.s 			page 5


 229              	@ 493 "../../modules/ChibiOS/os/common/ext/ARM/CMSIS/Core/Include/cmsis_gcc.h" 1
 230 00a4 83F31188 		MSR basepri, r3
 231              	@ 0 "" 2
 232              	.LVL17:
 233              		.thumb
 234              		.syntax unified
 235              	.L5:
 236 00a8 38BD     		pop	{r3, r4, r5, pc}
 237              	.LVL18:
 238              	.L34:
 239 00aa 00BF     		.align	2
 240              	.L33:
 241 00ac 00000000 		.word	.LC0
 242              	.LBE73:
 243              	.LBE72:
 244              	.LBE71:
 245              	.LBE70:
 246              	.LBE69:
 247              	.LBE68:
 248              		.cfi_endproc
 249              	.LFE323:
 250              		.size	spi_lld_serve_rx_interrupt, .-spi_lld_serve_rx_interrupt
 251              		.section	.text.spi_lld_init,"ax",%progbits
 252              		.align	1
 253              		.global	spi_lld_init
 254              		.syntax unified
 255              		.thumb
 256              		.thumb_func
 257              		.fpu fpv4-sp-d16
 258              		.type	spi_lld_init, %function
 259              	spi_lld_init:
 260              	.LFB325:
 261              		.loc 1 197 0
 262              		.cfi_startproc
 263              		@ args = 0, pretend = 0, frame = 0
 264              		@ frame_needed = 0, uses_anonymous_args = 0
 265 0000 38B5     		push	{r3, r4, r5, lr}
 266              		.cfi_def_cfa_offset 16
 267              		.cfi_offset 3, -16
 268              		.cfi_offset 4, -12
 269              		.cfi_offset 5, -8
 270              		.cfi_offset 14, -4
 271              		.loc 1 200 0
 272 0002 134C     		ldr	r4, .L36
 273 0004 2046     		mov	r0, r4
 274 0006 FFF7FEFF 		bl	spiObjectInit
 275              	.LVL19:
 276              		.loc 1 201 0
 277 000a 124B     		ldr	r3, .L36+4
 278 000c 2362     		str	r3, [r4, #32]
 279              		.loc 1 204 0
 280 000e 124B     		ldr	r3, .L36+8
 281 0010 E362     		str	r3, [r4, #44]
 282              		.loc 1 202 0
 283 0012 0025     		movs	r5, #0
 284              		.loc 1 210 0
 285 0014 3033     		adds	r3, r3, #48
ARM GAS  /tmp/ccnljRkL.s 			page 6


 286 0016 2363     		str	r3, [r4, #48]
 287              		.loc 1 202 0
 288 0018 6562     		str	r5, [r4, #36]
 289              		.loc 1 203 0
 290 001a A562     		str	r5, [r4, #40]
 291              		.loc 1 218 0
 292 001c 0F4C     		ldr	r4, .L36+12
 293 001e 2046     		mov	r0, r4
 294 0020 FFF7FEFF 		bl	spiObjectInit
 295              	.LVL20:
 296              		.loc 1 219 0
 297 0024 0E4B     		ldr	r3, .L36+16
 298 0026 2362     		str	r3, [r4, #32]
 299              		.loc 1 222 0
 300 0028 0E4B     		ldr	r3, .L36+20
 301 002a E362     		str	r3, [r4, #44]
 302              		.loc 1 228 0
 303 002c 3033     		adds	r3, r3, #48
 304 002e 2363     		str	r3, [r4, #48]
 305              		.loc 1 220 0
 306 0030 6562     		str	r5, [r4, #36]
 307              		.loc 1 221 0
 308 0032 A562     		str	r5, [r4, #40]
 309              		.loc 1 254 0
 310 0034 0C4C     		ldr	r4, .L36+24
 311 0036 2046     		mov	r0, r4
 312 0038 FFF7FEFF 		bl	spiObjectInit
 313              	.LVL21:
 314              		.loc 1 255 0
 315 003c 0B4B     		ldr	r3, .L36+28
 316 003e 2362     		str	r3, [r4, #32]
 317              		.loc 1 258 0
 318 0040 0B4B     		ldr	r3, .L36+32
 319 0042 E362     		str	r3, [r4, #44]
 320              		.loc 1 264 0
 321 0044 3033     		adds	r3, r3, #48
 322              		.loc 1 256 0
 323 0046 6562     		str	r5, [r4, #36]
 324              		.loc 1 257 0
 325 0048 A562     		str	r5, [r4, #40]
 326              		.loc 1 264 0
 327 004a 2363     		str	r3, [r4, #48]
 328 004c 38BD     		pop	{r3, r4, r5, pc}
 329              	.L37:
 330 004e 00BF     		.align	2
 331              	.L36:
 332 0050 00000000 		.word	.LANCHOR0
 333 0054 00300140 		.word	1073819648
 334 0058 16000106 		.word	100728854
 335 005c 00000000 		.word	.LANCHOR1
 336 0060 00380040 		.word	1073756160
 337 0064 16000100 		.word	65558
 338 0068 00000000 		.word	.LANCHOR2
 339 006c 00340140 		.word	1073820672
 340 0070 1600010A 		.word	167837718
 341              		.cfi_endproc
 342              	.LFE325:
ARM GAS  /tmp/ccnljRkL.s 			page 7


 343              		.size	spi_lld_init, .-spi_lld_init
 344              		.section	.text.spi_lld_start,"ax",%progbits
 345              		.align	1
 346              		.global	spi_lld_start
 347              		.syntax unified
 348              		.thumb
 349              		.thumb_func
 350              		.fpu fpv4-sp-d16
 351              		.type	spi_lld_start, %function
 352              	spi_lld_start:
 353              	.LFB326:
 354              		.loc 1 315 0
 355              		.cfi_startproc
 356              		@ args = 0, pretend = 0, frame = 0
 357              		@ frame_needed = 0, uses_anonymous_args = 0
 358              	.LVL22:
 359 0000 38B5     		push	{r3, r4, r5, lr}
 360              		.cfi_def_cfa_offset 16
 361              		.cfi_offset 3, -16
 362              		.cfi_offset 4, -12
 363              		.cfi_offset 5, -8
 364              		.cfi_offset 14, -4
 365              		.loc 1 318 0
 366 0002 0378     		ldrb	r3, [r0]	@ zero_extendqisi2
 367 0004 012B     		cmp	r3, #1
 368              		.loc 1 315 0
 369 0006 0446     		mov	r4, r0
 370              		.loc 1 318 0
 371 0008 50D1     		bne	.L39
 372              		.loc 1 320 0
 373 000a 564B     		ldr	r3, .L50
 374 000c 9842     		cmp	r0, r3
 375 000e 21D1     		bne	.L40
 376              		.loc 1 321 0
 377 0010 0A21     		movs	r1, #10
 378 0012 0346     		mov	r3, r0
 379 0014 544A     		ldr	r2, .L50+4
 380 0016 0846     		mov	r0, r1
 381              	.LVL23:
 382 0018 FFF7FEFF 		bl	dmaStreamAllocI
 383              	.LVL24:
 384              		.loc 1 326 0
 385 001c 2346     		mov	r3, r4
 386              		.loc 1 321 0
 387 001e 6062     		str	r0, [r4, #36]
 388              		.loc 1 326 0
 389 0020 524A     		ldr	r2, .L50+8
 390 0022 0A21     		movs	r1, #10
 391 0024 0D20     		movs	r0, #13
 392 0026 FFF7FEFF 		bl	dmaStreamAllocI
 393              	.LVL25:
 394              		.loc 1 331 0
 395 002a 514B     		ldr	r3, .L50+12
 396              		.loc 1 326 0
 397 002c A062     		str	r0, [r4, #40]
 398              		.loc 1 331 0
 399 002e 5A6A     		ldr	r2, [r3, #36]
ARM GAS  /tmp/ccnljRkL.s 			page 8


 400 0030 42F48052 		orr	r2, r2, #4096
 401 0034 5A62     		str	r2, [r3, #36]
 402 0036 5A6A     		ldr	r2, [r3, #36]
 403 0038 22F48052 		bic	r2, r2, #4096
 404 003c 5A62     		str	r2, [r3, #36]
 405 003e 5A6A     		ldr	r2, [r3, #36]
 406              		.loc 1 332 0
 407 0040 5A6C     		ldr	r2, [r3, #68]
 408 0042 42F48052 		orr	r2, r2, #4096
 409 0046 5A64     		str	r2, [r3, #68]
 410 0048 5A6E     		ldr	r2, [r3, #100]
 411 004a 42F48052 		orr	r2, r2, #4096
 412              	.L47:
 413              		.loc 1 380 0
 414 004e 5A66     		str	r2, [r3, #100]
 415 0050 5B6E     		ldr	r3, [r3, #100]
 416 0052 23E0     		b	.L41
 417              	.LVL26:
 418              	.L40:
 419              		.loc 1 336 0
 420 0054 474B     		ldr	r3, .L50+16
 421 0056 9842     		cmp	r0, r3
 422 0058 5BD1     		bne	.L42
 423              		.loc 1 337 0
 424 005a 0346     		mov	r3, r0
 425 005c 424A     		ldr	r2, .L50+4
 426 005e 0A21     		movs	r1, #10
 427 0060 0320     		movs	r0, #3
 428              	.LVL27:
 429 0062 FFF7FEFF 		bl	dmaStreamAllocI
 430              	.LVL28:
 431              		.loc 1 342 0
 432 0066 2346     		mov	r3, r4
 433              		.loc 1 337 0
 434 0068 6062     		str	r0, [r4, #36]
 435              		.loc 1 342 0
 436 006a 404A     		ldr	r2, .L50+8
 437 006c 0A21     		movs	r1, #10
 438 006e 0420     		movs	r0, #4
 439 0070 FFF7FEFF 		bl	dmaStreamAllocI
 440              	.LVL29:
 441              		.loc 1 347 0
 442 0074 3E4B     		ldr	r3, .L50+12
 443              		.loc 1 342 0
 444 0076 A062     		str	r0, [r4, #40]
 445              		.loc 1 347 0
 446 0078 1A6A     		ldr	r2, [r3, #32]
 447 007a 42F48042 		orr	r2, r2, #16384
 448 007e 1A62     		str	r2, [r3, #32]
 449 0080 1A6A     		ldr	r2, [r3, #32]
 450 0082 22F48042 		bic	r2, r2, #16384
 451 0086 1A62     		str	r2, [r3, #32]
 452 0088 1A6A     		ldr	r2, [r3, #32]
 453              		.loc 1 348 0
 454 008a 1A6C     		ldr	r2, [r3, #64]
 455 008c 42F48042 		orr	r2, r2, #16384
 456 0090 1A64     		str	r2, [r3, #64]
ARM GAS  /tmp/ccnljRkL.s 			page 9


 457 0092 1A6E     		ldr	r2, [r3, #96]
 458 0094 42F48042 		orr	r2, r2, #16384
 459 0098 1A66     		str	r2, [r3, #96]
 460 009a 1B6E     		ldr	r3, [r3, #96]
 461              	.L41:
 462              		.loc 1 417 0
 463 009c 636A     		ldr	r3, [r4, #36]
 464 009e 1A68     		ldr	r2, [r3]
 465 00a0 236A     		ldr	r3, [r4, #32]
 466 00a2 0C33     		adds	r3, r3, #12
 467 00a4 9360     		str	r3, [r2, #8]
 468              		.loc 1 418 0
 469 00a6 A26A     		ldr	r2, [r4, #40]
 470 00a8 1268     		ldr	r2, [r2]
 471 00aa 9360     		str	r3, [r2, #8]
 472              	.L39:
 473              		.loc 1 422 0
 474 00ac 6068     		ldr	r0, [r4, #4]
 475 00ae 236B     		ldr	r3, [r4, #48]
 476 00b0 018A     		ldrh	r1, [r0, #16]
 477 00b2 E26A     		ldr	r2, [r4, #44]
 478              		.loc 1 437 0
 479 00b4 0578     		ldrb	r5, [r0]	@ zero_extendqisi2
 480              		.loc 1 422 0
 481 00b6 11F4006F 		tst	r1, #2048
 482              		.loc 1 425 0
 483 00ba 22F4F042 		bic	r2, r2, #30720
 484              		.loc 1 433 0
 485 00be 17BF     		itett	ne
 486 00c0 23F4F043 		bicne	r3, r3, #30720
 487              		.loc 1 427 0
 488 00c4 23F4F043 		biceq	r3, r3, #30720
 489              		.loc 1 432 0
 490 00c8 42F42052 		orrne	r2, r2, #10240
 491              		.loc 1 434 0
 492 00cc 43F42053 		orrne	r3, r3, #10240
 493              		.loc 1 424 0
 494 00d0 0CBF     		ite	eq
 495 00d2 E262     		streq	r2, [r4, #44]
 496              		.loc 1 431 0
 497 00d4 E262     		strne	r2, [r4, #44]
 498              		.loc 1 433 0
 499 00d6 2363     		str	r3, [r4, #48]
 500 00d8 E26A     		ldr	r2, [r4, #44]
 501 00da 236B     		ldr	r3, [r4, #48]
 502              		.loc 1 437 0
 503 00dc 002D     		cmp	r5, #0
 504 00de 3BD0     		beq	.L45
 505              		.loc 1 438 0
 506 00e0 42F48472 		orr	r2, r2, #264
 507 00e4 E262     		str	r2, [r4, #44]
 508              		.loc 1 439 0
 509 00e6 43F48473 		orr	r3, r3, #264
 510              	.L49:
 511              		.loc 1 443 0
 512 00ea 2363     		str	r3, [r4, #48]
 513              		.loc 1 447 0
ARM GAS  /tmp/ccnljRkL.s 			page 10


 514 00ec 236A     		ldr	r3, [r4, #32]
 515 00ee 1A68     		ldr	r2, [r3]
 516 00f0 22F04002 		bic	r2, r2, #64
 517 00f4 1A60     		str	r2, [r3]
 518              		.loc 1 450 0
 519 00f6 428A     		ldrh	r2, [r0, #18]
 520              		.loc 1 448 0
 521 00f8 41F44171 		orr	r1, r1, #772
 522              		.loc 1 450 0
 523 00fc 42F00702 		orr	r2, r2, #7
 524 0100 92B2     		uxth	r2, r2
 525              		.loc 1 448 0
 526 0102 89B2     		uxth	r1, r1
 527 0104 1960     		str	r1, [r3]
 528              		.loc 1 450 0
 529 0106 5A60     		str	r2, [r3, #4]
 530              		.loc 1 452 0
 531 0108 1A68     		ldr	r2, [r3]
 532 010a 42F04002 		orr	r2, r2, #64
 533 010e 1A60     		str	r2, [r3]
 534 0110 38BD     		pop	{r3, r4, r5, pc}
 535              	.LVL30:
 536              	.L42:
 537              		.loc 1 368 0
 538 0112 194B     		ldr	r3, .L50+20
 539 0114 9842     		cmp	r0, r3
 540 0116 C1D1     		bne	.L41
 541              		.loc 1 369 0
 542 0118 0346     		mov	r3, r0
 543 011a 134A     		ldr	r2, .L50+4
 544 011c 0A21     		movs	r1, #10
 545 011e 0B20     		movs	r0, #11
 546              	.LVL31:
 547 0120 FFF7FEFF 		bl	dmaStreamAllocI
 548              	.LVL32:
 549              		.loc 1 374 0
 550 0124 2346     		mov	r3, r4
 551              		.loc 1 369 0
 552 0126 6062     		str	r0, [r4, #36]
 553              		.loc 1 374 0
 554 0128 104A     		ldr	r2, .L50+8
 555 012a 0A21     		movs	r1, #10
 556 012c 0C20     		movs	r0, #12
 557 012e FFF7FEFF 		bl	dmaStreamAllocI
 558              	.LVL33:
 559              		.loc 1 379 0
 560 0132 0F4B     		ldr	r3, .L50+12
 561              		.loc 1 374 0
 562 0134 A062     		str	r0, [r4, #40]
 563              		.loc 1 379 0
 564 0136 5A6A     		ldr	r2, [r3, #36]
 565 0138 42F40052 		orr	r2, r2, #8192
 566 013c 5A62     		str	r2, [r3, #36]
 567 013e 5A6A     		ldr	r2, [r3, #36]
 568 0140 22F40052 		bic	r2, r2, #8192
 569 0144 5A62     		str	r2, [r3, #36]
 570 0146 5A6A     		ldr	r2, [r3, #36]
ARM GAS  /tmp/ccnljRkL.s 			page 11


 571              		.loc 1 380 0
 572 0148 5A6C     		ldr	r2, [r3, #68]
 573 014a 42F40052 		orr	r2, r2, #8192
 574 014e 5A64     		str	r2, [r3, #68]
 575 0150 5A6E     		ldr	r2, [r3, #100]
 576 0152 42F40052 		orr	r2, r2, #8192
 577 0156 7AE7     		b	.L47
 578              	.L45:
 579              		.loc 1 442 0
 580 0158 22F48472 		bic	r2, r2, #264
 581 015c E262     		str	r2, [r4, #44]
 582              		.loc 1 443 0
 583 015e 23F48473 		bic	r3, r3, #264
 584 0162 C2E7     		b	.L49
 585              	.L51:
 586              		.align	2
 587              	.L50:
 588 0164 00000000 		.word	.LANCHOR0
 589 0168 00000000 		.word	spi_lld_serve_rx_interrupt
 590 016c 00000000 		.word	spi_lld_serve_tx_interrupt
 591 0170 00380240 		.word	1073887232
 592 0174 00000000 		.word	.LANCHOR1
 593 0178 00000000 		.word	.LANCHOR2
 594              		.cfi_endproc
 595              	.LFE326:
 596              		.size	spi_lld_start, .-spi_lld_start
 597              		.section	.text.spi_lld_stop,"ax",%progbits
 598              		.align	1
 599              		.global	spi_lld_stop
 600              		.syntax unified
 601              		.thumb
 602              		.thumb_func
 603              		.fpu fpv4-sp-d16
 604              		.type	spi_lld_stop, %function
 605              	spi_lld_stop:
 606              	.LFB327:
 607              		.loc 1 462 0
 608              		.cfi_startproc
 609              		@ args = 0, pretend = 0, frame = 0
 610              		@ frame_needed = 0, uses_anonymous_args = 0
 611              	.LVL34:
 612 0000 38B5     		push	{r3, r4, r5, lr}
 613              		.cfi_def_cfa_offset 16
 614              		.cfi_offset 3, -16
 615              		.cfi_offset 4, -12
 616              		.cfi_offset 5, -8
 617              		.cfi_offset 14, -4
 618              		.loc 1 465 0
 619 0002 0378     		ldrb	r3, [r0]	@ zero_extendqisi2
 620 0004 022B     		cmp	r3, #2
 621              		.loc 1 462 0
 622 0006 0446     		mov	r4, r0
 623              		.loc 1 465 0
 624 0008 1CD1     		bne	.L52
 625              		.loc 1 468 0
 626 000a 036A     		ldr	r3, [r0, #32]
 627              		.loc 1 471 0
ARM GAS  /tmp/ccnljRkL.s 			page 12


 628 000c 406A     		ldr	r0, [r0, #36]
 629              	.LVL35:
 630              		.loc 1 468 0
 631 000e 1A68     		ldr	r2, [r3]
 632              		.loc 1 469 0
 633 0010 0025     		movs	r5, #0
 634              		.loc 1 468 0
 635 0012 22F04002 		bic	r2, r2, #64
 636 0016 1A60     		str	r2, [r3]
 637              		.loc 1 469 0
 638 0018 1D60     		str	r5, [r3]
 639              		.loc 1 470 0
 640 001a 5D60     		str	r5, [r3, #4]
 641              		.loc 1 471 0
 642 001c FFF7FEFF 		bl	dmaStreamFreeI
 643              	.LVL36:
 644              		.loc 1 472 0
 645 0020 A06A     		ldr	r0, [r4, #40]
 646 0022 FFF7FEFF 		bl	dmaStreamFreeI
 647              	.LVL37:
 648              		.loc 1 477 0
 649 0026 154B     		ldr	r3, .L59
 650              		.loc 1 473 0
 651 0028 6562     		str	r5, [r4, #36]
 652              		.loc 1 477 0
 653 002a 9C42     		cmp	r4, r3
 654              		.loc 1 474 0
 655 002c A562     		str	r5, [r4, #40]
 656              		.loc 1 477 0
 657 002e 0AD1     		bne	.L55
 658              		.loc 1 478 0
 659 0030 134B     		ldr	r3, .L59+4
 660 0032 5A6C     		ldr	r2, [r3, #68]
 661 0034 22F48052 		bic	r2, r2, #4096
 662 0038 5A64     		str	r2, [r3, #68]
 663 003a 5A6E     		ldr	r2, [r3, #100]
 664 003c 22F48052 		bic	r2, r2, #4096
 665              	.L58:
 666              		.loc 1 490 0
 667 0040 5A66     		str	r2, [r3, #100]
 668 0042 5B6E     		ldr	r3, [r3, #100]
 669              	.L52:
 670 0044 38BD     		pop	{r3, r4, r5, pc}
 671              	.LVL38:
 672              	.L55:
 673              		.loc 1 481 0
 674 0046 0F4B     		ldr	r3, .L59+8
 675 0048 9C42     		cmp	r4, r3
 676 004a 0AD1     		bne	.L56
 677              		.loc 1 482 0
 678 004c 0C4B     		ldr	r3, .L59+4
 679 004e 1A6C     		ldr	r2, [r3, #64]
 680 0050 22F48042 		bic	r2, r2, #16384
 681 0054 1A64     		str	r2, [r3, #64]
 682 0056 1A6E     		ldr	r2, [r3, #96]
 683 0058 22F48042 		bic	r2, r2, #16384
 684 005c 1A66     		str	r2, [r3, #96]
ARM GAS  /tmp/ccnljRkL.s 			page 13


 685 005e 1B6E     		ldr	r3, [r3, #96]
 686 0060 38BD     		pop	{r3, r4, r5, pc}
 687              	.LVL39:
 688              	.L56:
 689              		.loc 1 489 0
 690 0062 094B     		ldr	r3, .L59+12
 691 0064 9C42     		cmp	r4, r3
 692 0066 EDD1     		bne	.L52
 693              		.loc 1 490 0
 694 0068 054B     		ldr	r3, .L59+4
 695 006a 5A6C     		ldr	r2, [r3, #68]
 696 006c 22F40052 		bic	r2, r2, #8192
 697 0070 5A64     		str	r2, [r3, #68]
 698 0072 5A6E     		ldr	r2, [r3, #100]
 699 0074 22F40052 		bic	r2, r2, #8192
 700 0078 E2E7     		b	.L58
 701              	.L60:
 702 007a 00BF     		.align	2
 703              	.L59:
 704 007c 00000000 		.word	.LANCHOR0
 705 0080 00380240 		.word	1073887232
 706 0084 00000000 		.word	.LANCHOR1
 707 0088 00000000 		.word	.LANCHOR2
 708              		.cfi_endproc
 709              	.LFE327:
 710              		.size	spi_lld_stop, .-spi_lld_stop
 711              		.section	.text.spi_lld_ignore,"ax",%progbits
 712              		.align	1
 713              		.global	spi_lld_ignore
 714              		.syntax unified
 715              		.thumb
 716              		.thumb_func
 717              		.fpu fpv4-sp-d16
 718              		.type	spi_lld_ignore, %function
 719              	spi_lld_ignore:
 720              	.LFB328:
 721              		.loc 1 541 0
 722              		.cfi_startproc
 723              		@ args = 0, pretend = 0, frame = 0
 724              		@ frame_needed = 0, uses_anonymous_args = 0
 725              	.LVL40:
 726              		.loc 1 545 0
 727 0000 436A     		ldr	r3, [r0, #36]
 728 0002 1A68     		ldr	r2, [r3]
 729 0004 0A4B     		ldr	r3, .L62
 730              		.loc 1 541 0
 731 0006 10B5     		push	{r4, lr}
 732              		.cfi_def_cfa_offset 8
 733              		.cfi_offset 4, -8
 734              		.cfi_offset 14, -4
 735              		.loc 1 545 0
 736 0008 D360     		str	r3, [r2, #12]
 737              		.loc 1 547 0
 738 000a C36A     		ldr	r3, [r0, #44]
 739              		.loc 1 546 0
 740 000c 5160     		str	r1, [r2, #4]
 741              		.loc 1 547 0
ARM GAS  /tmp/ccnljRkL.s 			page 14


 742 000e 1360     		str	r3, [r2]
 743              		.loc 1 549 0
 744 0010 836A     		ldr	r3, [r0, #40]
 745 0012 084C     		ldr	r4, .L62+4
 746 0014 1B68     		ldr	r3, [r3]
 747 0016 DC60     		str	r4, [r3, #12]
 748              		.loc 1 550 0
 749 0018 5960     		str	r1, [r3, #4]
 750              		.loc 1 551 0
 751 001a 016B     		ldr	r1, [r0, #48]
 752              	.LVL41:
 753 001c 1960     		str	r1, [r3]
 754              	.LVL42:
 755              		.loc 1 553 0
 756 001e 1168     		ldr	r1, [r2]
 757 0020 41F00101 		orr	r1, r1, #1
 758 0024 1160     		str	r1, [r2]
 759              		.loc 1 554 0
 760 0026 1A68     		ldr	r2, [r3]
 761 0028 42F00102 		orr	r2, r2, #1
 762 002c 1A60     		str	r2, [r3]
 763 002e 10BD     		pop	{r4, pc}
 764              	.L63:
 765              		.align	2
 766              	.L62:
 767 0030 00000000 		.word	.LANCHOR3
 768 0034 00000000 		.word	.LANCHOR4
 769              		.cfi_endproc
 770              	.LFE328:
 771              		.size	spi_lld_ignore, .-spi_lld_ignore
 772              		.section	.text.spi_lld_exchange,"ax",%progbits
 773              		.align	1
 774              		.global	spi_lld_exchange
 775              		.syntax unified
 776              		.thumb
 777              		.thumb_func
 778              		.fpu fpv4-sp-d16
 779              		.type	spi_lld_exchange, %function
 780              	spi_lld_exchange:
 781              	.LFB329:
 782              		.loc 1 573 0
 783              		.cfi_startproc
 784              		@ args = 0, pretend = 0, frame = 0
 785              		@ frame_needed = 0, uses_anonymous_args = 0
 786              	.LVL43:
 787 0000 10B5     		push	{r4, lr}
 788              		.cfi_def_cfa_offset 8
 789              		.cfi_offset 4, -8
 790              		.cfi_offset 14, -4
 791              		.loc 1 577 0
 792 0002 446A     		ldr	r4, [r0, #36]
 793 0004 2468     		ldr	r4, [r4]
 794 0006 E360     		str	r3, [r4, #12]
 795              		.loc 1 579 0
 796 0008 C36A     		ldr	r3, [r0, #44]
 797              	.LVL44:
 798              		.loc 1 578 0
ARM GAS  /tmp/ccnljRkL.s 			page 15


 799 000a 6160     		str	r1, [r4, #4]
 800              	.LVL45:
 801              		.loc 1 579 0
 802 000c 43F48063 		orr	r3, r3, #1024
 803 0010 2360     		str	r3, [r4]
 804              		.loc 1 581 0
 805 0012 836A     		ldr	r3, [r0, #40]
 806 0014 1B68     		ldr	r3, [r3]
 807 0016 DA60     		str	r2, [r3, #12]
 808              		.loc 1 583 0
 809 0018 026B     		ldr	r2, [r0, #48]
 810              	.LVL46:
 811              		.loc 1 582 0
 812 001a 5960     		str	r1, [r3, #4]
 813              	.LVL47:
 814              		.loc 1 583 0
 815 001c 42F48062 		orr	r2, r2, #1024
 816 0020 1A60     		str	r2, [r3]
 817              		.loc 1 585 0
 818 0022 2268     		ldr	r2, [r4]
 819 0024 42F00102 		orr	r2, r2, #1
 820 0028 2260     		str	r2, [r4]
 821              		.loc 1 586 0
 822 002a 1A68     		ldr	r2, [r3]
 823 002c 42F00102 		orr	r2, r2, #1
 824 0030 1A60     		str	r2, [r3]
 825 0032 10BD     		pop	{r4, pc}
 826              		.cfi_endproc
 827              	.LFE329:
 828              		.size	spi_lld_exchange, .-spi_lld_exchange
 829              		.section	.text.spi_lld_send,"ax",%progbits
 830              		.align	1
 831              		.global	spi_lld_send
 832              		.syntax unified
 833              		.thumb
 834              		.thumb_func
 835              		.fpu fpv4-sp-d16
 836              		.type	spi_lld_send, %function
 837              	spi_lld_send:
 838              	.LFB330:
 839              		.loc 1 602 0
 840              		.cfi_startproc
 841              		@ args = 0, pretend = 0, frame = 0
 842              		@ frame_needed = 0, uses_anonymous_args = 0
 843              	.LVL48:
 844              		.loc 1 606 0
 845 0000 436A     		ldr	r3, [r0, #36]
 846              		.loc 1 602 0
 847 0002 10B5     		push	{r4, lr}
 848              		.cfi_def_cfa_offset 8
 849              		.cfi_offset 4, -8
 850              		.cfi_offset 14, -4
 851              		.loc 1 606 0
 852 0004 1C68     		ldr	r4, [r3]
 853 0006 0B4B     		ldr	r3, .L66
 854 0008 E360     		str	r3, [r4, #12]
 855              		.loc 1 608 0
ARM GAS  /tmp/ccnljRkL.s 			page 16


 856 000a C36A     		ldr	r3, [r0, #44]
 857              		.loc 1 607 0
 858 000c 6160     		str	r1, [r4, #4]
 859              		.loc 1 608 0
 860 000e 2360     		str	r3, [r4]
 861              		.loc 1 610 0
 862 0010 836A     		ldr	r3, [r0, #40]
 863 0012 1B68     		ldr	r3, [r3]
 864 0014 DA60     		str	r2, [r3, #12]
 865              		.loc 1 612 0
 866 0016 026B     		ldr	r2, [r0, #48]
 867              	.LVL49:
 868              		.loc 1 611 0
 869 0018 5960     		str	r1, [r3, #4]
 870              	.LVL50:
 871              		.loc 1 612 0
 872 001a 42F48062 		orr	r2, r2, #1024
 873 001e 1A60     		str	r2, [r3]
 874              		.loc 1 614 0
 875 0020 2268     		ldr	r2, [r4]
 876 0022 42F00102 		orr	r2, r2, #1
 877 0026 2260     		str	r2, [r4]
 878              		.loc 1 615 0
 879 0028 1A68     		ldr	r2, [r3]
 880 002a 42F00102 		orr	r2, r2, #1
 881 002e 1A60     		str	r2, [r3]
 882 0030 10BD     		pop	{r4, pc}
 883              	.L67:
 884 0032 00BF     		.align	2
 885              	.L66:
 886 0034 00000000 		.word	.LANCHOR3
 887              		.cfi_endproc
 888              	.LFE330:
 889              		.size	spi_lld_send, .-spi_lld_send
 890              		.section	.text.spi_lld_receive,"ax",%progbits
 891              		.align	1
 892              		.global	spi_lld_receive
 893              		.syntax unified
 894              		.thumb
 895              		.thumb_func
 896              		.fpu fpv4-sp-d16
 897              		.type	spi_lld_receive, %function
 898              	spi_lld_receive:
 899              	.LFB331:
 900              		.loc 1 631 0
 901              		.cfi_startproc
 902              		@ args = 0, pretend = 0, frame = 0
 903              		@ frame_needed = 0, uses_anonymous_args = 0
 904              	.LVL51:
 905              		.loc 1 635 0
 906 0000 436A     		ldr	r3, [r0, #36]
 907              		.loc 1 631 0
 908 0002 10B5     		push	{r4, lr}
 909              		.cfi_def_cfa_offset 8
 910              		.cfi_offset 4, -8
 911              		.cfi_offset 14, -4
 912              		.loc 1 635 0
ARM GAS  /tmp/ccnljRkL.s 			page 17


 913 0004 1C68     		ldr	r4, [r3]
 914              		.loc 1 637 0
 915 0006 C36A     		ldr	r3, [r0, #44]
 916              		.loc 1 635 0
 917 0008 E260     		str	r2, [r4, #12]
 918              		.loc 1 637 0
 919 000a 43F48063 		orr	r3, r3, #1024
 920              		.loc 1 636 0
 921 000e 6160     		str	r1, [r4, #4]
 922              		.loc 1 637 0
 923 0010 2360     		str	r3, [r4]
 924              		.loc 1 639 0
 925 0012 836A     		ldr	r3, [r0, #40]
 926 0014 074A     		ldr	r2, .L69
 927              	.LVL52:
 928 0016 1B68     		ldr	r3, [r3]
 929 0018 DA60     		str	r2, [r3, #12]
 930              		.loc 1 641 0
 931 001a 026B     		ldr	r2, [r0, #48]
 932              		.loc 1 640 0
 933 001c 5960     		str	r1, [r3, #4]
 934              		.loc 1 641 0
 935 001e 1A60     		str	r2, [r3]
 936              		.loc 1 643 0
 937 0020 2268     		ldr	r2, [r4]
 938 0022 42F00102 		orr	r2, r2, #1
 939 0026 2260     		str	r2, [r4]
 940              		.loc 1 644 0
 941 0028 1A68     		ldr	r2, [r3]
 942 002a 42F00102 		orr	r2, r2, #1
 943 002e 1A60     		str	r2, [r3]
 944 0030 10BD     		pop	{r4, pc}
 945              	.L70:
 946 0032 00BF     		.align	2
 947              	.L69:
 948 0034 00000000 		.word	.LANCHOR4
 949              		.cfi_endproc
 950              	.LFE331:
 951              		.size	spi_lld_receive, .-spi_lld_receive
 952              		.section	.text.spi_lld_abort,"ax",%progbits
 953              		.align	1
 954              		.global	spi_lld_abort
 955              		.syntax unified
 956              		.thumb
 957              		.thumb_func
 958              		.fpu fpv4-sp-d16
 959              		.type	spi_lld_abort, %function
 960              	spi_lld_abort:
 961              	.LFB332:
 962              		.loc 1 655 0
 963              		.cfi_startproc
 964              		@ args = 0, pretend = 0, frame = 0
 965              		@ frame_needed = 0, uses_anonymous_args = 0
 966              		@ link register save eliminated.
 967              	.LVL53:
 968              		.loc 1 658 0
 969 0000 836A     		ldr	r3, [r0, #40]
ARM GAS  /tmp/ccnljRkL.s 			page 18


 970 0002 1A68     		ldr	r2, [r3]
 971 0004 1168     		ldr	r1, [r2]
 972 0006 21F01F01 		bic	r1, r1, #31
 973 000a 1160     		str	r1, [r2]
 974              	.L72:
 975              		.loc 1 658 0 is_stmt 0 discriminator 2
 976 000c 1168     		ldr	r1, [r2]
 977 000e C907     		lsls	r1, r1, #31
 978 0010 FCD4     		bmi	.L72
 979              		.loc 1 658 0 discriminator 3
 980 0012 597A     		ldrb	r1, [r3, #9]	@ zero_extendqisi2
 981 0014 5A68     		ldr	r2, [r3, #4]
 982 0016 3D23     		movs	r3, #61
 983 0018 8B40     		lsls	r3, r3, r1
 984 001a 1360     		str	r3, [r2]
 985              		.loc 1 659 0 is_stmt 1 discriminator 3
 986 001c 436A     		ldr	r3, [r0, #36]
 987 001e 1A68     		ldr	r2, [r3]
 988 0020 1168     		ldr	r1, [r2]
 989 0022 21F01F01 		bic	r1, r1, #31
 990 0026 1160     		str	r1, [r2]
 991              	.L73:
 992              		.loc 1 659 0 is_stmt 0 discriminator 2
 993 0028 1168     		ldr	r1, [r2]
 994 002a C907     		lsls	r1, r1, #31
 995 002c FCD4     		bmi	.L73
 996              		.loc 1 659 0 discriminator 3
 997 002e 597A     		ldrb	r1, [r3, #9]	@ zero_extendqisi2
 998 0030 5A68     		ldr	r2, [r3, #4]
 999 0032 3D23     		movs	r3, #61
 1000 0034 8B40     		lsls	r3, r3, r1
 1001 0036 1360     		str	r3, [r2]
 1002 0038 7047     		bx	lr
 1003              		.cfi_endproc
 1004              	.LFE332:
 1005              		.size	spi_lld_abort, .-spi_lld_abort
 1006              		.section	.text.spi_lld_polled_exchange,"ax",%progbits
 1007              		.align	1
 1008              		.global	spi_lld_polled_exchange
 1009              		.syntax unified
 1010              		.thumb
 1011              		.thumb_func
 1012              		.fpu fpv4-sp-d16
 1013              		.type	spi_lld_polled_exchange, %function
 1014              	spi_lld_polled_exchange:
 1015              	.LFB333:
 1016              		.loc 1 675 0 is_stmt 1
 1017              		.cfi_startproc
 1018              		@ args = 0, pretend = 0, frame = 0
 1019              		@ frame_needed = 0, uses_anonymous_args = 0
 1020              		@ link register save eliminated.
 1021              	.LVL54:
 1022              		.loc 1 677 0
 1023 0000 036A     		ldr	r3, [r0, #32]
 1024 0002 D960     		str	r1, [r3, #12]
 1025              	.L77:
 1026              		.loc 1 678 0 discriminator 1
ARM GAS  /tmp/ccnljRkL.s 			page 19


 1027 0004 9A68     		ldr	r2, [r3, #8]
 1028 0006 D207     		lsls	r2, r2, #31
 1029 0008 FCD5     		bpl	.L77
 1030              		.loc 1 680 0
 1031 000a D868     		ldr	r0, [r3, #12]
 1032              	.LVL55:
 1033              		.loc 1 681 0
 1034 000c 80B2     		uxth	r0, r0
 1035 000e 7047     		bx	lr
 1036              		.cfi_endproc
 1037              	.LFE333:
 1038              		.size	spi_lld_polled_exchange, .-spi_lld_polled_exchange
 1039              		.global	SPID4
 1040              		.global	SPID2
 1041              		.global	SPID1
 1042              		.section	.bss.SPID1,"aw",%nobits
 1043              		.align	2
 1044              		.set	.LANCHOR0,. + 0
 1045              		.type	SPID1, %object
 1046              		.size	SPID1, 52
 1047              	SPID1:
 1048 0000 00000000 		.space	52
 1048      00000000 
 1048      00000000 
 1048      00000000 
 1048      00000000 
 1049              		.section	.bss.SPID2,"aw",%nobits
 1050              		.align	2
 1051              		.set	.LANCHOR1,. + 0
 1052              		.type	SPID2, %object
 1053              		.size	SPID2, 52
 1054              	SPID2:
 1055 0000 00000000 		.space	52
 1055      00000000 
 1055      00000000 
 1055      00000000 
 1055      00000000 
 1056              		.section	.bss.SPID4,"aw",%nobits
 1057              		.align	2
 1058              		.set	.LANCHOR2,. + 0
 1059              		.type	SPID4, %object
 1060              		.size	SPID4, 52
 1061              	SPID4:
 1062 0000 00000000 		.space	52
 1062      00000000 
 1062      00000000 
 1062      00000000 
 1062      00000000 
 1063              		.section	.bss.dummyrx,"aw",%nobits
 1064              		.align	1
 1065              		.set	.LANCHOR3,. + 0
 1066              		.type	dummyrx, %object
 1067              		.size	dummyrx, 2
 1068              	dummyrx:
 1069 0000 0000     		.space	2
 1070              		.section	.rodata.dummytx,"a",%progbits
 1071              		.align	1
ARM GAS  /tmp/ccnljRkL.s 			page 20


 1072              		.set	.LANCHOR4,. + 0
 1073              		.type	dummytx, %object
 1074              		.size	dummytx, 2
 1075              	dummytx:
 1076 0000 FFFF     		.short	-1
 1077              		.section	.rodata.spi_lld_serve_tx_interrupt.str1.1,"aMS",%progbits,1
 1078              	.LC0:
 1079 0000 444D4120 		.ascii	"DMA failure\000"
 1079      6661696C 
 1079      75726500 
 1080              		.text
 1081              	.Letext0:
 1082              		.file 4 "/opt/gcc-arm-none-eabi-6-2017-q2-update/lib/gcc/arm-none-eabi/6.3.1/include/stddef.h"
 1083              		.file 5 "/opt/gcc-arm-none-eabi-6-2017-q2-update/arm-none-eabi/include/machine/_default_types.h"
 1084              		.file 6 "/opt/gcc-arm-none-eabi-6-2017-q2-update/arm-none-eabi/include/sys/_stdint.h"
 1085              		.file 7 "/opt/gcc-arm-none-eabi-6-2017-q2-update/arm-none-eabi/include/stdint.h"
 1086              		.file 8 "../../modules/ChibiOS/os/common/ports/ARMCMx/compilers/GCC/chtypes.h"
 1087              		.file 9 "../../modules/ChibiOS/os/rt/include/chsystypes.h"
 1088              		.file 10 "../../modules/ChibiOS/os/rt/include/chschd.h"
 1089              		.file 11 "../../modules/ChibiOS/os/rt/include/chtime.h"
 1090              		.file 12 "../../modules/ChibiOS/os/common/ext/ARM/CMSIS/Core/Include/core_cm4.h"
 1091              		.file 13 "../../modules/ChibiOS/os/common/ext/ST/STM32F4xx/system_stm32f4xx.h"
 1092              		.file 14 "../../modules/ChibiOS/os/common/ext/ST/STM32F4xx/stm32f427xx.h"
 1093              		.file 15 "../../modules/ChibiOS/os/common/ports/ARMCMx/chcore.h"
 1094              		.file 16 "../../modules/ChibiOS/os/common/ports/ARMCMx/chcore_v7m.h"
 1095              		.file 17 "../../modules/ChibiOS/os/hal/ports/STM32/LLD/TIMv1/stm32_tim.h"
 1096              		.file 18 "../../modules/ChibiOS/os/rt/include/chtm.h"
 1097              		.file 19 "../../modules/ChibiOS/os/rt/include/chsem.h"
 1098              		.file 20 "../../modules/ChibiOS/os/rt/include/chmtx.h"
 1099              		.file 21 "../../modules/ChibiOS/os/rt/include/chsys.h"
 1100              		.file 22 "../../modules/ChibiOS/os/rt/include/chregistry.h"
 1101              		.file 23 "../../modules/ChibiOS/os/rt/include/chevents.h"
 1102              		.file 24 "../../modules/ChibiOS/os/oslib/include/chmemcore.h"
 1103              		.file 25 "../../modules/ChibiOS/os/oslib/include/chmempools.h"
 1104              		.file 26 "../../modules/ChibiOS/os/oslib/include/chfactory.h"
 1105              		.file 27 "../../modules/ChibiOS/os/hal/ports/STM32/LLD/DMAv2/stm32_dma.h"
 1106              		.file 28 "../../modules/ChibiOS/os/hal/include/hal_ioblock.h"
 1107              		.file 29 "../../modules/ChibiOS/os/hal/include/hal_queues.h"
 1108              		.file 30 "../../modules/ChibiOS/os/hal/include/hal_pal.h"
 1109              		.file 31 "../../modules/ChibiOS/os/hal/ports/STM32/LLD/GPIOv2/stm32_gpio.h"
 1110              		.file 32 "../../modules/ChibiOS/os/hal/ports/STM32/LLD/GPIOv2/hal_pal_lld.h"
 1111              		.file 33 "../../modules/ChibiOS/os/hal/include/hal_adc.h"
 1112              		.file 34 "../../modules/ChibiOS/os/hal/ports/STM32/LLD/ADCv2/hal_adc_lld.h"
 1113              		.file 35 "../../modules/ChibiOS/os/hal/include/hal_i2c.h"
 1114              		.file 36 "../../modules/ChibiOS/os/hal/ports/STM32/LLD/I2Cv1/hal_i2c_lld.h"
 1115              		.file 37 "../../modules/ChibiOS/os/hal/include/hal_pwm.h"
 1116              		.file 38 "../../modules/ChibiOS/os/hal/ports/STM32/LLD/TIMv1/hal_pwm_lld.h"
 1117              		.file 39 "../../modules/ChibiOS/os/hal/include/hal_serial.h"
 1118              		.file 40 "../../modules/ChibiOS/os/hal/ports/STM32/LLD/USARTv1/hal_serial_lld.h"
 1119              		.file 41 "../../modules/ChibiOS/os/hal/include/hal_sdc.h"
 1120              		.file 42 "../../modules/ChibiOS/os/hal/ports/STM32/LLD/SDIOv1/hal_sdc_lld.h"
 1121              		.file 43 "../../modules/ChibiOS/os/hal/include/hal_spi.h"
 1122              		.file 44 "../../modules/ChibiOS/os/hal/ports/STM32/LLD/SPIv1/hal_spi_lld.h"
 1123              		.file 45 "../../modules/ChibiOS/os/hal/include/hal_usb.h"
 1124              		.file 46 "../../modules/ChibiOS/os/hal/ports/STM32/LLD/OTGv1/hal_usb_lld.h"
 1125              		.file 47 "../../modules/ChibiOS/os/hal/ports/STM32/LLD/OTGv1/stm32_otg.h"
 1126              		.file 48 "../../modules/ChibiOS/os/rt/include/ch.h"
ARM GAS  /tmp/ccnljRkL.s 			page 21


 1127              		.file 49 "../../modules/ChibiOS/os/rt/include/chthreads.h"