ARM GAS  /tmp/ccs9YUms.s 			page 1


   1              		.cpu cortex-m4
   2              		.eabi_attribute 27, 1
   3              		.eabi_attribute 28, 1
   4              		.eabi_attribute 20, 1
   5              		.eabi_attribute 21, 1
   6              		.eabi_attribute 23, 3
   7              		.eabi_attribute 24, 1
   8              		.eabi_attribute 25, 1
   9              		.eabi_attribute 26, 1
  10              		.eabi_attribute 30, 4
  11              		.eabi_attribute 34, 1
  12              		.eabi_attribute 18, 4
  13              		.file	"hal_usb_lld.c"
  14              		.text
  15              	.Ltext0:
  16              		.cfi_sections	.debug_frame
  17              		.section	.text.otg_disable_ep,"ax",%progbits
  18              		.align	1
  19              		.syntax unified
  20              		.thumb
  21              		.thumb_func
  22              		.fpu fpv4-sp-d16
  23              		.type	otg_disable_ep, %function
  24              	otg_disable_ep:
  25              	.LFB324:
  26              		.file 1 "../../modules/ChibiOS/os/hal/ports/STM32/LLD/OTGv1/hal_usb_lld.c"
  27              		.loc 1 154 0
  28              		.cfi_startproc
  29              		@ args = 0, pretend = 0, frame = 0
  30              		@ frame_needed = 0, uses_anonymous_args = 0
  31              	.LVL0:
  32              		.loc 1 158 0
  33 0000 836D     		ldr	r3, [r0, #88]
  34              		.loc 1 154 0
  35 0002 30B5     		push	{r4, r5, lr}
  36              		.cfi_def_cfa_offset 12
  37              		.cfi_offset 4, -12
  38              		.cfi_offset 5, -8
  39              		.cfi_offset 14, -4
  40              		.loc 1 158 0
  41 0004 0022     		movs	r2, #0
  42 0006 9D68     		ldr	r5, [r3, #8]
  43              		.loc 1 155 0
  44 0008 446D     		ldr	r4, [r0, #84]
  45              	.LVL1:
  46              		.loc 1 159 0
  47 000a 1146     		mov	r1, r2
  48              		.loc 1 161 0
  49 000c 4FF0FF30 		mov	r0, #-1
  50              	.LVL2:
  51              	.L2:
  52 0010 04EB4213 		add	r3, r4, r2, lsl #5
  53              		.loc 1 158 0 discriminator 3
  54 0014 0132     		adds	r2, r2, #1
  55              	.LVL3:
  56 0016 9542     		cmp	r5, r2
  57              		.loc 1 159 0 discriminator 3
ARM GAS  /tmp/ccs9YUms.s 			page 2


  58 0018 C3F80019 		str	r1, [r3, #2304]
  59              		.loc 1 160 0 discriminator 3
  60 001c C3F81019 		str	r1, [r3, #2320]
  61              		.loc 1 161 0 discriminator 3
  62 0020 C3F80809 		str	r0, [r3, #2312]
  63              		.loc 1 163 0 discriminator 3
  64 0024 C3F8001B 		str	r1, [r3, #2816]
  65              		.loc 1 164 0 discriminator 3
  66 0028 C3F8101B 		str	r1, [r3, #2832]
  67              		.loc 1 165 0 discriminator 3
  68 002c C3F8080B 		str	r0, [r3, #2824]
  69              		.loc 1 158 0 discriminator 3
  70 0030 EED2     		bcs	.L2
  71              		.loc 1 167 0
  72 0032 4FF00113 		mov	r3, #65537
  73 0036 C4F81C38 		str	r3, [r4, #2076]
  74 003a 30BD     		pop	{r4, r5, pc}
  75              		.cfi_endproc
  76              	.LFE324:
  77              		.size	otg_disable_ep, .-otg_disable_ep
  78              		.section	.text.otg_txfifo_flush.isra.1,"ax",%progbits
  79              		.align	1
  80              		.syntax unified
  81              		.thumb
  82              		.thumb_func
  83              		.fpu fpv4-sp-d16
  84              		.type	otg_txfifo_flush.isra.1, %function
  85              	otg_txfifo_flush.isra.1:
  86              	.LFB356:
  87              		.loc 1 180 0
  88              		.cfi_startproc
  89              		@ args = 0, pretend = 0, frame = 0
  90              		@ frame_needed = 0, uses_anonymous_args = 0
  91              		@ link register save eliminated.
  92              	.LVL4:
  93              		.loc 1 183 0
  94 0000 8901     		lsls	r1, r1, #6
  95              	.LVL5:
  96 0002 41F02001 		orr	r1, r1, #32
  97 0006 0161     		str	r1, [r0, #16]
  98              	.L5:
  99              		.loc 1 184 0
 100 0008 0369     		ldr	r3, [r0, #16]
 101 000a 9B06     		lsls	r3, r3, #26
 102 000c FCD4     		bmi	.L5
 103              	.LVL6:
 104              	.LBB117:
 105              	.LBB118:
 106              		.file 2 "../../modules/ChibiOS/os/hal/osal/rt/osal.h"
 107              		.loc 2 591 0
 108 000e 1220     		movs	r0, #18
 109              	.LVL7:
 110 0010 FFF7FEBF 		b	chSysPolledDelayX
 111              	.LVL8:
 112              	.LBE118:
 113              	.LBE117:
 114              		.cfi_endproc
ARM GAS  /tmp/ccs9YUms.s 			page 3


 115              	.LFE356:
 116              		.size	otg_txfifo_flush.isra.1, .-otg_txfifo_flush.isra.1
 117              		.section	.text.otg_txfifo_handler.constprop.9,"ax",%progbits
 118              		.align	1
 119              		.syntax unified
 120              		.thumb
 121              		.thumb_func
 122              		.fpu fpv4-sp-d16
 123              		.type	otg_txfifo_handler.constprop.9, %function
 124              	otg_txfifo_handler.constprop.9:
 125              	.LFB360:
 126              		.loc 1 324 0
 127              		.cfi_startproc
 128              		@ args = 0, pretend = 0, frame = 0
 129              		@ frame_needed = 0, uses_anonymous_args = 0
 130              	.LVL9:
 131              	.LBB122:
 132              		.loc 1 331 0
 133 0000 204B     		ldr	r3, .L15
 134 0002 03EB8002 		add	r2, r3, r0, lsl #2
 135              	.LBE122:
 136              		.loc 1 324 0
 137 0006 2DE9F047 		push	{r4, r5, r6, r7, r8, r9, r10, lr}
 138              		.cfi_def_cfa_offset 32
 139              		.cfi_offset 4, -32
 140              		.cfi_offset 5, -28
 141              		.cfi_offset 6, -24
 142              		.cfi_offset 7, -20
 143              		.cfi_offset 8, -16
 144              		.cfi_offset 9, -12
 145              		.cfi_offset 10, -8
 146              		.cfi_offset 14, -4
 147              	.LBB125:
 148              		.loc 1 331 0
 149 000a D2F80CE0 		ldr	lr, [r2, #12]
 150              		.loc 1 345 0
 151 000e 5D6D     		ldr	r5, [r3, #84]
 152              		.loc 1 331 0
 153 0010 DEF81420 		ldr	r2, [lr, #20]
 154              		.loc 1 351 0
 155 0014 461C     		adds	r6, r0, #1
 156              		.loc 1 331 0
 157 0016 D2F800C0 		ldr	ip, [r2]
 158              		.loc 1 351 0
 159 001a 05EB0636 		add	r6, r5, r6, lsl #12
 160              		.loc 1 345 0
 161 001e 05EB4018 		add	r8, r5, r0, lsl #5
 162              	.L12:
 163              		.loc 1 331 0
 164 0022 5168     		ldr	r1, [r2, #4]
 165 0024 6145     		cmp	r1, ip
 166 0026 0BD3     		bcc	.L8
 167              		.loc 1 333 0
 168 0028 D5F83428 		ldr	r2, [r5, #2100]
 169 002c 0123     		movs	r3, #1
 170 002e 03FA00F0 		lsl	r0, r3, r0
 171              	.LVL10:
ARM GAS  /tmp/ccs9YUms.s 			page 4


 172 0032 22EA0000 		bic	r0, r2, r0
 173 0036 C5F83408 		str	r0, [r5, #2100]
 174              		.loc 1 335 0
 175 003a 1846     		mov	r0, r3
 176 003c BDE8F087 		pop	{r4, r5, r6, r7, r8, r9, r10, pc}
 177              	.LVL11:
 178              	.L8:
 179              		.loc 1 340 0
 180 0040 BEF81040 		ldrh	r4, [lr, #16]
 181              		.loc 1 339 0
 182 0044 ACEB0103 		sub	r3, ip, r1
 183 0048 A342     		cmp	r3, r4
 184 004a 28BF     		it	cs
 185 004c 2346     		movcs	r3, r4
 186              	.LVL12:
 187              		.loc 1 345 0
 188 004e D8F81849 		ldr	r4, [r8, #2328]
 189 0052 A4B2     		uxth	r4, r4
 190 0054 B3EB840F 		cmp	r3, r4, lsl #2
 191 0058 10D8     		bhi	.L13
 192              		.loc 1 351 0
 193 005a 9468     		ldr	r4, [r2, #8]
 194              	.LVL13:
 195 005c 1F46     		mov	r7, r3
 196 005e A4F10409 		sub	r9, r4, #4
 197              	.LVL14:
 198              	.L11:
 199              	.LBB123:
 200              	.LBB124:
 201              		.loc 1 236 0
 202 0062 59F804AF 		ldr	r10, [r9, #4]!
 203              	.LVL15:
 204 0066 C6F800A0 		str	r10, [r6]
 205              		.loc 1 237 0
 206 006a 042F     		cmp	r7, #4
 207 006c 01D9     		bls	.L10
 208              		.loc 1 240 0
 209 006e 043F     		subs	r7, r7, #4
 210              	.LVL16:
 211 0070 F7E7     		b	.L11
 212              	.LVL17:
 213              	.L10:
 214              	.LBE124:
 215              	.LBE123:
 216              		.loc 1 354 0
 217 0072 1C44     		add	r4, r4, r3
 218              		.loc 1 355 0
 219 0074 0B44     		add	r3, r3, r1
 220              	.LVL18:
 221              		.loc 1 354 0
 222 0076 9460     		str	r4, [r2, #8]
 223              		.loc 1 355 0
 224 0078 5360     		str	r3, [r2, #4]
 225 007a D2E7     		b	.L12
 226              	.LVL19:
 227              	.L13:
 228              		.loc 1 346 0
ARM GAS  /tmp/ccs9YUms.s 			page 5


 229 007c 0020     		movs	r0, #0
 230              	.LVL20:
 231              	.LBE125:
 232              		.loc 1 360 0
 233 007e BDE8F087 		pop	{r4, r5, r6, r7, r8, r9, r10, pc}
 234              	.L16:
 235 0082 00BF     		.align	2
 236              	.L15:
 237 0084 00000000 		.word	.LANCHOR0
 238              		.cfi_endproc
 239              	.LFE360:
 240              		.size	otg_txfifo_handler.constprop.9, .-otg_txfifo_handler.constprop.9
 241              		.section	.text.usb_lld_init,"ax",%progbits
 242              		.align	1
 243              		.global	usb_lld_init
 244              		.syntax unified
 245              		.thumb
 246              		.thumb_func
 247              		.fpu fpv4-sp-d16
 248              		.type	usb_lld_init, %function
 249              	usb_lld_init:
 250              	.LFB339:
 251              		.loc 1 709 0
 252              		.cfi_startproc
 253              		@ args = 0, pretend = 0, frame = 0
 254              		@ frame_needed = 0, uses_anonymous_args = 0
 255 0000 10B5     		push	{r4, lr}
 256              		.cfi_def_cfa_offset 8
 257              		.cfi_offset 4, -8
 258              		.cfi_offset 14, -4
 259              		.loc 1 713 0
 260 0002 054C     		ldr	r4, .L18
 261 0004 2046     		mov	r0, r4
 262 0006 FFF7FEFF 		bl	usbObjectInit
 263              	.LVL21:
 264              		.loc 1 714 0
 265 000a 4FF0A043 		mov	r3, #1342177280
 266 000e 6365     		str	r3, [r4, #84]
 267              		.loc 1 715 0
 268 0010 024B     		ldr	r3, .L18+4
 269 0012 A365     		str	r3, [r4, #88]
 270 0014 10BD     		pop	{r4, pc}
 271              	.L19:
 272 0016 00BF     		.align	2
 273              	.L18:
 274 0018 00000000 		.word	.LANCHOR0
 275 001c 00000000 		.word	.LANCHOR1
 276              		.cfi_endproc
 277              	.LFE339:
 278              		.size	usb_lld_init, .-usb_lld_init
 279              		.section	.text.usb_lld_start,"ax",%progbits
 280              		.align	1
 281              		.global	usb_lld_start
 282              		.syntax unified
 283              		.thumb
 284              		.thumb_func
 285              		.fpu fpv4-sp-d16
ARM GAS  /tmp/ccs9YUms.s 			page 6


 286              		.type	usb_lld_start, %function
 287              	usb_lld_start:
 288              	.LFB340:
 289              		.loc 1 736 0
 290              		.cfi_startproc
 291              		@ args = 0, pretend = 0, frame = 0
 292              		@ frame_needed = 0, uses_anonymous_args = 0
 293              	.LVL22:
 294              		.loc 1 739 0
 295 0000 0378     		ldrb	r3, [r0]	@ zero_extendqisi2
 296 0002 012B     		cmp	r3, #1
 297              		.loc 1 736 0
 298 0004 70B5     		push	{r4, r5, r6, lr}
 299              		.cfi_def_cfa_offset 16
 300              		.cfi_offset 4, -16
 301              		.cfi_offset 5, -12
 302              		.cfi_offset 6, -8
 303              		.cfi_offset 14, -4
 304              		.loc 1 736 0
 305 0006 0546     		mov	r5, r0
 306              		.loc 1 739 0
 307 0008 50D1     		bne	.L20
 308              		.loc 1 743 0
 309 000a 2A4B     		ldr	r3, .L32
 310              		.loc 1 737 0
 311 000c 446D     		ldr	r4, [r0, #84]
 312              		.loc 1 743 0
 313 000e 9842     		cmp	r0, r3
 314 0010 1BD1     		bne	.L22
 315              		.loc 1 745 0
 316 0012 294B     		ldr	r3, .L32+4
 317 0014 5A6B     		ldr	r2, [r3, #52]
 318 0016 42F08002 		orr	r2, r2, #128
 319 001a 5A63     		str	r2, [r3, #52]
 320 001c 5A6D     		ldr	r2, [r3, #84]
 321 001e 42F08002 		orr	r2, r2, #128
 322 0022 5A65     		str	r2, [r3, #84]
 323 0024 5A6D     		ldr	r2, [r3, #84]
 324              		.loc 1 746 0
 325 0026 5A69     		ldr	r2, [r3, #20]
 326 0028 42F08002 		orr	r2, r2, #128
 327 002c 5A61     		str	r2, [r3, #20]
 328 002e 5A69     		ldr	r2, [r3, #20]
 329 0030 22F08002 		bic	r2, r2, #128
 330 0034 5A61     		str	r2, [r3, #20]
 331              		.loc 1 749 0
 332 0036 0E21     		movs	r1, #14
 333 0038 4320     		movs	r0, #67
 334              	.LVL23:
 335              		.loc 1 746 0
 336 003a 5B69     		ldr	r3, [r3, #20]
 337              		.loc 1 749 0
 338 003c FFF7FEFF 		bl	nvicEnableVector
 339              	.LVL24:
 340              		.loc 1 754 0
 341 0040 1E4B     		ldr	r3, .L32+8
 342 0042 E360     		str	r3, [r4, #12]
ARM GAS  /tmp/ccs9YUms.s 			page 7


 343              		.loc 1 758 0
 344 0044 1E4B     		ldr	r3, .L32+12
 345 0046 C4F80038 		str	r3, [r4, #2048]
 346              	.L22:
 347              		.loc 1 808 0
 348 004a 0023     		movs	r3, #0
 349 004c C4F8003E 		str	r3, [r4, #3584]
 350              		.loc 1 811 0
 351 0050 C023     		movs	r3, #192
 352 0052 2360     		str	r3, [r4]
 353 0054 6E6D     		ldr	r6, [r5, #84]
 354              	.LVL25:
 355              		.loc 1 826 0
 356 0056 4FF45023 		mov	r3, #851968
 357 005a A363     		str	r3, [r4, #56]
 358              	.L23:
 359              	.LBB132:
 360              	.LBB133:
 361              		.loc 1 138 0
 362 005c 3369     		ldr	r3, [r6, #16]
 363 005e 002B     		cmp	r3, #0
 364 0060 FCDA     		bge	.L23
 365              		.loc 1 142 0
 366 0062 0123     		movs	r3, #1
 367 0064 3361     		str	r3, [r6, #16]
 368              	.LVL26:
 369              	.LBB134:
 370              	.LBB135:
 371              		.loc 2 591 0
 372 0066 0C20     		movs	r0, #12
 373 0068 FFF7FEFF 		bl	chSysPolledDelayX
 374              	.LVL27:
 375              	.L24:
 376              	.LBE135:
 377              	.LBE134:
 378              		.loc 1 144 0
 379 006c 3369     		ldr	r3, [r6, #16]
 380 006e DB07     		lsls	r3, r3, #31
 381 0070 FCD4     		bmi	.L24
 382              	.LVL28:
 383              	.LBB136:
 384              	.LBB137:
 385              		.loc 2 591 0
 386 0072 1220     		movs	r0, #18
 387 0074 FFF7FEFF 		bl	chSysPolledDelayX
 388              	.LVL29:
 389              	.L25:
 390              	.LBE137:
 391              	.LBE136:
 392              		.loc 1 150 0
 393 0078 3369     		ldr	r3, [r6, #16]
 394 007a 002B     		cmp	r3, #0
 395 007c FCDA     		bge	.L25
 396              	.LVL30:
 397              	.LBE133:
 398              	.LBE132:
 399              		.loc 1 833 0
ARM GAS  /tmp/ccs9YUms.s 			page 8


 400 007e 0026     		movs	r6, #0
 401 0080 A660     		str	r6, [r4, #8]
 402              		.loc 1 836 0
 403 0082 2846     		mov	r0, r5
 404 0084 FFF7FEFF 		bl	otg_disable_ep
 405              	.LVL31:
 406              		.loc 1 843 0
 407 0088 6B68     		ldr	r3, [r5, #4]
 408              		.loc 1 840 0
 409 008a C4F81068 		str	r6, [r4, #2064]
 410              		.loc 1 843 0
 411 008e DB68     		ldr	r3, [r3, #12]
 412              		.loc 1 841 0
 413 0090 C4F81468 		str	r6, [r4, #2068]
 414              		.loc 1 842 0
 415 0094 C4F81C68 		str	r6, [r4, #2076]
 416              		.loc 1 843 0
 417 0098 4BB9     		cbnz	r3, .L26
 418              		.loc 1 844 0
 419 009a 0A4B     		ldr	r3, .L32+16
 420              	.L31:
 421              		.loc 1 848 0
 422 009c A361     		str	r3, [r4, #24]
 423              		.loc 1 854 0
 424 009e 4FF0FF33 		mov	r3, #-1
 425 00a2 6361     		str	r3, [r4, #20]
 426              		.loc 1 857 0
 427 00a4 A368     		ldr	r3, [r4, #8]
 428 00a6 43F00103 		orr	r3, r3, #1
 429 00aa A360     		str	r3, [r4, #8]
 430              	.LVL32:
 431              	.L20:
 432 00ac 70BD     		pop	{r4, r5, r6, pc}
 433              	.LVL33:
 434              	.L26:
 435              		.loc 1 848 0
 436 00ae 064B     		ldr	r3, .L32+20
 437 00b0 F4E7     		b	.L31
 438              	.L33:
 439 00b2 00BF     		.align	2
 440              	.L32:
 441 00b4 00000000 		.word	.LANCHOR0
 442 00b8 00380240 		.word	1073887232
 443 00bc 40140040 		.word	1073747008
 444 00c0 03002002 		.word	35651587
 445 00c4 003C30C0 		.word	-1070580736
 446 00c8 083C30C0 		.word	-1070580728
 447              		.cfi_endproc
 448              	.LFE340:
 449              		.size	usb_lld_start, .-usb_lld_start
 450              		.section	.text.usb_lld_stop,"ax",%progbits
 451              		.align	1
 452              		.global	usb_lld_stop
 453              		.syntax unified
 454              		.thumb
 455              		.thumb_func
 456              		.fpu fpv4-sp-d16
ARM GAS  /tmp/ccs9YUms.s 			page 9


 457              		.type	usb_lld_stop, %function
 458              	usb_lld_stop:
 459              	.LFB341:
 460              		.loc 1 868 0
 461              		.cfi_startproc
 462              		@ args = 0, pretend = 0, frame = 0
 463              		@ frame_needed = 0, uses_anonymous_args = 0
 464              	.LVL34:
 465 0000 38B5     		push	{r3, r4, r5, lr}
 466              		.cfi_def_cfa_offset 16
 467              		.cfi_offset 3, -16
 468              		.cfi_offset 4, -12
 469              		.cfi_offset 5, -8
 470              		.cfi_offset 14, -4
 471              		.loc 1 872 0
 472 0002 0378     		ldrb	r3, [r0]	@ zero_extendqisi2
 473 0004 012B     		cmp	r3, #1
 474              		.loc 1 868 0
 475 0006 0446     		mov	r4, r0
 476              		.loc 1 872 0
 477 0008 17D0     		beq	.L34
 478              		.loc 1 869 0
 479 000a 456D     		ldr	r5, [r0, #84]
 480              		.loc 1 876 0
 481 000c FFF7FEFF 		bl	otg_disable_ep
 482              	.LVL35:
 483              		.loc 1 878 0
 484 0010 0023     		movs	r3, #0
 485 0012 C5F81C38 		str	r3, [r5, #2076]
 486              		.loc 1 879 0
 487 0016 AB60     		str	r3, [r5, #8]
 488              		.loc 1 880 0
 489 0018 AB63     		str	r3, [r5, #56]
 490              		.loc 1 883 0
 491 001a 084B     		ldr	r3, .L38
 492 001c 9C42     		cmp	r4, r3
 493 001e 0CD1     		bne	.L34
 494              		.loc 1 884 0
 495 0020 4320     		movs	r0, #67
 496 0022 FFF7FEFF 		bl	nvicDisableVector
 497              	.LVL36:
 498              		.loc 1 885 0
 499 0026 064B     		ldr	r3, .L38+4
 500 0028 5A6B     		ldr	r2, [r3, #52]
 501 002a 22F08002 		bic	r2, r2, #128
 502 002e 5A63     		str	r2, [r3, #52]
 503 0030 5A6D     		ldr	r2, [r3, #84]
 504 0032 22F08002 		bic	r2, r2, #128
 505 0036 5A65     		str	r2, [r3, #84]
 506 0038 5B6D     		ldr	r3, [r3, #84]
 507              	.L34:
 508 003a 38BD     		pop	{r3, r4, r5, pc}
 509              	.LVL37:
 510              	.L39:
 511              		.align	2
 512              	.L38:
 513 003c 00000000 		.word	.LANCHOR0
ARM GAS  /tmp/ccs9YUms.s 			page 10


 514 0040 00380240 		.word	1073887232
 515              		.cfi_endproc
 516              	.LFE341:
 517              		.size	usb_lld_stop, .-usb_lld_stop
 518              		.section	.text.usb_lld_reset,"ax",%progbits
 519              		.align	1
 520              		.global	usb_lld_reset
 521              		.syntax unified
 522              		.thumb
 523              		.thumb_func
 524              		.fpu fpv4-sp-d16
 525              		.type	usb_lld_reset, %function
 526              	usb_lld_reset:
 527              	.LFB342:
 528              		.loc 1 908 0
 529              		.cfi_startproc
 530              		@ args = 0, pretend = 0, frame = 0
 531              		@ frame_needed = 0, uses_anonymous_args = 0
 532              	.LVL38:
 533 0000 F8B5     		push	{r3, r4, r5, r6, r7, lr}
 534              		.cfi_def_cfa_offset 24
 535              		.cfi_offset 3, -24
 536              		.cfi_offset 4, -20
 537              		.cfi_offset 5, -16
 538              		.cfi_offset 6, -12
 539              		.cfi_offset 7, -8
 540              		.cfi_offset 14, -4
 541              		.loc 1 910 0
 542 0002 446D     		ldr	r4, [r0, #84]
 543              	.LVL39:
 544              		.loc 1 908 0
 545 0004 0546     		mov	r5, r0
 546              		.loc 1 913 0
 547 0006 0021     		movs	r1, #0
 548 0008 2046     		mov	r0, r4
 549              	.LVL40:
 550 000a FFF7FEFF 		bl	otg_txfifo_flush.isra.1
 551              	.LVL41:
 552              		.loc 1 920 0
 553 000e A96D     		ldr	r1, [r5, #88]
 554              		.loc 1 916 0
 555 0010 0023     		movs	r3, #0
 556              		.loc 1 917 0
 557 0012 4FF00112 		mov	r2, #65537
 558              		.loc 1 920 0
 559 0016 8F68     		ldr	r7, [r1, #8]
 560              		.loc 1 916 0
 561 0018 C4F83438 		str	r3, [r4, #2100]
 562              		.loc 1 921 0
 563 001c 4FF00066 		mov	r6, #134217728
 564              		.loc 1 917 0
 565 0020 C4F81C28 		str	r2, [r4, #2076]
 566              	.LVL42:
 567              		.loc 1 923 0
 568 0024 4FF0FF30 		mov	r0, #-1
 569              	.LVL43:
 570              	.L41:
ARM GAS  /tmp/ccs9YUms.s 			page 11


 571 0028 04EB4312 		add	r2, r4, r3, lsl #5
 572              		.loc 1 920 0 discriminator 3
 573 002c 0133     		adds	r3, r3, #1
 574              	.LVL44:
 575 002e 9F42     		cmp	r7, r3
 576              		.loc 1 921 0 discriminator 3
 577 0030 C2F80069 		str	r6, [r2, #2304]
 578              		.loc 1 922 0 discriminator 3
 579 0034 C2F8006B 		str	r6, [r2, #2816]
 580              		.loc 1 923 0 discriminator 3
 581 0038 C2F80809 		str	r0, [r2, #2312]
 582              		.loc 1 924 0 discriminator 3
 583 003c C2F8080B 		str	r0, [r2, #2824]
 584              		.loc 1 920 0 discriminator 3
 585 0040 F2D2     		bcs	.L41
 586              	.LVL45:
 587              	.LBB146:
 588              	.LBB147:
 589              		.loc 1 199 0
 590 0042 0B68     		ldr	r3, [r1]
 591              	.LVL46:
 592 0044 6A6D     		ldr	r2, [r5, #84]
 593 0046 EB65     		str	r3, [r5, #92]
 594              	.LVL47:
 595              	.LBE147:
 596              	.LBE146:
 597              		.loc 1 931 0
 598 0048 6362     		str	r3, [r4, #36]
 599              	.LBB148:
 600              	.LBB149:
 601              		.loc 1 173 0
 602 004a 1023     		movs	r3, #16
 603 004c 1361     		str	r3, [r2, #16]
 604              	.L42:
 605              		.loc 1 174 0
 606 004e 1669     		ldr	r6, [r2, #16]
 607 0050 16F01006 		ands	r6, r6, #16
 608 0054 FBD1     		bne	.L42
 609              	.LVL48:
 610              	.LBB150:
 611              	.LBB151:
 612              		.loc 2 591 0
 613 0056 1220     		movs	r0, #18
 614 0058 FFF7FEFF 		bl	chSysPolledDelayX
 615              	.LVL49:
 616              	.LBE151:
 617              	.LBE150:
 618              	.LBE149:
 619              	.LBE148:
 620              		.loc 1 935 0
 621 005c D4F80038 		ldr	r3, [r4, #2048]
 622 0060 23F4FE63 		bic	r3, r3, #2032
 623 0064 C4F80038 		str	r3, [r4, #2048]
 624              		.loc 1 938 0
 625 0068 A369     		ldr	r3, [r4, #24]
 626 006a 43F44023 		orr	r3, r3, #786432
 627 006e 43F01003 		orr	r3, r3, #16
ARM GAS  /tmp/ccs9YUms.s 			page 12


 628 0072 A361     		str	r3, [r4, #24]
 629              		.loc 1 939 0
 630 0074 0923     		movs	r3, #9
 631 0076 C4F81038 		str	r3, [r4, #2064]
 632              		.loc 1 940 0
 633 007a C4F81438 		str	r3, [r4, #2068]
 634              		.loc 1 943 0
 635 007e 0A4B     		ldr	r3, .L45
 636 0080 EB60     		str	r3, [r5, #12]
 637              		.loc 1 944 0
 638 0082 4FF0C043 		mov	r3, #1610612736
 639 0086 C4F8103B 		str	r3, [r4, #2832]
 640              		.loc 1 945 0
 641 008a 084B     		ldr	r3, .L45+4
 642 008c C4F8003B 		str	r3, [r4, #2816]
 643              		.loc 1 947 0
 644 0090 C4F81069 		str	r6, [r4, #2320]
 645              		.loc 1 948 0
 646 0094 C4F80039 		str	r3, [r4, #2304]
 647              	.LVL50:
 648              	.LBB152:
 649              	.LBB153:
 650              		.loc 1 213 0
 651 0098 EB6D     		ldr	r3, [r5, #92]
 652              	.LVL51:
 653              		.loc 1 214 0
 654 009a 03F11002 		add	r2, r3, #16
 655              	.LBE153:
 656              	.LBE152:
 657              		.loc 1 950 0
 658 009e 43F48013 		orr	r3, r3, #1048576
 659              	.LVL52:
 660              	.LBB155:
 661              	.LBB154:
 662              		.loc 1 214 0
 663 00a2 EA65     		str	r2, [r5, #92]
 664              	.LVL53:
 665              	.LBE154:
 666              	.LBE155:
 667              		.loc 1 950 0
 668 00a4 A362     		str	r3, [r4, #40]
 669 00a6 F8BD     		pop	{r3, r4, r5, r6, r7, pc}
 670              	.LVL54:
 671              	.L46:
 672              		.align	2
 673              	.L45:
 674 00a8 00000000 		.word	.LANCHOR2
 675 00ac 40800010 		.word	268468288
 676              		.cfi_endproc
 677              	.LFE342:
 678              		.size	usb_lld_reset, .-usb_lld_reset
 679              		.section	.text.usb_lld_set_address,"ax",%progbits
 680              		.align	1
 681              		.global	usb_lld_set_address
 682              		.syntax unified
 683              		.thumb
 684              		.thumb_func
ARM GAS  /tmp/ccs9YUms.s 			page 13


 685              		.fpu fpv4-sp-d16
 686              		.type	usb_lld_set_address, %function
 687              	usb_lld_set_address:
 688              	.LFB343:
 689              		.loc 1 962 0
 690              		.cfi_startproc
 691              		@ args = 0, pretend = 0, frame = 0
 692              		@ frame_needed = 0, uses_anonymous_args = 0
 693              		@ link register save eliminated.
 694              	.LVL55:
 695              		.loc 1 963 0
 696 0000 426D     		ldr	r2, [r0, #84]
 697              	.LVL56:
 698              		.loc 1 965 0
 699 0002 90F84E10 		ldrb	r1, [r0, #78]	@ zero_extendqisi2
 700 0006 D2F80038 		ldr	r3, [r2, #2048]
 701 000a 23F4FE63 		bic	r3, r3, #2032
 702 000e 43EA0113 		orr	r3, r3, r1, lsl #4
 703 0012 C2F80038 		str	r3, [r2, #2048]
 704 0016 7047     		bx	lr
 705              		.cfi_endproc
 706              	.LFE343:
 707              		.size	usb_lld_set_address, .-usb_lld_set_address
 708              		.section	.text.usb_lld_init_endpoint,"ax",%progbits
 709              		.align	1
 710              		.global	usb_lld_init_endpoint
 711              		.syntax unified
 712              		.thumb
 713              		.thumb_func
 714              		.fpu fpv4-sp-d16
 715              		.type	usb_lld_init_endpoint, %function
 716              	usb_lld_init_endpoint:
 717              	.LFB344:
 718              		.loc 1 976 0
 719              		.cfi_startproc
 720              		@ args = 0, pretend = 0, frame = 0
 721              		@ frame_needed = 0, uses_anonymous_args = 0
 722              	.LVL57:
 723 0000 2DE9F041 		push	{r4, r5, r6, r7, r8, lr}
 724              		.cfi_def_cfa_offset 24
 725              		.cfi_offset 4, -24
 726              		.cfi_offset 5, -20
 727              		.cfi_offset 6, -16
 728              		.cfi_offset 7, -12
 729              		.cfi_offset 8, -8
 730              		.cfi_offset 14, -4
 731 0004 0EB2     		sxth	r6, r1
 732 0006 00EB8608 		add	r8, r0, r6, lsl #2
 733              		.loc 1 976 0
 734 000a 0D46     		mov	r5, r1
 735              		.loc 1 981 0
 736 000c D8F80C10 		ldr	r1, [r8, #12]
 737              	.LVL58:
 738 0010 0F68     		ldr	r7, [r1]
 739 0012 07F00303 		and	r3, r7, #3
 740 0016 022B     		cmp	r3, #2
 741 0018 50D0     		beq	.L50
ARM GAS  /tmp/ccs9YUms.s 			page 14


 742 001a 032B     		cmp	r3, #3
 743 001c 50D0     		beq	.L51
 744              		.loc 1 983 0
 745 001e 3D4A     		ldr	r2, .L61
 746 0020 3D4F     		ldr	r7, .L61+4
 747 0022 012B     		cmp	r3, #1
 748 0024 18BF     		it	ne
 749 0026 1746     		movne	r7, r2
 750              	.L52:
 751              		.loc 1 978 0
 752 0028 446D     		ldr	r4, [r0, #84]
 753              	.LVL59:
 754              		.loc 1 999 0
 755 002a 4FEA451E 		lsl	lr, r5, #5
 756 002e 04EB0E03 		add	r3, r4, lr
 757 0032 0022     		movs	r2, #0
 758 0034 C3F8102B 		str	r2, [r3, #2832]
 759              		.loc 1 1000 0
 760 0038 8A69     		ldr	r2, [r1, #24]
 761 003a 05F1100C 		add	ip, r5, #16
 762 003e 002A     		cmp	r2, #0
 763 0040 40D0     		beq	.L53
 764              		.loc 1 1001 0
 765 0042 4A8A     		ldrh	r2, [r1, #18]
 766 0044 05F15803 		add	r3, r5, #88
 767 0048 5B01     		lsls	r3, r3, #5
 768 004a 3A43     		orrs	r2, r2, r7
 769 004c E250     		str	r2, [r4, r3]
 770              		.loc 1 1002 0
 771 004e 0123     		movs	r3, #1
 772 0050 D4F81C28 		ldr	r2, [r4, #2076]
 773 0054 03FA0CF3 		lsl	r3, r3, ip
 774 0058 1343     		orrs	r3, r3, r2
 775              	.L59:
 776              		.loc 1 1010 0
 777 005a A644     		add	lr, lr, r4
 778              		.loc 1 1011 0
 779 005c 4A69     		ldr	r2, [r1, #20]
 780              		.loc 1 1006 0
 781 005e C4F81C38 		str	r3, [r4, #2076]
 782              		.loc 1 1010 0
 783 0062 0023     		movs	r3, #0
 784 0064 CEF81039 		str	r3, [lr, #2320]
 785 0068 05F13F03 		add	r3, r5, #63
 786              		.loc 1 1011 0
 787 006c 002A     		cmp	r2, #0
 788 006e 39D0     		beq	.L55
 789              		.loc 1 1013 0
 790 0070 0A8A     		ldrh	r2, [r1, #16]
 791              		.loc 1 1014 0
 792 0072 898B     		ldrh	r1, [r1, #28]
 793              		.loc 1 1013 0
 794 0074 9208     		lsrs	r2, r2, #2
 795              	.LVL60:
 796              		.loc 1 1014 0
 797 0076 0129     		cmp	r1, #1
 798              		.loc 1 1015 0
ARM GAS  /tmp/ccs9YUms.s 			page 15


 799 0078 88BF     		it	hi
 800 007a 4A43     		mulhi	r2, r1, r2
 801              	.LVL61:
 802              	.LBB156:
 803              	.LBB157:
 804              		.loc 1 213 0
 805 007c C16D     		ldr	r1, [r0, #92]
 806              	.LVL62:
 807              	.LBE157:
 808              	.LBE156:
 809              		.loc 1 1016 0
 810 007e 04EB8303 		add	r3, r4, r3, lsl #2
 811              	.LBB160:
 812              	.LBB158:
 813              		.loc 1 214 0
 814 0082 5618     		adds	r6, r2, r1
 815              	.LBE158:
 816              	.LBE160:
 817              		.loc 1 1016 0
 818 0084 41EA0242 		orr	r2, r1, r2, lsl #16
 819              	.LVL63:
 820              	.LBB161:
 821              	.LBB159:
 822              		.loc 1 214 0
 823 0088 C665     		str	r6, [r0, #92]
 824              	.LVL64:
 825              	.LBE159:
 826              	.LBE161:
 827              		.loc 1 1018 0
 828 008a 2946     		mov	r1, r5
 829              		.loc 1 1016 0
 830 008c 5A60     		str	r2, [r3, #4]
 831              		.loc 1 1018 0
 832 008e 2046     		mov	r0, r4
 833              	.LVL65:
 834 0090 FFF7FEFF 		bl	otg_txfifo_flush.isra.1
 835              	.LVL66:
 836              		.loc 1 1022 0
 837 0094 D8F80C30 		ldr	r3, [r8, #12]
 838 0098 1B8A     		ldrh	r3, [r3, #16]
 839              		.loc 1 1021 0
 840 009a 43EA8553 		orr	r3, r3, r5, lsl #22
 841 009e 1F43     		orrs	r7, r7, r3
 842              	.LVL67:
 843              		.loc 1 1020 0
 844 00a0 05F14803 		add	r3, r5, #72
 845 00a4 5B01     		lsls	r3, r3, #5
 846 00a6 E750     		str	r7, [r4, r3]
 847              		.loc 1 1023 0
 848 00a8 0123     		movs	r3, #1
 849 00aa D4F81C28 		ldr	r2, [r4, #2076]
 850 00ae 03FA05F5 		lsl	r5, r3, r5
 851 00b2 1543     		orrs	r5, r5, r2
 852              	.LVL68:
 853              	.L60:
 854              		.loc 1 1029 0
 855 00b4 C4F81C58 		str	r5, [r4, #2076]
ARM GAS  /tmp/ccs9YUms.s 			page 16


 856 00b8 BDE8F081 		pop	{r4, r5, r6, r7, r8, pc}
 857              	.LVL69:
 858              	.L50:
 859              		.loc 1 989 0
 860 00bc 174F     		ldr	r7, .L61+8
 861              		.loc 1 990 0
 862 00be B3E7     		b	.L52
 863              	.LVL70:
 864              	.L51:
 865              		.loc 1 992 0
 866 00c0 174F     		ldr	r7, .L61+12
 867              		.loc 1 993 0
 868 00c2 B1E7     		b	.L52
 869              	.LVL71:
 870              	.L53:
 871 00c4 04EB4613 		add	r3, r4, r6, lsl #5
 872              		.loc 1 1005 0
 873 00c8 D3F8002B 		ldr	r2, [r3, #2816]
 874 00cc 22F40042 		bic	r2, r2, #32768
 875 00d0 C3F8002B 		str	r2, [r3, #2816]
 876              		.loc 1 1006 0
 877 00d4 D4F81C28 		ldr	r2, [r4, #2076]
 878 00d8 0123     		movs	r3, #1
 879 00da 03FA0CF3 		lsl	r3, r3, ip
 880 00de 22EA0303 		bic	r3, r2, r3
 881 00e2 BAE7     		b	.L59
 882              	.L55:
 883              		.loc 1 1026 0
 884 00e4 04EB8303 		add	r3, r4, r3, lsl #2
 885 00e8 0E4A     		ldr	r2, .L61+16
 886 00ea 5A60     		str	r2, [r3, #4]
 887 00ec 04EB4616 		add	r6, r4, r6, lsl #5
 888              		.loc 1 1027 0
 889 00f0 2946     		mov	r1, r5
 890 00f2 2046     		mov	r0, r4
 891              	.LVL72:
 892 00f4 FFF7FEFF 		bl	otg_txfifo_flush.isra.1
 893              	.LVL73:
 894              		.loc 1 1028 0
 895 00f8 D6F80039 		ldr	r3, [r6, #2304]
 896 00fc 23F40043 		bic	r3, r3, #32768
 897 0100 C6F80039 		str	r3, [r6, #2304]
 898              		.loc 1 1029 0
 899 0104 D4F81C38 		ldr	r3, [r4, #2076]
 900 0108 0122     		movs	r2, #1
 901 010a 02FA05F5 		lsl	r5, r2, r5
 902 010e 23EA0505 		bic	r5, r3, r5
 903 0112 CFE7     		b	.L60
 904              	.L62:
 905              		.align	2
 906              	.L61:
 907 0114 00800010 		.word	268468224
 908 0118 00800410 		.word	268730368
 909 011c 00800810 		.word	268992512
 910 0120 00800C10 		.word	269254656
 911 0124 00040002 		.word	33555456
 912              		.cfi_endproc
ARM GAS  /tmp/ccs9YUms.s 			page 17


 913              	.LFE344:
 914              		.size	usb_lld_init_endpoint, .-usb_lld_init_endpoint
 915              		.section	.text.usb_lld_disable_endpoints,"ax",%progbits
 916              		.align	1
 917              		.global	usb_lld_disable_endpoints
 918              		.syntax unified
 919              		.thumb
 920              		.thumb_func
 921              		.fpu fpv4-sp-d16
 922              		.type	usb_lld_disable_endpoints, %function
 923              	usb_lld_disable_endpoints:
 924              	.LFB345:
 925              		.loc 1 1040 0
 926              		.cfi_startproc
 927              		@ args = 0, pretend = 0, frame = 0
 928              		@ frame_needed = 0, uses_anonymous_args = 0
 929              		@ link register save eliminated.
 930              	.LVL74:
 931              	.LBB162:
 932              	.LBB163:
 933              		.loc 1 199 0
 934 0000 826D     		ldr	r2, [r0, #88]
 935 0002 1268     		ldr	r2, [r2]
 936 0004 C265     		str	r2, [r0, #92]
 937              	.LVL75:
 938              	.LBE163:
 939              	.LBE162:
 940              		.loc 1 1046 0
 941 0006 FFF7FEBF 		b	otg_disable_ep
 942              	.LVL76:
 943              		.cfi_endproc
 944              	.LFE345:
 945              		.size	usb_lld_disable_endpoints, .-usb_lld_disable_endpoints
 946              		.section	.text.usb_lld_get_status_out,"ax",%progbits
 947              		.align	1
 948              		.global	usb_lld_get_status_out
 949              		.syntax unified
 950              		.thumb
 951              		.thumb_func
 952              		.fpu fpv4-sp-d16
 953              		.type	usb_lld_get_status_out, %function
 954              	usb_lld_get_status_out:
 955              	.LFB346:
 956              		.loc 1 1061 0
 957              		.cfi_startproc
 958              		@ args = 0, pretend = 0, frame = 0
 959              		@ frame_needed = 0, uses_anonymous_args = 0
 960              		@ link register save eliminated.
 961              	.LVL77:
 962              		.loc 1 1066 0
 963 0000 5831     		adds	r1, r1, #88
 964              	.LVL78:
 965 0002 436D     		ldr	r3, [r0, #84]
 966 0004 4901     		lsls	r1, r1, #5
 967 0006 5B58     		ldr	r3, [r3, r1]
 968              	.LVL79:
 969              		.loc 1 1067 0
ARM GAS  /tmp/ccs9YUms.s 			page 18


 970 0008 13F40040 		ands	r0, r3, #32768
 971              	.LVL80:
 972 000c 04D0     		beq	.L65
 973              		.loc 1 1069 0
 974 000e 13F4001F 		tst	r3, #2097152
 975              		.loc 1 1071 0
 976 0012 14BF     		ite	ne
 977 0014 0120     		movne	r0, #1
 978 0016 0220     		moveq	r0, #2
 979              	.L65:
 980              		.loc 1 1072 0
 981 0018 7047     		bx	lr
 982              		.cfi_endproc
 983              	.LFE346:
 984              		.size	usb_lld_get_status_out, .-usb_lld_get_status_out
 985              		.section	.text.usb_lld_get_status_in,"ax",%progbits
 986              		.align	1
 987              		.global	usb_lld_get_status_in
 988              		.syntax unified
 989              		.thumb
 990              		.thumb_func
 991              		.fpu fpv4-sp-d16
 992              		.type	usb_lld_get_status_in, %function
 993              	usb_lld_get_status_in:
 994              	.LFB347:
 995              		.loc 1 1086 0
 996              		.cfi_startproc
 997              		@ args = 0, pretend = 0, frame = 0
 998              		@ frame_needed = 0, uses_anonymous_args = 0
 999              		@ link register save eliminated.
 1000              	.LVL81:
 1001              		.loc 1 1091 0
 1002 0000 4831     		adds	r1, r1, #72
 1003              	.LVL82:
 1004 0002 436D     		ldr	r3, [r0, #84]
 1005 0004 4901     		lsls	r1, r1, #5
 1006 0006 5B58     		ldr	r3, [r3, r1]
 1007              	.LVL83:
 1008              		.loc 1 1092 0
 1009 0008 13F40040 		ands	r0, r3, #32768
 1010              	.LVL84:
 1011 000c 04D0     		beq	.L69
 1012              		.loc 1 1094 0
 1013 000e 13F4001F 		tst	r3, #2097152
 1014              		.loc 1 1096 0
 1015 0012 14BF     		ite	ne
 1016 0014 0120     		movne	r0, #1
 1017 0016 0220     		moveq	r0, #2
 1018              	.L69:
 1019              		.loc 1 1097 0
 1020 0018 7047     		bx	lr
 1021              		.cfi_endproc
 1022              	.LFE347:
 1023              		.size	usb_lld_get_status_in, .-usb_lld_get_status_in
 1024              		.section	.text.usb_lld_read_setup,"ax",%progbits
 1025              		.align	1
 1026              		.global	usb_lld_read_setup
ARM GAS  /tmp/ccs9YUms.s 			page 19


 1027              		.syntax unified
 1028              		.thumb
 1029              		.thumb_func
 1030              		.fpu fpv4-sp-d16
 1031              		.type	usb_lld_read_setup, %function
 1032              	usb_lld_read_setup:
 1033              	.LFB348:
 1034              		.loc 1 1113 0
 1035              		.cfi_startproc
 1036              		@ args = 0, pretend = 0, frame = 0
 1037              		@ frame_needed = 0, uses_anonymous_args = 0
 1038              		@ link register save eliminated.
 1039              	.LVL85:
 1040              		.loc 1 1115 0
 1041 0000 00EB8101 		add	r1, r0, r1, lsl #2
 1042              	.LVL86:
 1043 0004 CB68     		ldr	r3, [r1, #12]
 1044 0006 196A     		ldr	r1, [r3, #32]
 1045 0008 0B68     		ldr	r3, [r1]	@ unaligned
 1046 000a 1360     		str	r3, [r2]	@ unaligned
 1047 000c 4B68     		ldr	r3, [r1, #4]	@ unaligned
 1048 000e 5360     		str	r3, [r2, #4]	@ unaligned
 1049 0010 7047     		bx	lr
 1050              		.cfi_endproc
 1051              	.LFE348:
 1052              		.size	usb_lld_read_setup, .-usb_lld_read_setup
 1053              		.section	.text.usb_lld_start_out,"ax",%progbits
 1054              		.align	1
 1055              		.global	usb_lld_start_out
 1056              		.syntax unified
 1057              		.thumb
 1058              		.thumb_func
 1059              		.fpu fpv4-sp-d16
 1060              		.type	usb_lld_start_out, %function
 1061              	usb_lld_start_out:
 1062              	.LFB349:
 1063              		.loc 1 1126 0
 1064              		.cfi_startproc
 1065              		@ args = 0, pretend = 0, frame = 0
 1066              		@ frame_needed = 0, uses_anonymous_args = 0
 1067              	.LVL87:
 1068              		.loc 1 1128 0
 1069 0000 00EB8103 		add	r3, r0, r1, lsl #2
 1070              		.loc 1 1126 0
 1071 0004 30B5     		push	{r4, r5, lr}
 1072              		.cfi_def_cfa_offset 12
 1073              		.cfi_offset 4, -12
 1074              		.cfi_offset 5, -8
 1075              		.cfi_offset 14, -4
 1076              		.loc 1 1128 0
 1077 0006 DD68     		ldr	r5, [r3, #12]
 1078 0008 AA69     		ldr	r2, [r5, #24]
 1079              	.LVL88:
 1080              		.loc 1 1131 0
 1081 000a 1368     		ldr	r3, [r2]
 1082 000c D360     		str	r3, [r2, #12]
 1083              		.loc 1 1132 0
ARM GAS  /tmp/ccs9YUms.s 			page 20


 1084 000e 19B9     		cbnz	r1, .L74
 1085              		.loc 1 1132 0 is_stmt 0 discriminator 1
 1086 0010 402B     		cmp	r3, #64
 1087              		.loc 1 1133 0 is_stmt 1 discriminator 1
 1088 0012 84BF     		itt	hi
 1089 0014 4023     		movhi	r3, #64
 1090 0016 1360     		strhi	r3, [r2]
 1091              	.L74:
 1092              		.loc 1 1140 0
 1093 0018 6B8A     		ldrh	r3, [r5, #18]
 1094 001a 1468     		ldr	r4, [r2]
 1095              		.loc 1 1145 0
 1096 001c 426D     		ldr	r2, [r0, #84]
 1097              	.LVL89:
 1098              		.loc 1 1140 0
 1099 001e 1C44     		add	r4, r4, r3
 1100 0020 013C     		subs	r4, r4, #1
 1101 0022 B4FBF3F4 		udiv	r4, r4, r3
 1102              	.LVL90:
 1103              		.loc 1 1142 0
 1104 0026 6343     		muls	r3, r4, r3
 1105              	.LVL91:
 1106 0028 0333     		adds	r3, r3, #3
 1107 002a 23F00303 		bic	r3, r3, #3
 1108              	.LVL92:
 1109              		.loc 1 1145 0
 1110 002e 02EB4110 		add	r0, r2, r1, lsl #5
 1111              	.LVL93:
 1112 0032 43EAC443 		orr	r3, r3, r4, lsl #19
 1113              	.LVL94:
 1114 0036 43F0C043 		orr	r3, r3, #1610612736
 1115 003a C0F8103B 		str	r3, [r0, #2832]
 1116              		.loc 1 1149 0
 1117 003e 2B68     		ldr	r3, [r5]
 1118 0040 03F00303 		and	r3, r3, #3
 1119 0044 012B     		cmp	r3, #1
 1120 0046 09B2     		sxth	r1, r1
 1121              	.LVL95:
 1122 0048 0ED1     		bne	.L75
 1123              		.loc 1 1151 0
 1124 004a D2F80838 		ldr	r3, [r2, #2056]
 1125 004e 02EB4110 		add	r0, r2, r1, lsl #5
 1126 0052 13F4807F 		tst	r3, #256
 1127              		.loc 1 1152 0
 1128 0056 D0F8003B 		ldr	r3, [r0, #2816]
 1129 005a 14BF     		ite	ne
 1130 005c 43F08053 		orrne	r3, r3, #268435456
 1131              		.loc 1 1154 0
 1132 0060 43F00053 		orreq	r3, r3, #536870912
 1133 0064 C0F8003B 		str	r3, [r0, #2816]
 1134              	.L75:
 1135 0068 02EB4112 		add	r2, r2, r1, lsl #5
 1136              		.loc 1 1158 0
 1137 006c D2F8003B 		ldr	r3, [r2, #2816]
 1138 0070 43F00443 		orr	r3, r3, #-2080374784
 1139 0074 C2F8003B 		str	r3, [r2, #2816]
 1140 0078 30BD     		pop	{r4, r5, pc}
ARM GAS  /tmp/ccs9YUms.s 			page 21


 1141              		.cfi_endproc
 1142              	.LFE349:
 1143              		.size	usb_lld_start_out, .-usb_lld_start_out
 1144              		.section	.text.otg_epout_handler.constprop.7,"ax",%progbits
 1145              		.align	1
 1146              		.syntax unified
 1147              		.thumb
 1148              		.thumb_func
 1149              		.fpu fpv4-sp-d16
 1150              		.type	otg_epout_handler.constprop.7, %function
 1151              	otg_epout_handler.constprop.7:
 1152              	.LFB362:
 1153              		.loc 1 413 0
 1154              		.cfi_startproc
 1155              		@ args = 0, pretend = 0, frame = 0
 1156              		@ frame_needed = 0, uses_anonymous_args = 0
 1157              	.LVL96:
 1158 0000 2DE9F041 		push	{r4, r5, r6, r7, r8, lr}
 1159              		.cfi_def_cfa_offset 24
 1160              		.cfi_offset 4, -24
 1161              		.cfi_offset 5, -20
 1162              		.cfi_offset 6, -16
 1163              		.cfi_offset 7, -12
 1164              		.cfi_offset 8, -8
 1165              		.cfi_offset 14, -4
 1166              		.loc 1 414 0
 1167 0004 244D     		ldr	r5, .L96
 1168 0006 6E6D     		ldr	r6, [r5, #84]
 1169              	.LVL97:
 1170              		.loc 1 415 0
 1171 0008 06EB4013 		add	r3, r6, r0, lsl #5
 1172              		.loc 1 413 0
 1173 000c 0446     		mov	r4, r0
 1174              		.loc 1 415 0
 1175 000e D3F8087B 		ldr	r7, [r3, #2824]
 1176              	.LVL98:
 1177              		.loc 1 418 0
 1178 0012 C3F8087B 		str	r7, [r3, #2824]
 1179              		.loc 1 420 0
 1180 0016 3807     		lsls	r0, r7, #28
 1181              	.LVL99:
 1182 0018 0AD5     		bpl	.L79
 1183 001a D6F81438 		ldr	r3, [r6, #2068]
 1184 001e 1907     		lsls	r1, r3, #28
 1185 0020 06D5     		bpl	.L79
 1186              		.loc 1 423 0
 1187 0022 05EB8403 		add	r3, r5, r4, lsl #2
 1188 0026 2146     		mov	r1, r4
 1189 0028 DB68     		ldr	r3, [r3, #12]
 1190 002a 2846     		mov	r0, r5
 1191 002c 5B68     		ldr	r3, [r3, #4]
 1192 002e 9847     		blx	r3
 1193              	.LVL100:
 1194              	.L79:
 1195              		.loc 1 426 0
 1196 0030 FA07     		lsls	r2, r7, #31
 1197 0032 2FD5     		bpl	.L78
ARM GAS  /tmp/ccs9YUms.s 			page 22


 1198 0034 D6F81438 		ldr	r3, [r6, #2068]
 1199 0038 DB07     		lsls	r3, r3, #31
 1200 003a 2BD5     		bpl	.L78
 1201              	.LBB164:
 1202              		.loc 1 430 0
 1203 003c 05EB8403 		add	r3, r5, r4, lsl #2
 1204 0040 D968     		ldr	r1, [r3, #12]
 1205              	.LVL101:
 1206              		.loc 1 433 0
 1207 0042 CCB9     		cbnz	r4, .L83
 1208              		.loc 1 430 0
 1209 0044 8B69     		ldr	r3, [r1, #24]
 1210              		.loc 1 447 0
 1211 0046 488A     		ldrh	r0, [r1, #18]
 1212 0048 5E68     		ldr	r6, [r3, #4]
 1213              	.LVL102:
 1214 004a B6FBF0F2 		udiv	r2, r6, r0
 1215 004e 00FB1262 		mls	r2, r0, r2, r6
 1216 0052 8AB9     		cbnz	r2, .L83
 1217              		.loc 1 448 0
 1218 0054 1868     		ldr	r0, [r3]
 1219 0056 DA68     		ldr	r2, [r3, #12]
 1220              		.loc 1 447 0
 1221 0058 9042     		cmp	r0, r2
 1222 005a 0DD2     		bcs	.L83
 1223              		.loc 1 449 0
 1224 005c 121A     		subs	r2, r2, r0
 1225              		.loc 1 450 0
 1226 005e 83E81400 		stm	r3, {r2, r4}
 1227              	.LVL103:
 1228              	.LBB165:
 1229              	.LBB166:
 1230              	.LBB167:
 1231              	.LBB168:
 1232              	.LBB169:
 1233              	.LBB170:
 1234              		.file 3 "../../modules/ChibiOS/os/common/ext/ARM/CMSIS/Core/Include/cmsis_gcc.h"
 1235              		.loc 3 493 0
 1236 0062 2023     		movs	r3, #32
 1237              		.syntax unified
 1238              	@ 493 "../../modules/ChibiOS/os/common/ext/ARM/CMSIS/Core/Include/cmsis_gcc.h" 1
 1239 0064 83F31188 		MSR basepri, r3
 1240              	@ 0 "" 2
 1241              	.LVL104:
 1242              		.thumb
 1243              		.syntax unified
 1244              	.LBE170:
 1245              	.LBE169:
 1246              	.LBE168:
 1247              	.LBE167:
 1248              	.LBE166:
 1249              	.LBE165:
 1250              		.loc 1 452 0
 1251 0068 0B48     		ldr	r0, .L96
 1252 006a 2146     		mov	r1, r4
 1253              	.LVL105:
 1254 006c FFF7FEFF 		bl	usb_lld_start_out
ARM GAS  /tmp/ccs9YUms.s 			page 23


 1255              	.LVL106:
 1256              	.LBB171:
 1257              	.LBB172:
 1258              	.LBB173:
 1259              	.LBB174:
 1260              	.LBB175:
 1261              	.LBB176:
 1262              		.loc 3 493 0
 1263              		.syntax unified
 1264              	@ 493 "../../modules/ChibiOS/os/common/ext/ARM/CMSIS/Core/Include/cmsis_gcc.h" 1
 1265 0070 84F31188 		MSR basepri, r4
 1266              	@ 0 "" 2
 1267              	.LVL107:
 1268              		.thumb
 1269              		.syntax unified
 1270 0074 BDE8F081 		pop	{r4, r5, r6, r7, r8, pc}
 1271              	.LVL108:
 1272              	.L83:
 1273              	.LBE176:
 1274              	.LBE175:
 1275              	.LBE174:
 1276              	.LBE173:
 1277              	.LBE172:
 1278              	.LBE171:
 1279              		.loc 1 459 0
 1280 0078 0123     		movs	r3, #1
 1281 007a 03FA04F2 		lsl	r2, r3, r4
 1282 007e 6B89     		ldrh	r3, [r5, #10]
 1283 0080 23EA0203 		bic	r3, r3, r2
 1284 0084 6B81     		strh	r3, [r5, #10]	@ movhi
 1285 0086 CB68     		ldr	r3, [r1, #12]
 1286 0088 23B1     		cbz	r3, .L78
 1287 008a 2146     		mov	r1, r4
 1288              	.LVL109:
 1289 008c 0248     		ldr	r0, .L96
 1290              	.LBE164:
 1291              		.loc 1 461 0
 1292 008e BDE8F041 		pop	{r4, r5, r6, r7, r8, lr}
 1293              		.cfi_remember_state
 1294              		.cfi_restore 14
 1295              		.cfi_restore 8
 1296              		.cfi_restore 7
 1297              		.cfi_restore 6
 1298              		.cfi_restore 5
 1299              		.cfi_restore 4
 1300              		.cfi_def_cfa_offset 0
 1301              	.LVL110:
 1302              	.LBB177:
 1303              		.loc 1 459 0
 1304 0092 1847     		bx	r3	@ indirect register sibling call
 1305              	.LVL111:
 1306              	.L78:
 1307              		.cfi_restore_state
 1308 0094 BDE8F081 		pop	{r4, r5, r6, r7, r8, pc}
 1309              	.LVL112:
 1310              	.L97:
 1311              		.align	2
ARM GAS  /tmp/ccs9YUms.s 			page 24


 1312              	.L96:
 1313 0098 00000000 		.word	.LANCHOR0
 1314              	.LBE177:
 1315              		.cfi_endproc
 1316              	.LFE362:
 1317              		.size	otg_epout_handler.constprop.7, .-otg_epout_handler.constprop.7
 1318              		.section	.text.usb_lld_start_in,"ax",%progbits
 1319              		.align	1
 1320              		.global	usb_lld_start_in
 1321              		.syntax unified
 1322              		.thumb
 1323              		.thumb_func
 1324              		.fpu fpv4-sp-d16
 1325              		.type	usb_lld_start_in, %function
 1326              	usb_lld_start_in:
 1327              	.LFB350:
 1328              		.loc 1 1169 0
 1329              		.cfi_startproc
 1330              		@ args = 0, pretend = 0, frame = 0
 1331              		@ frame_needed = 0, uses_anonymous_args = 0
 1332              	.LVL113:
 1333              		.loc 1 1170 0
 1334 0000 00EB8103 		add	r3, r0, r1, lsl #2
 1335              		.loc 1 1169 0
 1336 0004 70B5     		push	{r4, r5, r6, lr}
 1337              		.cfi_def_cfa_offset 16
 1338              		.cfi_offset 4, -16
 1339              		.cfi_offset 5, -12
 1340              		.cfi_offset 6, -8
 1341              		.cfi_offset 14, -4
 1342              		.loc 1 1170 0
 1343 0006 DD68     		ldr	r5, [r3, #12]
 1344 0008 436D     		ldr	r3, [r0, #84]
 1345 000a 6C69     		ldr	r4, [r5, #20]
 1346              	.LVL114:
 1347              		.loc 1 1173 0
 1348 000c 2668     		ldr	r6, [r4]
 1349 000e E660     		str	r6, [r4, #12]
 1350 0010 4A01     		lsls	r2, r1, #5
 1351              		.loc 1 1174 0
 1352 0012 56BB     		cbnz	r6, .L99
 1353              		.loc 1 1176 0
 1354 0014 1A44     		add	r2, r2, r3
 1355 0016 4FF40020 		mov	r0, #524288
 1356              	.LVL115:
 1357              	.L104:
 1358              	.LBB178:
 1359              		.loc 1 1186 0
 1360 001a C2F81009 		str	r0, [r2, #2320]
 1361              	.LBE178:
 1362              		.loc 1 1191 0
 1363 001e 2A68     		ldr	r2, [r5]
 1364 0020 02F00302 		and	r2, r2, #3
 1365 0024 012A     		cmp	r2, #1
 1366 0026 0AB2     		sxth	r2, r1
 1367 0028 0ED1     		bne	.L102
 1368              		.loc 1 1193 0
ARM GAS  /tmp/ccs9YUms.s 			page 25


 1369 002a D3F80808 		ldr	r0, [r3, #2056]
 1370 002e 03EB4214 		add	r4, r3, r2, lsl #5
 1371 0032 10F4807F 		tst	r0, #256
 1372              		.loc 1 1194 0
 1373 0036 D4F80009 		ldr	r0, [r4, #2304]
 1374 003a 14BF     		ite	ne
 1375 003c 40F08050 		orrne	r0, r0, #268435456
 1376              		.loc 1 1196 0
 1377 0040 40F00050 		orreq	r0, r0, #536870912
 1378 0044 C4F80009 		str	r0, [r4, #2304]
 1379              	.L102:
 1380 0048 03EB4212 		add	r2, r3, r2, lsl #5
 1381              		.loc 1 1200 0
 1382 004c D2F80009 		ldr	r0, [r2, #2304]
 1383 0050 40F00440 		orr	r0, r0, #-2080374784
 1384 0054 C2F80009 		str	r0, [r2, #2304]
 1385              		.loc 1 1201 0
 1386 0058 D3F83408 		ldr	r0, [r3, #2100]
 1387 005c 0122     		movs	r2, #1
 1388 005e 02FA01F1 		lsl	r1, r2, r1
 1389              	.LVL116:
 1390 0062 0143     		orrs	r1, r1, r0
 1391 0064 C3F83418 		str	r1, [r3, #2100]
 1392 0068 70BD     		pop	{r4, r5, r6, pc}
 1393              	.LVL117:
 1394              	.L99:
 1395              	.LBB179:
 1396              		.loc 1 1179 0
 1397 006a 19B9     		cbnz	r1, .L101
 1398              		.loc 1 1179 0 is_stmt 0 discriminator 1
 1399 006c 402E     		cmp	r6, #64
 1400              		.loc 1 1180 0 is_stmt 1 discriminator 1
 1401 006e 84BF     		itt	hi
 1402 0070 4020     		movhi	r0, #64
 1403              	.LVL118:
 1404 0072 2060     		strhi	r0, [r4]
 1405              	.L101:
 1406              		.loc 1 1183 0
 1407 0074 2068     		ldr	r0, [r4]
 1408 0076 2E8A     		ldrh	r6, [r5, #16]
 1409              	.LVL119:
 1410 0078 8419     		adds	r4, r0, r6
 1411              	.LVL120:
 1412              		.loc 1 1186 0
 1413 007a 40F00050 		orr	r0, r0, #536870912
 1414              	.LVL121:
 1415              		.loc 1 1183 0
 1416 007e 013C     		subs	r4, r4, #1
 1417              		.loc 1 1186 0
 1418 0080 1A44     		add	r2, r2, r3
 1419              		.loc 1 1183 0
 1420 0082 B4FBF6F4 		udiv	r4, r4, r6
 1421              	.LVL122:
 1422              		.loc 1 1186 0
 1423 0086 40EAC440 		orr	r0, r0, r4, lsl #19
 1424 008a C6E7     		b	.L104
 1425              	.LBE179:
ARM GAS  /tmp/ccs9YUms.s 			page 26


 1426              		.cfi_endproc
 1427              	.LFE350:
 1428              		.size	usb_lld_start_in, .-usb_lld_start_in
 1429              		.section	.text.otg_epin_handler.constprop.8,"ax",%progbits
 1430              		.align	1
 1431              		.syntax unified
 1432              		.thumb
 1433              		.thumb_func
 1434              		.fpu fpv4-sp-d16
 1435              		.type	otg_epin_handler.constprop.8, %function
 1436              	otg_epin_handler.constprop.8:
 1437              	.LFB361:
 1438              		.loc 1 370 0
 1439              		.cfi_startproc
 1440              		@ args = 0, pretend = 0, frame = 0
 1441              		@ frame_needed = 0, uses_anonymous_args = 0
 1442              	.LVL123:
 1443 0000 F8B5     		push	{r3, r4, r5, r6, r7, lr}
 1444              		.cfi_def_cfa_offset 24
 1445              		.cfi_offset 3, -24
 1446              		.cfi_offset 4, -20
 1447              		.cfi_offset 5, -16
 1448              		.cfi_offset 6, -12
 1449              		.cfi_offset 7, -8
 1450              		.cfi_offset 14, -4
 1451              		.loc 1 370 0
 1452 0002 0446     		mov	r4, r0
 1453              		.loc 1 371 0
 1454 0004 1E48     		ldr	r0, .L124
 1455              	.LVL124:
 1456 0006 456D     		ldr	r5, [r0, #84]
 1457              	.LVL125:
 1458              		.loc 1 372 0
 1459 0008 05EB4413 		add	r3, r5, r4, lsl #5
 1460 000c D3F80869 		ldr	r6, [r3, #2312]
 1461              	.LVL126:
 1462              		.loc 1 374 0
 1463 0010 C3F80869 		str	r6, [r3, #2312]
 1464              		.loc 1 379 0
 1465 0014 F107     		lsls	r1, r6, #31
 1466 0016 17D5     		bpl	.L108
 1467 0018 D5F81038 		ldr	r3, [r5, #2064]
 1468 001c DA07     		lsls	r2, r3, #31
 1469 001e 13D5     		bpl	.L108
 1470              	.LBB180:
 1471              		.loc 1 381 0
 1472 0020 00EB8403 		add	r3, r0, r4, lsl #2
 1473 0024 D968     		ldr	r1, [r3, #12]
 1474 0026 4B69     		ldr	r3, [r1, #20]
 1475              	.LVL127:
 1476              		.loc 1 383 0
 1477 0028 1F68     		ldr	r7, [r3]
 1478 002a DA68     		ldr	r2, [r3, #12]
 1479 002c 9742     		cmp	r7, r2
 1480 002e 18D2     		bcs	.L110
 1481              		.loc 1 387 0
 1482 0030 D21B     		subs	r2, r2, r7
ARM GAS  /tmp/ccs9YUms.s 			page 27


 1483              		.loc 1 388 0
 1484 0032 0027     		movs	r7, #0
 1485              		.loc 1 387 0
 1486 0034 1A60     		str	r2, [r3]
 1487              		.loc 1 388 0
 1488 0036 5F60     		str	r7, [r3, #4]
 1489              	.LVL128:
 1490              	.LBB181:
 1491              	.LBB182:
 1492              	.LBB183:
 1493              	.LBB184:
 1494              	.LBB185:
 1495              	.LBB186:
 1496              		.loc 3 493 0
 1497 0038 2023     		movs	r3, #32
 1498              	.LVL129:
 1499              		.syntax unified
 1500              	@ 493 "../../modules/ChibiOS/os/common/ext/ARM/CMSIS/Core/Include/cmsis_gcc.h" 1
 1501 003a 83F31188 		MSR basepri, r3
 1502              	@ 0 "" 2
 1503              	.LVL130:
 1504              		.thumb
 1505              		.syntax unified
 1506              	.LBE186:
 1507              	.LBE185:
 1508              	.LBE184:
 1509              	.LBE183:
 1510              	.LBE182:
 1511              	.LBE181:
 1512              		.loc 1 390 0
 1513 003e 2146     		mov	r1, r4
 1514              	.LVL131:
 1515 0040 FFF7FEFF 		bl	usb_lld_start_in
 1516              	.LVL132:
 1517              	.LBB187:
 1518              	.LBB188:
 1519              	.LBB189:
 1520              	.LBB190:
 1521              	.LBB191:
 1522              	.LBB192:
 1523              		.loc 3 493 0
 1524              		.syntax unified
 1525              	@ 493 "../../modules/ChibiOS/os/common/ext/ARM/CMSIS/Core/Include/cmsis_gcc.h" 1
 1526 0044 87F31188 		MSR basepri, r7
 1527              	@ 0 "" 2
 1528              	.LVL133:
 1529              		.thumb
 1530              		.syntax unified
 1531              	.L108:
 1532              	.LBE192:
 1533              	.LBE191:
 1534              	.LBE190:
 1535              	.LBE189:
 1536              	.LBE188:
 1537              	.LBE187:
 1538              	.LBE180:
 1539              		.loc 1 398 0
ARM GAS  /tmp/ccs9YUms.s 			page 28


 1540 0048 3306     		lsls	r3, r6, #24
 1541 004a 17D5     		bpl	.L106
 1542              		.loc 1 399 0
 1543 004c D5F83428 		ldr	r2, [r5, #2100]
 1544 0050 0123     		movs	r3, #1
 1545 0052 A340     		lsls	r3, r3, r4
 1546              		.loc 1 398 0
 1547 0054 1342     		tst	r3, r2
 1548 0056 11D0     		beq	.L106
 1549              		.loc 1 401 0
 1550 0058 2046     		mov	r0, r4
 1551              		.loc 1 403 0
 1552 005a BDE8F840 		pop	{r3, r4, r5, r6, r7, lr}
 1553              		.cfi_remember_state
 1554              		.cfi_restore 14
 1555              		.cfi_restore 7
 1556              		.cfi_restore 6
 1557              		.cfi_restore 5
 1558              		.cfi_restore 4
 1559              		.cfi_restore 3
 1560              		.cfi_def_cfa_offset 0
 1561              	.LVL134:
 1562              		.loc 1 401 0
 1563 005e FFF7FEBF 		b	otg_txfifo_handler.constprop.9
 1564              	.LVL135:
 1565              	.L110:
 1566              		.cfi_restore_state
 1567              	.LBB193:
 1568              		.loc 1 395 0
 1569 0062 0123     		movs	r3, #1
 1570              	.LVL136:
 1571 0064 03FA04F2 		lsl	r2, r3, r4
 1572 0068 0389     		ldrh	r3, [r0, #8]
 1573 006a 23EA0203 		bic	r3, r3, r2
 1574 006e 0381     		strh	r3, [r0, #8]	@ movhi
 1575 0070 8B68     		ldr	r3, [r1, #8]
 1576 0072 002B     		cmp	r3, #0
 1577 0074 E8D0     		beq	.L108
 1578 0076 2146     		mov	r1, r4
 1579              	.LVL137:
 1580 0078 9847     		blx	r3
 1581              	.LVL138:
 1582 007a E5E7     		b	.L108
 1583              	.L106:
 1584 007c F8BD     		pop	{r3, r4, r5, r6, r7, pc}
 1585              	.LVL139:
 1586              	.L125:
 1587 007e 00BF     		.align	2
 1588              	.L124:
 1589 0080 00000000 		.word	.LANCHOR0
 1590              	.LBE193:
 1591              		.cfi_endproc
 1592              	.LFE361:
 1593              		.size	otg_epin_handler.constprop.8, .-otg_epin_handler.constprop.8
 1594              		.section	.text.Vector14C,"ax",%progbits
 1595              		.align	1
 1596              		.global	Vector14C
ARM GAS  /tmp/ccs9YUms.s 			page 29


 1597              		.syntax unified
 1598              		.thumb
 1599              		.thumb_func
 1600              		.fpu fpv4-sp-d16
 1601              		.type	Vector14C, %function
 1602              	Vector14C:
 1603              	.LFB338:
 1604              		.loc 1 674 0
 1605              		.cfi_startproc
 1606              		@ args = 0, pretend = 0, frame = 0
 1607              		@ frame_needed = 0, uses_anonymous_args = 0
 1608              	.LVL140:
 1609              	.LBB206:
 1610              	.LBB207:
 1611              		.loc 1 529 0
 1612 0000 9648     		ldr	r0, .L220
 1613              	.LBE207:
 1614              	.LBE206:
 1615              		.loc 1 674 0
 1616 0002 2DE9F84F 		push	{r3, r4, r5, r6, r7, r8, r9, r10, fp, lr}
 1617              		.cfi_def_cfa_offset 40
 1618              		.cfi_offset 3, -40
 1619              		.cfi_offset 4, -36
 1620              		.cfi_offset 5, -32
 1621              		.cfi_offset 6, -28
 1622              		.cfi_offset 7, -24
 1623              		.cfi_offset 8, -20
 1624              		.cfi_offset 9, -16
 1625              		.cfi_offset 10, -12
 1626              		.cfi_offset 11, -8
 1627              		.cfi_offset 14, -4
 1628              	.LBB232:
 1629              	.LBB230:
 1630              		.loc 1 529 0
 1631 0006 456D     		ldr	r5, [r0, #84]
 1632              	.LVL141:
 1633              		.loc 1 532 0
 1634 0008 6E69     		ldr	r6, [r5, #20]
 1635              	.LVL142:
 1636              		.loc 1 533 0
 1637 000a AB69     		ldr	r3, [r5, #24]
 1638 000c 1E40     		ands	r6, r6, r3
 1639              	.LVL143:
 1640              		.loc 1 537 0
 1641 000e 16F4805F 		tst	r6, #4096
 1642              		.loc 1 534 0
 1643 0012 6E61     		str	r6, [r5, #20]
 1644 0014 0446     		mov	r4, r0
 1645              		.loc 1 537 0
 1646 0016 05D0     		beq	.L127
 1647              		.loc 1 539 0
 1648 0018 FFF7FEFF 		bl	_usb_reset
 1649              	.LVL144:
 1650              	.L128:
 1651              	.LBE230:
 1652              	.LBE232:
 1653              		.loc 1 681 0
ARM GAS  /tmp/ccs9YUms.s 			page 30


 1654 001c BDE8F84F 		pop	{r3, r4, r5, r6, r7, r8, r9, r10, fp, lr}
 1655              		.cfi_remember_state
 1656              		.cfi_restore 14
 1657              		.cfi_restore 11
 1658              		.cfi_restore 10
 1659              		.cfi_restore 9
 1660              		.cfi_restore 8
 1661              		.cfi_restore 7
 1662              		.cfi_restore 6
 1663              		.cfi_restore 5
 1664              		.cfi_restore 4
 1665              		.cfi_restore 3
 1666              		.cfi_def_cfa_offset 0
 1667              		.loc 1 680 0
 1668 0020 FFF7FEBF 		b	_port_irq_epilogue
 1669              	.LVL145:
 1670              	.L127:
 1671              		.cfi_restore_state
 1672              	.LBB233:
 1673              	.LBB231:
 1674              		.loc 1 546 0
 1675 0024 002E     		cmp	r6, #0
 1676 0026 12DA     		bge	.L129
 1677              		.loc 1 549 0
 1678 0028 D5F8003E 		ldr	r3, [r5, #3584]
 1679              		.loc 1 557 0
 1680 002c 8B48     		ldr	r0, .L220
 1681              		.loc 1 549 0
 1682 002e 9B07     		lsls	r3, r3, #30
 1683              		.loc 1 551 0
 1684 0030 1EBF     		ittt	ne
 1685 0032 D5F8003E 		ldrne	r3, [r5, #3584]
 1686 0036 23F00303 		bicne	r3, r3, #3
 1687 003a C5F8003E 		strne	r3, [r5, #3584]
 1688              		.loc 1 555 0
 1689 003e D5F80438 		ldr	r3, [r5, #2052]
 1690 0042 23F00103 		bic	r3, r3, #1
 1691 0046 C5F80438 		str	r3, [r5, #2052]
 1692              		.loc 1 557 0
 1693 004a FFF7FEFF 		bl	_usb_wakeup
 1694              	.LVL146:
 1695              	.L129:
 1696              		.loc 1 561 0
 1697 004e 3705     		lsls	r7, r6, #20
 1698 0050 02D5     		bpl	.L131
 1699              		.loc 1 563 0
 1700 0052 8248     		ldr	r0, .L220
 1701 0054 FFF7FEFF 		bl	_usb_suspend
 1702              	.LVL147:
 1703              	.L131:
 1704              		.loc 1 567 0
 1705 0058 B004     		lsls	r0, r6, #18
 1706 005a 0CD5     		bpl	.L132
 1707              		.loc 1 569 0
 1708 005c D5F80838 		ldr	r3, [r5, #2056]
 1709 0060 13F0060F 		tst	r3, #6
 1710              		.loc 1 570 0
ARM GAS  /tmp/ccs9YUms.s 			page 31


 1711 0064 EB68     		ldr	r3, [r5, #12]
 1712 0066 23F47053 		bic	r3, r3, #15360
 1713 006a 0CBF     		ite	eq
 1714 006c 43F41053 		orreq	r3, r3, #9216
 1715              		.loc 1 574 0
 1716 0070 43F4A053 		orrne	r3, r3, #5120
 1717 0074 EB60     		str	r3, [r5, #12]
 1718              	.L132:
 1719              		.loc 1 580 0
 1720 0076 3107     		lsls	r1, r6, #28
 1721 0078 04D5     		bpl	.L134
 1722              		.loc 1 581 0
 1723 007a 6368     		ldr	r3, [r4, #4]
 1724 007c DB68     		ldr	r3, [r3, #12]
 1725 007e 0BB1     		cbz	r3, .L134
 1726 0080 7648     		ldr	r0, .L220
 1727 0082 9847     		blx	r3
 1728              	.LVL148:
 1729              	.L134:
 1730              		.loc 1 585 0
 1731 0084 F202     		lsls	r2, r6, #11
 1732 0086 5AD4     		bmi	.L135
 1733              	.L143:
 1734              		.loc 1 590 0
 1735 0088 B302     		lsls	r3, r6, #10
 1736 008a 0CD5     		bpl	.L137
 1737              	.LVL149:
 1738              	.LBB208:
 1739              	.LBB209:
 1740              		.loc 1 504 0
 1741 008c D4F85480 		ldr	r8, [r4, #84]
 1742              	.LVL150:
 1743              		.loc 1 516 0
 1744 0090 DFF8C8A1 		ldr	r10, .L220
 1745              		.loc 1 504 0
 1746 0094 0027     		movs	r7, #0
 1747              		.loc 1 516 0
 1748 0096 4FF00109 		mov	r9, #1
 1749              	.LVL151:
 1750              	.L146:
 1751              		.loc 1 506 0
 1752 009a A36D     		ldr	r3, [r4, #88]
 1753 009c 9B68     		ldr	r3, [r3, #8]
 1754 009e F9B2     		uxtb	r1, r7
 1755              	.LVL152:
 1756 00a0 8B42     		cmp	r3, r1
 1757 00a2 80F08780 		bcs	.L150
 1758              	.LVL153:
 1759              	.L137:
 1760              	.LBE209:
 1761              	.LBE208:
 1762              		.loc 1 596 0
 1763 00a6 F706     		lsls	r7, r6, #27
 1764 00a8 19D5     		bpl	.L151
 1765              	.LVL154:
 1766              	.LBB211:
 1767              	.LBB212:
ARM GAS  /tmp/ccs9YUms.s 			page 32


 1768              		.loc 1 285 0
 1769 00aa 616D     		ldr	r1, [r4, #84]
 1770 00ac 0A6A     		ldr	r2, [r1, #32]
 1771              	.LVL155:
 1772              		.loc 1 288 0
 1773 00ae C2F30A17 		ubfx	r7, r2, #4, #11
 1774              	.LVL156:
 1775              		.loc 1 289 0
 1776 00b2 02F00F03 		and	r3, r2, #15
 1777              	.LVL157:
 1778              		.loc 1 291 0
 1779 00b6 02F4F012 		and	r2, r2, #1966080
 1780              	.LVL158:
 1781 00ba B2F5802F 		cmp	r2, #262144
 1782 00be 00F0A180 		beq	.L152
 1783 00c2 B2F5402F 		cmp	r2, #786432
 1784 00c6 0AD1     		bne	.L151
 1785              		.loc 1 293 0
 1786 00c8 04EB8303 		add	r3, r4, r3, lsl #2
 1787              	.LVL159:
 1788              	.LBB213:
 1789              	.LBB214:
 1790              		.loc 1 264 0
 1791 00cc 01F58051 		add	r1, r1, #4096
 1792              	.LBE214:
 1793              	.LBE213:
 1794              		.loc 1 293 0
 1795 00d0 DB68     		ldr	r3, [r3, #12]
 1796 00d2 186A     		ldr	r0, [r3, #32]
 1797              	.LVL160:
 1798              	.LBB217:
 1799              	.LBB215:
 1800              		.loc 1 260 0
 1801 00d4 0023     		movs	r3, #0
 1802              		.loc 1 259 0
 1803 00d6 1A46     		mov	r2, r3
 1804              	.LVL161:
 1805              	.L154:
 1806              		.loc 1 262 0
 1807 00d8 9F42     		cmp	r7, r3
 1808 00da 40F08780 		bne	.L157
 1809              	.LVL162:
 1810              	.L151:
 1811              	.LBE215:
 1812              	.LBE217:
 1813              	.LBE212:
 1814              	.LBE211:
 1815              		.loc 1 602 0
 1816 00de 3003     		lsls	r0, r6, #12
 1817              		.loc 1 601 0
 1818 00e0 D5F81848 		ldr	r4, [r5, #2072]
 1819              	.LVL163:
 1820              		.loc 1 602 0
 1821 00e4 13D5     		bpl	.L163
 1822              		.loc 1 603 0
 1823 00e6 E103     		lsls	r1, r4, #15
 1824 00e8 02D5     		bpl	.L164
ARM GAS  /tmp/ccs9YUms.s 			page 33


 1825              		.loc 1 604 0
 1826 00ea 0020     		movs	r0, #0
 1827 00ec FFF7FEFF 		bl	otg_epout_handler.constprop.7
 1828              	.LVL164:
 1829              	.L164:
 1830              		.loc 1 605 0
 1831 00f0 A203     		lsls	r2, r4, #14
 1832 00f2 02D5     		bpl	.L165
 1833              		.loc 1 606 0
 1834 00f4 0120     		movs	r0, #1
 1835 00f6 FFF7FEFF 		bl	otg_epout_handler.constprop.7
 1836              	.LVL165:
 1837              	.L165:
 1838              		.loc 1 607 0
 1839 00fa 6303     		lsls	r3, r4, #13
 1840 00fc 02D5     		bpl	.L166
 1841              		.loc 1 608 0
 1842 00fe 0220     		movs	r0, #2
 1843 0100 FFF7FEFF 		bl	otg_epout_handler.constprop.7
 1844              	.LVL166:
 1845              	.L166:
 1846              		.loc 1 609 0
 1847 0104 2703     		lsls	r7, r4, #12
 1848 0106 02D5     		bpl	.L163
 1849              		.loc 1 610 0
 1850 0108 0320     		movs	r0, #3
 1851 010a FFF7FEFF 		bl	otg_epout_handler.constprop.7
 1852              	.LVL167:
 1853              	.L163:
 1854              		.loc 1 632 0
 1855 010e 7503     		lsls	r5, r6, #13
 1856              	.LVL168:
 1857 0110 84D5     		bpl	.L128
 1858              		.loc 1 633 0
 1859 0112 E007     		lsls	r0, r4, #31
 1860 0114 02D5     		bpl	.L169
 1861              		.loc 1 634 0
 1862 0116 0020     		movs	r0, #0
 1863 0118 FFF7FEFF 		bl	otg_epin_handler.constprop.8
 1864              	.LVL169:
 1865              	.L169:
 1866              		.loc 1 635 0
 1867 011c A107     		lsls	r1, r4, #30
 1868 011e 02D5     		bpl	.L170
 1869              		.loc 1 636 0
 1870 0120 0120     		movs	r0, #1
 1871 0122 FFF7FEFF 		bl	otg_epin_handler.constprop.8
 1872              	.LVL170:
 1873              	.L170:
 1874              		.loc 1 637 0
 1875 0126 6207     		lsls	r2, r4, #29
 1876 0128 02D5     		bpl	.L171
 1877              		.loc 1 638 0
 1878 012a 0220     		movs	r0, #2
 1879 012c FFF7FEFF 		bl	otg_epin_handler.constprop.8
 1880              	.LVL171:
 1881              	.L171:
ARM GAS  /tmp/ccs9YUms.s 			page 34


 1882              		.loc 1 639 0
 1883 0130 2307     		lsls	r3, r4, #28
 1884 0132 7FF573AF 		bpl	.L128
 1885              		.loc 1 640 0
 1886 0136 0320     		movs	r0, #3
 1887 0138 FFF7FEFF 		bl	otg_epin_handler.constprop.8
 1888              	.LVL172:
 1889 013c 6EE7     		b	.L128
 1890              	.LVL173:
 1891              	.L135:
 1892              	.LBB226:
 1893              	.LBB227:
 1894              		.loc 1 472 0
 1895 013e D4F85480 		ldr	r8, [r4, #84]
 1896              	.LVL174:
 1897              		.loc 1 487 0
 1898 0142 DFF818A1 		ldr	r10, .L220
 1899              		.loc 1 472 0
 1900 0146 0027     		movs	r7, #0
 1901              		.loc 1 487 0
 1902 0148 4FF00109 		mov	r9, #1
 1903              	.LVL175:
 1904              	.L138:
 1905              		.loc 1 474 0
 1906 014c A36D     		ldr	r3, [r4, #88]
 1907 014e 9B68     		ldr	r3, [r3, #8]
 1908 0150 5FFA87FB 		uxtb	fp, r7
 1909              	.LVL176:
 1910 0154 5B45     		cmp	r3, fp
 1911 0156 97D3     		bcc	.L143
 1912 0158 08EB4B13 		add	r3, r8, fp, lsl #5
 1913              		.loc 1 475 0
 1914 015c D3F80029 		ldr	r2, [r3, #2304]
 1915 0160 02F44022 		and	r2, r2, #786432
 1916 0164 B2F5802F 		cmp	r2, #262144
 1917 0168 22D1     		bne	.L139
 1918              		.loc 1 476 0
 1919 016a D3F80029 		ldr	r2, [r3, #2304]
 1920              		.loc 1 475 0
 1921 016e 002A     		cmp	r2, #0
 1922 0170 1EDA     		bge	.L139
 1923              		.loc 1 479 0
 1924 0172 D3F80029 		ldr	r2, [r3, #2304]
 1925 0176 42F09042 		orr	r2, r2, #1207959552
 1926 017a C3F80029 		str	r2, [r3, #2304]
 1927              	.L140:
 1928              		.loc 1 480 0
 1929 017e D3F80029 		ldr	r2, [r3, #2304]
 1930 0182 002A     		cmp	r2, #0
 1931 0184 FBDB     		blt	.L140
 1932              		.loc 1 484 0
 1933 0186 5946     		mov	r1, fp
 1934 0188 606D     		ldr	r0, [r4, #84]
 1935 018a FFF7FEFF 		bl	otg_txfifo_flush.isra.1
 1936              	.LVL177:
 1937              		.loc 1 487 0
 1938 018e 2289     		ldrh	r2, [r4, #8]
ARM GAS  /tmp/ccs9YUms.s 			page 35


 1939 0190 09FA0BF3 		lsl	r3, r9, fp
 1940 0194 22EA0303 		bic	r3, r2, r3
 1941 0198 2381     		strh	r3, [r4, #8]	@ movhi
 1942 019a 04EB8B03 		add	r3, r4, fp, lsl #2
 1943 019e DB68     		ldr	r3, [r3, #12]
 1944 01a0 9B68     		ldr	r3, [r3, #8]
 1945 01a2 13B1     		cbz	r3, .L141
 1946 01a4 5946     		mov	r1, fp
 1947 01a6 5046     		mov	r0, r10
 1948 01a8 9847     		blx	r3
 1949              	.LVL178:
 1950              	.L141:
 1951              		.loc 1 490 0
 1952 01aa 5846     		mov	r0, fp
 1953 01ac FFF7FEFF 		bl	otg_txfifo_handler.constprop.9
 1954              	.LVL179:
 1955              	.L139:
 1956 01b0 0137     		adds	r7, r7, #1
 1957              	.LVL180:
 1958 01b2 CBE7     		b	.L138
 1959              	.LVL181:
 1960              	.L150:
 1961 01b4 08EB4112 		add	r2, r8, r1, lsl #5
 1962              	.LBE227:
 1963              	.LBE226:
 1964              	.LBB228:
 1965              	.LBB210:
 1966              		.loc 1 507 0
 1967 01b8 D2F8003B 		ldr	r3, [r2, #2816]
 1968 01bc 03F44023 		and	r3, r3, #786432
 1969 01c0 B3F5802F 		cmp	r3, #262144
 1970 01c4 10D1     		bne	.L148
 1971              		.loc 1 508 0
 1972 01c6 D2F8003B 		ldr	r3, [r2, #2816]
 1973              		.loc 1 507 0
 1974 01ca 002B     		cmp	r3, #0
 1975 01cc 0CDA     		bge	.L148
 1976              		.loc 1 516 0
 1977 01ce 6289     		ldrh	r2, [r4, #10]
 1978 01d0 09FA01F3 		lsl	r3, r9, r1
 1979 01d4 22EA0303 		bic	r3, r2, r3
 1980 01d8 6381     		strh	r3, [r4, #10]	@ movhi
 1981 01da 04EB8103 		add	r3, r4, r1, lsl #2
 1982 01de DB68     		ldr	r3, [r3, #12]
 1983 01e0 DB68     		ldr	r3, [r3, #12]
 1984 01e2 0BB1     		cbz	r3, .L148
 1985 01e4 5046     		mov	r0, r10
 1986 01e6 9847     		blx	r3
 1987              	.LVL182:
 1988              	.L148:
 1989 01e8 0137     		adds	r7, r7, #1
 1990              	.LVL183:
 1991 01ea 56E7     		b	.L146
 1992              	.LVL184:
 1993              	.L157:
 1994              	.LBE210:
 1995              	.LBE228:
ARM GAS  /tmp/ccs9YUms.s 			page 36


 1996              	.LBB229:
 1997              	.LBB225:
 1998              	.LBB218:
 1999              	.LBB216:
 2000              		.loc 1 263 0
 2001 01ec 9C07     		lsls	r4, r3, #30
 2002              		.loc 1 264 0
 2003 01ee 08BF     		it	eq
 2004 01f0 0A68     		ldreq	r2, [r1]
 2005              	.LVL185:
 2006              		.loc 1 266 0
 2007 01f2 072B     		cmp	r3, #7
 2008              		.loc 1 267 0
 2009 01f4 98BF     		it	ls
 2010 01f6 0270     		strbls	r2, [r0]
 2011              		.loc 1 270 0
 2012 01f8 03F10103 		add	r3, r3, #1
 2013              	.LVL186:
 2014              		.loc 1 268 0
 2015 01fc 9CBF     		itt	ls
 2016 01fe 120A     		lsrls	r2, r2, #8
 2017              	.LVL187:
 2018              		.loc 1 267 0
 2019 0200 0130     		addls	r0, r0, #1
 2020              	.LVL188:
 2021 0202 69E7     		b	.L154
 2022              	.LVL189:
 2023              	.L152:
 2024              	.LBE216:
 2025              	.LBE218:
 2026              		.loc 1 300 0
 2027 0204 0233     		adds	r3, r3, #2
 2028              	.LVL190:
 2029 0206 04EB8302 		add	r2, r4, r3, lsl #2
 2030              	.LBB219:
 2031              	.LBB220:
 2032              		.loc 1 264 0
 2033 020a 01F58051 		add	r1, r1, #4096
 2034              	.LBE220:
 2035              	.LBE219:
 2036              		.loc 1 300 0
 2037 020e 5268     		ldr	r2, [r2, #4]
 2038 0210 9069     		ldr	r0, [r2, #24]
 2039              		.loc 1 299 0
 2040 0212 0268     		ldr	r2, [r0]
 2041 0214 D0F808C0 		ldr	ip, [r0, #8]
 2042 0218 4068     		ldr	r0, [r0, #4]
 2043 021a A2EB000E 		sub	lr, r2, r0
 2044              	.LVL191:
 2045              	.LBB223:
 2046              	.LBB221:
 2047              		.loc 1 260 0
 2048 021e 0022     		movs	r2, #0
 2049              		.loc 1 259 0
 2050 0220 1046     		mov	r0, r2
 2051              	.LVL192:
 2052              	.L158:
ARM GAS  /tmp/ccs9YUms.s 			page 37


 2053              		.loc 1 262 0
 2054 0222 9742     		cmp	r7, r2
 2055 0224 0AD1     		bne	.L161
 2056              	.LVL193:
 2057              	.LBE221:
 2058              	.LBE223:
 2059              		.loc 1 304 0
 2060 0226 04EB8304 		add	r4, r4, r3, lsl #2
 2061 022a 6368     		ldr	r3, [r4, #4]
 2062              	.LVL194:
 2063 022c 9B69     		ldr	r3, [r3, #24]
 2064 022e 9A68     		ldr	r2, [r3, #8]
 2065 0230 3A44     		add	r2, r2, r7
 2066 0232 9A60     		str	r2, [r3, #8]
 2067              		.loc 1 305 0
 2068 0234 5A68     		ldr	r2, [r3, #4]
 2069 0236 1744     		add	r7, r7, r2
 2070              	.LVL195:
 2071 0238 5F60     		str	r7, [r3, #4]
 2072 023a 50E7     		b	.L151
 2073              	.LVL196:
 2074              	.L161:
 2075              	.LBB224:
 2076              	.LBB222:
 2077              		.loc 1 263 0
 2078 023c 12F0030F 		tst	r2, #3
 2079              		.loc 1 264 0
 2080 0240 08BF     		it	eq
 2081 0242 0868     		ldreq	r0, [r1]
 2082              	.LVL197:
 2083              		.loc 1 266 0
 2084 0244 9645     		cmp	lr, r2
 2085              		.loc 1 267 0
 2086 0246 88BF     		it	hi
 2087 0248 8CF80000 		strbhi	r0, [ip]
 2088              		.loc 1 270 0
 2089 024c 02F10102 		add	r2, r2, #1
 2090              	.LVL198:
 2091              		.loc 1 268 0
 2092 0250 84BF     		itt	hi
 2093 0252 000A     		lsrhi	r0, r0, #8
 2094              	.LVL199:
 2095              		.loc 1 267 0
 2096 0254 0CF1010C 		addhi	ip, ip, #1
 2097              	.LVL200:
 2098 0258 E3E7     		b	.L158
 2099              	.L221:
 2100 025a 00BF     		.align	2
 2101              	.L220:
 2102 025c 00000000 		.word	.LANCHOR0
 2103              	.LBE222:
 2104              	.LBE224:
 2105              	.LBE225:
 2106              	.LBE229:
 2107              	.LBE231:
 2108              	.LBE233:
 2109              		.cfi_endproc
ARM GAS  /tmp/ccs9YUms.s 			page 38


 2110              	.LFE338:
 2111              		.size	Vector14C, .-Vector14C
 2112              		.section	.text.usb_lld_stall_out,"ax",%progbits
 2113              		.align	1
 2114              		.global	usb_lld_stall_out
 2115              		.syntax unified
 2116              		.thumb
 2117              		.thumb_func
 2118              		.fpu fpv4-sp-d16
 2119              		.type	usb_lld_stall_out, %function
 2120              	usb_lld_stall_out:
 2121              	.LFB351:
 2122              		.loc 1 1212 0
 2123              		.cfi_startproc
 2124              		@ args = 0, pretend = 0, frame = 0
 2125              		@ frame_needed = 0, uses_anonymous_args = 0
 2126              		@ link register save eliminated.
 2127              	.LVL201:
 2128 0000 436D     		ldr	r3, [r0, #84]
 2129 0002 03EB4111 		add	r1, r3, r1, lsl #5
 2130              	.LVL202:
 2131              		.loc 1 1214 0
 2132 0006 D1F8003B 		ldr	r3, [r1, #2816]
 2133 000a 43F40013 		orr	r3, r3, #2097152
 2134 000e C1F8003B 		str	r3, [r1, #2816]
 2135 0012 7047     		bx	lr
 2136              		.cfi_endproc
 2137              	.LFE351:
 2138              		.size	usb_lld_stall_out, .-usb_lld_stall_out
 2139              		.section	.text.usb_lld_stall_in,"ax",%progbits
 2140              		.align	1
 2141              		.global	usb_lld_stall_in
 2142              		.syntax unified
 2143              		.thumb
 2144              		.thumb_func
 2145              		.fpu fpv4-sp-d16
 2146              		.type	usb_lld_stall_in, %function
 2147              	usb_lld_stall_in:
 2148              	.LFB352:
 2149              		.loc 1 1225 0
 2150              		.cfi_startproc
 2151              		@ args = 0, pretend = 0, frame = 0
 2152              		@ frame_needed = 0, uses_anonymous_args = 0
 2153              		@ link register save eliminated.
 2154              	.LVL203:
 2155 0000 436D     		ldr	r3, [r0, #84]
 2156 0002 03EB4111 		add	r1, r3, r1, lsl #5
 2157              	.LVL204:
 2158              		.loc 1 1227 0
 2159 0006 D1F80039 		ldr	r3, [r1, #2304]
 2160 000a 43F40013 		orr	r3, r3, #2097152
 2161 000e C1F80039 		str	r3, [r1, #2304]
 2162 0012 7047     		bx	lr
 2163              		.cfi_endproc
 2164              	.LFE352:
 2165              		.size	usb_lld_stall_in, .-usb_lld_stall_in
 2166              		.section	.text.usb_lld_clear_out,"ax",%progbits
ARM GAS  /tmp/ccs9YUms.s 			page 39


 2167              		.align	1
 2168              		.global	usb_lld_clear_out
 2169              		.syntax unified
 2170              		.thumb
 2171              		.thumb_func
 2172              		.fpu fpv4-sp-d16
 2173              		.type	usb_lld_clear_out, %function
 2174              	usb_lld_clear_out:
 2175              	.LFB353:
 2176              		.loc 1 1238 0
 2177              		.cfi_startproc
 2178              		@ args = 0, pretend = 0, frame = 0
 2179              		@ frame_needed = 0, uses_anonymous_args = 0
 2180              		@ link register save eliminated.
 2181              	.LVL205:
 2182 0000 436D     		ldr	r3, [r0, #84]
 2183 0002 03EB4111 		add	r1, r3, r1, lsl #5
 2184              	.LVL206:
 2185              		.loc 1 1240 0
 2186 0006 D1F8003B 		ldr	r3, [r1, #2816]
 2187 000a 23F40013 		bic	r3, r3, #2097152
 2188 000e C1F8003B 		str	r3, [r1, #2816]
 2189 0012 7047     		bx	lr
 2190              		.cfi_endproc
 2191              	.LFE353:
 2192              		.size	usb_lld_clear_out, .-usb_lld_clear_out
 2193              		.section	.text.usb_lld_clear_in,"ax",%progbits
 2194              		.align	1
 2195              		.global	usb_lld_clear_in
 2196              		.syntax unified
 2197              		.thumb
 2198              		.thumb_func
 2199              		.fpu fpv4-sp-d16
 2200              		.type	usb_lld_clear_in, %function
 2201              	usb_lld_clear_in:
 2202              	.LFB354:
 2203              		.loc 1 1251 0
 2204              		.cfi_startproc
 2205              		@ args = 0, pretend = 0, frame = 0
 2206              		@ frame_needed = 0, uses_anonymous_args = 0
 2207              		@ link register save eliminated.
 2208              	.LVL207:
 2209 0000 436D     		ldr	r3, [r0, #84]
 2210 0002 03EB4111 		add	r1, r3, r1, lsl #5
 2211              	.LVL208:
 2212              		.loc 1 1253 0
 2213 0006 D1F80039 		ldr	r3, [r1, #2304]
 2214 000a 23F40013 		bic	r3, r3, #2097152
 2215 000e C1F80039 		str	r3, [r1, #2304]
 2216 0012 7047     		bx	lr
 2217              		.cfi_endproc
 2218              	.LFE354:
 2219              		.size	usb_lld_clear_in, .-usb_lld_clear_in
 2220              		.global	USBD1
 2221              		.section	.bss.USBD1,"aw",%nobits
 2222              		.align	2
 2223              		.set	.LANCHOR0,. + 0
ARM GAS  /tmp/ccs9YUms.s 			page 40


 2224              		.type	USBD1, %object
 2225              		.size	USBD1, 96
 2226              	USBD1:
 2227 0000 00000000 		.space	96
 2227      00000000 
 2227      00000000 
 2227      00000000 
 2227      00000000 
 2228              		.section	.bss.ep0_state,"aw",%nobits
 2229              		.align	2
 2230              		.type	ep0_state, %object
 2231              		.size	ep0_state, 16
 2232              	ep0_state:
 2233 0000 00000000 		.space	16
 2233      00000000 
 2233      00000000 
 2233      00000000 
 2234              		.section	.bss.ep0setup_buffer,"aw",%nobits
 2235              		.type	ep0setup_buffer, %object
 2236              		.size	ep0setup_buffer, 8
 2237              	ep0setup_buffer:
 2238 0000 00000000 		.space	8
 2238      00000000 
 2239              		.section	.rodata.ep0config,"a",%progbits
 2240              		.align	2
 2241              		.set	.LANCHOR2,. + 0
 2242              		.type	ep0config, %object
 2243              		.size	ep0config, 36
 2244              	ep0config:
 2245 0000 00000000 		.word	0
 2246 0004 00000000 		.word	_usb_ep0setup
 2247 0008 00000000 		.word	_usb_ep0in
 2248 000c 00000000 		.word	_usb_ep0out
 2249 0010 4000     		.short	64
 2250 0012 4000     		.short	64
 2251 0014 00000000 		.word	ep0_state
 2252 0018 00000000 		.word	ep0_state
 2253 001c 0100     		.short	1
 2254 001e 0000     		.space	2
 2255 0020 00000000 		.word	ep0setup_buffer
 2256              		.section	.rodata.fsparams,"a",%progbits
 2257              		.align	2
 2258              		.set	.LANCHOR1,. + 0
 2259              		.type	fsparams, %object
 2260              		.size	fsparams, 12
 2261              	fsparams:
 2262 0000 80000000 		.word	128
 2263 0004 40010000 		.word	320
 2264 0008 03000000 		.word	3
 2265              		.text
 2266              	.Letext0:
 2267              		.file 4 "/opt/gcc-arm-none-eabi-6-2017-q2-update/lib/gcc/arm-none-eabi/6.3.1/include/stddef.h"
 2268              		.file 5 "/opt/gcc-arm-none-eabi-6-2017-q2-update/arm-none-eabi/include/machine/_default_types.h"
 2269              		.file 6 "/opt/gcc-arm-none-eabi-6-2017-q2-update/arm-none-eabi/include/sys/lock.h"
 2270              		.file 7 "/opt/gcc-arm-none-eabi-6-2017-q2-update/arm-none-eabi/include/sys/_types.h"
 2271              		.file 8 "/opt/gcc-arm-none-eabi-6-2017-q2-update/arm-none-eabi/include/sys/reent.h"
 2272              		.file 9 "/opt/gcc-arm-none-eabi-6-2017-q2-update/arm-none-eabi/include/sys/_stdint.h"
ARM GAS  /tmp/ccs9YUms.s 			page 41


 2273              		.file 10 "../../modules/ChibiOS/os/common/ports/ARMCMx/compilers/GCC/chtypes.h"
 2274              		.file 11 "../../modules/ChibiOS/os/rt/include/chsystypes.h"
 2275              		.file 12 "../../modules/ChibiOS/os/rt/include/chschd.h"
 2276              		.file 13 "../../modules/ChibiOS/os/rt/include/chtime.h"
 2277              		.file 14 "../../modules/ChibiOS/os/common/ext/ARM/CMSIS/Core/Include/core_cm4.h"
 2278              		.file 15 "../../modules/ChibiOS/os/common/ext/ST/STM32F4xx/system_stm32f4xx.h"
 2279              		.file 16 "../../modules/ChibiOS/os/common/ext/ST/STM32F4xx/stm32f427xx.h"
 2280              		.file 17 "../../modules/ChibiOS/os/common/ports/ARMCMx/chcore.h"
 2281              		.file 18 "../../modules/ChibiOS/os/common/ports/ARMCMx/chcore_v7m.h"
 2282              		.file 19 "../../modules/ChibiOS/os/rt/include/chtm.h"
 2283              		.file 20 "../../modules/ChibiOS/os/rt/include/chsem.h"
 2284              		.file 21 "../../modules/ChibiOS/os/rt/include/chmtx.h"
 2285              		.file 22 "../../modules/ChibiOS/os/rt/include/chsys.h"
 2286              		.file 23 "../../modules/ChibiOS/os/rt/include/chregistry.h"
 2287              		.file 24 "../../modules/ChibiOS/os/rt/include/chevents.h"
 2288              		.file 25 "../../modules/ChibiOS/os/oslib/include/chmemcore.h"
 2289              		.file 26 "../../modules/ChibiOS/os/oslib/include/chmempools.h"
 2290              		.file 27 "../../modules/ChibiOS/os/oslib/include/chfactory.h"
 2291              		.file 28 "../../modules/ChibiOS/os/hal/ports/STM32/LLD/DMAv2/stm32_dma.h"
 2292              		.file 29 "../../modules/ChibiOS/os/hal/include/hal_queues.h"
 2293              		.file 30 "../../modules/ChibiOS/os/hal/include/hal_pal.h"
 2294              		.file 31 "../../modules/ChibiOS/os/hal/ports/STM32/LLD/GPIOv2/hal_pal_lld.h"
 2295              		.file 32 "../../modules/ChibiOS/os/hal/include/hal_adc.h"
 2296              		.file 33 "../../modules/ChibiOS/os/hal/ports/STM32/LLD/ADCv2/hal_adc_lld.h"
 2297              		.file 34 "../../modules/ChibiOS/os/hal/include/hal_serial.h"
 2298              		.file 35 "../../modules/ChibiOS/os/hal/ports/STM32/LLD/USARTv1/hal_serial_lld.h"
 2299              		.file 36 "../../modules/ChibiOS/os/hal/include/hal_usb.h"
 2300              		.file 37 "../../modules/ChibiOS/os/hal/ports/STM32/LLD/OTGv1/hal_usb_lld.h"
 2301              		.file 38 "../../modules/ChibiOS/os/hal/ports/STM32/LLD/OTGv1/stm32_otg.h"
 2302              		.file 39 "../../modules/ChibiOS/os/hal/ports/common/ARMCMx/nvic.h"