ARM GAS  /tmp/ccx4e13q.s 			page 1


   1              		.cpu cortex-m4
   2              		.eabi_attribute 27, 1
   3              		.eabi_attribute 28, 1
   4              		.eabi_attribute 20, 1
   5              		.eabi_attribute 21, 1
   6              		.eabi_attribute 23, 3
   7              		.eabi_attribute 24, 1
   8              		.eabi_attribute 25, 1
   9              		.eabi_attribute 26, 1
  10              		.eabi_attribute 30, 4
  11              		.eabi_attribute 34, 1
  12              		.eabi_attribute 18, 4
  13              		.file	"hal_serial_usb.c"
  14              		.text
  15              	.Ltext0:
  16              		.cfi_sections	.debug_frame
  17              		.section	.text.obnotify,"ax",%progbits
  18              		.align	1
  19              		.syntax unified
  20              		.thumb
  21              		.thumb_func
  22              		.fpu fpv4-sp-d16
  23              		.type	obnotify, %function
  24              	obnotify:
  25              	.LFB334:
  26              		.file 1 "../../modules/ChibiOS/os/hal/src/hal_serial_usb.c"
  27              		.loc 1 178 0
  28              		.cfi_startproc
  29              		@ args = 0, pretend = 0, frame = 8
  30              		@ frame_needed = 0, uses_anonymous_args = 0
  31              	.LVL0:
  32 0000 13B5     		push	{r0, r1, r4, lr}
  33              		.cfi_def_cfa_offset 16
  34              		.cfi_offset 4, -8
  35              		.cfi_offset 14, -4
  36              		.loc 1 180 0
  37 0002 446B     		ldr	r4, [r0, #52]
  38              	.LVL1:
  39              		.loc 1 184 0
  40 0004 D4F88C34 		ldr	r3, [r4, #1164]
  41 0008 1A68     		ldr	r2, [r3]
  42 000a 1178     		ldrb	r1, [r2]	@ zero_extendqisi2
  43 000c 0429     		cmp	r1, #4
  44 000e 15D1     		bne	.L1
  45              		.loc 1 184 0 is_stmt 0 discriminator 1
  46 0010 217A     		ldrb	r1, [r4, #8]	@ zero_extendqisi2
  47 0012 0229     		cmp	r1, #2
  48 0014 12D1     		bne	.L1
  49              		.loc 1 190 0 is_stmt 1
  50 0016 1979     		ldrb	r1, [r3, #4]	@ zero_extendqisi2
  51 0018 1289     		ldrh	r2, [r2, #8]
  52 001a 0123     		movs	r3, #1
  53 001c 8B40     		lsls	r3, r3, r1
  54 001e 1342     		tst	r3, r2
  55 0020 0CD1     		bne	.L1
  56              	.LBB134:
  57              		.loc 1 193 0
ARM GAS  /tmp/ccx4e13q.s 			page 2


  58 0022 01A9     		add	r1, sp, #4
  59 0024 04F14400 		add	r0, r4, #68
  60              	.LVL2:
  61 0028 FFF7FEFF 		bl	obqGetFullBufferI
  62              	.LVL3:
  63              		.loc 1 195 0
  64 002c D4F88C44 		ldr	r4, [r4, #1164]
  65              	.LVL4:
  66 0030 019B     		ldr	r3, [sp, #4]
  67 0032 2179     		ldrb	r1, [r4, #4]	@ zero_extendqisi2
  68 0034 0246     		mov	r2, r0
  69 0036 2068     		ldr	r0, [r4]
  70              	.LVL5:
  71 0038 FFF7FEFF 		bl	usbStartTransmitI
  72              	.LVL6:
  73              	.L1:
  74              	.LBE134:
  75              		.loc 1 197 0
  76 003c 02B0     		add	sp, sp, #8
  77              		.cfi_def_cfa_offset 8
  78              		@ sp needed
  79 003e 10BD     		pop	{r4, pc}
  80              		.cfi_endproc
  81              	.LFE334:
  82              		.size	obnotify, .-obnotify
  83              		.section	.text._readt,"ax",%progbits
  84              		.align	1
  85              		.syntax unified
  86              		.thumb
  87              		.thumb_func
  88              		.fpu fpv4-sp-d16
  89              		.type	_readt, %function
  90              	_readt:
  91              	.LFB331:
  92              		.loc 1 124 0
  93              		.cfi_startproc
  94              		@ args = 0, pretend = 0, frame = 0
  95              		@ frame_needed = 0, uses_anonymous_args = 0
  96              		@ link register save eliminated.
  97              	.LVL7:
  98              		.loc 1 126 0
  99 0000 0C30     		adds	r0, r0, #12
 100              	.LVL8:
 101 0002 FFF7FEBF 		b	ibqReadTimeout
 102              	.LVL9:
 103              		.cfi_endproc
 104              	.LFE331:
 105              		.size	_readt, .-_readt
 106              		.section	.text._read,"ax",%progbits
 107              		.align	1
 108              		.syntax unified
 109              		.thumb
 110              		.thumb_func
 111              		.fpu fpv4-sp-d16
 112              		.type	_read, %function
 113              	_read:
 114              	.LFB325:
ARM GAS  /tmp/ccx4e13q.s 			page 3


 115              		.loc 1 91 0
 116              		.cfi_startproc
 117              		@ args = 0, pretend = 0, frame = 0
 118              		@ frame_needed = 0, uses_anonymous_args = 0
 119              		@ link register save eliminated.
 120              	.LVL10:
 121              		.loc 1 93 0
 122 0000 4FF0FF33 		mov	r3, #-1
 123 0004 0C30     		adds	r0, r0, #12
 124              	.LVL11:
 125 0006 FFF7FEBF 		b	ibqReadTimeout
 126              	.LVL12:
 127              		.cfi_endproc
 128              	.LFE325:
 129              		.size	_read, .-_read
 130              		.section	.text._writet,"ax",%progbits
 131              		.align	1
 132              		.syntax unified
 133              		.thumb
 134              		.thumb_func
 135              		.fpu fpv4-sp-d16
 136              		.type	_writet, %function
 137              	_writet:
 138              	.LFB330:
 139              		.loc 1 118 0
 140              		.cfi_startproc
 141              		@ args = 0, pretend = 0, frame = 0
 142              		@ frame_needed = 0, uses_anonymous_args = 0
 143              		@ link register save eliminated.
 144              	.LVL13:
 145              		.loc 1 120 0
 146 0000 4430     		adds	r0, r0, #68
 147              	.LVL14:
 148 0002 FFF7FEBF 		b	obqWriteTimeout
 149              	.LVL15:
 150              		.cfi_endproc
 151              	.LFE330:
 152              		.size	_writet, .-_writet
 153              		.section	.text._write,"ax",%progbits
 154              		.align	1
 155              		.syntax unified
 156              		.thumb
 157              		.thumb_func
 158              		.fpu fpv4-sp-d16
 159              		.type	_write, %function
 160              	_write:
 161              	.LFB324:
 162              		.loc 1 85 0
 163              		.cfi_startproc
 164              		@ args = 0, pretend = 0, frame = 0
 165              		@ frame_needed = 0, uses_anonymous_args = 0
 166              		@ link register save eliminated.
 167              	.LVL16:
 168              		.loc 1 87 0
 169 0000 4FF0FF33 		mov	r3, #-1
 170 0004 4430     		adds	r0, r0, #68
 171              	.LVL17:
ARM GAS  /tmp/ccx4e13q.s 			page 4


 172 0006 FFF7FEBF 		b	obqWriteTimeout
 173              	.LVL18:
 174              		.cfi_endproc
 175              	.LFE324:
 176              		.size	_write, .-_write
 177              		.section	.text._gett,"ax",%progbits
 178              		.align	1
 179              		.syntax unified
 180              		.thumb
 181              		.thumb_func
 182              		.fpu fpv4-sp-d16
 183              		.type	_gett, %function
 184              	_gett:
 185              	.LFB329:
 186              		.loc 1 112 0
 187              		.cfi_startproc
 188              		@ args = 0, pretend = 0, frame = 0
 189              		@ frame_needed = 0, uses_anonymous_args = 0
 190              		@ link register save eliminated.
 191              	.LVL19:
 192              		.loc 1 114 0
 193 0000 0C30     		adds	r0, r0, #12
 194              	.LVL20:
 195 0002 FFF7FEBF 		b	ibqGetTimeout
 196              	.LVL21:
 197              		.cfi_endproc
 198              	.LFE329:
 199              		.size	_gett, .-_gett
 200              		.section	.text._get,"ax",%progbits
 201              		.align	1
 202              		.syntax unified
 203              		.thumb
 204              		.thumb_func
 205              		.fpu fpv4-sp-d16
 206              		.type	_get, %function
 207              	_get:
 208              	.LFB327:
 209              		.loc 1 102 0
 210              		.cfi_startproc
 211              		@ args = 0, pretend = 0, frame = 0
 212              		@ frame_needed = 0, uses_anonymous_args = 0
 213              		@ link register save eliminated.
 214              	.LVL22:
 215              		.loc 1 104 0
 216 0000 4FF0FF31 		mov	r1, #-1
 217 0004 0C30     		adds	r0, r0, #12
 218              	.LVL23:
 219 0006 FFF7FEBF 		b	ibqGetTimeout
 220              	.LVL24:
 221              		.cfi_endproc
 222              	.LFE327:
 223              		.size	_get, .-_get
 224              		.section	.text._putt,"ax",%progbits
 225              		.align	1
 226              		.syntax unified
 227              		.thumb
 228              		.thumb_func
ARM GAS  /tmp/ccx4e13q.s 			page 5


 229              		.fpu fpv4-sp-d16
 230              		.type	_putt, %function
 231              	_putt:
 232              	.LFB328:
 233              		.loc 1 107 0
 234              		.cfi_startproc
 235              		@ args = 0, pretend = 0, frame = 0
 236              		@ frame_needed = 0, uses_anonymous_args = 0
 237              		@ link register save eliminated.
 238              	.LVL25:
 239              		.loc 1 109 0
 240 0000 4430     		adds	r0, r0, #68
 241              	.LVL26:
 242 0002 FFF7FEBF 		b	obqPutTimeout
 243              	.LVL27:
 244              		.cfi_endproc
 245              	.LFE328:
 246              		.size	_putt, .-_putt
 247              		.section	.text._put,"ax",%progbits
 248              		.align	1
 249              		.syntax unified
 250              		.thumb
 251              		.thumb_func
 252              		.fpu fpv4-sp-d16
 253              		.type	_put, %function
 254              	_put:
 255              	.LFB326:
 256              		.loc 1 97 0
 257              		.cfi_startproc
 258              		@ args = 0, pretend = 0, frame = 0
 259              		@ frame_needed = 0, uses_anonymous_args = 0
 260              		@ link register save eliminated.
 261              	.LVL28:
 262              		.loc 1 99 0
 263 0000 4FF0FF32 		mov	r2, #-1
 264 0004 4430     		adds	r0, r0, #68
 265              	.LVL29:
 266 0006 FFF7FEBF 		b	obqPutTimeout
 267              	.LVL30:
 268              		.cfi_endproc
 269              	.LFE326:
 270              		.size	_put, .-_put
 271              		.section	.text.sdu_start_receive,"ax",%progbits
 272              		.align	1
 273              		.syntax unified
 274              		.thumb
 275              		.thumb_func
 276              		.fpu fpv4-sp-d16
 277              		.type	sdu_start_receive, %function
 278              	sdu_start_receive:
 279              	.LFB323:
 280              		.loc 1 53 0
 281              		.cfi_startproc
 282              		@ args = 0, pretend = 0, frame = 0
 283              		@ frame_needed = 0, uses_anonymous_args = 0
 284              	.LVL31:
 285              		.loc 1 58 0
ARM GAS  /tmp/ccx4e13q.s 			page 6


 286 0000 D0F88C24 		ldr	r2, [r0, #1164]
 287              		.loc 1 53 0
 288 0004 38B5     		push	{r3, r4, r5, lr}
 289              		.cfi_def_cfa_offset 16
 290              		.cfi_offset 3, -16
 291              		.cfi_offset 4, -12
 292              		.cfi_offset 5, -8
 293              		.cfi_offset 14, -4
 294              		.loc 1 58 0
 295 0006 1368     		ldr	r3, [r2]
 296 0008 1978     		ldrb	r1, [r3]	@ zero_extendqisi2
 297 000a 0429     		cmp	r1, #4
 298              		.loc 1 53 0
 299 000c 0546     		mov	r5, r0
 300              		.loc 1 58 0
 301 000e 01D0     		beq	.L12
 302              	.LVL32:
 303              	.L14:
 304              		.loc 1 60 0
 305 0010 0120     		movs	r0, #1
 306 0012 38BD     		pop	{r3, r4, r5, pc}
 307              	.LVL33:
 308              	.L12:
 309              		.loc 1 58 0 discriminator 1
 310 0014 017A     		ldrb	r1, [r0, #8]	@ zero_extendqisi2
 311 0016 0229     		cmp	r1, #2
 312 0018 FAD1     		bne	.L14
 313              		.loc 1 64 0
 314 001a 1279     		ldrb	r2, [r2, #4]	@ zero_extendqisi2
 315 001c 5C89     		ldrh	r4, [r3, #10]
 316 001e 0120     		movs	r0, #1
 317              	.LVL34:
 318 0020 9040     		lsls	r0, r0, r2
 319 0022 0440     		ands	r4, r0, r4
 320 0024 F4D1     		bne	.L14
 321              	.LVL35:
 322              	.LBB137:
 323              	.LBB138:
 324              		.loc 1 69 0
 325 0026 05F10C00 		add	r0, r5, #12
 326 002a FFF7FEFF 		bl	ibqGetEmptyBufferI
 327              	.LVL36:
 328              		.loc 1 70 0
 329 002e 0246     		mov	r2, r0
 330 0030 0028     		cmp	r0, #0
 331 0032 EDD0     		beq	.L14
 332              		.loc 1 75 0
 333 0034 D5F88C54 		ldr	r5, [r5, #1164]
 334              	.LVL37:
 335 0038 4FF48073 		mov	r3, #256
 336 003c 2868     		ldr	r0, [r5]
 337              	.LVL38:
 338 003e 6979     		ldrb	r1, [r5, #5]	@ zero_extendqisi2
 339 0040 FFF7FEFF 		bl	usbStartReceiveI
 340              	.LVL39:
 341              		.loc 1 78 0
 342 0044 2046     		mov	r0, r4
ARM GAS  /tmp/ccx4e13q.s 			page 7


 343              	.LBE138:
 344              	.LBE137:
 345              		.loc 1 79 0
 346 0046 38BD     		pop	{r3, r4, r5, pc}
 347              		.cfi_endproc
 348              	.LFE323:
 349              		.size	sdu_start_receive, .-sdu_start_receive
 350              		.section	.text.ibnotify,"ax",%progbits
 351              		.align	1
 352              		.syntax unified
 353              		.thumb
 354              		.thumb_func
 355              		.fpu fpv4-sp-d16
 356              		.type	ibnotify, %function
 357              	ibnotify:
 358              	.LFB333:
 359              		.loc 1 168 0
 360              		.cfi_startproc
 361              		@ args = 0, pretend = 0, frame = 0
 362              		@ frame_needed = 0, uses_anonymous_args = 0
 363              		@ link register save eliminated.
 364              	.LVL40:
 365              		.loc 1 170 0
 366 0000 406B     		ldr	r0, [r0, #52]
 367              	.LVL41:
 368 0002 FFF7FEBF 		b	sdu_start_receive
 369              	.LVL42:
 370              		.cfi_endproc
 371              	.LFE333:
 372              		.size	ibnotify, .-ibnotify
 373              		.section	.text._ctl,"ax",%progbits
 374              		.align	1
 375              		.syntax unified
 376              		.thumb
 377              		.thumb_func
 378              		.fpu fpv4-sp-d16
 379              		.type	_ctl, %function
 380              	_ctl:
 381              	.LFB350:
 382              		.cfi_startproc
 383              		@ args = 0, pretend = 0, frame = 0
 384              		@ frame_needed = 0, uses_anonymous_args = 0
 385              		@ link register save eliminated.
 386 0000 0020     		movs	r0, #0
 387 0002 7047     		bx	lr
 388              		.cfi_endproc
 389              	.LFE350:
 390              		.size	_ctl, .-_ctl
 391              		.section	.text.sduInit,"ax",%progbits
 392              		.align	1
 393              		.global	sduInit
 394              		.syntax unified
 395              		.thumb
 396              		.thumb_func
 397              		.fpu fpv4-sp-d16
 398              		.type	sduInit, %function
 399              	sduInit:
ARM GAS  /tmp/ccx4e13q.s 			page 8


 400              	.LFB335:
 401              		.loc 1 210 0
 402              		.cfi_startproc
 403              		@ args = 0, pretend = 0, frame = 0
 404              		@ frame_needed = 0, uses_anonymous_args = 0
 405              		@ link register save eliminated.
 406 0000 7047     		bx	lr
 407              		.cfi_endproc
 408              	.LFE335:
 409              		.size	sduInit, .-sduInit
 410              		.section	.text.sduObjectInit,"ax",%progbits
 411              		.align	1
 412              		.global	sduObjectInit
 413              		.syntax unified
 414              		.thumb
 415              		.thumb_func
 416              		.fpu fpv4-sp-d16
 417              		.type	sduObjectInit, %function
 418              	sduObjectInit:
 419              	.LFB336:
 420              		.loc 1 222 0
 421              		.cfi_startproc
 422              		@ args = 0, pretend = 0, frame = 0
 423              		@ frame_needed = 0, uses_anonymous_args = 0
 424              	.LVL43:
 425              		.loc 1 222 0
 426 0000 7FB5     		push	{r0, r1, r2, r3, r4, r5, r6, lr}
 427              		.cfi_def_cfa_offset 32
 428              		.cfi_offset 4, -16
 429              		.cfi_offset 5, -12
 430              		.cfi_offset 6, -8
 431              		.cfi_offset 14, -4
 432              		.loc 1 224 0
 433 0002 0346     		mov	r3, r0
 434 0004 114A     		ldr	r2, .L22
 435 0006 43F8042B 		str	r2, [r3], #4
 436              	.LVL44:
 437              		.loc 1 226 0
 438 000a 0125     		movs	r5, #1
 439              	.LBB139:
 440              	.LBB140:
 441              	.LBB141:
 442              		.file 2 "../../modules/ChibiOS/os/rt/include/chevents.h"
 443              		.loc 2 173 0
 444 000c 4360     		str	r3, [r0, #4]
 445              	.LVL45:
 446              	.LBE141:
 447              	.LBE140:
 448              	.LBE139:
 449              		.loc 1 227 0
 450 000e 0226     		movs	r6, #2
 451 0010 0F4B     		ldr	r3, .L22+4
 452              		.loc 1 226 0
 453 0012 0572     		strb	r5, [r0, #8]
 454              		.loc 1 222 0
 455 0014 0446     		mov	r4, r0
 456              		.loc 1 227 0
ARM GAS  /tmp/ccx4e13q.s 			page 9


 457 0016 0290     		str	r0, [sp, #8]
 458 0018 0193     		str	r3, [sp, #4]
 459 001a 00F17C02 		add	r2, r0, #124
 460 001e 2946     		mov	r1, r5
 461 0020 0096     		str	r6, [sp]
 462 0022 4FF48073 		mov	r3, #256
 463 0026 0C30     		adds	r0, r0, #12
 464              	.LVL46:
 465 0028 FFF7FEFF 		bl	ibqObjectInit
 466              	.LVL47:
 467              		.loc 1 230 0
 468 002c 094B     		ldr	r3, .L22+8
 469 002e 0193     		str	r3, [sp, #4]
 470 0030 0294     		str	r4, [sp, #8]
 471 0032 0096     		str	r6, [sp]
 472 0034 4FF48073 		mov	r3, #256
 473 0038 04F52172 		add	r2, r4, #644
 474 003c 2946     		mov	r1, r5
 475 003e 04F14400 		add	r0, r4, #68
 476 0042 FFF7FEFF 		bl	obqObjectInit
 477              	.LVL48:
 478              		.loc 1 233 0
 479 0046 04B0     		add	sp, sp, #16
 480              		.cfi_def_cfa_offset 16
 481              		@ sp needed
 482 0048 70BD     		pop	{r4, r5, r6, pc}
 483              	.LVL49:
 484              	.L23:
 485 004a 00BF     		.align	2
 486              	.L22:
 487 004c 00000000 		.word	.LANCHOR0
 488 0050 00000000 		.word	ibnotify
 489 0054 00000000 		.word	obnotify
 490              		.cfi_endproc
 491              	.LFE336:
 492              		.size	sduObjectInit, .-sduObjectInit
 493              		.section	.text.sduStart,"ax",%progbits
 494              		.align	1
 495              		.global	sduStart
 496              		.syntax unified
 497              		.thumb
 498              		.thumb_func
 499              		.fpu fpv4-sp-d16
 500              		.type	sduStart, %function
 501              	sduStart:
 502              	.LFB337:
 503              		.loc 1 243 0
 504              		.cfi_startproc
 505              		@ args = 0, pretend = 0, frame = 0
 506              		@ frame_needed = 0, uses_anonymous_args = 0
 507              		@ link register save eliminated.
 508              	.LVL50:
 509              		.loc 1 244 0
 510 0000 0B68     		ldr	r3, [r1]
 511              	.LVL51:
 512              	.LBB142:
 513              	.LBB143:
ARM GAS  /tmp/ccx4e13q.s 			page 10


 514              	.LBB144:
 515              	.LBB145:
 516              	.LBB146:
 517              		.file 3 "../../modules/ChibiOS/os/common/ext/ARM/CMSIS/Core/Include/cmsis_gcc.h"
 518              		.loc 3 493 0
 519 0002 2022     		movs	r2, #32
 520              		.syntax unified
 521              	@ 493 "../../modules/ChibiOS/os/common/ext/ARM/CMSIS/Core/Include/cmsis_gcc.h" 1
 522 0004 82F31188 		MSR basepri, r2
 523              	@ 0 "" 2
 524              	.LVL52:
 525              		.thumb
 526              		.syntax unified
 527              	.LBE146:
 528              	.LBE145:
 529              	.LBE144:
 530              	.LBE143:
 531              	.LBE142:
 532              		.loc 1 251 0
 533 0008 0A79     		ldrb	r2, [r1, #4]	@ zero_extendqisi2
 534 000a 03EB8202 		add	r2, r3, r2, lsl #2
 535 000e 9061     		str	r0, [r2, #24]
 536              		.loc 1 252 0
 537 0010 4A79     		ldrb	r2, [r1, #5]	@ zero_extendqisi2
 538 0012 0932     		adds	r2, r2, #9
 539 0014 43F82200 		str	r0, [r3, r2, lsl #2]
 540              		.loc 1 253 0
 541 0018 8A79     		ldrb	r2, [r1, #6]	@ zero_extendqisi2
 542 001a 12B1     		cbz	r2, .L25
 543              		.loc 1 254 0
 544 001c 03EB8203 		add	r3, r3, r2, lsl #2
 545              	.LVL53:
 546 0020 9861     		str	r0, [r3, #24]
 547              	.L25:
 548              		.loc 1 257 0
 549 0022 0223     		movs	r3, #2
 550 0024 0372     		strb	r3, [r0, #8]
 551              	.LVL54:
 552              		.loc 1 256 0
 553 0026 C0F88C14 		str	r1, [r0, #1164]
 554              	.LBB147:
 555              	.LBB148:
 556              	.LBB149:
 557              	.LBB150:
 558              	.LBB151:
 559              	.LBB152:
 560              		.loc 3 493 0
 561 002a 0023     		movs	r3, #0
 562              		.syntax unified
 563              	@ 493 "../../modules/ChibiOS/os/common/ext/ARM/CMSIS/Core/Include/cmsis_gcc.h" 1
 564 002c 83F31188 		MSR basepri, r3
 565              	@ 0 "" 2
 566              	.LVL55:
 567              		.thumb
 568              		.syntax unified
 569 0030 7047     		bx	lr
 570              	.LBE152:
ARM GAS  /tmp/ccx4e13q.s 			page 11


 571              	.LBE151:
 572              	.LBE150:
 573              	.LBE149:
 574              	.LBE148:
 575              	.LBE147:
 576              		.cfi_endproc
 577              	.LFE337:
 578              		.size	sduStart, .-sduStart
 579              		.section	.text.sduStop,"ax",%progbits
 580              		.align	1
 581              		.global	sduStop
 582              		.syntax unified
 583              		.thumb
 584              		.thumb_func
 585              		.fpu fpv4-sp-d16
 586              		.type	sduStop, %function
 587              	sduStop:
 588              	.LFB338:
 589              		.loc 1 270 0
 590              		.cfi_startproc
 591              		@ args = 0, pretend = 0, frame = 0
 592              		@ frame_needed = 0, uses_anonymous_args = 0
 593              	.LVL56:
 594 0000 38B5     		push	{r3, r4, r5, lr}
 595              		.cfi_def_cfa_offset 16
 596              		.cfi_offset 3, -16
 597              		.cfi_offset 4, -12
 598              		.cfi_offset 5, -8
 599              		.cfi_offset 14, -4
 600              		.loc 1 271 0
 601 0002 D0F88C34 		ldr	r3, [r0, #1164]
 602              		.loc 1 270 0
 603 0006 0446     		mov	r4, r0
 604              		.loc 1 271 0
 605 0008 1B68     		ldr	r3, [r3]
 606              	.LVL57:
 607              	.LBB153:
 608              	.LBB154:
 609              	.LBB155:
 610              	.LBB156:
 611              	.LBB157:
 612              		.loc 3 493 0
 613 000a 2022     		movs	r2, #32
 614              		.syntax unified
 615              	@ 493 "../../modules/ChibiOS/os/common/ext/ARM/CMSIS/Core/Include/cmsis_gcc.h" 1
 616 000c 82F31188 		MSR basepri, r2
 617              	@ 0 "" 2
 618              	.LVL58:
 619              		.thumb
 620              		.syntax unified
 621              	.LBE157:
 622              	.LBE156:
 623              	.LBE155:
 624              	.LBE154:
 625              	.LBE153:
 626              		.loc 1 281 0
 627 0010 D0F88C04 		ldr	r0, [r0, #1164]
ARM GAS  /tmp/ccx4e13q.s 			page 12


 628              	.LVL59:
 629 0014 0279     		ldrb	r2, [r0, #4]	@ zero_extendqisi2
 630 0016 0532     		adds	r2, r2, #5
 631 0018 03EB8202 		add	r2, r3, r2, lsl #2
 632 001c 0021     		movs	r1, #0
 633 001e 5160     		str	r1, [r2, #4]
 634              		.loc 1 282 0
 635 0020 4279     		ldrb	r2, [r0, #5]	@ zero_extendqisi2
 636 0022 0932     		adds	r2, r2, #9
 637 0024 43F82210 		str	r1, [r3, r2, lsl #2]
 638              		.loc 1 283 0
 639 0028 8279     		ldrb	r2, [r0, #6]	@ zero_extendqisi2
 640 002a 1AB1     		cbz	r2, .L30
 641              		.loc 1 284 0
 642 002c 0532     		adds	r2, r2, #5
 643 002e 03EB8203 		add	r3, r3, r2, lsl #2
 644              	.LVL60:
 645 0032 5960     		str	r1, [r3, #4]
 646              	.L30:
 647              		.loc 1 287 0
 648 0034 0123     		movs	r3, #1
 649              		.loc 1 286 0
 650 0036 0025     		movs	r5, #0
 651              		.loc 1 287 0
 652 0038 2372     		strb	r3, [r4, #8]
 653              	.LVL61:
 654              	.LBB158:
 655              	.LBB159:
 656              		.file 4 "../../modules/ChibiOS/os/hal/osal/rt/osal.h"
 657              		.loc 4 895 0
 658 003a 0221     		movs	r1, #2
 659 003c 201D     		adds	r0, r4, #4
 660              	.LVL62:
 661              	.LBE159:
 662              	.LBE158:
 663              		.loc 1 286 0
 664 003e C4F88C54 		str	r5, [r4, #1164]
 665              	.LVL63:
 666              	.LBB161:
 667              	.LBB160:
 668              		.loc 4 895 0
 669 0042 FFF7FEFF 		bl	chEvtBroadcastFlagsI
 670              	.LVL64:
 671              	.LBE160:
 672              	.LBE161:
 673              		.loc 1 291 0
 674 0046 04F10C00 		add	r0, r4, #12
 675 004a FFF7FEFF 		bl	ibqResetI
 676              	.LVL65:
 677              		.loc 1 292 0
 678 004e 04F14400 		add	r0, r4, #68
 679 0052 FFF7FEFF 		bl	obqResetI
 680              	.LVL66:
 681              	.LBB162:
 682              	.LBB163:
 683              		.loc 4 618 0
 684 0056 FFF7FEFF 		bl	chSchRescheduleS
ARM GAS  /tmp/ccx4e13q.s 			page 13


 685              	.LVL67:
 686              	.LBE163:
 687              	.LBE162:
 688              	.LBB164:
 689              	.LBB165:
 690              	.LBB166:
 691              	.LBB167:
 692              	.LBB168:
 693              	.LBB169:
 694              		.loc 3 493 0
 695              		.syntax unified
 696              	@ 493 "../../modules/ChibiOS/os/common/ext/ARM/CMSIS/Core/Include/cmsis_gcc.h" 1
 697 005a 85F31188 		MSR basepri, r5
 698              	@ 0 "" 2
 699              	.LVL68:
 700              		.thumb
 701              		.syntax unified
 702 005e 38BD     		pop	{r3, r4, r5, pc}
 703              	.LBE169:
 704              	.LBE168:
 705              	.LBE167:
 706              	.LBE166:
 707              	.LBE165:
 708              	.LBE164:
 709              		.cfi_endproc
 710              	.LFE338:
 711              		.size	sduStop, .-sduStop
 712              		.section	.text.sduSuspendHookI,"ax",%progbits
 713              		.align	1
 714              		.global	sduSuspendHookI
 715              		.syntax unified
 716              		.thumb
 717              		.thumb_func
 718              		.fpu fpv4-sp-d16
 719              		.type	sduSuspendHookI, %function
 720              	sduSuspendHookI:
 721              	.LFB339:
 722              		.loc 1 310 0
 723              		.cfi_startproc
 724              		@ args = 0, pretend = 0, frame = 0
 725              		@ frame_needed = 0, uses_anonymous_args = 0
 726              	.LVL69:
 727 0000 38B5     		push	{r3, r4, r5, lr}
 728              		.cfi_def_cfa_offset 16
 729              		.cfi_offset 3, -16
 730              		.cfi_offset 4, -12
 731              		.cfi_offset 5, -8
 732              		.cfi_offset 14, -4
 733              		.loc 1 313 0
 734 0002 037D     		ldrb	r3, [r0, #20]	@ zero_extendqisi2
 735              		.loc 1 310 0
 736 0004 0446     		mov	r4, r0
 737              		.loc 1 313 0
 738 0006 13B1     		cbz	r3, .L35
 739              		.loc 1 313 0 is_stmt 0 discriminator 1
 740 0008 90F84C30 		ldrb	r3, [r0, #76]	@ zero_extendqisi2
 741 000c ABB9     		cbnz	r3, .L34
ARM GAS  /tmp/ccx4e13q.s 			page 14


 742              	.L35:
 743              	.LVL70:
 744              	.LBB170:
 745              	.LBB171:
 746              		.loc 4 895 0 is_stmt 1
 747 000e 201D     		adds	r0, r4, #4
 748              	.LVL71:
 749              	.LBE171:
 750              	.LBE170:
 751              		.loc 1 317 0
 752 0010 0125     		movs	r5, #1
 753              	.LBB173:
 754              	.LBB172:
 755              		.loc 4 895 0
 756 0012 0221     		movs	r1, #2
 757 0014 FFF7FEFF 		bl	chEvtBroadcastFlagsI
 758              	.LVL72:
 759              	.LBE172:
 760              	.LBE173:
 761              	.LBB174:
 762              	.LBB175:
 763              		.loc 4 857 0
 764 0018 04F10C00 		add	r0, r4, #12
 765              	.LBE175:
 766              	.LBE174:
 767              		.loc 1 317 0
 768 001c 2575     		strb	r5, [r4, #20]
 769              	.LVL73:
 770              	.LBB177:
 771              	.LBB176:
 772              		.loc 4 857 0
 773 001e 6FF00101 		mvn	r1, #1
 774 0022 FFF7FEFF 		bl	chThdDequeueAllI
 775              	.LVL74:
 776              	.LBE176:
 777              	.LBE177:
 778              		.loc 1 318 0
 779 0026 84F84C50 		strb	r5, [r4, #76]
 780              	.LVL75:
 781              	.LBB178:
 782              	.LBB179:
 783              		.loc 4 857 0
 784 002a 04F14400 		add	r0, r4, #68
 785              	.LVL76:
 786 002e 6FF00101 		mvn	r1, #1
 787              	.LBE179:
 788              	.LBE178:
 789              		.loc 1 319 0
 790 0032 BDE83840 		pop	{r3, r4, r5, lr}
 791              		.cfi_remember_state
 792              		.cfi_restore 14
 793              		.cfi_restore 5
 794              		.cfi_restore 4
 795              		.cfi_restore 3
 796              		.cfi_def_cfa_offset 0
 797              	.LVL77:
 798              	.LBB181:
ARM GAS  /tmp/ccx4e13q.s 			page 15


 799              	.LBB180:
 800              		.loc 4 857 0
 801 0036 FFF7FEBF 		b	chThdDequeueAllI
 802              	.LVL78:
 803              	.L34:
 804              		.cfi_restore_state
 805 003a 38BD     		pop	{r3, r4, r5, pc}
 806              	.LBE180:
 807              	.LBE181:
 808              		.cfi_endproc
 809              	.LFE339:
 810              		.size	sduSuspendHookI, .-sduSuspendHookI
 811              		.section	.text.sduWakeupHookI,"ax",%progbits
 812              		.align	1
 813              		.global	sduWakeupHookI
 814              		.syntax unified
 815              		.thumb
 816              		.thumb_func
 817              		.fpu fpv4-sp-d16
 818              		.type	sduWakeupHookI, %function
 819              	sduWakeupHookI:
 820              	.LFB340:
 821              		.loc 1 333 0
 822              		.cfi_startproc
 823              		@ args = 0, pretend = 0, frame = 0
 824              		@ frame_needed = 0, uses_anonymous_args = 0
 825              	.LVL79:
 826 0000 10B5     		push	{r4, lr}
 827              		.cfi_def_cfa_offset 8
 828              		.cfi_offset 4, -8
 829              		.cfi_offset 14, -4
 830              	.LBB182:
 831              	.LBB183:
 832              		.loc 4 895 0
 833 0002 0121     		movs	r1, #1
 834              	.LBE183:
 835              	.LBE182:
 836              		.loc 1 333 0
 837 0004 0446     		mov	r4, r0
 838              	.LBB185:
 839              	.LBB184:
 840              		.loc 4 895 0
 841 0006 0430     		adds	r0, r0, #4
 842              	.LVL80:
 843 0008 FFF7FEFF 		bl	chEvtBroadcastFlagsI
 844              	.LVL81:
 845              	.LBE184:
 846              	.LBE185:
 847              		.loc 1 336 0
 848 000c 0023     		movs	r3, #0
 849 000e 2375     		strb	r3, [r4, #20]
 850              		.loc 1 337 0
 851 0010 84F84C30 		strb	r3, [r4, #76]
 852 0014 10BD     		pop	{r4, pc}
 853              		.cfi_endproc
 854              	.LFE340:
 855              		.size	sduWakeupHookI, .-sduWakeupHookI
ARM GAS  /tmp/ccx4e13q.s 			page 16


 856              		.section	.text.sduConfigureHookI,"ax",%progbits
 857              		.align	1
 858              		.global	sduConfigureHookI
 859              		.syntax unified
 860              		.thumb
 861              		.thumb_func
 862              		.fpu fpv4-sp-d16
 863              		.type	sduConfigureHookI, %function
 864              	sduConfigureHookI:
 865              	.LFB341:
 866              		.loc 1 347 0
 867              		.cfi_startproc
 868              		@ args = 0, pretend = 0, frame = 0
 869              		@ frame_needed = 0, uses_anonymous_args = 0
 870              	.LVL82:
 871 0000 38B5     		push	{r3, r4, r5, lr}
 872              		.cfi_def_cfa_offset 16
 873              		.cfi_offset 3, -16
 874              		.cfi_offset 4, -12
 875              		.cfi_offset 5, -8
 876              		.cfi_offset 14, -4
 877              		.loc 1 347 0
 878 0002 0446     		mov	r4, r0
 879              		.loc 1 350 0
 880 0004 0025     		movs	r5, #0
 881              		.loc 1 349 0
 882 0006 0C30     		adds	r0, r0, #12
 883              	.LVL83:
 884 0008 FFF7FEFF 		bl	ibqResetI
 885              	.LVL84:
 886              		.loc 1 351 0
 887 000c 04F14400 		add	r0, r4, #68
 888              		.loc 1 350 0
 889 0010 2575     		strb	r5, [r4, #20]
 890              		.loc 1 351 0
 891 0012 FFF7FEFF 		bl	obqResetI
 892              	.LVL85:
 893              	.LBB186:
 894              	.LBB187:
 895              		.loc 4 895 0
 896 0016 201D     		adds	r0, r4, #4
 897              	.LBE187:
 898              	.LBE186:
 899              		.loc 1 352 0
 900 0018 84F84C50 		strb	r5, [r4, #76]
 901              	.LVL86:
 902              	.LBB189:
 903              	.LBB188:
 904              		.loc 4 895 0
 905 001c 0121     		movs	r1, #1
 906 001e FFF7FEFF 		bl	chEvtBroadcastFlagsI
 907              	.LVL87:
 908              	.LBE188:
 909              	.LBE189:
 910              		.loc 1 354 0
 911 0022 2046     		mov	r0, r4
 912              		.loc 1 355 0
ARM GAS  /tmp/ccx4e13q.s 			page 17


 913 0024 BDE83840 		pop	{r3, r4, r5, lr}
 914              		.cfi_restore 14
 915              		.cfi_restore 5
 916              		.cfi_restore 4
 917              		.cfi_restore 3
 918              		.cfi_def_cfa_offset 0
 919              	.LVL88:
 920              		.loc 1 354 0
 921 0028 FFF7FEBF 		b	sdu_start_receive
 922              	.LVL89:
 923              		.cfi_endproc
 924              	.LFE341:
 925              		.size	sduConfigureHookI, .-sduConfigureHookI
 926              		.section	.text.sduRequestsHook,"ax",%progbits
 927              		.align	1
 928              		.global	sduRequestsHook
 929              		.syntax unified
 930              		.thumb
 931              		.thumb_func
 932              		.fpu fpv4-sp-d16
 933              		.type	sduRequestsHook, %function
 934              	sduRequestsHook:
 935              	.LFB342:
 936              		.loc 1 372 0
 937              		.cfi_startproc
 938              		@ args = 0, pretend = 0, frame = 0
 939              		@ frame_needed = 0, uses_anonymous_args = 0
 940              		@ link register save eliminated.
 941              	.LVL90:
 942              		.loc 1 374 0
 943 0000 90F84430 		ldrb	r3, [r0, #68]	@ zero_extendqisi2
 944 0004 03F06003 		and	r3, r3, #96
 945 0008 202B     		cmp	r3, #32
 946 000a 19D1     		bne	.L47
 947              		.loc 1 375 0
 948 000c 90F84520 		ldrb	r2, [r0, #69]	@ zero_extendqisi2
 949 0010 212A     		cmp	r2, #33
 950 0012 0AD0     		beq	.L44
 951 0014 222A     		cmp	r2, #34
 952 0016 4FF00003 		mov	r3, #0
 953 001a 0ED0     		beq	.L45
 954 001c 202A     		cmp	r2, #32
 955 001e 0FD1     		bne	.L47
 956              		.loc 1 380 0
 957 0020 084A     		ldr	r2, .L51
 958 0022 8263     		str	r2, [r0, #56]
 959 0024 0722     		movs	r2, #7
 960 0026 C263     		str	r2, [r0, #60]
 961 0028 04E0     		b	.L50
 962              	.L44:
 963              		.loc 1 377 0
 964 002a 064B     		ldr	r3, .L51
 965 002c 8363     		str	r3, [r0, #56]
 966 002e 0723     		movs	r3, #7
 967 0030 C363     		str	r3, [r0, #60]
 968 0032 0023     		movs	r3, #0
 969              	.L50:
ARM GAS  /tmp/ccx4e13q.s 			page 18


 970              		.loc 1 384 0
 971 0034 0364     		str	r3, [r0, #64]
 972              		.loc 1 385 0
 973 0036 0120     		movs	r0, #1
 974              	.LVL91:
 975 0038 7047     		bx	lr
 976              	.LVL92:
 977              	.L45:
 978              		.loc 1 384 0
 979 003a 8363     		str	r3, [r0, #56]
 980 003c C363     		str	r3, [r0, #60]
 981 003e F9E7     		b	.L50
 982              	.L47:
 983              		.loc 1 390 0
 984 0040 0020     		movs	r0, #0
 985              	.LVL93:
 986 0042 7047     		bx	lr
 987              	.L52:
 988              		.align	2
 989              	.L51:
 990 0044 00000000 		.word	.LANCHOR1
 991              		.cfi_endproc
 992              	.LFE342:
 993              		.size	sduRequestsHook, .-sduRequestsHook
 994              		.section	.text.sduSOFHookI,"ax",%progbits
 995              		.align	1
 996              		.global	sduSOFHookI
 997              		.syntax unified
 998              		.thumb
 999              		.thumb_func
 1000              		.fpu fpv4-sp-d16
 1001              		.type	sduSOFHookI, %function
 1002              	sduSOFHookI:
 1003              	.LFB343:
 1004              		.loc 1 402 0
 1005              		.cfi_startproc
 1006              		@ args = 0, pretend = 0, frame = 8
 1007              		@ frame_needed = 0, uses_anonymous_args = 0
 1008              	.LVL94:
 1009              		.loc 1 406 0
 1010 0000 D0F88C34 		ldr	r3, [r0, #1164]
 1011              		.loc 1 402 0
 1012 0004 37B5     		push	{r0, r1, r2, r4, r5, lr}
 1013              		.cfi_def_cfa_offset 24
 1014              		.cfi_offset 4, -12
 1015              		.cfi_offset 5, -8
 1016              		.cfi_offset 14, -4
 1017              		.loc 1 406 0
 1018 0006 1A68     		ldr	r2, [r3]
 1019 0008 1178     		ldrb	r1, [r2]	@ zero_extendqisi2
 1020 000a 0429     		cmp	r1, #4
 1021              		.loc 1 402 0
 1022 000c 0446     		mov	r4, r0
 1023              		.loc 1 406 0
 1024 000e 1AD1     		bne	.L53
 1025              		.loc 1 406 0 is_stmt 0 discriminator 1
 1026 0010 017A     		ldrb	r1, [r0, #8]	@ zero_extendqisi2
ARM GAS  /tmp/ccx4e13q.s 			page 19


 1027 0012 0229     		cmp	r1, #2
 1028 0014 17D1     		bne	.L53
 1029              		.loc 1 413 0 is_stmt 1
 1030 0016 1979     		ldrb	r1, [r3, #4]	@ zero_extendqisi2
 1031 0018 1289     		ldrh	r2, [r2, #8]
 1032 001a 0123     		movs	r3, #1
 1033 001c 8B40     		lsls	r3, r3, r1
 1034 001e 1342     		tst	r3, r2
 1035 0020 11D1     		bne	.L53
 1036              		.loc 1 419 0
 1037 0022 00F14405 		add	r5, r0, #68
 1038 0026 2846     		mov	r0, r5
 1039              	.LVL95:
 1040 0028 FFF7FEFF 		bl	obqTryFlushI
 1041              	.LVL96:
 1042 002c 58B1     		cbz	r0, .L53
 1043              	.LBB190:
 1044              		.loc 1 421 0
 1045 002e 01A9     		add	r1, sp, #4
 1046 0030 2846     		mov	r0, r5
 1047 0032 FFF7FEFF 		bl	obqGetFullBufferI
 1048              	.LVL97:
 1049              		.loc 1 425 0
 1050 0036 D4F88C44 		ldr	r4, [r4, #1164]
 1051              	.LVL98:
 1052 003a 019B     		ldr	r3, [sp, #4]
 1053 003c 2179     		ldrb	r1, [r4, #4]	@ zero_extendqisi2
 1054 003e 0246     		mov	r2, r0
 1055 0040 2068     		ldr	r0, [r4]
 1056              	.LVL99:
 1057 0042 FFF7FEFF 		bl	usbStartTransmitI
 1058              	.LVL100:
 1059              	.L53:
 1060              	.LBE190:
 1061              		.loc 1 427 0
 1062 0046 03B0     		add	sp, sp, #12
 1063              		.cfi_def_cfa_offset 12
 1064              		@ sp needed
 1065 0048 30BD     		pop	{r4, r5, pc}
 1066              		.cfi_endproc
 1067              	.LFE343:
 1068              		.size	sduSOFHookI, .-sduSOFHookI
 1069              		.section	.text.sduDataTransmitted,"ax",%progbits
 1070              		.align	1
 1071              		.global	sduDataTransmitted
 1072              		.syntax unified
 1073              		.thumb
 1074              		.thumb_func
 1075              		.fpu fpv4-sp-d16
 1076              		.type	sduDataTransmitted, %function
 1077              	sduDataTransmitted:
 1078              	.LFB344:
 1079              		.loc 1 437 0
 1080              		.cfi_startproc
 1081              		@ args = 0, pretend = 0, frame = 8
 1082              		@ frame_needed = 0, uses_anonymous_args = 0
 1083              	.LVL101:
ARM GAS  /tmp/ccx4e13q.s 			page 20


 1084              		.loc 1 440 0
 1085 0000 00EB8103 		add	r3, r0, r1, lsl #2
 1086              		.loc 1 437 0
 1087 0004 F7B5     		push	{r0, r1, r2, r4, r5, r6, r7, lr}
 1088              		.cfi_def_cfa_offset 32
 1089              		.cfi_offset 4, -20
 1090              		.cfi_offset 5, -16
 1091              		.cfi_offset 6, -12
 1092              		.cfi_offset 7, -8
 1093              		.cfi_offset 14, -4
 1094              		.loc 1 440 0
 1095 0006 9C69     		ldr	r4, [r3, #24]
 1096              	.LVL102:
 1097              		.loc 1 437 0
 1098 0008 0546     		mov	r5, r0
 1099 000a 0E46     		mov	r6, r1
 1100              		.loc 1 442 0
 1101 000c F4B1     		cbz	r4, .L60
 1102              	.LVL103:
 1103              	.LBB191:
 1104              	.LBB192:
 1105              	.LBB193:
 1106              	.LBB194:
 1107              	.LBB195:
 1108              	.LBB196:
 1109              		.loc 3 493 0
 1110 000e 2023     		movs	r3, #32
 1111              		.syntax unified
 1112              	@ 493 "../../modules/ChibiOS/os/common/ext/ARM/CMSIS/Core/Include/cmsis_gcc.h" 1
 1113 0010 83F31188 		MSR basepri, r3
 1114              	@ 0 "" 2
 1115              	.LVL104:
 1116              		.thumb
 1117              		.syntax unified
 1118 0014 05EB8607 		add	r7, r5, r6, lsl #2
 1119              	.LBE196:
 1120              	.LBE195:
 1121              	.LBE194:
 1122              	.LBE193:
 1123              	.LBE192:
 1124              	.LBE191:
 1125              	.LBB197:
 1126              	.LBB198:
 1127              		.loc 4 895 0
 1128 0018 201D     		adds	r0, r4, #4
 1129              	.LVL105:
 1130 001a 0821     		movs	r1, #8
 1131              	.LVL106:
 1132 001c FFF7FEFF 		bl	chEvtBroadcastFlagsI
 1133              	.LVL107:
 1134              	.LBE198:
 1135              	.LBE197:
 1136              		.loc 1 452 0
 1137 0020 FB68     		ldr	r3, [r7, #12]
 1138 0022 5B69     		ldr	r3, [r3, #20]
 1139 0024 1B68     		ldr	r3, [r3]
 1140 0026 4434     		adds	r4, r4, #68
ARM GAS  /tmp/ccx4e13q.s 			page 21


 1141              	.LVL108:
 1142 0028 13B1     		cbz	r3, .L62
 1143              		.loc 1 453 0
 1144 002a 2046     		mov	r0, r4
 1145 002c FFF7FEFF 		bl	obqReleaseEmptyBufferI
 1146              	.LVL109:
 1147              	.L62:
 1148              		.loc 1 457 0
 1149 0030 01A9     		add	r1, sp, #4
 1150 0032 2046     		mov	r0, r4
 1151 0034 FFF7FEFF 		bl	obqGetFullBufferI
 1152              	.LVL110:
 1153              		.loc 1 459 0
 1154 0038 0246     		mov	r2, r0
 1155 003a 48B1     		cbz	r0, .L63
 1156              		.loc 1 462 0
 1157 003c 019B     		ldr	r3, [sp, #4]
 1158              	.L75:
 1159              		.loc 1 471 0
 1160 003e 3146     		mov	r1, r6
 1161 0040 2846     		mov	r0, r5
 1162              	.LVL111:
 1163 0042 FFF7FEFF 		bl	usbStartTransmitI
 1164              	.LVL112:
 1165              	.L64:
 1166              	.LBB199:
 1167              	.LBB200:
 1168              	.LBB201:
 1169              	.LBB202:
 1170              	.LBB203:
 1171              	.LBB204:
 1172              		.loc 3 493 0
 1173 0046 0023     		movs	r3, #0
 1174              		.syntax unified
 1175              	@ 493 "../../modules/ChibiOS/os/common/ext/ARM/CMSIS/Core/Include/cmsis_gcc.h" 1
 1176 0048 83F31188 		MSR basepri, r3
 1177              	@ 0 "" 2
 1178              	.LVL113:
 1179              		.thumb
 1180              		.syntax unified
 1181              	.L60:
 1182              	.LBE204:
 1183              	.LBE203:
 1184              	.LBE202:
 1185              	.LBE201:
 1186              	.LBE200:
 1187              	.LBE199:
 1188              		.loc 1 479 0
 1189 004c 03B0     		add	sp, sp, #12
 1190              		.cfi_remember_state
 1191              		.cfi_def_cfa_offset 20
 1192              		@ sp needed
 1193 004e F0BD     		pop	{r4, r5, r6, r7, pc}
 1194              	.LVL114:
 1195              	.L63:
 1196              		.cfi_restore_state
 1197              		.loc 1 464 0
ARM GAS  /tmp/ccx4e13q.s 			page 22


 1198 0050 FB68     		ldr	r3, [r7, #12]
 1199 0052 5A69     		ldr	r2, [r3, #20]
 1200 0054 1268     		ldr	r2, [r2]
 1201 0056 002A     		cmp	r2, #0
 1202 0058 F5D0     		beq	.L64
 1203              		.loc 1 466 0 discriminator 1
 1204 005a 1B8A     		ldrh	r3, [r3, #16]
 1205 005c 013B     		subs	r3, r3, #1
 1206              		.loc 1 464 0 discriminator 1
 1207 005e 1340     		ands	r3, r3, r2
 1208 0060 F1D1     		bne	.L64
 1209              		.loc 1 471 0
 1210 0062 05F14402 		add	r2, r5, #68
 1211 0066 EAE7     		b	.L75
 1212              		.cfi_endproc
 1213              	.LFE344:
 1214              		.size	sduDataTransmitted, .-sduDataTransmitted
 1215              		.section	.text.sduDataReceived,"ax",%progbits
 1216              		.align	1
 1217              		.global	sduDataReceived
 1218              		.syntax unified
 1219              		.thumb
 1220              		.thumb_func
 1221              		.fpu fpv4-sp-d16
 1222              		.type	sduDataReceived, %function
 1223              	sduDataReceived:
 1224              	.LFB345:
 1225              		.loc 1 489 0
 1226              		.cfi_startproc
 1227              		@ args = 0, pretend = 0, frame = 0
 1228              		@ frame_needed = 0, uses_anonymous_args = 0
 1229              	.LVL115:
 1230              		.loc 1 491 0
 1231 0000 0931     		adds	r1, r1, #9
 1232              	.LVL116:
 1233              		.loc 1 489 0
 1234 0002 38B5     		push	{r3, r4, r5, lr}
 1235              		.cfi_def_cfa_offset 16
 1236              		.cfi_offset 3, -16
 1237              		.cfi_offset 4, -12
 1238              		.cfi_offset 5, -8
 1239              		.cfi_offset 14, -4
 1240              		.loc 1 491 0
 1241 0004 50F82140 		ldr	r4, [r0, r1, lsl #2]
 1242              	.LVL117:
 1243              		.loc 1 493 0
 1244 0008 DCB1     		cbz	r4, .L76
 1245              	.LVL118:
 1246              	.LBB205:
 1247              	.LBB206:
 1248              	.LBB207:
 1249              	.LBB208:
 1250              	.LBB209:
 1251              	.LBB210:
 1252              		.loc 3 493 0
 1253 000a 2023     		movs	r3, #32
 1254              		.syntax unified
ARM GAS  /tmp/ccx4e13q.s 			page 23


 1255              	@ 493 "../../modules/ChibiOS/os/common/ext/ARM/CMSIS/Core/Include/cmsis_gcc.h" 1
 1256 000c 83F31188 		MSR basepri, r3
 1257              	@ 0 "" 2
 1258              	.LVL119:
 1259              		.thumb
 1260              		.syntax unified
 1261              	.LBE210:
 1262              	.LBE209:
 1263              	.LBE208:
 1264              	.LBE207:
 1265              	.LBE206:
 1266              	.LBE205:
 1267              		.loc 1 500 0
 1268 0010 D4F88C24 		ldr	r2, [r4, #1164]
 1269 0014 1368     		ldr	r3, [r2]
 1270 0016 5279     		ldrb	r2, [r2, #5]	@ zero_extendqisi2
 1271 0018 03EB8203 		add	r3, r3, r2, lsl #2
 1272 001c DB68     		ldr	r3, [r3, #12]
 1273 001e 9B69     		ldr	r3, [r3, #24]
 1274 0020 5D68     		ldr	r5, [r3, #4]
 1275              	.LVL120:
 1276              		.loc 1 502 0
 1277 0022 45B1     		cbz	r5, .L78
 1278              	.LVL121:
 1279              	.LBB211:
 1280              	.LBB212:
 1281              		.loc 4 895 0
 1282 0024 0421     		movs	r1, #4
 1283 0026 6018     		adds	r0, r4, r1
 1284              	.LVL122:
 1285 0028 FFF7FEFF 		bl	chEvtBroadcastFlagsI
 1286              	.LVL123:
 1287              	.LBE212:
 1288              	.LBE211:
 1289              		.loc 1 507 0
 1290 002c 2946     		mov	r1, r5
 1291 002e 04F10C00 		add	r0, r4, #12
 1292 0032 FFF7FEFF 		bl	ibqPostFullBufferI
 1293              	.LVL124:
 1294              	.L78:
 1295              		.loc 1 513 0
 1296 0036 2046     		mov	r0, r4
 1297 0038 FFF7FEFF 		bl	sdu_start_receive
 1298              	.LVL125:
 1299              	.LBB213:
 1300              	.LBB214:
 1301              	.LBB215:
 1302              	.LBB216:
 1303              	.LBB217:
 1304              	.LBB218:
 1305              		.loc 3 493 0
 1306 003c 0023     		movs	r3, #0
 1307              		.syntax unified
 1308              	@ 493 "../../modules/ChibiOS/os/common/ext/ARM/CMSIS/Core/Include/cmsis_gcc.h" 1
 1309 003e 83F31188 		MSR basepri, r3
 1310              	@ 0 "" 2
 1311              	.LVL126:
ARM GAS  /tmp/ccx4e13q.s 			page 24


 1312              		.thumb
 1313              		.syntax unified
 1314              	.L76:
 1315 0042 38BD     		pop	{r3, r4, r5, pc}
 1316              	.LBE218:
 1317              	.LBE217:
 1318              	.LBE216:
 1319              	.LBE215:
 1320              	.LBE214:
 1321              	.LBE213:
 1322              		.cfi_endproc
 1323              	.LFE345:
 1324              		.size	sduDataReceived, .-sduDataReceived
 1325              		.section	.text.sduInterruptTransmitted,"ax",%progbits
 1326              		.align	1
 1327              		.global	sduInterruptTransmitted
 1328              		.syntax unified
 1329              		.thumb
 1330              		.thumb_func
 1331              		.fpu fpv4-sp-d16
 1332              		.type	sduInterruptTransmitted, %function
 1333              	sduInterruptTransmitted:
 1334              	.LFB346:
 1335              		.loc 1 526 0
 1336              		.cfi_startproc
 1337              		@ args = 0, pretend = 0, frame = 0
 1338              		@ frame_needed = 0, uses_anonymous_args = 0
 1339              		@ link register save eliminated.
 1340              	.LVL127:
 1341 0000 7047     		bx	lr
 1342              		.cfi_endproc
 1343              	.LFE346:
 1344              		.size	sduInterruptTransmitted, .-sduInterruptTransmitted
 1345              		.section	.text.sduControl,"ax",%progbits
 1346              		.align	1
 1347              		.global	sduControl
 1348              		.syntax unified
 1349              		.thumb
 1350              		.thumb_func
 1351              		.fpu fpv4-sp-d16
 1352              		.type	sduControl, %function
 1353              	sduControl:
 1354              	.LFB347:
 1355              		.loc 1 546 0
 1356              		.cfi_startproc
 1357              		@ args = 0, pretend = 0, frame = 0
 1358              		@ frame_needed = 0, uses_anonymous_args = 0
 1359              		@ link register save eliminated.
 1360              	.LVL128:
 1361              		.loc 1 549 0
 1362 0000 0020     		movs	r0, #0
 1363              	.LVL129:
 1364 0002 7047     		bx	lr
 1365              		.cfi_endproc
 1366              	.LFE347:
 1367              		.size	sduControl, .-sduControl
 1368              		.section	.data.linecoding,"aw",%progbits
ARM GAS  /tmp/ccx4e13q.s 			page 25


 1369              		.set	.LANCHOR1,. + 0
 1370              		.type	linecoding, %object
 1371              		.size	linecoding, 7
 1372              	linecoding:
 1373 0000 00       		.byte	0
 1374 0001 96       		.byte	-106
 1375 0002 00       		.byte	0
 1376 0003 00       		.byte	0
 1377 0004 00       		.byte	0
 1378 0005 00       		.byte	0
 1379 0006 08       		.byte	8
 1380              		.section	.rodata.vmt,"a",%progbits
 1381              		.align	2
 1382              		.set	.LANCHOR0,. + 0
 1383              		.type	vmt, %object
 1384              		.size	vmt, 40
 1385              	vmt:
 1386 0000 00000000 		.word	0
 1387 0004 00000000 		.word	_write
 1388 0008 00000000 		.word	_read
 1389 000c 00000000 		.word	_put
 1390 0010 00000000 		.word	_get
 1391 0014 00000000 		.word	_putt
 1392 0018 00000000 		.word	_gett
 1393 001c 00000000 		.word	_writet
 1394 0020 00000000 		.word	_readt
 1395 0024 00000000 		.word	_ctl
 1396              		.text
 1397              	.Letext0:
 1398              		.file 5 "/opt/gcc-arm-none-eabi-6-2017-q2-update/lib/gcc/arm-none-eabi/6.3.1/include/stddef.h"
 1399              		.file 6 "/opt/gcc-arm-none-eabi-6-2017-q2-update/arm-none-eabi/include/machine/_default_types.h"
 1400              		.file 7 "/opt/gcc-arm-none-eabi-6-2017-q2-update/arm-none-eabi/include/sys/_stdint.h"
 1401              		.file 8 "/opt/gcc-arm-none-eabi-6-2017-q2-update/arm-none-eabi/include/stdint.h"
 1402              		.file 9 "../../modules/ChibiOS/os/common/ports/ARMCMx/compilers/GCC/chtypes.h"
 1403              		.file 10 "../../modules/ChibiOS/os/rt/include/chsystypes.h"
 1404              		.file 11 "../../modules/ChibiOS/os/rt/include/chschd.h"
 1405              		.file 12 "../../modules/ChibiOS/os/rt/include/chtime.h"
 1406              		.file 13 "../../modules/ChibiOS/os/common/ext/ARM/CMSIS/Core/Include/core_cm4.h"
 1407              		.file 14 "../../modules/ChibiOS/os/common/ext/ST/STM32F4xx/system_stm32f4xx.h"
 1408              		.file 15 "../../modules/ChibiOS/os/common/ext/ST/STM32F4xx/stm32f427xx.h"
 1409              		.file 16 "../../modules/ChibiOS/os/common/ports/ARMCMx/chcore.h"
 1410              		.file 17 "../../modules/ChibiOS/os/common/ports/ARMCMx/chcore_v7m.h"
 1411              		.file 18 "../../modules/ChibiOS/os/hal/ports/STM32/LLD/TIMv1/stm32_tim.h"
 1412              		.file 19 "../../modules/ChibiOS/os/rt/include/chtm.h"
 1413              		.file 20 "../../modules/ChibiOS/os/rt/include/chsem.h"
 1414              		.file 21 "../../modules/ChibiOS/os/rt/include/chmtx.h"
 1415              		.file 22 "../../modules/ChibiOS/os/rt/include/chsys.h"
 1416              		.file 23 "../../modules/ChibiOS/os/rt/include/chregistry.h"
 1417              		.file 24 "../../modules/ChibiOS/os/oslib/include/chmemcore.h"
 1418              		.file 25 "../../modules/ChibiOS/os/oslib/include/chmempools.h"
 1419              		.file 26 "../../modules/ChibiOS/os/oslib/include/chfactory.h"
 1420              		.file 27 "../../modules/ChibiOS/os/hal/ports/STM32/LLD/DMAv2/stm32_dma.h"
 1421              		.file 28 "../../modules/ChibiOS/os/hal/include/hal_ioblock.h"
 1422              		.file 29 "../../modules/ChibiOS/os/hal/include/hal_buffers.h"
 1423              		.file 30 "../../modules/ChibiOS/os/hal/include/hal_queues.h"
 1424              		.file 31 "../../modules/ChibiOS/os/hal/include/hal_pal.h"
 1425              		.file 32 "../../modules/ChibiOS/os/hal/ports/STM32/LLD/GPIOv2/stm32_gpio.h"
ARM GAS  /tmp/ccx4e13q.s 			page 26


 1426              		.file 33 "../../modules/ChibiOS/os/hal/ports/STM32/LLD/GPIOv2/hal_pal_lld.h"
 1427              		.file 34 "../../modules/ChibiOS/os/hal/include/hal_adc.h"
 1428              		.file 35 "../../modules/ChibiOS/os/hal/ports/STM32/LLD/ADCv2/hal_adc_lld.h"
 1429              		.file 36 "../../modules/ChibiOS/os/hal/include/hal_i2c.h"
 1430              		.file 37 "../../modules/ChibiOS/os/hal/ports/STM32/LLD/I2Cv1/hal_i2c_lld.h"
 1431              		.file 38 "../../modules/ChibiOS/os/hal/include/hal_pwm.h"
 1432              		.file 39 "../../modules/ChibiOS/os/hal/ports/STM32/LLD/TIMv1/hal_pwm_lld.h"
 1433              		.file 40 "../../modules/ChibiOS/os/hal/include/hal_serial.h"
 1434              		.file 41 "../../modules/ChibiOS/os/hal/ports/STM32/LLD/USARTv1/hal_serial_lld.h"
 1435              		.file 42 "../../modules/ChibiOS/os/hal/include/hal_sdc.h"
 1436              		.file 43 "../../modules/ChibiOS/os/hal/ports/STM32/LLD/SDIOv1/hal_sdc_lld.h"
 1437              		.file 44 "../../modules/ChibiOS/os/hal/include/hal_spi.h"
 1438              		.file 45 "../../modules/ChibiOS/os/hal/ports/STM32/LLD/SPIv1/hal_spi_lld.h"
 1439              		.file 46 "../../modules/ChibiOS/os/hal/include/hal_usb.h"
 1440              		.file 47 "../../modules/ChibiOS/os/hal/ports/STM32/LLD/OTGv1/hal_usb_lld.h"
 1441              		.file 48 "../../modules/ChibiOS/os/hal/ports/STM32/LLD/OTGv1/stm32_otg.h"
 1442              		.file 49 "../../modules/ChibiOS/os/hal/include/hal_usb_cdc.h"
 1443              		.file 50 "../../modules/ChibiOS/os/hal/include/hal_serial_usb.h"
 1444              		.file 51 "../../modules/ChibiOS/os/rt/include/chthreads.h"