ARM GAS  /tmp/cc6AQaIW.s 			page 1


   1              		.cpu cortex-m4
   2              		.eabi_attribute 27, 1
   3              		.eabi_attribute 28, 1
   4              		.eabi_attribute 20, 1
   5              		.eabi_attribute 21, 1
   6              		.eabi_attribute 23, 3
   7              		.eabi_attribute 24, 1
   8              		.eabi_attribute 25, 1
   9              		.eabi_attribute 26, 1
  10              		.eabi_attribute 30, 4
  11              		.eabi_attribute 34, 1
  12              		.eabi_attribute 18, 4
  13              		.file	"hal_buffers.c"
  14              		.text
  15              	.Ltext0:
  16              		.cfi_sections	.debug_frame
  17              		.section	.text.ibqObjectInit,"ax",%progbits
  18              		.align	1
  19              		.global	ibqObjectInit
  20              		.syntax unified
  21              		.thumb
  22              		.thumb_func
  23              		.fpu fpv4-sp-d16
  24              		.type	ibqObjectInit, %function
  25              	ibqObjectInit:
  26              	.LFB323:
  27              		.file 1 "../../modules/ChibiOS/os/hal/src/hal_buffers.c"
  28              		.loc 1 77 0
  29              		.cfi_startproc
  30              		@ args = 12, pretend = 0, frame = 0
  31              		@ frame_needed = 0, uses_anonymous_args = 0
  32              	.LVL0:
  33 0000 30B5     		push	{r4, r5, lr}
  34              		.cfi_def_cfa_offset 12
  35              		.cfi_offset 4, -12
  36              		.cfi_offset 5, -8
  37              		.cfi_offset 14, -4
  38              		.loc 1 77 0
  39 0002 039C     		ldr	r4, [sp, #12]
  40              		.loc 1 82 0
  41 0004 0172     		strb	r1, [r0, #8]
  42              		.loc 1 86 0
  43 0006 0433     		adds	r3, r3, #4
  44              	.LVL1:
  45 0008 04FB0325 		mla	r5, r4, r3, r2
  46              		.loc 1 87 0
  47 000c C361     		str	r3, [r0, #28]
  48              		.loc 1 92 0
  49 000e 049B     		ldr	r3, [sp, #16]
  50              	.LVL2:
  51 0010 0363     		str	r3, [r0, #48]
  52              		.loc 1 83 0
  53 0012 0021     		movs	r1, #0
  54              	.LVL3:
  55              		.loc 1 93 0
  56 0014 059B     		ldr	r3, [sp, #20]
  57              	.LBB222:
ARM GAS  /tmp/cc6AQaIW.s 			page 2


  58              	.LBB223:
  59              	.LBB224:
  60              	.LBB225:
  61              		.file 2 "../../modules/ChibiOS/os/rt/include/chschd.h"
  62              		.loc 2 539 0
  63 0016 0060     		str	r0, [r0]
  64              		.loc 2 540 0
  65 0018 4060     		str	r0, [r0, #4]
  66              	.LVL4:
  67              	.LBE225:
  68              	.LBE224:
  69              	.LBE223:
  70              	.LBE222:
  71              		.loc 1 83 0
  72 001a C160     		str	r1, [r0, #12]
  73              		.loc 1 84 0
  74 001c 4261     		str	r2, [r0, #20]
  75              		.loc 1 85 0
  76 001e 0261     		str	r2, [r0, #16]
  77              		.loc 1 86 0
  78 0020 8561     		str	r5, [r0, #24]
  79              		.loc 1 88 0
  80 0022 0462     		str	r4, [r0, #32]
  81              		.loc 1 89 0
  82 0024 4262     		str	r2, [r0, #36]
  83              		.loc 1 90 0
  84 0026 8162     		str	r1, [r0, #40]
  85              		.loc 1 91 0
  86 0028 C162     		str	r1, [r0, #44]
  87              		.loc 1 93 0
  88 002a 4363     		str	r3, [r0, #52]
  89 002c 30BD     		pop	{r4, r5, pc}
  90              		.cfi_endproc
  91              	.LFE323:
  92              		.size	ibqObjectInit, .-ibqObjectInit
  93              		.section	.text.ibqResetI,"ax",%progbits
  94              		.align	1
  95              		.global	ibqResetI
  96              		.syntax unified
  97              		.thumb
  98              		.thumb_func
  99              		.fpu fpv4-sp-d16
 100              		.type	ibqResetI, %function
 101              	ibqResetI:
 102              	.LFB324:
 103              		.loc 1 107 0
 104              		.cfi_startproc
 105              		@ args = 0, pretend = 0, frame = 0
 106              		@ frame_needed = 0, uses_anonymous_args = 0
 107              		@ link register save eliminated.
 108              	.LVL5:
 109              		.loc 1 111 0
 110 0000 0022     		movs	r2, #0
 111              		.loc 1 112 0
 112 0002 416A     		ldr	r1, [r0, #36]
 113 0004 4161     		str	r1, [r0, #20]
 114              		.loc 1 113 0
ARM GAS  /tmp/cc6AQaIW.s 			page 3


 115 0006 0161     		str	r1, [r0, #16]
 116              		.loc 1 111 0
 117 0008 C260     		str	r2, [r0, #12]
 118              		.loc 1 114 0
 119 000a 8262     		str	r2, [r0, #40]
 120              		.loc 1 115 0
 121 000c C262     		str	r2, [r0, #44]
 122              	.LVL6:
 123              	.LBB226:
 124              	.LBB227:
 125              		.file 3 "../../modules/ChibiOS/os/hal/osal/rt/osal.h"
 126              		.loc 3 857 0
 127 000e 6FF00101 		mvn	r1, #1
 128 0012 FFF7FEBF 		b	chThdDequeueAllI
 129              	.LVL7:
 130              	.LBE227:
 131              	.LBE226:
 132              		.cfi_endproc
 133              	.LFE324:
 134              		.size	ibqResetI, .-ibqResetI
 135              		.section	.text.ibqGetEmptyBufferI,"ax",%progbits
 136              		.align	1
 137              		.global	ibqGetEmptyBufferI
 138              		.syntax unified
 139              		.thumb
 140              		.thumb_func
 141              		.fpu fpv4-sp-d16
 142              		.type	ibqGetEmptyBufferI, %function
 143              	ibqGetEmptyBufferI:
 144              	.LFB325:
 145              		.loc 1 129 0
 146              		.cfi_startproc
 147              		@ args = 0, pretend = 0, frame = 0
 148              		@ frame_needed = 0, uses_anonymous_args = 0
 149              		@ link register save eliminated.
 150              	.LVL8:
 151              		.loc 1 133 0
 152 0000 0369     		ldr	r3, [r0, #16]
 153 0002 4269     		ldr	r2, [r0, #20]
 154 0004 9342     		cmp	r3, r2
 155 0006 03D1     		bne	.L4
 156              		.loc 1 133 0 is_stmt 0 discriminator 1
 157 0008 C268     		ldr	r2, [r0, #12]
 158 000a 0AB1     		cbz	r2, .L4
 159              		.loc 1 134 0 is_stmt 1
 160 000c 0020     		movs	r0, #0
 161              	.LVL9:
 162 000e 7047     		bx	lr
 163              	.LVL10:
 164              	.L4:
 165              		.loc 1 137 0
 166 0010 181D     		adds	r0, r3, #4
 167              	.LVL11:
 168              		.loc 1 138 0
 169 0012 7047     		bx	lr
 170              		.cfi_endproc
 171              	.LFE325:
ARM GAS  /tmp/cc6AQaIW.s 			page 4


 172              		.size	ibqGetEmptyBufferI, .-ibqGetEmptyBufferI
 173              		.section	.text.ibqPostFullBufferI,"ax",%progbits
 174              		.align	1
 175              		.global	ibqPostFullBufferI
 176              		.syntax unified
 177              		.thumb
 178              		.thumb_func
 179              		.fpu fpv4-sp-d16
 180              		.type	ibqPostFullBufferI, %function
 181              	ibqPostFullBufferI:
 182              	.LFB326:
 183              		.loc 1 148 0
 184              		.cfi_startproc
 185              		@ args = 0, pretend = 0, frame = 0
 186              		@ frame_needed = 0, uses_anonymous_args = 0
 187              		@ link register save eliminated.
 188              	.LVL12:
 189              		.loc 1 156 0
 190 0000 0369     		ldr	r3, [r0, #16]
 191 0002 1960     		str	r1, [r3]
 192              		.loc 1 159 0
 193 0004 C268     		ldr	r2, [r0, #12]
 194 0006 0132     		adds	r2, r2, #1
 195 0008 C260     		str	r2, [r0, #12]
 196              		.loc 1 160 0
 197 000a C269     		ldr	r2, [r0, #28]
 198 000c 1344     		add	r3, r3, r2
 199              		.loc 1 161 0
 200 000e 8269     		ldr	r2, [r0, #24]
 201              		.loc 1 160 0
 202 0010 0361     		str	r3, [r0, #16]
 203              		.loc 1 161 0
 204 0012 9342     		cmp	r3, r2
 205              		.loc 1 162 0
 206 0014 24BF     		itt	cs
 207 0016 436A     		ldrcs	r3, [r0, #36]
 208 0018 0361     		strcs	r3, [r0, #16]
 209              	.LVL13:
 210              	.LBB228:
 211              	.LBB229:
 212              		.loc 3 844 0
 213 001a 0021     		movs	r1, #0
 214              	.LVL14:
 215 001c FFF7FEBF 		b	chThdDequeueNextI
 216              	.LVL15:
 217              	.LBE229:
 218              	.LBE228:
 219              		.cfi_endproc
 220              	.LFE326:
 221              		.size	ibqPostFullBufferI, .-ibqPostFullBufferI
 222              		.section	.text.ibqGetFullBufferTimeoutS,"ax",%progbits
 223              		.align	1
 224              		.global	ibqGetFullBufferTimeoutS
 225              		.syntax unified
 226              		.thumb
 227              		.thumb_func
 228              		.fpu fpv4-sp-d16
ARM GAS  /tmp/cc6AQaIW.s 			page 5


 229              		.type	ibqGetFullBufferTimeoutS, %function
 230              	ibqGetFullBufferTimeoutS:
 231              	.LFB328:
 232              		.loc 1 223 0
 233              		.cfi_startproc
 234              		@ args = 0, pretend = 0, frame = 0
 235              		@ frame_needed = 0, uses_anonymous_args = 0
 236              	.LVL16:
 237 0000 38B5     		push	{r3, r4, r5, lr}
 238              		.cfi_def_cfa_offset 16
 239              		.cfi_offset 3, -16
 240              		.cfi_offset 4, -12
 241              		.cfi_offset 5, -8
 242              		.cfi_offset 14, -4
 243 0002 0446     		mov	r4, r0
 244 0004 0D46     		mov	r5, r1
 245              	.LVL17:
 246              	.L12:
 247              		.loc 1 227 0
 248 0006 E368     		ldr	r3, [r4, #12]
 249 0008 3BB1     		cbz	r3, .L14
 250              	.LVL18:
 251              	.LBB238:
 252              	.LBB239:
 253              		.loc 1 240 0
 254 000a 6269     		ldr	r2, [r4, #20]
 255 000c 131D     		adds	r3, r2, #4
 256              		.loc 1 241 0
 257 000e 1268     		ldr	r2, [r2]
 258              		.loc 1 240 0
 259 0010 A362     		str	r3, [r4, #40]
 260              		.loc 1 241 0
 261 0012 1344     		add	r3, r3, r2
 262 0014 E362     		str	r3, [r4, #44]
 263              	.LVL19:
 264 0016 0020     		movs	r0, #0
 265 0018 38BD     		pop	{r3, r4, r5, pc}
 266              	.LVL20:
 267              	.L14:
 268              	.LBE239:
 269              	.LBE238:
 270              	.LBB240:
 271              		.loc 1 228 0
 272 001a 237A     		ldrb	r3, [r4, #8]	@ zero_extendqisi2
 273 001c 33B9     		cbnz	r3, .L15
 274              	.LVL21:
 275              	.LBB241:
 276              	.LBB242:
 277              		.loc 3 831 0
 278 001e 2946     		mov	r1, r5
 279 0020 2046     		mov	r0, r4
 280 0022 FFF7FEFF 		bl	chThdEnqueueTimeoutS
 281              	.LVL22:
 282              	.LBE242:
 283              	.LBE241:
 284              		.loc 1 232 0
 285 0026 0028     		cmp	r0, #0
ARM GAS  /tmp/cc6AQaIW.s 			page 6


 286 0028 EDDA     		bge	.L12
 287              	.L11:
 288              	.LBE240:
 289              		.loc 1 244 0
 290 002a 38BD     		pop	{r3, r4, r5, pc}
 291              	.LVL23:
 292              	.L15:
 293              	.LBB243:
 294              		.loc 1 229 0
 295 002c 6FF00100 		mvn	r0, #1
 296 0030 FBE7     		b	.L11
 297              	.LBE243:
 298              		.cfi_endproc
 299              	.LFE328:
 300              		.size	ibqGetFullBufferTimeoutS, .-ibqGetFullBufferTimeoutS
 301              		.section	.text.ibqGetFullBufferTimeout,"ax",%progbits
 302              		.align	1
 303              		.global	ibqGetFullBufferTimeout
 304              		.syntax unified
 305              		.thumb
 306              		.thumb_func
 307              		.fpu fpv4-sp-d16
 308              		.type	ibqGetFullBufferTimeout, %function
 309              	ibqGetFullBufferTimeout:
 310              	.LFB327:
 311              		.loc 1 191 0
 312              		.cfi_startproc
 313              		@ args = 0, pretend = 0, frame = 0
 314              		@ frame_needed = 0, uses_anonymous_args = 0
 315              	.LVL24:
 316 0000 08B5     		push	{r3, lr}
 317              		.cfi_def_cfa_offset 8
 318              		.cfi_offset 3, -8
 319              		.cfi_offset 14, -4
 320              	.LBB244:
 321              	.LBB245:
 322              	.LBB246:
 323              	.LBB247:
 324              	.LBB248:
 325              		.file 4 "../../modules/ChibiOS/os/common/ext/ARM/CMSIS/Core/Include/cmsis_gcc.h"
 326              		.loc 4 493 0
 327 0002 2023     		movs	r3, #32
 328              		.syntax unified
 329              	@ 493 "../../modules/ChibiOS/os/common/ext/ARM/CMSIS/Core/Include/cmsis_gcc.h" 1
 330 0004 83F31188 		MSR basepri, r3
 331              	@ 0 "" 2
 332              	.LVL25:
 333              		.thumb
 334              		.syntax unified
 335              	.LBE248:
 336              	.LBE247:
 337              	.LBE246:
 338              	.LBE245:
 339              	.LBE244:
 340              		.loc 1 195 0
 341 0008 FFF7FEFF 		bl	ibqGetFullBufferTimeoutS
 342              	.LVL26:
ARM GAS  /tmp/cc6AQaIW.s 			page 7


 343              	.LBB249:
 344              	.LBB250:
 345              	.LBB251:
 346              	.LBB252:
 347              	.LBB253:
 348              	.LBB254:
 349              		.loc 4 493 0
 350 000c 0023     		movs	r3, #0
 351              		.syntax unified
 352              	@ 493 "../../modules/ChibiOS/os/common/ext/ARM/CMSIS/Core/Include/cmsis_gcc.h" 1
 353 000e 83F31188 		MSR basepri, r3
 354              	@ 0 "" 2
 355              	.LVL27:
 356              		.thumb
 357              		.syntax unified
 358              	.LBE254:
 359              	.LBE253:
 360              	.LBE252:
 361              	.LBE251:
 362              	.LBE250:
 363              	.LBE249:
 364              		.loc 1 199 0
 365 0012 08BD     		pop	{r3, pc}
 366              		.cfi_endproc
 367              	.LFE327:
 368              		.size	ibqGetFullBufferTimeout, .-ibqGetFullBufferTimeout
 369              		.section	.text.ibqReleaseEmptyBufferS,"ax",%progbits
 370              		.align	1
 371              		.global	ibqReleaseEmptyBufferS
 372              		.syntax unified
 373              		.thumb
 374              		.thumb_func
 375              		.fpu fpv4-sp-d16
 376              		.type	ibqReleaseEmptyBufferS, %function
 377              	ibqReleaseEmptyBufferS:
 378              	.LFB330:
 379              		.loc 1 269 0
 380              		.cfi_startproc
 381              		@ args = 0, pretend = 0, frame = 0
 382              		@ frame_needed = 0, uses_anonymous_args = 0
 383              		@ link register save eliminated.
 384              	.LVL28:
 385              		.loc 1 275 0
 386 0000 C368     		ldr	r3, [r0, #12]
 387              		.loc 1 276 0
 388 0002 C269     		ldr	r2, [r0, #28]
 389              		.loc 1 275 0
 390 0004 013B     		subs	r3, r3, #1
 391 0006 C360     		str	r3, [r0, #12]
 392              		.loc 1 276 0
 393 0008 4369     		ldr	r3, [r0, #20]
 394 000a 1344     		add	r3, r3, r2
 395              		.loc 1 277 0
 396 000c 8269     		ldr	r2, [r0, #24]
 397              		.loc 1 276 0
 398 000e 4361     		str	r3, [r0, #20]
 399              		.loc 1 277 0
ARM GAS  /tmp/cc6AQaIW.s 			page 8


 400 0010 9342     		cmp	r3, r2
 401              		.loc 1 278 0
 402 0012 24BF     		itt	cs
 403 0014 436A     		ldrcs	r3, [r0, #36]
 404 0016 4361     		strcs	r3, [r0, #20]
 405              		.loc 1 282 0
 406 0018 0023     		movs	r3, #0
 407 001a 8362     		str	r3, [r0, #40]
 408              		.loc 1 285 0
 409 001c 036B     		ldr	r3, [r0, #48]
 410 001e 03B1     		cbz	r3, .L17
 411              		.loc 1 286 0
 412 0020 1847     		bx	r3	@ indirect register sibling call
 413              	.LVL29:
 414              	.L17:
 415 0022 7047     		bx	lr
 416              		.cfi_endproc
 417              	.LFE330:
 418              		.size	ibqReleaseEmptyBufferS, .-ibqReleaseEmptyBufferS
 419              		.section	.text.ibqReleaseEmptyBuffer,"ax",%progbits
 420              		.align	1
 421              		.global	ibqReleaseEmptyBuffer
 422              		.syntax unified
 423              		.thumb
 424              		.thumb_func
 425              		.fpu fpv4-sp-d16
 426              		.type	ibqReleaseEmptyBuffer, %function
 427              	ibqReleaseEmptyBuffer:
 428              	.LFB329:
 429              		.loc 1 254 0
 430              		.cfi_startproc
 431              		@ args = 0, pretend = 0, frame = 0
 432              		@ frame_needed = 0, uses_anonymous_args = 0
 433              	.LVL30:
 434 0000 08B5     		push	{r3, lr}
 435              		.cfi_def_cfa_offset 8
 436              		.cfi_offset 3, -8
 437              		.cfi_offset 14, -4
 438              	.LBB255:
 439              	.LBB256:
 440              	.LBB257:
 441              	.LBB258:
 442              	.LBB259:
 443              		.loc 4 493 0
 444 0002 2023     		movs	r3, #32
 445              		.syntax unified
 446              	@ 493 "../../modules/ChibiOS/os/common/ext/ARM/CMSIS/Core/Include/cmsis_gcc.h" 1
 447 0004 83F31188 		MSR basepri, r3
 448              	@ 0 "" 2
 449              	.LVL31:
 450              		.thumb
 451              		.syntax unified
 452              	.LBE259:
 453              	.LBE258:
 454              	.LBE257:
 455              	.LBE256:
 456              	.LBE255:
ARM GAS  /tmp/cc6AQaIW.s 			page 9


 457              		.loc 1 257 0
 458 0008 FFF7FEFF 		bl	ibqReleaseEmptyBufferS
 459              	.LVL32:
 460              	.LBB260:
 461              	.LBB261:
 462              	.LBB262:
 463              	.LBB263:
 464              	.LBB264:
 465              	.LBB265:
 466              		.loc 4 493 0
 467 000c 0023     		movs	r3, #0
 468              		.syntax unified
 469              	@ 493 "../../modules/ChibiOS/os/common/ext/ARM/CMSIS/Core/Include/cmsis_gcc.h" 1
 470 000e 83F31188 		MSR basepri, r3
 471              	@ 0 "" 2
 472              	.LVL33:
 473              		.thumb
 474              		.syntax unified
 475 0012 08BD     		pop	{r3, pc}
 476              	.LBE265:
 477              	.LBE264:
 478              	.LBE263:
 479              	.LBE262:
 480              	.LBE261:
 481              	.LBE260:
 482              		.cfi_endproc
 483              	.LFE329:
 484              		.size	ibqReleaseEmptyBuffer, .-ibqReleaseEmptyBuffer
 485              		.section	.text.ibqGetTimeout,"ax",%progbits
 486              		.align	1
 487              		.global	ibqGetTimeout
 488              		.syntax unified
 489              		.thumb
 490              		.thumb_func
 491              		.fpu fpv4-sp-d16
 492              		.type	ibqGetTimeout, %function
 493              	ibqGetTimeout:
 494              	.LFB331:
 495              		.loc 1 309 0
 496              		.cfi_startproc
 497              		@ args = 0, pretend = 0, frame = 0
 498              		@ frame_needed = 0, uses_anonymous_args = 0
 499              	.LVL34:
 500 0000 70B5     		push	{r4, r5, r6, lr}
 501              		.cfi_def_cfa_offset 16
 502              		.cfi_offset 4, -16
 503              		.cfi_offset 5, -12
 504              		.cfi_offset 6, -8
 505              		.cfi_offset 14, -4
 506              	.LBB266:
 507              	.LBB267:
 508              	.LBB268:
 509              	.LBB269:
 510              	.LBB270:
 511              		.loc 4 493 0
 512 0002 2023     		movs	r3, #32
 513              	.LBE270:
ARM GAS  /tmp/cc6AQaIW.s 			page 10


 514              	.LBE269:
 515              	.LBE268:
 516              	.LBE267:
 517              	.LBE266:
 518              		.loc 1 309 0
 519 0004 0446     		mov	r4, r0
 520              	.LBB275:
 521              	.LBB274:
 522              	.LBB273:
 523              	.LBB272:
 524              	.LBB271:
 525              		.loc 4 493 0
 526              		.syntax unified
 527              	@ 493 "../../modules/ChibiOS/os/common/ext/ARM/CMSIS/Core/Include/cmsis_gcc.h" 1
 528 0006 83F31188 		MSR basepri, r3
 529              	@ 0 "" 2
 530              	.LVL35:
 531              		.thumb
 532              		.syntax unified
 533              	.LBE271:
 534              	.LBE272:
 535              	.LBE273:
 536              	.LBE274:
 537              	.LBE275:
 538              		.loc 1 315 0
 539 000a 866A     		ldr	r6, [r0, #40]
 540 000c 3EB9     		cbnz	r6, .L22
 541              		.loc 1 316 0
 542 000e FFF7FEFF 		bl	ibqGetFullBufferTimeoutS
 543              	.LVL36:
 544              		.loc 1 317 0
 545 0012 0546     		mov	r5, r0
 546 0014 18B1     		cbz	r0, .L22
 547              	.LVL37:
 548              	.LBB276:
 549              	.LBB277:
 550              	.LBB278:
 551              	.LBB279:
 552              	.LBB280:
 553              	.LBB281:
 554              		.loc 4 493 0
 555              		.syntax unified
 556              	@ 493 "../../modules/ChibiOS/os/common/ext/ARM/CMSIS/Core/Include/cmsis_gcc.h" 1
 557 0016 86F31188 		MSR basepri, r6
 558              	@ 0 "" 2
 559              	.LVL38:
 560              		.thumb
 561              		.syntax unified
 562              	.L21:
 563              	.LBE281:
 564              	.LBE280:
 565              	.LBE279:
 566              	.LBE278:
 567              	.LBE277:
 568              	.LBE276:
 569              		.loc 1 335 0
 570 001a 2846     		mov	r0, r5
ARM GAS  /tmp/cc6AQaIW.s 			page 11


 571 001c 70BD     		pop	{r4, r5, r6, pc}
 572              	.LVL39:
 573              	.L22:
 574              		.loc 1 324 0
 575 001e A36A     		ldr	r3, [r4, #40]
 576              		.loc 1 329 0
 577 0020 E26A     		ldr	r2, [r4, #44]
 578              		.loc 1 324 0
 579 0022 13F8015B 		ldrb	r5, [r3], #1	@ zero_extendqisi2
 580              	.LVL40:
 581              		.loc 1 325 0
 582 0026 A362     		str	r3, [r4, #40]
 583              		.loc 1 329 0
 584 0028 9342     		cmp	r3, r2
 585 002a 02D3     		bcc	.L24
 586              		.loc 1 330 0
 587 002c 2046     		mov	r0, r4
 588 002e FFF7FEFF 		bl	ibqReleaseEmptyBufferS
 589              	.LVL41:
 590              	.L24:
 591              	.LBB282:
 592              	.LBB283:
 593              	.LBB284:
 594              	.LBB285:
 595              	.LBB286:
 596              	.LBB287:
 597              		.loc 4 493 0
 598 0032 0023     		movs	r3, #0
 599              		.syntax unified
 600              	@ 493 "../../modules/ChibiOS/os/common/ext/ARM/CMSIS/Core/Include/cmsis_gcc.h" 1
 601 0034 83F31188 		MSR basepri, r3
 602              	@ 0 "" 2
 603              	.LVL42:
 604              		.thumb
 605              		.syntax unified
 606              	.LBE287:
 607              	.LBE286:
 608              	.LBE285:
 609              	.LBE284:
 610              	.LBE283:
 611              	.LBE282:
 612              		.loc 1 334 0
 613 0038 EFE7     		b	.L21
 614              		.cfi_endproc
 615              	.LFE331:
 616              		.size	ibqGetTimeout, .-ibqGetTimeout
 617              		.section	.text.ibqReadTimeout,"ax",%progbits
 618              		.align	1
 619              		.global	ibqReadTimeout
 620              		.syntax unified
 621              		.thumb
 622              		.thumb_func
 623              		.fpu fpv4-sp-d16
 624              		.type	ibqReadTimeout, %function
 625              	ibqReadTimeout:
 626              	.LFB332:
 627              		.loc 1 359 0
ARM GAS  /tmp/cc6AQaIW.s 			page 12


 628              		.cfi_startproc
 629              		@ args = 0, pretend = 0, frame = 0
 630              		@ frame_needed = 0, uses_anonymous_args = 0
 631              	.LVL43:
 632 0000 2DE9F84F 		push	{r3, r4, r5, r6, r7, r8, r9, r10, fp, lr}
 633              		.cfi_def_cfa_offset 40
 634              		.cfi_offset 3, -40
 635              		.cfi_offset 4, -36
 636              		.cfi_offset 5, -32
 637              		.cfi_offset 6, -28
 638              		.cfi_offset 7, -24
 639              		.cfi_offset 8, -20
 640              		.cfi_offset 9, -16
 641              		.cfi_offset 10, -12
 642              		.cfi_offset 11, -8
 643              		.cfi_offset 14, -4
 644              		.loc 1 359 0
 645 0004 0446     		mov	r4, r0
 646 0006 0E46     		mov	r6, r1
 647 0008 9046     		mov	r8, r2
 648 000a 9946     		mov	r9, r3
 649              	.LBB288:
 650              	.LBB289:
 651              	.LBB290:
 652              	.LBB291:
 653              	.LBB292:
 654              		.loc 4 493 0
 655 000c 2027     		movs	r7, #32
 656              		.syntax unified
 657              	@ 493 "../../modules/ChibiOS/os/common/ext/ARM/CMSIS/Core/Include/cmsis_gcc.h" 1
 658 000e 87F31188 		MSR basepri, r7
 659              	@ 0 "" 2
 660              	.LVL44:
 661              		.thumb
 662              		.syntax unified
 663              	.LBE292:
 664              	.LBE291:
 665              	.LBE290:
 666              	.LBE289:
 667              	.LBE288:
 668              		.loc 1 360 0
 669 0012 0025     		movs	r5, #0
 670              	.LBB293:
 671              	.LBB294:
 672              	.LBB295:
 673              	.LBB296:
 674              	.LBB297:
 675              	.LBB298:
 676              	.LBB299:
 677              		.loc 4 493 0
 678 0014 AA46     		mov	r10, r5
 679              	.LVL45:
 680              	.L35:
 681              	.LBE299:
 682              	.LBE298:
 683              	.LBE297:
 684              	.LBE296:
ARM GAS  /tmp/cc6AQaIW.s 			page 13


 685              	.LBE295:
 686              	.LBE294:
 687              		.loc 1 370 0
 688 0016 D4F828B0 		ldr	fp, [r4, #40]
 689 001a BBF1000F 		cmp	fp, #0
 690 001e 09D1     		bne	.L29
 691              	.LBB305:
 692              		.loc 1 374 0
 693 0020 4946     		mov	r1, r9
 694 0022 2046     		mov	r0, r4
 695 0024 FFF7FEFF 		bl	ibqGetFullBufferTimeoutS
 696              	.LVL46:
 697              		.loc 1 377 0
 698 0028 20B1     		cbz	r0, .L29
 699              	.LVL47:
 700              	.LBB306:
 701              	.LBB307:
 702              	.LBB308:
 703              	.LBB309:
 704              	.LBB310:
 705              	.LBB311:
 706              		.loc 4 493 0
 707              		.syntax unified
 708              	@ 493 "../../modules/ChibiOS/os/common/ext/ARM/CMSIS/Core/Include/cmsis_gcc.h" 1
 709 002a 8BF31188 		MSR basepri, fp
 710              	@ 0 "" 2
 711              	.LVL48:
 712              		.thumb
 713              		.syntax unified
 714              	.L28:
 715              	.LBE311:
 716              	.LBE310:
 717              	.LBE309:
 718              	.LBE308:
 719              	.LBE307:
 720              	.LBE306:
 721              	.LBE305:
 722              	.LBE293:
 723              		.loc 1 417 0
 724 002e 2846     		mov	r0, r5
 725 0030 BDE8F88F 		pop	{r3, r4, r5, r6, r7, r8, r9, r10, fp, pc}
 726              	.LVL49:
 727              	.L29:
 728              	.LBB318:
 729              		.loc 1 384 0
 730 0034 A16A     		ldr	r1, [r4, #40]
 731 0036 E36A     		ldr	r3, [r4, #44]
 732              		.loc 1 385 0
 733 0038 A8EB050B 		sub	fp, r8, r5
 734              		.loc 1 384 0
 735 003c 5B1A     		subs	r3, r3, r1
 736              	.LVL50:
 737 003e 9B45     		cmp	fp, r3
 738 0040 28BF     		it	cs
 739 0042 9B46     		movcs	fp, r3
 740              	.LVL51:
 741              		.loc 1 391 0
ARM GAS  /tmp/cc6AQaIW.s 			page 14


 742 0044 BBF1400F 		cmp	fp, #64
 743 0048 1BD9     		bls	.L31
 744              		.loc 1 393 0
 745 004a 3346     		mov	r3, r6
 746 004c 01F14002 		add	r2, r1, #64
 747              	.L32:
 748 0050 51F8040B 		ldr	r0, [r1], #4	@ unaligned
 749 0054 43F8040B 		str	r0, [r3], #4	@ unaligned
 750 0058 9142     		cmp	r1, r2
 751 005a F9D1     		bne	.L32
 752              		.loc 1 395 0
 753 005c A36A     		ldr	r3, [r4, #40]
 754 005e 4033     		adds	r3, r3, #64
 755              		.loc 1 394 0
 756 0060 4036     		adds	r6, r6, #64
 757              	.LVL52:
 758              		.loc 1 395 0
 759 0062 A362     		str	r3, [r4, #40]
 760              		.loc 1 396 0
 761 0064 4035     		adds	r5, r5, #64
 762              	.LVL53:
 763              	.L33:
 764              		.loc 1 406 0
 765 0066 A26A     		ldr	r2, [r4, #40]
 766 0068 E36A     		ldr	r3, [r4, #44]
 767 006a 9A42     		cmp	r2, r3
 768 006c 02D3     		bcc	.L34
 769              		.loc 1 407 0
 770 006e 2046     		mov	r0, r4
 771 0070 FFF7FEFF 		bl	ibqReleaseEmptyBufferS
 772              	.LVL54:
 773              	.L34:
 774              	.LBB312:
 775              	.LBB304:
 776              	.LBB303:
 777              	.LBB302:
 778              	.LBB301:
 779              	.LBB300:
 780              		.loc 4 493 0
 781              		.syntax unified
 782              	@ 493 "../../modules/ChibiOS/os/common/ext/ARM/CMSIS/Core/Include/cmsis_gcc.h" 1
 783 0074 8AF31188 		MSR basepri, r10
 784              	@ 0 "" 2
 785              	.LVL55:
 786              		.thumb
 787              		.syntax unified
 788              	.LBE300:
 789              	.LBE301:
 790              	.LBE302:
 791              	.LBE303:
 792              	.LBE304:
 793              	.LBE312:
 794              		.loc 1 412 0
 795 0078 4545     		cmp	r5, r8
 796 007a D8D2     		bcs	.L28
 797              	.LVL56:
 798              	.LBB313:
ARM GAS  /tmp/cc6AQaIW.s 			page 15


 799              	.LBB314:
 800              	.LBB315:
 801              	.LBB316:
 802              	.LBB317:
 803              		.loc 4 493 0
 804              		.syntax unified
 805              	@ 493 "../../modules/ChibiOS/os/common/ext/ARM/CMSIS/Core/Include/cmsis_gcc.h" 1
 806 007c 87F31188 		MSR basepri, r7
 807              	@ 0 "" 2
 808              	.LVL57:
 809              		.thumb
 810              		.syntax unified
 811 0080 C9E7     		b	.L35
 812              	.L31:
 813              	.LBE317:
 814              	.LBE316:
 815              	.LBE315:
 816              	.LBE314:
 817              	.LBE313:
 818              		.loc 1 399 0
 819 0082 3046     		mov	r0, r6
 820 0084 5A46     		mov	r2, fp
 821 0086 FFF7FEFF 		bl	memcpy
 822              	.LVL58:
 823              		.loc 1 401 0
 824 008a A36A     		ldr	r3, [r4, #40]
 825 008c 5B44     		add	r3, r3, fp
 826              		.loc 1 400 0
 827 008e 5E44     		add	r6, r6, fp
 828              	.LVL59:
 829              		.loc 1 401 0
 830 0090 A362     		str	r3, [r4, #40]
 831              		.loc 1 402 0
 832 0092 5D44     		add	r5, r5, fp
 833              	.LVL60:
 834 0094 E7E7     		b	.L33
 835              	.LBE318:
 836              		.cfi_endproc
 837              	.LFE332:
 838              		.size	ibqReadTimeout, .-ibqReadTimeout
 839              		.section	.text.obqObjectInit,"ax",%progbits
 840              		.align	1
 841              		.global	obqObjectInit
 842              		.syntax unified
 843              		.thumb
 844              		.thumb_func
 845              		.fpu fpv4-sp-d16
 846              		.type	obqObjectInit, %function
 847              	obqObjectInit:
 848              	.LFB333:
 849              		.loc 1 433 0
 850              		.cfi_startproc
 851              		@ args = 12, pretend = 0, frame = 0
 852              		@ frame_needed = 0, uses_anonymous_args = 0
 853              	.LVL61:
 854 0000 10B5     		push	{r4, lr}
 855              		.cfi_def_cfa_offset 8
ARM GAS  /tmp/cc6AQaIW.s 			page 16


 856              		.cfi_offset 4, -8
 857              		.cfi_offset 14, -4
 858              		.loc 1 433 0
 859 0002 029C     		ldr	r4, [sp, #8]
 860              		.loc 1 438 0
 861 0004 0172     		strb	r1, [r0, #8]
 862              		.loc 1 442 0
 863 0006 0433     		adds	r3, r3, #4
 864              	.LVL62:
 865 0008 03FB0421 		mla	r1, r3, r4, r2
 866              	.LVL63:
 867              		.loc 1 443 0
 868 000c C361     		str	r3, [r0, #28]
 869              		.loc 1 446 0
 870 000e 0023     		movs	r3, #0
 871              	.LVL64:
 872 0010 8362     		str	r3, [r0, #40]
 873              		.loc 1 447 0
 874 0012 C362     		str	r3, [r0, #44]
 875              		.loc 1 448 0
 876 0014 039B     		ldr	r3, [sp, #12]
 877 0016 0363     		str	r3, [r0, #48]
 878              		.loc 1 449 0
 879 0018 049B     		ldr	r3, [sp, #16]
 880              	.LBB319:
 881              	.LBB320:
 882              	.LBB321:
 883              	.LBB322:
 884              		.loc 2 539 0
 885 001a 0060     		str	r0, [r0]
 886              		.loc 2 540 0
 887 001c 4060     		str	r0, [r0, #4]
 888              	.LVL65:
 889              	.LBE322:
 890              	.LBE321:
 891              	.LBE320:
 892              	.LBE319:
 893              		.loc 1 439 0
 894 001e C460     		str	r4, [r0, #12]
 895              		.loc 1 440 0
 896 0020 4261     		str	r2, [r0, #20]
 897              		.loc 1 441 0
 898 0022 0261     		str	r2, [r0, #16]
 899              		.loc 1 442 0
 900 0024 8161     		str	r1, [r0, #24]
 901              		.loc 1 444 0
 902 0026 0462     		str	r4, [r0, #32]
 903              		.loc 1 445 0
 904 0028 4262     		str	r2, [r0, #36]
 905              		.loc 1 449 0
 906 002a 4363     		str	r3, [r0, #52]
 907 002c 10BD     		pop	{r4, pc}
 908              		.cfi_endproc
 909              	.LFE333:
 910              		.size	obqObjectInit, .-obqObjectInit
 911              		.section	.text.obqResetI,"ax",%progbits
 912              		.align	1
ARM GAS  /tmp/cc6AQaIW.s 			page 17


 913              		.global	obqResetI
 914              		.syntax unified
 915              		.thumb
 916              		.thumb_func
 917              		.fpu fpv4-sp-d16
 918              		.type	obqResetI, %function
 919              	obqResetI:
 920              	.LFB334:
 921              		.loc 1 463 0
 922              		.cfi_startproc
 923              		@ args = 0, pretend = 0, frame = 0
 924              		@ frame_needed = 0, uses_anonymous_args = 0
 925              		@ link register save eliminated.
 926              	.LVL66:
 927              		.loc 1 467 0
 928 0000 026A     		ldr	r2, [r0, #32]
 929 0002 C260     		str	r2, [r0, #12]
 930              		.loc 1 468 0
 931 0004 426A     		ldr	r2, [r0, #36]
 932 0006 4261     		str	r2, [r0, #20]
 933              		.loc 1 469 0
 934 0008 0261     		str	r2, [r0, #16]
 935              		.loc 1 470 0
 936 000a 0022     		movs	r2, #0
 937 000c 8262     		str	r2, [r0, #40]
 938              		.loc 1 471 0
 939 000e C262     		str	r2, [r0, #44]
 940              	.LVL67:
 941              	.LBB323:
 942              	.LBB324:
 943              		.loc 3 857 0
 944 0010 6FF00101 		mvn	r1, #1
 945 0014 FFF7FEBF 		b	chThdDequeueAllI
 946              	.LVL68:
 947              	.LBE324:
 948              	.LBE323:
 949              		.cfi_endproc
 950              	.LFE334:
 951              		.size	obqResetI, .-obqResetI
 952              		.section	.text.obqGetFullBufferI,"ax",%progbits
 953              		.align	1
 954              		.global	obqGetFullBufferI
 955              		.syntax unified
 956              		.thumb
 957              		.thumb_func
 958              		.fpu fpv4-sp-d16
 959              		.type	obqGetFullBufferI, %function
 960              	obqGetFullBufferI:
 961              	.LFB335:
 962              		.loc 1 487 0
 963              		.cfi_startproc
 964              		@ args = 0, pretend = 0, frame = 0
 965              		@ frame_needed = 0, uses_anonymous_args = 0
 966              		@ link register save eliminated.
 967              	.LVL69:
 968              		.loc 1 491 0
 969 0000 4369     		ldr	r3, [r0, #20]
ARM GAS  /tmp/cc6AQaIW.s 			page 18


 970 0002 0269     		ldr	r2, [r0, #16]
 971 0004 9A42     		cmp	r2, r3
 972 0006 03D1     		bne	.L43
 973              		.loc 1 491 0 is_stmt 0 discriminator 1
 974 0008 C268     		ldr	r2, [r0, #12]
 975 000a 0AB1     		cbz	r2, .L43
 976              		.loc 1 492 0 is_stmt 1
 977 000c 0020     		movs	r0, #0
 978              	.LVL70:
 979 000e 7047     		bx	lr
 980              	.LVL71:
 981              	.L43:
 982              		.loc 1 496 0
 983 0010 1846     		mov	r0, r3
 984              	.LVL72:
 985 0012 50F8043B 		ldr	r3, [r0], #4
 986 0016 0B60     		str	r3, [r1]
 987              		.loc 1 499 0
 988 0018 7047     		bx	lr
 989              		.cfi_endproc
 990              	.LFE335:
 991              		.size	obqGetFullBufferI, .-obqGetFullBufferI
 992              		.section	.text.obqReleaseEmptyBufferI,"ax",%progbits
 993              		.align	1
 994              		.global	obqReleaseEmptyBufferI
 995              		.syntax unified
 996              		.thumb
 997              		.thumb_func
 998              		.fpu fpv4-sp-d16
 999              		.type	obqReleaseEmptyBufferI, %function
 1000              	obqReleaseEmptyBufferI:
 1001              	.LFB336:
 1002              		.loc 1 508 0
 1003              		.cfi_startproc
 1004              		@ args = 0, pretend = 0, frame = 0
 1005              		@ frame_needed = 0, uses_anonymous_args = 0
 1006              		@ link register save eliminated.
 1007              	.LVL73:
 1008              		.loc 1 514 0
 1009 0000 C368     		ldr	r3, [r0, #12]
 1010              		.loc 1 515 0
 1011 0002 C269     		ldr	r2, [r0, #28]
 1012              		.loc 1 514 0
 1013 0004 0133     		adds	r3, r3, #1
 1014 0006 C360     		str	r3, [r0, #12]
 1015              		.loc 1 515 0
 1016 0008 4369     		ldr	r3, [r0, #20]
 1017 000a 1344     		add	r3, r3, r2
 1018              		.loc 1 516 0
 1019 000c 8269     		ldr	r2, [r0, #24]
 1020              		.loc 1 515 0
 1021 000e 4361     		str	r3, [r0, #20]
 1022              		.loc 1 516 0
 1023 0010 9342     		cmp	r3, r2
 1024              		.loc 1 517 0
 1025 0012 24BF     		itt	cs
 1026 0014 436A     		ldrcs	r3, [r0, #36]
ARM GAS  /tmp/cc6AQaIW.s 			page 19


 1027 0016 4361     		strcs	r3, [r0, #20]
 1028              	.LVL74:
 1029              	.LBB325:
 1030              	.LBB326:
 1031              		.loc 3 844 0
 1032 0018 0021     		movs	r1, #0
 1033 001a FFF7FEBF 		b	chThdDequeueNextI
 1034              	.LVL75:
 1035              	.LBE326:
 1036              	.LBE325:
 1037              		.cfi_endproc
 1038              	.LFE336:
 1039              		.size	obqReleaseEmptyBufferI, .-obqReleaseEmptyBufferI
 1040              		.section	.text.obqGetEmptyBufferTimeoutS,"ax",%progbits
 1041              		.align	1
 1042              		.global	obqGetEmptyBufferTimeoutS
 1043              		.syntax unified
 1044              		.thumb
 1045              		.thumb_func
 1046              		.fpu fpv4-sp-d16
 1047              		.type	obqGetEmptyBufferTimeoutS, %function
 1048              	obqGetEmptyBufferTimeoutS:
 1049              	.LFB338:
 1050              		.loc 1 578 0
 1051              		.cfi_startproc
 1052              		@ args = 0, pretend = 0, frame = 0
 1053              		@ frame_needed = 0, uses_anonymous_args = 0
 1054              	.LVL76:
 1055 0000 38B5     		push	{r3, r4, r5, lr}
 1056              		.cfi_def_cfa_offset 16
 1057              		.cfi_offset 3, -16
 1058              		.cfi_offset 4, -12
 1059              		.cfi_offset 5, -8
 1060              		.cfi_offset 14, -4
 1061 0002 0446     		mov	r4, r0
 1062 0004 0D46     		mov	r5, r1
 1063              	.LVL77:
 1064              	.L51:
 1065              		.loc 1 582 0
 1066 0006 E368     		ldr	r3, [r4, #12]
 1067 0008 3BB1     		cbz	r3, .L53
 1068              	.LVL78:
 1069              	.LBB335:
 1070              	.LBB336:
 1071              		.loc 1 595 0
 1072 000a 2369     		ldr	r3, [r4, #16]
 1073 000c 1A1D     		adds	r2, r3, #4
 1074 000e A262     		str	r2, [r4, #40]
 1075              		.loc 1 596 0
 1076 0010 E269     		ldr	r2, [r4, #28]
 1077 0012 1344     		add	r3, r3, r2
 1078 0014 E362     		str	r3, [r4, #44]
 1079              	.LVL79:
 1080 0016 0020     		movs	r0, #0
 1081 0018 38BD     		pop	{r3, r4, r5, pc}
 1082              	.LVL80:
 1083              	.L53:
ARM GAS  /tmp/cc6AQaIW.s 			page 20


 1084              	.LBE336:
 1085              	.LBE335:
 1086              	.LBB337:
 1087              		.loc 1 583 0
 1088 001a 237A     		ldrb	r3, [r4, #8]	@ zero_extendqisi2
 1089 001c 33B9     		cbnz	r3, .L54
 1090              	.LVL81:
 1091              	.LBB338:
 1092              	.LBB339:
 1093              		.loc 3 831 0
 1094 001e 2946     		mov	r1, r5
 1095 0020 2046     		mov	r0, r4
 1096 0022 FFF7FEFF 		bl	chThdEnqueueTimeoutS
 1097              	.LVL82:
 1098              	.LBE339:
 1099              	.LBE338:
 1100              		.loc 1 587 0
 1101 0026 0028     		cmp	r0, #0
 1102 0028 EDDA     		bge	.L51
 1103              	.L50:
 1104              	.LBE337:
 1105              		.loc 1 599 0
 1106 002a 38BD     		pop	{r3, r4, r5, pc}
 1107              	.LVL83:
 1108              	.L54:
 1109              	.LBB340:
 1110              		.loc 1 584 0
 1111 002c 6FF00100 		mvn	r0, #1
 1112 0030 FBE7     		b	.L50
 1113              	.LBE340:
 1114              		.cfi_endproc
 1115              	.LFE338:
 1116              		.size	obqGetEmptyBufferTimeoutS, .-obqGetEmptyBufferTimeoutS
 1117              		.section	.text.obqGetEmptyBufferTimeout,"ax",%progbits
 1118              		.align	1
 1119              		.global	obqGetEmptyBufferTimeout
 1120              		.syntax unified
 1121              		.thumb
 1122              		.thumb_func
 1123              		.fpu fpv4-sp-d16
 1124              		.type	obqGetEmptyBufferTimeout, %function
 1125              	obqGetEmptyBufferTimeout:
 1126              	.LFB337:
 1127              		.loc 1 546 0
 1128              		.cfi_startproc
 1129              		@ args = 0, pretend = 0, frame = 0
 1130              		@ frame_needed = 0, uses_anonymous_args = 0
 1131              	.LVL84:
 1132 0000 08B5     		push	{r3, lr}
 1133              		.cfi_def_cfa_offset 8
 1134              		.cfi_offset 3, -8
 1135              		.cfi_offset 14, -4
 1136              	.LBB341:
 1137              	.LBB342:
 1138              	.LBB343:
 1139              	.LBB344:
 1140              	.LBB345:
ARM GAS  /tmp/cc6AQaIW.s 			page 21


 1141              		.loc 4 493 0
 1142 0002 2023     		movs	r3, #32
 1143              		.syntax unified
 1144              	@ 493 "../../modules/ChibiOS/os/common/ext/ARM/CMSIS/Core/Include/cmsis_gcc.h" 1
 1145 0004 83F31188 		MSR basepri, r3
 1146              	@ 0 "" 2
 1147              	.LVL85:
 1148              		.thumb
 1149              		.syntax unified
 1150              	.LBE345:
 1151              	.LBE344:
 1152              	.LBE343:
 1153              	.LBE342:
 1154              	.LBE341:
 1155              		.loc 1 550 0
 1156 0008 FFF7FEFF 		bl	obqGetEmptyBufferTimeoutS
 1157              	.LVL86:
 1158              	.LBB346:
 1159              	.LBB347:
 1160              	.LBB348:
 1161              	.LBB349:
 1162              	.LBB350:
 1163              	.LBB351:
 1164              		.loc 4 493 0
 1165 000c 0023     		movs	r3, #0
 1166              		.syntax unified
 1167              	@ 493 "../../modules/ChibiOS/os/common/ext/ARM/CMSIS/Core/Include/cmsis_gcc.h" 1
 1168 000e 83F31188 		MSR basepri, r3
 1169              	@ 0 "" 2
 1170              	.LVL87:
 1171              		.thumb
 1172              		.syntax unified
 1173              	.LBE351:
 1174              	.LBE350:
 1175              	.LBE349:
 1176              	.LBE348:
 1177              	.LBE347:
 1178              	.LBE346:
 1179              		.loc 1 554 0
 1180 0012 08BD     		pop	{r3, pc}
 1181              		.cfi_endproc
 1182              	.LFE337:
 1183              		.size	obqGetEmptyBufferTimeout, .-obqGetEmptyBufferTimeout
 1184              		.section	.text.obqPostFullBufferS,"ax",%progbits
 1185              		.align	1
 1186              		.global	obqPostFullBufferS
 1187              		.syntax unified
 1188              		.thumb
 1189              		.thumb_func
 1190              		.fpu fpv4-sp-d16
 1191              		.type	obqPostFullBufferS, %function
 1192              	obqPostFullBufferS:
 1193              	.LFB340:
 1194              		.loc 1 626 0
 1195              		.cfi_startproc
 1196              		@ args = 0, pretend = 0, frame = 0
 1197              		@ frame_needed = 0, uses_anonymous_args = 0
ARM GAS  /tmp/cc6AQaIW.s 			page 22


 1198              		@ link register save eliminated.
 1199              	.LVL88:
 1200              		.loc 1 633 0
 1201 0000 0369     		ldr	r3, [r0, #16]
 1202 0002 1960     		str	r1, [r3]
 1203              		.loc 1 636 0
 1204 0004 C268     		ldr	r2, [r0, #12]
 1205 0006 013A     		subs	r2, r2, #1
 1206 0008 C260     		str	r2, [r0, #12]
 1207              		.loc 1 637 0
 1208 000a C269     		ldr	r2, [r0, #28]
 1209 000c 1344     		add	r3, r3, r2
 1210              		.loc 1 638 0
 1211 000e 8269     		ldr	r2, [r0, #24]
 1212              		.loc 1 637 0
 1213 0010 0361     		str	r3, [r0, #16]
 1214              		.loc 1 638 0
 1215 0012 9342     		cmp	r3, r2
 1216              		.loc 1 639 0
 1217 0014 24BF     		itt	cs
 1218 0016 436A     		ldrcs	r3, [r0, #36]
 1219 0018 0361     		strcs	r3, [r0, #16]
 1220              		.loc 1 643 0
 1221 001a 0023     		movs	r3, #0
 1222 001c 8362     		str	r3, [r0, #40]
 1223              		.loc 1 646 0
 1224 001e 036B     		ldr	r3, [r0, #48]
 1225 0020 03B1     		cbz	r3, .L56
 1226              		.loc 1 647 0
 1227 0022 1847     		bx	r3	@ indirect register sibling call
 1228              	.LVL89:
 1229              	.L56:
 1230 0024 7047     		bx	lr
 1231              		.cfi_endproc
 1232              	.LFE340:
 1233              		.size	obqPostFullBufferS, .-obqPostFullBufferS
 1234              		.section	.text.obqPostFullBuffer,"ax",%progbits
 1235              		.align	1
 1236              		.global	obqPostFullBuffer
 1237              		.syntax unified
 1238              		.thumb
 1239              		.thumb_func
 1240              		.fpu fpv4-sp-d16
 1241              		.type	obqPostFullBuffer, %function
 1242              	obqPostFullBuffer:
 1243              	.LFB339:
 1244              		.loc 1 610 0
 1245              		.cfi_startproc
 1246              		@ args = 0, pretend = 0, frame = 0
 1247              		@ frame_needed = 0, uses_anonymous_args = 0
 1248              	.LVL90:
 1249 0000 08B5     		push	{r3, lr}
 1250              		.cfi_def_cfa_offset 8
 1251              		.cfi_offset 3, -8
 1252              		.cfi_offset 14, -4
 1253              	.LBB352:
 1254              	.LBB353:
ARM GAS  /tmp/cc6AQaIW.s 			page 23


 1255              	.LBB354:
 1256              	.LBB355:
 1257              	.LBB356:
 1258              		.loc 4 493 0
 1259 0002 2023     		movs	r3, #32
 1260              		.syntax unified
 1261              	@ 493 "../../modules/ChibiOS/os/common/ext/ARM/CMSIS/Core/Include/cmsis_gcc.h" 1
 1262 0004 83F31188 		MSR basepri, r3
 1263              	@ 0 "" 2
 1264              	.LVL91:
 1265              		.thumb
 1266              		.syntax unified
 1267              	.LBE356:
 1268              	.LBE355:
 1269              	.LBE354:
 1270              	.LBE353:
 1271              	.LBE352:
 1272              		.loc 1 613 0
 1273 0008 FFF7FEFF 		bl	obqPostFullBufferS
 1274              	.LVL92:
 1275              	.LBB357:
 1276              	.LBB358:
 1277              	.LBB359:
 1278              	.LBB360:
 1279              	.LBB361:
 1280              	.LBB362:
 1281              		.loc 4 493 0
 1282 000c 0023     		movs	r3, #0
 1283              		.syntax unified
 1284              	@ 493 "../../modules/ChibiOS/os/common/ext/ARM/CMSIS/Core/Include/cmsis_gcc.h" 1
 1285 000e 83F31188 		MSR basepri, r3
 1286              	@ 0 "" 2
 1287              	.LVL93:
 1288              		.thumb
 1289              		.syntax unified
 1290 0012 08BD     		pop	{r3, pc}
 1291              	.LBE362:
 1292              	.LBE361:
 1293              	.LBE360:
 1294              	.LBE359:
 1295              	.LBE358:
 1296              	.LBE357:
 1297              		.cfi_endproc
 1298              	.LFE339:
 1299              		.size	obqPostFullBuffer, .-obqPostFullBuffer
 1300              		.section	.text.obqPutTimeout,"ax",%progbits
 1301              		.align	1
 1302              		.global	obqPutTimeout
 1303              		.syntax unified
 1304              		.thumb
 1305              		.thumb_func
 1306              		.fpu fpv4-sp-d16
 1307              		.type	obqPutTimeout, %function
 1308              	obqPutTimeout:
 1309              	.LFB341:
 1310              		.loc 1 672 0
 1311              		.cfi_startproc
ARM GAS  /tmp/cc6AQaIW.s 			page 24


 1312              		@ args = 0, pretend = 0, frame = 0
 1313              		@ frame_needed = 0, uses_anonymous_args = 0
 1314              	.LVL94:
 1315 0000 70B5     		push	{r4, r5, r6, lr}
 1316              		.cfi_def_cfa_offset 16
 1317              		.cfi_offset 4, -16
 1318              		.cfi_offset 5, -12
 1319              		.cfi_offset 6, -8
 1320              		.cfi_offset 14, -4
 1321              	.LBB363:
 1322              	.LBB364:
 1323              	.LBB365:
 1324              	.LBB366:
 1325              	.LBB367:
 1326              		.loc 4 493 0
 1327 0002 2023     		movs	r3, #32
 1328              	.LBE367:
 1329              	.LBE366:
 1330              	.LBE365:
 1331              	.LBE364:
 1332              	.LBE363:
 1333              		.loc 1 672 0
 1334 0004 0446     		mov	r4, r0
 1335 0006 0E46     		mov	r6, r1
 1336              	.LBB372:
 1337              	.LBB371:
 1338              	.LBB370:
 1339              	.LBB369:
 1340              	.LBB368:
 1341              		.loc 4 493 0
 1342              		.syntax unified
 1343              	@ 493 "../../modules/ChibiOS/os/common/ext/ARM/CMSIS/Core/Include/cmsis_gcc.h" 1
 1344 0008 83F31188 		MSR basepri, r3
 1345              	@ 0 "" 2
 1346              	.LVL95:
 1347              		.thumb
 1348              		.syntax unified
 1349              	.LBE368:
 1350              	.LBE369:
 1351              	.LBE370:
 1352              	.LBE371:
 1353              	.LBE372:
 1354              		.loc 1 678 0
 1355 000c 856A     		ldr	r5, [r0, #40]
 1356 000e 35B9     		cbnz	r5, .L61
 1357              		.loc 1 679 0
 1358 0010 1146     		mov	r1, r2
 1359              	.LVL96:
 1360 0012 FFF7FEFF 		bl	obqGetEmptyBufferTimeoutS
 1361              	.LVL97:
 1362              		.loc 1 680 0
 1363 0016 10B1     		cbz	r0, .L61
 1364              	.LVL98:
 1365              	.LBB373:
 1366              	.LBB374:
 1367              	.LBB375:
 1368              	.LBB376:
ARM GAS  /tmp/cc6AQaIW.s 			page 25


 1369              	.LBB377:
 1370              	.LBB378:
 1371              		.loc 4 493 0
 1372              		.syntax unified
 1373              	@ 493 "../../modules/ChibiOS/os/common/ext/ARM/CMSIS/Core/Include/cmsis_gcc.h" 1
 1374 0018 85F31188 		MSR basepri, r5
 1375              	@ 0 "" 2
 1376              	.LVL99:
 1377              		.thumb
 1378              		.syntax unified
 1379              	.LBE378:
 1380              	.LBE377:
 1381              	.LBE376:
 1382              	.LBE375:
 1383              	.LBE374:
 1384              	.LBE373:
 1385              		.loc 1 682 0
 1386 001c 70BD     		pop	{r4, r5, r6, pc}
 1387              	.LVL100:
 1388              	.L61:
 1389              		.loc 1 687 0
 1390 001e A36A     		ldr	r3, [r4, #40]
 1391 0020 1E70     		strb	r6, [r3]
 1392              		.loc 1 688 0
 1393 0022 A36A     		ldr	r3, [r4, #40]
 1394              		.loc 1 692 0
 1395 0024 E26A     		ldr	r2, [r4, #44]
 1396              		.loc 1 688 0
 1397 0026 0133     		adds	r3, r3, #1
 1398              		.loc 1 692 0
 1399 0028 9342     		cmp	r3, r2
 1400              		.loc 1 688 0
 1401 002a A362     		str	r3, [r4, #40]
 1402              		.loc 1 692 0
 1403 002c 04D3     		bcc	.L63
 1404              		.loc 1 693 0
 1405 002e E169     		ldr	r1, [r4, #28]
 1406 0030 2046     		mov	r0, r4
 1407 0032 0439     		subs	r1, r1, #4
 1408 0034 FFF7FEFF 		bl	obqPostFullBufferS
 1409              	.LVL101:
 1410              	.L63:
 1411              	.LBB379:
 1412              	.LBB380:
 1413              	.LBB381:
 1414              	.LBB382:
 1415              	.LBB383:
 1416              	.LBB384:
 1417              		.loc 4 493 0
 1418 0038 0020     		movs	r0, #0
 1419              		.syntax unified
 1420              	@ 493 "../../modules/ChibiOS/os/common/ext/ARM/CMSIS/Core/Include/cmsis_gcc.h" 1
 1421 003a 80F31188 		MSR basepri, r0
 1422              	@ 0 "" 2
 1423              	.LVL102:
 1424              		.thumb
 1425              		.syntax unified
ARM GAS  /tmp/cc6AQaIW.s 			page 26


 1426              	.LBE384:
 1427              	.LBE383:
 1428              	.LBE382:
 1429              	.LBE381:
 1430              	.LBE380:
 1431              	.LBE379:
 1432              		.loc 1 698 0
 1433 003e 70BD     		pop	{r4, r5, r6, pc}
 1434              		.cfi_endproc
 1435              	.LFE341:
 1436              		.size	obqPutTimeout, .-obqPutTimeout
 1437              		.section	.text.obqWriteTimeout,"ax",%progbits
 1438              		.align	1
 1439              		.global	obqWriteTimeout
 1440              		.syntax unified
 1441              		.thumb
 1442              		.thumb_func
 1443              		.fpu fpv4-sp-d16
 1444              		.type	obqWriteTimeout, %function
 1445              	obqWriteTimeout:
 1446              	.LFB342:
 1447              		.loc 1 722 0
 1448              		.cfi_startproc
 1449              		@ args = 0, pretend = 0, frame = 0
 1450              		@ frame_needed = 0, uses_anonymous_args = 0
 1451              	.LVL103:
 1452 0000 2DE9F84F 		push	{r3, r4, r5, r6, r7, r8, r9, r10, fp, lr}
 1453              		.cfi_def_cfa_offset 40
 1454              		.cfi_offset 3, -40
 1455              		.cfi_offset 4, -36
 1456              		.cfi_offset 5, -32
 1457              		.cfi_offset 6, -28
 1458              		.cfi_offset 7, -24
 1459              		.cfi_offset 8, -20
 1460              		.cfi_offset 9, -16
 1461              		.cfi_offset 10, -12
 1462              		.cfi_offset 11, -8
 1463              		.cfi_offset 14, -4
 1464              		.loc 1 722 0
 1465 0004 0446     		mov	r4, r0
 1466              	.LVL104:
 1467 0006 0D46     		mov	r5, r1
 1468 0008 9146     		mov	r9, r2
 1469 000a 9A46     		mov	r10, r3
 1470              	.LBB385:
 1471              	.LBB386:
 1472              	.LBB387:
 1473              	.LBB388:
 1474              	.LBB389:
 1475              		.loc 4 493 0
 1476 000c 4FF02008 		mov	r8, #32
 1477              		.syntax unified
 1478              	@ 493 "../../modules/ChibiOS/os/common/ext/ARM/CMSIS/Core/Include/cmsis_gcc.h" 1
 1479 0010 88F31188 		MSR basepri, r8
 1480              	@ 0 "" 2
 1481              	.LVL105:
 1482              		.thumb
ARM GAS  /tmp/cc6AQaIW.s 			page 27


 1483              		.syntax unified
 1484              	.LBE389:
 1485              	.LBE388:
 1486              	.LBE387:
 1487              	.LBE386:
 1488              	.LBE385:
 1489              		.loc 1 723 0
 1490 0014 0026     		movs	r6, #0
 1491              	.LBB390:
 1492              	.LBB391:
 1493              	.LBB392:
 1494              	.LBB393:
 1495              	.LBB394:
 1496              	.LBB395:
 1497              	.LBB396:
 1498              		.loc 4 493 0
 1499 0016 B346     		mov	fp, r6
 1500              	.LVL106:
 1501              	.L74:
 1502              	.LBE396:
 1503              	.LBE395:
 1504              	.LBE394:
 1505              	.LBE393:
 1506              	.LBE392:
 1507              	.LBE391:
 1508              		.loc 1 733 0
 1509 0018 A76A     		ldr	r7, [r4, #40]
 1510 001a 4FB9     		cbnz	r7, .L68
 1511              	.LBB402:
 1512              		.loc 1 737 0
 1513 001c 5146     		mov	r1, r10
 1514 001e 2046     		mov	r0, r4
 1515 0020 FFF7FEFF 		bl	obqGetEmptyBufferTimeoutS
 1516              	.LVL107:
 1517              		.loc 1 740 0
 1518 0024 20B1     		cbz	r0, .L68
 1519              	.LVL108:
 1520              	.LBB403:
 1521              	.LBB404:
 1522              	.LBB405:
 1523              	.LBB406:
 1524              	.LBB407:
 1525              	.LBB408:
 1526              		.loc 4 493 0
 1527              		.syntax unified
 1528              	@ 493 "../../modules/ChibiOS/os/common/ext/ARM/CMSIS/Core/Include/cmsis_gcc.h" 1
 1529 0026 87F31188 		MSR basepri, r7
 1530              	@ 0 "" 2
 1531              	.LVL109:
 1532              		.thumb
 1533              		.syntax unified
 1534              	.L67:
 1535              	.LBE408:
 1536              	.LBE407:
 1537              	.LBE406:
 1538              	.LBE405:
 1539              	.LBE404:
ARM GAS  /tmp/cc6AQaIW.s 			page 28


 1540              	.LBE403:
 1541              	.LBE402:
 1542              	.LBE390:
 1543              		.loc 1 780 0
 1544 002a 3046     		mov	r0, r6
 1545 002c BDE8F88F 		pop	{r3, r4, r5, r6, r7, r8, r9, r10, fp, pc}
 1546              	.LVL110:
 1547              	.L68:
 1548              	.LBB415:
 1549              		.loc 1 747 0
 1550 0030 A06A     		ldr	r0, [r4, #40]
 1551 0032 E76A     		ldr	r7, [r4, #44]
 1552              		.loc 1 748 0
 1553 0034 A9EB0603 		sub	r3, r9, r6
 1554              		.loc 1 747 0
 1555 0038 3F1A     		subs	r7, r7, r0
 1556              	.LVL111:
 1557 003a 9F42     		cmp	r7, r3
 1558 003c 28BF     		it	cs
 1559 003e 1F46     		movcs	r7, r3
 1560              	.LVL112:
 1561              		.loc 1 754 0
 1562 0040 402F     		cmp	r7, #64
 1563 0042 1BD9     		bls	.L70
 1564              		.loc 1 756 0
 1565 0044 05F14003 		add	r3, r5, #64
 1566              	.LVL113:
 1567              	.L71:
 1568 0048 55F8042B 		ldr	r2, [r5], #4	@ unaligned
 1569 004c 40F8042B 		str	r2, [r0], #4	@ unaligned
 1570 0050 9D42     		cmp	r5, r3
 1571 0052 F9D1     		bne	.L71
 1572              	.LVL114:
 1573              		.loc 1 758 0
 1574 0054 A36A     		ldr	r3, [r4, #40]
 1575 0056 4033     		adds	r3, r3, #64
 1576 0058 A362     		str	r3, [r4, #40]
 1577              		.loc 1 759 0
 1578 005a 4036     		adds	r6, r6, #64
 1579              	.LVL115:
 1580              	.L72:
 1581              		.loc 1 769 0
 1582 005c A26A     		ldr	r2, [r4, #40]
 1583 005e E36A     		ldr	r3, [r4, #44]
 1584 0060 9A42     		cmp	r2, r3
 1585 0062 04D3     		bcc	.L73
 1586              		.loc 1 770 0
 1587 0064 E169     		ldr	r1, [r4, #28]
 1588 0066 2046     		mov	r0, r4
 1589 0068 0439     		subs	r1, r1, #4
 1590 006a FFF7FEFF 		bl	obqPostFullBufferS
 1591              	.LVL116:
 1592              	.L73:
 1593              	.LBB409:
 1594              	.LBB401:
 1595              	.LBB400:
 1596              	.LBB399:
ARM GAS  /tmp/cc6AQaIW.s 			page 29


 1597              	.LBB398:
 1598              	.LBB397:
 1599              		.loc 4 493 0
 1600              		.syntax unified
 1601              	@ 493 "../../modules/ChibiOS/os/common/ext/ARM/CMSIS/Core/Include/cmsis_gcc.h" 1
 1602 006e 8BF31188 		MSR basepri, fp
 1603              	@ 0 "" 2
 1604              	.LVL117:
 1605              		.thumb
 1606              		.syntax unified
 1607              	.LBE397:
 1608              	.LBE398:
 1609              	.LBE399:
 1610              	.LBE400:
 1611              	.LBE401:
 1612              	.LBE409:
 1613              		.loc 1 775 0
 1614 0072 4E45     		cmp	r6, r9
 1615 0074 D9D2     		bcs	.L67
 1616              	.LVL118:
 1617              	.LBB410:
 1618              	.LBB411:
 1619              	.LBB412:
 1620              	.LBB413:
 1621              	.LBB414:
 1622              		.loc 4 493 0
 1623              		.syntax unified
 1624              	@ 493 "../../modules/ChibiOS/os/common/ext/ARM/CMSIS/Core/Include/cmsis_gcc.h" 1
 1625 0076 88F31188 		MSR basepri, r8
 1626              	@ 0 "" 2
 1627              	.LVL119:
 1628              		.thumb
 1629              		.syntax unified
 1630 007a CDE7     		b	.L74
 1631              	.L70:
 1632              	.LBE414:
 1633              	.LBE413:
 1634              	.LBE412:
 1635              	.LBE411:
 1636              	.LBE410:
 1637              		.loc 1 762 0
 1638 007c 2946     		mov	r1, r5
 1639 007e 3A46     		mov	r2, r7
 1640 0080 FFF7FEFF 		bl	memcpy
 1641              	.LVL120:
 1642              		.loc 1 764 0
 1643 0084 A36A     		ldr	r3, [r4, #40]
 1644 0086 3B44     		add	r3, r3, r7
 1645              		.loc 1 763 0
 1646 0088 3D44     		add	r5, r5, r7
 1647              	.LVL121:
 1648              		.loc 1 764 0
 1649 008a A362     		str	r3, [r4, #40]
 1650              		.loc 1 765 0
 1651 008c 3E44     		add	r6, r6, r7
 1652              	.LVL122:
 1653 008e E5E7     		b	.L72
ARM GAS  /tmp/cc6AQaIW.s 			page 30


 1654              	.LBE415:
 1655              		.cfi_endproc
 1656              	.LFE342:
 1657              		.size	obqWriteTimeout, .-obqWriteTimeout
 1658              		.section	.text.obqTryFlushI,"ax",%progbits
 1659              		.align	1
 1660              		.global	obqTryFlushI
 1661              		.syntax unified
 1662              		.thumb
 1663              		.thumb_func
 1664              		.fpu fpv4-sp-d16
 1665              		.type	obqTryFlushI, %function
 1666              	obqTryFlushI:
 1667              	.LFB343:
 1668              		.loc 1 795 0
 1669              		.cfi_startproc
 1670              		@ args = 0, pretend = 0, frame = 0
 1671              		@ frame_needed = 0, uses_anonymous_args = 0
 1672              		@ link register save eliminated.
 1673              	.LVL123:
 1674              		.loc 1 801 0
 1675 0000 0269     		ldr	r2, [r0, #16]
 1676 0002 4369     		ldr	r3, [r0, #20]
 1677 0004 9A42     		cmp	r2, r3
 1678 0006 03D1     		bne	.L84
 1679              		.loc 1 801 0 is_stmt 0 discriminator 1
 1680 0008 C368     		ldr	r3, [r0, #12]
 1681 000a 1BB9     		cbnz	r3, .L81
 1682              	.L86:
 1683              		.loc 1 823 0 is_stmt 1
 1684 000c 1846     		mov	r0, r3
 1685              	.LVL124:
 1686 000e 7047     		bx	lr
 1687              	.LVL125:
 1688              	.L84:
 1689              		.loc 1 822 0
 1690 0010 0023     		movs	r3, #0
 1691 0012 FBE7     		b	.L86
 1692              	.L81:
 1693              		.loc 1 801 0
 1694 0014 836A     		ldr	r3, [r0, #40]
 1695 0016 002B     		cmp	r3, #0
 1696 0018 F8D0     		beq	.L86
 1697              	.LBB416:
 1698              		.loc 1 802 0
 1699 001a 043B     		subs	r3, r3, #4
 1700              	.LVL126:
 1701              		.loc 1 804 0
 1702 001c 9B1A     		subs	r3, r3, r2
 1703              	.LVL127:
 1704 001e F5D0     		beq	.L86
 1705              		.loc 1 807 0
 1706 0020 1360     		str	r3, [r2]
 1707              		.loc 1 810 0
 1708 0022 C368     		ldr	r3, [r0, #12]
 1709              	.LVL128:
 1710 0024 013B     		subs	r3, r3, #1
ARM GAS  /tmp/cc6AQaIW.s 			page 31


 1711 0026 C360     		str	r3, [r0, #12]
 1712              	.LVL129:
 1713              		.loc 1 811 0
 1714 0028 C369     		ldr	r3, [r0, #28]
 1715 002a 1A44     		add	r2, r2, r3
 1716              	.LVL130:
 1717              		.loc 1 812 0
 1718 002c 8369     		ldr	r3, [r0, #24]
 1719              		.loc 1 811 0
 1720 002e 0261     		str	r2, [r0, #16]
 1721              	.LVL131:
 1722              		.loc 1 812 0
 1723 0030 9A42     		cmp	r2, r3
 1724              		.loc 1 813 0
 1725 0032 24BF     		itt	cs
 1726 0034 436A     		ldrcs	r3, [r0, #36]
 1727 0036 0361     		strcs	r3, [r0, #16]
 1728              		.loc 1 817 0
 1729 0038 0023     		movs	r3, #0
 1730 003a 8362     		str	r3, [r0, #40]
 1731              		.loc 1 819 0
 1732 003c 0123     		movs	r3, #1
 1733 003e E5E7     		b	.L86
 1734              	.LBE416:
 1735              		.cfi_endproc
 1736              	.LFE343:
 1737              		.size	obqTryFlushI, .-obqTryFlushI
 1738              		.section	.text.obqFlush,"ax",%progbits
 1739              		.align	1
 1740              		.global	obqFlush
 1741              		.syntax unified
 1742              		.thumb
 1743              		.thumb_func
 1744              		.fpu fpv4-sp-d16
 1745              		.type	obqFlush, %function
 1746              	obqFlush:
 1747              	.LFB344:
 1748              		.loc 1 832 0
 1749              		.cfi_startproc
 1750              		@ args = 0, pretend = 0, frame = 0
 1751              		@ frame_needed = 0, uses_anonymous_args = 0
 1752              	.LVL132:
 1753 0000 08B5     		push	{r3, lr}
 1754              		.cfi_def_cfa_offset 8
 1755              		.cfi_offset 3, -8
 1756              		.cfi_offset 14, -4
 1757              	.LBB417:
 1758              	.LBB418:
 1759              	.LBB419:
 1760              	.LBB420:
 1761              	.LBB421:
 1762              		.loc 4 493 0
 1763 0002 2022     		movs	r2, #32
 1764              		.syntax unified
 1765              	@ 493 "../../modules/ChibiOS/os/common/ext/ARM/CMSIS/Core/Include/cmsis_gcc.h" 1
 1766 0004 82F31188 		MSR basepri, r2
 1767              	@ 0 "" 2
ARM GAS  /tmp/cc6AQaIW.s 			page 32


 1768              	.LVL133:
 1769              		.thumb
 1770              		.syntax unified
 1771              	.LBE421:
 1772              	.LBE420:
 1773              	.LBE419:
 1774              	.LBE418:
 1775              	.LBE417:
 1776              		.loc 1 837 0
 1777 0008 816A     		ldr	r1, [r0, #40]
 1778 000a 29B1     		cbz	r1, .L88
 1779              	.LBB422:
 1780              		.loc 1 838 0
 1781 000c 0369     		ldr	r3, [r0, #16]
 1782 000e 0439     		subs	r1, r1, #4
 1783              	.LVL134:
 1784              		.loc 1 840 0
 1785 0010 C91A     		subs	r1, r1, r3
 1786              	.LVL135:
 1787 0012 01D0     		beq	.L88
 1788              		.loc 1 841 0
 1789 0014 FFF7FEFF 		bl	obqPostFullBufferS
 1790              	.LVL136:
 1791              	.L88:
 1792              	.LBE422:
 1793              	.LBB423:
 1794              	.LBB424:
 1795              	.LBB425:
 1796              	.LBB426:
 1797              	.LBB427:
 1798              	.LBB428:
 1799              		.loc 4 493 0
 1800 0018 0023     		movs	r3, #0
 1801              		.syntax unified
 1802              	@ 493 "../../modules/ChibiOS/os/common/ext/ARM/CMSIS/Core/Include/cmsis_gcc.h" 1
 1803 001a 83F31188 		MSR basepri, r3
 1804              	@ 0 "" 2
 1805              	.LVL137:
 1806              		.thumb
 1807              		.syntax unified
 1808 001e 08BD     		pop	{r3, pc}
 1809              	.LBE428:
 1810              	.LBE427:
 1811              	.LBE426:
 1812              	.LBE425:
 1813              	.LBE424:
 1814              	.LBE423:
 1815              		.cfi_endproc
 1816              	.LFE344:
 1817              		.size	obqFlush, .-obqFlush
 1818              		.text
 1819              	.Letext0:
 1820              		.file 5 "/opt/gcc-arm-none-eabi-6-2017-q2-update/lib/gcc/arm-none-eabi/6.3.1/include/stddef.h"
 1821              		.file 6 "/opt/gcc-arm-none-eabi-6-2017-q2-update/arm-none-eabi/include/machine/_default_types.h"
 1822              		.file 7 "/opt/gcc-arm-none-eabi-6-2017-q2-update/arm-none-eabi/include/sys/lock.h"
 1823              		.file 8 "/opt/gcc-arm-none-eabi-6-2017-q2-update/arm-none-eabi/include/sys/_types.h"
 1824              		.file 9 "/opt/gcc-arm-none-eabi-6-2017-q2-update/arm-none-eabi/include/sys/reent.h"
ARM GAS  /tmp/cc6AQaIW.s 			page 33


 1825              		.file 10 "/opt/gcc-arm-none-eabi-6-2017-q2-update/arm-none-eabi/include/sys/_stdint.h"
 1826              		.file 11 "/opt/gcc-arm-none-eabi-6-2017-q2-update/arm-none-eabi/include/stdint.h"
 1827              		.file 12 "../../modules/ChibiOS/os/common/ports/ARMCMx/compilers/GCC/chtypes.h"
 1828              		.file 13 "../../modules/ChibiOS/os/rt/include/chsystypes.h"
 1829              		.file 14 "../../modules/ChibiOS/os/rt/include/chtime.h"
 1830              		.file 15 "../../modules/ChibiOS/os/common/ext/ARM/CMSIS/Core/Include/core_cm4.h"
 1831              		.file 16 "../../modules/ChibiOS/os/common/ext/ST/STM32F4xx/system_stm32f4xx.h"
 1832              		.file 17 "../../modules/ChibiOS/os/common/ext/ST/STM32F4xx/stm32f427xx.h"
 1833              		.file 18 "../../modules/ChibiOS/os/common/ports/ARMCMx/chcore.h"
 1834              		.file 19 "../../modules/ChibiOS/os/common/ports/ARMCMx/chcore_v7m.h"
 1835              		.file 20 "../../modules/ChibiOS/os/hal/ports/STM32/LLD/TIMv1/stm32_tim.h"
 1836              		.file 21 "../../modules/ChibiOS/os/rt/include/chtm.h"
 1837              		.file 22 "../../modules/ChibiOS/os/rt/include/chsem.h"
 1838              		.file 23 "../../modules/ChibiOS/os/rt/include/chmtx.h"
 1839              		.file 24 "../../modules/ChibiOS/os/rt/include/chsys.h"
 1840              		.file 25 "../../modules/ChibiOS/os/rt/include/chregistry.h"
 1841              		.file 26 "../../modules/ChibiOS/os/rt/include/chevents.h"
 1842              		.file 27 "../../modules/ChibiOS/os/oslib/include/chmemcore.h"
 1843              		.file 28 "../../modules/ChibiOS/os/oslib/include/chmempools.h"
 1844              		.file 29 "../../modules/ChibiOS/os/oslib/include/chfactory.h"
 1845              		.file 30 "../../modules/ChibiOS/os/hal/ports/STM32/LLD/DMAv2/stm32_dma.h"
 1846              		.file 31 "../../modules/ChibiOS/os/hal/include/hal_ioblock.h"
 1847              		.file 32 "../../modules/ChibiOS/os/hal/include/hal_buffers.h"
 1848              		.file 33 "../../modules/ChibiOS/os/hal/include/hal_queues.h"
 1849              		.file 34 "../../modules/ChibiOS/os/hal/include/hal_pal.h"
 1850              		.file 35 "../../modules/ChibiOS/os/hal/ports/STM32/LLD/GPIOv2/stm32_gpio.h"
 1851              		.file 36 "../../modules/ChibiOS/os/hal/ports/STM32/LLD/GPIOv2/hal_pal_lld.h"
 1852              		.file 37 "../../modules/ChibiOS/os/hal/include/hal_adc.h"
 1853              		.file 38 "../../modules/ChibiOS/os/hal/ports/STM32/LLD/ADCv2/hal_adc_lld.h"
 1854              		.file 39 "../../modules/ChibiOS/os/hal/include/hal_i2c.h"
 1855              		.file 40 "../../modules/ChibiOS/os/hal/ports/STM32/LLD/I2Cv1/hal_i2c_lld.h"
 1856              		.file 41 "../../modules/ChibiOS/os/hal/include/hal_pwm.h"
 1857              		.file 42 "../../modules/ChibiOS/os/hal/ports/STM32/LLD/TIMv1/hal_pwm_lld.h"
 1858              		.file 43 "../../modules/ChibiOS/os/hal/include/hal_serial.h"
 1859              		.file 44 "../../modules/ChibiOS/os/hal/ports/STM32/LLD/USARTv1/hal_serial_lld.h"
 1860              		.file 45 "../../modules/ChibiOS/os/hal/include/hal_sdc.h"
 1861              		.file 46 "../../modules/ChibiOS/os/hal/ports/STM32/LLD/SDIOv1/hal_sdc_lld.h"
 1862              		.file 47 "../../modules/ChibiOS/os/hal/include/hal_spi.h"
 1863              		.file 48 "../../modules/ChibiOS/os/hal/ports/STM32/LLD/SPIv1/hal_spi_lld.h"
 1864              		.file 49 "../../modules/ChibiOS/os/hal/include/hal_usb.h"
 1865              		.file 50 "../../modules/ChibiOS/os/hal/ports/STM32/LLD/OTGv1/hal_usb_lld.h"
 1866              		.file 51 "../../modules/ChibiOS/os/hal/ports/STM32/LLD/OTGv1/stm32_otg.h"
 1867              		.file 52 "../../modules/ChibiOS/os/rt/include/chthreads.h"