ARM GAS  /tmp/ccTQY2WF.s 			page 1


   1              		.cpu cortex-m4
   2              		.eabi_attribute 27, 1
   3              		.eabi_attribute 28, 1
   4              		.eabi_attribute 20, 1
   5              		.eabi_attribute 21, 1
   6              		.eabi_attribute 23, 3
   7              		.eabi_attribute 24, 1
   8              		.eabi_attribute 25, 1
   9              		.eabi_attribute 26, 1
  10              		.eabi_attribute 30, 4
  11              		.eabi_attribute 34, 1
  12              		.eabi_attribute 18, 4
  13              		.file	"hal_adc.c"
  14              		.text
  15              	.Ltext0:
  16              		.cfi_sections	.debug_frame
  17              		.section	.text.adcInit,"ax",%progbits
  18              		.align	1
  19              		.global	adcInit
  20              		.syntax unified
  21              		.thumb
  22              		.thumb_func
  23              		.fpu fpv4-sp-d16
  24              		.type	adcInit, %function
  25              	adcInit:
  26              	.LFB323:
  27              		.file 1 "../../modules/ChibiOS/os/hal/src/hal_adc.c"
  28              		.loc 1 56 0
  29              		.cfi_startproc
  30              		@ args = 0, pretend = 0, frame = 0
  31              		@ frame_needed = 0, uses_anonymous_args = 0
  32              		@ link register save eliminated.
  33              		.loc 1 58 0
  34 0000 FFF7FEBF 		b	adc_lld_init
  35              	.LVL0:
  36              		.cfi_endproc
  37              	.LFE323:
  38              		.size	adcInit, .-adcInit
  39              		.section	.text.adcObjectInit,"ax",%progbits
  40              		.align	1
  41              		.global	adcObjectInit
  42              		.syntax unified
  43              		.thumb
  44              		.thumb_func
  45              		.fpu fpv4-sp-d16
  46              		.type	adcObjectInit, %function
  47              	adcObjectInit:
  48              	.LFB324:
  49              		.loc 1 68 0
  50              		.cfi_startproc
  51              		@ args = 0, pretend = 0, frame = 0
  52              		@ frame_needed = 0, uses_anonymous_args = 0
  53              		@ link register save eliminated.
  54              	.LVL1:
  55              		.loc 1 70 0
  56 0000 0123     		movs	r3, #1
  57 0002 0370     		strb	r3, [r0]
ARM GAS  /tmp/ccTQY2WF.s 			page 2


  58              		.loc 1 71 0
  59 0004 0023     		movs	r3, #0
  60 0006 4360     		str	r3, [r0, #4]
  61              		.loc 1 72 0
  62 0008 8360     		str	r3, [r0, #8]
  63              		.loc 1 73 0
  64 000a C360     		str	r3, [r0, #12]
  65              		.loc 1 74 0
  66 000c 0361     		str	r3, [r0, #16]
  67              		.loc 1 76 0
  68 000e 4361     		str	r3, [r0, #20]
  69 0010 7047     		bx	lr
  70              		.cfi_endproc
  71              	.LFE324:
  72              		.size	adcObjectInit, .-adcObjectInit
  73              		.section	.text.adcStart,"ax",%progbits
  74              		.align	1
  75              		.global	adcStart
  76              		.syntax unified
  77              		.thumb
  78              		.thumb_func
  79              		.fpu fpv4-sp-d16
  80              		.type	adcStart, %function
  81              	adcStart:
  82              	.LFB325:
  83              		.loc 1 95 0
  84              		.cfi_startproc
  85              		@ args = 0, pretend = 0, frame = 0
  86              		@ frame_needed = 0, uses_anonymous_args = 0
  87              	.LVL2:
  88 0000 10B5     		push	{r4, lr}
  89              		.cfi_def_cfa_offset 8
  90              		.cfi_offset 4, -8
  91              		.cfi_offset 14, -4
  92              	.LBB97:
  93              	.LBB98:
  94              	.LBB99:
  95              	.LBB100:
  96              	.LBB101:
  97              		.file 2 "../../modules/ChibiOS/os/common/ext/ARM/CMSIS/Core/Include/cmsis_gcc.h"
  98              		.loc 2 493 0
  99 0002 2023     		movs	r3, #32
 100              	.LBE101:
 101              	.LBE100:
 102              	.LBE99:
 103              	.LBE98:
 104              	.LBE97:
 105              		.loc 1 95 0
 106 0004 0446     		mov	r4, r0
 107              	.LBB106:
 108              	.LBB105:
 109              	.LBB104:
 110              	.LBB103:
 111              	.LBB102:
 112              		.loc 2 493 0
 113              		.syntax unified
 114              	@ 493 "../../modules/ChibiOS/os/common/ext/ARM/CMSIS/Core/Include/cmsis_gcc.h" 1
ARM GAS  /tmp/ccTQY2WF.s 			page 3


 115 0006 83F31188 		MSR basepri, r3
 116              	@ 0 "" 2
 117              	.LVL3:
 118              		.thumb
 119              		.syntax unified
 120              	.LBE102:
 121              	.LBE103:
 122              	.LBE104:
 123              	.LBE105:
 124              	.LBE106:
 125              		.loc 1 102 0
 126 000a 4160     		str	r1, [r0, #4]
 127              		.loc 1 103 0
 128 000c FFF7FEFF 		bl	adc_lld_start
 129              	.LVL4:
 130              		.loc 1 104 0
 131 0010 0223     		movs	r3, #2
 132 0012 2370     		strb	r3, [r4]
 133              	.LVL5:
 134              	.LBB107:
 135              	.LBB108:
 136              	.LBB109:
 137              	.LBB110:
 138              	.LBB111:
 139              	.LBB112:
 140              		.loc 2 493 0
 141 0014 0023     		movs	r3, #0
 142              		.syntax unified
 143              	@ 493 "../../modules/ChibiOS/os/common/ext/ARM/CMSIS/Core/Include/cmsis_gcc.h" 1
 144 0016 83F31188 		MSR basepri, r3
 145              	@ 0 "" 2
 146              	.LVL6:
 147              		.thumb
 148              		.syntax unified
 149 001a 10BD     		pop	{r4, pc}
 150              	.LBE112:
 151              	.LBE111:
 152              	.LBE110:
 153              	.LBE109:
 154              	.LBE108:
 155              	.LBE107:
 156              		.cfi_endproc
 157              	.LFE325:
 158              		.size	adcStart, .-adcStart
 159              		.section	.text.adcStop,"ax",%progbits
 160              		.align	1
 161              		.global	adcStop
 162              		.syntax unified
 163              		.thumb
 164              		.thumb_func
 165              		.fpu fpv4-sp-d16
 166              		.type	adcStop, %function
 167              	adcStop:
 168              	.LFB326:
 169              		.loc 1 115 0
 170              		.cfi_startproc
 171              		@ args = 0, pretend = 0, frame = 0
ARM GAS  /tmp/ccTQY2WF.s 			page 4


 172              		@ frame_needed = 0, uses_anonymous_args = 0
 173              	.LVL7:
 174 0000 10B5     		push	{r4, lr}
 175              		.cfi_def_cfa_offset 8
 176              		.cfi_offset 4, -8
 177              		.cfi_offset 14, -4
 178              	.LBB113:
 179              	.LBB114:
 180              	.LBB115:
 181              	.LBB116:
 182              	.LBB117:
 183              		.loc 2 493 0
 184 0002 2023     		movs	r3, #32
 185              	.LBE117:
 186              	.LBE116:
 187              	.LBE115:
 188              	.LBE114:
 189              	.LBE113:
 190              		.loc 1 115 0
 191 0004 0446     		mov	r4, r0
 192              	.LBB122:
 193              	.LBB121:
 194              	.LBB120:
 195              	.LBB119:
 196              	.LBB118:
 197              		.loc 2 493 0
 198              		.syntax unified
 199              	@ 493 "../../modules/ChibiOS/os/common/ext/ARM/CMSIS/Core/Include/cmsis_gcc.h" 1
 200 0006 83F31188 		MSR basepri, r3
 201              	@ 0 "" 2
 202              	.LVL8:
 203              		.thumb
 204              		.syntax unified
 205              	.LBE118:
 206              	.LBE119:
 207              	.LBE120:
 208              	.LBE121:
 209              	.LBE122:
 210              		.loc 1 124 0
 211 000a FFF7FEFF 		bl	adc_lld_stop
 212              	.LVL9:
 213              		.loc 1 125 0
 214 000e 0023     		movs	r3, #0
 215              		.loc 1 126 0
 216 0010 0122     		movs	r2, #1
 217              		.loc 1 125 0
 218 0012 6360     		str	r3, [r4, #4]
 219              		.loc 1 126 0
 220 0014 2270     		strb	r2, [r4]
 221              	.LVL10:
 222              	.LBB123:
 223              	.LBB124:
 224              	.LBB125:
 225              	.LBB126:
 226              	.LBB127:
 227              	.LBB128:
 228              		.loc 2 493 0
ARM GAS  /tmp/ccTQY2WF.s 			page 5


 229              		.syntax unified
 230              	@ 493 "../../modules/ChibiOS/os/common/ext/ARM/CMSIS/Core/Include/cmsis_gcc.h" 1
 231 0016 83F31188 		MSR basepri, r3
 232              	@ 0 "" 2
 233              	.LVL11:
 234              		.thumb
 235              		.syntax unified
 236 001a 10BD     		pop	{r4, pc}
 237              	.LBE128:
 238              	.LBE127:
 239              	.LBE126:
 240              	.LBE125:
 241              	.LBE124:
 242              	.LBE123:
 243              		.cfi_endproc
 244              	.LFE326:
 245              		.size	adcStop, .-adcStop
 246              		.section	.text.adcStartConversion,"ax",%progbits
 247              		.align	1
 248              		.global	adcStartConversion
 249              		.syntax unified
 250              		.thumb
 251              		.thumb_func
 252              		.fpu fpv4-sp-d16
 253              		.type	adcStartConversion, %function
 254              	adcStartConversion:
 255              	.LFB327:
 256              		.loc 1 150 0
 257              		.cfi_startproc
 258              		@ args = 0, pretend = 0, frame = 0
 259              		@ frame_needed = 0, uses_anonymous_args = 0
 260              	.LVL12:
 261 0000 38B5     		push	{r3, r4, r5, lr}
 262              		.cfi_def_cfa_offset 16
 263              		.cfi_offset 3, -16
 264              		.cfi_offset 4, -12
 265              		.cfi_offset 5, -8
 266              		.cfi_offset 14, -4
 267              	.LBB129:
 268              	.LBB130:
 269              	.LBB131:
 270              	.LBB132:
 271              	.LBB133:
 272              		.loc 2 493 0
 273 0002 2025     		movs	r5, #32
 274              		.syntax unified
 275              	@ 493 "../../modules/ChibiOS/os/common/ext/ARM/CMSIS/Core/Include/cmsis_gcc.h" 1
 276 0004 85F31188 		MSR basepri, r5
 277              	@ 0 "" 2
 278              	.LVL13:
 279              		.thumb
 280              		.syntax unified
 281              	.LBE133:
 282              	.LBE132:
 283              	.LBE131:
 284              	.LBE130:
 285              	.LBE129:
ARM GAS  /tmp/ccTQY2WF.s 			page 6


 286              	.LBB134:
 287              	.LBB135:
 288              		.loc 1 188 0
 289 0008 C360     		str	r3, [r0, #12]
 290              		.loc 1 190 0
 291 000a 0323     		movs	r3, #3
 292              	.LVL14:
 293 000c 0370     		strb	r3, [r0]
 294              		.loc 1 187 0
 295 000e 8260     		str	r2, [r0, #8]
 296              		.loc 1 189 0
 297 0010 0161     		str	r1, [r0, #16]
 298              		.loc 1 191 0
 299 0012 FFF7FEFF 		bl	adc_lld_start_conversion
 300              	.LVL15:
 301              	.LBE135:
 302              	.LBE134:
 303              	.LBB136:
 304              	.LBB137:
 305              	.LBB138:
 306              	.LBB139:
 307              	.LBB140:
 308              	.LBB141:
 309              		.loc 2 493 0
 310 0016 0023     		movs	r3, #0
 311              		.syntax unified
 312              	@ 493 "../../modules/ChibiOS/os/common/ext/ARM/CMSIS/Core/Include/cmsis_gcc.h" 1
 313 0018 83F31188 		MSR basepri, r3
 314              	@ 0 "" 2
 315              	.LVL16:
 316              		.thumb
 317              		.syntax unified
 318 001c 38BD     		pop	{r3, r4, r5, pc}
 319              	.LBE141:
 320              	.LBE140:
 321              	.LBE139:
 322              	.LBE138:
 323              	.LBE137:
 324              	.LBE136:
 325              		.cfi_endproc
 326              	.LFE327:
 327              		.size	adcStartConversion, .-adcStartConversion
 328              		.section	.text.adcStartConversionI,"ax",%progbits
 329              		.align	1
 330              		.global	adcStartConversionI
 331              		.syntax unified
 332              		.thumb
 333              		.thumb_func
 334              		.fpu fpv4-sp-d16
 335              		.type	adcStartConversionI, %function
 336              	adcStartConversionI:
 337              	.LFB328:
 338              		.loc 1 178 0
 339              		.cfi_startproc
 340              		@ args = 0, pretend = 0, frame = 0
 341              		@ frame_needed = 0, uses_anonymous_args = 0
 342              		@ link register save eliminated.
ARM GAS  /tmp/ccTQY2WF.s 			page 7


 343              	.LVL17:
 344 0000 10B4     		push	{r4}
 345              		.cfi_def_cfa_offset 4
 346              		.cfi_offset 4, -4
 347              		.loc 1 188 0
 348 0002 C360     		str	r3, [r0, #12]
 349              		.loc 1 190 0
 350 0004 0323     		movs	r3, #3
 351              	.LVL18:
 352              		.loc 1 187 0
 353 0006 8260     		str	r2, [r0, #8]
 354              		.loc 1 189 0
 355 0008 0161     		str	r1, [r0, #16]
 356              		.loc 1 190 0
 357 000a 0370     		strb	r3, [r0]
 358              		.loc 1 192 0
 359 000c 5DF8044B 		ldr	r4, [sp], #4
 360              		.cfi_restore 4
 361              		.cfi_def_cfa_offset 0
 362              		.loc 1 191 0
 363 0010 FFF7FEBF 		b	adc_lld_start_conversion
 364              	.LVL19:
 365              		.cfi_endproc
 366              	.LFE328:
 367              		.size	adcStartConversionI, .-adcStartConversionI
 368              		.section	.text.adcStopConversion,"ax",%progbits
 369              		.align	1
 370              		.global	adcStopConversion
 371              		.syntax unified
 372              		.thumb
 373              		.thumb_func
 374              		.fpu fpv4-sp-d16
 375              		.type	adcStopConversion, %function
 376              	adcStopConversion:
 377              	.LFB329:
 378              		.loc 1 204 0
 379              		.cfi_startproc
 380              		@ args = 0, pretend = 0, frame = 0
 381              		@ frame_needed = 0, uses_anonymous_args = 0
 382              	.LVL20:
 383 0000 10B5     		push	{r4, lr}
 384              		.cfi_def_cfa_offset 8
 385              		.cfi_offset 4, -8
 386              		.cfi_offset 14, -4
 387              	.LBB142:
 388              	.LBB143:
 389              	.LBB144:
 390              	.LBB145:
 391              	.LBB146:
 392              		.loc 2 493 0
 393 0002 2023     		movs	r3, #32
 394              	.LBE146:
 395              	.LBE145:
 396              	.LBE144:
 397              	.LBE143:
 398              	.LBE142:
 399              		.loc 1 204 0
ARM GAS  /tmp/ccTQY2WF.s 			page 8


 400 0004 0446     		mov	r4, r0
 401              	.LBB151:
 402              	.LBB150:
 403              	.LBB149:
 404              	.LBB148:
 405              	.LBB147:
 406              		.loc 2 493 0
 407              		.syntax unified
 408              	@ 493 "../../modules/ChibiOS/os/common/ext/ARM/CMSIS/Core/Include/cmsis_gcc.h" 1
 409 0006 83F31188 		MSR basepri, r3
 410              	@ 0 "" 2
 411              	.LVL21:
 412              		.thumb
 413              		.syntax unified
 414              	.LBE147:
 415              	.LBE148:
 416              	.LBE149:
 417              	.LBE150:
 418              	.LBE151:
 419              		.loc 1 211 0
 420 000a 0378     		ldrb	r3, [r0]	@ zero_extendqisi2
 421 000c 022B     		cmp	r3, #2
 422 000e 0BD0     		beq	.L8
 423              		.loc 1 212 0
 424 0010 FFF7FEFF 		bl	adc_lld_stop_conversion
 425              	.LVL22:
 426              		.loc 1 213 0
 427 0014 0023     		movs	r3, #0
 428              		.loc 1 214 0
 429 0016 2046     		mov	r0, r4
 430              		.loc 1 213 0
 431 0018 2361     		str	r3, [r4, #16]
 432              		.loc 1 214 0
 433 001a 0223     		movs	r3, #2
 434 001c 00F8143B 		strb	r3, [r0], #20
 435              	.LVL23:
 436              	.LBB152:
 437              	.LBB153:
 438              		.file 3 "../../modules/ChibiOS/os/hal/osal/rt/osal.h"
 439              		.loc 3 790 0
 440 0020 6FF00101 		mvn	r1, #1
 441 0024 FFF7FEFF 		bl	chThdResumeS
 442              	.LVL24:
 443              	.L8:
 444              	.LBE153:
 445              	.LBE152:
 446              	.LBB154:
 447              	.LBB155:
 448              	.LBB156:
 449              	.LBB157:
 450              	.LBB158:
 451              	.LBB159:
 452              		.loc 2 493 0
 453 0028 0023     		movs	r3, #0
 454              		.syntax unified
 455              	@ 493 "../../modules/ChibiOS/os/common/ext/ARM/CMSIS/Core/Include/cmsis_gcc.h" 1
 456 002a 83F31188 		MSR basepri, r3
ARM GAS  /tmp/ccTQY2WF.s 			page 9


 457              	@ 0 "" 2
 458              	.LVL25:
 459              		.thumb
 460              		.syntax unified
 461 002e 10BD     		pop	{r4, pc}
 462              	.LBE159:
 463              	.LBE158:
 464              	.LBE157:
 465              	.LBE156:
 466              	.LBE155:
 467              	.LBE154:
 468              		.cfi_endproc
 469              	.LFE329:
 470              		.size	adcStopConversion, .-adcStopConversion
 471              		.section	.text.adcStopConversionI,"ax",%progbits
 472              		.align	1
 473              		.global	adcStopConversionI
 474              		.syntax unified
 475              		.thumb
 476              		.thumb_func
 477              		.fpu fpv4-sp-d16
 478              		.type	adcStopConversionI, %function
 479              	adcStopConversionI:
 480              	.LFB330:
 481              		.loc 1 230 0
 482              		.cfi_startproc
 483              		@ args = 0, pretend = 0, frame = 0
 484              		@ frame_needed = 0, uses_anonymous_args = 0
 485              	.LVL26:
 486              		.loc 1 239 0
 487 0000 0378     		ldrb	r3, [r0]	@ zero_extendqisi2
 488 0002 022B     		cmp	r3, #2
 489              		.loc 1 230 0
 490 0004 10B5     		push	{r4, lr}
 491              		.cfi_def_cfa_offset 8
 492              		.cfi_offset 4, -8
 493              		.cfi_offset 14, -4
 494              		.loc 1 230 0
 495 0006 0446     		mov	r4, r0
 496              		.loc 1 239 0
 497 0008 0DD0     		beq	.L12
 498              		.loc 1 240 0
 499 000a FFF7FEFF 		bl	adc_lld_stop_conversion
 500              	.LVL27:
 501              		.loc 1 241 0
 502 000e 0023     		movs	r3, #0
 503              		.loc 1 242 0
 504 0010 2046     		mov	r0, r4
 505              		.loc 1 241 0
 506 0012 2361     		str	r3, [r4, #16]
 507              		.loc 1 242 0
 508 0014 0223     		movs	r3, #2
 509 0016 00F8143B 		strb	r3, [r0], #20
 510              	.LVL28:
 511              	.LBB160:
 512              	.LBB161:
 513              		.loc 3 775 0
ARM GAS  /tmp/ccTQY2WF.s 			page 10


 514 001a 6FF00101 		mvn	r1, #1
 515              	.LBE161:
 516              	.LBE160:
 517              		.loc 1 245 0
 518 001e BDE81040 		pop	{r4, lr}
 519              		.cfi_remember_state
 520              		.cfi_restore 14
 521              		.cfi_restore 4
 522              		.cfi_def_cfa_offset 0
 523              	.LVL29:
 524              	.LBB163:
 525              	.LBB162:
 526              		.loc 3 775 0
 527 0022 FFF7FEBF 		b	chThdResumeI
 528              	.LVL30:
 529              	.L12:
 530              		.cfi_restore_state
 531 0026 10BD     		pop	{r4, pc}
 532              	.LBE162:
 533              	.LBE163:
 534              		.cfi_endproc
 535              	.LFE330:
 536              		.size	adcStopConversionI, .-adcStopConversionI
 537              		.section	.text.adcConvert,"ax",%progbits
 538              		.align	1
 539              		.global	adcConvert
 540              		.syntax unified
 541              		.thumb
 542              		.thumb_func
 543              		.fpu fpv4-sp-d16
 544              		.type	adcConvert, %function
 545              	adcConvert:
 546              	.LFB331:
 547              		.loc 1 274 0
 548              		.cfi_startproc
 549              		@ args = 0, pretend = 0, frame = 0
 550              		@ frame_needed = 0, uses_anonymous_args = 0
 551              	.LVL31:
 552 0000 38B5     		push	{r3, r4, r5, lr}
 553              		.cfi_def_cfa_offset 16
 554              		.cfi_offset 3, -16
 555              		.cfi_offset 4, -12
 556              		.cfi_offset 5, -8
 557              		.cfi_offset 14, -4
 558              		.loc 1 274 0
 559 0002 0446     		mov	r4, r0
 560              	.LBB179:
 561              	.LBB180:
 562              	.LBB181:
 563              	.LBB182:
 564              	.LBB183:
 565              		.loc 2 493 0
 566 0004 2025     		movs	r5, #32
 567              		.syntax unified
 568              	@ 493 "../../modules/ChibiOS/os/common/ext/ARM/CMSIS/Core/Include/cmsis_gcc.h" 1
 569 0006 85F31188 		MSR basepri, r5
 570              	@ 0 "" 2
ARM GAS  /tmp/ccTQY2WF.s 			page 11


 571              	.LVL32:
 572              		.thumb
 573              		.syntax unified
 574              	.LBE183:
 575              	.LBE182:
 576              	.LBE181:
 577              	.LBE180:
 578              	.LBE179:
 579              	.LBB184:
 580              	.LBB185:
 581              		.loc 1 188 0
 582 000a C360     		str	r3, [r0, #12]
 583              		.loc 1 190 0
 584 000c 0323     		movs	r3, #3
 585              	.LVL33:
 586              		.loc 1 187 0
 587 000e 8260     		str	r2, [r0, #8]
 588              		.loc 1 189 0
 589 0010 0161     		str	r1, [r0, #16]
 590              		.loc 1 190 0
 591 0012 04F8143B 		strb	r3, [r4], #20
 592              		.loc 1 191 0
 593 0016 FFF7FEFF 		bl	adc_lld_start_conversion
 594              	.LVL34:
 595              	.LBE185:
 596              	.LBE184:
 597              	.LBB186:
 598              	.LBB187:
 599              		.loc 3 735 0
 600 001a 4FF0FF31 		mov	r1, #-1
 601 001e 2046     		mov	r0, r4
 602 0020 FFF7FEFF 		bl	chThdSuspendTimeoutS
 603              	.LVL35:
 604              	.LBE187:
 605              	.LBE186:
 606              	.LBB188:
 607              	.LBB189:
 608              	.LBB190:
 609              	.LBB191:
 610              	.LBB192:
 611              	.LBB193:
 612              		.loc 2 493 0
 613 0024 0023     		movs	r3, #0
 614              		.syntax unified
 615              	@ 493 "../../modules/ChibiOS/os/common/ext/ARM/CMSIS/Core/Include/cmsis_gcc.h" 1
 616 0026 83F31188 		MSR basepri, r3
 617              	@ 0 "" 2
 618              	.LVL36:
 619              		.thumb
 620              		.syntax unified
 621              	.LBE193:
 622              	.LBE192:
 623              	.LBE191:
 624              	.LBE190:
 625              	.LBE189:
 626              	.LBE188:
 627              		.loc 1 283 0
ARM GAS  /tmp/ccTQY2WF.s 			page 12


 628 002a 38BD     		pop	{r3, r4, r5, pc}
 629              		.cfi_endproc
 630              	.LFE331:
 631              		.size	adcConvert, .-adcConvert
 632              		.text
 633              	.Letext0:
 634              		.file 4 "/opt/gcc-arm-none-eabi-6-2017-q2-update/lib/gcc/arm-none-eabi/6.3.1/include/stddef.h"
 635              		.file 5 "/opt/gcc-arm-none-eabi-6-2017-q2-update/arm-none-eabi/include/machine/_default_types.h"
 636              		.file 6 "/opt/gcc-arm-none-eabi-6-2017-q2-update/arm-none-eabi/include/sys/_stdint.h"
 637              		.file 7 "/opt/gcc-arm-none-eabi-6-2017-q2-update/arm-none-eabi/include/stdint.h"
 638              		.file 8 "../../modules/ChibiOS/os/common/ports/ARMCMx/compilers/GCC/chtypes.h"
 639              		.file 9 "../../modules/ChibiOS/os/rt/include/chsystypes.h"
 640              		.file 10 "../../modules/ChibiOS/os/rt/include/chschd.h"
 641              		.file 11 "../../modules/ChibiOS/os/rt/include/chtime.h"
 642              		.file 12 "../../modules/ChibiOS/os/common/ext/ARM/CMSIS/Core/Include/core_cm4.h"
 643              		.file 13 "../../modules/ChibiOS/os/common/ext/ST/STM32F4xx/system_stm32f4xx.h"
 644              		.file 14 "../../modules/ChibiOS/os/common/ext/ST/STM32F4xx/stm32f427xx.h"
 645              		.file 15 "../../modules/ChibiOS/os/common/ports/ARMCMx/chcore.h"
 646              		.file 16 "../../modules/ChibiOS/os/common/ports/ARMCMx/chcore_v7m.h"
 647              		.file 17 "../../modules/ChibiOS/os/hal/ports/STM32/LLD/TIMv1/stm32_tim.h"
 648              		.file 18 "../../modules/ChibiOS/os/rt/include/chtm.h"
 649              		.file 19 "../../modules/ChibiOS/os/rt/include/chsem.h"
 650              		.file 20 "../../modules/ChibiOS/os/rt/include/chmtx.h"
 651              		.file 21 "../../modules/ChibiOS/os/rt/include/chsys.h"
 652              		.file 22 "../../modules/ChibiOS/os/rt/include/chregistry.h"
 653              		.file 23 "../../modules/ChibiOS/os/rt/include/chevents.h"
 654              		.file 24 "../../modules/ChibiOS/os/oslib/include/chmemcore.h"
 655              		.file 25 "../../modules/ChibiOS/os/oslib/include/chmempools.h"
 656              		.file 26 "../../modules/ChibiOS/os/oslib/include/chfactory.h"
 657              		.file 27 "../../modules/ChibiOS/os/hal/ports/STM32/LLD/DMAv2/stm32_dma.h"
 658              		.file 28 "../../modules/ChibiOS/os/hal/include/hal_ioblock.h"
 659              		.file 29 "../../modules/ChibiOS/os/hal/include/hal_queues.h"
 660              		.file 30 "../../modules/ChibiOS/os/hal/include/hal_pal.h"
 661              		.file 31 "../../modules/ChibiOS/os/hal/ports/STM32/LLD/GPIOv2/stm32_gpio.h"
 662              		.file 32 "../../modules/ChibiOS/os/hal/ports/STM32/LLD/GPIOv2/hal_pal_lld.h"
 663              		.file 33 "../../modules/ChibiOS/os/hal/include/hal_adc.h"
 664              		.file 34 "../../modules/ChibiOS/os/hal/ports/STM32/LLD/ADCv2/hal_adc_lld.h"
 665              		.file 35 "../../modules/ChibiOS/os/hal/include/hal_i2c.h"
 666              		.file 36 "../../modules/ChibiOS/os/hal/ports/STM32/LLD/I2Cv1/hal_i2c_lld.h"
 667              		.file 37 "../../modules/ChibiOS/os/hal/include/hal_pwm.h"
 668              		.file 38 "../../modules/ChibiOS/os/hal/ports/STM32/LLD/TIMv1/hal_pwm_lld.h"
 669              		.file 39 "../../modules/ChibiOS/os/hal/include/hal_serial.h"
 670              		.file 40 "../../modules/ChibiOS/os/hal/ports/STM32/LLD/USARTv1/hal_serial_lld.h"
 671              		.file 41 "../../modules/ChibiOS/os/hal/include/hal_sdc.h"
 672              		.file 42 "../../modules/ChibiOS/os/hal/ports/STM32/LLD/SDIOv1/hal_sdc_lld.h"
 673              		.file 43 "../../modules/ChibiOS/os/hal/include/hal_spi.h"
 674              		.file 44 "../../modules/ChibiOS/os/hal/ports/STM32/LLD/SPIv1/hal_spi_lld.h"
 675              		.file 45 "../../modules/ChibiOS/os/hal/include/hal_usb.h"
 676              		.file 46 "../../modules/ChibiOS/os/hal/ports/STM32/LLD/OTGv1/hal_usb_lld.h"
 677              		.file 47 "../../modules/ChibiOS/os/hal/ports/STM32/LLD/OTGv1/stm32_otg.h"
 678              		.file 48 "../../modules/ChibiOS/os/rt/include/chthreads.h"