ARM GAS  /tmp/ccZ3Hsqp.s 			page 1


   1              		.cpu cortex-m4
   2              		.eabi_attribute 27, 1
   3              		.eabi_attribute 28, 1
   4              		.eabi_attribute 20, 1
   5              		.eabi_attribute 21, 1
   6              		.eabi_attribute 23, 3
   7              		.eabi_attribute 24, 1
   8              		.eabi_attribute 25, 1
   9              		.eabi_attribute 26, 1
  10              		.eabi_attribute 30, 4
  11              		.eabi_attribute 34, 1
  12              		.eabi_attribute 18, 4
  13              		.file	"hal_queues.c"
  14              		.text
  15              	.Ltext0:
  16              		.cfi_sections	.debug_frame
  17              		.section	.text.iq_read,"ax",%progbits
  18              		.align	1
  19              		.syntax unified
  20              		.thumb
  21              		.thumb_func
  22              		.fpu fpv4-sp-d16
  23              		.type	iq_read, %function
  24              	iq_read:
  25              	.LFB323:
  26              		.file 1 "../../modules/ChibiOS/os/hal/src/hal_queues.c"
  27              		.loc 1 60 0
  28              		.cfi_startproc
  29              		@ args = 0, pretend = 0, frame = 0
  30              		@ frame_needed = 0, uses_anonymous_args = 0
  31              	.LVL0:
  32 0000 F8B5     		push	{r3, r4, r5, r6, r7, lr}
  33              		.cfi_def_cfa_offset 24
  34              		.cfi_offset 3, -24
  35              		.cfi_offset 4, -20
  36              		.cfi_offset 5, -16
  37              		.cfi_offset 6, -12
  38              		.cfi_offset 7, -8
  39              		.cfi_offset 14, -4
  40              		.loc 1 60 0
  41 0002 1546     		mov	r5, r2
  42              		.loc 1 66 0
  43 0004 8268     		ldr	r2, [r0, #8]
  44              	.LVL1:
  45              		.loc 1 72 0
  46 0006 0669     		ldr	r6, [r0, #16]
  47              		.loc 1 66 0
  48 0008 AA42     		cmp	r2, r5
  49              		.loc 1 60 0
  50 000a 0B46     		mov	r3, r1
  51              		.loc 1 72 0
  52 000c 8169     		ldr	r1, [r0, #24]
  53              	.LVL2:
  54              		.loc 1 67 0
  55 000e 38BF     		it	cc
  56 0010 8568     		ldrcc	r5, [r0, #8]
  57              	.LVL3:
ARM GAS  /tmp/ccZ3Hsqp.s 			page 2


  58              		.loc 1 72 0
  59 0012 761A     		subs	r6, r6, r1
  60              	.LVL4:
  61              		.loc 1 74 0
  62 0014 B542     		cmp	r5, r6
  63              		.loc 1 60 0
  64 0016 0446     		mov	r4, r0
  65              		.loc 1 74 0
  66 0018 07D2     		bcs	.L3
  67              		.loc 1 75 0
  68 001a 1846     		mov	r0, r3
  69              	.LVL5:
  70 001c 2A46     		mov	r2, r5
  71 001e FFF7FEFF 		bl	memcpy
  72              	.LVL6:
  73              		.loc 1 76 0
  74 0022 A369     		ldr	r3, [r4, #24]
  75 0024 2B44     		add	r3, r3, r5
  76              	.L6:
  77              		.loc 1 87 0
  78 0026 A361     		str	r3, [r4, #24]
  79 0028 0DE0     		b	.L4
  80              	.LVL7:
  81              	.L3:
  82              		.loc 1 78 0
  83 002a 11D9     		bls	.L5
  84              		.loc 1 79 0
  85 002c 3246     		mov	r2, r6
  86 002e 1846     		mov	r0, r3
  87              	.LVL8:
  88 0030 FFF7FEFF 		bl	memcpy
  89              	.LVL9:
  90              		.loc 1 81 0
  91 0034 AF1B     		subs	r7, r5, r6
  92              	.LVL10:
  93              		.loc 1 82 0
  94 0036 3A46     		mov	r2, r7
  95 0038 E168     		ldr	r1, [r4, #12]
  96 003a 3044     		add	r0, r0, r6
  97              	.LVL11:
  98 003c FFF7FEFF 		bl	memcpy
  99              	.LVL12:
 100              		.loc 1 83 0
 101 0040 E268     		ldr	r2, [r4, #12]
 102 0042 3A44     		add	r2, r2, r7
 103 0044 A261     		str	r2, [r4, #24]
 104              	.LVL13:
 105              	.L4:
 106              		.loc 1 90 0
 107 0046 A368     		ldr	r3, [r4, #8]
 108 0048 5B1B     		subs	r3, r3, r5
 109 004a A360     		str	r3, [r4, #8]
 110              		.loc 1 92 0
 111 004c 2846     		mov	r0, r5
 112 004e F8BD     		pop	{r3, r4, r5, r6, r7, pc}
 113              	.LVL14:
 114              	.L5:
ARM GAS  /tmp/ccZ3Hsqp.s 			page 3


 115              		.loc 1 86 0
 116 0050 1846     		mov	r0, r3
 117              	.LVL15:
 118 0052 2A46     		mov	r2, r5
 119 0054 FFF7FEFF 		bl	memcpy
 120              	.LVL16:
 121              		.loc 1 87 0
 122 0058 E368     		ldr	r3, [r4, #12]
 123 005a E4E7     		b	.L6
 124              		.cfi_endproc
 125              	.LFE323:
 126              		.size	iq_read, .-iq_read
 127              		.section	.text.oq_write,"ax",%progbits
 128              		.align	1
 129              		.syntax unified
 130              		.thumb
 131              		.thumb_func
 132              		.fpu fpv4-sp-d16
 133              		.type	oq_write, %function
 134              	oq_write:
 135              	.LFB324:
 136              		.loc 1 108 0
 137              		.cfi_startproc
 138              		@ args = 0, pretend = 0, frame = 0
 139              		@ frame_needed = 0, uses_anonymous_args = 0
 140              	.LVL17:
 141              		.loc 1 114 0
 142 0000 8368     		ldr	r3, [r0, #8]
 143              		.loc 1 108 0
 144 0002 2DE9F041 		push	{r4, r5, r6, r7, r8, lr}
 145              		.cfi_def_cfa_offset 24
 146              		.cfi_offset 4, -24
 147              		.cfi_offset 5, -20
 148              		.cfi_offset 6, -16
 149              		.cfi_offset 7, -12
 150              		.cfi_offset 8, -8
 151              		.cfi_offset 14, -4
 152              		.loc 1 108 0
 153 0006 0446     		mov	r4, r0
 154              		.loc 1 114 0
 155 0008 9342     		cmp	r3, r2
 156              		.loc 1 108 0
 157 000a 1546     		mov	r5, r2
 158              		.loc 1 120 0
 159 000c 2669     		ldr	r6, [r4, #16]
 160              		.loc 1 115 0
 161 000e 38BF     		it	cc
 162 0010 8568     		ldrcc	r5, [r0, #8]
 163              	.LVL18:
 164              		.loc 1 120 0
 165 0012 4069     		ldr	r0, [r0, #20]
 166              	.LVL19:
 167 0014 361A     		subs	r6, r6, r0
 168              	.LVL20:
 169              		.loc 1 122 0
 170 0016 B542     		cmp	r5, r6
 171              		.loc 1 108 0
ARM GAS  /tmp/ccZ3Hsqp.s 			page 4


 172 0018 0F46     		mov	r7, r1
 173              		.loc 1 122 0
 174 001a 06D2     		bcs	.L9
 175              		.loc 1 123 0
 176 001c 2A46     		mov	r2, r5
 177 001e FFF7FEFF 		bl	memcpy
 178              	.LVL21:
 179              		.loc 1 124 0
 180 0022 6369     		ldr	r3, [r4, #20]
 181 0024 2B44     		add	r3, r3, r5
 182              	.L12:
 183              		.loc 1 135 0
 184 0026 6361     		str	r3, [r4, #20]
 185 0028 0DE0     		b	.L10
 186              	.LVL22:
 187              	.L9:
 188              		.loc 1 126 0
 189 002a 12D9     		bls	.L11
 190              		.loc 1 127 0
 191 002c 3246     		mov	r2, r6
 192              		.loc 1 129 0
 193 002e A5EB0608 		sub	r8, r5, r6
 194              		.loc 1 127 0
 195 0032 FFF7FEFF 		bl	memcpy
 196              	.LVL23:
 197              		.loc 1 130 0
 198 0036 4246     		mov	r2, r8
 199 0038 B919     		adds	r1, r7, r6
 200              	.LVL24:
 201 003a E068     		ldr	r0, [r4, #12]
 202 003c FFF7FEFF 		bl	memcpy
 203              	.LVL25:
 204              		.loc 1 131 0
 205 0040 E268     		ldr	r2, [r4, #12]
 206 0042 4244     		add	r2, r2, r8
 207 0044 6261     		str	r2, [r4, #20]
 208              	.LVL26:
 209              	.L10:
 210              		.loc 1 138 0
 211 0046 A368     		ldr	r3, [r4, #8]
 212 0048 5B1B     		subs	r3, r3, r5
 213 004a A360     		str	r3, [r4, #8]
 214              		.loc 1 140 0
 215 004c 2846     		mov	r0, r5
 216 004e BDE8F081 		pop	{r4, r5, r6, r7, r8, pc}
 217              	.LVL27:
 218              	.L11:
 219              		.loc 1 134 0
 220 0052 2A46     		mov	r2, r5
 221 0054 FFF7FEFF 		bl	memcpy
 222              	.LVL28:
 223              		.loc 1 135 0
 224 0058 E368     		ldr	r3, [r4, #12]
 225 005a E4E7     		b	.L12
 226              		.cfi_endproc
 227              	.LFE324:
 228              		.size	oq_write, .-oq_write
ARM GAS  /tmp/ccZ3Hsqp.s 			page 5


 229              		.section	.text.iqObjectInit,"ax",%progbits
 230              		.align	1
 231              		.global	iqObjectInit
 232              		.syntax unified
 233              		.thumb
 234              		.thumb_func
 235              		.fpu fpv4-sp-d16
 236              		.type	iqObjectInit, %function
 237              	iqObjectInit:
 238              	.LFB325:
 239              		.loc 1 178 0
 240              		.cfi_startproc
 241              		@ args = 4, pretend = 0, frame = 0
 242              		@ frame_needed = 0, uses_anonymous_args = 0
 243              	.LVL29:
 244 0000 10B5     		push	{r4, lr}
 245              		.cfi_def_cfa_offset 8
 246              		.cfi_offset 4, -8
 247              		.cfi_offset 14, -4
 248              		.loc 1 185 0
 249 0002 0A44     		add	r2, r2, r1
 250              	.LVL30:
 251              		.loc 1 181 0
 252 0004 0024     		movs	r4, #0
 253              		.loc 1 186 0
 254 0006 C361     		str	r3, [r0, #28]
 255              		.loc 1 187 0
 256 0008 029B     		ldr	r3, [sp, #8]
 257              	.LVL31:
 258              	.LBB155:
 259              	.LBB156:
 260              	.LBB157:
 261              	.LBB158:
 262              		.file 2 "../../modules/ChibiOS/os/rt/include/chschd.h"
 263              		.loc 2 539 0
 264 000a 0060     		str	r0, [r0]
 265              		.loc 2 540 0
 266 000c 4060     		str	r0, [r0, #4]
 267              	.LVL32:
 268              	.LBE158:
 269              	.LBE157:
 270              	.LBE156:
 271              	.LBE155:
 272              		.loc 1 181 0
 273 000e 8460     		str	r4, [r0, #8]
 274              		.loc 1 182 0
 275 0010 C160     		str	r1, [r0, #12]
 276              		.loc 1 183 0
 277 0012 8161     		str	r1, [r0, #24]
 278              		.loc 1 184 0
 279 0014 4161     		str	r1, [r0, #20]
 280              		.loc 1 185 0
 281 0016 0261     		str	r2, [r0, #16]
 282              		.loc 1 187 0
 283 0018 0362     		str	r3, [r0, #32]
 284 001a 10BD     		pop	{r4, pc}
 285              		.cfi_endproc
ARM GAS  /tmp/ccZ3Hsqp.s 			page 6


 286              	.LFE325:
 287              		.size	iqObjectInit, .-iqObjectInit
 288              		.section	.text.iqResetI,"ax",%progbits
 289              		.align	1
 290              		.global	iqResetI
 291              		.syntax unified
 292              		.thumb
 293              		.thumb_func
 294              		.fpu fpv4-sp-d16
 295              		.type	iqResetI, %function
 296              	iqResetI:
 297              	.LFB326:
 298              		.loc 1 201 0
 299              		.cfi_startproc
 300              		@ args = 0, pretend = 0, frame = 0
 301              		@ frame_needed = 0, uses_anonymous_args = 0
 302              		@ link register save eliminated.
 303              	.LVL33:
 304              		.loc 1 205 0
 305 0000 C268     		ldr	r2, [r0, #12]
 306 0002 8261     		str	r2, [r0, #24]
 307              		.loc 1 206 0
 308 0004 4261     		str	r2, [r0, #20]
 309              		.loc 1 207 0
 310 0006 0022     		movs	r2, #0
 311 0008 8260     		str	r2, [r0, #8]
 312              	.LVL34:
 313              	.LBB159:
 314              	.LBB160:
 315              		.file 3 "../../modules/ChibiOS/os/hal/osal/rt/osal.h"
 316              		.loc 3 857 0
 317 000a 6FF00101 		mvn	r1, #1
 318 000e FFF7FEBF 		b	chThdDequeueAllI
 319              	.LVL35:
 320              	.LBE160:
 321              	.LBE159:
 322              		.cfi_endproc
 323              	.LFE326:
 324              		.size	iqResetI, .-iqResetI
 325              		.section	.text.iqPutI,"ax",%progbits
 326              		.align	1
 327              		.global	iqPutI
 328              		.syntax unified
 329              		.thumb
 330              		.thumb_func
 331              		.fpu fpv4-sp-d16
 332              		.type	iqPutI, %function
 333              	iqPutI:
 334              	.LFB327:
 335              		.loc 1 224 0
 336              		.cfi_startproc
 337              		@ args = 0, pretend = 0, frame = 0
 338              		@ frame_needed = 0, uses_anonymous_args = 0
 339              	.LVL36:
 340 0000 08B5     		push	{r3, lr}
 341              		.cfi_def_cfa_offset 8
 342              		.cfi_offset 3, -8
ARM GAS  /tmp/ccZ3Hsqp.s 			page 7


 343              		.cfi_offset 14, -4
 344              		.loc 1 229 0
 345 0002 8269     		ldr	r2, [r0, #24]
 346 0004 4369     		ldr	r3, [r0, #20]
 347 0006 9342     		cmp	r3, r2
 348 0008 01D1     		bne	.L16
 349              		.loc 1 229 0 is_stmt 0 discriminator 1
 350 000a 8268     		ldr	r2, [r0, #8]
 351 000c 82B9     		cbnz	r2, .L20
 352              	.L16:
 353              		.loc 1 230 0 is_stmt 1
 354 000e 8268     		ldr	r2, [r0, #8]
 355 0010 0132     		adds	r2, r2, #1
 356 0012 8260     		str	r2, [r0, #8]
 357              		.loc 1 231 0
 358 0014 5A1C     		adds	r2, r3, #1
 359 0016 4261     		str	r2, [r0, #20]
 360 0018 1970     		strb	r1, [r3]
 361              		.loc 1 232 0
 362 001a 4269     		ldr	r2, [r0, #20]
 363 001c 0369     		ldr	r3, [r0, #16]
 364 001e 9A42     		cmp	r2, r3
 365 0020 01D3     		bcc	.L19
 366              		.loc 1 233 0
 367 0022 C368     		ldr	r3, [r0, #12]
 368 0024 4361     		str	r3, [r0, #20]
 369              	.L19:
 370              	.LVL37:
 371              	.LBB161:
 372              	.LBB162:
 373              		.loc 3 844 0
 374 0026 0021     		movs	r1, #0
 375              	.LVL38:
 376 0028 FFF7FEFF 		bl	chThdDequeueNextI
 377              	.LVL39:
 378              	.LBE162:
 379              	.LBE161:
 380              		.loc 1 238 0
 381 002c 0020     		movs	r0, #0
 382 002e 08BD     		pop	{r3, pc}
 383              	.LVL40:
 384              	.L20:
 385              		.loc 1 241 0
 386 0030 4FF0FF30 		mov	r0, #-1
 387              	.LVL41:
 388 0034 08BD     		pop	{r3, pc}
 389              		.cfi_endproc
 390              	.LFE327:
 391              		.size	iqPutI, .-iqPutI
 392              		.section	.text.iqGetI,"ax",%progbits
 393              		.align	1
 394              		.global	iqGetI
 395              		.syntax unified
 396              		.thumb
 397              		.thumb_func
 398              		.fpu fpv4-sp-d16
 399              		.type	iqGetI, %function
ARM GAS  /tmp/ccZ3Hsqp.s 			page 8


 400              	iqGetI:
 401              	.LFB328:
 402              		.loc 1 258 0
 403              		.cfi_startproc
 404              		@ args = 0, pretend = 0, frame = 0
 405              		@ frame_needed = 0, uses_anonymous_args = 0
 406              	.LVL42:
 407              		.loc 1 263 0
 408 0000 8368     		ldr	r3, [r0, #8]
 409              		.loc 1 258 0
 410 0002 10B5     		push	{r4, lr}
 411              		.cfi_def_cfa_offset 8
 412              		.cfi_offset 4, -8
 413              		.cfi_offset 14, -4
 414              		.loc 1 263 0
 415 0004 83B1     		cbz	r3, .L25
 416              	.LBB163:
 417              		.loc 1 267 0
 418 0006 8368     		ldr	r3, [r0, #8]
 419              		.loc 1 268 0
 420 0008 8269     		ldr	r2, [r0, #24]
 421              		.loc 1 267 0
 422 000a 013B     		subs	r3, r3, #1
 423 000c 8360     		str	r3, [r0, #8]
 424              		.loc 1 268 0
 425 000e 531C     		adds	r3, r2, #1
 426 0010 8361     		str	r3, [r0, #24]
 427 0012 1478     		ldrb	r4, [r2]	@ zero_extendqisi2
 428              	.LVL43:
 429              		.loc 1 269 0
 430 0014 0269     		ldr	r2, [r0, #16]
 431 0016 9342     		cmp	r3, r2
 432              		.loc 1 270 0
 433 0018 24BF     		itt	cs
 434 001a C368     		ldrcs	r3, [r0, #12]
 435 001c 8361     		strcs	r3, [r0, #24]
 436              		.loc 1 274 0
 437 001e C369     		ldr	r3, [r0, #28]
 438 0020 03B1     		cbz	r3, .L24
 439              		.loc 1 275 0
 440 0022 9847     		blx	r3
 441              	.LVL44:
 442              	.L24:
 443              		.loc 1 278 0
 444 0024 2046     		mov	r0, r4
 445 0026 10BD     		pop	{r4, pc}
 446              	.LVL45:
 447              	.L25:
 448              	.LBE163:
 449              		.loc 1 281 0
 450 0028 4FF0FF30 		mov	r0, #-1
 451              	.LVL46:
 452              		.loc 1 282 0
 453 002c 10BD     		pop	{r4, pc}
 454              		.cfi_endproc
 455              	.LFE328:
 456              		.size	iqGetI, .-iqGetI
ARM GAS  /tmp/ccZ3Hsqp.s 			page 9


 457              		.section	.text.iqGetTimeout,"ax",%progbits
 458              		.align	1
 459              		.global	iqGetTimeout
 460              		.syntax unified
 461              		.thumb
 462              		.thumb_func
 463              		.fpu fpv4-sp-d16
 464              		.type	iqGetTimeout, %function
 465              	iqGetTimeout:
 466              	.LFB329:
 467              		.loc 1 304 0
 468              		.cfi_startproc
 469              		@ args = 0, pretend = 0, frame = 0
 470              		@ frame_needed = 0, uses_anonymous_args = 0
 471              	.LVL47:
 472 0000 70B5     		push	{r4, r5, r6, lr}
 473              		.cfi_def_cfa_offset 16
 474              		.cfi_offset 4, -16
 475              		.cfi_offset 5, -12
 476              		.cfi_offset 6, -8
 477              		.cfi_offset 14, -4
 478              	.LBB164:
 479              	.LBB165:
 480              	.LBB166:
 481              	.LBB167:
 482              	.LBB168:
 483              		.file 4 "../../modules/ChibiOS/os/common/ext/ARM/CMSIS/Core/Include/cmsis_gcc.h"
 484              		.loc 4 493 0
 485 0002 2023     		movs	r3, #32
 486              	.LBE168:
 487              	.LBE167:
 488              	.LBE166:
 489              	.LBE165:
 490              	.LBE164:
 491              		.loc 1 304 0
 492 0004 0446     		mov	r4, r0
 493 0006 0E46     		mov	r6, r1
 494              	.LBB173:
 495              	.LBB172:
 496              	.LBB171:
 497              	.LBB170:
 498              	.LBB169:
 499              		.loc 4 493 0
 500              		.syntax unified
 501              	@ 493 "../../modules/ChibiOS/os/common/ext/ARM/CMSIS/Core/Include/cmsis_gcc.h" 1
 502 0008 83F31188 		MSR basepri, r3
 503              	@ 0 "" 2
 504              	.LVL48:
 505              		.thumb
 506              		.syntax unified
 507              	.L30:
 508              	.LBE169:
 509              	.LBE170:
 510              	.LBE171:
 511              	.LBE172:
 512              	.LBE173:
 513              		.loc 1 310 0
ARM GAS  /tmp/ccZ3Hsqp.s 			page 10


 514 000c A568     		ldr	r5, [r4, #8]
 515 000e A5B1     		cbz	r5, .L32
 516              		.loc 1 319 0
 517 0010 A368     		ldr	r3, [r4, #8]
 518              		.loc 1 320 0
 519 0012 A269     		ldr	r2, [r4, #24]
 520              		.loc 1 319 0
 521 0014 013B     		subs	r3, r3, #1
 522 0016 A360     		str	r3, [r4, #8]
 523              		.loc 1 320 0
 524 0018 531C     		adds	r3, r2, #1
 525 001a A361     		str	r3, [r4, #24]
 526 001c 1578     		ldrb	r5, [r2]	@ zero_extendqisi2
 527              	.LVL49:
 528              		.loc 1 321 0
 529 001e 2269     		ldr	r2, [r4, #16]
 530 0020 9342     		cmp	r3, r2
 531              		.loc 1 322 0
 532 0022 24BF     		itt	cs
 533 0024 E368     		ldrcs	r3, [r4, #12]
 534 0026 A361     		strcs	r3, [r4, #24]
 535              		.loc 1 326 0
 536 0028 E369     		ldr	r3, [r4, #28]
 537 002a 0BB1     		cbz	r3, .L34
 538              		.loc 1 327 0
 539 002c 2046     		mov	r0, r4
 540 002e 9847     		blx	r3
 541              	.LVL50:
 542              	.L34:
 543              	.LBB174:
 544              	.LBB175:
 545              	.LBB176:
 546              	.LBB177:
 547              	.LBB178:
 548              	.LBB179:
 549              		.loc 4 493 0
 550 0030 0023     		movs	r3, #0
 551              		.syntax unified
 552              	@ 493 "../../modules/ChibiOS/os/common/ext/ARM/CMSIS/Core/Include/cmsis_gcc.h" 1
 553 0032 83F31188 		MSR basepri, r3
 554              	@ 0 "" 2
 555              	.LVL51:
 556              		.thumb
 557              		.syntax unified
 558              	.LBE179:
 559              	.LBE178:
 560              	.LBE177:
 561              	.LBE176:
 562              	.LBE175:
 563              	.LBE174:
 564              		.loc 1 332 0
 565 0036 2846     		mov	r0, r5
 566              		.loc 1 333 0
 567 0038 70BD     		pop	{r4, r5, r6, pc}
 568              	.LVL52:
 569              	.L32:
 570              	.LBB180:
ARM GAS  /tmp/ccZ3Hsqp.s 			page 11


 571              	.LBB181:
 572              	.LBB182:
 573              		.loc 3 831 0
 574 003a 3146     		mov	r1, r6
 575 003c 2046     		mov	r0, r4
 576 003e FFF7FEFF 		bl	chThdEnqueueTimeoutS
 577              	.LVL53:
 578              	.LBE182:
 579              	.LBE181:
 580              		.loc 1 312 0
 581 0042 0028     		cmp	r0, #0
 582 0044 E2DA     		bge	.L30
 583              	.LVL54:
 584              	.LBB183:
 585              	.LBB184:
 586              	.LBB185:
 587              	.LBB186:
 588              	.LBB187:
 589              	.LBB188:
 590              		.loc 4 493 0
 591              		.syntax unified
 592              	@ 493 "../../modules/ChibiOS/os/common/ext/ARM/CMSIS/Core/Include/cmsis_gcc.h" 1
 593 0046 85F31188 		MSR basepri, r5
 594              	@ 0 "" 2
 595              	.LVL55:
 596              		.thumb
 597              		.syntax unified
 598              	.LBE188:
 599              	.LBE187:
 600              	.LBE186:
 601              	.LBE185:
 602              	.LBE184:
 603              	.LBE183:
 604              		.loc 1 314 0
 605 004a 70BD     		pop	{r4, r5, r6, pc}
 606              	.LBE180:
 607              		.cfi_endproc
 608              	.LFE329:
 609              		.size	iqGetTimeout, .-iqGetTimeout
 610              		.section	.text.iqReadI,"ax",%progbits
 611              		.align	1
 612              		.global	iqReadI
 613              		.syntax unified
 614              		.thumb
 615              		.thumb_func
 616              		.fpu fpv4-sp-d16
 617              		.type	iqReadI, %function
 618              	iqReadI:
 619              	.LFB330:
 620              		.loc 1 348 0
 621              		.cfi_startproc
 622              		@ args = 0, pretend = 0, frame = 0
 623              		@ frame_needed = 0, uses_anonymous_args = 0
 624              	.LVL56:
 625 0000 70B5     		push	{r4, r5, r6, lr}
 626              		.cfi_def_cfa_offset 16
 627              		.cfi_offset 4, -16
ARM GAS  /tmp/ccZ3Hsqp.s 			page 12


 628              		.cfi_offset 5, -12
 629              		.cfi_offset 6, -8
 630              		.cfi_offset 14, -4
 631              		.loc 1 348 0
 632 0002 0646     		mov	r6, r0
 633              		.loc 1 349 0
 634 0004 C569     		ldr	r5, [r0, #28]
 635              	.LVL57:
 636              		.loc 1 354 0
 637 0006 FFF7FEFF 		bl	iq_read
 638              	.LVL58:
 639              		.loc 1 358 0
 640 000a 0446     		mov	r4, r0
 641 000c 10B1     		cbz	r0, .L39
 642              		.loc 1 358 0 is_stmt 0 discriminator 1
 643 000e 0DB1     		cbz	r5, .L39
 644              		.loc 1 359 0 is_stmt 1
 645 0010 3046     		mov	r0, r6
 646              	.LVL59:
 647 0012 A847     		blx	r5
 648              	.LVL60:
 649              	.L39:
 650              		.loc 1 363 0
 651 0014 2046     		mov	r0, r4
 652 0016 70BD     		pop	{r4, r5, r6, pc}
 653              		.cfi_endproc
 654              	.LFE330:
 655              		.size	iqReadI, .-iqReadI
 656              		.section	.text.iqReadTimeout,"ax",%progbits
 657              		.align	1
 658              		.global	iqReadTimeout
 659              		.syntax unified
 660              		.thumb
 661              		.thumb_func
 662              		.fpu fpv4-sp-d16
 663              		.type	iqReadTimeout, %function
 664              	iqReadTimeout:
 665              	.LFB331:
 666              		.loc 1 390 0
 667              		.cfi_startproc
 668              		@ args = 0, pretend = 0, frame = 8
 669              		@ frame_needed = 0, uses_anonymous_args = 0
 670              	.LVL61:
 671 0000 2DE9F74F 		push	{r0, r1, r2, r4, r5, r6, r7, r8, r9, r10, fp, lr}
 672              		.cfi_def_cfa_offset 48
 673              		.cfi_offset 4, -36
 674              		.cfi_offset 5, -32
 675              		.cfi_offset 6, -28
 676              		.cfi_offset 7, -24
 677              		.cfi_offset 8, -20
 678              		.cfi_offset 9, -16
 679              		.cfi_offset 10, -12
 680              		.cfi_offset 11, -8
 681              		.cfi_offset 14, -4
 682              		.loc 1 390 0
 683 0004 0546     		mov	r5, r0
 684 0006 0F46     		mov	r7, r1
ARM GAS  /tmp/ccZ3Hsqp.s 			page 13


 685 0008 9046     		mov	r8, r2
 686 000a 9A46     		mov	r10, r3
 687              		.loc 1 391 0
 688 000c D0F81C90 		ldr	r9, [r0, #28]
 689              	.LVL62:
 690              	.LBB189:
 691              	.LBB190:
 692              	.LBB191:
 693              	.LBB192:
 694              	.LBB193:
 695              		.loc 4 493 0
 696 0010 2026     		movs	r6, #32
 697              		.syntax unified
 698              	@ 493 "../../modules/ChibiOS/os/common/ext/ARM/CMSIS/Core/Include/cmsis_gcc.h" 1
 699 0012 86F31188 		MSR basepri, r6
 700              	@ 0 "" 2
 701              	.LVL63:
 702              		.thumb
 703              		.syntax unified
 704              	.LBE193:
 705              	.LBE192:
 706              	.LBE191:
 707              	.LBE190:
 708              	.LBE189:
 709              	.LBB198:
 710              	.LBB199:
 711              	.LBB200:
 712              	.LBB201:
 713              	.LBB202:
 714              	.LBB203:
 715              	.LBB204:
 716 0016 4FF0000B 		mov	fp, #0
 717              	.LBE204:
 718              	.LBE203:
 719              	.LBE202:
 720              	.LBE201:
 721              	.LBE200:
 722              	.LBE199:
 723              	.LBE198:
 724              	.LBB219:
 725              	.LBB197:
 726              	.LBB196:
 727              	.LBB195:
 728              	.LBB194:
 729 001a 1446     		mov	r4, r2
 730              	.LVL64:
 731              	.L48:
 732              	.LBE194:
 733              	.LBE195:
 734              	.LBE196:
 735              	.LBE197:
 736              	.LBE219:
 737              		.loc 1 398 0
 738 001c 64B1     		cbz	r4, .L50
 739              	.LBB220:
 740              		.loc 1 401 0
 741 001e 2246     		mov	r2, r4
ARM GAS  /tmp/ccZ3Hsqp.s 			page 14


 742 0020 3946     		mov	r1, r7
 743 0022 2846     		mov	r0, r5
 744 0024 FFF7FEFF 		bl	iq_read
 745              	.LVL65:
 746              		.loc 1 402 0
 747 0028 0346     		mov	r3, r0
 748 002a 68B9     		cbnz	r0, .L49
 749              	.LVL66:
 750              	.LBB210:
 751              	.LBB211:
 752              	.LBB212:
 753              		.loc 3 831 0
 754 002c 5146     		mov	r1, r10
 755 002e 2846     		mov	r0, r5
 756              	.LVL67:
 757 0030 FFF7FEFF 		bl	chThdEnqueueTimeoutS
 758              	.LVL68:
 759              	.LBE212:
 760              	.LBE211:
 761              		.loc 1 406 0
 762 0034 0028     		cmp	r0, #0
 763 0036 F1D0     		beq	.L48
 764              	.L50:
 765              	.LVL69:
 766              	.LBE210:
 767              	.LBE220:
 768              	.LBB221:
 769              	.LBB222:
 770              	.LBB223:
 771              	.LBB224:
 772              	.LBB225:
 773              	.LBB226:
 774              		.loc 4 493 0
 775 0038 0023     		movs	r3, #0
 776              		.syntax unified
 777              	@ 493 "../../modules/ChibiOS/os/common/ext/ARM/CMSIS/Core/Include/cmsis_gcc.h" 1
 778 003a 83F31188 		MSR basepri, r3
 779              	@ 0 "" 2
 780              	.LVL70:
 781              		.thumb
 782              		.syntax unified
 783              	.LBE226:
 784              	.LBE225:
 785              	.LBE224:
 786              	.LBE223:
 787              	.LBE222:
 788              	.LBE221:
 789              		.loc 1 429 0
 790 003e A8EB0400 		sub	r0, r8, r4
 791 0042 03B0     		add	sp, sp, #12
 792              		.cfi_remember_state
 793              		.cfi_def_cfa_offset 36
 794              		@ sp needed
 795 0044 BDE8F08F 		pop	{r4, r5, r6, r7, r8, r9, r10, fp, pc}
 796              	.LVL71:
 797              	.L49:
 798              		.cfi_restore_state
ARM GAS  /tmp/ccZ3Hsqp.s 			page 15


 799              	.LBB227:
 800              		.loc 1 413 0
 801 0048 B9F1000F 		cmp	r9, #0
 802 004c 03D0     		beq	.L52
 803 004e 0190     		str	r0, [sp, #4]
 804              		.loc 1 414 0
 805 0050 2846     		mov	r0, r5
 806              	.LVL72:
 807 0052 C847     		blx	r9
 808              	.LVL73:
 809 0054 019B     		ldr	r3, [sp, #4]
 810              	.LVL74:
 811              	.L52:
 812              	.LBB213:
 813              	.LBB209:
 814              	.LBB208:
 815              	.LBB207:
 816              	.LBB206:
 817              	.LBB205:
 818              		.loc 4 493 0
 819              		.syntax unified
 820              	@ 493 "../../modules/ChibiOS/os/common/ext/ARM/CMSIS/Core/Include/cmsis_gcc.h" 1
 821 0056 8BF31188 		MSR basepri, fp
 822              	@ 0 "" 2
 823              	.LVL75:
 824              		.thumb
 825              		.syntax unified
 826              	.LBE205:
 827              	.LBE206:
 828              	.LBE207:
 829              	.LBE208:
 830              	.LBE209:
 831              	.LBE213:
 832              		.loc 1 420 0
 833 005a E41A     		subs	r4, r4, r3
 834              	.LVL76:
 835              		.loc 1 421 0
 836 005c 1F44     		add	r7, r7, r3
 837              	.LVL77:
 838              	.LBB214:
 839              	.LBB215:
 840              	.LBB216:
 841              	.LBB217:
 842              	.LBB218:
 843              		.loc 4 493 0
 844              		.syntax unified
 845              	@ 493 "../../modules/ChibiOS/os/common/ext/ARM/CMSIS/Core/Include/cmsis_gcc.h" 1
 846 005e 86F31188 		MSR basepri, r6
 847              	@ 0 "" 2
 848              	.LVL78:
 849              		.thumb
 850              		.syntax unified
 851 0062 DBE7     		b	.L48
 852              	.LBE218:
 853              	.LBE217:
 854              	.LBE216:
 855              	.LBE215:
ARM GAS  /tmp/ccZ3Hsqp.s 			page 16


 856              	.LBE214:
 857              	.LBE227:
 858              		.cfi_endproc
 859              	.LFE331:
 860              		.size	iqReadTimeout, .-iqReadTimeout
 861              		.section	.text.oqObjectInit,"ax",%progbits
 862              		.align	1
 863              		.global	oqObjectInit
 864              		.syntax unified
 865              		.thumb
 866              		.thumb_func
 867              		.fpu fpv4-sp-d16
 868              		.type	oqObjectInit, %function
 869              	oqObjectInit:
 870              	.LFB332:
 871              		.loc 1 447 0
 872              		.cfi_startproc
 873              		@ args = 4, pretend = 0, frame = 0
 874              		@ frame_needed = 0, uses_anonymous_args = 0
 875              		@ link register save eliminated.
 876              	.LVL79:
 877              		.loc 1 451 0
 878 0000 C160     		str	r1, [r0, #12]
 879              		.loc 1 452 0
 880 0002 8161     		str	r1, [r0, #24]
 881              		.loc 1 453 0
 882 0004 4161     		str	r1, [r0, #20]
 883              		.loc 1 455 0
 884 0006 C361     		str	r3, [r0, #28]
 885              		.loc 1 454 0
 886 0008 1144     		add	r1, r1, r2
 887              	.LVL80:
 888              		.loc 1 456 0
 889 000a 009B     		ldr	r3, [sp]
 890              	.LVL81:
 891              	.LBB228:
 892              	.LBB229:
 893              	.LBB230:
 894              	.LBB231:
 895              		.loc 2 539 0
 896 000c 0060     		str	r0, [r0]
 897              		.loc 2 540 0
 898 000e 4060     		str	r0, [r0, #4]
 899              	.LVL82:
 900              	.LBE231:
 901              	.LBE230:
 902              	.LBE229:
 903              	.LBE228:
 904              		.loc 1 450 0
 905 0010 8260     		str	r2, [r0, #8]
 906              		.loc 1 454 0
 907 0012 0161     		str	r1, [r0, #16]
 908              		.loc 1 456 0
 909 0014 0362     		str	r3, [r0, #32]
 910 0016 7047     		bx	lr
 911              		.cfi_endproc
 912              	.LFE332:
ARM GAS  /tmp/ccZ3Hsqp.s 			page 17


 913              		.size	oqObjectInit, .-oqObjectInit
 914              		.section	.text.oqResetI,"ax",%progbits
 915              		.align	1
 916              		.global	oqResetI
 917              		.syntax unified
 918              		.thumb
 919              		.thumb_func
 920              		.fpu fpv4-sp-d16
 921              		.type	oqResetI, %function
 922              	oqResetI:
 923              	.LFB333:
 924              		.loc 1 470 0
 925              		.cfi_startproc
 926              		@ args = 0, pretend = 0, frame = 0
 927              		@ frame_needed = 0, uses_anonymous_args = 0
 928              		@ link register save eliminated.
 929              	.LVL83:
 930              		.loc 1 474 0
 931 0000 C168     		ldr	r1, [r0, #12]
 932              		.loc 1 476 0
 933 0002 0269     		ldr	r2, [r0, #16]
 934              		.loc 1 474 0
 935 0004 8161     		str	r1, [r0, #24]
 936              		.loc 1 476 0
 937 0006 521A     		subs	r2, r2, r1
 938              		.loc 1 475 0
 939 0008 4161     		str	r1, [r0, #20]
 940              		.loc 1 476 0
 941 000a 8260     		str	r2, [r0, #8]
 942              	.LVL84:
 943              	.LBB232:
 944              	.LBB233:
 945              		.loc 3 857 0
 946 000c 6FF00101 		mvn	r1, #1
 947 0010 FFF7FEBF 		b	chThdDequeueAllI
 948              	.LVL85:
 949              	.LBE233:
 950              	.LBE232:
 951              		.cfi_endproc
 952              	.LFE333:
 953              		.size	oqResetI, .-oqResetI
 954              		.section	.text.oqPutI,"ax",%progbits
 955              		.align	1
 956              		.global	oqPutI
 957              		.syntax unified
 958              		.thumb
 959              		.thumb_func
 960              		.fpu fpv4-sp-d16
 961              		.type	oqPutI, %function
 962              	oqPutI:
 963              	.LFB334:
 964              		.loc 1 494 0
 965              		.cfi_startproc
 966              		@ args = 0, pretend = 0, frame = 0
 967              		@ frame_needed = 0, uses_anonymous_args = 0
 968              	.LVL86:
 969 0000 08B5     		push	{r3, lr}
ARM GAS  /tmp/ccZ3Hsqp.s 			page 18


 970              		.cfi_def_cfa_offset 8
 971              		.cfi_offset 3, -8
 972              		.cfi_offset 14, -4
 973              		.loc 1 499 0
 974 0002 8368     		ldr	r3, [r0, #8]
 975 0004 8BB1     		cbz	r3, .L62
 976              		.loc 1 501 0
 977 0006 8368     		ldr	r3, [r0, #8]
 978 0008 013B     		subs	r3, r3, #1
 979 000a 8360     		str	r3, [r0, #8]
 980              		.loc 1 502 0
 981 000c 4369     		ldr	r3, [r0, #20]
 982 000e 5A1C     		adds	r2, r3, #1
 983 0010 4261     		str	r2, [r0, #20]
 984 0012 1970     		strb	r1, [r3]
 985              		.loc 1 503 0
 986 0014 0369     		ldr	r3, [r0, #16]
 987 0016 4269     		ldr	r2, [r0, #20]
 988 0018 9A42     		cmp	r2, r3
 989              		.loc 1 504 0
 990 001a 24BF     		itt	cs
 991 001c C368     		ldrcs	r3, [r0, #12]
 992 001e 4361     		strcs	r3, [r0, #20]
 993              		.loc 1 508 0
 994 0020 C369     		ldr	r3, [r0, #28]
 995 0022 03B1     		cbz	r3, .L64
 996              		.loc 1 509 0
 997 0024 9847     		blx	r3
 998              	.LVL87:
 999              	.L64:
 1000              		.loc 1 512 0
 1001 0026 0020     		movs	r0, #0
 1002 0028 08BD     		pop	{r3, pc}
 1003              	.LVL88:
 1004              	.L62:
 1005              		.loc 1 515 0
 1006 002a 4FF0FF30 		mov	r0, #-1
 1007              	.LVL89:
 1008 002e 08BD     		pop	{r3, pc}
 1009              		.cfi_endproc
 1010              	.LFE334:
 1011              		.size	oqPutI, .-oqPutI
 1012              		.section	.text.oqPutTimeout,"ax",%progbits
 1013              		.align	1
 1014              		.global	oqPutTimeout
 1015              		.syntax unified
 1016              		.thumb
 1017              		.thumb_func
 1018              		.fpu fpv4-sp-d16
 1019              		.type	oqPutTimeout, %function
 1020              	oqPutTimeout:
 1021              	.LFB335:
 1022              		.loc 1 540 0
 1023              		.cfi_startproc
 1024              		@ args = 0, pretend = 0, frame = 0
 1025              		@ frame_needed = 0, uses_anonymous_args = 0
 1026              	.LVL90:
ARM GAS  /tmp/ccZ3Hsqp.s 			page 19


 1027 0000 F8B5     		push	{r3, r4, r5, r6, r7, lr}
 1028              		.cfi_def_cfa_offset 24
 1029              		.cfi_offset 3, -24
 1030              		.cfi_offset 4, -20
 1031              		.cfi_offset 5, -16
 1032              		.cfi_offset 6, -12
 1033              		.cfi_offset 7, -8
 1034              		.cfi_offset 14, -4
 1035              		.loc 1 540 0
 1036 0002 0446     		mov	r4, r0
 1037 0004 0E46     		mov	r6, r1
 1038 0006 1746     		mov	r7, r2
 1039              	.LBB234:
 1040              	.LBB235:
 1041              	.LBB236:
 1042              	.LBB237:
 1043              	.LBB238:
 1044              		.loc 4 493 0
 1045 0008 2023     		movs	r3, #32
 1046              		.syntax unified
 1047              	@ 493 "../../modules/ChibiOS/os/common/ext/ARM/CMSIS/Core/Include/cmsis_gcc.h" 1
 1048 000a 83F31188 		MSR basepri, r3
 1049              	@ 0 "" 2
 1050              	.LVL91:
 1051              		.thumb
 1052              		.syntax unified
 1053              	.L66:
 1054              	.LBE238:
 1055              	.LBE237:
 1056              	.LBE236:
 1057              	.LBE235:
 1058              	.LBE234:
 1059              		.loc 1 545 0
 1060 000e A568     		ldr	r5, [r4, #8]
 1061 0010 A5B1     		cbz	r5, .L68
 1062              		.loc 1 554 0
 1063 0012 A368     		ldr	r3, [r4, #8]
 1064 0014 013B     		subs	r3, r3, #1
 1065 0016 A360     		str	r3, [r4, #8]
 1066              		.loc 1 555 0
 1067 0018 6369     		ldr	r3, [r4, #20]
 1068 001a 5A1C     		adds	r2, r3, #1
 1069 001c 6261     		str	r2, [r4, #20]
 1070 001e 1E70     		strb	r6, [r3]
 1071              		.loc 1 556 0
 1072 0020 2369     		ldr	r3, [r4, #16]
 1073 0022 6269     		ldr	r2, [r4, #20]
 1074 0024 9A42     		cmp	r2, r3
 1075              		.loc 1 557 0
 1076 0026 24BF     		itt	cs
 1077 0028 E368     		ldrcs	r3, [r4, #12]
 1078 002a 6361     		strcs	r3, [r4, #20]
 1079              		.loc 1 561 0
 1080 002c E369     		ldr	r3, [r4, #28]
 1081 002e 0BB1     		cbz	r3, .L70
 1082              		.loc 1 562 0
 1083 0030 2046     		mov	r0, r4
ARM GAS  /tmp/ccZ3Hsqp.s 			page 20


 1084 0032 9847     		blx	r3
 1085              	.LVL92:
 1086              	.L70:
 1087              	.LBB239:
 1088              	.LBB240:
 1089              	.LBB241:
 1090              	.LBB242:
 1091              	.LBB243:
 1092              	.LBB244:
 1093              		.loc 4 493 0
 1094 0034 0020     		movs	r0, #0
 1095              		.syntax unified
 1096              	@ 493 "../../modules/ChibiOS/os/common/ext/ARM/CMSIS/Core/Include/cmsis_gcc.h" 1
 1097 0036 80F31188 		MSR basepri, r0
 1098              	@ 0 "" 2
 1099              	.LVL93:
 1100              		.thumb
 1101              		.syntax unified
 1102              	.LBE244:
 1103              	.LBE243:
 1104              	.LBE242:
 1105              	.LBE241:
 1106              	.LBE240:
 1107              	.LBE239:
 1108              		.loc 1 568 0
 1109 003a F8BD     		pop	{r3, r4, r5, r6, r7, pc}
 1110              	.LVL94:
 1111              	.L68:
 1112              	.LBB245:
 1113              	.LBB246:
 1114              	.LBB247:
 1115              		.loc 3 831 0
 1116 003c 3946     		mov	r1, r7
 1117 003e 2046     		mov	r0, r4
 1118 0040 FFF7FEFF 		bl	chThdEnqueueTimeoutS
 1119              	.LVL95:
 1120              	.LBE247:
 1121              	.LBE246:
 1122              		.loc 1 547 0
 1123 0044 0028     		cmp	r0, #0
 1124 0046 E2DA     		bge	.L66
 1125              	.LVL96:
 1126              	.LBB248:
 1127              	.LBB249:
 1128              	.LBB250:
 1129              	.LBB251:
 1130              	.LBB252:
 1131              	.LBB253:
 1132              		.loc 4 493 0
 1133              		.syntax unified
 1134              	@ 493 "../../modules/ChibiOS/os/common/ext/ARM/CMSIS/Core/Include/cmsis_gcc.h" 1
 1135 0048 85F31188 		MSR basepri, r5
 1136              	@ 0 "" 2
 1137              	.LVL97:
 1138              		.thumb
 1139              		.syntax unified
 1140              	.LBE253:
ARM GAS  /tmp/ccZ3Hsqp.s 			page 21


 1141              	.LBE252:
 1142              	.LBE251:
 1143              	.LBE250:
 1144              	.LBE249:
 1145              	.LBE248:
 1146              		.loc 1 549 0
 1147 004c F8BD     		pop	{r3, r4, r5, r6, r7, pc}
 1148              	.LBE245:
 1149              		.cfi_endproc
 1150              	.LFE335:
 1151              		.size	oqPutTimeout, .-oqPutTimeout
 1152              		.section	.text.oqGetI,"ax",%progbits
 1153              		.align	1
 1154              		.global	oqGetI
 1155              		.syntax unified
 1156              		.thumb
 1157              		.thumb_func
 1158              		.fpu fpv4-sp-d16
 1159              		.type	oqGetI, %function
 1160              	oqGetI:
 1161              	.LFB336:
 1162              		.loc 1 581 0
 1163              		.cfi_startproc
 1164              		@ args = 0, pretend = 0, frame = 0
 1165              		@ frame_needed = 0, uses_anonymous_args = 0
 1166              	.LVL98:
 1167              		.loc 1 586 0
 1168 0000 8369     		ldr	r3, [r0, #24]
 1169 0002 4269     		ldr	r2, [r0, #20]
 1170 0004 9A42     		cmp	r2, r3
 1171              		.loc 1 581 0
 1172 0006 10B5     		push	{r4, lr}
 1173              		.cfi_def_cfa_offset 8
 1174              		.cfi_offset 4, -8
 1175              		.cfi_offset 14, -4
 1176              		.loc 1 586 0
 1177 0008 01D1     		bne	.L76
 1178              		.loc 1 586 0 is_stmt 0 discriminator 1
 1179 000a 8268     		ldr	r2, [r0, #8]
 1180 000c 7AB9     		cbnz	r2, .L80
 1181              	.L76:
 1182              	.LBB254:
 1183              		.loc 1 589 0 is_stmt 1
 1184 000e 8268     		ldr	r2, [r0, #8]
 1185 0010 0132     		adds	r2, r2, #1
 1186 0012 8260     		str	r2, [r0, #8]
 1187              		.loc 1 590 0
 1188 0014 5A1C     		adds	r2, r3, #1
 1189 0016 8261     		str	r2, [r0, #24]
 1190 0018 1C78     		ldrb	r4, [r3]	@ zero_extendqisi2
 1191              	.LVL99:
 1192              		.loc 1 591 0
 1193 001a 0369     		ldr	r3, [r0, #16]
 1194 001c 9A42     		cmp	r2, r3
 1195 001e 01D3     		bcc	.L79
 1196              		.loc 1 592 0
 1197 0020 C368     		ldr	r3, [r0, #12]
ARM GAS  /tmp/ccZ3Hsqp.s 			page 22


 1198 0022 8361     		str	r3, [r0, #24]
 1199              	.L79:
 1200              	.LVL100:
 1201              	.LBB255:
 1202              	.LBB256:
 1203              		.loc 3 844 0
 1204 0024 0021     		movs	r1, #0
 1205 0026 FFF7FEFF 		bl	chThdDequeueNextI
 1206              	.LVL101:
 1207              	.LBE256:
 1208              	.LBE255:
 1209              		.loc 1 597 0
 1210 002a 2046     		mov	r0, r4
 1211 002c 10BD     		pop	{r4, pc}
 1212              	.LVL102:
 1213              	.L80:
 1214              	.LBE254:
 1215              		.loc 1 600 0
 1216 002e 4FF0FF30 		mov	r0, #-1
 1217              	.LVL103:
 1218 0032 10BD     		pop	{r4, pc}
 1219              		.cfi_endproc
 1220              	.LFE336:
 1221              		.size	oqGetI, .-oqGetI
 1222              		.section	.text.oqWriteI,"ax",%progbits
 1223              		.align	1
 1224              		.global	oqWriteI
 1225              		.syntax unified
 1226              		.thumb
 1227              		.thumb_func
 1228              		.fpu fpv4-sp-d16
 1229              		.type	oqWriteI, %function
 1230              	oqWriteI:
 1231              	.LFB337:
 1232              		.loc 1 617 0
 1233              		.cfi_startproc
 1234              		@ args = 0, pretend = 0, frame = 0
 1235              		@ frame_needed = 0, uses_anonymous_args = 0
 1236              	.LVL104:
 1237 0000 70B5     		push	{r4, r5, r6, lr}
 1238              		.cfi_def_cfa_offset 16
 1239              		.cfi_offset 4, -16
 1240              		.cfi_offset 5, -12
 1241              		.cfi_offset 6, -8
 1242              		.cfi_offset 14, -4
 1243              		.loc 1 617 0
 1244 0002 0646     		mov	r6, r0
 1245              		.loc 1 618 0
 1246 0004 C569     		ldr	r5, [r0, #28]
 1247              	.LVL105:
 1248              		.loc 1 623 0
 1249 0006 FFF7FEFF 		bl	oq_write
 1250              	.LVL106:
 1251              		.loc 1 627 0
 1252 000a 0446     		mov	r4, r0
 1253 000c 10B1     		cbz	r0, .L81
 1254              		.loc 1 627 0 is_stmt 0 discriminator 1
ARM GAS  /tmp/ccZ3Hsqp.s 			page 23


 1255 000e 0DB1     		cbz	r5, .L81
 1256              		.loc 1 628 0 is_stmt 1
 1257 0010 3046     		mov	r0, r6
 1258              	.LVL107:
 1259 0012 A847     		blx	r5
 1260              	.LVL108:
 1261              	.L81:
 1262              		.loc 1 632 0
 1263 0014 2046     		mov	r0, r4
 1264 0016 70BD     		pop	{r4, r5, r6, pc}
 1265              		.cfi_endproc
 1266              	.LFE337:
 1267              		.size	oqWriteI, .-oqWriteI
 1268              		.section	.text.oqWriteTimeout,"ax",%progbits
 1269              		.align	1
 1270              		.global	oqWriteTimeout
 1271              		.syntax unified
 1272              		.thumb
 1273              		.thumb_func
 1274              		.fpu fpv4-sp-d16
 1275              		.type	oqWriteTimeout, %function
 1276              	oqWriteTimeout:
 1277              	.LFB338:
 1278              		.loc 1 659 0
 1279              		.cfi_startproc
 1280              		@ args = 0, pretend = 0, frame = 8
 1281              		@ frame_needed = 0, uses_anonymous_args = 0
 1282              	.LVL109:
 1283 0000 2DE9F74F 		push	{r0, r1, r2, r4, r5, r6, r7, r8, r9, r10, fp, lr}
 1284              		.cfi_def_cfa_offset 48
 1285              		.cfi_offset 4, -36
 1286              		.cfi_offset 5, -32
 1287              		.cfi_offset 6, -28
 1288              		.cfi_offset 7, -24
 1289              		.cfi_offset 8, -20
 1290              		.cfi_offset 9, -16
 1291              		.cfi_offset 10, -12
 1292              		.cfi_offset 11, -8
 1293              		.cfi_offset 14, -4
 1294              		.loc 1 659 0
 1295 0004 0546     		mov	r5, r0
 1296 0006 0F46     		mov	r7, r1
 1297 0008 9046     		mov	r8, r2
 1298 000a 9A46     		mov	r10, r3
 1299              		.loc 1 660 0
 1300 000c D0F81C90 		ldr	r9, [r0, #28]
 1301              	.LVL110:
 1302              	.LBB257:
 1303              	.LBB258:
 1304              	.LBB259:
 1305              	.LBB260:
 1306              	.LBB261:
 1307              		.loc 4 493 0
 1308 0010 2026     		movs	r6, #32
 1309              		.syntax unified
 1310              	@ 493 "../../modules/ChibiOS/os/common/ext/ARM/CMSIS/Core/Include/cmsis_gcc.h" 1
 1311 0012 86F31188 		MSR basepri, r6
ARM GAS  /tmp/ccZ3Hsqp.s 			page 24


 1312              	@ 0 "" 2
 1313              	.LVL111:
 1314              		.thumb
 1315              		.syntax unified
 1316              	.LBE261:
 1317              	.LBE260:
 1318              	.LBE259:
 1319              	.LBE258:
 1320              	.LBE257:
 1321              	.LBB266:
 1322              	.LBB267:
 1323              	.LBB268:
 1324              	.LBB269:
 1325              	.LBB270:
 1326              	.LBB271:
 1327              	.LBB272:
 1328 0016 4FF0000B 		mov	fp, #0
 1329              	.LBE272:
 1330              	.LBE271:
 1331              	.LBE270:
 1332              	.LBE269:
 1333              	.LBE268:
 1334              	.LBE267:
 1335              	.LBE266:
 1336              	.LBB287:
 1337              	.LBB265:
 1338              	.LBB264:
 1339              	.LBB263:
 1340              	.LBB262:
 1341 001a 1446     		mov	r4, r2
 1342              	.LVL112:
 1343              	.L90:
 1344              	.LBE262:
 1345              	.LBE263:
 1346              	.LBE264:
 1347              	.LBE265:
 1348              	.LBE287:
 1349              		.loc 1 667 0
 1350 001c 64B1     		cbz	r4, .L92
 1351              	.LBB288:
 1352              		.loc 1 670 0
 1353 001e 2246     		mov	r2, r4
 1354 0020 3946     		mov	r1, r7
 1355 0022 2846     		mov	r0, r5
 1356 0024 FFF7FEFF 		bl	oq_write
 1357              	.LVL113:
 1358              		.loc 1 671 0
 1359 0028 0346     		mov	r3, r0
 1360 002a 68B9     		cbnz	r0, .L91
 1361              	.LVL114:
 1362              	.LBB278:
 1363              	.LBB279:
 1364              	.LBB280:
 1365              		.loc 3 831 0
 1366 002c 5146     		mov	r1, r10
 1367 002e 2846     		mov	r0, r5
 1368              	.LVL115:
ARM GAS  /tmp/ccZ3Hsqp.s 			page 25


 1369 0030 FFF7FEFF 		bl	chThdEnqueueTimeoutS
 1370              	.LVL116:
 1371              	.LBE280:
 1372              	.LBE279:
 1373              		.loc 1 675 0
 1374 0034 0028     		cmp	r0, #0
 1375 0036 F1D0     		beq	.L90
 1376              	.L92:
 1377              	.LVL117:
 1378              	.LBE278:
 1379              	.LBE288:
 1380              	.LBB289:
 1381              	.LBB290:
 1382              	.LBB291:
 1383              	.LBB292:
 1384              	.LBB293:
 1385              	.LBB294:
 1386              		.loc 4 493 0
 1387 0038 0023     		movs	r3, #0
 1388              		.syntax unified
 1389              	@ 493 "../../modules/ChibiOS/os/common/ext/ARM/CMSIS/Core/Include/cmsis_gcc.h" 1
 1390 003a 83F31188 		MSR basepri, r3
 1391              	@ 0 "" 2
 1392              	.LVL118:
 1393              		.thumb
 1394              		.syntax unified
 1395              	.LBE294:
 1396              	.LBE293:
 1397              	.LBE292:
 1398              	.LBE291:
 1399              	.LBE290:
 1400              	.LBE289:
 1401              		.loc 1 698 0
 1402 003e A8EB0400 		sub	r0, r8, r4
 1403 0042 03B0     		add	sp, sp, #12
 1404              		.cfi_remember_state
 1405              		.cfi_def_cfa_offset 36
 1406              		@ sp needed
 1407 0044 BDE8F08F 		pop	{r4, r5, r6, r7, r8, r9, r10, fp, pc}
 1408              	.LVL119:
 1409              	.L91:
 1410              		.cfi_restore_state
 1411              	.LBB295:
 1412              		.loc 1 682 0
 1413 0048 B9F1000F 		cmp	r9, #0
 1414 004c 03D0     		beq	.L94
 1415 004e 0190     		str	r0, [sp, #4]
 1416              		.loc 1 683 0
 1417 0050 2846     		mov	r0, r5
 1418              	.LVL120:
 1419 0052 C847     		blx	r9
 1420              	.LVL121:
 1421 0054 019B     		ldr	r3, [sp, #4]
 1422              	.LVL122:
 1423              	.L94:
 1424              	.LBB281:
 1425              	.LBB277:
ARM GAS  /tmp/ccZ3Hsqp.s 			page 26


 1426              	.LBB276:
 1427              	.LBB275:
 1428              	.LBB274:
 1429              	.LBB273:
 1430              		.loc 4 493 0
 1431              		.syntax unified
 1432              	@ 493 "../../modules/ChibiOS/os/common/ext/ARM/CMSIS/Core/Include/cmsis_gcc.h" 1
 1433 0056 8BF31188 		MSR basepri, fp
 1434              	@ 0 "" 2
 1435              	.LVL123:
 1436              		.thumb
 1437              		.syntax unified
 1438              	.LBE273:
 1439              	.LBE274:
 1440              	.LBE275:
 1441              	.LBE276:
 1442              	.LBE277:
 1443              	.LBE281:
 1444              		.loc 1 689 0
 1445 005a E41A     		subs	r4, r4, r3
 1446              	.LVL124:
 1447              		.loc 1 690 0
 1448 005c 1F44     		add	r7, r7, r3
 1449              	.LVL125:
 1450              	.LBB282:
 1451              	.LBB283:
 1452              	.LBB284:
 1453              	.LBB285:
 1454              	.LBB286:
 1455              		.loc 4 493 0
 1456              		.syntax unified
 1457              	@ 493 "../../modules/ChibiOS/os/common/ext/ARM/CMSIS/Core/Include/cmsis_gcc.h" 1
 1458 005e 86F31188 		MSR basepri, r6
 1459              	@ 0 "" 2
 1460              	.LVL126:
 1461              		.thumb
 1462              		.syntax unified
 1463 0062 DBE7     		b	.L90
 1464              	.LBE286:
 1465              	.LBE285:
 1466              	.LBE284:
 1467              	.LBE283:
 1468              	.LBE282:
 1469              	.LBE295:
 1470              		.cfi_endproc
 1471              	.LFE338:
 1472              		.size	oqWriteTimeout, .-oqWriteTimeout
 1473              		.text
 1474              	.Letext0:
 1475              		.file 5 "/opt/gcc-arm-none-eabi-6-2017-q2-update/lib/gcc/arm-none-eabi/6.3.1/include/stddef.h"
 1476              		.file 6 "/opt/gcc-arm-none-eabi-6-2017-q2-update/arm-none-eabi/include/machine/_default_types.h"
 1477              		.file 7 "/opt/gcc-arm-none-eabi-6-2017-q2-update/arm-none-eabi/include/sys/lock.h"
 1478              		.file 8 "/opt/gcc-arm-none-eabi-6-2017-q2-update/arm-none-eabi/include/sys/_types.h"
 1479              		.file 9 "/opt/gcc-arm-none-eabi-6-2017-q2-update/arm-none-eabi/include/sys/reent.h"
 1480              		.file 10 "/opt/gcc-arm-none-eabi-6-2017-q2-update/arm-none-eabi/include/sys/_stdint.h"
 1481              		.file 11 "/opt/gcc-arm-none-eabi-6-2017-q2-update/arm-none-eabi/include/stdint.h"
 1482              		.file 12 "../../modules/ChibiOS/os/common/ports/ARMCMx/compilers/GCC/chtypes.h"
ARM GAS  /tmp/ccZ3Hsqp.s 			page 27


 1483              		.file 13 "../../modules/ChibiOS/os/rt/include/chsystypes.h"
 1484              		.file 14 "../../modules/ChibiOS/os/rt/include/chtime.h"
 1485              		.file 15 "../../modules/ChibiOS/os/common/ext/ARM/CMSIS/Core/Include/core_cm4.h"
 1486              		.file 16 "../../modules/ChibiOS/os/common/ext/ST/STM32F4xx/system_stm32f4xx.h"
 1487              		.file 17 "../../modules/ChibiOS/os/common/ext/ST/STM32F4xx/stm32f427xx.h"
 1488              		.file 18 "../../modules/ChibiOS/os/common/ports/ARMCMx/chcore.h"
 1489              		.file 19 "../../modules/ChibiOS/os/common/ports/ARMCMx/chcore_v7m.h"
 1490              		.file 20 "../../modules/ChibiOS/os/hal/ports/STM32/LLD/TIMv1/stm32_tim.h"
 1491              		.file 21 "../../modules/ChibiOS/os/rt/include/chtm.h"
 1492              		.file 22 "../../modules/ChibiOS/os/rt/include/chsem.h"
 1493              		.file 23 "../../modules/ChibiOS/os/rt/include/chmtx.h"
 1494              		.file 24 "../../modules/ChibiOS/os/rt/include/chsys.h"
 1495              		.file 25 "../../modules/ChibiOS/os/rt/include/chregistry.h"
 1496              		.file 26 "../../modules/ChibiOS/os/rt/include/chevents.h"
 1497              		.file 27 "../../modules/ChibiOS/os/oslib/include/chmemcore.h"
 1498              		.file 28 "../../modules/ChibiOS/os/oslib/include/chmempools.h"
 1499              		.file 29 "../../modules/ChibiOS/os/oslib/include/chfactory.h"
 1500              		.file 30 "../../modules/ChibiOS/os/hal/ports/STM32/LLD/DMAv2/stm32_dma.h"
 1501              		.file 31 "../../modules/ChibiOS/os/hal/include/hal_ioblock.h"
 1502              		.file 32 "../../modules/ChibiOS/os/hal/include/hal_queues.h"
 1503              		.file 33 "../../modules/ChibiOS/os/hal/include/hal_pal.h"
 1504              		.file 34 "../../modules/ChibiOS/os/hal/ports/STM32/LLD/GPIOv2/stm32_gpio.h"
 1505              		.file 35 "../../modules/ChibiOS/os/hal/ports/STM32/LLD/GPIOv2/hal_pal_lld.h"
 1506              		.file 36 "../../modules/ChibiOS/os/hal/include/hal_adc.h"
 1507              		.file 37 "../../modules/ChibiOS/os/hal/ports/STM32/LLD/ADCv2/hal_adc_lld.h"
 1508              		.file 38 "../../modules/ChibiOS/os/hal/include/hal_i2c.h"
 1509              		.file 39 "../../modules/ChibiOS/os/hal/ports/STM32/LLD/I2Cv1/hal_i2c_lld.h"
 1510              		.file 40 "../../modules/ChibiOS/os/hal/include/hal_pwm.h"
 1511              		.file 41 "../../modules/ChibiOS/os/hal/ports/STM32/LLD/TIMv1/hal_pwm_lld.h"
 1512              		.file 42 "../../modules/ChibiOS/os/hal/include/hal_serial.h"
 1513              		.file 43 "../../modules/ChibiOS/os/hal/ports/STM32/LLD/USARTv1/hal_serial_lld.h"
 1514              		.file 44 "../../modules/ChibiOS/os/hal/include/hal_sdc.h"
 1515              		.file 45 "../../modules/ChibiOS/os/hal/ports/STM32/LLD/SDIOv1/hal_sdc_lld.h"
 1516              		.file 46 "../../modules/ChibiOS/os/hal/include/hal_spi.h"
 1517              		.file 47 "../../modules/ChibiOS/os/hal/ports/STM32/LLD/SPIv1/hal_spi_lld.h"
 1518              		.file 48 "../../modules/ChibiOS/os/hal/include/hal_usb.h"
 1519              		.file 49 "../../modules/ChibiOS/os/hal/ports/STM32/LLD/OTGv1/hal_usb_lld.h"
 1520              		.file 50 "../../modules/ChibiOS/os/hal/ports/STM32/LLD/OTGv1/stm32_otg.h"
 1521              		.file 51 "../../modules/ChibiOS/os/rt/include/chthreads.h"