ARM GAS  /tmp/ccziqqJB.s 			page 1


   1              		.cpu cortex-m4
   2              		.eabi_attribute 27, 1
   3              		.eabi_attribute 28, 1
   4              		.eabi_attribute 20, 1
   5              		.eabi_attribute 21, 1
   6              		.eabi_attribute 23, 3
   7              		.eabi_attribute 24, 1
   8              		.eabi_attribute 25, 1
   9              		.eabi_attribute 26, 1
  10              		.eabi_attribute 30, 4
  11              		.eabi_attribute 34, 1
  12              		.eabi_attribute 18, 4
  13              		.file	"malloc.c"
  14              		.text
  15              	.Ltext0:
  16              		.cfi_sections	.debug_frame
  17              		.section	.text.malloc_flags,"ax",%progbits
  18              		.align	1
  19              		.syntax unified
  20              		.thumb
  21              		.thumb_func
  22              		.fpu fpv4-sp-d16
  23              		.type	malloc_flags, %function
  24              	malloc_flags:
  25              	.LFB324:
  26              		.file 1 "../../libraries/AP_HAL_ChibiOS/hwdef/common/malloc.c"
  27              		.loc 1 123 0
  28              		.cfi_startproc
  29              		@ args = 0, pretend = 0, frame = 0
  30              		@ frame_needed = 0, uses_anonymous_args = 0
  31              	.LVL0:
  32 0000 70B5     		push	{r4, r5, r6, lr}
  33              		.cfi_def_cfa_offset 16
  34              		.cfi_offset 4, -16
  35              		.cfi_offset 5, -12
  36              		.cfi_offset 6, -8
  37              		.cfi_offset 14, -4
  38              		.loc 1 124 0
  39 0002 0446     		mov	r4, r0
  40 0004 48B3     		cbz	r0, .L10
  41              	.LVL1:
  42              		.loc 1 132 0
  43 0006 11F00506 		ands	r6, r1, #5
  44 000a 19D0     		beq	.L3
  45              		.loc 1 134 0
  46 000c 0734     		adds	r4, r4, #7
  47              		.loc 1 139 0
  48 000e 0129     		cmp	r1, #1
  49              		.loc 1 134 0
  50 0010 24F00704 		bic	r4, r4, #7
  51              	.LVL2:
  52              		.loc 1 139 0
  53 0014 07D1     		bne	.L5
  54              	.L4:
  55              		.loc 1 141 0
  56 0016 0822     		movs	r2, #8
  57 0018 2146     		mov	r1, r4
ARM GAS  /tmp/ccziqqJB.s 			page 2


  58              	.LVL3:
  59 001a 0020     		movs	r0, #0
  60 001c FFF7FEFF 		bl	chHeapAllocAligned
  61              	.LVL4:
  62              		.loc 1 142 0
  63 0020 0546     		mov	r5, r0
  64 0022 B0B9     		cbnz	r0, .L7
  65              	.LVL5:
  66              		.loc 1 153 0 discriminator 1
  67 0024 76B1     		cbz	r6, .L6
  68              	.LVL6:
  69              	.L5:
  70              		.loc 1 184 0
  71 0026 0822     		movs	r2, #8
  72 0028 2146     		mov	r1, r4
  73 002a 1548     		ldr	r0, .L20
  74 002c FFF7FEFF 		bl	chHeapAllocAligned
  75              	.LVL7:
  76              		.loc 1 185 0
  77 0030 0546     		mov	r5, r0
  78 0032 18B1     		cbz	r0, .L1
  79              		.loc 1 186 0
  80 0034 2246     		mov	r2, r4
  81 0036 0021     		movs	r1, #0
  82              	.LVL8:
  83              	.L19:
  84              		.loc 1 195 0
  85 0038 FFF7FEFF 		bl	memset
  86              	.LVL9:
  87              	.L1:
  88              		.loc 1 197 0
  89 003c 2846     		mov	r0, r5
  90 003e 70BD     		pop	{r4, r5, r6, pc}
  91              	.LVL10:
  92              	.L3:
  93              		.loc 1 139 0
  94 0040 0129     		cmp	r1, #1
  95 0042 E8D9     		bls	.L4
  96              	.LVL11:
  97              	.L6:
  98              		.loc 1 161 0
  99 0044 0822     		movs	r2, #8
 100 0046 2146     		mov	r1, r4
 101 0048 0E48     		ldr	r0, .L20+4
 102 004a FFF7FEFF 		bl	chHeapAllocAligned
 103              	.LVL12:
 104              		.loc 1 162 0
 105 004e 0546     		mov	r5, r0
 106 0050 28B1     		cbz	r0, .L17
 107              	.LVL13:
 108              	.L7:
 109              		.loc 1 195 0
 110 0052 2246     		mov	r2, r4
 111 0054 0021     		movs	r1, #0
 112 0056 2846     		mov	r0, r5
 113 0058 EEE7     		b	.L19
 114              	.LVL14:
ARM GAS  /tmp/ccziqqJB.s 			page 3


 115              	.L10:
 116              		.loc 1 125 0
 117 005a 0546     		mov	r5, r0
 118 005c EEE7     		b	.L1
 119              	.LVL15:
 120              	.L17:
 121              		.loc 1 170 0
 122 005e 0822     		movs	r2, #8
 123 0060 2146     		mov	r1, r4
 124 0062 0848     		ldr	r0, .L20+4
 125              	.LVL16:
 126 0064 FFF7FEFF 		bl	chHeapAllocAligned
 127              	.LVL17:
 128              		.loc 1 171 0
 129 0068 0546     		mov	r5, r0
 130 006a 0028     		cmp	r0, #0
 131 006c F1D1     		bne	.L7
 132              	.LVL18:
 133              		.loc 1 176 0
 134 006e 0822     		movs	r2, #8
 135 0070 2146     		mov	r1, r4
 136 0072 FFF7FEFF 		bl	chHeapAllocAligned
 137              	.LVL19:
 138              		.loc 1 177 0
 139 0076 0546     		mov	r5, r0
 140 0078 0028     		cmp	r0, #0
 141 007a EAD1     		bne	.L7
 142 007c D3E7     		b	.L5
 143              	.L21:
 144 007e 00BF     		.align	2
 145              	.L20:
 146 0080 00000000 		.word	.LANCHOR1
 147 0084 20000000 		.word	.LANCHOR0+32
 148              		.cfi_endproc
 149              	.LFE324:
 150              		.size	malloc_flags, .-malloc_flags
 151              		.section	.text.malloc_check,"ax",%progbits
 152              		.align	1
 153              		.global	malloc_check
 154              		.syntax unified
 155              		.thumb
 156              		.thumb_func
 157              		.fpu fpv4-sp-d16
 158              		.type	malloc_check, %function
 159              	malloc_check:
 160              	.LFB325:
 161              		.loc 1 337 0
 162              		.cfi_startproc
 163              		@ args = 0, pretend = 0, frame = 0
 164              		@ frame_needed = 0, uses_anonymous_args = 0
 165              		@ link register save eliminated.
 166              	.LVL20:
 167 0000 7047     		bx	lr
 168              		.cfi_endproc
 169              	.LFE325:
 170              		.size	malloc_check, .-malloc_check
 171              		.section	.text.malloc,"ax",%progbits
ARM GAS  /tmp/ccziqqJB.s 			page 4


 172              		.align	1
 173              		.global	malloc
 174              		.syntax unified
 175              		.thumb
 176              		.thumb_func
 177              		.fpu fpv4-sp-d16
 178              		.type	malloc, %function
 179              	malloc:
 180              	.LFB326:
 181              		.loc 1 348 0
 182              		.cfi_startproc
 183              		@ args = 0, pretend = 0, frame = 0
 184              		@ frame_needed = 0, uses_anonymous_args = 0
 185              		@ link register save eliminated.
 186              	.LVL21:
 187              		.loc 1 349 0
 188 0000 0021     		movs	r1, #0
 189 0002 FFF7FEBF 		b	malloc_flags
 190              	.LVL22:
 191              		.cfi_endproc
 192              	.LFE326:
 193              		.size	malloc, .-malloc
 194              		.section	.text.malloc_sdcard_dma,"ax",%progbits
 195              		.align	1
 196              		.global	malloc_sdcard_dma
 197              		.syntax unified
 198              		.thumb
 199              		.thumb_func
 200              		.fpu fpv4-sp-d16
 201              		.type	malloc_sdcard_dma, %function
 202              	malloc_sdcard_dma:
 203              	.LFB328:
 204              		.loc 1 365 0
 205              		.cfi_startproc
 206              		@ args = 0, pretend = 0, frame = 0
 207              		@ frame_needed = 0, uses_anonymous_args = 0
 208              		@ link register save eliminated.
 209              	.LVL23:
 210              		.loc 1 369 0
 211 0000 0121     		movs	r1, #1
 212 0002 FFF7FEBF 		b	malloc_flags
 213              	.LVL24:
 214              		.cfi_endproc
 215              	.LFE328:
 216              		.size	malloc_sdcard_dma, .-malloc_sdcard_dma
 217              		.section	.text.malloc_init,"ax",%progbits
 218              		.align	1
 219              		.global	malloc_init
 220              		.syntax unified
 221              		.thumb
 222              		.thumb_func
 223              		.fpu fpv4-sp-d16
 224              		.type	malloc_init, %function
 225              	malloc_init:
 226              	.LFB323:
 227              		.loc 1 82 0
 228              		.cfi_startproc
ARM GAS  /tmp/ccziqqJB.s 			page 5


 229              		@ args = 0, pretend = 0, frame = 0
 230              		@ frame_needed = 0, uses_anonymous_args = 0
 231              	.LVL25:
 232 0000 38B5     		push	{r3, r4, r5, lr}
 233              		.cfi_def_cfa_offset 16
 234              		.cfi_offset 3, -16
 235              		.cfi_offset 4, -12
 236              		.cfi_offset 5, -8
 237              		.cfi_offset 14, -4
 238              		.loc 1 98 0
 239 0002 4FF48032 		mov	r2, #65536
 240 0006 4FF08051 		mov	r1, #268435456
 241 000a 0C48     		ldr	r0, .L29
 242 000c FFF7FEFF 		bl	chHeapObjectInit
 243              	.LVL26:
 244 0010 3725     		movs	r5, #55
 245 0012 4FF4C054 		mov	r4, #6144
 246              	.LVL27:
 247              	.L27:
 248              	.LBB2:
 249              		.loc 1 108 0
 250 0016 2046     		mov	r0, r4
 251 0018 FFF7FEFF 		bl	malloc_sdcard_dma
 252              	.LVL28:
 253              		.loc 1 109 0
 254 001c 0146     		mov	r1, r0
 255 001e 28B1     		cbz	r0, .L26
 256              		.loc 1 110 0
 257 0020 2246     		mov	r2, r4
 258 0022 0748     		ldr	r0, .L29+4
 259              	.LVL29:
 260              	.LBE2:
 261              		.loc 1 116 0
 262 0024 BDE83840 		pop	{r3, r4, r5, lr}
 263              		.cfi_remember_state
 264              		.cfi_restore 14
 265              		.cfi_restore 5
 266              		.cfi_restore 4
 267              		.cfi_restore 3
 268              		.cfi_def_cfa_offset 0
 269              	.LVL30:
 270              	.LBB3:
 271              		.loc 1 110 0
 272 0028 FFF7FEBF 		b	chHeapObjectInit
 273              	.LVL31:
 274              	.L26:
 275              		.cfi_restore_state
 276              		.loc 1 113 0
 277 002c C4EBC404 		rsb	r4, r4, r4, lsl #3
 278              	.LVL32:
 279              	.LBE3:
 280              		.loc 1 107 0
 281 0030 013D     		subs	r5, r5, #1
 282              	.LBB4:
 283              		.loc 1 113 0
 284 0032 4FEAD404 		lsr	r4, r4, #3
 285              	.LVL33:
ARM GAS  /tmp/ccziqqJB.s 			page 6


 286              	.LBE4:
 287              		.loc 1 107 0
 288 0036 EED1     		bne	.L27
 289              		.loc 1 116 0
 290 0038 38BD     		pop	{r3, r4, r5, pc}
 291              	.LVL34:
 292              	.L30:
 293 003a 00BF     		.align	2
 294              	.L29:
 295 003c 20000000 		.word	.LANCHOR0+32
 296 0040 00000000 		.word	.LANCHOR1
 297              		.cfi_endproc
 298              	.LFE323:
 299              		.size	malloc_init, .-malloc_init
 300              		.section	.text.malloc_dma,"ax",%progbits
 301              		.align	1
 302              		.global	malloc_dma
 303              		.syntax unified
 304              		.thumb
 305              		.thumb_func
 306              		.fpu fpv4-sp-d16
 307              		.type	malloc_dma, %function
 308              	malloc_dma:
 309              	.LFB337:
 310              		.cfi_startproc
 311              		@ args = 0, pretend = 0, frame = 0
 312              		@ frame_needed = 0, uses_anonymous_args = 0
 313              		@ link register save eliminated.
 314 0000 FFF7FEBF 		b	malloc_sdcard_dma
 315              		.cfi_endproc
 316              	.LFE337:
 317              		.size	malloc_dma, .-malloc_dma
 318              		.section	.text.malloc_fastmem,"ax",%progbits
 319              		.align	1
 320              		.global	malloc_fastmem
 321              		.syntax unified
 322              		.thumb
 323              		.thumb_func
 324              		.fpu fpv4-sp-d16
 325              		.type	malloc_fastmem, %function
 326              	malloc_fastmem:
 327              	.LFB329:
 328              		.loc 1 377 0
 329              		.cfi_startproc
 330              		@ args = 0, pretend = 0, frame = 0
 331              		@ frame_needed = 0, uses_anonymous_args = 0
 332              		@ link register save eliminated.
 333              	.LVL35:
 334              		.loc 1 378 0
 335 0000 0221     		movs	r1, #2
 336 0002 FFF7FEBF 		b	malloc_flags
 337              	.LVL36:
 338              		.cfi_endproc
 339              	.LFE329:
 340              		.size	malloc_fastmem, .-malloc_fastmem
 341              		.section	.text.calloc,"ax",%progbits
 342              		.align	1
ARM GAS  /tmp/ccziqqJB.s 			page 7


 343              		.global	calloc
 344              		.syntax unified
 345              		.thumb
 346              		.thumb_func
 347              		.fpu fpv4-sp-d16
 348              		.type	calloc, %function
 349              	calloc:
 350              	.LFB330:
 351              		.loc 1 382 0
 352              		.cfi_startproc
 353              		@ args = 0, pretend = 0, frame = 0
 354              		@ frame_needed = 0, uses_anonymous_args = 0
 355              		@ link register save eliminated.
 356              	.LVL37:
 357              		.loc 1 383 0
 358 0000 4843     		muls	r0, r1, r0
 359              	.LVL38:
 360 0002 FFF7FEBF 		b	malloc
 361              	.LVL39:
 362              		.cfi_endproc
 363              	.LFE330:
 364              		.size	calloc, .-calloc
 365              		.section	.text.free,"ax",%progbits
 366              		.align	1
 367              		.global	free
 368              		.syntax unified
 369              		.thumb
 370              		.thumb_func
 371              		.fpu fpv4-sp-d16
 372              		.type	free, %function
 373              	free:
 374              	.LFB331:
 375              		.loc 1 387 0
 376              		.cfi_startproc
 377              		@ args = 0, pretend = 0, frame = 0
 378              		@ frame_needed = 0, uses_anonymous_args = 0
 379              		@ link register save eliminated.
 380              	.LVL40:
 381              		.loc 1 388 0
 382 0000 08B1     		cbz	r0, .L34
 383              		.loc 1 392 0
 384 0002 FFF7FEBF 		b	chHeapFree
 385              	.LVL41:
 386              	.L34:
 387 0006 7047     		bx	lr
 388              		.cfi_endproc
 389              	.LFE331:
 390              		.size	free, .-free
 391              		.section	.text.mem_available,"ax",%progbits
 392              		.align	1
 393              		.global	mem_available
 394              		.syntax unified
 395              		.thumb
 396              		.thumb_func
 397              		.fpu fpv4-sp-d16
 398              		.type	mem_available, %function
 399              	mem_available:
ARM GAS  /tmp/ccziqqJB.s 			page 8


 400              	.LFB332:
 401              		.loc 1 401 0
 402              		.cfi_startproc
 403              		@ args = 0, pretend = 0, frame = 8
 404              		@ frame_needed = 0, uses_anonymous_args = 0
 405 0000 37B5     		push	{r0, r1, r2, r4, r5, lr}
 406              		.cfi_def_cfa_offset 24
 407              		.cfi_offset 4, -12
 408              		.cfi_offset 5, -8
 409              		.cfi_offset 14, -4
 410              		.loc 1 402 0
 411 0002 02A9     		add	r1, sp, #8
 412 0004 0024     		movs	r4, #0
 413 0006 41F8084D 		str	r4, [r1, #-8]!
 414              		.loc 1 406 0
 415 000a 2246     		mov	r2, r4
 416 000c 2046     		mov	r0, r4
 417 000e FFF7FEFF 		bl	chHeapStatus
 418              	.LVL42:
 419              	.LBB5:
 420              		.loc 1 413 0
 421 0012 02AD     		add	r5, sp, #8
 422              	.LBE5:
 423              		.loc 1 409 0
 424 0014 FFF7FEFF 		bl	chCoreGetStatusX
 425              	.LVL43:
 426 0018 009B     		ldr	r3, [sp]
 427              	.LBB6:
 428              		.loc 1 413 0
 429 001a 45F8044D 		str	r4, [r5, #-4]!
 430              	.LBE6:
 431              		.loc 1 409 0
 432 001e 1844     		add	r0, r0, r3
 433 0020 0090     		str	r0, [sp]
 434              	.LVL44:
 435              	.LBB7:
 436              		.loc 1 414 0
 437 0022 2246     		mov	r2, r4
 438 0024 2946     		mov	r1, r5
 439 0026 0948     		ldr	r0, .L37
 440 0028 FFF7FEFF 		bl	chHeapStatus
 441              	.LVL45:
 442              		.loc 1 415 0
 443 002c 9DE80C00 		ldm	sp, {r2, r3}
 444              	.LBE7:
 445              		.loc 1 421 0
 446 0030 2946     		mov	r1, r5
 447              	.LBB8:
 448              		.loc 1 415 0
 449 0032 1344     		add	r3, r3, r2
 450              	.LBE8:
 451              		.loc 1 421 0
 452 0034 0648     		ldr	r0, .L37+4
 453 0036 2246     		mov	r2, r4
 454              		.loc 1 420 0
 455 0038 8DE81800 		stm	sp, {r3, r4}
 456              		.loc 1 421 0
ARM GAS  /tmp/ccziqqJB.s 			page 9


 457 003c FFF7FEFF 		bl	chHeapStatus
 458              	.LVL46:
 459              		.loc 1 426 0
 460 0040 9DE80900 		ldm	sp, {r0, r3}
 461 0044 1844     		add	r0, r0, r3
 462 0046 03B0     		add	sp, sp, #12
 463              		.cfi_def_cfa_offset 12
 464              		@ sp needed
 465 0048 30BD     		pop	{r4, r5, pc}
 466              	.L38:
 467 004a 00BF     		.align	2
 468              	.L37:
 469 004c 20000000 		.word	.LANCHOR0+32
 470 0050 00000000 		.word	.LANCHOR1
 471              		.cfi_endproc
 472              	.LFE332:
 473              		.size	mem_available, .-mem_available
 474              		.section	.text.thread_create_alloc,"ax",%progbits
 475              		.align	1
 476              		.global	thread_create_alloc
 477              		.syntax unified
 478              		.thumb
 479              		.thumb_func
 480              		.fpu fpv4-sp-d16
 481              		.type	thread_create_alloc, %function
 482              	thread_create_alloc:
 483              	.LFB333:
 484              		.loc 1 434 0
 485              		.cfi_startproc
 486              		@ args = 4, pretend = 0, frame = 0
 487              		@ frame_needed = 0, uses_anonymous_args = 0
 488              	.LVL47:
 489 0000 2DE9F341 		push	{r0, r1, r4, r5, r6, r7, r8, lr}
 490              		.cfi_def_cfa_offset 32
 491              		.cfi_offset 4, -24
 492              		.cfi_offset 5, -20
 493              		.cfi_offset 6, -16
 494              		.cfi_offset 7, -12
 495              		.cfi_offset 8, -8
 496              		.cfi_offset 14, -4
 497              		.loc 1 434 0
 498 0004 DDF82080 		ldr	r8, [sp, #32]
 499 0008 1F46     		mov	r7, r3
 500 000a 0446     		mov	r4, r0
 501 000c 0D46     		mov	r5, r1
 502 000e 1646     		mov	r6, r2
 503              		.loc 1 437 0
 504 0010 1346     		mov	r3, r2
 505              	.LVL48:
 506 0012 8DE88001 		stm	sp, {r7, r8}
 507 0016 0A46     		mov	r2, r1
 508              	.LVL49:
 509 0018 0146     		mov	r1, r0
 510              	.LVL50:
 511 001a 0020     		movs	r0, #0
 512              	.LVL51:
 513 001c FFF7FEFF 		bl	chThdCreateFromHeap
ARM GAS  /tmp/ccziqqJB.s 			page 10


 514              	.LVL52:
 515              		.loc 1 438 0
 516 0020 38B9     		cbnz	r0, .L39
 517              	.LVL53:
 518              		.loc 1 445 0 discriminator 1
 519 0022 8DE88001 		stm	sp, {r7, r8}
 520 0026 3346     		mov	r3, r6
 521 0028 2A46     		mov	r2, r5
 522 002a 2146     		mov	r1, r4
 523 002c 0248     		ldr	r0, .L41
 524              	.LVL54:
 525 002e FFF7FEFF 		bl	chThdCreateFromHeap
 526              	.LVL55:
 527              	.L39:
 528              		.loc 1 451 0
 529 0032 02B0     		add	sp, sp, #8
 530              		.cfi_def_cfa_offset 24
 531              		@ sp needed
 532 0034 BDE8F081 		pop	{r4, r5, r6, r7, r8, pc}
 533              	.LVL56:
 534              	.L42:
 535              		.align	2
 536              	.L41:
 537 0038 20000000 		.word	.LANCHOR0+32
 538              		.cfi_endproc
 539              	.LFE333:
 540              		.size	thread_create_alloc, .-thread_create_alloc
 541              		.section	.text.memory_flush_all,"ax",%progbits
 542              		.align	1
 543              		.global	memory_flush_all
 544              		.syntax unified
 545              		.thumb
 546              		.thumb_func
 547              		.fpu fpv4-sp-d16
 548              		.type	memory_flush_all, %function
 549              	memory_flush_all:
 550              	.LFB334:
 551              		.loc 1 460 0
 552              		.cfi_startproc
 553              		@ args = 0, pretend = 0, frame = 0
 554              		@ frame_needed = 0, uses_anonymous_args = 0
 555              	.LVL57:
 556 0000 08B5     		push	{r3, lr}
 557              		.cfi_def_cfa_offset 8
 558              		.cfi_offset 3, -8
 559              		.cfi_offset 14, -4
 560              		.loc 1 463 0
 561 0002 4FF44031 		mov	r1, #196608
 562 0006 4FF00050 		mov	r0, #536870912
 563 000a FFF7FEFF 		bl	stm32_cacheBufferFlush
 564              	.LVL58:
 565 000e 4FF48031 		mov	r1, #65536
 566 0012 4FF08050 		mov	r0, #268435456
 567              		.loc 1 465 0
 568 0016 BDE80840 		pop	{r3, lr}
 569              		.cfi_restore 14
 570              		.cfi_restore 3
ARM GAS  /tmp/ccziqqJB.s 			page 11


 571              		.cfi_def_cfa_offset 0
 572              		.loc 1 463 0
 573 001a FFF7FEBF 		b	stm32_cacheBufferFlush
 574              	.LVL59:
 575              		.cfi_endproc
 576              	.LFE334:
 577              		.size	memory_flush_all, .-memory_flush_all
 578              		.section	.text.strdup,"ax",%progbits
 579              		.align	1
 580              		.global	strdup
 581              		.syntax unified
 582              		.thumb
 583              		.thumb_func
 584              		.fpu fpv4-sp-d16
 585              		.type	strdup, %function
 586              	strdup:
 587              	.LFB335:
 588              		.loc 1 471 0
 589              		.cfi_startproc
 590              		@ args = 0, pretend = 0, frame = 0
 591              		@ frame_needed = 0, uses_anonymous_args = 0
 592              	.LVL60:
 593 0000 70B5     		push	{r4, r5, r6, lr}
 594              		.cfi_def_cfa_offset 16
 595              		.cfi_offset 4, -16
 596              		.cfi_offset 5, -12
 597              		.cfi_offset 6, -8
 598              		.cfi_offset 14, -4
 599              		.loc 1 471 0
 600 0002 0646     		mov	r6, r0
 601              		.loc 1 472 0
 602 0004 FFF7FEFF 		bl	strlen
 603              	.LVL61:
 604 0008 0446     		mov	r4, r0
 605              	.LVL62:
 606              		.loc 1 473 0
 607 000a 0130     		adds	r0, r0, #1
 608              	.LVL63:
 609 000c FFF7FEFF 		bl	malloc
 610              	.LVL64:
 611              		.loc 1 474 0
 612 0010 0546     		mov	r5, r0
 613 0012 28B1     		cbz	r0, .L44
 614              		.loc 1 477 0
 615 0014 2246     		mov	r2, r4
 616 0016 3146     		mov	r1, r6
 617 0018 FFF7FEFF 		bl	memcpy
 618              	.LVL65:
 619              		.loc 1 478 0
 620 001c 0023     		movs	r3, #0
 621 001e 2B55     		strb	r3, [r5, r4]
 622              	.L44:
 623              		.loc 1 480 0
 624 0020 2846     		mov	r0, r5
 625 0022 70BD     		pop	{r4, r5, r6, pc}
 626              		.cfi_endproc
 627              	.LFE335:
ARM GAS  /tmp/ccziqqJB.s 			page 12


 628              		.size	strdup, .-strdup
 629              		.section	.bss.dma_reserve_heap,"aw",%nobits
 630              		.align	2
 631              		.set	.LANCHOR1,. + 0
 632              		.type	dma_reserve_heap, %object
 633              		.size	dma_reserve_heap, 32
 634              	dma_reserve_heap:
 635 0000 00000000 		.space	32
 635      00000000 
 635      00000000 
 635      00000000 
 635      00000000 
 636              		.section	.bss.heaps,"aw",%nobits
 637              		.align	2
 638              		.set	.LANCHOR0,. + 0
 639              		.type	heaps, %object
 640              		.size	heaps, 64
 641              	heaps:
 642 0000 00000000 		.space	64
 642      00000000 
 642      00000000 
 642      00000000 
 642      00000000 
 643              		.text
 644              	.Letext0:
 645              		.file 2 "/opt/gcc-arm-none-eabi-6-2017-q2-update/lib/gcc/arm-none-eabi/6.3.1/include/stdarg.h"
 646              		.file 3 "/opt/gcc-arm-none-eabi-6-2017-q2-update/arm-none-eabi/include/machine/_default_types.h"
 647              		.file 4 "/opt/gcc-arm-none-eabi-6-2017-q2-update/arm-none-eabi/include/sys/_stdint.h"
 648              		.file 5 "/opt/gcc-arm-none-eabi-6-2017-q2-update/arm-none-eabi/include/stdint.h"
 649              		.file 6 "/opt/gcc-arm-none-eabi-6-2017-q2-update/lib/gcc/arm-none-eabi/6.3.1/include/stddef.h"
 650              		.file 7 "/opt/gcc-arm-none-eabi-6-2017-q2-update/arm-none-eabi/include/sys/lock.h"
 651              		.file 8 "/opt/gcc-arm-none-eabi-6-2017-q2-update/arm-none-eabi/include/sys/_types.h"
 652              		.file 9 "/opt/gcc-arm-none-eabi-6-2017-q2-update/arm-none-eabi/include/sys/reent.h"
 653              		.file 10 "<built-in>"
 654              		.file 11 "../../libraries/AP_HAL_ChibiOS/hwdef/common/stdio.h"
 655              		.file 12 "../../modules/ChibiOS/os/common/ports/ARMCMx/compilers/GCC/chtypes.h"
 656              		.file 13 "../../modules/ChibiOS/os/rt/include/chsystypes.h"
 657              		.file 14 "../../modules/ChibiOS/os/rt/include/chschd.h"
 658              		.file 15 "../../modules/ChibiOS/os/rt/include/chtime.h"
 659              		.file 16 "../../modules/ChibiOS/os/common/ext/ARM/CMSIS/Core/Include/core_cm4.h"
 660              		.file 17 "../../modules/ChibiOS/os/common/ext/ST/STM32F4xx/system_stm32f4xx.h"
 661              		.file 18 "../../modules/ChibiOS/os/common/ext/ST/STM32F4xx/stm32f427xx.h"
 662              		.file 19 "../../modules/ChibiOS/os/common/ports/ARMCMx/chcore.h"
 663              		.file 20 "../../modules/ChibiOS/os/common/ports/ARMCMx/chcore_v7m.h"
 664              		.file 21 "../../modules/ChibiOS/os/hal/ports/STM32/LLD/TIMv1/stm32_tim.h"
 665              		.file 22 "../../modules/ChibiOS/os/rt/include/chtm.h"
 666              		.file 23 "../../modules/ChibiOS/os/rt/include/chsem.h"
 667              		.file 24 "../../modules/ChibiOS/os/rt/include/chmtx.h"
 668              		.file 25 "../../modules/ChibiOS/os/rt/include/chsys.h"
 669              		.file 26 "../../modules/ChibiOS/os/rt/include/chthreads.h"
 670              		.file 27 "../../modules/ChibiOS/os/rt/include/chregistry.h"
 671              		.file 28 "../../modules/ChibiOS/os/rt/include/chevents.h"
 672              		.file 29 "../../modules/ChibiOS/os/oslib/include/chmemcore.h"
 673              		.file 30 "../../modules/ChibiOS/os/oslib/include/chmemheaps.h"
 674              		.file 31 "../../modules/ChibiOS/os/oslib/include/chmempools.h"
 675              		.file 32 "../../modules/ChibiOS/os/oslib/include/chfactory.h"
 676              		.file 33 "../../modules/ChibiOS/os/hal/ports/STM32/LLD/DMAv2/stm32_dma.h"
ARM GAS  /tmp/ccziqqJB.s 			page 13


 677              		.file 34 "../../modules/ChibiOS/os/hal/include/hal_ioblock.h"
 678              		.file 35 "../../modules/ChibiOS/os/hal/include/hal_queues.h"
 679              		.file 36 "../../modules/ChibiOS/os/hal/include/hal_pal.h"
 680              		.file 37 "../../modules/ChibiOS/os/hal/ports/STM32/LLD/GPIOv2/stm32_gpio.h"
 681              		.file 38 "../../modules/ChibiOS/os/hal/ports/STM32/LLD/GPIOv2/hal_pal_lld.h"
 682              		.file 39 "../../modules/ChibiOS/os/hal/include/hal_adc.h"
 683              		.file 40 "../../modules/ChibiOS/os/hal/ports/STM32/LLD/ADCv2/hal_adc_lld.h"
 684              		.file 41 "../../modules/ChibiOS/os/hal/include/hal_i2c.h"
 685              		.file 42 "../../modules/ChibiOS/os/hal/ports/STM32/LLD/I2Cv1/hal_i2c_lld.h"
 686              		.file 43 "../../modules/ChibiOS/os/hal/include/hal_pwm.h"
 687              		.file 44 "../../modules/ChibiOS/os/hal/ports/STM32/LLD/TIMv1/hal_pwm_lld.h"
 688              		.file 45 "../../modules/ChibiOS/os/hal/include/hal_serial.h"
 689              		.file 46 "../../modules/ChibiOS/os/hal/ports/STM32/LLD/USARTv1/hal_serial_lld.h"
 690              		.file 47 "../../modules/ChibiOS/os/hal/include/hal_sdc.h"
 691              		.file 48 "../../modules/ChibiOS/os/hal/ports/STM32/LLD/SDIOv1/hal_sdc_lld.h"
 692              		.file 49 "../../modules/ChibiOS/os/hal/include/hal_spi.h"
 693              		.file 50 "../../modules/ChibiOS/os/hal/ports/STM32/LLD/SPIv1/hal_spi_lld.h"
 694              		.file 51 "../../modules/ChibiOS/os/hal/include/hal_usb.h"
 695              		.file 52 "../../modules/ChibiOS/os/hal/ports/STM32/LLD/OTGv1/hal_usb_lld.h"
 696              		.file 53 "../../modules/ChibiOS/os/hal/ports/STM32/LLD/OTGv1/stm32_otg.h"
 697              		.file 54 "../../libraries/AP_HAL_ChibiOS/hwdef/common/stm32_util.h"
 698              		.file 55 "/opt/gcc-arm-none-eabi-6-2017-q2-update/arm-none-eabi/include/string.h"
 699              		.file 56 "../../modules/ChibiOS/os/rt/include/chdynamic.h"