ARM GAS  /tmp/cc4BypHj.s 			page 1


   1              		.cpu cortex-m4
   2              		.eabi_attribute 27, 1
   3              		.eabi_attribute 28, 1
   4              		.eabi_attribute 20, 1
   5              		.eabi_attribute 21, 1
   6              		.eabi_attribute 23, 3
   7              		.eabi_attribute 24, 1
   8              		.eabi_attribute 25, 1
   9              		.eabi_attribute 26, 1
  10              		.eabi_attribute 30, 4
  11              		.eabi_attribute 34, 1
  12              		.eabi_attribute 18, 4
  13              		.file	"stm32_dma.c"
  14              		.text
  15              	.Ltext0:
  16              		.cfi_sections	.debug_frame
  17              		.section	.text.Vector6C,"ax",%progbits
  18              		.align	1
  19              		.global	Vector6C
  20              		.syntax unified
  21              		.thumb
  22              		.thumb_func
  23              		.fpu fpv4-sp-d16
  24              		.type	Vector6C, %function
  25              	Vector6C:
  26              	.LFB323:
  27              		.file 1 "../../modules/ChibiOS/os/hal/ports/STM32/LLD/DMAv2/stm32_dma.c"
  28              		.loc 1 163 0
  29              		.cfi_startproc
  30              		@ args = 0, pretend = 0, frame = 0
  31              		@ frame_needed = 0, uses_anonymous_args = 0
  32 0000 08B5     		push	{r3, lr}
  33              		.cfi_def_cfa_offset 8
  34              		.cfi_offset 3, -8
  35              		.cfi_offset 14, -4
  36              		.loc 1 168 0
  37 0002 074B     		ldr	r3, .L6
  38              		.loc 1 170 0
  39 0004 074A     		ldr	r2, .L6+4
  40              		.loc 1 168 0
  41 0006 1968     		ldr	r1, [r3]
  42 0008 01F03D01 		and	r1, r1, #61
  43              	.LVL0:
  44              		.loc 1 169 0
  45 000c 9960     		str	r1, [r3, #8]
  46              		.loc 1 170 0
  47 000e 5368     		ldr	r3, [r2, #4]
  48 0010 0BB1     		cbz	r3, .L2
  49              		.loc 1 171 0
  50 0012 9068     		ldr	r0, [r2, #8]
  51 0014 9847     		blx	r3
  52              	.LVL1:
  53              	.L2:
  54              		.loc 1 174 0
  55 0016 BDE80840 		pop	{r3, lr}
  56              		.cfi_restore 14
  57              		.cfi_restore 3
ARM GAS  /tmp/cc4BypHj.s 			page 2


  58              		.cfi_def_cfa_offset 0
  59              		.loc 1 173 0
  60 001a FFF7FEBF 		b	_port_irq_epilogue
  61              	.LVL2:
  62              	.L7:
  63 001e 00BF     		.align	2
  64              	.L6:
  65 0020 00600240 		.word	1073897472
  66 0024 00000000 		.word	.LANCHOR0
  67              		.cfi_endproc
  68              	.LFE323:
  69              		.size	Vector6C, .-Vector6C
  70              		.section	.text.Vector70,"ax",%progbits
  71              		.align	1
  72              		.global	Vector70
  73              		.syntax unified
  74              		.thumb
  75              		.thumb_func
  76              		.fpu fpv4-sp-d16
  77              		.type	Vector70, %function
  78              	Vector70:
  79              	.LFB324:
  80              		.loc 1 181 0
  81              		.cfi_startproc
  82              		@ args = 0, pretend = 0, frame = 0
  83              		@ frame_needed = 0, uses_anonymous_args = 0
  84 0000 08B5     		push	{r3, lr}
  85              		.cfi_def_cfa_offset 8
  86              		.cfi_offset 3, -8
  87              		.cfi_offset 14, -4
  88              		.loc 1 186 0
  89 0002 084B     		ldr	r3, .L13
  90 0004 1968     		ldr	r1, [r3]
  91 0006 8909     		lsrs	r1, r1, #6
  92 0008 01F03D01 		and	r1, r1, #61
  93              	.LVL3:
  94              		.loc 1 187 0
  95 000c 8A01     		lsls	r2, r1, #6
  96 000e 9A60     		str	r2, [r3, #8]
  97              		.loc 1 188 0
  98 0010 054A     		ldr	r2, .L13+4
  99 0012 D368     		ldr	r3, [r2, #12]
 100 0014 0BB1     		cbz	r3, .L9
 101              		.loc 1 189 0
 102 0016 1069     		ldr	r0, [r2, #16]
 103 0018 9847     		blx	r3
 104              	.LVL4:
 105              	.L9:
 106              		.loc 1 192 0
 107 001a BDE80840 		pop	{r3, lr}
 108              		.cfi_restore 14
 109              		.cfi_restore 3
 110              		.cfi_def_cfa_offset 0
 111              		.loc 1 191 0
 112 001e FFF7FEBF 		b	_port_irq_epilogue
 113              	.LVL5:
 114              	.L14:
ARM GAS  /tmp/cc4BypHj.s 			page 3


 115 0022 00BF     		.align	2
 116              	.L13:
 117 0024 00600240 		.word	1073897472
 118 0028 00000000 		.word	.LANCHOR0
 119              		.cfi_endproc
 120              	.LFE324:
 121              		.size	Vector70, .-Vector70
 122              		.section	.text.Vector74,"ax",%progbits
 123              		.align	1
 124              		.global	Vector74
 125              		.syntax unified
 126              		.thumb
 127              		.thumb_func
 128              		.fpu fpv4-sp-d16
 129              		.type	Vector74, %function
 130              	Vector74:
 131              	.LFB325:
 132              		.loc 1 199 0
 133              		.cfi_startproc
 134              		@ args = 0, pretend = 0, frame = 0
 135              		@ frame_needed = 0, uses_anonymous_args = 0
 136 0000 08B5     		push	{r3, lr}
 137              		.cfi_def_cfa_offset 8
 138              		.cfi_offset 3, -8
 139              		.cfi_offset 14, -4
 140              		.loc 1 204 0
 141 0002 084B     		ldr	r3, .L20
 142 0004 1968     		ldr	r1, [r3]
 143 0006 090C     		lsrs	r1, r1, #16
 144 0008 01F03D01 		and	r1, r1, #61
 145              	.LVL6:
 146              		.loc 1 205 0
 147 000c 0A04     		lsls	r2, r1, #16
 148 000e 9A60     		str	r2, [r3, #8]
 149              		.loc 1 206 0
 150 0010 054A     		ldr	r2, .L20+4
 151 0012 5369     		ldr	r3, [r2, #20]
 152 0014 0BB1     		cbz	r3, .L16
 153              		.loc 1 207 0
 154 0016 9069     		ldr	r0, [r2, #24]
 155 0018 9847     		blx	r3
 156              	.LVL7:
 157              	.L16:
 158              		.loc 1 210 0
 159 001a BDE80840 		pop	{r3, lr}
 160              		.cfi_restore 14
 161              		.cfi_restore 3
 162              		.cfi_def_cfa_offset 0
 163              		.loc 1 209 0
 164 001e FFF7FEBF 		b	_port_irq_epilogue
 165              	.LVL8:
 166              	.L21:
 167 0022 00BF     		.align	2
 168              	.L20:
 169 0024 00600240 		.word	1073897472
 170 0028 00000000 		.word	.LANCHOR0
 171              		.cfi_endproc
ARM GAS  /tmp/cc4BypHj.s 			page 4


 172              	.LFE325:
 173              		.size	Vector74, .-Vector74
 174              		.section	.text.Vector78,"ax",%progbits
 175              		.align	1
 176              		.global	Vector78
 177              		.syntax unified
 178              		.thumb
 179              		.thumb_func
 180              		.fpu fpv4-sp-d16
 181              		.type	Vector78, %function
 182              	Vector78:
 183              	.LFB326:
 184              		.loc 1 217 0
 185              		.cfi_startproc
 186              		@ args = 0, pretend = 0, frame = 0
 187              		@ frame_needed = 0, uses_anonymous_args = 0
 188 0000 08B5     		push	{r3, lr}
 189              		.cfi_def_cfa_offset 8
 190              		.cfi_offset 3, -8
 191              		.cfi_offset 14, -4
 192              		.loc 1 222 0
 193 0002 084B     		ldr	r3, .L27
 194 0004 1968     		ldr	r1, [r3]
 195 0006 890D     		lsrs	r1, r1, #22
 196 0008 01F03D01 		and	r1, r1, #61
 197              	.LVL9:
 198              		.loc 1 223 0
 199 000c 8A05     		lsls	r2, r1, #22
 200 000e 9A60     		str	r2, [r3, #8]
 201              		.loc 1 224 0
 202 0010 054A     		ldr	r2, .L27+4
 203 0012 D369     		ldr	r3, [r2, #28]
 204 0014 0BB1     		cbz	r3, .L23
 205              		.loc 1 225 0
 206 0016 106A     		ldr	r0, [r2, #32]
 207 0018 9847     		blx	r3
 208              	.LVL10:
 209              	.L23:
 210              		.loc 1 228 0
 211 001a BDE80840 		pop	{r3, lr}
 212              		.cfi_restore 14
 213              		.cfi_restore 3
 214              		.cfi_def_cfa_offset 0
 215              		.loc 1 227 0
 216 001e FFF7FEBF 		b	_port_irq_epilogue
 217              	.LVL11:
 218              	.L28:
 219 0022 00BF     		.align	2
 220              	.L27:
 221 0024 00600240 		.word	1073897472
 222 0028 00000000 		.word	.LANCHOR0
 223              		.cfi_endproc
 224              	.LFE326:
 225              		.size	Vector78, .-Vector78
 226              		.section	.text.Vector7C,"ax",%progbits
 227              		.align	1
 228              		.global	Vector7C
ARM GAS  /tmp/cc4BypHj.s 			page 5


 229              		.syntax unified
 230              		.thumb
 231              		.thumb_func
 232              		.fpu fpv4-sp-d16
 233              		.type	Vector7C, %function
 234              	Vector7C:
 235              	.LFB327:
 236              		.loc 1 235 0
 237              		.cfi_startproc
 238              		@ args = 0, pretend = 0, frame = 0
 239              		@ frame_needed = 0, uses_anonymous_args = 0
 240 0000 08B5     		push	{r3, lr}
 241              		.cfi_def_cfa_offset 8
 242              		.cfi_offset 3, -8
 243              		.cfi_offset 14, -4
 244              		.loc 1 240 0
 245 0002 074B     		ldr	r3, .L34
 246              		.loc 1 242 0
 247 0004 074A     		ldr	r2, .L34+4
 248              		.loc 1 240 0
 249 0006 5968     		ldr	r1, [r3, #4]
 250 0008 01F03D01 		and	r1, r1, #61
 251              	.LVL12:
 252              		.loc 1 241 0
 253 000c D960     		str	r1, [r3, #12]
 254              		.loc 1 242 0
 255 000e 536A     		ldr	r3, [r2, #36]
 256 0010 0BB1     		cbz	r3, .L30
 257              		.loc 1 243 0
 258 0012 906A     		ldr	r0, [r2, #40]
 259 0014 9847     		blx	r3
 260              	.LVL13:
 261              	.L30:
 262              		.loc 1 246 0
 263 0016 BDE80840 		pop	{r3, lr}
 264              		.cfi_restore 14
 265              		.cfi_restore 3
 266              		.cfi_def_cfa_offset 0
 267              		.loc 1 245 0
 268 001a FFF7FEBF 		b	_port_irq_epilogue
 269              	.LVL14:
 270              	.L35:
 271 001e 00BF     		.align	2
 272              	.L34:
 273 0020 00600240 		.word	1073897472
 274 0024 00000000 		.word	.LANCHOR0
 275              		.cfi_endproc
 276              	.LFE327:
 277              		.size	Vector7C, .-Vector7C
 278              		.section	.text.Vector80,"ax",%progbits
 279              		.align	1
 280              		.global	Vector80
 281              		.syntax unified
 282              		.thumb
 283              		.thumb_func
 284              		.fpu fpv4-sp-d16
 285              		.type	Vector80, %function
ARM GAS  /tmp/cc4BypHj.s 			page 6


 286              	Vector80:
 287              	.LFB328:
 288              		.loc 1 253 0
 289              		.cfi_startproc
 290              		@ args = 0, pretend = 0, frame = 0
 291              		@ frame_needed = 0, uses_anonymous_args = 0
 292 0000 08B5     		push	{r3, lr}
 293              		.cfi_def_cfa_offset 8
 294              		.cfi_offset 3, -8
 295              		.cfi_offset 14, -4
 296              		.loc 1 258 0
 297 0002 084B     		ldr	r3, .L41
 298 0004 5968     		ldr	r1, [r3, #4]
 299 0006 8909     		lsrs	r1, r1, #6
 300 0008 01F03D01 		and	r1, r1, #61
 301              	.LVL15:
 302              		.loc 1 259 0
 303 000c 8A01     		lsls	r2, r1, #6
 304 000e DA60     		str	r2, [r3, #12]
 305              		.loc 1 260 0
 306 0010 054A     		ldr	r2, .L41+4
 307 0012 D36A     		ldr	r3, [r2, #44]
 308 0014 0BB1     		cbz	r3, .L37
 309              		.loc 1 261 0
 310 0016 106B     		ldr	r0, [r2, #48]
 311 0018 9847     		blx	r3
 312              	.LVL16:
 313              	.L37:
 314              		.loc 1 264 0
 315 001a BDE80840 		pop	{r3, lr}
 316              		.cfi_restore 14
 317              		.cfi_restore 3
 318              		.cfi_def_cfa_offset 0
 319              		.loc 1 263 0
 320 001e FFF7FEBF 		b	_port_irq_epilogue
 321              	.LVL17:
 322              	.L42:
 323 0022 00BF     		.align	2
 324              	.L41:
 325 0024 00600240 		.word	1073897472
 326 0028 00000000 		.word	.LANCHOR0
 327              		.cfi_endproc
 328              	.LFE328:
 329              		.size	Vector80, .-Vector80
 330              		.section	.text.Vector84,"ax",%progbits
 331              		.align	1
 332              		.global	Vector84
 333              		.syntax unified
 334              		.thumb
 335              		.thumb_func
 336              		.fpu fpv4-sp-d16
 337              		.type	Vector84, %function
 338              	Vector84:
 339              	.LFB329:
 340              		.loc 1 271 0
 341              		.cfi_startproc
 342              		@ args = 0, pretend = 0, frame = 0
ARM GAS  /tmp/cc4BypHj.s 			page 7


 343              		@ frame_needed = 0, uses_anonymous_args = 0
 344 0000 08B5     		push	{r3, lr}
 345              		.cfi_def_cfa_offset 8
 346              		.cfi_offset 3, -8
 347              		.cfi_offset 14, -4
 348              		.loc 1 276 0
 349 0002 084B     		ldr	r3, .L48
 350 0004 5968     		ldr	r1, [r3, #4]
 351 0006 090C     		lsrs	r1, r1, #16
 352 0008 01F03D01 		and	r1, r1, #61
 353              	.LVL18:
 354              		.loc 1 277 0
 355 000c 0A04     		lsls	r2, r1, #16
 356 000e DA60     		str	r2, [r3, #12]
 357              		.loc 1 278 0
 358 0010 054A     		ldr	r2, .L48+4
 359 0012 536B     		ldr	r3, [r2, #52]
 360 0014 0BB1     		cbz	r3, .L44
 361              		.loc 1 279 0
 362 0016 906B     		ldr	r0, [r2, #56]
 363 0018 9847     		blx	r3
 364              	.LVL19:
 365              	.L44:
 366              		.loc 1 282 0
 367 001a BDE80840 		pop	{r3, lr}
 368              		.cfi_restore 14
 369              		.cfi_restore 3
 370              		.cfi_def_cfa_offset 0
 371              		.loc 1 281 0
 372 001e FFF7FEBF 		b	_port_irq_epilogue
 373              	.LVL20:
 374              	.L49:
 375 0022 00BF     		.align	2
 376              	.L48:
 377 0024 00600240 		.word	1073897472
 378 0028 00000000 		.word	.LANCHOR0
 379              		.cfi_endproc
 380              	.LFE329:
 381              		.size	Vector84, .-Vector84
 382              		.section	.text.VectorFC,"ax",%progbits
 383              		.align	1
 384              		.global	VectorFC
 385              		.syntax unified
 386              		.thumb
 387              		.thumb_func
 388              		.fpu fpv4-sp-d16
 389              		.type	VectorFC, %function
 390              	VectorFC:
 391              	.LFB330:
 392              		.loc 1 289 0
 393              		.cfi_startproc
 394              		@ args = 0, pretend = 0, frame = 0
 395              		@ frame_needed = 0, uses_anonymous_args = 0
 396 0000 08B5     		push	{r3, lr}
 397              		.cfi_def_cfa_offset 8
 398              		.cfi_offset 3, -8
 399              		.cfi_offset 14, -4
ARM GAS  /tmp/cc4BypHj.s 			page 8


 400              		.loc 1 294 0
 401 0002 084B     		ldr	r3, .L55
 402 0004 5968     		ldr	r1, [r3, #4]
 403 0006 890D     		lsrs	r1, r1, #22
 404 0008 01F03D01 		and	r1, r1, #61
 405              	.LVL21:
 406              		.loc 1 295 0
 407 000c 8A05     		lsls	r2, r1, #22
 408 000e DA60     		str	r2, [r3, #12]
 409              		.loc 1 296 0
 410 0010 054A     		ldr	r2, .L55+4
 411 0012 D36B     		ldr	r3, [r2, #60]
 412 0014 0BB1     		cbz	r3, .L51
 413              		.loc 1 297 0
 414 0016 106C     		ldr	r0, [r2, #64]
 415 0018 9847     		blx	r3
 416              	.LVL22:
 417              	.L51:
 418              		.loc 1 300 0
 419 001a BDE80840 		pop	{r3, lr}
 420              		.cfi_restore 14
 421              		.cfi_restore 3
 422              		.cfi_def_cfa_offset 0
 423              		.loc 1 299 0
 424 001e FFF7FEBF 		b	_port_irq_epilogue
 425              	.LVL23:
 426              	.L56:
 427 0022 00BF     		.align	2
 428              	.L55:
 429 0024 00600240 		.word	1073897472
 430 0028 00000000 		.word	.LANCHOR0
 431              		.cfi_endproc
 432              	.LFE330:
 433              		.size	VectorFC, .-VectorFC
 434              		.section	.text.Vector120,"ax",%progbits
 435              		.align	1
 436              		.global	Vector120
 437              		.syntax unified
 438              		.thumb
 439              		.thumb_func
 440              		.fpu fpv4-sp-d16
 441              		.type	Vector120, %function
 442              	Vector120:
 443              	.LFB331:
 444              		.loc 1 307 0
 445              		.cfi_startproc
 446              		@ args = 0, pretend = 0, frame = 0
 447              		@ frame_needed = 0, uses_anonymous_args = 0
 448 0000 08B5     		push	{r3, lr}
 449              		.cfi_def_cfa_offset 8
 450              		.cfi_offset 3, -8
 451              		.cfi_offset 14, -4
 452              		.loc 1 312 0
 453 0002 074B     		ldr	r3, .L62
 454              		.loc 1 314 0
 455 0004 074A     		ldr	r2, .L62+4
 456              		.loc 1 312 0
ARM GAS  /tmp/cc4BypHj.s 			page 9


 457 0006 1968     		ldr	r1, [r3]
 458 0008 01F03D01 		and	r1, r1, #61
 459              	.LVL24:
 460              		.loc 1 313 0
 461 000c 9960     		str	r1, [r3, #8]
 462              		.loc 1 314 0
 463 000e 536C     		ldr	r3, [r2, #68]
 464 0010 0BB1     		cbz	r3, .L58
 465              		.loc 1 315 0
 466 0012 906C     		ldr	r0, [r2, #72]
 467 0014 9847     		blx	r3
 468              	.LVL25:
 469              	.L58:
 470              		.loc 1 318 0
 471 0016 BDE80840 		pop	{r3, lr}
 472              		.cfi_restore 14
 473              		.cfi_restore 3
 474              		.cfi_def_cfa_offset 0
 475              		.loc 1 317 0
 476 001a FFF7FEBF 		b	_port_irq_epilogue
 477              	.LVL26:
 478              	.L63:
 479 001e 00BF     		.align	2
 480              	.L62:
 481 0020 00640240 		.word	1073898496
 482 0024 00000000 		.word	.LANCHOR0
 483              		.cfi_endproc
 484              	.LFE331:
 485              		.size	Vector120, .-Vector120
 486              		.section	.text.Vector124,"ax",%progbits
 487              		.align	1
 488              		.global	Vector124
 489              		.syntax unified
 490              		.thumb
 491              		.thumb_func
 492              		.fpu fpv4-sp-d16
 493              		.type	Vector124, %function
 494              	Vector124:
 495              	.LFB332:
 496              		.loc 1 325 0
 497              		.cfi_startproc
 498              		@ args = 0, pretend = 0, frame = 0
 499              		@ frame_needed = 0, uses_anonymous_args = 0
 500 0000 08B5     		push	{r3, lr}
 501              		.cfi_def_cfa_offset 8
 502              		.cfi_offset 3, -8
 503              		.cfi_offset 14, -4
 504              		.loc 1 330 0
 505 0002 084B     		ldr	r3, .L69
 506 0004 1968     		ldr	r1, [r3]
 507 0006 8909     		lsrs	r1, r1, #6
 508 0008 01F03D01 		and	r1, r1, #61
 509              	.LVL27:
 510              		.loc 1 331 0
 511 000c 8A01     		lsls	r2, r1, #6
 512 000e 9A60     		str	r2, [r3, #8]
 513              		.loc 1 332 0
ARM GAS  /tmp/cc4BypHj.s 			page 10


 514 0010 054A     		ldr	r2, .L69+4
 515 0012 D36C     		ldr	r3, [r2, #76]
 516 0014 0BB1     		cbz	r3, .L65
 517              		.loc 1 333 0
 518 0016 106D     		ldr	r0, [r2, #80]
 519 0018 9847     		blx	r3
 520              	.LVL28:
 521              	.L65:
 522              		.loc 1 336 0
 523 001a BDE80840 		pop	{r3, lr}
 524              		.cfi_restore 14
 525              		.cfi_restore 3
 526              		.cfi_def_cfa_offset 0
 527              		.loc 1 335 0
 528 001e FFF7FEBF 		b	_port_irq_epilogue
 529              	.LVL29:
 530              	.L70:
 531 0022 00BF     		.align	2
 532              	.L69:
 533 0024 00640240 		.word	1073898496
 534 0028 00000000 		.word	.LANCHOR0
 535              		.cfi_endproc
 536              	.LFE332:
 537              		.size	Vector124, .-Vector124
 538              		.section	.text.Vector128,"ax",%progbits
 539              		.align	1
 540              		.global	Vector128
 541              		.syntax unified
 542              		.thumb
 543              		.thumb_func
 544              		.fpu fpv4-sp-d16
 545              		.type	Vector128, %function
 546              	Vector128:
 547              	.LFB333:
 548              		.loc 1 343 0
 549              		.cfi_startproc
 550              		@ args = 0, pretend = 0, frame = 0
 551              		@ frame_needed = 0, uses_anonymous_args = 0
 552 0000 08B5     		push	{r3, lr}
 553              		.cfi_def_cfa_offset 8
 554              		.cfi_offset 3, -8
 555              		.cfi_offset 14, -4
 556              		.loc 1 348 0
 557 0002 084B     		ldr	r3, .L76
 558 0004 1968     		ldr	r1, [r3]
 559 0006 090C     		lsrs	r1, r1, #16
 560 0008 01F03D01 		and	r1, r1, #61
 561              	.LVL30:
 562              		.loc 1 349 0
 563 000c 0A04     		lsls	r2, r1, #16
 564 000e 9A60     		str	r2, [r3, #8]
 565              		.loc 1 350 0
 566 0010 054A     		ldr	r2, .L76+4
 567 0012 536D     		ldr	r3, [r2, #84]
 568 0014 0BB1     		cbz	r3, .L72
 569              		.loc 1 351 0
 570 0016 906D     		ldr	r0, [r2, #88]
ARM GAS  /tmp/cc4BypHj.s 			page 11


 571 0018 9847     		blx	r3
 572              	.LVL31:
 573              	.L72:
 574              		.loc 1 354 0
 575 001a BDE80840 		pop	{r3, lr}
 576              		.cfi_restore 14
 577              		.cfi_restore 3
 578              		.cfi_def_cfa_offset 0
 579              		.loc 1 353 0
 580 001e FFF7FEBF 		b	_port_irq_epilogue
 581              	.LVL32:
 582              	.L77:
 583 0022 00BF     		.align	2
 584              	.L76:
 585 0024 00640240 		.word	1073898496
 586 0028 00000000 		.word	.LANCHOR0
 587              		.cfi_endproc
 588              	.LFE333:
 589              		.size	Vector128, .-Vector128
 590              		.section	.text.Vector12C,"ax",%progbits
 591              		.align	1
 592              		.global	Vector12C
 593              		.syntax unified
 594              		.thumb
 595              		.thumb_func
 596              		.fpu fpv4-sp-d16
 597              		.type	Vector12C, %function
 598              	Vector12C:
 599              	.LFB334:
 600              		.loc 1 361 0
 601              		.cfi_startproc
 602              		@ args = 0, pretend = 0, frame = 0
 603              		@ frame_needed = 0, uses_anonymous_args = 0
 604 0000 08B5     		push	{r3, lr}
 605              		.cfi_def_cfa_offset 8
 606              		.cfi_offset 3, -8
 607              		.cfi_offset 14, -4
 608              		.loc 1 366 0
 609 0002 084B     		ldr	r3, .L83
 610 0004 1968     		ldr	r1, [r3]
 611 0006 890D     		lsrs	r1, r1, #22
 612 0008 01F03D01 		and	r1, r1, #61
 613              	.LVL33:
 614              		.loc 1 367 0
 615 000c 8A05     		lsls	r2, r1, #22
 616 000e 9A60     		str	r2, [r3, #8]
 617              		.loc 1 368 0
 618 0010 054A     		ldr	r2, .L83+4
 619 0012 D36D     		ldr	r3, [r2, #92]
 620 0014 0BB1     		cbz	r3, .L79
 621              		.loc 1 369 0
 622 0016 106E     		ldr	r0, [r2, #96]
 623 0018 9847     		blx	r3
 624              	.LVL34:
 625              	.L79:
 626              		.loc 1 372 0
 627 001a BDE80840 		pop	{r3, lr}
ARM GAS  /tmp/cc4BypHj.s 			page 12


 628              		.cfi_restore 14
 629              		.cfi_restore 3
 630              		.cfi_def_cfa_offset 0
 631              		.loc 1 371 0
 632 001e FFF7FEBF 		b	_port_irq_epilogue
 633              	.LVL35:
 634              	.L84:
 635 0022 00BF     		.align	2
 636              	.L83:
 637 0024 00640240 		.word	1073898496
 638 0028 00000000 		.word	.LANCHOR0
 639              		.cfi_endproc
 640              	.LFE334:
 641              		.size	Vector12C, .-Vector12C
 642              		.section	.text.Vector130,"ax",%progbits
 643              		.align	1
 644              		.global	Vector130
 645              		.syntax unified
 646              		.thumb
 647              		.thumb_func
 648              		.fpu fpv4-sp-d16
 649              		.type	Vector130, %function
 650              	Vector130:
 651              	.LFB335:
 652              		.loc 1 379 0
 653              		.cfi_startproc
 654              		@ args = 0, pretend = 0, frame = 0
 655              		@ frame_needed = 0, uses_anonymous_args = 0
 656 0000 08B5     		push	{r3, lr}
 657              		.cfi_def_cfa_offset 8
 658              		.cfi_offset 3, -8
 659              		.cfi_offset 14, -4
 660              		.loc 1 384 0
 661 0002 074B     		ldr	r3, .L90
 662              		.loc 1 386 0
 663 0004 074A     		ldr	r2, .L90+4
 664              		.loc 1 384 0
 665 0006 5968     		ldr	r1, [r3, #4]
 666 0008 01F03D01 		and	r1, r1, #61
 667              	.LVL36:
 668              		.loc 1 385 0
 669 000c D960     		str	r1, [r3, #12]
 670              		.loc 1 386 0
 671 000e 536E     		ldr	r3, [r2, #100]
 672 0010 0BB1     		cbz	r3, .L86
 673              		.loc 1 387 0
 674 0012 906E     		ldr	r0, [r2, #104]
 675 0014 9847     		blx	r3
 676              	.LVL37:
 677              	.L86:
 678              		.loc 1 390 0
 679 0016 BDE80840 		pop	{r3, lr}
 680              		.cfi_restore 14
 681              		.cfi_restore 3
 682              		.cfi_def_cfa_offset 0
 683              		.loc 1 389 0
 684 001a FFF7FEBF 		b	_port_irq_epilogue
ARM GAS  /tmp/cc4BypHj.s 			page 13


 685              	.LVL38:
 686              	.L91:
 687 001e 00BF     		.align	2
 688              	.L90:
 689 0020 00640240 		.word	1073898496
 690 0024 00000000 		.word	.LANCHOR0
 691              		.cfi_endproc
 692              	.LFE335:
 693              		.size	Vector130, .-Vector130
 694              		.section	.text.Vector150,"ax",%progbits
 695              		.align	1
 696              		.global	Vector150
 697              		.syntax unified
 698              		.thumb
 699              		.thumb_func
 700              		.fpu fpv4-sp-d16
 701              		.type	Vector150, %function
 702              	Vector150:
 703              	.LFB336:
 704              		.loc 1 397 0
 705              		.cfi_startproc
 706              		@ args = 0, pretend = 0, frame = 0
 707              		@ frame_needed = 0, uses_anonymous_args = 0
 708 0000 08B5     		push	{r3, lr}
 709              		.cfi_def_cfa_offset 8
 710              		.cfi_offset 3, -8
 711              		.cfi_offset 14, -4
 712              		.loc 1 402 0
 713 0002 084B     		ldr	r3, .L97
 714 0004 5968     		ldr	r1, [r3, #4]
 715 0006 8909     		lsrs	r1, r1, #6
 716 0008 01F03D01 		and	r1, r1, #61
 717              	.LVL39:
 718              		.loc 1 403 0
 719 000c 8A01     		lsls	r2, r1, #6
 720 000e DA60     		str	r2, [r3, #12]
 721              		.loc 1 404 0
 722 0010 054A     		ldr	r2, .L97+4
 723 0012 D36E     		ldr	r3, [r2, #108]
 724 0014 0BB1     		cbz	r3, .L93
 725              		.loc 1 405 0
 726 0016 106F     		ldr	r0, [r2, #112]
 727 0018 9847     		blx	r3
 728              	.LVL40:
 729              	.L93:
 730              		.loc 1 408 0
 731 001a BDE80840 		pop	{r3, lr}
 732              		.cfi_restore 14
 733              		.cfi_restore 3
 734              		.cfi_def_cfa_offset 0
 735              		.loc 1 407 0
 736 001e FFF7FEBF 		b	_port_irq_epilogue
 737              	.LVL41:
 738              	.L98:
 739 0022 00BF     		.align	2
 740              	.L97:
 741 0024 00640240 		.word	1073898496
ARM GAS  /tmp/cc4BypHj.s 			page 14


 742 0028 00000000 		.word	.LANCHOR0
 743              		.cfi_endproc
 744              	.LFE336:
 745              		.size	Vector150, .-Vector150
 746              		.section	.text.Vector154,"ax",%progbits
 747              		.align	1
 748              		.global	Vector154
 749              		.syntax unified
 750              		.thumb
 751              		.thumb_func
 752              		.fpu fpv4-sp-d16
 753              		.type	Vector154, %function
 754              	Vector154:
 755              	.LFB337:
 756              		.loc 1 415 0
 757              		.cfi_startproc
 758              		@ args = 0, pretend = 0, frame = 0
 759              		@ frame_needed = 0, uses_anonymous_args = 0
 760 0000 08B5     		push	{r3, lr}
 761              		.cfi_def_cfa_offset 8
 762              		.cfi_offset 3, -8
 763              		.cfi_offset 14, -4
 764              		.loc 1 420 0
 765 0002 084B     		ldr	r3, .L104
 766 0004 5968     		ldr	r1, [r3, #4]
 767 0006 090C     		lsrs	r1, r1, #16
 768 0008 01F03D01 		and	r1, r1, #61
 769              	.LVL42:
 770              		.loc 1 421 0
 771 000c 0A04     		lsls	r2, r1, #16
 772 000e DA60     		str	r2, [r3, #12]
 773              		.loc 1 422 0
 774 0010 054A     		ldr	r2, .L104+4
 775 0012 536F     		ldr	r3, [r2, #116]
 776 0014 0BB1     		cbz	r3, .L100
 777              		.loc 1 423 0
 778 0016 906F     		ldr	r0, [r2, #120]
 779 0018 9847     		blx	r3
 780              	.LVL43:
 781              	.L100:
 782              		.loc 1 426 0
 783 001a BDE80840 		pop	{r3, lr}
 784              		.cfi_restore 14
 785              		.cfi_restore 3
 786              		.cfi_def_cfa_offset 0
 787              		.loc 1 425 0
 788 001e FFF7FEBF 		b	_port_irq_epilogue
 789              	.LVL44:
 790              	.L105:
 791 0022 00BF     		.align	2
 792              	.L104:
 793 0024 00640240 		.word	1073898496
 794 0028 00000000 		.word	.LANCHOR0
 795              		.cfi_endproc
 796              	.LFE337:
 797              		.size	Vector154, .-Vector154
 798              		.section	.text.Vector158,"ax",%progbits
ARM GAS  /tmp/cc4BypHj.s 			page 15


 799              		.align	1
 800              		.global	Vector158
 801              		.syntax unified
 802              		.thumb
 803              		.thumb_func
 804              		.fpu fpv4-sp-d16
 805              		.type	Vector158, %function
 806              	Vector158:
 807              	.LFB338:
 808              		.loc 1 433 0
 809              		.cfi_startproc
 810              		@ args = 0, pretend = 0, frame = 0
 811              		@ frame_needed = 0, uses_anonymous_args = 0
 812 0000 08B5     		push	{r3, lr}
 813              		.cfi_def_cfa_offset 8
 814              		.cfi_offset 3, -8
 815              		.cfi_offset 14, -4
 816              		.loc 1 438 0
 817 0002 084B     		ldr	r3, .L111
 818 0004 5968     		ldr	r1, [r3, #4]
 819 0006 890D     		lsrs	r1, r1, #22
 820 0008 01F03D01 		and	r1, r1, #61
 821              	.LVL45:
 822              		.loc 1 439 0
 823 000c 8A05     		lsls	r2, r1, #22
 824 000e DA60     		str	r2, [r3, #12]
 825              		.loc 1 440 0
 826 0010 054A     		ldr	r2, .L111+4
 827 0012 D36F     		ldr	r3, [r2, #124]
 828 0014 13B1     		cbz	r3, .L107
 829              		.loc 1 441 0
 830 0016 D2F88000 		ldr	r0, [r2, #128]
 831 001a 9847     		blx	r3
 832              	.LVL46:
 833              	.L107:
 834              		.loc 1 444 0
 835 001c BDE80840 		pop	{r3, lr}
 836              		.cfi_restore 14
 837              		.cfi_restore 3
 838              		.cfi_def_cfa_offset 0
 839              		.loc 1 443 0
 840 0020 FFF7FEBF 		b	_port_irq_epilogue
 841              	.LVL47:
 842              	.L112:
 843              		.align	2
 844              	.L111:
 845 0024 00640240 		.word	1073898496
 846 0028 00000000 		.word	.LANCHOR0
 847              		.cfi_endproc
 848              	.LFE338:
 849              		.size	Vector158, .-Vector158
 850              		.section	.text.dmaInit,"ax",%progbits
 851              		.align	1
 852              		.global	dmaInit
 853              		.syntax unified
 854              		.thumb
 855              		.thumb_func
ARM GAS  /tmp/cc4BypHj.s 			page 16


 856              		.fpu fpv4-sp-d16
 857              		.type	dmaInit, %function
 858              	dmaInit:
 859              	.LFB339:
 860              		.loc 1 455 0
 861              		.cfi_startproc
 862              		@ args = 0, pretend = 0, frame = 0
 863              		@ frame_needed = 0, uses_anonymous_args = 0
 864              		.loc 1 458 0
 865 0000 0D4A     		ldr	r2, .L116
 866              		.loc 1 455 0
 867 0002 30B5     		push	{r4, r5, lr}
 868              		.cfi_def_cfa_offset 12
 869              		.cfi_offset 4, -12
 870              		.cfi_offset 5, -8
 871              		.cfi_offset 14, -4
 872              		.loc 1 458 0
 873 0004 0023     		movs	r3, #0
 874              		.loc 1 460 0
 875 0006 0D4C     		ldr	r4, .L116+4
 876              		.loc 1 458 0
 877 0008 1360     		str	r3, [r2]
 878              	.LVL48:
 879              		.loc 1 460 0
 880 000a 0C25     		movs	r5, #12
 881 000c 1946     		mov	r1, r3
 882              	.LVL49:
 883              	.L114:
 884              		.loc 1 460 0 is_stmt 0 discriminator 3
 885 000e 05FB03F0 		mul	r0, r5, r3
 886 0012 0059     		ldr	r0, [r0, r4]
 887 0014 0160     		str	r1, [r0]
 888              		.loc 1 461 0 is_stmt 1 discriminator 3
 889 0016 02EBC300 		add	r0, r2, r3, lsl #3
 890              		.loc 1 459 0 discriminator 3
 891 001a 0133     		adds	r3, r3, #1
 892              	.LVL50:
 893 001c 102B     		cmp	r3, #16
 894              		.loc 1 461 0 discriminator 3
 895 001e 4160     		str	r1, [r0, #4]
 896              		.loc 1 459 0 discriminator 3
 897 0020 F5D1     		bne	.L114
 898              		.loc 1 463 0
 899 0022 074A     		ldr	r2, .L116+8
 900 0024 4FF0FF33 		mov	r3, #-1
 901              	.LVL51:
 902 0028 9360     		str	r3, [r2, #8]
 903              		.loc 1 464 0
 904 002a D360     		str	r3, [r2, #12]
 905              		.loc 1 465 0
 906 002c C2F80834 		str	r3, [r2, #1032]
 907              		.loc 1 466 0
 908 0030 C2F80C34 		str	r3, [r2, #1036]
 909              		.loc 1 465 0
 910 0034 30BD     		pop	{r4, r5, pc}
 911              	.L117:
 912 0036 00BF     		.align	2
ARM GAS  /tmp/cc4BypHj.s 			page 17


 913              	.L116:
 914 0038 00000000 		.word	.LANCHOR0
 915 003c 00000000 		.word	.LANCHOR1
 916 0040 00600240 		.word	1073897472
 917              		.cfi_endproc
 918              	.LFE339:
 919              		.size	dmaInit, .-dmaInit
 920              		.section	.text.dmaStreamAllocI,"ax",%progbits
 921              		.align	1
 922              		.global	dmaStreamAllocI
 923              		.syntax unified
 924              		.thumb
 925              		.thumb_func
 926              		.fpu fpv4-sp-d16
 927              		.type	dmaStreamAllocI, %function
 928              	dmaStreamAllocI:
 929              	.LFB340:
 930              		.loc 1 494 0
 931              		.cfi_startproc
 932              		@ args = 0, pretend = 0, frame = 0
 933              		@ frame_needed = 0, uses_anonymous_args = 0
 934              	.LVL52:
 935              		.loc 1 499 0
 936 0000 0F28     		cmp	r0, #15
 937              		.loc 1 494 0
 938 0002 F8B5     		push	{r3, r4, r5, r6, r7, lr}
 939              		.cfi_def_cfa_offset 24
 940              		.cfi_offset 3, -24
 941              		.cfi_offset 4, -20
 942              		.cfi_offset 5, -16
 943              		.cfi_offset 6, -12
 944              		.cfi_offset 7, -8
 945              		.cfi_offset 14, -4
 946              		.loc 1 499 0
 947 0004 4BD8     		bhi	.L124
 948              	.LVL53:
 949              	.LBB50:
 950              		.loc 1 523 0 discriminator 1
 951 0006 274E     		ldr	r6, .L135
 952              		.loc 1 522 0 discriminator 1
 953 0008 0124     		movs	r4, #1
 954              		.loc 1 523 0 discriminator 1
 955 000a 3768     		ldr	r7, [r6]
 956              		.loc 1 522 0 discriminator 1
 957 000c 8440     		lsls	r4, r4, r0
 958              	.LVL54:
 959              		.loc 1 523 0 discriminator 1
 960 000e 3C42     		tst	r4, r7
 961 0010 45D1     		bne	.L124
 962              	.LBB51:
 963              		.loc 1 527 0
 964 0012 06EBC00C 		add	ip, r6, r0, lsl #3
 965              		.loc 1 524 0
 966 0016 DFF894E0 		ldr	lr, .L135+8
 967              		.loc 1 527 0
 968 001a CCF80420 		str	r2, [ip, #4]
 969              		.loc 1 524 0
ARM GAS  /tmp/cc4BypHj.s 			page 18


 970 001e 0C25     		movs	r5, #12
 971              		.loc 1 529 0
 972 0020 2743     		orrs	r7, r7, r4
 973              		.loc 1 532 0
 974 0022 14F0FF0F 		tst	r4, #255
 975              		.loc 1 529 0
 976 0026 3760     		str	r7, [r6]
 977              		.loc 1 524 0
 978 0028 05FB00E5 		mla	r5, r5, r0, lr
 979              	.LVL55:
 980              		.loc 1 528 0
 981 002c CCF80830 		str	r3, [ip, #8]
 982 0030 7646     		mov	r6, lr
 983              		.loc 1 532 0
 984 0032 09D0     		beq	.L120
 985              		.loc 1 533 0
 986 0034 1C4B     		ldr	r3, .L135+4
 987              	.LVL56:
 988 0036 1F6B     		ldr	r7, [r3, #48]
 989 0038 47F40017 		orr	r7, r7, #2097152
 990 003c 1F63     		str	r7, [r3, #48]
 991 003e 1F6D     		ldr	r7, [r3, #80]
 992 0040 47F40017 		orr	r7, r7, #2097152
 993 0044 1F65     		str	r7, [r3, #80]
 994 0046 1B6D     		ldr	r3, [r3, #80]
 995              	.L120:
 996              		.loc 1 535 0
 997 0048 14F47F4F 		tst	r4, #65280
 998 004c 09D0     		beq	.L121
 999              		.loc 1 536 0
 1000 004e 164B     		ldr	r3, .L135+4
 1001 0050 1C6B     		ldr	r4, [r3, #48]
 1002              	.LVL57:
 1003 0052 44F48004 		orr	r4, r4, #4194304
 1004 0056 1C63     		str	r4, [r3, #48]
 1005 0058 1C6D     		ldr	r4, [r3, #80]
 1006 005a 44F48004 		orr	r4, r4, #4194304
 1007 005e 1C65     		str	r4, [r3, #80]
 1008 0060 1B6D     		ldr	r3, [r3, #80]
 1009              	.L121:
 1010              		.loc 1 547 0
 1011 0062 0C23     		movs	r3, #12
 1012 0064 4343     		muls	r3, r0, r3
 1013 0066 F358     		ldr	r3, [r6, r3]
 1014 0068 1C68     		ldr	r4, [r3]
 1015 006a 24F01F04 		bic	r4, r4, #31
 1016 006e 1C60     		str	r4, [r3]
 1017              	.L122:
 1018              		.loc 1 547 0 is_stmt 0 discriminator 2
 1019 0070 1C68     		ldr	r4, [r3]
 1020 0072 14F00104 		ands	r4, r4, #1
 1021 0076 FBD1     		bne	.L122
 1022              		.loc 1 547 0 discriminator 3
 1023 0078 0C27     		movs	r7, #12
 1024 007a 07FB0060 		mla	r0, r7, r0, r6
 1025              	.LVL58:
 1026 007e 3D26     		movs	r6, #61
ARM GAS  /tmp/cc4BypHj.s 			page 19


 1027 0080 90F809E0 		ldrb	lr, [r0, #9]	@ zero_extendqisi2
 1028 0084 4768     		ldr	r7, [r0, #4]
 1029 0086 06FA0EF6 		lsl	r6, r6, lr
 1030 008a 3E60     		str	r6, [r7]
 1031              		.loc 1 548 0 is_stmt 1 discriminator 3
 1032 008c 1C60     		str	r4, [r3]
 1033              		.loc 1 549 0 discriminator 3
 1034 008e 2124     		movs	r4, #33
 1035 0090 5C61     		str	r4, [r3, #20]
 1036              		.loc 1 552 0 discriminator 3
 1037 0092 12B1     		cbz	r2, .L118
 1038              		.loc 1 553 0
 1039 0094 C07A     		ldrb	r0, [r0, #11]	@ zero_extendqisi2
 1040 0096 FFF7FEFF 		bl	nvicEnableVector
 1041              	.LVL59:
 1042              	.L118:
 1043              	.LBE51:
 1044              	.LBE50:
 1045              		.loc 1 561 0
 1046 009a 2846     		mov	r0, r5
 1047 009c F8BD     		pop	{r3, r4, r5, r6, r7, pc}
 1048              	.LVL60:
 1049              	.L124:
 1050              		.loc 1 518 0
 1051 009e 0025     		movs	r5, #0
 1052 00a0 FBE7     		b	.L118
 1053              	.L136:
 1054 00a2 00BF     		.align	2
 1055              	.L135:
 1056 00a4 00000000 		.word	.LANCHOR0
 1057 00a8 00380240 		.word	1073887232
 1058 00ac 00000000 		.word	.LANCHOR1
 1059              		.cfi_endproc
 1060              	.LFE340:
 1061              		.size	dmaStreamAllocI, .-dmaStreamAllocI
 1062              		.section	.text.dmaStreamAlloc,"ax",%progbits
 1063              		.align	1
 1064              		.global	dmaStreamAlloc
 1065              		.syntax unified
 1066              		.thumb
 1067              		.thumb_func
 1068              		.fpu fpv4-sp-d16
 1069              		.type	dmaStreamAlloc, %function
 1070              	dmaStreamAlloc:
 1071              	.LFB341:
 1072              		.loc 1 588 0
 1073              		.cfi_startproc
 1074              		@ args = 0, pretend = 0, frame = 0
 1075              		@ frame_needed = 0, uses_anonymous_args = 0
 1076              	.LVL61:
 1077 0000 10B5     		push	{r4, lr}
 1078              		.cfi_def_cfa_offset 8
 1079              		.cfi_offset 4, -8
 1080              		.cfi_offset 14, -4
 1081              	.LBB52:
 1082              	.LBB53:
 1083              	.LBB54:
ARM GAS  /tmp/cc4BypHj.s 			page 20


 1084              	.LBB55:
 1085              	.LBB56:
 1086              		.file 2 "../../modules/ChibiOS/os/common/ext/ARM/CMSIS/Core/Include/cmsis_gcc.h"
 1087              		.loc 2 493 0
 1088 0002 2024     		movs	r4, #32
 1089              		.syntax unified
 1090              	@ 493 "../../modules/ChibiOS/os/common/ext/ARM/CMSIS/Core/Include/cmsis_gcc.h" 1
 1091 0004 84F31188 		MSR basepri, r4
 1092              	@ 0 "" 2
 1093              	.LVL62:
 1094              		.thumb
 1095              		.syntax unified
 1096              	.LBE56:
 1097              	.LBE55:
 1098              	.LBE54:
 1099              	.LBE53:
 1100              	.LBE52:
 1101              		.loc 1 592 0
 1102 0008 FFF7FEFF 		bl	dmaStreamAllocI
 1103              	.LVL63:
 1104              	.LBB57:
 1105              	.LBB58:
 1106              	.LBB59:
 1107              	.LBB60:
 1108              	.LBB61:
 1109              	.LBB62:
 1110              		.loc 2 493 0
 1111 000c 0023     		movs	r3, #0
 1112              		.syntax unified
 1113              	@ 493 "../../modules/ChibiOS/os/common/ext/ARM/CMSIS/Core/Include/cmsis_gcc.h" 1
 1114 000e 83F31188 		MSR basepri, r3
 1115              	@ 0 "" 2
 1116              	.LVL64:
 1117              		.thumb
 1118              		.syntax unified
 1119              	.LBE62:
 1120              	.LBE61:
 1121              	.LBE60:
 1122              	.LBE59:
 1123              	.LBE58:
 1124              	.LBE57:
 1125              		.loc 1 596 0
 1126 0012 10BD     		pop	{r4, pc}
 1127              		.cfi_endproc
 1128              	.LFE341:
 1129              		.size	dmaStreamAlloc, .-dmaStreamAlloc
 1130              		.section	.text.dmaStreamFreeI,"ax",%progbits
 1131              		.align	1
 1132              		.global	dmaStreamFreeI
 1133              		.syntax unified
 1134              		.thumb
 1135              		.thumb_func
 1136              		.fpu fpv4-sp-d16
 1137              		.type	dmaStreamFreeI, %function
 1138              	dmaStreamFreeI:
 1139              	.LFB342:
 1140              		.loc 1 608 0
ARM GAS  /tmp/cc4BypHj.s 			page 21


 1141              		.cfi_startproc
 1142              		@ args = 0, pretend = 0, frame = 0
 1143              		@ frame_needed = 0, uses_anonymous_args = 0
 1144              	.LVL65:
 1145 0000 10B5     		push	{r4, lr}
 1146              		.cfi_def_cfa_offset 8
 1147              		.cfi_offset 4, -8
 1148              		.cfi_offset 14, -4
 1149              		.loc 1 608 0
 1150 0002 0446     		mov	r4, r0
 1151              		.loc 1 617 0
 1152 0004 C07A     		ldrb	r0, [r0, #11]	@ zero_extendqisi2
 1153              	.LVL66:
 1154 0006 FFF7FEFF 		bl	nvicDisableVector
 1155              	.LVL67:
 1156              		.loc 1 620 0
 1157 000a 1249     		ldr	r1, .L141
 1158 000c A27A     		ldrb	r2, [r4, #10]	@ zero_extendqisi2
 1159 000e 0123     		movs	r3, #1
 1160 0010 03FA02F2 		lsl	r2, r3, r2
 1161 0014 0B68     		ldr	r3, [r1]
 1162 0016 23EA0203 		bic	r3, r3, r2
 1163              		.loc 1 623 0
 1164 001a 13F0FF0F 		tst	r3, #255
 1165              		.loc 1 620 0
 1166 001e 0B60     		str	r3, [r1]
 1167              		.loc 1 623 0
 1168 0020 09D1     		bne	.L139
 1169              		.loc 1 624 0
 1170 0022 0D4A     		ldr	r2, .L141+4
 1171 0024 116B     		ldr	r1, [r2, #48]
 1172 0026 21F40011 		bic	r1, r1, #2097152
 1173 002a 1163     		str	r1, [r2, #48]
 1174 002c 116D     		ldr	r1, [r2, #80]
 1175 002e 21F40011 		bic	r1, r1, #2097152
 1176 0032 1165     		str	r1, [r2, #80]
 1177 0034 126D     		ldr	r2, [r2, #80]
 1178              	.L139:
 1179              		.loc 1 626 0
 1180 0036 13F47F4F 		tst	r3, #65280
 1181 003a 09D1     		bne	.L138
 1182              	.LVL68:
 1183              	.LBB65:
 1184              	.LBB66:
 1185              		.loc 1 627 0
 1186 003c 064B     		ldr	r3, .L141+4
 1187 003e 1A6B     		ldr	r2, [r3, #48]
 1188 0040 22F48002 		bic	r2, r2, #4194304
 1189 0044 1A63     		str	r2, [r3, #48]
 1190 0046 1A6D     		ldr	r2, [r3, #80]
 1191 0048 22F48002 		bic	r2, r2, #4194304
 1192 004c 1A65     		str	r2, [r3, #80]
 1193 004e 1B6D     		ldr	r3, [r3, #80]
 1194              	.LVL69:
 1195              	.L138:
 1196 0050 10BD     		pop	{r4, pc}
 1197              	.LVL70:
ARM GAS  /tmp/cc4BypHj.s 			page 22


 1198              	.L142:
 1199 0052 00BF     		.align	2
 1200              	.L141:
 1201 0054 00000000 		.word	.LANCHOR0
 1202 0058 00380240 		.word	1073887232
 1203              	.LBE66:
 1204              	.LBE65:
 1205              		.cfi_endproc
 1206              	.LFE342:
 1207              		.size	dmaStreamFreeI, .-dmaStreamFreeI
 1208              		.section	.text.dmaStreamFree,"ax",%progbits
 1209              		.align	1
 1210              		.global	dmaStreamFree
 1211              		.syntax unified
 1212              		.thumb
 1213              		.thumb_func
 1214              		.fpu fpv4-sp-d16
 1215              		.type	dmaStreamFree, %function
 1216              	dmaStreamFree:
 1217              	.LFB343:
 1218              		.loc 1 648 0
 1219              		.cfi_startproc
 1220              		@ args = 0, pretend = 0, frame = 0
 1221              		@ frame_needed = 0, uses_anonymous_args = 0
 1222              	.LVL71:
 1223 0000 08B5     		push	{r3, lr}
 1224              		.cfi_def_cfa_offset 8
 1225              		.cfi_offset 3, -8
 1226              		.cfi_offset 14, -4
 1227              	.LBB67:
 1228              	.LBB68:
 1229              	.LBB69:
 1230              	.LBB70:
 1231              	.LBB71:
 1232              		.loc 2 493 0
 1233 0002 2023     		movs	r3, #32
 1234              		.syntax unified
 1235              	@ 493 "../../modules/ChibiOS/os/common/ext/ARM/CMSIS/Core/Include/cmsis_gcc.h" 1
 1236 0004 83F31188 		MSR basepri, r3
 1237              	@ 0 "" 2
 1238              	.LVL72:
 1239              		.thumb
 1240              		.syntax unified
 1241              	.LBE71:
 1242              	.LBE70:
 1243              	.LBE69:
 1244              	.LBE68:
 1245              	.LBE67:
 1246              		.loc 1 651 0
 1247 0008 FFF7FEFF 		bl	dmaStreamFreeI
 1248              	.LVL73:
 1249              	.LBB72:
 1250              	.LBB73:
 1251              	.LBB74:
 1252              	.LBB75:
 1253              	.LBB76:
 1254              	.LBB77:
ARM GAS  /tmp/cc4BypHj.s 			page 23


 1255              		.loc 2 493 0
 1256 000c 0023     		movs	r3, #0
 1257              		.syntax unified
 1258              	@ 493 "../../modules/ChibiOS/os/common/ext/ARM/CMSIS/Core/Include/cmsis_gcc.h" 1
 1259 000e 83F31188 		MSR basepri, r3
 1260              	@ 0 "" 2
 1261              	.LVL74:
 1262              		.thumb
 1263              		.syntax unified
 1264 0012 08BD     		pop	{r3, pc}
 1265              	.LBE77:
 1266              	.LBE76:
 1267              	.LBE75:
 1268              	.LBE74:
 1269              	.LBE73:
 1270              	.LBE72:
 1271              		.cfi_endproc
 1272              	.LFE343:
 1273              		.size	dmaStreamFree, .-dmaStreamFree
 1274              		.global	_stm32_dma_streams
 1275              		.section	.bss.dma,"aw",%nobits
 1276              		.align	2
 1277              		.set	.LANCHOR0,. + 0
 1278              		.type	dma, %object
 1279              		.size	dma, 132
 1280              	dma:
 1281 0000 00000000 		.space	132
 1281      00000000 
 1281      00000000 
 1281      00000000 
 1281      00000000 
 1282              		.section	.rodata._stm32_dma_streams,"a",%progbits
 1283              		.align	2
 1284              		.set	.LANCHOR1,. + 0
 1285              		.type	_stm32_dma_streams, %object
 1286              		.size	_stm32_dma_streams, 192
 1287              	_stm32_dma_streams:
 1288 0000 10600240 		.word	1073897488
 1289 0004 08600240 		.word	1073897480
 1290 0008 00       		.byte	0
 1291 0009 00       		.byte	0
 1292 000a 00       		.byte	0
 1293 000b 0B       		.byte	11
 1294 000c 28600240 		.word	1073897512
 1295 0010 08600240 		.word	1073897480
 1296 0014 00       		.byte	0
 1297 0015 06       		.byte	6
 1298 0016 01       		.byte	1
 1299 0017 0C       		.byte	12
 1300 0018 40600240 		.word	1073897536
 1301 001c 08600240 		.word	1073897480
 1302 0020 00       		.byte	0
 1303 0021 10       		.byte	16
 1304 0022 02       		.byte	2
 1305 0023 0D       		.byte	13
 1306 0024 58600240 		.word	1073897560
 1307 0028 08600240 		.word	1073897480
ARM GAS  /tmp/cc4BypHj.s 			page 24


 1308 002c 00       		.byte	0
 1309 002d 16       		.byte	22
 1310 002e 03       		.byte	3
 1311 002f 0E       		.byte	14
 1312 0030 70600240 		.word	1073897584
 1313 0034 0C600240 		.word	1073897484
 1314 0038 00       		.byte	0
 1315 0039 00       		.byte	0
 1316 003a 04       		.byte	4
 1317 003b 0F       		.byte	15
 1318 003c 88600240 		.word	1073897608
 1319 0040 0C600240 		.word	1073897484
 1320 0044 00       		.byte	0
 1321 0045 06       		.byte	6
 1322 0046 05       		.byte	5
 1323 0047 10       		.byte	16
 1324 0048 A0600240 		.word	1073897632
 1325 004c 0C600240 		.word	1073897484
 1326 0050 00       		.byte	0
 1327 0051 10       		.byte	16
 1328 0052 06       		.byte	6
 1329 0053 11       		.byte	17
 1330 0054 B8600240 		.word	1073897656
 1331 0058 0C600240 		.word	1073897484
 1332 005c 00       		.byte	0
 1333 005d 16       		.byte	22
 1334 005e 07       		.byte	7
 1335 005f 2F       		.byte	47
 1336 0060 10640240 		.word	1073898512
 1337 0064 08640240 		.word	1073898504
 1338 0068 00       		.byte	0
 1339 0069 00       		.byte	0
 1340 006a 08       		.byte	8
 1341 006b 38       		.byte	56
 1342 006c 28640240 		.word	1073898536
 1343 0070 08640240 		.word	1073898504
 1344 0074 00       		.byte	0
 1345 0075 06       		.byte	6
 1346 0076 09       		.byte	9
 1347 0077 39       		.byte	57
 1348 0078 40640240 		.word	1073898560
 1349 007c 08640240 		.word	1073898504
 1350 0080 00       		.byte	0
 1351 0081 10       		.byte	16
 1352 0082 0A       		.byte	10
 1353 0083 3A       		.byte	58
 1354 0084 58640240 		.word	1073898584
 1355 0088 08640240 		.word	1073898504
 1356 008c 00       		.byte	0
 1357 008d 16       		.byte	22
 1358 008e 0B       		.byte	11
 1359 008f 3B       		.byte	59
 1360 0090 70640240 		.word	1073898608
 1361 0094 0C640240 		.word	1073898508
 1362 0098 00       		.byte	0
 1363 0099 00       		.byte	0
 1364 009a 0C       		.byte	12
ARM GAS  /tmp/cc4BypHj.s 			page 25


 1365 009b 3C       		.byte	60
 1366 009c 88640240 		.word	1073898632
 1367 00a0 0C640240 		.word	1073898508
 1368 00a4 00       		.byte	0
 1369 00a5 06       		.byte	6
 1370 00a6 0D       		.byte	13
 1371 00a7 44       		.byte	68
 1372 00a8 A0640240 		.word	1073898656
 1373 00ac 0C640240 		.word	1073898508
 1374 00b0 00       		.byte	0
 1375 00b1 10       		.byte	16
 1376 00b2 0E       		.byte	14
 1377 00b3 45       		.byte	69
 1378 00b4 B8640240 		.word	1073898680
 1379 00b8 0C640240 		.word	1073898508
 1380 00bc 00       		.byte	0
 1381 00bd 16       		.byte	22
 1382 00be 0F       		.byte	15
 1383 00bf 46       		.byte	70
 1384              		.text
 1385              	.Letext0:
 1386              		.file 3 "/opt/gcc-arm-none-eabi-6-2017-q2-update/lib/gcc/arm-none-eabi/6.3.1/include/stddef.h"
 1387              		.file 4 "/opt/gcc-arm-none-eabi-6-2017-q2-update/arm-none-eabi/include/machine/_default_types.h"
 1388              		.file 5 "/opt/gcc-arm-none-eabi-6-2017-q2-update/arm-none-eabi/include/sys/_stdint.h"
 1389              		.file 6 "../../modules/ChibiOS/os/common/ports/ARMCMx/compilers/GCC/chtypes.h"
 1390              		.file 7 "../../modules/ChibiOS/os/rt/include/chsystypes.h"
 1391              		.file 8 "../../modules/ChibiOS/os/rt/include/chschd.h"
 1392              		.file 9 "../../modules/ChibiOS/os/rt/include/chtime.h"
 1393              		.file 10 "../../modules/ChibiOS/os/common/ext/ARM/CMSIS/Core/Include/core_cm4.h"
 1394              		.file 11 "../../modules/ChibiOS/os/common/ext/ST/STM32F4xx/system_stm32f4xx.h"
 1395              		.file 12 "../../modules/ChibiOS/os/common/ext/ST/STM32F4xx/stm32f427xx.h"
 1396              		.file 13 "../../modules/ChibiOS/os/common/ports/ARMCMx/chcore.h"
 1397              		.file 14 "../../modules/ChibiOS/os/common/ports/ARMCMx/chcore_v7m.h"
 1398              		.file 15 "../../modules/ChibiOS/os/rt/include/chtm.h"
 1399              		.file 16 "../../modules/ChibiOS/os/rt/include/chsem.h"
 1400              		.file 17 "../../modules/ChibiOS/os/rt/include/chmtx.h"
 1401              		.file 18 "../../modules/ChibiOS/os/rt/include/chsys.h"
 1402              		.file 19 "../../modules/ChibiOS/os/rt/include/chregistry.h"
 1403              		.file 20 "../../modules/ChibiOS/os/rt/include/chevents.h"
 1404              		.file 21 "../../modules/ChibiOS/os/oslib/include/chmemcore.h"
 1405              		.file 22 "../../modules/ChibiOS/os/oslib/include/chmempools.h"
 1406              		.file 23 "../../modules/ChibiOS/os/oslib/include/chfactory.h"
 1407              		.file 24 "../../modules/ChibiOS/os/hal/ports/STM32/LLD/DMAv2/stm32_dma.h"
 1408              		.file 25 "../../modules/ChibiOS/os/hal/include/hal_queues.h"
 1409              		.file 26 "../../modules/ChibiOS/os/hal/include/hal_pal.h"
 1410              		.file 27 "../../modules/ChibiOS/os/hal/ports/STM32/LLD/GPIOv2/hal_pal_lld.h"
 1411              		.file 28 "../../modules/ChibiOS/os/hal/include/hal_adc.h"
 1412              		.file 29 "../../modules/ChibiOS/os/hal/ports/STM32/LLD/ADCv2/hal_adc_lld.h"
 1413              		.file 30 "../../modules/ChibiOS/os/hal/include/hal_serial.h"
 1414              		.file 31 "../../modules/ChibiOS/os/hal/ports/STM32/LLD/USARTv1/hal_serial_lld.h"
 1415              		.file 32 "../../modules/ChibiOS/os/hal/include/hal_usb.h"
 1416              		.file 33 "../../modules/ChibiOS/os/hal/ports/STM32/LLD/OTGv1/hal_usb_lld.h"
 1417              		.file 34 "../../modules/ChibiOS/os/hal/ports/STM32/LLD/OTGv1/stm32_otg.h"
 1418              		.file 35 "../../modules/ChibiOS/os/hal/osal/rt/osal.h"
 1419              		.file 36 "../../modules/ChibiOS/os/hal/ports/common/ARMCMx/nvic.h"