ARM GAS  /tmp/ccP9nsAu.s 			page 1


   1              		.cpu cortex-m4
   2              		.eabi_attribute 27, 1
   3              		.eabi_attribute 28, 1
   4              		.eabi_attribute 20, 1
   5              		.eabi_attribute 21, 1
   6              		.eabi_attribute 23, 3
   7              		.eabi_attribute 24, 1
   8              		.eabi_attribute 25, 1
   9              		.eabi_attribute 26, 1
  10              		.eabi_attribute 30, 4
  11              		.eabi_attribute 34, 1
  12              		.eabi_attribute 18, 4
  13              		.file	"stm32_util.c"
  14              		.text
  15              	.Ltext0:
  16              		.cfi_sections	.debug_frame
  17              		.section	.text.stm32_timer_set_input_filter,"ax",%progbits
  18              		.align	1
  19              		.global	stm32_timer_set_input_filter
  20              		.syntax unified
  21              		.thumb
  22              		.thumb_func
  23              		.fpu fpv4-sp-d16
  24              		.type	stm32_timer_set_input_filter, %function
  25              	stm32_timer_set_input_filter:
  26              	.LFB323:
  27              		.file 1 "../../libraries/AP_HAL_ChibiOS/hwdef/common/stm32_util.c"
  28              		.loc 1 29 0
  29              		.cfi_startproc
  30              		@ args = 0, pretend = 0, frame = 0
  31              		@ frame_needed = 0, uses_anonymous_args = 0
  32              		@ link register save eliminated.
  33              	.LVL0:
  34              		.loc 1 30 0
  35 0000 0329     		cmp	r1, #3
  36 0002 10D8     		bhi	.L1
  37 0004 DFE801F0 		tbb	[pc, r1]
  38              	.L4:
  39 0008 02       		.byte	(.L3-.L4)/2
  40 0009 07       		.byte	(.L5-.L4)/2
  41 000a 0B       		.byte	(.L6-.L4)/2
  42 000b 10       		.byte	(.L7-.L4)/2
  43              		.p2align 1
  44              	.L3:
  45              		.loc 1 32 0
  46 000c 8369     		ldr	r3, [r0, #24]
  47 000e 43EA0212 		orr	r2, r3, r2, lsl #4
  48              	.LVL1:
  49              	.L8:
  50              		.loc 1 35 0
  51 0012 8261     		str	r2, [r0, #24]
  52              		.loc 1 36 0
  53 0014 7047     		bx	lr
  54              	.LVL2:
  55              	.L5:
  56              		.loc 1 35 0
  57 0016 8369     		ldr	r3, [r0, #24]
ARM GAS  /tmp/ccP9nsAu.s 			page 2


  58 0018 43EA0232 		orr	r2, r3, r2, lsl #12
  59              	.LVL3:
  60 001c F9E7     		b	.L8
  61              	.LVL4:
  62              	.L6:
  63              		.loc 1 38 0
  64 001e C369     		ldr	r3, [r0, #28]
  65 0020 43EA0212 		orr	r2, r3, r2, lsl #4
  66              	.LVL5:
  67              	.L9:
  68              		.loc 1 41 0
  69 0024 C261     		str	r2, [r0, #28]
  70              	.L1:
  71 0026 7047     		bx	lr
  72              	.LVL6:
  73              	.L7:
  74 0028 C369     		ldr	r3, [r0, #28]
  75 002a 43EA0232 		orr	r2, r3, r2, lsl #12
  76              	.LVL7:
  77 002e F9E7     		b	.L9
  78              		.cfi_endproc
  79              	.LFE323:
  80              		.size	stm32_timer_set_input_filter, .-stm32_timer_set_input_filter
  81              		.section	.text.stm32_timer_set_channel_input,"ax",%progbits
  82              		.align	1
  83              		.global	stm32_timer_set_channel_input
  84              		.syntax unified
  85              		.thumb
  86              		.thumb_func
  87              		.fpu fpv4-sp-d16
  88              		.type	stm32_timer_set_channel_input, %function
  89              	stm32_timer_set_channel_input:
  90              	.LFB324:
  91              		.loc 1 50 0
  92              		.cfi_startproc
  93              		@ args = 0, pretend = 0, frame = 0
  94              		@ frame_needed = 0, uses_anonymous_args = 0
  95              		@ link register save eliminated.
  96              	.LVL8:
  97              		.loc 1 51 0
  98 0000 0329     		cmp	r1, #3
  99 0002 12D8     		bhi	.L10
 100 0004 DFE801F0 		tbb	[pc, r1]
 101              	.L13:
 102 0008 02       		.byte	(.L12-.L13)/2
 103 0009 12       		.byte	(.L14-.L13)/2
 104 000a 22       		.byte	(.L15-.L13)/2
 105 000b 31       		.byte	(.L16-.L13)/2
 106              		.p2align 1
 107              	.L12:
 108              		.loc 1 53 0
 109 000c 036A     		ldr	r3, [r0, #32]
 110 000e 23F00103 		bic	r3, r3, #1
 111 0012 0362     		str	r3, [r0, #32]
 112              		.loc 1 54 0
 113 0014 8369     		ldr	r3, [r0, #24]
 114 0016 23F00303 		bic	r3, r3, #3
ARM GAS  /tmp/ccP9nsAu.s 			page 3


 115 001a 8361     		str	r3, [r0, #24]
 116              		.loc 1 55 0
 117 001c 8369     		ldr	r3, [r0, #24]
 118 001e 1A43     		orrs	r2, r2, r3
 119              	.LVL9:
 120 0020 8261     		str	r2, [r0, #24]
 121              		.loc 1 56 0
 122 0022 036A     		ldr	r3, [r0, #32]
 123 0024 43F00103 		orr	r3, r3, #1
 124              	.L17:
 125              		.loc 1 74 0
 126 0028 0362     		str	r3, [r0, #32]
 127              	.L10:
 128 002a 7047     		bx	lr
 129              	.LVL10:
 130              	.L14:
 131              		.loc 1 59 0
 132 002c 036A     		ldr	r3, [r0, #32]
 133 002e 23F01003 		bic	r3, r3, #16
 134 0032 0362     		str	r3, [r0, #32]
 135              		.loc 1 60 0
 136 0034 8369     		ldr	r3, [r0, #24]
 137 0036 23F44073 		bic	r3, r3, #768
 138 003a 8361     		str	r3, [r0, #24]
 139              		.loc 1 61 0
 140 003c 8369     		ldr	r3, [r0, #24]
 141 003e 43EA0222 		orr	r2, r3, r2, lsl #8
 142              	.LVL11:
 143 0042 8261     		str	r2, [r0, #24]
 144              		.loc 1 62 0
 145 0044 036A     		ldr	r3, [r0, #32]
 146 0046 43F01003 		orr	r3, r3, #16
 147 004a EDE7     		b	.L17
 148              	.LVL12:
 149              	.L15:
 150              		.loc 1 65 0
 151 004c 036A     		ldr	r3, [r0, #32]
 152 004e 23F48073 		bic	r3, r3, #256
 153 0052 0362     		str	r3, [r0, #32]
 154              		.loc 1 66 0
 155 0054 C369     		ldr	r3, [r0, #28]
 156 0056 23F00303 		bic	r3, r3, #3
 157 005a C361     		str	r3, [r0, #28]
 158              		.loc 1 67 0
 159 005c C369     		ldr	r3, [r0, #28]
 160 005e 1A43     		orrs	r2, r2, r3
 161              	.LVL13:
 162 0060 C261     		str	r2, [r0, #28]
 163              		.loc 1 68 0
 164 0062 036A     		ldr	r3, [r0, #32]
 165 0064 43F48073 		orr	r3, r3, #256
 166 0068 DEE7     		b	.L17
 167              	.LVL14:
 168              	.L16:
 169              		.loc 1 71 0
 170 006a 036A     		ldr	r3, [r0, #32]
 171 006c 23F48053 		bic	r3, r3, #4096
ARM GAS  /tmp/ccP9nsAu.s 			page 4


 172 0070 0362     		str	r3, [r0, #32]
 173              		.loc 1 72 0
 174 0072 C369     		ldr	r3, [r0, #28]
 175 0074 23F44073 		bic	r3, r3, #768
 176 0078 C361     		str	r3, [r0, #28]
 177              		.loc 1 73 0
 178 007a C369     		ldr	r3, [r0, #28]
 179 007c 43EA0222 		orr	r2, r3, r2, lsl #8
 180              	.LVL15:
 181 0080 C261     		str	r2, [r0, #28]
 182              		.loc 1 74 0
 183 0082 036A     		ldr	r3, [r0, #32]
 184 0084 43F48053 		orr	r3, r3, #4096
 185 0088 CEE7     		b	.L17
 186              		.cfi_endproc
 187              	.LFE324:
 188              		.size	stm32_timer_set_channel_input, .-stm32_timer_set_channel_input
 189              		.section	.text.show_stack_usage,"ax",%progbits
 190              		.align	1
 191              		.global	show_stack_usage
 192              		.syntax unified
 193              		.thumb
 194              		.thumb_func
 195              		.fpu fpv4-sp-d16
 196              		.type	show_stack_usage, %function
 197              	show_stack_usage:
 198              	.LFB325:
 199              		.loc 1 81 0
 200              		.cfi_startproc
 201              		@ args = 0, pretend = 0, frame = 0
 202              		@ frame_needed = 0, uses_anonymous_args = 0
 203 0000 38B5     		push	{r3, r4, r5, lr}
 204              		.cfi_def_cfa_offset 16
 205              		.cfi_offset 3, -16
 206              		.cfi_offset 4, -12
 207              		.cfi_offset 5, -8
 208              		.cfi_offset 14, -4
 209              		.loc 1 84 0
 210 0002 FFF7FEFF 		bl	chRegFirstThread
 211              	.LVL16:
 212              	.LBB7:
 213              		.loc 1 92 0
 214 0006 0B4D     		ldr	r5, .L23
 215              	.LBE7:
 216              		.loc 1 84 0
 217 0008 0446     		mov	r4, r0
 218              	.LVL17:
 219              	.L20:
 220              	.LBB8:
 221              		.loc 1 86 0
 222 000a E269     		ldr	r2, [r4, #28]
 223              	.LVL18:
 224              		.loc 1 88 0
 225 000c 1346     		mov	r3, r2
 226              	.LVL19:
 227              	.L19:
 228 000e 1978     		ldrb	r1, [r3]	@ zero_extendqisi2
ARM GAS  /tmp/ccP9nsAu.s 			page 5


 229 0010 5529     		cmp	r1, #85
 230 0012 03F10100 		add	r0, r3, #1
 231 0016 0BD0     		beq	.L21
 232              	.LVL20:
 233              		.loc 1 92 0
 234 0018 A169     		ldr	r1, [r4, #24]
 235 001a 9A1A     		subs	r2, r3, r2
 236              	.LVL21:
 237 001c 2846     		mov	r0, r5
 238 001e FFF7FEFF 		bl	printf
 239              	.LVL22:
 240              		.loc 1 93 0
 241 0022 2046     		mov	r0, r4
 242 0024 FFF7FEFF 		bl	chRegNextThread
 243              	.LVL23:
 244              	.LBE8:
 245              		.loc 1 94 0
 246 0028 0446     		mov	r4, r0
 247 002a 0028     		cmp	r0, #0
 248 002c EDD1     		bne	.L20
 249              		.loc 1 95 0
 250 002e 38BD     		pop	{r3, r4, r5, pc}
 251              	.LVL24:
 252              	.L21:
 253              	.LBB9:
 254 0030 0346     		mov	r3, r0
 255              	.LVL25:
 256 0032 ECE7     		b	.L19
 257              	.L24:
 258              		.align	2
 259              	.L23:
 260 0034 00000000 		.word	.LC0
 261              	.LBE9:
 262              		.cfi_endproc
 263              	.LFE325:
 264              		.size	show_stack_usage, .-show_stack_usage
 265              		.section	.text.stm32_set_utc_usec,"ax",%progbits
 266              		.align	1
 267              		.global	stm32_set_utc_usec
 268              		.syntax unified
 269              		.thumb
 270              		.thumb_func
 271              		.fpu fpv4-sp-d16
 272              		.type	stm32_set_utc_usec, %function
 273              	stm32_set_utc_usec:
 274              	.LFB326:
 275              		.loc 1 102 0
 276              		.cfi_startproc
 277              		@ args = 0, pretend = 0, frame = 0
 278              		@ frame_needed = 0, uses_anonymous_args = 0
 279              	.LVL26:
 280 0000 38B5     		push	{r3, r4, r5, lr}
 281              		.cfi_def_cfa_offset 16
 282              		.cfi_offset 3, -16
 283              		.cfi_offset 4, -12
 284              		.cfi_offset 5, -8
 285              		.cfi_offset 14, -4
ARM GAS  /tmp/ccP9nsAu.s 			page 6


 286              		.loc 1 102 0
 287 0002 0446     		mov	r4, r0
 288 0004 0D46     		mov	r5, r1
 289              		.loc 1 103 0
 290 0006 FFF7FEFF 		bl	hrt_micros64
 291              	.LVL27:
 292              		.loc 1 104 0
 293 000a 8D42     		cmp	r5, r1
 294 000c 08BF     		it	eq
 295 000e 8442     		cmpeq	r4, r0
 296 0010 05D3     		bcc	.L25
 297              		.loc 1 105 0
 298 0012 241A     		subs	r4, r4, r0
 299 0014 024B     		ldr	r3, .L27
 300 0016 65EB0105 		sbc	r5, r5, r1
 301 001a C3E90045 		strd	r4, [r3]
 302              	.L25:
 303 001e 38BD     		pop	{r3, r4, r5, pc}
 304              	.L28:
 305              		.align	2
 306              	.L27:
 307 0020 00000000 		.word	.LANCHOR0
 308              		.cfi_endproc
 309              	.LFE326:
 310              		.size	stm32_set_utc_usec, .-stm32_set_utc_usec
 311              		.section	.text.stm32_get_utc_usec,"ax",%progbits
 312              		.align	1
 313              		.global	stm32_get_utc_usec
 314              		.syntax unified
 315              		.thumb
 316              		.thumb_func
 317              		.fpu fpv4-sp-d16
 318              		.type	stm32_get_utc_usec, %function
 319              	stm32_get_utc_usec:
 320              	.LFB327:
 321              		.loc 1 113 0
 322              		.cfi_startproc
 323              		@ args = 0, pretend = 0, frame = 0
 324              		@ frame_needed = 0, uses_anonymous_args = 0
 325 0000 08B5     		push	{r3, lr}
 326              		.cfi_def_cfa_offset 8
 327              		.cfi_offset 3, -8
 328              		.cfi_offset 14, -4
 329              		.loc 1 114 0
 330 0002 FFF7FEFF 		bl	hrt_micros64
 331              	.LVL28:
 332 0006 034B     		ldr	r3, .L30
 333 0008 D3E90023 		ldrd	r2, [r3]
 334              		.loc 1 115 0
 335 000c 8018     		adds	r0, r0, r2
 336 000e 5941     		adcs	r1, r1, r3
 337 0010 08BD     		pop	{r3, pc}
 338              	.L31:
 339 0012 00BF     		.align	2
 340              	.L30:
 341 0014 00000000 		.word	.LANCHOR0
 342              		.cfi_endproc
ARM GAS  /tmp/ccP9nsAu.s 			page 7


 343              	.LFE327:
 344              		.size	stm32_get_utc_usec, .-stm32_get_utc_usec
 345              		.global	__aeabi_uldivmod
 346              		.section	.text.get_fattime,"ax",%progbits
 347              		.align	1
 348              		.global	get_fattime
 349              		.syntax unified
 350              		.thumb
 351              		.thumb_func
 352              		.fpu fpv4-sp-d16
 353              		.type	get_fattime, %function
 354              	get_fattime:
 355              	.LFB330:
 356              		.loc 1 189 0
 357              		.cfi_startproc
 358              		@ args = 0, pretend = 0, frame = 8
 359              		@ frame_needed = 0, uses_anonymous_args = 0
 360              		.loc 1 190 0
 361 0000 484B     		ldr	r3, .L52
 362              		.loc 1 189 0
 363 0002 2DE9F743 		push	{r0, r1, r2, r4, r5, r6, r7, r8, r9, lr}
 364              		.cfi_def_cfa_offset 40
 365              		.cfi_offset 4, -28
 366              		.cfi_offset 5, -24
 367              		.cfi_offset 6, -20
 368              		.cfi_offset 7, -16
 369              		.cfi_offset 8, -12
 370              		.cfi_offset 9, -8
 371              		.cfi_offset 14, -4
 372              		.loc 1 190 0
 373 0006 D3E90023 		ldrd	r2, [r3]
 374 000a 1343     		orrs	r3, r2, r3
 375 000c 00F08780 		beq	.L42
 376              		.loc 1 194 0
 377 0010 FFF7FEFF 		bl	stm32_get_utc_usec
 378              	.LVL29:
 379              		.loc 1 195 0
 380 0014 444A     		ldr	r2, .L52+4
 381 0016 0023     		movs	r3, #0
 382              		.loc 1 194 0
 383 0018 0646     		mov	r6, r0
 384 001a 0F46     		mov	r7, r1
 385              	.LVL30:
 386              		.loc 1 195 0
 387 001c FFF7FEFF 		bl	__aeabi_uldivmod
 388              	.LVL31:
 389              	.LBB16:
 390              	.LBB17:
 391              		.loc 1 146 0
 392 0020 424A     		ldr	r2, .L52+8
 393 0022 0023     		movs	r3, #0
 394 0024 FFF7FEFF 		bl	__aeabi_uldivmod
 395              	.LVL32:
 396              		.loc 1 147 0
 397 0028 1423     		movs	r3, #20
 398              		.loc 1 146 0
 399 002a 1446     		mov	r4, r2
ARM GAS  /tmp/ccP9nsAu.s 			page 8


 400              	.LVL33:
 401              		.loc 1 147 0
 402 002c 3046     		mov	r0, r6
 403 002e 404A     		ldr	r2, .L52+12
 404              	.LVL34:
 405 0030 3946     		mov	r1, r7
 406 0032 FFF7FEFF 		bl	__aeabi_uldivmod
 407              	.LVL35:
 408              		.loc 1 151 0
 409 0036 3C23     		movs	r3, #60
 410              		.loc 1 152 0
 411 0038 4FF46162 		mov	r2, #3600
 412              		.loc 1 151 0
 413 003c B4FBF3F1 		udiv	r1, r4, r3
 414              		.loc 1 152 0
 415 0040 B4FBF2F5 		udiv	r5, r4, r2
 416              		.loc 1 151 0
 417 0044 03FB1141 		mls	r1, r3, r1, r4
 418              		.loc 1 152 0
 419 0048 02FB1542 		mls	r2, r2, r5, r4
 420              		.loc 1 156 0
 421 004c 394C     		ldr	r4, .L52+16
 422              	.LVL36:
 423              		.loc 1 152 0
 424 004e B2FBF3F2 		udiv	r2, r2, r3
 425              		.loc 1 149 0
 426 0052 0026     		movs	r6, #0
 427              	.LVL37:
 428              		.loc 1 154 0
 429 0054 4623     		movs	r3, #70
 430              		.loc 1 156 0
 431 0056 A042     		cmp	r0, r4
 432              		.loc 1 149 0
 433 0058 0096     		str	r6, [sp]
 434              		.loc 1 151 0
 435 005a C9B2     		uxtb	r1, r1
 436              		.loc 1 154 0
 437 005c 8DF80030 		strb	r3, [sp]
 438              		.loc 1 156 0
 439 0060 47D8     		bhi	.L34
 440              	.LBB18:
 441              		.loc 1 162 0
 442 0062 40F26D19 		movw	r9, #365
 443              	.LBB19:
 444              	.LBB20:
 445              		.loc 1 133 0
 446 0066 4FF0640C 		mov	ip, #100
 447 006a 4FF4C878 		mov	r8, #400
 448              	.L37:
 449              	.LVL38:
 450              		.loc 1 132 0
 451 006e 03F26C74 		addw	r4, r3, #1900
 452              	.LVL39:
 453              		.loc 1 133 0
 454 0072 A707     		lsls	r7, r4, #30
 455 0074 19D1     		bne	.L43
 456 0076 B4FBFCF7 		udiv	r7, r4, ip
ARM GAS  /tmp/ccP9nsAu.s 			page 9


 457 007a 0CFB1747 		mls	r7, ip, r7, r4
 458 007e C7B9     		cbnz	r7, .L44
 459 0080 B4FBF8F7 		udiv	r7, r4, r8
 460 0084 08FB1744 		mls	r4, r8, r7, r4
 461              	.LVL40:
 462 0088 002C     		cmp	r4, #0
 463 008a 15BF     		itete	ne
 464 008c 0024     		movne	r4, #0
 465 008e 0124     		moveq	r4, #1
 466 0090 4F46     		movne	r7, r9
 467 0092 4FF4B777 		moveq	r7, #366
 468              	.L35:
 469              	.LVL41:
 470 0096 03F1010E 		add	lr, r3, #1
 471              	.LBE20:
 472              	.LBE19:
 473              		.loc 1 163 0
 474 009a B842     		cmp	r0, r7
 475 009c 5FFA8EFE 		uxtb	lr, lr
 476 00a0 0BD3     		bcc	.L36
 477              		.loc 1 167 0
 478 00a2 C01B     		subs	r0, r0, r7
 479              	.LVL42:
 480 00a4 0126     		movs	r6, #1
 481 00a6 7346     		mov	r3, lr
 482              	.LVL43:
 483 00a8 E1E7     		b	.L37
 484              	.LVL44:
 485              	.L43:
 486              	.LBB23:
 487              	.LBB21:
 488              		.loc 1 133 0
 489 00aa 0024     		movs	r4, #0
 490              	.LVL45:
 491              	.LBE21:
 492              	.LBE23:
 493              		.loc 1 162 0
 494 00ac 40F26D17 		movw	r7, #365
 495 00b0 F1E7     		b	.L35
 496              	.LVL46:
 497              	.L44:
 498              	.LBB24:
 499              	.LBB22:
 500              		.loc 1 133 0
 501 00b2 0124     		movs	r4, #1
 502              	.LVL47:
 503              	.LBE22:
 504              	.LBE24:
 505              		.loc 1 162 0
 506 00b4 4FF4B777 		mov	r7, #366
 507 00b8 EDE7     		b	.L35
 508              	.LVL48:
 509              	.L36:
 510 00ba 0EB1     		cbz	r6, .L38
 511 00bc 8DF80030 		strb	r3, [sp]
 512              	.L38:
 513              	.LBE18:
ARM GAS  /tmp/ccP9nsAu.s 			page 10


 514              	.LBB25:
 515              		.loc 1 172 0
 516 00c0 1D4E     		ldr	r6, .L52+20
 517 00c2 9DF80130 		ldrb	r3, [sp, #1]	@ zero_extendqisi2
 518              	.LVL49:
 519 00c6 4FF00C0E 		mov	lr, #12
 520              	.LBE25:
 521              	.LBB26:
 522              		.loc 1 162 0
 523 00ca 0027     		movs	r7, #0
 524              	.LVL50:
 525              	.LBE26:
 526              	.LBB27:
 527              		.loc 1 172 0
 528 00cc 0EFB0464 		mla	r4, lr, r4, r6
 529              	.L40:
 530 00d0 14F803E0 		ldrb	lr, [r4, r3]	@ zero_extendqisi2
 531              	.LVL51:
 532 00d4 5E1C     		adds	r6, r3, #1
 533              		.loc 1 173 0
 534 00d6 8645     		cmp	lr, r0
 535 00d8 F6B2     		uxtb	r6, r6
 536 00da 04D8     		bhi	.L39
 537              		.loc 1 176 0
 538 00dc A0EB0E00 		sub	r0, r0, lr
 539              	.LVL52:
 540 00e0 0127     		movs	r7, #1
 541 00e2 3346     		mov	r3, r6
 542 00e4 F4E7     		b	.L40
 543              	.L39:
 544 00e6 0FB1     		cbz	r7, .L41
 545 00e8 8DF80130 		strb	r3, [sp, #1]
 546              	.L41:
 547              	.LBE27:
 548              		.loc 1 179 0
 549 00ec 431C     		adds	r3, r0, #1
 550 00ee 8DF80230 		strb	r3, [sp, #2]
 551              	.LVL53:
 552              	.L34:
 553              	.LBE17:
 554              	.LBE16:
 555              		.loc 1 206 0
 556 00f2 9DF80100 		ldrb	r0, [sp, #1]	@ zero_extendqisi2
 557 00f6 431C     		adds	r3, r0, #1
 558              		.loc 1 207 0
 559 00f8 9DF80000 		ldrb	r0, [sp]	@ zero_extendqisi2
 560 00fc 5038     		subs	r0, r0, #80
 561 00fe 4006     		lsls	r0, r0, #25
 562 0100 40EA4350 		orr	r0, r0, r3, lsl #21
 563              		.loc 1 205 0
 564 0104 9DF80230 		ldrb	r3, [sp, #2]	@ zero_extendqisi2
 565 0108 40EA0340 		orr	r0, r0, r3, lsl #16
 566 010c 40EA5100 		orr	r0, r0, r1, lsr #1
 567 0110 40EAC520 		orr	r0, r0, r5, lsl #11
 568              		.loc 1 207 0
 569 0114 40EA4210 		orr	r0, r0, r2, lsl #5
 570              	.LVL54:
ARM GAS  /tmp/ccP9nsAu.s 			page 11


 571              	.L32:
 572              		.loc 1 210 0
 573 0118 03B0     		add	sp, sp, #12
 574              		.cfi_remember_state
 575              		.cfi_def_cfa_offset 28
 576              		@ sp needed
 577 011a BDE8F083 		pop	{r4, r5, r6, r7, r8, r9, pc}
 578              	.L42:
 579              		.cfi_restore_state
 580              		.loc 1 192 0
 581 011e 4FF40410 		mov	r0, #2162688
 582 0122 F9E7     		b	.L32
 583              	.L53:
 584              		.align	2
 585              	.L52:
 586 0124 00000000 		.word	.LANCHOR0
 587 0128 40420F00 		.word	1000000
 588 012c 80510100 		.word	86400
 589 0130 0060D71D 		.word	500654080
 590 0134 90230B00 		.word	730000
 591 0138 00000000 		.word	.LANCHOR1
 592              		.cfi_endproc
 593              	.LFE330:
 594              		.size	get_fattime, .-get_fattime
 595              		.section	.text.get_rtc_backup,"ax",%progbits
 596              		.align	1
 597              		.global	get_rtc_backup
 598              		.syntax unified
 599              		.thumb
 600              		.thumb_func
 601              		.fpu fpv4-sp-d16
 602              		.type	get_rtc_backup, %function
 603              	get_rtc_backup:
 604              	.LFB331:
 605              		.loc 1 216 0
 606              		.cfi_startproc
 607              		@ args = 0, pretend = 0, frame = 0
 608              		@ frame_needed = 0, uses_anonymous_args = 0
 609              	.LVL55:
 610 0000 10B5     		push	{r4, lr}
 611              		.cfi_def_cfa_offset 8
 612              		.cfi_offset 4, -8
 613              		.cfi_offset 14, -4
 614 0002 0244     		add	r2, r2, r0
 615              	.LVL56:
 616              		.loc 1 222 0
 617 0004 064B     		ldr	r3, .L57
 618 0006 0439     		subs	r1, r1, #4
 619              	.LVL57:
 620 0008 D2B2     		uxtb	r2, r2
 621              	.LVL58:
 622              	.L55:
 623              		.loc 1 217 0
 624 000a 9042     		cmp	r0, r2
 625 000c 00D1     		bne	.L56
 626              		.loc 1 225 0
 627 000e 10BD     		pop	{r4, pc}
ARM GAS  /tmp/ccP9nsAu.s 			page 12


 628              	.L56:
 629              	.LVL59:
 630              		.loc 1 222 0
 631 0010 441C     		adds	r4, r0, #1
 632              	.LVL60:
 633 0012 00B2     		sxth	r0, r0
 634 0014 53F82000 		ldr	r0, [r3, r0, lsl #2]
 635 0018 41F8040F 		str	r0, [r1, #4]!
 636              	.LVL61:
 637 001c E0B2     		uxtb	r0, r4
 638 001e F4E7     		b	.L55
 639              	.L58:
 640              		.align	2
 641              	.L57:
 642 0020 50280040 		.word	1073752144
 643              		.cfi_endproc
 644              	.LFE331:
 645              		.size	get_rtc_backup, .-get_rtc_backup
 646              		.section	.text.set_rtc_backup,"ax",%progbits
 647              		.align	1
 648              		.global	set_rtc_backup
 649              		.syntax unified
 650              		.thumb
 651              		.thumb_func
 652              		.fpu fpv4-sp-d16
 653              		.type	set_rtc_backup, %function
 654              	set_rtc_backup:
 655              	.LFB332:
 656              		.loc 1 229 0
 657              		.cfi_startproc
 658              		@ args = 0, pretend = 0, frame = 0
 659              		@ frame_needed = 0, uses_anonymous_args = 0
 660              	.LVL62:
 661              		.loc 1 231 0
 662 0000 104B     		ldr	r3, .L63
 663              		.loc 1 229 0
 664 0002 30B5     		push	{r4, r5, lr}
 665              		.cfi_def_cfa_offset 12
 666              		.cfi_offset 4, -12
 667              		.cfi_offset 5, -8
 668              		.cfi_offset 14, -4
 669              		.loc 1 231 0
 670 0004 1C6F     		ldr	r4, [r3, #112]
 671 0006 2404     		lsls	r4, r4, #16
 672 0008 07D4     		bmi	.L60
 673              		.loc 1 232 0
 674 000a 1C6F     		ldr	r4, [r3, #112]
 675 000c 44F40074 		orr	r4, r4, #512
 676 0010 1C67     		str	r4, [r3, #112]
 677              		.loc 1 233 0
 678 0012 1C6F     		ldr	r4, [r3, #112]
 679 0014 44F40044 		orr	r4, r4, #32768
 680 0018 1C67     		str	r4, [r3, #112]
 681              	.L60:
 682              		.loc 1 236 0
 683 001a 0B4C     		ldr	r4, .L63+4
 684 001c 2368     		ldr	r3, [r4]
ARM GAS  /tmp/ccP9nsAu.s 			page 13


 685 001e 43F48073 		orr	r3, r3, #256
 686 0022 2360     		str	r3, [r4]
 687 0024 0244     		add	r2, r2, r0
 688              	.LVL63:
 689              		.loc 1 247 0
 690 0026 094B     		ldr	r3, .L63+8
 691 0028 0439     		subs	r1, r1, #4
 692              	.LVL64:
 693 002a D2B2     		uxtb	r2, r2
 694              	.LVL65:
 695              	.L61:
 696              		.loc 1 241 0
 697 002c 9042     		cmp	r0, r2
 698 002e 00D1     		bne	.L62
 699              		.loc 1 250 0
 700 0030 30BD     		pop	{r4, r5, pc}
 701              	.L62:
 702              		.loc 1 247 0
 703 0032 441C     		adds	r4, r0, #1
 704              	.LVL66:
 705 0034 00B2     		sxth	r0, r0
 706              	.LVL67:
 707 0036 51F8045F 		ldr	r5, [r1, #4]!
 708              	.LVL68:
 709 003a 43F82050 		str	r5, [r3, r0, lsl #2]
 710 003e E0B2     		uxtb	r0, r4
 711 0040 F4E7     		b	.L61
 712              	.L64:
 713 0042 00BF     		.align	2
 714              	.L63:
 715 0044 00380240 		.word	1073887232
 716 0048 00700040 		.word	1073770496
 717 004c 50280040 		.word	1073752144
 718              		.cfi_endproc
 719              	.LFE332:
 720              		.size	set_rtc_backup, .-set_rtc_backup
 721              		.section	.text.check_fast_reboot,"ax",%progbits
 722              		.align	1
 723              		.global	check_fast_reboot
 724              		.syntax unified
 725              		.thumb
 726              		.thumb_func
 727              		.fpu fpv4-sp-d16
 728              		.type	check_fast_reboot, %function
 729              	check_fast_reboot:
 730              	.LFB333:
 731              		.loc 1 254 0
 732              		.cfi_startproc
 733              		@ args = 0, pretend = 0, frame = 8
 734              		@ frame_needed = 0, uses_anonymous_args = 0
 735 0000 07B5     		push	{r0, r1, r2, lr}
 736              		.cfi_def_cfa_offset 16
 737              		.cfi_offset 14, -4
 738              		.loc 1 256 0
 739 0002 0122     		movs	r2, #1
 740 0004 01A9     		add	r1, sp, #4
 741 0006 0020     		movs	r0, #0
ARM GAS  /tmp/ccP9nsAu.s 			page 14


 742 0008 FFF7FEFF 		bl	get_rtc_backup
 743              	.LVL69:
 744              		.loc 1 258 0
 745 000c 0198     		ldr	r0, [sp, #4]
 746 000e 03B0     		add	sp, sp, #12
 747              		.cfi_def_cfa_offset 4
 748              		@ sp needed
 749 0010 5DF804FB 		ldr	pc, [sp], #4
 750              		.cfi_endproc
 751              	.LFE333:
 752              		.size	check_fast_reboot, .-check_fast_reboot
 753              		.section	.text.set_fast_reboot,"ax",%progbits
 754              		.align	1
 755              		.global	set_fast_reboot
 756              		.syntax unified
 757              		.thumb
 758              		.thumb_func
 759              		.fpu fpv4-sp-d16
 760              		.type	set_fast_reboot, %function
 761              	set_fast_reboot:
 762              	.LFB334:
 763              		.loc 1 262 0
 764              		.cfi_startproc
 765              		@ args = 0, pretend = 0, frame = 8
 766              		@ frame_needed = 0, uses_anonymous_args = 0
 767              	.LVL70:
 768 0000 13B5     		push	{r0, r1, r4, lr}
 769              		.cfi_def_cfa_offset 16
 770              		.cfi_offset 4, -8
 771              		.cfi_offset 14, -4
 772              		.loc 1 262 0
 773 0002 0446     		mov	r4, r0
 774              		.loc 1 263 0
 775 0004 FFF7FEFF 		bl	check_fast_reboot
 776              	.LVL71:
 777 0008 A042     		cmp	r0, r4
 778 000a 06D0     		beq	.L66
 779              	.LBB28:
 780              		.loc 1 264 0
 781 000c 02A9     		add	r1, sp, #8
 782              		.loc 1 265 0
 783 000e 0122     		movs	r2, #1
 784              		.loc 1 264 0
 785 0010 41F8044D 		str	r4, [r1, #-4]!
 786              		.loc 1 265 0
 787 0014 0020     		movs	r0, #0
 788 0016 FFF7FEFF 		bl	set_rtc_backup
 789              	.LVL72:
 790              	.L66:
 791              	.LBE28:
 792              		.loc 1 267 0
 793 001a 02B0     		add	sp, sp, #8
 794              		.cfi_def_cfa_offset 8
 795              		@ sp needed
 796 001c 10BD     		pop	{r4, pc}
 797              		.cfi_endproc
 798              	.LFE334:
ARM GAS  /tmp/ccP9nsAu.s 			page 15


 799              		.size	set_fast_reboot, .-set_fast_reboot
 800              		.section	.text.peripheral_power_enable,"ax",%progbits
 801              		.align	1
 802              		.global	peripheral_power_enable
 803              		.syntax unified
 804              		.thumb
 805              		.thumb_func
 806              		.fpu fpv4-sp-d16
 807              		.type	peripheral_power_enable, %function
 808              	peripheral_power_enable:
 809              	.LFB335:
 810              		.loc 1 289 0
 811              		.cfi_startproc
 812              		@ args = 0, pretend = 0, frame = 0
 813              		@ frame_needed = 0, uses_anonymous_args = 0
 814              	.LVL73:
 815 0000 10B5     		push	{r4, lr}
 816              		.cfi_def_cfa_offset 8
 817              		.cfi_offset 4, -8
 818              		.cfi_offset 14, -4
 819              		.loc 1 289 0
 820 0002 6424     		movs	r4, #100
 821              	.LVL74:
 822              	.L69:
 823              		.loc 1 297 0
 824 0004 4FF47A70 		mov	r0, #1000
 825 0008 013C     		subs	r4, r4, #1
 826              	.LVL75:
 827 000a FFF7FEFF 		bl	chThdSleep
 828              	.LVL76:
 829              		.loc 1 295 0
 830 000e 14F0FF04 		ands	r4, r4, #255
 831 0012 F7D1     		bne	.L69
 832              	.LVL77:
 833              	.LBB29:
 834              		.loc 1 307 0
 835 0014 064B     		ldr	r3, .L73
 836 0016 0822     		movs	r2, #8
 837 0018 9A61     		str	r2, [r3, #24]
 838              	.LVL78:
 839 001a 1424     		movs	r4, #20
 840              	.LVL79:
 841              	.L70:
 842              	.LBE29:
 843              		.loc 1 319 0
 844 001c 4FF47A70 		mov	r0, #1000
 845 0020 013C     		subs	r4, r4, #1
 846              	.LVL80:
 847 0022 FFF7FEFF 		bl	chThdSleep
 848              	.LVL81:
 849              		.loc 1 317 0
 850 0026 14F0FF04 		ands	r4, r4, #255
 851 002a F7D1     		bne	.L70
 852              		.loc 1 322 0
 853 002c 10BD     		pop	{r4, pc}
 854              	.L74:
 855 002e 00BF     		.align	2
ARM GAS  /tmp/ccP9nsAu.s 			page 16


 856              	.L73:
 857 0030 00100240 		.word	1073876992
 858              		.cfi_endproc
 859              	.LFE335:
 860              		.size	peripheral_power_enable, .-peripheral_power_enable
 861              		.section	.text.palReadLineMode,"ax",%progbits
 862              		.align	1
 863              		.global	palReadLineMode
 864              		.syntax unified
 865              		.thumb
 866              		.thumb_func
 867              		.fpu fpv4-sp-d16
 868              		.type	palReadLineMode, %function
 869              	palReadLineMode:
 870              	.LFB336:
 871              		.loc 1 330 0
 872              		.cfi_startproc
 873              		@ args = 0, pretend = 0, frame = 0
 874              		@ frame_needed = 0, uses_anonymous_args = 0
 875              	.LVL82:
 876 0000 F0B5     		push	{r4, r5, r6, r7, lr}
 877              		.cfi_def_cfa_offset 20
 878              		.cfi_offset 4, -20
 879              		.cfi_offset 5, -16
 880              		.cfi_offset 6, -12
 881              		.cfi_offset 7, -8
 882              		.cfi_offset 14, -4
 883              		.loc 1 331 0
 884 0002 20F00F07 		bic	r7, r0, #15
 885              	.LVL83:
 886              		.loc 1 332 0
 887 0006 00F00F05 		and	r5, r0, #15
 888              	.LVL84:
 889              		.loc 1 334 0
 890 000a 3A68     		ldr	r2, [r7]
 891              		.loc 1 335 0
 892 000c 7B68     		ldr	r3, [r7, #4]
 893              		.loc 1 334 0
 894 000e 2EB2     		sxth	r6, r5
 895 0010 7100     		lsls	r1, r6, #1
 896              	.LVL85:
 897              		.loc 1 335 0
 898 0012 EB40     		lsrs	r3, r3, r5
 899 0014 9B00     		lsls	r3, r3, #2
 900              		.loc 1 334 0
 901 0016 CA40     		lsrs	r2, r2, r1
 902              	.LVL86:
 903              		.loc 1 335 0
 904 0018 03F00403 		and	r3, r3, #4
 905              		.loc 1 334 0
 906 001c 02F00302 		and	r2, r2, #3
 907              	.LVL87:
 908              		.loc 1 335 0
 909 0020 1A43     		orrs	r2, r2, r3
 910              	.LVL88:
 911              		.loc 1 336 0
 912 0022 BB68     		ldr	r3, [r7, #8]
ARM GAS  /tmp/ccP9nsAu.s 			page 17


 913              		.loc 1 337 0
 914 0024 FC68     		ldr	r4, [r7, #12]
 915              		.loc 1 336 0
 916 0026 CB40     		lsrs	r3, r3, r1
 917 0028 DB00     		lsls	r3, r3, #3
 918              		.loc 1 337 0
 919 002a CC40     		lsrs	r4, r4, r1
 920              		.loc 1 336 0
 921 002c 03F01803 		and	r3, r3, #24
 922              		.loc 1 337 0
 923 0030 6401     		lsls	r4, r4, #5
 924              		.loc 1 336 0
 925 0032 1343     		orrs	r3, r3, r2
 926              	.LVL89:
 927              		.loc 1 337 0
 928 0034 04F06004 		and	r4, r4, #96
 929              		.loc 1 338 0
 930 0038 072D     		cmp	r5, #7
 931              		.loc 1 337 0
 932 003a 44EA0300 		orr	r0, r4, r3
 933              	.LVL90:
 934              		.loc 1 338 0
 935 003e 07D8     		bhi	.L76
 936              		.loc 1 339 0
 937 0040 396A     		ldr	r1, [r7, #32]
 938 0042 B600     		lsls	r6, r6, #2
 939 0044 F140     		lsrs	r1, r1, r6
 940 0046 C901     		lsls	r1, r1, #7
 941 0048 01F4F061 		and	r1, r1, #1920
 942 004c 0843     		orrs	r0, r0, r1
 943              	.LVL91:
 944 004e F0BD     		pop	{r4, r5, r6, r7, pc}
 945              	.LVL92:
 946              	.L76:
 947              		.loc 1 341 0
 948 0050 796A     		ldr	r1, [r7, #36]
 949 0052 A5F10802 		sub	r2, r5, #8
 950 0056 9200     		lsls	r2, r2, #2
 951 0058 21FA02F2 		lsr	r2, r1, r2
 952 005c D201     		lsls	r2, r2, #7
 953 005e 02F4F062 		and	r2, r2, #1920
 954 0062 1043     		orrs	r0, r0, r2
 955              	.LVL93:
 956              		.loc 1 344 0
 957 0064 F0BD     		pop	{r4, r5, r6, r7, pc}
 958              		.cfi_endproc
 959              	.LFE336:
 960              		.size	palReadLineMode, .-palReadLineMode
 961              		.section	.text.palLineSetPushPull,"ax",%progbits
 962              		.align	1
 963              		.global	palLineSetPushPull
 964              		.syntax unified
 965              		.thumb
 966              		.thumb_func
 967              		.fpu fpv4-sp-d16
 968              		.type	palLineSetPushPull, %function
 969              	palLineSetPushPull:
ARM GAS  /tmp/ccP9nsAu.s 			page 18


 970              	.LFB337:
 971              		.loc 1 350 0
 972              		.cfi_startproc
 973              		@ args = 0, pretend = 0, frame = 0
 974              		@ frame_needed = 0, uses_anonymous_args = 0
 975              	.LVL94:
 976 0000 10B5     		push	{r4, lr}
 977              		.cfi_def_cfa_offset 8
 978              		.cfi_offset 4, -8
 979              		.cfi_offset 14, -4
 980              		.loc 1 351 0
 981 0002 20F00F04 		bic	r4, r0, #15
 982              	.LVL95:
 983              		.loc 1 353 0
 984 0006 00F00F00 		and	r0, r0, #15
 985              	.LVL96:
 986 000a E368     		ldr	r3, [r4, #12]
 987 000c 4000     		lsls	r0, r0, #1
 988 000e 0322     		movs	r2, #3
 989 0010 8240     		lsls	r2, r2, r0
 990 0012 23EA0203 		bic	r3, r3, r2
 991 0016 8140     		lsls	r1, r1, r0
 992              	.LVL97:
 993 0018 1943     		orrs	r1, r1, r3
 994 001a E160     		str	r1, [r4, #12]
 995 001c 10BD     		pop	{r4, pc}
 996              		.cfi_endproc
 997              	.LFE337:
 998              		.size	palLineSetPushPull, .-palLineSetPushPull
 999              		.section	.text.stm32_cacheBufferInvalidate,"ax",%progbits
 1000              		.align	1
 1001              		.global	stm32_cacheBufferInvalidate
 1002              		.syntax unified
 1003              		.thumb
 1004              		.thumb_func
 1005              		.fpu fpv4-sp-d16
 1006              		.type	stm32_cacheBufferInvalidate, %function
 1007              	stm32_cacheBufferInvalidate:
 1008              	.LFB344:
 1009              		.cfi_startproc
 1010              		@ args = 0, pretend = 0, frame = 0
 1011              		@ frame_needed = 0, uses_anonymous_args = 0
 1012              		@ link register save eliminated.
 1013 0000 7047     		bx	lr
 1014              		.cfi_endproc
 1015              	.LFE344:
 1016              		.size	stm32_cacheBufferInvalidate, .-stm32_cacheBufferInvalidate
 1017              		.section	.text.stm32_cacheBufferFlush,"ax",%progbits
 1018              		.align	1
 1019              		.global	stm32_cacheBufferFlush
 1020              		.syntax unified
 1021              		.thumb
 1022              		.thumb_func
 1023              		.fpu fpv4-sp-d16
 1024              		.type	stm32_cacheBufferFlush, %function
 1025              	stm32_cacheBufferFlush:
 1026              	.LFB339:
ARM GAS  /tmp/ccP9nsAu.s 			page 19


 1027              		.loc 1 364 0
 1028              		.cfi_startproc
 1029              		@ args = 0, pretend = 0, frame = 0
 1030              		@ frame_needed = 0, uses_anonymous_args = 0
 1031              		@ link register save eliminated.
 1032              	.LVL98:
 1033 0000 7047     		bx	lr
 1034              		.cfi_endproc
 1035              	.LFE339:
 1036              		.size	stm32_cacheBufferFlush, .-stm32_cacheBufferFlush
 1037              		.section	.text.system_halt_hook,"ax",%progbits
 1038              		.align	1
 1039              		.global	system_halt_hook
 1040              		.syntax unified
 1041              		.thumb
 1042              		.thumb_func
 1043              		.fpu fpv4-sp-d16
 1044              		.type	system_halt_hook, %function
 1045              	system_halt_hook:
 1046              	.LFB340:
 1047              		.loc 1 428 0
 1048              		.cfi_startproc
 1049              		@ args = 0, pretend = 0, frame = 0
 1050              		@ frame_needed = 0, uses_anonymous_args = 0
 1051              		@ link register save eliminated.
 1052 0000 7047     		bx	lr
 1053              		.cfi_endproc
 1054              	.LFE340:
 1055              		.size	system_halt_hook, .-system_halt_hook
 1056              		.section	.text.stack_overflow,"ax",%progbits
 1057              		.align	1
 1058              		.global	stack_overflow
 1059              		.syntax unified
 1060              		.thumb
 1061              		.thumb_func
 1062              		.fpu fpv4-sp-d16
 1063              		.type	stack_overflow, %function
 1064              	stack_overflow:
 1065              	.LFB341:
 1066              		.loc 1 440 0
 1067              		.cfi_startproc
 1068              		@ args = 0, pretend = 0, frame = 0
 1069              		@ frame_needed = 0, uses_anonymous_args = 0
 1070              		@ link register save eliminated.
 1071              	.LVL99:
 1072              		.loc 1 443 0
 1073 0000 8069     		ldr	r0, [r0, #24]
 1074              	.LVL100:
 1075 0002 FFF7FEBF 		b	AP_stack_overflow
 1076              	.LVL101:
 1077              		.cfi_endproc
 1078              	.LFE341:
 1079              		.size	stack_overflow, .-stack_overflow
 1080              		.section	.text.stack_free,"ax",%progbits
 1081              		.align	1
 1082              		.global	stack_free
 1083              		.syntax unified
ARM GAS  /tmp/ccP9nsAu.s 			page 20


 1084              		.thumb
 1085              		.thumb_func
 1086              		.fpu fpv4-sp-d16
 1087              		.type	stack_free, %function
 1088              	stack_free:
 1089              	.LFB342:
 1090              		.loc 1 459 0
 1091              		.cfi_startproc
 1092              		@ args = 0, pretend = 0, frame = 0
 1093              		@ frame_needed = 0, uses_anonymous_args = 0
 1094              		@ link register save eliminated.
 1095              	.LVL102:
 1096              		.loc 1 462 0
 1097 0000 0346     		mov	r3, r0
 1098              	.L84:
 1099              	.LVL103:
 1100 0002 1A68     		ldr	r2, [r3]
 1101 0004 B2F1553F 		cmp	r2, #1431655765
 1102 0008 03F10401 		add	r1, r3, #4
 1103 000c 01D0     		beq	.L85
 1104              		.loc 1 466 0
 1105 000e 181A     		subs	r0, r3, r0
 1106              	.LVL104:
 1107 0010 7047     		bx	lr
 1108              	.LVL105:
 1109              	.L85:
 1110 0012 0B46     		mov	r3, r1
 1111              	.LVL106:
 1112 0014 F5E7     		b	.L84
 1113              		.cfi_endproc
 1114              	.LFE342:
 1115              		.size	stack_free, .-stack_free
 1116              		.section	.bss.utc_time_offset,"aw",%nobits
 1117              		.align	3
 1118              		.set	.LANCHOR0,. + 0
 1119              		.type	utc_time_offset, %object
 1120              		.size	utc_time_offset, 8
 1121              	utc_time_offset:
 1122 0000 00000000 		.space	8
 1122      00000000 
 1123              		.section	.rodata.ndays,"a",%progbits
 1124              		.set	.LANCHOR1,. + 0
 1125              		.type	ndays, %object
 1126              		.size	ndays, 24
 1127              	ndays:
 1128 0000 1F       		.byte	31
 1129 0001 1C       		.byte	28
 1130 0002 1F       		.byte	31
 1131 0003 1E       		.byte	30
 1132 0004 1F       		.byte	31
 1133 0005 1E       		.byte	30
 1134 0006 1F       		.byte	31
 1135 0007 1F       		.byte	31
 1136 0008 1E       		.byte	30
 1137 0009 1F       		.byte	31
 1138 000a 1E       		.byte	30
 1139 000b 1F       		.byte	31
ARM GAS  /tmp/ccP9nsAu.s 			page 21


 1140 000c 1F       		.byte	31
 1141 000d 1D       		.byte	29
 1142 000e 1F       		.byte	31
 1143 000f 1E       		.byte	30
 1144 0010 1F       		.byte	31
 1145 0011 1E       		.byte	30
 1146 0012 1F       		.byte	31
 1147 0013 1F       		.byte	31
 1148 0014 1E       		.byte	30
 1149 0015 1F       		.byte	31
 1150 0016 1E       		.byte	30
 1151 0017 1F       		.byte	31
 1152              		.section	.rodata.show_stack_usage.str1.1,"aMS",%progbits,1
 1153              	.LC0:
 1154 0000 25732025 		.ascii	"%s %u\012\000"
 1154      750A00
 1155              		.text
 1156              	.Letext0:
 1157              		.file 2 "/opt/gcc-arm-none-eabi-6-2017-q2-update/lib/gcc/arm-none-eabi/6.3.1/include/stddef.h"
 1158              		.file 3 "/opt/gcc-arm-none-eabi-6-2017-q2-update/arm-none-eabi/include/machine/_default_types.h"
 1159              		.file 4 "/opt/gcc-arm-none-eabi-6-2017-q2-update/arm-none-eabi/include/sys/_stdint.h"
 1160              		.file 5 "/opt/gcc-arm-none-eabi-6-2017-q2-update/arm-none-eabi/include/stdint.h"
 1161              		.file 6 "../../modules/ChibiOS/os/common/ports/ARMCMx/compilers/GCC/chtypes.h"
 1162              		.file 7 "../../modules/ChibiOS/os/rt/include/chsystypes.h"
 1163              		.file 8 "../../modules/ChibiOS/os/rt/include/chschd.h"
 1164              		.file 9 "../../modules/ChibiOS/os/rt/include/chtime.h"
 1165              		.file 10 "../../modules/ChibiOS/os/common/ext/ARM/CMSIS/Core/Include/core_cm4.h"
 1166              		.file 11 "../../modules/ChibiOS/os/common/ext/ST/STM32F4xx/system_stm32f4xx.h"
 1167              		.file 12 "../../modules/ChibiOS/os/common/ext/ST/STM32F4xx/stm32f427xx.h"
 1168              		.file 13 "../../modules/ChibiOS/os/common/ports/ARMCMx/chcore.h"
 1169              		.file 14 "../../modules/ChibiOS/os/common/ports/ARMCMx/chcore_v7m.h"
 1170              		.file 15 "../../modules/ChibiOS/os/hal/ports/STM32/LLD/TIMv1/stm32_tim.h"
 1171              		.file 16 "../../modules/ChibiOS/os/rt/include/chtm.h"
 1172              		.file 17 "../../modules/ChibiOS/os/rt/include/chsem.h"
 1173              		.file 18 "../../modules/ChibiOS/os/rt/include/chmtx.h"
 1174              		.file 19 "../../modules/ChibiOS/os/rt/include/chsys.h"
 1175              		.file 20 "../../modules/ChibiOS/os/rt/include/chregistry.h"
 1176              		.file 21 "../../modules/ChibiOS/os/rt/include/chevents.h"
 1177              		.file 22 "../../modules/ChibiOS/os/oslib/include/chmemcore.h"
 1178              		.file 23 "../../modules/ChibiOS/os/oslib/include/chmempools.h"
 1179              		.file 24 "../../modules/ChibiOS/os/oslib/include/chfactory.h"
 1180              		.file 25 "../../modules/ChibiOS/os/hal/ports/STM32/LLD/DMAv2/stm32_dma.h"
 1181              		.file 26 "../../modules/ChibiOS/os/hal/include/hal_ioblock.h"
 1182              		.file 27 "../../modules/ChibiOS/os/hal/include/hal_queues.h"
 1183              		.file 28 "../../modules/ChibiOS/os/hal/include/hal_pal.h"
 1184              		.file 29 "../../modules/ChibiOS/os/hal/ports/STM32/LLD/GPIOv2/stm32_gpio.h"
 1185              		.file 30 "../../modules/ChibiOS/os/hal/ports/STM32/LLD/GPIOv2/hal_pal_lld.h"
 1186              		.file 31 "../../modules/ChibiOS/os/hal/include/hal_adc.h"
 1187              		.file 32 "../../modules/ChibiOS/os/hal/ports/STM32/LLD/ADCv2/hal_adc_lld.h"
 1188              		.file 33 "../../modules/ChibiOS/os/hal/include/hal_i2c.h"
 1189              		.file 34 "../../modules/ChibiOS/os/hal/ports/STM32/LLD/I2Cv1/hal_i2c_lld.h"
 1190              		.file 35 "../../modules/ChibiOS/os/hal/include/hal_pwm.h"
 1191              		.file 36 "../../modules/ChibiOS/os/hal/ports/STM32/LLD/TIMv1/hal_pwm_lld.h"
 1192              		.file 37 "../../modules/ChibiOS/os/hal/include/hal_serial.h"
 1193              		.file 38 "../../modules/ChibiOS/os/hal/ports/STM32/LLD/USARTv1/hal_serial_lld.h"
 1194              		.file 39 "../../modules/ChibiOS/os/hal/include/hal_sdc.h"
 1195              		.file 40 "../../modules/ChibiOS/os/hal/ports/STM32/LLD/SDIOv1/hal_sdc_lld.h"
ARM GAS  /tmp/ccP9nsAu.s 			page 22


 1196              		.file 41 "../../modules/ChibiOS/os/hal/include/hal_spi.h"
 1197              		.file 42 "../../modules/ChibiOS/os/hal/ports/STM32/LLD/SPIv1/hal_spi_lld.h"
 1198              		.file 43 "../../modules/ChibiOS/os/hal/include/hal_usb.h"
 1199              		.file 44 "../../modules/ChibiOS/os/hal/ports/STM32/LLD/OTGv1/hal_usb_lld.h"
 1200              		.file 45 "../../modules/ChibiOS/os/hal/ports/STM32/LLD/OTGv1/stm32_otg.h"
 1201              		.file 46 "../../libraries/AP_HAL_ChibiOS/hwdef/common/stm32_util.h"
 1202              		.file 47 "/opt/gcc-arm-none-eabi-6-2017-q2-update/lib/gcc/arm-none-eabi/6.3.1/include/stdarg.h"
 1203              		.file 48 "<built-in>"
 1204              		.file 49 "../../libraries/AP_HAL_ChibiOS/hwdef/common/stdio.h"
 1205              		.file 50 "/opt/gcc-arm-none-eabi-6-2017-q2-update/arm-none-eabi/include/sys/lock.h"
 1206              		.file 51 "/opt/gcc-arm-none-eabi-6-2017-q2-update/arm-none-eabi/include/sys/_types.h"
 1207              		.file 52 "/opt/gcc-arm-none-eabi-6-2017-q2-update/arm-none-eabi/include/sys/reent.h"
 1208              		.file 53 "../../modules/ChibiOS/os/rt/include/chthreads.h"
 1209              		.file 54 "../../libraries/AP_HAL_ChibiOS/hwdef/common/hrt.h"