ARM GAS  /tmp/cc5kpRv7.s 			page 1


   1              		.cpu cortex-m4
   2              		.eabi_attribute 27, 1
   3              		.eabi_attribute 28, 1
   4              		.eabi_attribute 20, 1
   5              		.eabi_attribute 21, 1
   6              		.eabi_attribute 23, 3
   7              		.eabi_attribute 24, 1
   8              		.eabi_attribute 25, 1
   9              		.eabi_attribute 26, 1
  10              		.eabi_attribute 30, 4
  11              		.eabi_attribute 34, 1
  12              		.eabi_attribute 18, 4
  13              		.file	"stubs.c"
  14              		.text
  15              	.Ltext0:
  16              		.cfi_sections	.debug_frame
  17              		.section	.text._read,"ax",%progbits
  18              		.align	1
  19              		.global	_read
  20              		.syntax unified
  21              		.thumb
  22              		.thumb_func
  23              		.fpu fpv4-sp-d16
  24              		.type	_read, %function
  25              	_read:
  26              	.LFB302:
  27              		.cfi_startproc
  28              		@ args = 0, pretend = 0, frame = 0
  29              		@ frame_needed = 0, uses_anonymous_args = 0
  30              		@ link register save eliminated.
  31 0000 4FF0FF30 		mov	r0, #-1
  32 0004 7047     		bx	lr
  33              		.cfi_endproc
  34              	.LFE302:
  35              		.size	_read, .-_read
  36              		.section	.text._lseek,"ax",%progbits
  37              		.align	1
  38              		.global	_lseek
  39              		.syntax unified
  40              		.thumb
  41              		.thumb_func
  42              		.fpu fpv4-sp-d16
  43              		.type	_lseek, %function
  44              	_lseek:
  45              	.LFB291:
  46              		.file 1 "../../libraries/AP_HAL_ChibiOS/hwdef/common/stubs.c"
  47              		.loc 1 103 0
  48              		.cfi_startproc
  49              		@ args = 0, pretend = 0, frame = 0
  50              		@ frame_needed = 0, uses_anonymous_args = 0
  51              		@ link register save eliminated.
  52              	.LVL0:
  53              		.loc 1 110 0
  54 0000 0020     		movs	r0, #0
  55              	.LVL1:
  56 0002 7047     		bx	lr
  57              		.cfi_endproc
ARM GAS  /tmp/cc5kpRv7.s 			page 2


  58              	.LFE291:
  59              		.size	_lseek, .-_lseek
  60              		.section	.text._write,"ax",%progbits
  61              		.align	1
  62              		.global	_write
  63              		.syntax unified
  64              		.thumb
  65              		.thumb_func
  66              		.fpu fpv4-sp-d16
  67              		.type	_write, %function
  68              	_write:
  69              	.LFB292:
  70              		.loc 1 116 0
  71              		.cfi_startproc
  72              		@ args = 0, pretend = 0, frame = 0
  73              		@ frame_needed = 0, uses_anonymous_args = 0
  74              		@ link register save eliminated.
  75              	.LVL2:
  76              		.loc 1 122 0
  77 0000 4FF0FF30 		mov	r0, #-1
  78              	.LVL3:
  79 0004 7047     		bx	lr
  80              		.cfi_endproc
  81              	.LFE292:
  82              		.size	_write, .-_write
  83              		.section	.text._close,"ax",%progbits
  84              		.align	1
  85              		.global	_close
  86              		.syntax unified
  87              		.thumb
  88              		.thumb_func
  89              		.fpu fpv4-sp-d16
  90              		.type	_close, %function
  91              	_close:
  92              	.LFB293:
  93              		.loc 1 128 0
  94              		.cfi_startproc
  95              		@ args = 0, pretend = 0, frame = 0
  96              		@ frame_needed = 0, uses_anonymous_args = 0
  97              		@ link register save eliminated.
  98              	.LVL4:
  99              		.loc 1 132 0
 100 0000 0020     		movs	r0, #0
 101              	.LVL5:
 102 0002 7047     		bx	lr
 103              		.cfi_endproc
 104              	.LFE293:
 105              		.size	_close, .-_close
 106              		.section	.text._sbrk,"ax",%progbits
 107              		.align	1
 108              		.global	_sbrk
 109              		.syntax unified
 110              		.thumb
 111              		.thumb_func
 112              		.fpu fpv4-sp-d16
 113              		.type	_sbrk, %function
 114              	_sbrk:
ARM GAS  /tmp/cc5kpRv7.s 			page 3


 115              	.LFB294:
 116              		.loc 1 138 0
 117              		.cfi_startproc
 118              		@ args = 0, pretend = 0, frame = 0
 119              		@ frame_needed = 0, uses_anonymous_args = 0
 120              	.LVL6:
 121 0000 10B5     		push	{r4, lr}
 122              		.cfi_def_cfa_offset 8
 123              		.cfi_offset 4, -8
 124              		.cfi_offset 14, -4
 125              	.LBB4:
 126              	.LBB5:
 127              		.file 2 "../../modules/ChibiOS/os/oslib/include/chmemheaps.h"
 128              		.loc 2 156 0
 129 0002 0822     		movs	r2, #8
 130              	.LBE5:
 131              	.LBE4:
 132              		.loc 1 138 0
 133 0004 0446     		mov	r4, r0
 134              	.LVL7:
 135              	.LBB7:
 136              	.LBB6:
 137              		.loc 2 156 0
 138 0006 0020     		movs	r0, #0
 139              	.LVL8:
 140 0008 FFF7FEFF 		bl	chHeapAllocAligned
 141              	.LVL9:
 142              	.LBE6:
 143              	.LBE7:
 144              		.loc 1 144 0
 145 000c 18B9     		cbnz	r0, .L5
 146              		.loc 1 145 0
 147 000e 0C23     		movs	r3, #12
 148 0010 2360     		str	r3, [r4]
 149              		.loc 1 146 0
 150 0012 4FF0FF30 		mov	r0, #-1
 151              	.L5:
 152              		.loc 1 154 0
 153 0016 10BD     		pop	{r4, pc}
 154              		.cfi_endproc
 155              	.LFE294:
 156              		.size	_sbrk, .-_sbrk
 157              		.section	.text._fstat,"ax",%progbits
 158              		.align	1
 159              		.global	_fstat
 160              		.syntax unified
 161              		.thumb
 162              		.thumb_func
 163              		.fpu fpv4-sp-d16
 164              		.type	_fstat, %function
 165              	_fstat:
 166              	.LFB295:
 167              		.loc 1 161 0
 168              		.cfi_startproc
 169              		@ args = 0, pretend = 0, frame = 0
 170              		@ frame_needed = 0, uses_anonymous_args = 0
 171              		@ link register save eliminated.
ARM GAS  /tmp/cc5kpRv7.s 			page 4


 172              	.LVL10:
 173              		.loc 1 166 0
 174 0000 4FF0FF30 		mov	r0, #-1
 175              	.LVL11:
 176 0004 7047     		bx	lr
 177              		.cfi_endproc
 178              	.LFE295:
 179              		.size	_fstat, .-_fstat
 180              		.section	.text._isatty,"ax",%progbits
 181              		.align	1
 182              		.global	_isatty
 183              		.syntax unified
 184              		.thumb
 185              		.thumb_func
 186              		.fpu fpv4-sp-d16
 187              		.type	_isatty, %function
 188              	_isatty:
 189              	.LFB296:
 190              		.loc 1 172 0
 191              		.cfi_startproc
 192              		@ args = 0, pretend = 0, frame = 0
 193              		@ frame_needed = 0, uses_anonymous_args = 0
 194              		@ link register save eliminated.
 195              	.LVL12:
 196              		.loc 1 176 0
 197 0000 0120     		movs	r0, #1
 198              	.LVL13:
 199 0002 7047     		bx	lr
 200              		.cfi_endproc
 201              	.LFE296:
 202              		.size	_isatty, .-_isatty
 203              		.section	.text._getpid,"ax",%progbits
 204              		.align	1
 205              		.global	_getpid
 206              		.syntax unified
 207              		.thumb
 208              		.thumb_func
 209              		.fpu fpv4-sp-d16
 210              		.type	_getpid, %function
 211              	_getpid:
 212              	.LFB297:
 213              		.loc 1 180 0
 214              		.cfi_startproc
 215              		@ args = 0, pretend = 0, frame = 0
 216              		@ frame_needed = 0, uses_anonymous_args = 0
 217              		@ link register save eliminated.
 218              		.loc 1 182 0
 219 0000 0020     		movs	r0, #0
 220 0002 7047     		bx	lr
 221              		.cfi_endproc
 222              	.LFE297:
 223              		.size	_getpid, .-_getpid
 224              		.section	.text._exit,"ax",%progbits
 225              		.align	1
 226              		.global	_exit
 227              		.syntax unified
 228              		.thumb
ARM GAS  /tmp/cc5kpRv7.s 			page 5


 229              		.thumb_func
 230              		.fpu fpv4-sp-d16
 231              		.type	_exit, %function
 232              	_exit:
 233              	.LFB298:
 234              		.loc 1 186 0
 235              		.cfi_startproc
 236              		@ Volatile: function does not return.
 237              		@ args = 0, pretend = 0, frame = 0
 238              		@ frame_needed = 0, uses_anonymous_args = 0
 239              		@ link register save eliminated.
 240              	.LVL14:
 241              	.L12:
 242 0000 FEE7     		b	.L12
 243              		.cfi_endproc
 244              	.LFE298:
 245              		.size	_exit, .-_exit
 246              		.section	.text._fini,"ax",%progbits
 247              		.align	1
 248              		.global	_fini
 249              		.syntax unified
 250              		.thumb
 251              		.thumb_func
 252              		.fpu fpv4-sp-d16
 253              		.type	_fini, %function
 254              	_fini:
 255              	.LFB299:
 256              		.loc 1 193 0
 257              		.cfi_startproc
 258              		@ args = 0, pretend = 0, frame = 0
 259              		@ frame_needed = 0, uses_anonymous_args = 0
 260              		@ link register save eliminated.
 261 0000 7047     		bx	lr
 262              		.cfi_endproc
 263              	.LFE299:
 264              		.size	_fini, .-_fini
 265              		.section	.text._kill,"ax",%progbits
 266              		.align	1
 267              		.global	_kill
 268              		.syntax unified
 269              		.thumb
 270              		.thumb_func
 271              		.fpu fpv4-sp-d16
 272              		.type	_kill, %function
 273              	_kill:
 274              	.LFB300:
 275              		.loc 1 198 0
 276              		.cfi_startproc
 277              		@ args = 0, pretend = 0, frame = 0
 278              		@ frame_needed = 0, uses_anonymous_args = 0
 279              		@ link register save eliminated.
 280              	.LVL15:
 281              		.loc 1 202 0
 282 0000 4FF0FF30 		mov	r0, #-1
 283              	.LVL16:
 284 0004 7047     		bx	lr
 285              		.cfi_endproc
ARM GAS  /tmp/cc5kpRv7.s 			page 6


 286              	.LFE300:
 287              		.size	_kill, .-_kill
 288              		.global	_before_main
 289              		.section	.data._before_main,"aw",%progbits
 290              		.type	_before_main, %object
 291              		.size	_before_main, 1
 292              	_before_main:
 293 0000 01       		.byte	1
 294              		.text
 295              	.Letext0:
 296              		.file 3 "/opt/gcc-arm-none-eabi-6-2017-q2-update/arm-none-eabi/include/machine/_default_types.h"
 297              		.file 4 "/opt/gcc-arm-none-eabi-6-2017-q2-update/lib/gcc/arm-none-eabi/6.3.1/include/stddef.h"
 298              		.file 5 "/opt/gcc-arm-none-eabi-6-2017-q2-update/arm-none-eabi/include/sys/lock.h"
 299              		.file 6 "/opt/gcc-arm-none-eabi-6-2017-q2-update/arm-none-eabi/include/sys/_types.h"
 300              		.file 7 "/opt/gcc-arm-none-eabi-6-2017-q2-update/arm-none-eabi/include/sys/_stdint.h"
 301              		.file 8 "/opt/gcc-arm-none-eabi-6-2017-q2-update/arm-none-eabi/include/sys/_timeval.h"
 302              		.file 9 "/opt/gcc-arm-none-eabi-6-2017-q2-update/arm-none-eabi/include/sys/types.h"
 303              		.file 10 "/opt/gcc-arm-none-eabi-6-2017-q2-update/arm-none-eabi/include/sys/unistd.h"
 304              		.file 11 "/opt/gcc-arm-none-eabi-6-2017-q2-update/arm-none-eabi/include/sys/reent.h"
 305              		.file 12 "/opt/gcc-arm-none-eabi-6-2017-q2-update/arm-none-eabi/include/sys/errno.h"
 306              		.file 13 "/opt/gcc-arm-none-eabi-6-2017-q2-update/arm-none-eabi/include/time.h"
 307              		.file 14 "/opt/gcc-arm-none-eabi-6-2017-q2-update/arm-none-eabi/include/sys/stat.h"
 308              		.file 15 "../../modules/ChibiOS/os/common/ports/ARMCMx/compilers/GCC/chtypes.h"
 309              		.file 16 "../../modules/ChibiOS/os/rt/include/chsystypes.h"
 310              		.file 17 "../../modules/ChibiOS/os/rt/include/chschd.h"
 311              		.file 18 "../../modules/ChibiOS/os/rt/include/chtime.h"
 312              		.file 19 "../../modules/ChibiOS/os/common/ext/ARM/CMSIS/Core/Include/core_cm4.h"
 313              		.file 20 "../../modules/ChibiOS/os/common/ext/ST/STM32F4xx/system_stm32f4xx.h"
 314              		.file 21 "../../modules/ChibiOS/os/common/ports/ARMCMx/chcore.h"
 315              		.file 22 "../../modules/ChibiOS/os/common/ports/ARMCMx/chcore_v7m.h"
 316              		.file 23 "../../modules/ChibiOS/os/rt/include/chtm.h"
 317              		.file 24 "../../modules/ChibiOS/os/rt/include/chsem.h"
 318              		.file 25 "../../modules/ChibiOS/os/rt/include/chmtx.h"
 319              		.file 26 "../../modules/ChibiOS/os/rt/include/chsys.h"
 320              		.file 27 "../../modules/ChibiOS/os/rt/include/chregistry.h"
 321              		.file 28 "../../modules/ChibiOS/os/oslib/include/chmemcore.h"
 322              		.file 29 "../../modules/ChibiOS/os/oslib/include/chmempools.h"
 323              		.file 30 "../../modules/ChibiOS/os/oslib/include/chfactory.h"