ARM GAS  /tmp/cc5kpRv7.s 			page 1


   1              		.cpu cortex-m4
   2              		.eabi_attribute 27, 1
   3              		.eabi_attribute 28, 1
   4              		.eabi_attribute 20, 1
   5              		.eabi_attribute 21, 1
   6              		.eabi_attribute 23, 3
   7              		.eabi_attribute 24, 1
   8              		.eabi_attribute 25, 1
   9              		.eabi_attribute 26, 1
  10              		.eabi_attribute 30, 4
  11              		.eabi_attribute 34, 1
  12              		.eabi_attribute 18, 4
  13              		.file	"stubs.c"
  14              		.text
  15              	.Ltext0:
  16              		.cfi_sections	.debug_frame
  17              		.section	.text._read,"ax",%progbits
  18              		.align	1
  19              		.global	_read
  20              		.syntax unified
  21              		.thumb
  22              		.thumb_func
  23              		.fpu fpv4-sp-d16
  24              		.type	_read, %function
  25              	_read:
  26              	.LFB302:
  27              		.cfi_startproc
  28              		@ args = 0, pretend = 0, frame = 0
  29              		@ frame_needed = 0, uses_anonymous_args = 0
  30              		@ link register save eliminated.
  31 0000 4FF0FF30 		mov	r0, #-1
  32 0004 7047     		bx	lr
  33              		.cfi_endproc
  34              	.LFE302:
  35              		.size	_read, .-_read
  36              		.section	.text._lseek,"ax",%progbits
  37              		.align	1
  38              		.global	_lseek
  39              		.syntax unified
  40              		.thumb
  41              		.thumb_func
  42              		.fpu fpv4-sp-d16
  43              		.type	_lseek, %function
  44              	_lseek:
  45              	.LFB291:
  46              		.file 1 "../../libraries/AP_HAL_ChibiOS/hwdef/common/stubs.c"
  47              		.loc 1 103 0
  48              		.cfi_startproc
  49              		@ args = 0, pretend = 0, frame = 0
  50              		@ frame_needed = 0, uses_anonymous_args = 0
  51              		@ link register save eliminated.
  52              	.LVL0:
  53              		.loc 1 110 0
  54 0000 0020     		movs	r0, #0
  55              	.LVL1:
  56 0002 7047     		bx	lr
  57              		.cfi_endproc
ARM GAS  /tmp/cc5kpRv7.s 			page 2


  58              	.LFE291:
  59              		.size	_lseek, .-_lseek
  60              		.section	.text._write,"ax",%progbits
  61              		.align	1
  62              		.global	_write
  63              		.syntax unified
  64              		.thumb
  65              		.thumb_func
  66              		.fpu fpv4-sp-d16
  67              		.type	_write, %function
  68              	_write:
  69              	.LFB292:
  70              		.loc 1 116 0
  71              		.cfi_startproc
  72              		@ args = 0, pretend = 0, frame = 0
  73              		@ frame_needed = 0, uses_anonymous_args = 0
  74              		@ link register save eliminated.
  75              	.LVL2:
  76              		.loc 1 122 0
  77 0000 4FF0FF30 		mov	r0, #-1
  78              	.LVL3:
  79 0004 7047     		bx	lr
  80              		.cfi_endproc
  81              	.LFE292:
  82              		.size	_write, .-_write
  83              		.section	.text._close,"ax",%progbits
  84              		.align	1
  85              		.global	_close
  86              		.syntax unified
  87              		.thumb
  88              		.thumb_func
  89              		.fpu fpv4-sp-d16
  90              		.type	_close, %function
  91              	_close:
  92              	.LFB293:
  93              		.loc 1 128 0
  94              		.cfi_startproc
  95              		@ args = 0, pretend = 0, frame = 0
  96              		@ frame_needed = 0, uses_anonymous_args = 0
  97              		@ link register save eliminated.
  98              	.LVL4:
  99              		.loc 1 132 0
 100 0000 0020     		movs	r0, #0
 101              	.LVL5:
 102 0002 7047     		bx	lr
 103              		.cfi_endproc
 104              	.LFE293:
 105              		.size	_close, .-_close
 106              		.section	.text._sbrk,"ax",%progbits
 107              		.align	1
 108              		.global	_sbrk
 109              		.syntax unified
 110              		.thumb
 111              		.thumb_func
 112              		.fpu fpv4-sp-d16
 113              		.type	_sbrk, %function
 114              	_sbrk:
ARM GAS  /tmp/cc5kpRv7.s 			page 3


 115              	.LFB294:
 116              		.loc 1 138 0
 117              		.cfi_startproc
 118              		@ args = 0, pretend = 0, frame = 0
 119              		@ frame_needed = 0, uses_anonymous_args = 0
 120              	.LVL6:
 121 0000 10B5     		push	{r4, lr}
 122              		.cfi_def_cfa_offset 8
 123              		.cfi_offset 4, -8
 124              		.cfi_offset 14, -4
 125              	.LBB4:
 126              	.LBB5:
 127              		.file 2 "../../modules/ChibiOS/os/oslib/include/chmemheaps.h"
 128              		.loc 2 156 0
 129 0002 0822     		movs	r2, #8
 130              	.LBE5:
 131              	.LBE4:
 132              		.loc 1 138 0
 133 0004 0446     		mov	r4, r0
 134              	.LVL7:
 135              	.LBB7:
 136              	.LBB6:
 137              		.loc 2 156 0
 138 0006 0020     		movs	r0, #0
 139              	.LVL8:
 140 0008 FFF7FEFF 		bl	chHeapAllocAligned
 141              	.LVL9:
 142              	.LBE6:
 143              	.LBE7:
 144              		.loc 1 144 0
 145 000c 18B9     		cbnz	r0, .L5
 146              		.loc 1 145 0
 147 000e 0C23     		movs	r3, #12
 148 0010 2360     		str	r3, [r4]
 149              		.loc 1 146 0
 150 0012 4FF0FF30 		mov	r0, #-1
 151              	.L5:
 152              		.loc 1 154 0
 153 0016 10BD     		pop	{r4, pc}
 154              		.cfi_endproc
 155              	.LFE294:
 156              		.size	_sbrk, .-_sbrk
 157              		.section	.text._fstat,"ax",%progbits
 158              		.align	1
 159              		.global	_fstat
 160              		.syntax unified
 161              		.thumb
 162              		.thumb_func
 163              		.fpu fpv4-sp-d16
 164              		.type	_fstat, %function
 165              	_fstat:
 166              	.LFB295:
 167              		.loc 1 161 0
 168              		.cfi_startproc
 169              		@ args = 0, pretend = 0, frame = 0
 170              		@ frame_needed = 0, uses_anonymous_args = 0
 171              		@ link register save eliminated.
ARM GAS  /tmp/cc5kpRv7.s 			page 4


 172              	.LVL10:
 173              		.loc 1 166 0
 174 0000 4FF0FF30 		mov	r0, #-1
 175              	.LVL11:
 176 0004 7047     		bx	lr
 177              		.cfi_endproc
 178              	.LFE295:
 179              		.size	_fstat, .-_fstat
 180              		.section	.text._isatty,"ax",%progbits
 181              		.align	1
 182              		.global	_isatty
 183              		.syntax unified
 184              		.thumb
 185              		.thumb_func
 186              		.fpu fpv4-sp-d16
 187              		.type	_isatty, %function
 188              	_isatty:
 189              	.LFB296:
 190              		.loc 1 172 0
 191              		.cfi_startproc
 192              		@ args = 0, pretend = 0, frame = 0
 193              		@ frame_needed = 0, uses_anonymous_args = 0
 194              		@ link register save eliminated.
 195              	.LVL12:
 196              		.loc 1 176 0
 197 0000 0120     		movs	r0, #1
 198              	.LVL13:
 199 0002 7047     		bx	lr
 200              		.cfi_endproc
 201              	.LFE296:
 202              		.size	_isatty, .-_isatty
 203              		.section	.text._getpid,"ax",%progbits
 204              		.align	1
 205              		.global	_getpid
 206              		.syntax unified
 207              		.thumb
 208              		.thumb_func
 209              		.fpu fpv4-sp-d16
 210              		.type	_getpid, %function
 211              	_getpid:
 212              	.LFB297:
 213              		.loc 1 180 0
 214              		.cfi_startproc
 215              		@ args = 0, pretend = 0, frame = 0
 216              		@ frame_needed = 0, uses_anonymous_args = 0
 217              		@ link register save eliminated.
 218              		.loc 1 182 0
 219 0000 0020     		movs	r0, #0
 220 0002 7047     		bx	lr
 221              		.cfi_endproc
 222              	.LFE297:
 223              		.size	_getpid, .-_getpid
 224              		.section	.text._exit,"ax",%progbits
 225              		.align	1
 226              		.global	_exit
 227              		.syntax unified
 228              		.thumb
ARM GAS  /tmp/cc5kpRv7.s 			page 5


 229              		.thumb_func
 230              		.fpu fpv4-sp-d16
 231              		.type	_exit, %function
 232              	_exit:
 233              	.LFB298:
 234              		.loc 1 186 0
 235              		.cfi_startproc
 236              		@ Volatile: function does not return.
 237              		@ args = 0, pretend = 0, frame = 0
 238              		@ frame_needed = 0, uses_anonymous_args = 0
 239              		@ link register save eliminated.
 240              	.LVL14:
 241              	.L12:
 242 0000 FEE7     		b	.L12
 243              		.cfi_endproc
 244              	.LFE298:
 245              		.size	_exit, .-_exit
 246              		.section	.text._fini,"ax",%progbits
 247              		.align	1
 248              		.global	_fini
 249              		.syntax unified
 250              		.thumb
 251              		.thumb_func
 252              		.fpu fpv4-sp-d16
 253              		.type	_fini, %function
 254              	_fini:
 255              	.LFB299:
 256              		.loc 1 193 0
 257              		.cfi_startproc
 258              		@ args = 0, pretend = 0, frame = 0
 259              		@ frame_needed = 0, uses_anonymous_args = 0
 260              		@ link register save eliminated.
 261 0000 7047     		bx	lr
 262              		.cfi_endproc
 263              	.LFE299:
 264              		.size	_fini, .-_fini
 265              		.section	.text._kill,"ax",%progbits
 266              		.align	1
 267              		.global	_kill
 268              		.syntax unified
 269              		.thumb
 270              		.thumb_func
 271              		.fpu fpv4-sp-d16
 272              		.type	_kill, %function
 273              	_kill:
 274              	.LFB300:
 275              		.loc 1 198 0
 276              		.cfi_startproc
 277              		@ args = 0, pretend = 0, frame = 0
 278              		@ frame_needed = 0, uses_anonymous_args = 0
 279              		@ link register save eliminated.
 280              	.LVL15:
 281              		.loc 1 202 0
 282 0000 4FF0FF30 		mov	r0, #-1
 283              	.LVL16:
 284 0004 7047     		bx	lr
 285              		.cfi_endproc
ARM GAS  /tmp/cc5kpRv7.s 			page 6


 286              	.LFE300:
 287              		.size	_kill, .-_kill
 288              		.global	_before_main
 289              		.section	.data._before_main,"aw",%progbits
 290              		.type	_before_main, %object
 291              		.size	_before_main, 1
 292              	_before_main:
 293 0000 01       		.byte	1
 294              		.text
 295              	.Letext0:
 296              		.file 3 "/opt/gcc-arm-none-eabi-6-2017-q2-update/arm-none-eabi/include/machine/_default_types.h"
 297              		.file 4 "/opt/gcc-arm-none-eabi-6-2017-q2-update/lib/gcc/arm-none-eabi/6.3.1/include/stddef.h"
 298              		.file 5 "/opt/gcc-arm-none-eabi-6-2017-q2-update/arm-none-eabi/include/sys/lock.h"
 299              		.file 6 "/opt/gcc-arm-none-eabi-6-2017-q2-update/arm-none-eabi/include/sys/_types.h"
 300              		.file 7 "/opt/gcc-arm-none-eabi-6-2017-q2-update/arm-none-eabi/include/sys/_stdint.h"
 301              		.file 8 "/opt/gcc-arm-none-eabi-6-2017-q2-update/arm-none-eabi/include/sys/_timeval.h"
 302              		.file 9 "/opt/gcc-arm-none-eabi-6-2017-q2-update/arm-none-eabi/include/sys/types.h"
 303              		.file 10 "/opt/gcc-arm-none-eabi-6-2017-q2-update/arm-none-eabi/include/sys/unistd.h"
 304              		.file 11 "/opt/gcc-arm-none-eabi-6-2017-q2-update/arm-none-eabi/include/sys/reent.h"
 305              		.file 12 "/opt/gcc-arm-none-eabi-6-2017-q2-update/arm-none-eabi/include/sys/errno.h"
 306              		.file 13 "/opt/gcc-arm-none-eabi-6-2017-q2-update/arm-none-eabi/include/time.h"
 307              		.file 14 "/opt/gcc-arm-none-eabi-6-2017-q2-update/arm-none-eabi/include/sys/stat.h"
 308              		.file 15 "../../modules/ChibiOS/os/common/ports/ARMCMx/compilers/GCC/chtypes.h"
 309              		.file 16 "../../modules/ChibiOS/os/rt/include/chsystypes.h"
 310              		.file 17 "../../modules/ChibiOS/os/rt/include/chschd.h"
 311              		.file 18 "../../modules/ChibiOS/os/rt/include/chtime.h"
 312              		.file 19 "../../modules/ChibiOS/os/common/ext/ARM/CMSIS/Core/Include/core_cm4.h"
 313              		.file 20 "../../modules/ChibiOS/os/common/ext/ST/STM32F4xx/system_stm32f4xx.h"
 314              		.file 21 "../../modules/ChibiOS/os/common/ports/ARMCMx/chcore.h"
 315              		.file 22 "../../modules/ChibiOS/os/common/ports/ARMCMx/chcore_v7m.h"
 316              		.file 23 "../../modules/ChibiOS/os/rt/include/chtm.h"
 317              		.file 24 "../../modules/ChibiOS/os/rt/include/chsem.h"
 318              		.file 25 "../../modules/ChibiOS/os/rt/include/chmtx.h"
 319              		.file 26 "../../modules/ChibiOS/os/rt/include/chsys.h"
 320              		.file 27 "../../modules/ChibiOS/os/rt/include/chregistry.h"
 321              		.file 28 "../../modules/ChibiOS/os/oslib/include/chmemcore.h"
 322              		.file 29 "../../modules/ChibiOS/os/oslib/include/chmempools.h"
 323              		.file 30 "../../modules/ChibiOS/os/oslib/include/chfactory.h"
 324              		.section	.debug_info,"",%progbits
 325              	.Ldebug_info0:
 326 0000 CD180000 		.4byte	0x18cd
 327 0004 0400     		.2byte	0x4
 328 0006 00000000 		.4byte	.Ldebug_abbrev0
 329 000a 04       		.byte	0x4
 330 000b 01       		.uleb128 0x1
 331 000c A8030000 		.4byte	.LASF326
 332 0010 0C       		.byte	0xc
 333 0011 15080000 		.4byte	.LASF327
 334 0015 EB090000 		.4byte	.LASF328
 335 0019 18000000 		.4byte	.Ldebug_ranges0+0x18
 336 001d 00000000 		.4byte	0
 337 0021 00000000 		.4byte	.Ldebug_line0
 338 0025 02       		.uleb128 0x2
 339 0026 01       		.byte	0x1
 340 0027 06       		.byte	0x6
 341 0028 86020000 		.4byte	.LASF0
 342 002c 03       		.uleb128 0x3
ARM GAS  /tmp/cc5kpRv7.s 			page 7


 343 002d 7E010000 		.4byte	.LASF3
 344 0031 03       		.byte	0x3
 345 0032 2B       		.byte	0x2b
 346 0033 37000000 		.4byte	0x37
 347 0037 02       		.uleb128 0x2
 348 0038 01       		.byte	0x1
 349 0039 08       		.byte	0x8
 350 003a EC020000 		.4byte	.LASF1
 351 003e 02       		.uleb128 0x2
 352 003f 02       		.byte	0x2
 353 0040 05       		.byte	0x5
 354 0041 790B0000 		.4byte	.LASF2
 355 0045 03       		.uleb128 0x3
 356 0046 86030000 		.4byte	.LASF4
 357 004a 03       		.byte	0x3
 358 004b 39       		.byte	0x39
 359 004c 50000000 		.4byte	0x50
 360 0050 02       		.uleb128 0x2
 361 0051 02       		.byte	0x2
 362 0052 07       		.byte	0x7
 363 0053 C70C0000 		.4byte	.LASF5
 364 0057 03       		.uleb128 0x3
 365 0058 200D0000 		.4byte	.LASF6
 366 005c 03       		.byte	0x3
 367 005d 4D       		.byte	0x4d
 368 005e 62000000 		.4byte	0x62
 369 0062 02       		.uleb128 0x2
 370 0063 04       		.byte	0x4
 371 0064 05       		.byte	0x5
 372 0065 C9010000 		.4byte	.LASF7
 373 0069 03       		.uleb128 0x3
 374 006a 1D070000 		.4byte	.LASF8
 375 006e 03       		.byte	0x3
 376 006f 4F       		.byte	0x4f
 377 0070 74000000 		.4byte	0x74
 378 0074 02       		.uleb128 0x2
 379 0075 04       		.byte	0x4
 380 0076 07       		.byte	0x7
 381 0077 BB050000 		.4byte	.LASF9
 382 007b 02       		.uleb128 0x2
 383 007c 08       		.byte	0x8
 384 007d 05       		.byte	0x5
 385 007e 3B070000 		.4byte	.LASF10
 386 0082 03       		.uleb128 0x3
 387 0083 9B050000 		.4byte	.LASF11
 388 0087 03       		.byte	0x3
 389 0088 69       		.byte	0x69
 390 0089 8D000000 		.4byte	0x8d
 391 008d 02       		.uleb128 0x2
 392 008e 08       		.byte	0x8
 393 008f 07       		.byte	0x7
 394 0090 D4090000 		.4byte	.LASF12
 395 0094 04       		.uleb128 0x4
 396 0095 04       		.byte	0x4
 397 0096 05       		.byte	0x5
 398 0097 696E7400 		.ascii	"int\000"
 399 009b 02       		.uleb128 0x2
ARM GAS  /tmp/cc5kpRv7.s 			page 8


 400 009c 04       		.byte	0x4
 401 009d 07       		.byte	0x7
 402 009e DC070000 		.4byte	.LASF13
 403 00a2 03       		.uleb128 0x3
 404 00a3 14000000 		.4byte	.LASF14
 405 00a7 04       		.byte	0x4
 406 00a8 D8       		.byte	0xd8
 407 00a9 9B000000 		.4byte	0x9b
 408 00ad 02       		.uleb128 0x2
 409 00ae 08       		.byte	0x8
 410 00af 04       		.byte	0x4
 411 00b0 26090000 		.4byte	.LASF15
 412 00b4 03       		.uleb128 0x3
 413 00b5 290C0000 		.4byte	.LASF16
 414 00b9 05       		.byte	0x5
 415 00ba 22       		.byte	0x22
 416 00bb BF000000 		.4byte	0xbf
 417 00bf 05       		.uleb128 0x5
 418 00c0 04       		.byte	0x4
 419 00c1 C5000000 		.4byte	0xc5
 420 00c5 06       		.uleb128 0x6
 421 00c6 5B050000 		.4byte	.LASF157
 422 00ca 03       		.uleb128 0x3
 423 00cb DD060000 		.4byte	.LASF17
 424 00cf 06       		.byte	0x6
 425 00d0 1C       		.byte	0x1c
 426 00d1 62000000 		.4byte	0x62
 427 00d5 03       		.uleb128 0x3
 428 00d6 99020000 		.4byte	.LASF18
 429 00da 06       		.byte	0x6
 430 00db 20       		.byte	0x20
 431 00dc 62000000 		.4byte	0x62
 432 00e0 03       		.uleb128 0x3
 433 00e1 AF0C0000 		.4byte	.LASF19
 434 00e5 06       		.byte	0x6
 435 00e6 2C       		.byte	0x2c
 436 00e7 62000000 		.4byte	0x62
 437 00eb 03       		.uleb128 0x3
 438 00ec 62090000 		.4byte	.LASF20
 439 00f0 06       		.byte	0x6
 440 00f1 32       		.byte	0x32
 441 00f2 94000000 		.4byte	0x94
 442 00f6 03       		.uleb128 0x3
 443 00f7 88010000 		.4byte	.LASF21
 444 00fb 06       		.byte	0x6
 445 00fc 36       		.byte	0x36
 446 00fd 3E000000 		.4byte	0x3e
 447 0101 03       		.uleb128 0x3
 448 0102 410C0000 		.4byte	.LASF22
 449 0106 06       		.byte	0x6
 450 0107 3A       		.byte	0x3a
 451 0108 50000000 		.4byte	0x50
 452 010c 03       		.uleb128 0x3
 453 010d F0000000 		.4byte	.LASF23
 454 0111 06       		.byte	0x6
 455 0112 3D       		.byte	0x3d
 456 0113 50000000 		.4byte	0x50
ARM GAS  /tmp/cc5kpRv7.s 			page 9


 457 0117 03       		.uleb128 0x3
 458 0118 07070000 		.4byte	.LASF24
 459 011c 06       		.byte	0x6
 460 011d 49       		.byte	0x49
 461 011e 50000000 		.4byte	0x50
 462 0122 03       		.uleb128 0x3
 463 0123 9F030000 		.4byte	.LASF25
 464 0127 06       		.byte	0x6
 465 0128 58       		.byte	0x58
 466 0129 69000000 		.4byte	0x69
 467 012d 03       		.uleb128 0x3
 468 012e 200A0000 		.4byte	.LASF26
 469 0132 06       		.byte	0x6
 470 0133 64       		.byte	0x64
 471 0134 E0000000 		.4byte	0xe0
 472 0138 03       		.uleb128 0x3
 473 0139 8C090000 		.4byte	.LASF27
 474 013d 06       		.byte	0x6
 475 013e 72       		.byte	0x72
 476 013f 62000000 		.4byte	0x62
 477 0143 07       		.uleb128 0x7
 478 0144 F60A0000 		.4byte	.LASF28
 479 0148 04       		.byte	0x4
 480 0149 6501     		.2byte	0x165
 481 014b 9B000000 		.4byte	0x9b
 482 014f 08       		.uleb128 0x8
 483 0150 04       		.byte	0x4
 484 0151 06       		.byte	0x6
 485 0152 A6       		.byte	0xa6
 486 0153 6E010000 		.4byte	0x16e
 487 0157 09       		.uleb128 0x9
 488 0158 6F010000 		.4byte	.LASF29
 489 015c 06       		.byte	0x6
 490 015d A8       		.byte	0xa8
 491 015e 43010000 		.4byte	0x143
 492 0162 09       		.uleb128 0x9
 493 0163 94090000 		.4byte	.LASF30
 494 0167 06       		.byte	0x6
 495 0168 A9       		.byte	0xa9
 496 0169 6E010000 		.4byte	0x16e
 497 016d 00       		.byte	0
 498 016e 0A       		.uleb128 0xa
 499 016f 37000000 		.4byte	0x37
 500 0173 7E010000 		.4byte	0x17e
 501 0177 0B       		.uleb128 0xb
 502 0178 7E010000 		.4byte	0x17e
 503 017c 03       		.byte	0x3
 504 017d 00       		.byte	0
 505 017e 02       		.uleb128 0x2
 506 017f 04       		.byte	0x4
 507 0180 07       		.byte	0x7
 508 0181 24000000 		.4byte	.LASF31
 509 0185 0C       		.uleb128 0xc
 510 0186 08       		.byte	0x8
 511 0187 06       		.byte	0x6
 512 0188 A3       		.byte	0xa3
 513 0189 A6010000 		.4byte	0x1a6
ARM GAS  /tmp/cc5kpRv7.s 			page 10


 514 018d 0D       		.uleb128 0xd
 515 018e BF080000 		.4byte	.LASF32
 516 0192 06       		.byte	0x6
 517 0193 A5       		.byte	0xa5
 518 0194 94000000 		.4byte	0x94
 519 0198 00       		.byte	0
 520 0199 0D       		.uleb128 0xd
 521 019a 38000000 		.4byte	.LASF33
 522 019e 06       		.byte	0x6
 523 019f AA       		.byte	0xaa
 524 01a0 4F010000 		.4byte	0x14f
 525 01a4 04       		.byte	0x4
 526 01a5 00       		.byte	0
 527 01a6 03       		.uleb128 0x3
 528 01a7 D90A0000 		.4byte	.LASF34
 529 01ab 06       		.byte	0x6
 530 01ac AB       		.byte	0xab
 531 01ad 85010000 		.4byte	0x185
 532 01b1 03       		.uleb128 0x3
 533 01b2 C10A0000 		.4byte	.LASF35
 534 01b6 06       		.byte	0x6
 535 01b7 AF       		.byte	0xaf
 536 01b8 B4000000 		.4byte	0xb4
 537 01bc 0E       		.uleb128 0xe
 538 01bd 04       		.byte	0x4
 539 01be 03       		.uleb128 0x3
 540 01bf 460D0000 		.4byte	.LASF36
 541 01c3 06       		.byte	0x6
 542 01c4 CB       		.byte	0xcb
 543 01c5 50000000 		.4byte	0x50
 544 01c9 03       		.uleb128 0x3
 545 01ca A5020000 		.4byte	.LASF37
 546 01ce 07       		.byte	0x7
 547 01cf 18       		.byte	0x18
 548 01d0 2C000000 		.4byte	0x2c
 549 01d4 0F       		.uleb128 0xf
 550 01d5 C9010000 		.4byte	0x1c9
 551 01d9 03       		.uleb128 0x3
 552 01da 170A0000 		.4byte	.LASF38
 553 01de 07       		.byte	0x7
 554 01df 24       		.byte	0x24
 555 01e0 45000000 		.4byte	0x45
 556 01e4 03       		.uleb128 0x3
 557 01e5 9C000000 		.4byte	.LASF39
 558 01e9 07       		.byte	0x7
 559 01ea 2C       		.byte	0x2c
 560 01eb 57000000 		.4byte	0x57
 561 01ef 10       		.uleb128 0x10
 562 01f0 E4010000 		.4byte	0x1e4
 563 01f4 03       		.uleb128 0x3
 564 01f5 8E0C0000 		.4byte	.LASF40
 565 01f9 07       		.byte	0x7
 566 01fa 30       		.byte	0x30
 567 01fb 69000000 		.4byte	0x69
 568 01ff 03       		.uleb128 0x3
 569 0200 830B0000 		.4byte	.LASF41
 570 0204 07       		.byte	0x7
ARM GAS  /tmp/cc5kpRv7.s 			page 11


 571 0205 3C       		.byte	0x3c
 572 0206 82000000 		.4byte	0x82
 573 020a 03       		.uleb128 0x3
 574 020b 2F010000 		.4byte	.LASF42
 575 020f 08       		.byte	0x8
 576 0210 28       		.byte	0x28
 577 0211 62000000 		.4byte	0x62
 578 0215 03       		.uleb128 0x3
 579 0216 E9070000 		.4byte	.LASF43
 580 021a 09       		.byte	0x9
 581 021b 71       		.byte	0x71
 582 021c CA000000 		.4byte	0xca
 583 0220 03       		.uleb128 0x3
 584 0221 5D0C0000 		.4byte	.LASF44
 585 0225 09       		.byte	0x9
 586 0226 76       		.byte	0x76
 587 0227 D5000000 		.4byte	0xd5
 588 022b 03       		.uleb128 0x3
 589 022c F2070000 		.4byte	.LASF45
 590 0230 09       		.byte	0x9
 591 0231 8B       		.byte	0x8b
 592 0232 36020000 		.4byte	0x236
 593 0236 05       		.uleb128 0x5
 594 0237 04       		.byte	0x4
 595 0238 3C020000 		.4byte	0x23c
 596 023c 02       		.uleb128 0x2
 597 023d 01       		.byte	0x1
 598 023e 08       		.byte	0x8
 599 023f 6C030000 		.4byte	.LASF46
 600 0243 0F       		.uleb128 0xf
 601 0244 3C020000 		.4byte	0x23c
 602 0248 03       		.uleb128 0x3
 603 0249 A6050000 		.4byte	.LASF47
 604 024d 09       		.byte	0x9
 605 024e 9B       		.byte	0x9b
 606 024f 17010000 		.4byte	0x117
 607 0253 03       		.uleb128 0x3
 608 0254 D0080000 		.4byte	.LASF48
 609 0258 09       		.byte	0x9
 610 0259 AD       		.byte	0xad
 611 025a 2D010000 		.4byte	0x12d
 612 025e 03       		.uleb128 0x3
 613 025f E2000000 		.4byte	.LASF49
 614 0263 09       		.byte	0x9
 615 0264 B1       		.byte	0xb1
 616 0265 F6000000 		.4byte	0xf6
 617 0269 03       		.uleb128 0x3
 618 026a 90010000 		.4byte	.LASF50
 619 026e 09       		.byte	0x9
 620 026f B5       		.byte	0xb5
 621 0270 01010000 		.4byte	0x101
 622 0274 03       		.uleb128 0x3
 623 0275 770D0000 		.4byte	.LASF51
 624 0279 09       		.byte	0x9
 625 027a B9       		.byte	0xb9
 626 027b 0C010000 		.4byte	0x10c
 627 027f 03       		.uleb128 0x3
ARM GAS  /tmp/cc5kpRv7.s 			page 12


 628 0280 49080000 		.4byte	.LASF52
 629 0284 09       		.byte	0x9
 630 0285 BE       		.byte	0xbe
 631 0286 EB000000 		.4byte	0xeb
 632 028a 03       		.uleb128 0x3
 633 028b E4080000 		.4byte	.LASF53
 634 028f 09       		.byte	0x9
 635 0290 CD       		.byte	0xcd
 636 0291 22010000 		.4byte	0x122
 637 0295 03       		.uleb128 0x3
 638 0296 E8000000 		.4byte	.LASF54
 639 029a 09       		.byte	0x9
 640 029b D2       		.byte	0xd2
 641 029c BE010000 		.4byte	0x1be
 642 02a0 11       		.uleb128 0x11
 643 02a1 E4020000 		.4byte	.LASF55
 644 02a5 0A       		.byte	0xa
 645 02a6 10       		.byte	0x10
 646 02a7 AB020000 		.4byte	0x2ab
 647 02ab 05       		.uleb128 0x5
 648 02ac 04       		.byte	0x4
 649 02ad 36020000 		.4byte	0x236
 650 02b1 11       		.uleb128 0x11
 651 02b2 9F0C0000 		.4byte	.LASF56
 652 02b6 0A       		.byte	0xa
 653 02b7 E2       		.byte	0xe2
 654 02b8 36020000 		.4byte	0x236
 655 02bc 11       		.uleb128 0x11
 656 02bd 94050000 		.4byte	.LASF57
 657 02c1 0A       		.byte	0xa
 658 02c2 E3       		.byte	0xe3
 659 02c3 94000000 		.4byte	0x94
 660 02c7 11       		.uleb128 0x11
 661 02c8 7F0A0000 		.4byte	.LASF58
 662 02cc 0A       		.byte	0xa
 663 02cd E3       		.byte	0xe3
 664 02ce 94000000 		.4byte	0x94
 665 02d2 11       		.uleb128 0x11
 666 02d3 C8090000 		.4byte	.LASF59
 667 02d7 0A       		.byte	0xa
 668 02d8 E3       		.byte	0xe3
 669 02d9 94000000 		.4byte	0x94
 670 02dd 11       		.uleb128 0x11
 671 02de E3040000 		.4byte	.LASF60
 672 02e2 0A       		.byte	0xa
 673 02e3 E5       		.byte	0xe5
 674 02e4 94000000 		.4byte	0x94
 675 02e8 03       		.uleb128 0x3
 676 02e9 800C0000 		.4byte	.LASF61
 677 02ed 0B       		.byte	0xb
 678 02ee 16       		.byte	0x16
 679 02ef 74000000 		.4byte	0x74
 680 02f3 12       		.uleb128 0x12
 681 02f4 BD060000 		.4byte	.LASF66
 682 02f8 18       		.byte	0x18
 683 02f9 0B       		.byte	0xb
 684 02fa 2F       		.byte	0x2f
ARM GAS  /tmp/cc5kpRv7.s 			page 13


 685 02fb 46030000 		.4byte	0x346
 686 02ff 0D       		.uleb128 0xd
 687 0300 0B0B0000 		.4byte	.LASF62
 688 0304 0B       		.byte	0xb
 689 0305 31       		.byte	0x31
 690 0306 46030000 		.4byte	0x346
 691 030a 00       		.byte	0
 692 030b 13       		.uleb128 0x13
 693 030c 5F6B00   		.ascii	"_k\000"
 694 030f 0B       		.byte	0xb
 695 0310 32       		.byte	0x32
 696 0311 94000000 		.4byte	0x94
 697 0315 04       		.byte	0x4
 698 0316 0D       		.uleb128 0xd
 699 0317 D5060000 		.4byte	.LASF63
 700 031b 0B       		.byte	0xb
 701 031c 32       		.byte	0x32
 702 031d 94000000 		.4byte	0x94
 703 0321 08       		.byte	0x8
 704 0322 0D       		.uleb128 0xd
 705 0323 BA070000 		.4byte	.LASF64
 706 0327 0B       		.byte	0xb
 707 0328 32       		.byte	0x32
 708 0329 94000000 		.4byte	0x94
 709 032d 0C       		.byte	0xc
 710 032e 0D       		.uleb128 0xd
 711 032f 48050000 		.4byte	.LASF65
 712 0333 0B       		.byte	0xb
 713 0334 32       		.byte	0x32
 714 0335 94000000 		.4byte	0x94
 715 0339 10       		.byte	0x10
 716 033a 13       		.uleb128 0x13
 717 033b 5F7800   		.ascii	"_x\000"
 718 033e 0B       		.byte	0xb
 719 033f 33       		.byte	0x33
 720 0340 4C030000 		.4byte	0x34c
 721 0344 14       		.byte	0x14
 722 0345 00       		.byte	0
 723 0346 05       		.uleb128 0x5
 724 0347 04       		.byte	0x4
 725 0348 F3020000 		.4byte	0x2f3
 726 034c 0A       		.uleb128 0xa
 727 034d E8020000 		.4byte	0x2e8
 728 0351 5C030000 		.4byte	0x35c
 729 0355 0B       		.uleb128 0xb
 730 0356 7E010000 		.4byte	0x17e
 731 035a 00       		.byte	0
 732 035b 00       		.byte	0
 733 035c 12       		.uleb128 0x12
 734 035d 00010000 		.4byte	.LASF67
 735 0361 24       		.byte	0x24
 736 0362 0B       		.byte	0xb
 737 0363 37       		.byte	0x37
 738 0364 D5030000 		.4byte	0x3d5
 739 0368 0D       		.uleb128 0xd
 740 0369 1C010000 		.4byte	.LASF68
 741 036d 0B       		.byte	0xb
ARM GAS  /tmp/cc5kpRv7.s 			page 14


 742 036e 39       		.byte	0x39
 743 036f 94000000 		.4byte	0x94
 744 0373 00       		.byte	0
 745 0374 0D       		.uleb128 0xd
 746 0375 7D0D0000 		.4byte	.LASF69
 747 0379 0B       		.byte	0xb
 748 037a 3A       		.byte	0x3a
 749 037b 94000000 		.4byte	0x94
 750 037f 04       		.byte	0x4
 751 0380 0D       		.uleb128 0xd
 752 0381 DA0C0000 		.4byte	.LASF70
 753 0385 0B       		.byte	0xb
 754 0386 3B       		.byte	0x3b
 755 0387 94000000 		.4byte	0x94
 756 038b 08       		.byte	0x8
 757 038c 0D       		.uleb128 0xd
 758 038d 4F080000 		.4byte	.LASF71
 759 0391 0B       		.byte	0xb
 760 0392 3C       		.byte	0x3c
 761 0393 94000000 		.4byte	0x94
 762 0397 0C       		.byte	0xc
 763 0398 0D       		.uleb128 0xd
 764 0399 4A020000 		.4byte	.LASF72
 765 039d 0B       		.byte	0xb
 766 039e 3D       		.byte	0x3d
 767 039f 94000000 		.4byte	0x94
 768 03a3 10       		.byte	0x10
 769 03a4 0D       		.uleb128 0xd
 770 03a5 D40B0000 		.4byte	.LASF73
 771 03a9 0B       		.byte	0xb
 772 03aa 3E       		.byte	0x3e
 773 03ab 94000000 		.4byte	0x94
 774 03af 14       		.byte	0x14
 775 03b0 0D       		.uleb128 0xd
 776 03b1 0A090000 		.4byte	.LASF74
 777 03b5 0B       		.byte	0xb
 778 03b6 3F       		.byte	0x3f
 779 03b7 94000000 		.4byte	0x94
 780 03bb 18       		.byte	0x18
 781 03bc 0D       		.uleb128 0xd
 782 03bd 32090000 		.4byte	.LASF75
 783 03c1 0B       		.byte	0xb
 784 03c2 40       		.byte	0x40
 785 03c3 94000000 		.4byte	0x94
 786 03c7 1C       		.byte	0x1c
 787 03c8 0D       		.uleb128 0xd
 788 03c9 670D0000 		.4byte	.LASF76
 789 03cd 0B       		.byte	0xb
 790 03ce 41       		.byte	0x41
 791 03cf 94000000 		.4byte	0x94
 792 03d3 20       		.byte	0x20
 793 03d4 00       		.byte	0
 794 03d5 14       		.uleb128 0x14
 795 03d6 9C010000 		.4byte	.LASF77
 796 03da 0801     		.2byte	0x108
 797 03dc 0B       		.byte	0xb
 798 03dd 4A       		.byte	0x4a
ARM GAS  /tmp/cc5kpRv7.s 			page 15


 799 03de 15040000 		.4byte	0x415
 800 03e2 0D       		.uleb128 0xd
 801 03e3 500D0000 		.4byte	.LASF78
 802 03e7 0B       		.byte	0xb
 803 03e8 4B       		.byte	0x4b
 804 03e9 15040000 		.4byte	0x415
 805 03ed 00       		.byte	0
 806 03ee 0D       		.uleb128 0xd
 807 03ef 310A0000 		.4byte	.LASF79
 808 03f3 0B       		.byte	0xb
 809 03f4 4C       		.byte	0x4c
 810 03f5 15040000 		.4byte	0x415
 811 03f9 80       		.byte	0x80
 812 03fa 15       		.uleb128 0x15
 813 03fb A30B0000 		.4byte	.LASF80
 814 03ff 0B       		.byte	0xb
 815 0400 4E       		.byte	0x4e
 816 0401 E8020000 		.4byte	0x2e8
 817 0405 0001     		.2byte	0x100
 818 0407 15       		.uleb128 0x15
 819 0408 210C0000 		.4byte	.LASF81
 820 040c 0B       		.byte	0xb
 821 040d 51       		.byte	0x51
 822 040e E8020000 		.4byte	0x2e8
 823 0412 0401     		.2byte	0x104
 824 0414 00       		.byte	0
 825 0415 0A       		.uleb128 0xa
 826 0416 BC010000 		.4byte	0x1bc
 827 041a 25040000 		.4byte	0x425
 828 041e 0B       		.uleb128 0xb
 829 041f 7E010000 		.4byte	0x17e
 830 0423 1F       		.byte	0x1f
 831 0424 00       		.byte	0
 832 0425 14       		.uleb128 0x14
 833 0426 B7080000 		.4byte	.LASF82
 834 042a 9001     		.2byte	0x190
 835 042c 0B       		.byte	0xb
 836 042d 5D       		.byte	0x5d
 837 042e 63040000 		.4byte	0x463
 838 0432 0D       		.uleb128 0xd
 839 0433 0B0B0000 		.4byte	.LASF62
 840 0437 0B       		.byte	0xb
 841 0438 5E       		.byte	0x5e
 842 0439 63040000 		.4byte	0x463
 843 043d 00       		.byte	0
 844 043e 0D       		.uleb128 0xd
 845 043f FF0B0000 		.4byte	.LASF83
 846 0443 0B       		.byte	0xb
 847 0444 5F       		.byte	0x5f
 848 0445 94000000 		.4byte	0x94
 849 0449 04       		.byte	0x4
 850 044a 0D       		.uleb128 0xd
 851 044b 71030000 		.4byte	.LASF84
 852 044f 0B       		.byte	0xb
 853 0450 61       		.byte	0x61
 854 0451 69040000 		.4byte	0x469
 855 0455 08       		.byte	0x8
ARM GAS  /tmp/cc5kpRv7.s 			page 16


 856 0456 0D       		.uleb128 0xd
 857 0457 9C010000 		.4byte	.LASF77
 858 045b 0B       		.byte	0xb
 859 045c 62       		.byte	0x62
 860 045d D5030000 		.4byte	0x3d5
 861 0461 88       		.byte	0x88
 862 0462 00       		.byte	0
 863 0463 05       		.uleb128 0x5
 864 0464 04       		.byte	0x4
 865 0465 25040000 		.4byte	0x425
 866 0469 0A       		.uleb128 0xa
 867 046a 79040000 		.4byte	0x479
 868 046e 79040000 		.4byte	0x479
 869 0472 0B       		.uleb128 0xb
 870 0473 7E010000 		.4byte	0x17e
 871 0477 1F       		.byte	0x1f
 872 0478 00       		.byte	0
 873 0479 05       		.uleb128 0x5
 874 047a 04       		.byte	0x4
 875 047b 7F040000 		.4byte	0x47f
 876 047f 16       		.uleb128 0x16
 877 0480 12       		.uleb128 0x12
 878 0481 0C0C0000 		.4byte	.LASF85
 879 0485 08       		.byte	0x8
 880 0486 0B       		.byte	0xb
 881 0487 75       		.byte	0x75
 882 0488 A5040000 		.4byte	0x4a5
 883 048c 0D       		.uleb128 0xd
 884 048d 730A0000 		.4byte	.LASF86
 885 0491 0B       		.byte	0xb
 886 0492 76       		.byte	0x76
 887 0493 A5040000 		.4byte	0x4a5
 888 0497 00       		.byte	0
 889 0498 0D       		.uleb128 0xd
 890 0499 F6010000 		.4byte	.LASF87
 891 049d 0B       		.byte	0xb
 892 049e 77       		.byte	0x77
 893 049f 94000000 		.4byte	0x94
 894 04a3 04       		.byte	0x4
 895 04a4 00       		.byte	0
 896 04a5 05       		.uleb128 0x5
 897 04a6 04       		.byte	0x4
 898 04a7 37000000 		.4byte	0x37
 899 04ab 12       		.uleb128 0x12
 900 04ac D8050000 		.4byte	.LASF88
 901 04b0 68       		.byte	0x68
 902 04b1 0B       		.byte	0xb
 903 04b2 B5       		.byte	0xb5
 904 04b3 D5050000 		.4byte	0x5d5
 905 04b7 13       		.uleb128 0x13
 906 04b8 5F7000   		.ascii	"_p\000"
 907 04bb 0B       		.byte	0xb
 908 04bc B6       		.byte	0xb6
 909 04bd A5040000 		.4byte	0x4a5
 910 04c1 00       		.byte	0
 911 04c2 13       		.uleb128 0x13
 912 04c3 5F7200   		.ascii	"_r\000"
ARM GAS  /tmp/cc5kpRv7.s 			page 17


 913 04c6 0B       		.byte	0xb
 914 04c7 B7       		.byte	0xb7
 915 04c8 94000000 		.4byte	0x94
 916 04cc 04       		.byte	0x4
 917 04cd 13       		.uleb128 0x13
 918 04ce 5F7700   		.ascii	"_w\000"
 919 04d1 0B       		.byte	0xb
 920 04d2 B8       		.byte	0xb8
 921 04d3 94000000 		.4byte	0x94
 922 04d7 08       		.byte	0x8
 923 04d8 0D       		.uleb128 0xd
 924 04d9 96080000 		.4byte	.LASF89
 925 04dd 0B       		.byte	0xb
 926 04de B9       		.byte	0xb9
 927 04df 3E000000 		.4byte	0x3e
 928 04e3 0C       		.byte	0xc
 929 04e4 0D       		.uleb128 0xd
 930 04e5 96010000 		.4byte	.LASF90
 931 04e9 0B       		.byte	0xb
 932 04ea BA       		.byte	0xba
 933 04eb 3E000000 		.4byte	0x3e
 934 04ef 0E       		.byte	0xe
 935 04f0 13       		.uleb128 0x13
 936 04f1 5F626600 		.ascii	"_bf\000"
 937 04f5 0B       		.byte	0xb
 938 04f6 BB       		.byte	0xbb
 939 04f7 80040000 		.4byte	0x480
 940 04fb 10       		.byte	0x10
 941 04fc 0D       		.uleb128 0xd
 942 04fd EA0B0000 		.4byte	.LASF91
 943 0501 0B       		.byte	0xb
 944 0502 BC       		.byte	0xbc
 945 0503 94000000 		.4byte	0x94
 946 0507 18       		.byte	0x18
 947 0508 0D       		.uleb128 0xd
 948 0509 39050000 		.4byte	.LASF92
 949 050d 0B       		.byte	0xb
 950 050e C3       		.byte	0xc3
 951 050f BC010000 		.4byte	0x1bc
 952 0513 1C       		.byte	0x1c
 953 0514 0D       		.uleb128 0xd
 954 0515 61000000 		.4byte	.LASF93
 955 0519 0B       		.byte	0xb
 956 051a C5       		.byte	0xc5
 957 051b 30070000 		.4byte	0x730
 958 051f 20       		.byte	0x20
 959 0520 0D       		.uleb128 0xd
 960 0521 95000000 		.4byte	.LASF94
 961 0525 0B       		.byte	0xb
 962 0526 C7       		.byte	0xc7
 963 0527 64070000 		.4byte	0x764
 964 052b 24       		.byte	0x24
 965 052c 0D       		.uleb128 0xd
 966 052d 7F090000 		.4byte	.LASF95
 967 0531 0B       		.byte	0xb
 968 0532 CA       		.byte	0xca
 969 0533 88070000 		.4byte	0x788
ARM GAS  /tmp/cc5kpRv7.s 			page 18


 970 0537 28       		.byte	0x28
 971 0538 0D       		.uleb128 0xd
 972 0539 76030000 		.4byte	.LASF96
 973 053d 0B       		.byte	0xb
 974 053e CB       		.byte	0xcb
 975 053f A2070000 		.4byte	0x7a2
 976 0543 2C       		.byte	0x2c
 977 0544 13       		.uleb128 0x13
 978 0545 5F756200 		.ascii	"_ub\000"
 979 0549 0B       		.byte	0xb
 980 054a CE       		.byte	0xce
 981 054b 80040000 		.4byte	0x480
 982 054f 30       		.byte	0x30
 983 0550 13       		.uleb128 0x13
 984 0551 5F757000 		.ascii	"_up\000"
 985 0555 0B       		.byte	0xb
 986 0556 CF       		.byte	0xcf
 987 0557 A5040000 		.4byte	0x4a5
 988 055b 38       		.byte	0x38
 989 055c 13       		.uleb128 0x13
 990 055d 5F757200 		.ascii	"_ur\000"
 991 0561 0B       		.byte	0xb
 992 0562 D0       		.byte	0xd0
 993 0563 94000000 		.4byte	0x94
 994 0567 3C       		.byte	0x3c
 995 0568 0D       		.uleb128 0xd
 996 0569 5E080000 		.4byte	.LASF97
 997 056d 0B       		.byte	0xb
 998 056e D3       		.byte	0xd3
 999 056f A8070000 		.4byte	0x7a8
 1000 0573 40       		.byte	0x40
 1001 0574 0D       		.uleb128 0xd
 1002 0575 16010000 		.4byte	.LASF98
 1003 0579 0B       		.byte	0xb
 1004 057a D4       		.byte	0xd4
 1005 057b B8070000 		.4byte	0x7b8
 1006 057f 43       		.byte	0x43
 1007 0580 13       		.uleb128 0x13
 1008 0581 5F6C6200 		.ascii	"_lb\000"
 1009 0585 0B       		.byte	0xb
 1010 0586 D7       		.byte	0xd7
 1011 0587 80040000 		.4byte	0x480
 1012 058b 44       		.byte	0x44
 1013 058c 0D       		.uleb128 0xd
 1014 058d 6A0A0000 		.4byte	.LASF99
 1015 0591 0B       		.byte	0xb
 1016 0592 DA       		.byte	0xda
 1017 0593 94000000 		.4byte	0x94
 1018 0597 4C       		.byte	0x4c
 1019 0598 0D       		.uleb128 0xd
 1020 0599 75050000 		.4byte	.LASF100
 1021 059d 0B       		.byte	0xb
 1022 059e DB       		.byte	0xdb
 1023 059f E0000000 		.4byte	0xe0
 1024 05a3 50       		.byte	0x50
 1025 05a4 0D       		.uleb128 0xd
 1026 05a5 110B0000 		.4byte	.LASF101
ARM GAS  /tmp/cc5kpRv7.s 			page 19


 1027 05a9 0B       		.byte	0xb
 1028 05aa DE       		.byte	0xde
 1029 05ab F3050000 		.4byte	0x5f3
 1030 05af 54       		.byte	0x54
 1031 05b0 0D       		.uleb128 0xd
 1032 05b1 4B010000 		.4byte	.LASF102
 1033 05b5 0B       		.byte	0xb
 1034 05b6 E2       		.byte	0xe2
 1035 05b7 B1010000 		.4byte	0x1b1
 1036 05bb 58       		.byte	0x58
 1037 05bc 0D       		.uleb128 0xd
 1038 05bd 7A080000 		.4byte	.LASF103
 1039 05c1 0B       		.byte	0xb
 1040 05c2 E4       		.byte	0xe4
 1041 05c3 A6010000 		.4byte	0x1a6
 1042 05c7 5C       		.byte	0x5c
 1043 05c8 0D       		.uleb128 0xd
 1044 05c9 EB050000 		.4byte	.LASF104
 1045 05cd 0B       		.byte	0xb
 1046 05ce E5       		.byte	0xe5
 1047 05cf 94000000 		.4byte	0x94
 1048 05d3 64       		.byte	0x64
 1049 05d4 00       		.byte	0
 1050 05d5 17       		.uleb128 0x17
 1051 05d6 94000000 		.4byte	0x94
 1052 05da F3050000 		.4byte	0x5f3
 1053 05de 18       		.uleb128 0x18
 1054 05df F3050000 		.4byte	0x5f3
 1055 05e3 18       		.uleb128 0x18
 1056 05e4 BC010000 		.4byte	0x1bc
 1057 05e8 18       		.uleb128 0x18
 1058 05e9 36020000 		.4byte	0x236
 1059 05ed 18       		.uleb128 0x18
 1060 05ee 94000000 		.4byte	0x94
 1061 05f2 00       		.byte	0
 1062 05f3 05       		.uleb128 0x5
 1063 05f4 04       		.byte	0x4
 1064 05f5 FE050000 		.4byte	0x5fe
 1065 05f9 0F       		.uleb128 0xf
 1066 05fa F3050000 		.4byte	0x5f3
 1067 05fe 19       		.uleb128 0x19
 1068 05ff 36030000 		.4byte	.LASF105
 1069 0603 2804     		.2byte	0x428
 1070 0605 0B       		.byte	0xb
 1071 0606 3902     		.2byte	0x239
 1072 0608 30070000 		.4byte	0x730
 1073 060c 1A       		.uleb128 0x1a
 1074 060d 4A060000 		.4byte	.LASF106
 1075 0611 0B       		.byte	0xb
 1076 0612 3B02     		.2byte	0x23b
 1077 0614 94000000 		.4byte	0x94
 1078 0618 00       		.byte	0
 1079 0619 1A       		.uleb128 0x1a
 1080 061a 98030000 		.4byte	.LASF107
 1081 061e 0B       		.byte	0xb
 1082 061f 4002     		.2byte	0x240
 1083 0621 0F080000 		.4byte	0x80f
ARM GAS  /tmp/cc5kpRv7.s 			page 20


 1084 0625 04       		.byte	0x4
 1085 0626 1A       		.uleb128 0x1a
 1086 0627 5C0A0000 		.4byte	.LASF108
 1087 062b 0B       		.byte	0xb
 1088 062c 4002     		.2byte	0x240
 1089 062e 0F080000 		.4byte	0x80f
 1090 0632 08       		.byte	0x8
 1091 0633 1A       		.uleb128 0x1a
 1092 0634 64080000 		.4byte	.LASF109
 1093 0638 0B       		.byte	0xb
 1094 0639 4002     		.2byte	0x240
 1095 063b 0F080000 		.4byte	0x80f
 1096 063f 0C       		.byte	0xc
 1097 0640 1A       		.uleb128 0x1a
 1098 0641 FA0B0000 		.4byte	.LASF110
 1099 0645 0B       		.byte	0xb
 1100 0646 4202     		.2byte	0x242
 1101 0648 94000000 		.4byte	0x94
 1102 064c 10       		.byte	0x10
 1103 064d 1A       		.uleb128 0x1a
 1104 064e 28070000 		.4byte	.LASF111
 1105 0652 0B       		.byte	0xb
 1106 0653 4302     		.2byte	0x243
 1107 0655 F1090000 		.4byte	0x9f1
 1108 0659 14       		.byte	0x14
 1109 065a 1A       		.uleb128 0x1a
 1110 065b 1D030000 		.4byte	.LASF112
 1111 065f 0B       		.byte	0xb
 1112 0660 4602     		.2byte	0x246
 1113 0662 94000000 		.4byte	0x94
 1114 0666 30       		.byte	0x30
 1115 0667 1A       		.uleb128 0x1a
 1116 0668 780C0000 		.4byte	.LASF113
 1117 066c 0B       		.byte	0xb
 1118 066d 4702     		.2byte	0x247
 1119 066f 060A0000 		.4byte	0xa06
 1120 0673 34       		.byte	0x34
 1121 0674 1A       		.uleb128 0x1a
 1122 0675 E0050000 		.4byte	.LASF114
 1123 0679 0B       		.byte	0xb
 1124 067a 4902     		.2byte	0x249
 1125 067c 94000000 		.4byte	0x94
 1126 0680 38       		.byte	0x38
 1127 0681 1A       		.uleb128 0x1a
 1128 0682 82000000 		.4byte	.LASF115
 1129 0686 0B       		.byte	0xb
 1130 0687 4B02     		.2byte	0x24b
 1131 0689 170A0000 		.4byte	0xa17
 1132 068d 3C       		.byte	0x3c
 1133 068e 1A       		.uleb128 0x1a
 1134 068f 970C0000 		.4byte	.LASF116
 1135 0693 0B       		.byte	0xb
 1136 0694 4E02     		.2byte	0x24e
 1137 0696 46030000 		.4byte	0x346
 1138 069a 40       		.byte	0x40
 1139 069b 1A       		.uleb128 0x1a
 1140 069c EC010000 		.4byte	.LASF117
ARM GAS  /tmp/cc5kpRv7.s 			page 21


 1141 06a0 0B       		.byte	0xb
 1142 06a1 4F02     		.2byte	0x24f
 1143 06a3 94000000 		.4byte	0x94
 1144 06a7 44       		.byte	0x44
 1145 06a8 1A       		.uleb128 0x1a
 1146 06a9 B6050000 		.4byte	.LASF118
 1147 06ad 0B       		.byte	0xb
 1148 06ae 5002     		.2byte	0x250
 1149 06b0 46030000 		.4byte	0x346
 1150 06b4 48       		.byte	0x48
 1151 06b5 1A       		.uleb128 0x1a
 1152 06b6 91070000 		.4byte	.LASF119
 1153 06ba 0B       		.byte	0xb
 1154 06bb 5102     		.2byte	0x251
 1155 06bd 1D0A0000 		.4byte	0xa1d
 1156 06c1 4C       		.byte	0x4c
 1157 06c2 1A       		.uleb128 0x1a
 1158 06c3 B1000000 		.4byte	.LASF120
 1159 06c7 0B       		.byte	0xb
 1160 06c8 5402     		.2byte	0x254
 1161 06ca 94000000 		.4byte	0x94
 1162 06ce 50       		.byte	0x50
 1163 06cf 1A       		.uleb128 0x1a
 1164 06d0 7D050000 		.4byte	.LASF121
 1165 06d4 0B       		.byte	0xb
 1166 06d5 5502     		.2byte	0x255
 1167 06d7 36020000 		.4byte	0x236
 1168 06db 54       		.byte	0x54
 1169 06dc 1A       		.uleb128 0x1a
 1170 06dd 59080000 		.4byte	.LASF122
 1171 06e1 0B       		.byte	0xb
 1172 06e2 7802     		.2byte	0x278
 1173 06e4 CF090000 		.4byte	0x9cf
 1174 06e8 58       		.byte	0x58
 1175 06e9 1B       		.uleb128 0x1b
 1176 06ea B7080000 		.4byte	.LASF82
 1177 06ee 0B       		.byte	0xb
 1178 06ef 7C02     		.2byte	0x27c
 1179 06f1 63040000 		.4byte	0x463
 1180 06f5 4801     		.2byte	0x148
 1181 06f7 1B       		.uleb128 0x1b
 1182 06f8 E8060000 		.4byte	.LASF123
 1183 06fc 0B       		.byte	0xb
 1184 06fd 7D02     		.2byte	0x27d
 1185 06ff 25040000 		.4byte	0x425
 1186 0703 4C01     		.2byte	0x14c
 1187 0705 1B       		.uleb128 0x1b
 1188 0706 62050000 		.4byte	.LASF124
 1189 070a 0B       		.byte	0xb
 1190 070b 8102     		.2byte	0x281
 1191 070d 2E0A0000 		.4byte	0xa2e
 1192 0711 DC02     		.2byte	0x2dc
 1193 0713 1B       		.uleb128 0x1b
 1194 0714 71070000 		.4byte	.LASF125
 1195 0718 0B       		.byte	0xb
 1196 0719 8602     		.2byte	0x286
 1197 071b D4070000 		.4byte	0x7d4
ARM GAS  /tmp/cc5kpRv7.s 			page 22


 1198 071f E002     		.2byte	0x2e0
 1199 0721 1B       		.uleb128 0x1b
 1200 0722 56000000 		.4byte	.LASF126
 1201 0726 0B       		.byte	0xb
 1202 0727 8702     		.2byte	0x287
 1203 0729 3A0A0000 		.4byte	0xa3a
 1204 072d EC02     		.2byte	0x2ec
 1205 072f 00       		.byte	0
 1206 0730 05       		.uleb128 0x5
 1207 0731 04       		.byte	0x4
 1208 0732 D5050000 		.4byte	0x5d5
 1209 0736 17       		.uleb128 0x17
 1210 0737 94000000 		.4byte	0x94
 1211 073b 54070000 		.4byte	0x754
 1212 073f 18       		.uleb128 0x18
 1213 0740 F3050000 		.4byte	0x5f3
 1214 0744 18       		.uleb128 0x18
 1215 0745 BC010000 		.4byte	0x1bc
 1216 0749 18       		.uleb128 0x18
 1217 074a 54070000 		.4byte	0x754
 1218 074e 18       		.uleb128 0x18
 1219 074f 94000000 		.4byte	0x94
 1220 0753 00       		.byte	0
 1221 0754 05       		.uleb128 0x5
 1222 0755 04       		.byte	0x4
 1223 0756 43020000 		.4byte	0x243
 1224 075a 0F       		.uleb128 0xf
 1225 075b 54070000 		.4byte	0x754
 1226 075f 10       		.uleb128 0x10
 1227 0760 54070000 		.4byte	0x754
 1228 0764 05       		.uleb128 0x5
 1229 0765 04       		.byte	0x4
 1230 0766 36070000 		.4byte	0x736
 1231 076a 17       		.uleb128 0x17
 1232 076b 38010000 		.4byte	0x138
 1233 076f 88070000 		.4byte	0x788
 1234 0773 18       		.uleb128 0x18
 1235 0774 F3050000 		.4byte	0x5f3
 1236 0778 18       		.uleb128 0x18
 1237 0779 BC010000 		.4byte	0x1bc
 1238 077d 18       		.uleb128 0x18
 1239 077e 38010000 		.4byte	0x138
 1240 0782 18       		.uleb128 0x18
 1241 0783 94000000 		.4byte	0x94
 1242 0787 00       		.byte	0
 1243 0788 05       		.uleb128 0x5
 1244 0789 04       		.byte	0x4
 1245 078a 6A070000 		.4byte	0x76a
 1246 078e 17       		.uleb128 0x17
 1247 078f 94000000 		.4byte	0x94
 1248 0793 A2070000 		.4byte	0x7a2
 1249 0797 18       		.uleb128 0x18
 1250 0798 F3050000 		.4byte	0x5f3
 1251 079c 18       		.uleb128 0x18
 1252 079d BC010000 		.4byte	0x1bc
 1253 07a1 00       		.byte	0
 1254 07a2 05       		.uleb128 0x5
ARM GAS  /tmp/cc5kpRv7.s 			page 23


 1255 07a3 04       		.byte	0x4
 1256 07a4 8E070000 		.4byte	0x78e
 1257 07a8 0A       		.uleb128 0xa
 1258 07a9 37000000 		.4byte	0x37
 1259 07ad B8070000 		.4byte	0x7b8
 1260 07b1 0B       		.uleb128 0xb
 1261 07b2 7E010000 		.4byte	0x17e
 1262 07b6 02       		.byte	0x2
 1263 07b7 00       		.byte	0
 1264 07b8 0A       		.uleb128 0xa
 1265 07b9 37000000 		.4byte	0x37
 1266 07bd C8070000 		.4byte	0x7c8
 1267 07c1 0B       		.uleb128 0xb
 1268 07c2 7E010000 		.4byte	0x17e
 1269 07c6 00       		.byte	0
 1270 07c7 00       		.byte	0
 1271 07c8 07       		.uleb128 0x7
 1272 07c9 D20A0000 		.4byte	.LASF127
 1273 07cd 0B       		.byte	0xb
 1274 07ce 1F01     		.2byte	0x11f
 1275 07d0 AB040000 		.4byte	0x4ab
 1276 07d4 1C       		.uleb128 0x1c
 1277 07d5 A7070000 		.4byte	.LASF128
 1278 07d9 0C       		.byte	0xc
 1279 07da 0B       		.byte	0xb
 1280 07db 2301     		.2byte	0x123
 1281 07dd 09080000 		.4byte	0x809
 1282 07e1 1A       		.uleb128 0x1a
 1283 07e2 0B0B0000 		.4byte	.LASF62
 1284 07e6 0B       		.byte	0xb
 1285 07e7 2501     		.2byte	0x125
 1286 07e9 09080000 		.4byte	0x809
 1287 07ed 00       		.byte	0
 1288 07ee 1A       		.uleb128 0x1a
 1289 07ef 57070000 		.4byte	.LASF129
 1290 07f3 0B       		.byte	0xb
 1291 07f4 2601     		.2byte	0x126
 1292 07f6 94000000 		.4byte	0x94
 1293 07fa 04       		.byte	0x4
 1294 07fb 1A       		.uleb128 0x1a
 1295 07fc 9B070000 		.4byte	.LASF130
 1296 0800 0B       		.byte	0xb
 1297 0801 2701     		.2byte	0x127
 1298 0803 0F080000 		.4byte	0x80f
 1299 0807 08       		.byte	0x8
 1300 0808 00       		.byte	0
 1301 0809 05       		.uleb128 0x5
 1302 080a 04       		.byte	0x4
 1303 080b D4070000 		.4byte	0x7d4
 1304 080f 05       		.uleb128 0x5
 1305 0810 04       		.byte	0x4
 1306 0811 C8070000 		.4byte	0x7c8
 1307 0815 1C       		.uleb128 0x1c
 1308 0816 540A0000 		.4byte	.LASF131
 1309 081a 0E       		.byte	0xe
 1310 081b 0B       		.byte	0xb
 1311 081c 3F01     		.2byte	0x13f
ARM GAS  /tmp/cc5kpRv7.s 			page 24


 1312 081e 4A080000 		.4byte	0x84a
 1313 0822 1A       		.uleb128 0x1a
 1314 0823 70090000 		.4byte	.LASF132
 1315 0827 0B       		.byte	0xb
 1316 0828 4001     		.2byte	0x140
 1317 082a 4A080000 		.4byte	0x84a
 1318 082e 00       		.byte	0
 1319 082f 1A       		.uleb128 0x1a
 1320 0830 51010000 		.4byte	.LASF133
 1321 0834 0B       		.byte	0xb
 1322 0835 4101     		.2byte	0x141
 1323 0837 4A080000 		.4byte	0x84a
 1324 083b 06       		.byte	0x6
 1325 083c 1A       		.uleb128 0x1a
 1326 083d C20C0000 		.4byte	.LASF134
 1327 0841 0B       		.byte	0xb
 1328 0842 4201     		.2byte	0x142
 1329 0844 50000000 		.4byte	0x50
 1330 0848 0C       		.byte	0xc
 1331 0849 00       		.byte	0
 1332 084a 0A       		.uleb128 0xa
 1333 084b 50000000 		.4byte	0x50
 1334 084f 5A080000 		.4byte	0x85a
 1335 0853 0B       		.uleb128 0xb
 1336 0854 7E010000 		.4byte	0x17e
 1337 0858 02       		.byte	0x2
 1338 0859 00       		.byte	0
 1339 085a 1D       		.uleb128 0x1d
 1340 085b D0       		.byte	0xd0
 1341 085c 0B       		.byte	0xb
 1342 085d 5902     		.2byte	0x259
 1343 085f 5B090000 		.4byte	0x95b
 1344 0863 1A       		.uleb128 0x1a
 1345 0864 6F020000 		.4byte	.LASF135
 1346 0868 0B       		.byte	0xb
 1347 0869 5B02     		.2byte	0x25b
 1348 086b 9B000000 		.4byte	0x9b
 1349 086f 00       		.byte	0
 1350 0870 1A       		.uleb128 0x1a
 1351 0871 860A0000 		.4byte	.LASF136
 1352 0875 0B       		.byte	0xb
 1353 0876 5C02     		.2byte	0x25c
 1354 0878 36020000 		.4byte	0x236
 1355 087c 04       		.byte	0x4
 1356 087d 1A       		.uleb128 0x1a
 1357 087e A4000000 		.4byte	.LASF137
 1358 0882 0B       		.byte	0xb
 1359 0883 5D02     		.2byte	0x25d
 1360 0885 5B090000 		.4byte	0x95b
 1361 0889 08       		.byte	0x8
 1362 088a 1A       		.uleb128 0x1a
 1363 088b 01020000 		.4byte	.LASF138
 1364 088f 0B       		.byte	0xb
 1365 0890 5E02     		.2byte	0x25e
 1366 0892 5C030000 		.4byte	0x35c
 1367 0896 24       		.byte	0x24
 1368 0897 1A       		.uleb128 0x1a
ARM GAS  /tmp/cc5kpRv7.s 			page 25


 1369 0898 82070000 		.4byte	.LASF139
 1370 089c 0B       		.byte	0xb
 1371 089d 5F02     		.2byte	0x25f
 1372 089f 94000000 		.4byte	0x94
 1373 08a3 48       		.byte	0x48
 1374 08a4 1A       		.uleb128 0x1a
 1375 08a5 8B080000 		.4byte	.LASF140
 1376 08a9 0B       		.byte	0xb
 1377 08aa 6002     		.2byte	0x260
 1378 08ac 8D000000 		.4byte	0x8d
 1379 08b0 50       		.byte	0x50
 1380 08b1 1A       		.uleb128 0x1a
 1381 08b2 EA0A0000 		.4byte	.LASF141
 1382 08b6 0B       		.byte	0xb
 1383 08b7 6102     		.2byte	0x261
 1384 08b9 15080000 		.4byte	0x815
 1385 08bd 58       		.byte	0x58
 1386 08be 1A       		.uleb128 0x1a
 1387 08bf 6C0B0000 		.4byte	.LASF142
 1388 08c3 0B       		.byte	0xb
 1389 08c4 6202     		.2byte	0x262
 1390 08c6 A6010000 		.4byte	0x1a6
 1391 08ca 68       		.byte	0x68
 1392 08cb 1A       		.uleb128 0x1a
 1393 08cc BA090000 		.4byte	.LASF143
 1394 08d0 0B       		.byte	0xb
 1395 08d1 6302     		.2byte	0x263
 1396 08d3 A6010000 		.4byte	0x1a6
 1397 08d7 70       		.byte	0x70
 1398 08d8 1A       		.uleb128 0x1a
 1399 08d9 6C080000 		.4byte	.LASF144
 1400 08dd 0B       		.byte	0xb
 1401 08de 6402     		.2byte	0x264
 1402 08e0 A6010000 		.4byte	0x1a6
 1403 08e4 78       		.byte	0x78
 1404 08e5 1A       		.uleb128 0x1a
 1405 08e6 25010000 		.4byte	.LASF145
 1406 08ea 0B       		.byte	0xb
 1407 08eb 6502     		.2byte	0x265
 1408 08ed 6B090000 		.4byte	0x96b
 1409 08f1 80       		.byte	0x80
 1410 08f2 1A       		.uleb128 0x1a
 1411 08f3 88060000 		.4byte	.LASF146
 1412 08f7 0B       		.byte	0xb
 1413 08f8 6602     		.2byte	0x266
 1414 08fa 7B090000 		.4byte	0x97b
 1415 08fe 88       		.byte	0x88
 1416 08ff 1A       		.uleb128 0x1a
 1417 0900 9D0D0000 		.4byte	.LASF147
 1418 0904 0B       		.byte	0xb
 1419 0905 6702     		.2byte	0x267
 1420 0907 94000000 		.4byte	0x94
 1421 090b A0       		.byte	0xa0
 1422 090c 1A       		.uleb128 0x1a
 1423 090d BB010000 		.4byte	.LASF148
 1424 0911 0B       		.byte	0xb
 1425 0912 6802     		.2byte	0x268
ARM GAS  /tmp/cc5kpRv7.s 			page 26


 1426 0914 A6010000 		.4byte	0x1a6
 1427 0918 A4       		.byte	0xa4
 1428 0919 1A       		.uleb128 0x1a
 1429 091a 9E0A0000 		.4byte	.LASF149
 1430 091e 0B       		.byte	0xb
 1431 091f 6902     		.2byte	0x269
 1432 0921 A6010000 		.4byte	0x1a6
 1433 0925 AC       		.byte	0xac
 1434 0926 1A       		.uleb128 0x1a
 1435 0927 FA0C0000 		.4byte	.LASF150
 1436 092b 0B       		.byte	0xb
 1437 092c 6A02     		.2byte	0x26a
 1438 092e A6010000 		.4byte	0x1a6
 1439 0932 B4       		.byte	0xb4
 1440 0933 1A       		.uleb128 0x1a
 1441 0934 580D0000 		.4byte	.LASF151
 1442 0938 0B       		.byte	0xb
 1443 0939 6B02     		.2byte	0x26b
 1444 093b A6010000 		.4byte	0x1a6
 1445 093f BC       		.byte	0xbc
 1446 0940 1A       		.uleb128 0x1a
 1447 0941 05010000 		.4byte	.LASF152
 1448 0945 0B       		.byte	0xb
 1449 0946 6C02     		.2byte	0x26c
 1450 0948 A6010000 		.4byte	0x1a6
 1451 094c C4       		.byte	0xc4
 1452 094d 1A       		.uleb128 0x1a
 1453 094e 07080000 		.4byte	.LASF153
 1454 0952 0B       		.byte	0xb
 1455 0953 6D02     		.2byte	0x26d
 1456 0955 94000000 		.4byte	0x94
 1457 0959 CC       		.byte	0xcc
 1458 095a 00       		.byte	0
 1459 095b 0A       		.uleb128 0xa
 1460 095c 3C020000 		.4byte	0x23c
 1461 0960 6B090000 		.4byte	0x96b
 1462 0964 0B       		.uleb128 0xb
 1463 0965 7E010000 		.4byte	0x17e
 1464 0969 19       		.byte	0x19
 1465 096a 00       		.byte	0
 1466 096b 0A       		.uleb128 0xa
 1467 096c 3C020000 		.4byte	0x23c
 1468 0970 7B090000 		.4byte	0x97b
 1469 0974 0B       		.uleb128 0xb
 1470 0975 7E010000 		.4byte	0x17e
 1471 0979 07       		.byte	0x7
 1472 097a 00       		.byte	0
 1473 097b 0A       		.uleb128 0xa
 1474 097c 3C020000 		.4byte	0x23c
 1475 0980 8B090000 		.4byte	0x98b
 1476 0984 0B       		.uleb128 0xb
 1477 0985 7E010000 		.4byte	0x17e
 1478 0989 17       		.byte	0x17
 1479 098a 00       		.byte	0
 1480 098b 1D       		.uleb128 0x1d
 1481 098c F0       		.byte	0xf0
 1482 098d 0B       		.byte	0xb
ARM GAS  /tmp/cc5kpRv7.s 			page 27


 1483 098e 7202     		.2byte	0x272
 1484 0990 AF090000 		.4byte	0x9af
 1485 0994 1A       		.uleb128 0x1a
 1486 0995 490C0000 		.4byte	.LASF154
 1487 0999 0B       		.byte	0xb
 1488 099a 7502     		.2byte	0x275
 1489 099c AF090000 		.4byte	0x9af
 1490 09a0 00       		.byte	0
 1491 09a1 1A       		.uleb128 0x1a
 1492 09a2 79070000 		.4byte	.LASF155
 1493 09a6 0B       		.byte	0xb
 1494 09a7 7602     		.2byte	0x276
 1495 09a9 BF090000 		.4byte	0x9bf
 1496 09ad 78       		.byte	0x78
 1497 09ae 00       		.byte	0
 1498 09af 0A       		.uleb128 0xa
 1499 09b0 A5040000 		.4byte	0x4a5
 1500 09b4 BF090000 		.4byte	0x9bf
 1501 09b8 0B       		.uleb128 0xb
 1502 09b9 7E010000 		.4byte	0x17e
 1503 09bd 1D       		.byte	0x1d
 1504 09be 00       		.byte	0
 1505 09bf 0A       		.uleb128 0xa
 1506 09c0 9B000000 		.4byte	0x9b
 1507 09c4 CF090000 		.4byte	0x9cf
 1508 09c8 0B       		.uleb128 0xb
 1509 09c9 7E010000 		.4byte	0x17e
 1510 09cd 1D       		.byte	0x1d
 1511 09ce 00       		.byte	0
 1512 09cf 1E       		.uleb128 0x1e
 1513 09d0 F0       		.byte	0xf0
 1514 09d1 0B       		.byte	0xb
 1515 09d2 5702     		.2byte	0x257
 1516 09d4 F1090000 		.4byte	0x9f1
 1517 09d8 1F       		.uleb128 0x1f
 1518 09d9 36030000 		.4byte	.LASF105
 1519 09dd 0B       		.byte	0xb
 1520 09de 6E02     		.2byte	0x26e
 1521 09e0 5A080000 		.4byte	0x85a
 1522 09e4 1F       		.uleb128 0x1f
 1523 09e5 F8000000 		.4byte	.LASF156
 1524 09e9 0B       		.byte	0xb
 1525 09ea 7702     		.2byte	0x277
 1526 09ec 8B090000 		.4byte	0x98b
 1527 09f0 00       		.byte	0
 1528 09f1 0A       		.uleb128 0xa
 1529 09f2 3C020000 		.4byte	0x23c
 1530 09f6 010A0000 		.4byte	0xa01
 1531 09fa 0B       		.uleb128 0xb
 1532 09fb 7E010000 		.4byte	0x17e
 1533 09ff 18       		.byte	0x18
 1534 0a00 00       		.byte	0
 1535 0a01 06       		.uleb128 0x6
 1536 0a02 2D000000 		.4byte	.LASF158
 1537 0a06 05       		.uleb128 0x5
 1538 0a07 04       		.byte	0x4
 1539 0a08 010A0000 		.4byte	0xa01
ARM GAS  /tmp/cc5kpRv7.s 			page 28


 1540 0a0c 20       		.uleb128 0x20
 1541 0a0d 170A0000 		.4byte	0xa17
 1542 0a11 18       		.uleb128 0x18
 1543 0a12 F3050000 		.4byte	0x5f3
 1544 0a16 00       		.byte	0
 1545 0a17 05       		.uleb128 0x5
 1546 0a18 04       		.byte	0x4
 1547 0a19 0C0A0000 		.4byte	0xa0c
 1548 0a1d 05       		.uleb128 0x5
 1549 0a1e 04       		.byte	0x4
 1550 0a1f 46030000 		.4byte	0x346
 1551 0a23 20       		.uleb128 0x20
 1552 0a24 2E0A0000 		.4byte	0xa2e
 1553 0a28 18       		.uleb128 0x18
 1554 0a29 94000000 		.4byte	0x94
 1555 0a2d 00       		.byte	0
 1556 0a2e 05       		.uleb128 0x5
 1557 0a2f 04       		.byte	0x4
 1558 0a30 340A0000 		.4byte	0xa34
 1559 0a34 05       		.uleb128 0x5
 1560 0a35 04       		.byte	0x4
 1561 0a36 230A0000 		.4byte	0xa23
 1562 0a3a 0A       		.uleb128 0xa
 1563 0a3b C8070000 		.4byte	0x7c8
 1564 0a3f 4A0A0000 		.4byte	0xa4a
 1565 0a43 0B       		.uleb128 0xb
 1566 0a44 7E010000 		.4byte	0x17e
 1567 0a48 02       		.byte	0x2
 1568 0a49 00       		.byte	0
 1569 0a4a 21       		.uleb128 0x21
 1570 0a4b D2010000 		.4byte	.LASF159
 1571 0a4f 0B       		.byte	0xb
 1572 0a50 FE02     		.2byte	0x2fe
 1573 0a52 F3050000 		.4byte	0x5f3
 1574 0a56 21       		.uleb128 0x21
 1575 0a57 3D030000 		.4byte	.LASF160
 1576 0a5b 0B       		.byte	0xb
 1577 0a5c FF02     		.2byte	0x2ff
 1578 0a5e F9050000 		.4byte	0x5f9
 1579 0a62 0A       		.uleb128 0xa
 1580 0a63 5A070000 		.4byte	0x75a
 1581 0a67 6D0A0000 		.4byte	0xa6d
 1582 0a6b 22       		.uleb128 0x22
 1583 0a6c 00       		.byte	0
 1584 0a6d 0F       		.uleb128 0xf
 1585 0a6e 620A0000 		.4byte	0xa62
 1586 0a72 11       		.uleb128 0x11
 1587 0a73 BC0B0000 		.4byte	.LASF161
 1588 0a77 0C       		.byte	0xc
 1589 0a78 14       		.byte	0x14
 1590 0a79 6D0A0000 		.4byte	0xa6d
 1591 0a7d 11       		.uleb128 0x11
 1592 0a7e AA010000 		.4byte	.LASF162
 1593 0a82 0C       		.byte	0xc
 1594 0a83 15       		.byte	0x15
 1595 0a84 94000000 		.4byte	0x94
 1596 0a88 11       		.uleb128 0x11
ARM GAS  /tmp/cc5kpRv7.s 			page 29


 1597 0a89 D9040000 		.4byte	.LASF163
 1598 0a8d 0D       		.byte	0xd
 1599 0a8e 9A       		.byte	0x9a
 1600 0a8f 62000000 		.4byte	0x62
 1601 0a93 11       		.uleb128 0x11
 1602 0a94 CF040000 		.4byte	.LASF164
 1603 0a98 0D       		.byte	0xd
 1604 0a99 9B       		.byte	0x9b
 1605 0a9a 94000000 		.4byte	0x94
 1606 0a9e 0A       		.uleb128 0xa
 1607 0a9f 36020000 		.4byte	0x236
 1608 0aa3 AE0A0000 		.4byte	0xaae
 1609 0aa7 0B       		.uleb128 0xb
 1610 0aa8 7E010000 		.4byte	0x17e
 1611 0aac 01       		.byte	0x1
 1612 0aad 00       		.byte	0
 1613 0aae 11       		.uleb128 0x11
 1614 0aaf 25050000 		.4byte	.LASF165
 1615 0ab3 0D       		.byte	0xd
 1616 0ab4 9E       		.byte	0x9e
 1617 0ab5 9E0A0000 		.4byte	0xa9e
 1618 0ab9 12       		.uleb128 0x12
 1619 0aba F1060000 		.4byte	.LASF166
 1620 0abe 3C       		.byte	0x3c
 1621 0abf 0E       		.byte	0xe
 1622 0ac0 1B       		.byte	0x1b
 1623 0ac1 920B0000 		.4byte	0xb92
 1624 0ac5 0D       		.uleb128 0xd
 1625 0ac6 85090000 		.4byte	.LASF167
 1626 0aca 0E       		.byte	0xe
 1627 0acb 1D       		.byte	0x1d
 1628 0acc 5E020000 		.4byte	0x25e
 1629 0ad0 00       		.byte	0
 1630 0ad1 0D       		.uleb128 0xd
 1631 0ad2 2A0D0000 		.4byte	.LASF168
 1632 0ad6 0E       		.byte	0xe
 1633 0ad7 1E       		.byte	0x1e
 1634 0ad8 48020000 		.4byte	0x248
 1635 0adc 02       		.byte	0x2
 1636 0add 0D       		.uleb128 0xd
 1637 0ade 390C0000 		.4byte	.LASF169
 1638 0ae2 0E       		.byte	0xe
 1639 0ae3 1F       		.byte	0x1f
 1640 0ae4 8A020000 		.4byte	0x28a
 1641 0ae8 04       		.byte	0x4
 1642 0ae9 0D       		.uleb128 0xd
 1643 0aea C7080000 		.4byte	.LASF170
 1644 0aee 0E       		.byte	0xe
 1645 0aef 20       		.byte	0x20
 1646 0af0 95020000 		.4byte	0x295
 1647 0af4 08       		.byte	0x8
 1648 0af5 0D       		.uleb128 0xd
 1649 0af6 B7020000 		.4byte	.LASF171
 1650 0afa 0E       		.byte	0xe
 1651 0afb 21       		.byte	0x21
 1652 0afc 69020000 		.4byte	0x269
 1653 0b00 0A       		.byte	0xa
ARM GAS  /tmp/cc5kpRv7.s 			page 30


 1654 0b01 0D       		.uleb128 0xd
 1655 0b02 85050000 		.4byte	.LASF172
 1656 0b06 0E       		.byte	0xe
 1657 0b07 22       		.byte	0x22
 1658 0b08 74020000 		.4byte	0x274
 1659 0b0c 0C       		.byte	0xc
 1660 0b0d 0D       		.uleb128 0xd
 1661 0b0e 03030000 		.4byte	.LASF173
 1662 0b12 0E       		.byte	0xe
 1663 0b13 23       		.byte	0x23
 1664 0b14 5E020000 		.4byte	0x25e
 1665 0b18 0E       		.byte	0xe
 1666 0b19 0D       		.uleb128 0xd
 1667 0b1a F3050000 		.4byte	.LASF174
 1668 0b1e 0E       		.byte	0xe
 1669 0b1f 24       		.byte	0x24
 1670 0b20 53020000 		.4byte	0x253
 1671 0b24 10       		.byte	0x10
 1672 0b25 0D       		.uleb128 0xd
 1673 0b26 1D090000 		.4byte	.LASF175
 1674 0b2a 0E       		.byte	0xe
 1675 0b2b 32       		.byte	0x32
 1676 0b2c 0A020000 		.4byte	0x20a
 1677 0b30 14       		.byte	0x14
 1678 0b31 0D       		.uleb128 0xd
 1679 0b32 AD020000 		.4byte	.LASF176
 1680 0b36 0E       		.byte	0xe
 1681 0b37 33       		.byte	0x33
 1682 0b38 62000000 		.4byte	0x62
 1683 0b3c 18       		.byte	0x18
 1684 0b3d 0D       		.uleb128 0xd
 1685 0b3e 2C0B0000 		.4byte	.LASF177
 1686 0b42 0E       		.byte	0xe
 1687 0b43 34       		.byte	0x34
 1688 0b44 0A020000 		.4byte	0x20a
 1689 0b48 1C       		.byte	0x1c
 1690 0b49 0D       		.uleb128 0xd
 1691 0b4a 7E060000 		.4byte	.LASF178
 1692 0b4e 0E       		.byte	0xe
 1693 0b4f 35       		.byte	0x35
 1694 0b50 62000000 		.4byte	0x62
 1695 0b54 20       		.byte	0x20
 1696 0b55 0D       		.uleb128 0xd
 1697 0b56 02050000 		.4byte	.LASF179
 1698 0b5a 0E       		.byte	0xe
 1699 0b5b 36       		.byte	0x36
 1700 0b5c 0A020000 		.4byte	0x20a
 1701 0b60 24       		.byte	0x24
 1702 0b61 0D       		.uleb128 0xd
 1703 0b62 BE020000 		.4byte	.LASF180
 1704 0b66 0E       		.byte	0xe
 1705 0b67 37       		.byte	0x37
 1706 0b68 62000000 		.4byte	0x62
 1707 0b6c 28       		.byte	0x28
 1708 0b6d 0D       		.uleb128 0xd
 1709 0b6e F6060000 		.4byte	.LASF181
 1710 0b72 0E       		.byte	0xe
ARM GAS  /tmp/cc5kpRv7.s 			page 31


 1711 0b73 38       		.byte	0x38
 1712 0b74 20020000 		.4byte	0x220
 1713 0b78 2C       		.byte	0x2c
 1714 0b79 0D       		.uleb128 0xd
 1715 0b7a 6F000000 		.4byte	.LASF182
 1716 0b7e 0E       		.byte	0xe
 1717 0b7f 39       		.byte	0x39
 1718 0b80 15020000 		.4byte	0x215
 1719 0b84 30       		.byte	0x30
 1720 0b85 0D       		.uleb128 0xd
 1721 0b86 C8020000 		.4byte	.LASF183
 1722 0b8a 0E       		.byte	0xe
 1723 0b8b 3A       		.byte	0x3a
 1724 0b8c 920B0000 		.4byte	0xb92
 1725 0b90 34       		.byte	0x34
 1726 0b91 00       		.byte	0
 1727 0b92 0A       		.uleb128 0xa
 1728 0b93 62000000 		.4byte	0x62
 1729 0b97 A20B0000 		.4byte	0xba2
 1730 0b9b 0B       		.uleb128 0xb
 1731 0b9c 7E010000 		.4byte	0x17e
 1732 0ba0 01       		.byte	0x1
 1733 0ba1 00       		.byte	0
 1734 0ba2 03       		.uleb128 0x3
 1735 0ba3 FA070000 		.4byte	.LASF184
 1736 0ba7 0F       		.byte	0xf
 1737 0ba8 27       		.byte	0x27
 1738 0ba9 F4010000 		.4byte	0x1f4
 1739 0bad 03       		.uleb128 0x3
 1740 0bae 240B0000 		.4byte	.LASF185
 1741 0bb2 0F       		.byte	0xf
 1742 0bb3 2A       		.byte	0x2a
 1743 0bb4 C9010000 		.4byte	0x1c9
 1744 0bb8 03       		.uleb128 0x3
 1745 0bb9 10020000 		.4byte	.LASF186
 1746 0bbd 0F       		.byte	0xf
 1747 0bbe 2B       		.byte	0x2b
 1748 0bbf C9010000 		.4byte	0x1c9
 1749 0bc3 03       		.uleb128 0x3
 1750 0bc4 F2040000 		.4byte	.LASF187
 1751 0bc8 0F       		.byte	0xf
 1752 0bc9 2C       		.byte	0x2c
 1753 0bca C9010000 		.4byte	0x1c9
 1754 0bce 03       		.uleb128 0x3
 1755 0bcf 67000000 		.4byte	.LASF188
 1756 0bd3 0F       		.byte	0xf
 1757 0bd4 2E       		.byte	0x2e
 1758 0bd5 F4010000 		.4byte	0x1f4
 1759 0bd9 03       		.uleb128 0x3
 1760 0bda 3D0A0000 		.4byte	.LASF189
 1761 0bde 0F       		.byte	0xf
 1762 0bdf 2F       		.byte	0x2f
 1763 0be0 E4010000 		.4byte	0x1e4
 1764 0be4 03       		.uleb128 0x3
 1765 0be5 D2020000 		.4byte	.LASF190
 1766 0be9 0F       		.byte	0xf
 1767 0bea 31       		.byte	0x31
ARM GAS  /tmp/cc5kpRv7.s 			page 32


 1768 0beb F4010000 		.4byte	0x1f4
 1769 0bef 03       		.uleb128 0x3
 1770 0bf0 1F050000 		.4byte	.LASF191
 1771 0bf4 0F       		.byte	0xf
 1772 0bf5 33       		.byte	0x33
 1773 0bf6 E4010000 		.4byte	0x1e4
 1774 0bfa 03       		.uleb128 0x3
 1775 0bfb 9D060000 		.4byte	.LASF192
 1776 0bff 0F       		.byte	0xf
 1777 0c00 34       		.byte	0x34
 1778 0c01 F4010000 		.4byte	0x1f4
 1779 0c05 03       		.uleb128 0x3
 1780 0c06 14090000 		.4byte	.LASF193
 1781 0c0a 10       		.byte	0x10
 1782 0c0b 34       		.byte	0x34
 1783 0c0c 100C0000 		.4byte	0xc10
 1784 0c10 12       		.uleb128 0x12
 1785 0c11 18060000 		.4byte	.LASF194
 1786 0c15 44       		.byte	0x44
 1787 0c16 11       		.byte	0x11
 1788 0c17 8E       		.byte	0x8e
 1789 0c18 EE0C0000 		.4byte	0xcee
 1790 0c1c 0D       		.uleb128 0xd
 1791 0c1d 790A0000 		.4byte	.LASF195
 1792 0c21 11       		.byte	0x11
 1793 0c22 8F       		.byte	0x8f
 1794 0c23 230D0000 		.4byte	0xd23
 1795 0c27 00       		.byte	0
 1796 0c28 0D       		.uleb128 0xd
 1797 0c29 6A010000 		.4byte	.LASF196
 1798 0c2d 11       		.byte	0x11
 1799 0c2e 90       		.byte	0x90
 1800 0c2f CE0B0000 		.4byte	0xbce
 1801 0c33 08       		.byte	0x8
 1802 0c34 13       		.uleb128 0x13
 1803 0c35 63747800 		.ascii	"ctx\000"
 1804 0c39 11       		.byte	0x11
 1805 0c3a 91       		.byte	0x91
 1806 0c3b 7F0F0000 		.4byte	0xf7f
 1807 0c3f 0C       		.byte	0xc
 1808 0c40 0D       		.uleb128 0xd
 1809 0c41 880C0000 		.4byte	.LASF197
 1810 0c45 11       		.byte	0x11
 1811 0c46 93       		.byte	0x93
 1812 0c47 F90C0000 		.4byte	0xcf9
 1813 0c4b 10       		.byte	0x10
 1814 0c4c 0D       		.uleb128 0xd
 1815 0c4d 78060000 		.4byte	.LASF198
 1816 0c51 11       		.byte	0x11
 1817 0c52 94       		.byte	0x94
 1818 0c53 F90C0000 		.4byte	0xcf9
 1819 0c57 14       		.byte	0x14
 1820 0c58 0D       		.uleb128 0xd
 1821 0c59 460B0000 		.4byte	.LASF199
 1822 0c5d 11       		.byte	0x11
 1823 0c5e 9B       		.byte	0x9b
 1824 0c5f 54070000 		.4byte	0x754
ARM GAS  /tmp/cc5kpRv7.s 			page 33


 1825 0c63 18       		.byte	0x18
 1826 0c64 0D       		.uleb128 0xd
 1827 0c65 EF0A0000 		.4byte	.LASF200
 1828 0c69 11       		.byte	0x11
 1829 0c6a A4       		.byte	0xa4
 1830 0c6b DF110000 		.4byte	0x11df
 1831 0c6f 1C       		.byte	0x1c
 1832 0c70 0D       		.uleb128 0xd
 1833 0c71 45010000 		.4byte	.LASF201
 1834 0c75 11       		.byte	0x11
 1835 0c76 A9       		.byte	0xa9
 1836 0c77 B80B0000 		.4byte	0xbb8
 1837 0c7b 20       		.byte	0x20
 1838 0c7c 0D       		.uleb128 0xd
 1839 0c7d BE040000 		.4byte	.LASF202
 1840 0c81 11       		.byte	0x11
 1841 0c82 AD       		.byte	0xad
 1842 0c83 AD0B0000 		.4byte	0xbad
 1843 0c87 21       		.byte	0x21
 1844 0c88 0D       		.uleb128 0xd
 1845 0c89 02080000 		.4byte	.LASF203
 1846 0c8d 11       		.byte	0x11
 1847 0c8e B2       		.byte	0xb2
 1848 0c8f C30B0000 		.4byte	0xbc3
 1849 0c93 22       		.byte	0x22
 1850 0c94 23       		.uleb128 0x23
 1851 0c95 7500     		.ascii	"u\000"
 1852 0c97 11       		.byte	0x11
 1853 0c98 0301     		.2byte	0x103
 1854 0c9a 09110000 		.4byte	0x1109
 1855 0c9e 24       		.byte	0x24
 1856 0c9f 1A       		.uleb128 0x1a
 1857 0ca0 040C0000 		.4byte	.LASF204
 1858 0ca4 11       		.byte	0x11
 1859 0ca5 0801     		.2byte	0x108
 1860 0ca7 FF0C0000 		.4byte	0xcff
 1861 0cab 28       		.byte	0x28
 1862 0cac 1A       		.uleb128 0x1a
 1863 0cad 9A0B0000 		.4byte	.LASF205
 1864 0cb1 11       		.byte	0x11
 1865 0cb2 0E01     		.2byte	0x10e
 1866 0cb4 230D0000 		.4byte	0xd23
 1867 0cb8 2C       		.byte	0x2c
 1868 0cb9 1A       		.uleb128 0x1a
 1869 0cba 19020000 		.4byte	.LASF206
 1870 0cbe 11       		.byte	0x11
 1871 0cbf 1401     		.2byte	0x114
 1872 0cc1 E40B0000 		.4byte	0xbe4
 1873 0cc5 34       		.byte	0x34
 1874 0cc6 1A       		.uleb128 0x1a
 1875 0cc7 33070000 		.4byte	.LASF207
 1876 0ccb 11       		.byte	0x11
 1877 0ccc 1B01     		.2byte	0x11b
 1878 0cce D9110000 		.4byte	0x11d9
 1879 0cd2 38       		.byte	0x38
 1880 0cd3 1A       		.uleb128 0x1a
 1881 0cd4 94060000 		.4byte	.LASF208
ARM GAS  /tmp/cc5kpRv7.s 			page 34


 1882 0cd8 11       		.byte	0x11
 1883 0cd9 1F01     		.2byte	0x11f
 1884 0cdb CE0B0000 		.4byte	0xbce
 1885 0cdf 3C       		.byte	0x3c
 1886 0ce0 1A       		.uleb128 0x1a
 1887 0ce1 EC040000 		.4byte	.LASF209
 1888 0ce5 11       		.byte	0x11
 1889 0ce6 2601     		.2byte	0x126
 1890 0ce8 BC010000 		.4byte	0x1bc
 1891 0cec 40       		.byte	0x40
 1892 0ced 00       		.byte	0
 1893 0cee 03       		.uleb128 0x3
 1894 0cef A4080000 		.4byte	.LASF210
 1895 0cf3 10       		.byte	0x10
 1896 0cf4 39       		.byte	0x39
 1897 0cf5 F90C0000 		.4byte	0xcf9
 1898 0cf9 05       		.uleb128 0x5
 1899 0cfa 04       		.byte	0x4
 1900 0cfb 050C0000 		.4byte	0xc05
 1901 0cff 03       		.uleb128 0x3
 1902 0d00 32020000 		.4byte	.LASF211
 1903 0d04 10       		.byte	0x10
 1904 0d05 3E       		.byte	0x3e
 1905 0d06 0A0D0000 		.4byte	0xd0a
 1906 0d0a 12       		.uleb128 0x12
 1907 0d0b C5060000 		.4byte	.LASF212
 1908 0d0f 04       		.byte	0x4
 1909 0d10 11       		.byte	0x11
 1910 0d11 7C       		.byte	0x7c
 1911 0d12 230D0000 		.4byte	0xd23
 1912 0d16 0D       		.uleb128 0xd
 1913 0d17 720D0000 		.4byte	.LASF213
 1914 0d1b 11       		.byte	0x11
 1915 0d1c 7D       		.byte	0x7d
 1916 0d1d F90C0000 		.4byte	0xcf9
 1917 0d21 00       		.byte	0
 1918 0d22 00       		.byte	0
 1919 0d23 03       		.uleb128 0x3
 1920 0d24 22020000 		.4byte	.LASF214
 1921 0d28 10       		.byte	0x10
 1922 0d29 45       		.byte	0x45
 1923 0d2a 2E0D0000 		.4byte	0xd2e
 1924 0d2e 12       		.uleb128 0x12
 1925 0d2f 430A0000 		.4byte	.LASF215
 1926 0d33 08       		.byte	0x8
 1927 0d34 11       		.byte	0x11
 1928 0d35 83       		.byte	0x83
 1929 0d36 530D0000 		.4byte	0xd53
 1930 0d3a 0D       		.uleb128 0xd
 1931 0d3b 720D0000 		.4byte	.LASF213
 1932 0d3f 11       		.byte	0x11
 1933 0d40 84       		.byte	0x84
 1934 0d41 F90C0000 		.4byte	0xcf9
 1935 0d45 00       		.byte	0
 1936 0d46 0D       		.uleb128 0xd
 1937 0d47 120D0000 		.4byte	.LASF216
 1938 0d4b 11       		.byte	0x11
ARM GAS  /tmp/cc5kpRv7.s 			page 35


 1939 0d4c 85       		.byte	0x85
 1940 0d4d F90C0000 		.4byte	0xcf9
 1941 0d51 04       		.byte	0x4
 1942 0d52 00       		.byte	0
 1943 0d53 03       		.uleb128 0x3
 1944 0d54 6B060000 		.4byte	.LASF217
 1945 0d58 10       		.byte	0x10
 1946 0d59 4C       		.byte	0x4c
 1947 0d5a 5E0D0000 		.4byte	0xd5e
 1948 0d5e 1C       		.uleb128 0x1c
 1949 0d5f 4D050000 		.4byte	.LASF218
 1950 0d63 1C       		.byte	0x1c
 1951 0d64 11       		.byte	0x11
 1952 0d65 5E01     		.2byte	0x15e
 1953 0d67 BA0D0000 		.4byte	0xdba
 1954 0d6b 1A       		.uleb128 0x1a
 1955 0d6c 790A0000 		.4byte	.LASF195
 1956 0d70 11       		.byte	0x11
 1957 0d71 5F01     		.2byte	0x15f
 1958 0d73 230D0000 		.4byte	0xd23
 1959 0d77 00       		.byte	0
 1960 0d78 1A       		.uleb128 0x1a
 1961 0d79 6A010000 		.4byte	.LASF196
 1962 0d7d 11       		.byte	0x11
 1963 0d7e 6001     		.2byte	0x160
 1964 0d80 CE0B0000 		.4byte	0xbce
 1965 0d84 08       		.byte	0x8
 1966 0d85 23       		.uleb128 0x23
 1967 0d86 63747800 		.ascii	"ctx\000"
 1968 0d8a 11       		.byte	0x11
 1969 0d8b 6201     		.2byte	0x162
 1970 0d8d 7F0F0000 		.4byte	0xf7f
 1971 0d91 0C       		.byte	0xc
 1972 0d92 1A       		.uleb128 0x1a
 1973 0d93 880C0000 		.4byte	.LASF197
 1974 0d97 11       		.byte	0x11
 1975 0d98 6501     		.2byte	0x165
 1976 0d9a F90C0000 		.4byte	0xcf9
 1977 0d9e 10       		.byte	0x10
 1978 0d9f 1A       		.uleb128 0x1a
 1979 0da0 78060000 		.4byte	.LASF198
 1980 0da4 11       		.byte	0x11
 1981 0da5 6601     		.2byte	0x166
 1982 0da7 F90C0000 		.4byte	0xcf9
 1983 0dab 14       		.byte	0x14
 1984 0dac 1A       		.uleb128 0x1a
 1985 0dad 83080000 		.4byte	.LASF219
 1986 0db1 11       		.byte	0x11
 1987 0db2 6901     		.2byte	0x169
 1988 0db4 F90C0000 		.4byte	0xcf9
 1989 0db8 18       		.byte	0x18
 1990 0db9 00       		.byte	0
 1991 0dba 03       		.uleb128 0x3
 1992 0dbb B9000000 		.4byte	.LASF220
 1993 0dbf 10       		.byte	0x10
 1994 0dc0 51       		.byte	0x51
 1995 0dc1 C50D0000 		.4byte	0xdc5
ARM GAS  /tmp/cc5kpRv7.s 			page 36


 1996 0dc5 05       		.uleb128 0x5
 1997 0dc6 04       		.byte	0x4
 1998 0dc7 CB0D0000 		.4byte	0xdcb
 1999 0dcb 20       		.uleb128 0x20
 2000 0dcc D60D0000 		.4byte	0xdd6
 2001 0dd0 18       		.uleb128 0x18
 2002 0dd1 BC010000 		.4byte	0x1bc
 2003 0dd5 00       		.byte	0
 2004 0dd6 03       		.uleb128 0x3
 2005 0dd7 5B060000 		.4byte	.LASF221
 2006 0ddb 10       		.byte	0x10
 2007 0ddc 56       		.byte	0x56
 2008 0ddd E10D0000 		.4byte	0xde1
 2009 0de1 1C       		.uleb128 0x1c
 2010 0de2 A9090000 		.4byte	.LASF222
 2011 0de6 14       		.byte	0x14
 2012 0de7 11       		.byte	0x11
 2013 0de8 3901     		.2byte	0x139
 2014 0dea 300E0000 		.4byte	0xe30
 2015 0dee 1A       		.uleb128 0x1a
 2016 0def 720D0000 		.4byte	.LASF213
 2017 0df3 11       		.byte	0x11
 2018 0df4 3A01     		.2byte	0x13a
 2019 0df6 E5110000 		.4byte	0x11e5
 2020 0dfa 00       		.byte	0
 2021 0dfb 1A       		.uleb128 0x1a
 2022 0dfc 120D0000 		.4byte	.LASF216
 2023 0e00 11       		.byte	0x11
 2024 0e01 3B01     		.2byte	0x13b
 2025 0e03 E5110000 		.4byte	0x11e5
 2026 0e07 04       		.byte	0x4
 2027 0e08 1A       		.uleb128 0x1a
 2028 0e09 640A0000 		.4byte	.LASF223
 2029 0e0d 11       		.byte	0x11
 2030 0e0e 3C01     		.2byte	0x13c
 2031 0e10 070F0000 		.4byte	0xf07
 2032 0e14 08       		.byte	0x8
 2033 0e15 1A       		.uleb128 0x1a
 2034 0e16 8C0B0000 		.4byte	.LASF224
 2035 0e1a 11       		.byte	0x11
 2036 0e1b 3D01     		.2byte	0x13d
 2037 0e1d BA0D0000 		.4byte	0xdba
 2038 0e21 0C       		.byte	0xc
 2039 0e22 23       		.uleb128 0x23
 2040 0e23 70617200 		.ascii	"par\000"
 2041 0e27 11       		.byte	0x11
 2042 0e28 3F01     		.2byte	0x13f
 2043 0e2a BC010000 		.4byte	0x1bc
 2044 0e2e 10       		.byte	0x10
 2045 0e2f 00       		.byte	0
 2046 0e30 03       		.uleb128 0x3
 2047 0e31 22060000 		.4byte	.LASF225
 2048 0e35 10       		.byte	0x10
 2049 0e36 5B       		.byte	0x5b
 2050 0e37 3B0E0000 		.4byte	0xe3b
 2051 0e3b 1C       		.uleb128 0x1c
 2052 0e3c CB000000 		.4byte	.LASF226
ARM GAS  /tmp/cc5kpRv7.s 			page 37


 2053 0e40 10       		.byte	0x10
 2054 0e41 11       		.byte	0x11
 2055 0e42 4901     		.2byte	0x149
 2056 0e44 7D0E0000 		.4byte	0xe7d
 2057 0e48 1A       		.uleb128 0x1a
 2058 0e49 720D0000 		.4byte	.LASF213
 2059 0e4d 11       		.byte	0x11
 2060 0e4e 4A01     		.2byte	0x14a
 2061 0e50 E5110000 		.4byte	0x11e5
 2062 0e54 00       		.byte	0
 2063 0e55 1A       		.uleb128 0x1a
 2064 0e56 120D0000 		.4byte	.LASF216
 2065 0e5a 11       		.byte	0x11
 2066 0e5b 4C01     		.2byte	0x14c
 2067 0e5d E5110000 		.4byte	0x11e5
 2068 0e61 04       		.byte	0x4
 2069 0e62 1A       		.uleb128 0x1a
 2070 0e63 640A0000 		.4byte	.LASF223
 2071 0e67 11       		.byte	0x11
 2072 0e68 4E01     		.2byte	0x14e
 2073 0e6a 070F0000 		.4byte	0xf07
 2074 0e6e 08       		.byte	0x8
 2075 0e6f 1A       		.uleb128 0x1a
 2076 0e70 FA020000 		.4byte	.LASF227
 2077 0e74 11       		.byte	0x11
 2078 0e75 5601     		.2byte	0x156
 2079 0e77 FC0E0000 		.4byte	0xefc
 2080 0e7b 0C       		.byte	0xc
 2081 0e7c 00       		.byte	0
 2082 0e7d 03       		.uleb128 0x3
 2083 0e7e 50030000 		.4byte	.LASF228
 2084 0e82 10       		.byte	0x10
 2085 0e83 60       		.byte	0x60
 2086 0e84 880E0000 		.4byte	0xe88
 2087 0e88 1C       		.uleb128 0x1c
 2088 0e89 AC0B0000 		.4byte	.LASF229
 2089 0e8d 04       		.byte	0x4
 2090 0e8e 11       		.byte	0x11
 2091 0e8f 7001     		.2byte	0x170
 2092 0e91 A30E0000 		.4byte	0xea3
 2093 0e95 1A       		.uleb128 0x1a
 2094 0e96 13030000 		.4byte	.LASF230
 2095 0e9a 11       		.byte	0x11
 2096 0e9b 7801     		.2byte	0x178
 2097 0e9d 5F070000 		.4byte	0x75f
 2098 0ea1 00       		.byte	0
 2099 0ea2 00       		.byte	0
 2100 0ea3 03       		.uleb128 0x3
 2101 0ea4 E40C0000 		.4byte	.LASF231
 2102 0ea8 10       		.byte	0x10
 2103 0ea9 65       		.byte	0x65
 2104 0eaa AE0E0000 		.4byte	0xeae
 2105 0eae 1C       		.uleb128 0x1c
 2106 0eaf 6E0C0000 		.4byte	.LASF232
 2107 0eb3 78       		.byte	0x78
 2108 0eb4 11       		.byte	0x11
 2109 0eb5 9001     		.2byte	0x190
ARM GAS  /tmp/cc5kpRv7.s 			page 38


 2110 0eb7 FC0E0000 		.4byte	0xefc
 2111 0ebb 1A       		.uleb128 0x1a
 2112 0ebc 1E0B0000 		.4byte	.LASF233
 2113 0ec0 11       		.byte	0x11
 2114 0ec1 9401     		.2byte	0x194
 2115 0ec3 530D0000 		.4byte	0xd53
 2116 0ec7 00       		.byte	0
 2117 0ec8 1A       		.uleb128 0x1a
 2118 0ec9 F30B0000 		.4byte	.LASF234
 2119 0ecd 11       		.byte	0x11
 2120 0ece 9801     		.2byte	0x198
 2121 0ed0 300E0000 		.4byte	0xe30
 2122 0ed4 1C       		.byte	0x1c
 2123 0ed5 23       		.uleb128 0x23
 2124 0ed6 64626700 		.ascii	"dbg\000"
 2125 0eda 11       		.byte	0x11
 2126 0edb 9C01     		.2byte	0x19c
 2127 0edd 7D0E0000 		.4byte	0xe7d
 2128 0ee1 2C       		.byte	0x2c
 2129 0ee2 1A       		.uleb128 0x1a
 2130 0ee3 B60A0000 		.4byte	.LASF235
 2131 0ee7 11       		.byte	0x11
 2132 0ee8 A001     		.2byte	0x1a0
 2133 0eea 050C0000 		.4byte	0xc05
 2134 0eee 30       		.byte	0x30
 2135 0eef 23       		.uleb128 0x23
 2136 0ef0 746D00   		.ascii	"tm\000"
 2137 0ef3 11       		.byte	0x11
 2138 0ef4 A501     		.2byte	0x1a5
 2139 0ef6 FE100000 		.4byte	0x10fe
 2140 0efa 74       		.byte	0x74
 2141 0efb 00       		.byte	0
 2142 0efc 03       		.uleb128 0x3
 2143 0efd 40000000 		.4byte	.LASF236
 2144 0f01 12       		.byte	0x12
 2145 0f02 6D       		.byte	0x6d
 2146 0f03 F4010000 		.4byte	0x1f4
 2147 0f07 03       		.uleb128 0x3
 2148 0f08 49070000 		.4byte	.LASF237
 2149 0f0c 12       		.byte	0x12
 2150 0f0d 79       		.byte	0x79
 2151 0f0e F4010000 		.4byte	0x1f4
 2152 0f12 21       		.uleb128 0x21
 2153 0f13 AD070000 		.4byte	.LASF238
 2154 0f17 13       		.byte	0x13
 2155 0f18 0408     		.2byte	0x804
 2156 0f1a EF010000 		.4byte	0x1ef
 2157 0f1e 11       		.uleb128 0x11
 2158 0f1f FB050000 		.4byte	.LASF239
 2159 0f23 14       		.byte	0x14
 2160 0f24 4C       		.byte	0x4c
 2161 0f25 F4010000 		.4byte	0x1f4
 2162 0f29 0A       		.uleb128 0xa
 2163 0f2a D4010000 		.4byte	0x1d4
 2164 0f2e 390F0000 		.4byte	0xf39
 2165 0f32 0B       		.uleb128 0xb
 2166 0f33 7E010000 		.4byte	0x17e
ARM GAS  /tmp/cc5kpRv7.s 			page 39


 2167 0f37 0F       		.byte	0xf
 2168 0f38 00       		.byte	0
 2169 0f39 0F       		.uleb128 0xf
 2170 0f3a 290F0000 		.4byte	0xf29
 2171 0f3e 11       		.uleb128 0x11
 2172 0f3f 9B090000 		.4byte	.LASF240
 2173 0f43 14       		.byte	0x14
 2174 0f44 4E       		.byte	0x4e
 2175 0f45 390F0000 		.4byte	0xf39
 2176 0f49 0A       		.uleb128 0xa
 2177 0f4a D4010000 		.4byte	0x1d4
 2178 0f4e 590F0000 		.4byte	0xf59
 2179 0f52 0B       		.uleb128 0xb
 2180 0f53 7E010000 		.4byte	0x17e
 2181 0f57 07       		.byte	0x7
 2182 0f58 00       		.byte	0
 2183 0f59 0F       		.uleb128 0xf
 2184 0f5a 490F0000 		.4byte	0xf49
 2185 0f5e 11       		.uleb128 0x11
 2186 0f5f 4B0B0000 		.4byte	.LASF241
 2187 0f63 14       		.byte	0x14
 2188 0f64 4F       		.byte	0x4f
 2189 0f65 590F0000 		.4byte	0xf59
 2190 0f69 03       		.uleb128 0x3
 2191 0f6a 41020000 		.4byte	.LASF242
 2192 0f6e 15       		.byte	0x15
 2193 0f6f 65       		.byte	0x65
 2194 0f70 BC010000 		.4byte	0x1bc
 2195 0f74 03       		.uleb128 0x3
 2196 0f75 C4040000 		.4byte	.LASF243
 2197 0f79 15       		.byte	0x15
 2198 0f7a 6D       		.byte	0x6d
 2199 0f7b FF010000 		.4byte	0x1ff
 2200 0f7f 12       		.uleb128 0x12
 2201 0f80 500C0000 		.4byte	.LASF244
 2202 0f84 04       		.byte	0x4
 2203 0f85 15       		.byte	0x15
 2204 0f86 89       		.byte	0x89
 2205 0f87 970F0000 		.4byte	0xf97
 2206 0f8b 13       		.uleb128 0x13
 2207 0f8c 737000   		.ascii	"sp\000"
 2208 0f8f 15       		.byte	0x15
 2209 0f90 8A       		.byte	0x8a
 2210 0f91 E3100000 		.4byte	0x10e3
 2211 0f95 00       		.byte	0
 2212 0f96 00       		.byte	0
 2213 0f97 1C       		.uleb128 0x1c
 2214 0f98 44090000 		.4byte	.LASF245
 2215 0f9c 64       		.byte	0x64
 2216 0f9d 16       		.byte	0x16
 2217 0f9e 5901     		.2byte	0x159
 2218 0fa0 E3100000 		.4byte	0x10e3
 2219 0fa4 23       		.uleb128 0x23
 2220 0fa5 73313600 		.ascii	"s16\000"
 2221 0fa9 16       		.byte	0x16
 2222 0faa 5B01     		.2byte	0x15b
 2223 0fac 690F0000 		.4byte	0xf69
ARM GAS  /tmp/cc5kpRv7.s 			page 40


 2224 0fb0 00       		.byte	0
 2225 0fb1 23       		.uleb128 0x23
 2226 0fb2 73313700 		.ascii	"s17\000"
 2227 0fb6 16       		.byte	0x16
 2228 0fb7 5C01     		.2byte	0x15c
 2229 0fb9 690F0000 		.4byte	0xf69
 2230 0fbd 04       		.byte	0x4
 2231 0fbe 23       		.uleb128 0x23
 2232 0fbf 73313800 		.ascii	"s18\000"
 2233 0fc3 16       		.byte	0x16
 2234 0fc4 5D01     		.2byte	0x15d
 2235 0fc6 690F0000 		.4byte	0xf69
 2236 0fca 08       		.byte	0x8
 2237 0fcb 23       		.uleb128 0x23
 2238 0fcc 73313900 		.ascii	"s19\000"
 2239 0fd0 16       		.byte	0x16
 2240 0fd1 5E01     		.2byte	0x15e
 2241 0fd3 690F0000 		.4byte	0xf69
 2242 0fd7 0C       		.byte	0xc
 2243 0fd8 23       		.uleb128 0x23
 2244 0fd9 73323000 		.ascii	"s20\000"
 2245 0fdd 16       		.byte	0x16
 2246 0fde 5F01     		.2byte	0x15f
 2247 0fe0 690F0000 		.4byte	0xf69
 2248 0fe4 10       		.byte	0x10
 2249 0fe5 23       		.uleb128 0x23
 2250 0fe6 73323100 		.ascii	"s21\000"
 2251 0fea 16       		.byte	0x16
 2252 0feb 6001     		.2byte	0x160
 2253 0fed 690F0000 		.4byte	0xf69
 2254 0ff1 14       		.byte	0x14
 2255 0ff2 23       		.uleb128 0x23
 2256 0ff3 73323200 		.ascii	"s22\000"
 2257 0ff7 16       		.byte	0x16
 2258 0ff8 6101     		.2byte	0x161
 2259 0ffa 690F0000 		.4byte	0xf69
 2260 0ffe 18       		.byte	0x18
 2261 0fff 23       		.uleb128 0x23
 2262 1000 73323300 		.ascii	"s23\000"
 2263 1004 16       		.byte	0x16
 2264 1005 6201     		.2byte	0x162
 2265 1007 690F0000 		.4byte	0xf69
 2266 100b 1C       		.byte	0x1c
 2267 100c 23       		.uleb128 0x23
 2268 100d 73323400 		.ascii	"s24\000"
 2269 1011 16       		.byte	0x16
 2270 1012 6301     		.2byte	0x163
 2271 1014 690F0000 		.4byte	0xf69
 2272 1018 20       		.byte	0x20
 2273 1019 23       		.uleb128 0x23
 2274 101a 73323500 		.ascii	"s25\000"
 2275 101e 16       		.byte	0x16
 2276 101f 6401     		.2byte	0x164
 2277 1021 690F0000 		.4byte	0xf69
 2278 1025 24       		.byte	0x24
 2279 1026 23       		.uleb128 0x23
 2280 1027 73323600 		.ascii	"s26\000"
ARM GAS  /tmp/cc5kpRv7.s 			page 41


 2281 102b 16       		.byte	0x16
 2282 102c 6501     		.2byte	0x165
 2283 102e 690F0000 		.4byte	0xf69
 2284 1032 28       		.byte	0x28
 2285 1033 23       		.uleb128 0x23
 2286 1034 73323700 		.ascii	"s27\000"
 2287 1038 16       		.byte	0x16
 2288 1039 6601     		.2byte	0x166
 2289 103b 690F0000 		.4byte	0xf69
 2290 103f 2C       		.byte	0x2c
 2291 1040 23       		.uleb128 0x23
 2292 1041 73323800 		.ascii	"s28\000"
 2293 1045 16       		.byte	0x16
 2294 1046 6701     		.2byte	0x167
 2295 1048 690F0000 		.4byte	0xf69
 2296 104c 30       		.byte	0x30
 2297 104d 23       		.uleb128 0x23
 2298 104e 73323900 		.ascii	"s29\000"
 2299 1052 16       		.byte	0x16
 2300 1053 6801     		.2byte	0x168
 2301 1055 690F0000 		.4byte	0xf69
 2302 1059 34       		.byte	0x34
 2303 105a 23       		.uleb128 0x23
 2304 105b 73333000 		.ascii	"s30\000"
 2305 105f 16       		.byte	0x16
 2306 1060 6901     		.2byte	0x169
 2307 1062 690F0000 		.4byte	0xf69
 2308 1066 38       		.byte	0x38
 2309 1067 23       		.uleb128 0x23
 2310 1068 73333100 		.ascii	"s31\000"
 2311 106c 16       		.byte	0x16
 2312 106d 6A01     		.2byte	0x16a
 2313 106f 690F0000 		.4byte	0xf69
 2314 1073 3C       		.byte	0x3c
 2315 1074 23       		.uleb128 0x23
 2316 1075 723400   		.ascii	"r4\000"
 2317 1078 16       		.byte	0x16
 2318 1079 6C01     		.2byte	0x16c
 2319 107b 690F0000 		.4byte	0xf69
 2320 107f 40       		.byte	0x40
 2321 1080 23       		.uleb128 0x23
 2322 1081 723500   		.ascii	"r5\000"
 2323 1084 16       		.byte	0x16
 2324 1085 6D01     		.2byte	0x16d
 2325 1087 690F0000 		.4byte	0xf69
 2326 108b 44       		.byte	0x44
 2327 108c 23       		.uleb128 0x23
 2328 108d 723600   		.ascii	"r6\000"
 2329 1090 16       		.byte	0x16
 2330 1091 6E01     		.2byte	0x16e
 2331 1093 690F0000 		.4byte	0xf69
 2332 1097 48       		.byte	0x48
 2333 1098 23       		.uleb128 0x23
 2334 1099 723700   		.ascii	"r7\000"
 2335 109c 16       		.byte	0x16
 2336 109d 6F01     		.2byte	0x16f
 2337 109f 690F0000 		.4byte	0xf69
ARM GAS  /tmp/cc5kpRv7.s 			page 42


 2338 10a3 4C       		.byte	0x4c
 2339 10a4 23       		.uleb128 0x23
 2340 10a5 723800   		.ascii	"r8\000"
 2341 10a8 16       		.byte	0x16
 2342 10a9 7001     		.2byte	0x170
 2343 10ab 690F0000 		.4byte	0xf69
 2344 10af 50       		.byte	0x50
 2345 10b0 23       		.uleb128 0x23
 2346 10b1 723900   		.ascii	"r9\000"
 2347 10b4 16       		.byte	0x16
 2348 10b5 7101     		.2byte	0x171
 2349 10b7 690F0000 		.4byte	0xf69
 2350 10bb 54       		.byte	0x54
 2351 10bc 23       		.uleb128 0x23
 2352 10bd 72313000 		.ascii	"r10\000"
 2353 10c1 16       		.byte	0x16
 2354 10c2 7201     		.2byte	0x172
 2355 10c4 690F0000 		.4byte	0xf69
 2356 10c8 58       		.byte	0x58
 2357 10c9 23       		.uleb128 0x23
 2358 10ca 72313100 		.ascii	"r11\000"
 2359 10ce 16       		.byte	0x16
 2360 10cf 7301     		.2byte	0x173
 2361 10d1 690F0000 		.4byte	0xf69
 2362 10d5 5C       		.byte	0x5c
 2363 10d6 23       		.uleb128 0x23
 2364 10d7 6C7200   		.ascii	"lr\000"
 2365 10da 16       		.byte	0x16
 2366 10db 7401     		.2byte	0x174
 2367 10dd 690F0000 		.4byte	0xf69
 2368 10e1 60       		.byte	0x60
 2369 10e2 00       		.byte	0
 2370 10e3 05       		.uleb128 0x5
 2371 10e4 04       		.byte	0x4
 2372 10e5 970F0000 		.4byte	0xf97
 2373 10e9 0C       		.uleb128 0xc
 2374 10ea 04       		.byte	0x4
 2375 10eb 17       		.byte	0x17
 2376 10ec 38       		.byte	0x38
 2377 10ed FE100000 		.4byte	0x10fe
 2378 10f1 0D       		.uleb128 0xd
 2379 10f2 9D080000 		.4byte	.LASF246
 2380 10f6 17       		.byte	0x17
 2381 10f7 3C       		.byte	0x3c
 2382 10f8 A20B0000 		.4byte	0xba2
 2383 10fc 00       		.byte	0
 2384 10fd 00       		.byte	0
 2385 10fe 03       		.uleb128 0x3
 2386 10ff 350B0000 		.4byte	.LASF247
 2387 1103 17       		.byte	0x17
 2388 1104 3D       		.byte	0x3d
 2389 1105 E9100000 		.4byte	0x10e9
 2390 1109 08       		.uleb128 0x8
 2391 110a 04       		.byte	0x4
 2392 110b 11       		.byte	0x11
 2393 110c C6       		.byte	0xc6
 2394 110d 6B110000 		.4byte	0x116b
ARM GAS  /tmp/cc5kpRv7.s 			page 43


 2395 1111 09       		.uleb128 0x9
 2396 1112 BB0C0000 		.4byte	.LASF248
 2397 1116 11       		.byte	0x11
 2398 1117 CD       		.byte	0xcd
 2399 1118 D90B0000 		.4byte	0xbd9
 2400 111c 09       		.uleb128 0x9
 2401 111d 75010000 		.4byte	.LASF249
 2402 1121 11       		.byte	0x11
 2403 1122 D4       		.byte	0xd4
 2404 1123 D90B0000 		.4byte	0xbd9
 2405 1127 09       		.uleb128 0x9
 2406 1128 91030000 		.4byte	.LASF250
 2407 112c 11       		.byte	0x11
 2408 112d DB       		.byte	0xdb
 2409 112e BC010000 		.4byte	0x1bc
 2410 1132 09       		.uleb128 0x9
 2411 1133 DE020000 		.4byte	.LASF251
 2412 1137 11       		.byte	0x11
 2413 1138 E2       		.byte	0xe2
 2414 1139 6B110000 		.4byte	0x116b
 2415 113d 09       		.uleb128 0x9
 2416 113e 3C090000 		.4byte	.LASF252
 2417 1142 11       		.byte	0x11
 2418 1143 E7       		.byte	0xe7
 2419 1144 D90B0000 		.4byte	0xbd9
 2420 1148 09       		.uleb128 0x9
 2421 1149 AA0D0000 		.4byte	.LASF253
 2422 114d 11       		.byte	0x11
 2423 114e F0       		.byte	0xf0
 2424 114f 96110000 		.4byte	0x1196
 2425 1153 09       		.uleb128 0x9
 2426 1154 41050000 		.4byte	.LASF254
 2427 1158 11       		.byte	0x11
 2428 1159 F9       		.byte	0xf9
 2429 115a D9110000 		.4byte	0x11d9
 2430 115e 1F       		.uleb128 0x1f
 2431 115f 92020000 		.4byte	.LASF255
 2432 1163 11       		.byte	0x11
 2433 1164 0101     		.2byte	0x101
 2434 1166 E40B0000 		.4byte	0xbe4
 2435 116a 00       		.byte	0
 2436 116b 05       		.uleb128 0x5
 2437 116c 04       		.byte	0x4
 2438 116d EE0C0000 		.4byte	0xcee
 2439 1171 12       		.uleb128 0x12
 2440 1172 0B060000 		.4byte	.LASF256
 2441 1176 0C       		.byte	0xc
 2442 1177 18       		.byte	0x18
 2443 1178 34       		.byte	0x34
 2444 1179 96110000 		.4byte	0x1196
 2445 117d 0D       		.uleb128 0xd
 2446 117e 790A0000 		.4byte	.LASF195
 2447 1182 18       		.byte	0x18
 2448 1183 35       		.byte	0x35
 2449 1184 230D0000 		.4byte	0xd23
 2450 1188 00       		.byte	0
 2451 1189 13       		.uleb128 0x13
ARM GAS  /tmp/cc5kpRv7.s 			page 44


 2452 118a 636E7400 		.ascii	"cnt\000"
 2453 118e 18       		.byte	0x18
 2454 118f 37       		.byte	0x37
 2455 1190 EF0B0000 		.4byte	0xbef
 2456 1194 08       		.byte	0x8
 2457 1195 00       		.byte	0
 2458 1196 05       		.uleb128 0x5
 2459 1197 04       		.byte	0x4
 2460 1198 71110000 		.4byte	0x1171
 2461 119c 12       		.uleb128 0x12
 2462 119d 910B0000 		.4byte	.LASF257
 2463 11a1 14       		.byte	0x14
 2464 11a2 19       		.byte	0x19
 2465 11a3 39       		.byte	0x39
 2466 11a4 D9110000 		.4byte	0x11d9
 2467 11a8 0D       		.uleb128 0xd
 2468 11a9 790A0000 		.4byte	.LASF195
 2469 11ad 19       		.byte	0x19
 2470 11ae 3A       		.byte	0x3a
 2471 11af 230D0000 		.4byte	0xd23
 2472 11b3 00       		.byte	0
 2473 11b4 0D       		.uleb128 0xd
 2474 11b5 5B000000 		.4byte	.LASF258
 2475 11b9 19       		.byte	0x19
 2476 11ba 3C       		.byte	0x3c
 2477 11bb F90C0000 		.4byte	0xcf9
 2478 11bf 08       		.byte	0x8
 2479 11c0 0D       		.uleb128 0xd
 2480 11c1 720D0000 		.4byte	.LASF213
 2481 11c5 19       		.byte	0x19
 2482 11c6 3E       		.byte	0x3e
 2483 11c7 24130000 		.4byte	0x1324
 2484 11cb 0C       		.byte	0xc
 2485 11cc 13       		.uleb128 0x13
 2486 11cd 636E7400 		.ascii	"cnt\000"
 2487 11d1 19       		.byte	0x19
 2488 11d2 41       		.byte	0x41
 2489 11d3 EF0B0000 		.4byte	0xbef
 2490 11d7 10       		.byte	0x10
 2491 11d8 00       		.byte	0
 2492 11d9 05       		.uleb128 0x5
 2493 11da 04       		.byte	0x4
 2494 11db 9C110000 		.4byte	0x119c
 2495 11df 05       		.uleb128 0x5
 2496 11e0 04       		.byte	0x4
 2497 11e1 740F0000 		.4byte	0xf74
 2498 11e5 05       		.uleb128 0x5
 2499 11e6 04       		.byte	0x4
 2500 11e7 D60D0000 		.4byte	0xdd6
 2501 11eb 24       		.uleb128 0x24
 2502 11ec 636800   		.ascii	"ch\000"
 2503 11ef 11       		.byte	0x11
 2504 11f0 C701     		.2byte	0x1c7
 2505 11f2 A30E0000 		.4byte	0xea3
 2506 11f6 0A       		.uleb128 0xa
 2507 11f7 740F0000 		.4byte	0xf74
 2508 11fb 01120000 		.4byte	0x1201
ARM GAS  /tmp/cc5kpRv7.s 			page 45


 2509 11ff 22       		.uleb128 0x22
 2510 1200 00       		.byte	0
 2511 1201 21       		.uleb128 0x21
 2512 1202 38060000 		.4byte	.LASF259
 2513 1206 1A       		.byte	0x1a
 2514 1207 1701     		.2byte	0x117
 2515 1209 F6110000 		.4byte	0x11f6
 2516 120d 0C       		.uleb128 0xc
 2517 120e 16       		.byte	0x16
 2518 120f 1B       		.byte	0x1b
 2519 1210 34       		.byte	0x34
 2520 1211 EE120000 		.4byte	0x12ee
 2521 1215 0D       		.uleb128 0xd
 2522 1216 920D0000 		.4byte	.LASF260
 2523 121a 1B       		.byte	0x1b
 2524 121b 35       		.byte	0x35
 2525 121c EE120000 		.4byte	0x12ee
 2526 1220 00       		.byte	0
 2527 1221 0D       		.uleb128 0xd
 2528 1222 FC010000 		.4byte	.LASF261
 2529 1226 1B       		.byte	0x1b
 2530 1227 36       		.byte	0x36
 2531 1228 C9010000 		.4byte	0x1c9
 2532 122c 04       		.byte	0x4
 2533 122d 0D       		.uleb128 0xd
 2534 122e CF090000 		.4byte	.LASF262
 2535 1232 1B       		.byte	0x1b
 2536 1233 37       		.byte	0x37
 2537 1234 C9010000 		.4byte	0x1c9
 2538 1238 05       		.byte	0x5
 2539 1239 0D       		.uleb128 0xd
 2540 123a CA0A0000 		.4byte	.LASF263
 2541 123e 1B       		.byte	0x1b
 2542 123f 38       		.byte	0x38
 2543 1240 D9010000 		.4byte	0x1d9
 2544 1244 06       		.byte	0x6
 2545 1245 0D       		.uleb128 0xd
 2546 1246 FA040000 		.4byte	.LASF264
 2547 124a 1B       		.byte	0x1b
 2548 124b 39       		.byte	0x39
 2549 124c C9010000 		.4byte	0x1c9
 2550 1250 08       		.byte	0x8
 2551 1251 0D       		.uleb128 0xd
 2552 1252 170D0000 		.4byte	.LASF265
 2553 1256 1B       		.byte	0x1b
 2554 1257 3A       		.byte	0x3a
 2555 1258 C9010000 		.4byte	0x1c9
 2556 125c 09       		.byte	0x9
 2557 125d 0D       		.uleb128 0xd
 2558 125e CD050000 		.4byte	.LASF266
 2559 1262 1B       		.byte	0x1b
 2560 1263 3B       		.byte	0x3b
 2561 1264 C9010000 		.4byte	0x1c9
 2562 1268 0A       		.byte	0xa
 2563 1269 0D       		.uleb128 0xd
 2564 126a 1B000000 		.4byte	.LASF267
 2565 126e 1B       		.byte	0x1b
ARM GAS  /tmp/cc5kpRv7.s 			page 46


 2566 126f 3C       		.byte	0x3c
 2567 1270 C9010000 		.4byte	0x1c9
 2568 1274 0B       		.byte	0xb
 2569 1275 0D       		.uleb128 0xd
 2570 1276 00000000 		.4byte	.LASF268
 2571 127a 1B       		.byte	0x1b
 2572 127b 3D       		.byte	0x3d
 2573 127c C9010000 		.4byte	0x1c9
 2574 1280 0C       		.byte	0xc
 2575 1281 0D       		.uleb128 0xd
 2576 1282 D2070000 		.4byte	.LASF269
 2577 1286 1B       		.byte	0x1b
 2578 1287 3E       		.byte	0x3e
 2579 1288 C9010000 		.4byte	0x1c9
 2580 128c 0D       		.byte	0xd
 2581 128d 0D       		.uleb128 0xd
 2582 128e 60010000 		.4byte	.LASF270
 2583 1292 1B       		.byte	0x1b
 2584 1293 3F       		.byte	0x3f
 2585 1294 C9010000 		.4byte	0x1c9
 2586 1298 0E       		.byte	0xe
 2587 1299 0D       		.uleb128 0xd
 2588 129a 280A0000 		.4byte	.LASF271
 2589 129e 1B       		.byte	0x1b
 2590 129f 40       		.byte	0x40
 2591 12a0 C9010000 		.4byte	0x1c9
 2592 12a4 0F       		.byte	0xf
 2593 12a5 0D       		.uleb128 0xd
 2594 12a6 A4060000 		.4byte	.LASF272
 2595 12aa 1B       		.byte	0x1b
 2596 12ab 41       		.byte	0x41
 2597 12ac C9010000 		.4byte	0x1c9
 2598 12b0 10       		.byte	0x10
 2599 12b1 0D       		.uleb128 0xd
 2600 12b2 AC050000 		.4byte	.LASF273
 2601 12b6 1B       		.byte	0x1b
 2602 12b7 42       		.byte	0x42
 2603 12b8 C9010000 		.4byte	0x1c9
 2604 12bc 11       		.byte	0x11
 2605 12bd 0D       		.uleb128 0xd
 2606 12be 3C0D0000 		.4byte	.LASF274
 2607 12c2 1B       		.byte	0x1b
 2608 12c3 43       		.byte	0x43
 2609 12c4 C9010000 		.4byte	0x1c9
 2610 12c8 12       		.byte	0x12
 2611 12c9 0D       		.uleb128 0xd
 2612 12ca A60C0000 		.4byte	.LASF275
 2613 12ce 1B       		.byte	0x1b
 2614 12cf 44       		.byte	0x44
 2615 12d0 C9010000 		.4byte	0x1c9
 2616 12d4 13       		.byte	0x13
 2617 12d5 0D       		.uleb128 0xd
 2618 12d6 4A000000 		.4byte	.LASF276
 2619 12da 1B       		.byte	0x1b
 2620 12db 45       		.byte	0x45
 2621 12dc C9010000 		.4byte	0x1c9
 2622 12e0 14       		.byte	0x14
ARM GAS  /tmp/cc5kpRv7.s 			page 47


 2623 12e1 0D       		.uleb128 0xd
 2624 12e2 16050000 		.4byte	.LASF277
 2625 12e6 1B       		.byte	0x1b
 2626 12e7 46       		.byte	0x46
 2627 12e8 C9010000 		.4byte	0x1c9
 2628 12ec 15       		.byte	0x15
 2629 12ed 00       		.byte	0
 2630 12ee 0A       		.uleb128 0xa
 2631 12ef 3C020000 		.4byte	0x23c
 2632 12f3 FE120000 		.4byte	0x12fe
 2633 12f7 0B       		.uleb128 0xb
 2634 12f8 7E010000 		.4byte	0x17e
 2635 12fc 03       		.byte	0x3
 2636 12fd 00       		.byte	0
 2637 12fe 03       		.uleb128 0x3
 2638 12ff F00C0000 		.4byte	.LASF278
 2639 1303 1B       		.byte	0x1b
 2640 1304 47       		.byte	0x47
 2641 1305 0D120000 		.4byte	0x120d
 2642 1309 0F       		.uleb128 0xf
 2643 130a FE120000 		.4byte	0x12fe
 2644 130e 11       		.uleb128 0x11
 2645 130f 79000000 		.4byte	.LASF279
 2646 1313 1B       		.byte	0x1b
 2647 1314 6C       		.byte	0x6c
 2648 1315 09130000 		.4byte	0x1309
 2649 1319 03       		.uleb128 0x3
 2650 131a 310C0000 		.4byte	.LASF280
 2651 131e 19       		.byte	0x19
 2652 131f 34       		.byte	0x34
 2653 1320 9C110000 		.4byte	0x119c
 2654 1324 05       		.uleb128 0x5
 2655 1325 04       		.byte	0x4
 2656 1326 19130000 		.4byte	0x1319
 2657 132a 02       		.uleb128 0x2
 2658 132b 01       		.byte	0x1
 2659 132c 02       		.byte	0x2
 2660 132d 66030000 		.4byte	.LASF281
 2661 1331 03       		.uleb128 0x3
 2662 1332 F0080000 		.4byte	.LASF282
 2663 1336 1C       		.byte	0x1c
 2664 1337 47       		.byte	0x47
 2665 1338 3C130000 		.4byte	0x133c
 2666 133c 05       		.uleb128 0x5
 2667 133d 04       		.byte	0x4
 2668 133e 42130000 		.4byte	0x1342
 2669 1342 17       		.uleb128 0x17
 2670 1343 BC010000 		.4byte	0x1bc
 2671 1347 56130000 		.4byte	0x1356
 2672 134b 18       		.uleb128 0x18
 2673 134c A2000000 		.4byte	0xa2
 2674 1350 18       		.uleb128 0x18
 2675 1351 9B000000 		.4byte	0x9b
 2676 1355 00       		.byte	0
 2677 1356 03       		.uleb128 0x3
 2678 1357 D6080000 		.4byte	.LASF283
 2679 135b 1C       		.byte	0x1c
ARM GAS  /tmp/cc5kpRv7.s 			page 48


 2680 135c 4C       		.byte	0x4c
 2681 135d 61130000 		.4byte	0x1361
 2682 1361 05       		.uleb128 0x5
 2683 1362 04       		.byte	0x4
 2684 1363 67130000 		.4byte	0x1367
 2685 1367 17       		.uleb128 0x17
 2686 1368 BC010000 		.4byte	0x1bc
 2687 136c 80130000 		.4byte	0x1380
 2688 1370 18       		.uleb128 0x18
 2689 1371 A2000000 		.4byte	0xa2
 2690 1375 18       		.uleb128 0x18
 2691 1376 9B000000 		.4byte	0x9b
 2692 137a 18       		.uleb128 0x18
 2693 137b A2000000 		.4byte	0xa2
 2694 137f 00       		.byte	0
 2695 1380 0C       		.uleb128 0xc
 2696 1381 08       		.byte	0x8
 2697 1382 1C       		.byte	0x1c
 2698 1383 51       		.byte	0x51
 2699 1384 A1130000 		.4byte	0x13a1
 2700 1388 0D       		.uleb128 0xd
 2701 1389 8C050000 		.4byte	.LASF284
 2702 138d 1C       		.byte	0x1c
 2703 138e 55       		.byte	0x55
 2704 138f A1130000 		.4byte	0x13a1
 2705 1393 00       		.byte	0
 2706 1394 0D       		.uleb128 0xd
 2707 1395 B4010000 		.4byte	.LASF285
 2708 1399 1C       		.byte	0x1c
 2709 139a 59       		.byte	0x59
 2710 139b A1130000 		.4byte	0x13a1
 2711 139f 04       		.byte	0x4
 2712 13a0 00       		.byte	0
 2713 13a1 05       		.uleb128 0x5
 2714 13a2 04       		.byte	0x4
 2715 13a3 C9010000 		.4byte	0x1c9
 2716 13a7 03       		.uleb128 0x3
 2717 13a8 7C020000 		.4byte	.LASF286
 2718 13ac 1C       		.byte	0x1c
 2719 13ad 5A       		.byte	0x5a
 2720 13ae 80130000 		.4byte	0x1380
 2721 13b2 11       		.uleb128 0x11
 2722 13b3 310D0000 		.4byte	.LASF287
 2723 13b7 1C       		.byte	0x1c
 2724 13b8 65       		.byte	0x65
 2725 13b9 A7130000 		.4byte	0x13a7
 2726 13bd 03       		.uleb128 0x3
 2727 13be DE010000 		.4byte	.LASF288
 2728 13c2 02       		.byte	0x2
 2729 13c3 48       		.byte	0x48
 2730 13c4 C8130000 		.4byte	0x13c8
 2731 13c8 12       		.uleb128 0x12
 2732 13c9 08000000 		.4byte	.LASF289
 2733 13cd 20       		.byte	0x20
 2734 13ce 02       		.byte	0x2
 2735 13cf 60       		.byte	0x60
 2736 13d0 F9130000 		.4byte	0x13f9
ARM GAS  /tmp/cc5kpRv7.s 			page 49


 2737 13d4 0D       		.uleb128 0xd
 2738 13d5 8C000000 		.4byte	.LASF290
 2739 13d9 02       		.byte	0x2
 2740 13da 61       		.byte	0x61
 2741 13db 56130000 		.4byte	0x1356
 2742 13df 00       		.byte	0
 2743 13e0 0D       		.uleb128 0xd
 2744 13e1 5F030000 		.4byte	.LASF291
 2745 13e5 02       		.byte	0x2
 2746 13e6 63       		.byte	0x63
 2747 13e7 F9130000 		.4byte	0x13f9
 2748 13eb 04       		.byte	0x4
 2749 13ec 13       		.uleb128 0x13
 2750 13ed 6D747800 		.ascii	"mtx\000"
 2751 13f1 02       		.byte	0x2
 2752 13f2 65       		.byte	0x65
 2753 13f3 19130000 		.4byte	0x1319
 2754 13f7 0C       		.byte	0xc
 2755 13f8 00       		.byte	0
 2756 13f9 03       		.uleb128 0x3
 2757 13fa 0F070000 		.4byte	.LASF292
 2758 13fe 02       		.byte	0x2
 2759 13ff 4D       		.byte	0x4d
 2760 1400 04140000 		.4byte	0x1404
 2761 1404 25       		.uleb128 0x25
 2762 1405 C0070000 		.4byte	.LASF329
 2763 1409 08       		.byte	0x8
 2764 140a 02       		.byte	0x2
 2765 140b 52       		.byte	0x52
 2766 140c 27140000 		.4byte	0x1427
 2767 1410 09       		.uleb128 0x9
 2768 1411 B60C0000 		.4byte	.LASF293
 2769 1415 02       		.byte	0x2
 2770 1416 56       		.byte	0x56
 2771 1417 27140000 		.4byte	0x1427
 2772 141b 09       		.uleb128 0x9
 2773 141c EB080000 		.4byte	.LASF294
 2774 1420 02       		.byte	0x2
 2775 1421 5A       		.byte	0x5a
 2776 1422 4E140000 		.4byte	0x144e
 2777 1426 00       		.byte	0
 2778 1427 0C       		.uleb128 0xc
 2779 1428 08       		.byte	0x8
 2780 1429 02       		.byte	0x2
 2781 142a 53       		.byte	0x53
 2782 142b 48140000 		.4byte	0x1448
 2783 142f 0D       		.uleb128 0xd
 2784 1430 720D0000 		.4byte	.LASF213
 2785 1434 02       		.byte	0x2
 2786 1435 54       		.byte	0x54
 2787 1436 48140000 		.4byte	0x1448
 2788 143a 00       		.byte	0
 2789 143b 0D       		.uleb128 0xd
 2790 143c 10050000 		.4byte	.LASF295
 2791 1440 02       		.byte	0x2
 2792 1441 55       		.byte	0x55
 2793 1442 A2000000 		.4byte	0xa2
ARM GAS  /tmp/cc5kpRv7.s 			page 50


 2794 1446 04       		.byte	0x4
 2795 1447 00       		.byte	0
 2796 1448 05       		.uleb128 0x5
 2797 1449 04       		.byte	0x4
 2798 144a F9130000 		.4byte	0x13f9
 2799 144e 0C       		.uleb128 0xc
 2800 144f 08       		.byte	0x8
 2801 1450 02       		.byte	0x2
 2802 1451 57       		.byte	0x57
 2803 1452 6F140000 		.4byte	0x146f
 2804 1456 0D       		.uleb128 0xd
 2805 1457 53020000 		.4byte	.LASF296
 2806 145b 02       		.byte	0x2
 2807 145c 58       		.byte	0x58
 2808 145d 6F140000 		.4byte	0x146f
 2809 1461 00       		.byte	0
 2810 1462 0D       		.uleb128 0xd
 2811 1463 CF090000 		.4byte	.LASF262
 2812 1467 02       		.byte	0x2
 2813 1468 59       		.byte	0x59
 2814 1469 A2000000 		.4byte	0xa2
 2815 146d 04       		.byte	0x4
 2816 146e 00       		.byte	0
 2817 146f 05       		.uleb128 0x5
 2818 1470 04       		.byte	0x4
 2819 1471 BD130000 		.4byte	0x13bd
 2820 1475 12       		.uleb128 0x12
 2821 1476 B1060000 		.4byte	.LASF297
 2822 147a 04       		.byte	0x4
 2823 147b 1D       		.byte	0x1d
 2824 147c 38       		.byte	0x38
 2825 147d 8E140000 		.4byte	0x148e
 2826 1481 0D       		.uleb128 0xd
 2827 1482 720D0000 		.4byte	.LASF213
 2828 1486 1D       		.byte	0x1d
 2829 1487 39       		.byte	0x39
 2830 1488 8E140000 		.4byte	0x148e
 2831 148c 00       		.byte	0
 2832 148d 00       		.byte	0
 2833 148e 05       		.uleb128 0x5
 2834 148f 04       		.byte	0x4
 2835 1490 75140000 		.4byte	0x1475
 2836 1494 0C       		.uleb128 0xc
 2837 1495 10       		.byte	0x10
 2838 1496 1D       		.byte	0x1d
 2839 1497 40       		.byte	0x40
 2840 1498 CD140000 		.4byte	0x14cd
 2841 149c 0D       		.uleb128 0xd
 2842 149d 720D0000 		.4byte	.LASF213
 2843 14a1 1D       		.byte	0x1d
 2844 14a2 41       		.byte	0x41
 2845 14a3 8E140000 		.4byte	0x148e
 2846 14a7 00       		.byte	0
 2847 14a8 0D       		.uleb128 0xd
 2848 14a9 DE0B0000 		.4byte	.LASF298
 2849 14ad 1D       		.byte	0x1d
 2850 14ae 42       		.byte	0x42
ARM GAS  /tmp/cc5kpRv7.s 			page 51


 2851 14af A2000000 		.4byte	0xa2
 2852 14b3 04       		.byte	0x4
 2853 14b4 0D       		.uleb128 0xd
 2854 14b5 A1070000 		.4byte	.LASF299
 2855 14b9 1D       		.byte	0x1d
 2856 14ba 44       		.byte	0x44
 2857 14bb 9B000000 		.4byte	0x9b
 2858 14bf 08       		.byte	0x8
 2859 14c0 0D       		.uleb128 0xd
 2860 14c1 8C000000 		.4byte	.LASF290
 2861 14c5 1D       		.byte	0x1d
 2862 14c6 45       		.byte	0x45
 2863 14c7 31130000 		.4byte	0x1331
 2864 14cb 0C       		.byte	0xc
 2865 14cc 00       		.byte	0
 2866 14cd 03       		.uleb128 0x3
 2867 14ce FD0A0000 		.4byte	.LASF300
 2868 14d2 1D       		.byte	0x1d
 2869 14d3 47       		.byte	0x47
 2870 14d4 94140000 		.4byte	0x1494
 2871 14d8 12       		.uleb128 0x12
 2872 14d9 36010000 		.4byte	.LASF301
 2873 14dd 10       		.byte	0x10
 2874 14de 1E       		.byte	0x1e
 2875 14df A9       		.byte	0xa9
 2876 14e0 09150000 		.4byte	0x1509
 2877 14e4 0D       		.uleb128 0xd
 2878 14e5 720D0000 		.4byte	.LASF213
 2879 14e9 1E       		.byte	0x1e
 2880 14ea AD       		.byte	0xad
 2881 14eb 09150000 		.4byte	0x1509
 2882 14ef 00       		.byte	0
 2883 14f0 0D       		.uleb128 0xd
 2884 14f1 02080000 		.4byte	.LASF203
 2885 14f5 1E       		.byte	0x1e
 2886 14f6 B1       		.byte	0xb1
 2887 14f7 FA0B0000 		.4byte	0xbfa
 2888 14fb 04       		.byte	0x4
 2889 14fc 0D       		.uleb128 0xd
 2890 14fd 460B0000 		.4byte	.LASF199
 2891 1501 1E       		.byte	0x1e
 2892 1502 B3       		.byte	0xb3
 2893 1503 6B090000 		.4byte	0x96b
 2894 1507 08       		.byte	0x8
 2895 1508 00       		.byte	0
 2896 1509 05       		.uleb128 0x5
 2897 150a 04       		.byte	0x4
 2898 150b D8140000 		.4byte	0x14d8
 2899 150f 03       		.uleb128 0x3
 2900 1510 130C0000 		.4byte	.LASF302
 2901 1514 1E       		.byte	0x1e
 2902 1515 B7       		.byte	0xb7
 2903 1516 D8140000 		.4byte	0x14d8
 2904 151a 12       		.uleb128 0x12
 2905 151b 860D0000 		.4byte	.LASF303
 2906 151f 04       		.byte	0x4
 2907 1520 1E       		.byte	0x1e
ARM GAS  /tmp/cc5kpRv7.s 			page 52


 2908 1521 BC       		.byte	0xbc
 2909 1522 33150000 		.4byte	0x1533
 2910 1526 0D       		.uleb128 0xd
 2911 1527 720D0000 		.4byte	.LASF213
 2912 152b 1E       		.byte	0x1e
 2913 152c BD       		.byte	0xbd
 2914 152d 33150000 		.4byte	0x1533
 2915 1531 00       		.byte	0
 2916 1532 00       		.byte	0
 2917 1533 05       		.uleb128 0x5
 2918 1534 04       		.byte	0x4
 2919 1535 0F150000 		.4byte	0x150f
 2920 1539 03       		.uleb128 0x3
 2921 153a C90B0000 		.4byte	.LASF304
 2922 153e 1E       		.byte	0x1e
 2923 153f BE       		.byte	0xbe
 2924 1540 1A150000 		.4byte	0x151a
 2925 1544 1C       		.uleb128 0x1c
 2926 1545 5E070000 		.4byte	.LASF305
 2927 1549 48       		.byte	0x48
 2928 154a 1E       		.byte	0x1e
 2929 154b 3E01     		.2byte	0x13e
 2930 154d BA150000 		.4byte	0x15ba
 2931 1551 23       		.uleb128 0x23
 2932 1552 6D747800 		.ascii	"mtx\000"
 2933 1556 1E       		.byte	0x1e
 2934 1557 4301     		.2byte	0x143
 2935 1559 19130000 		.4byte	0x1319
 2936 155d 00       		.byte	0
 2937 155e 1A       		.uleb128 0x1a
 2938 155f 57010000 		.4byte	.LASF306
 2939 1563 1E       		.byte	0x1e
 2940 1564 4A01     		.2byte	0x14a
 2941 1566 39150000 		.4byte	0x1539
 2942 156a 14       		.byte	0x14
 2943 156b 1A       		.uleb128 0x1a
 2944 156c 58020000 		.4byte	.LASF307
 2945 1570 1E       		.byte	0x1e
 2946 1571 4E01     		.2byte	0x14e
 2947 1573 CD140000 		.4byte	0x14cd
 2948 1577 18       		.byte	0x18
 2949 1578 1A       		.uleb128 0x1a
 2950 1579 76090000 		.4byte	.LASF308
 2951 157d 1E       		.byte	0x1e
 2952 157e 5301     		.2byte	0x153
 2953 1580 39150000 		.4byte	0x1539
 2954 1584 28       		.byte	0x28
 2955 1585 1A       		.uleb128 0x1a
 2956 1586 7D030000 		.4byte	.LASF309
 2957 158a 1E       		.byte	0x1e
 2958 158b 5901     		.2byte	0x159
 2959 158d 39150000 		.4byte	0x1539
 2960 1591 2C       		.byte	0x2c
 2961 1592 1A       		.uleb128 0x1a
 2962 1593 6C050000 		.4byte	.LASF310
 2963 1597 1E       		.byte	0x1e
 2964 1598 5D01     		.2byte	0x15d
ARM GAS  /tmp/cc5kpRv7.s 			page 53


 2965 159a CD140000 		.4byte	0x14cd
 2966 159e 30       		.byte	0x30
 2967 159f 1A       		.uleb128 0x1a
 2968 15a0 AD0A0000 		.4byte	.LASF311
 2969 15a4 1E       		.byte	0x1e
 2970 15a5 6301     		.2byte	0x163
 2971 15a7 39150000 		.4byte	0x1539
 2972 15ab 40       		.byte	0x40
 2973 15ac 1A       		.uleb128 0x1a
 2974 15ad 51060000 		.4byte	.LASF312
 2975 15b1 1E       		.byte	0x1e
 2976 15b2 6901     		.2byte	0x169
 2977 15b4 39150000 		.4byte	0x1539
 2978 15b8 44       		.byte	0x44
 2979 15b9 00       		.byte	0
 2980 15ba 07       		.uleb128 0x7
 2981 15bb 50090000 		.4byte	.LASF313
 2982 15bf 1E       		.byte	0x1e
 2983 15c0 7101     		.2byte	0x171
 2984 15c2 44150000 		.4byte	0x1544
 2985 15c6 21       		.uleb128 0x21
 2986 15c7 930A0000 		.4byte	.LASF314
 2987 15cb 1E       		.byte	0x1e
 2988 15cc 7C01     		.2byte	0x17c
 2989 15ce BA150000 		.4byte	0x15ba
 2990 15d2 26       		.uleb128 0x26
 2991 15d3 FD080000 		.4byte	.LASF315
 2992 15d7 01       		.byte	0x1
 2993 15d8 55       		.byte	0x55
 2994 15d9 C9010000 		.4byte	0x1c9
 2995 15dd 05       		.uleb128 0x5
 2996 15de 03       		.byte	0x3
 2997 15df 00000000 		.4byte	_before_main
 2998 15e3 27       		.uleb128 0x27
 2999 15e4 6A090000 		.4byte	.LASF316
 3000 15e8 01       		.byte	0x1
 3001 15e9 C5       		.byte	0xc5
 3002 15ea 94000000 		.4byte	0x94
 3003 15ee 00000000 		.4byte	.LFB300
 3004 15f2 06000000 		.4byte	.LFE300-.LFB300
 3005 15f6 01       		.uleb128 0x1
 3006 15f7 9C       		.byte	0x9c
 3007 15f8 19160000 		.4byte	0x1619
 3008 15fc 28       		.uleb128 0x28
 3009 15fd 70696400 		.ascii	"pid\000"
 3010 1601 01       		.byte	0x1
 3011 1602 C5       		.byte	0xc5
 3012 1603 94000000 		.4byte	0x94
 3013 1607 00000000 		.4byte	.LLST9
 3014 160b 29       		.uleb128 0x29
 3015 160c 73696700 		.ascii	"sig\000"
 3016 1610 01       		.byte	0x1
 3017 1611 C5       		.byte	0xc5
 3018 1612 94000000 		.4byte	0x94
 3019 1616 01       		.uleb128 0x1
 3020 1617 51       		.byte	0x51
 3021 1618 00       		.byte	0
ARM GAS  /tmp/cc5kpRv7.s 			page 54


 3022 1619 2A       		.uleb128 0x2a
 3023 161a 61020000 		.4byte	.LASF330
 3024 161e 01       		.byte	0x1
 3025 161f C0       		.byte	0xc0
 3026 1620 00000000 		.4byte	.LFB299
 3027 1624 02000000 		.4byte	.LFE299-.LFB299
 3028 1628 01       		.uleb128 0x1
 3029 1629 9C       		.byte	0x9c
 3030 162a 2B       		.uleb128 0x2b
 3031 162b CC070000 		.4byte	.LASF317
 3032 162f 0A       		.byte	0xa
 3033 1630 12       		.byte	0x12
 3034 1631 00000000 		.4byte	.LFB298
 3035 1635 02000000 		.4byte	.LFE298-.LFB298
 3036 1639 01       		.uleb128 0x1
 3037 163a 9C       		.byte	0x9c
 3038 163b 4D160000 		.4byte	0x164d
 3039 163f 2C       		.uleb128 0x2c
 3040 1640 670C0000 		.4byte	.LASF318
 3041 1644 01       		.byte	0x1
 3042 1645 B9       		.byte	0xb9
 3043 1646 94000000 		.4byte	0x94
 3044 164a 01       		.uleb128 0x1
 3045 164b 50       		.byte	0x50
 3046 164c 00       		.byte	0
 3047 164d 2D       		.uleb128 0x2d
 3048 164e 0B030000 		.4byte	.LASF331
 3049 1652 01       		.byte	0x1
 3050 1653 B3       		.byte	0xb3
 3051 1654 7F020000 		.4byte	0x27f
 3052 1658 00000000 		.4byte	.LFB297
 3053 165c 04000000 		.4byte	.LFE297-.LFB297
 3054 1660 01       		.uleb128 0x1
 3055 1661 9C       		.byte	0x9c
 3056 1662 27       		.uleb128 0x27
 3057 1663 67020000 		.4byte	.LASF319
 3058 1667 01       		.byte	0x1
 3059 1668 AB       		.byte	0xab
 3060 1669 94000000 		.4byte	0x94
 3061 166d 00000000 		.4byte	.LFB296
 3062 1671 04000000 		.4byte	.LFE296-.LFB296
 3063 1675 01       		.uleb128 0x1
 3064 1676 9C       		.byte	0x9c
 3065 1677 95160000 		.4byte	0x1695
 3066 167b 28       		.uleb128 0x28
 3067 167c 7200     		.ascii	"r\000"
 3068 167e 01       		.byte	0x1
 3069 167f AB       		.byte	0xab
 3070 1680 F3050000 		.4byte	0x5f3
 3071 1684 21000000 		.4byte	.LLST8
 3072 1688 29       		.uleb128 0x29
 3073 1689 666400   		.ascii	"fd\000"
 3074 168c 01       		.byte	0x1
 3075 168d AB       		.byte	0xab
 3076 168e 94000000 		.4byte	0x94
 3077 1692 01       		.uleb128 0x1
 3078 1693 51       		.byte	0x51
ARM GAS  /tmp/cc5kpRv7.s 			page 55


 3079 1694 00       		.byte	0
 3080 1695 27       		.uleb128 0x27
 3081 1696 170B0000 		.4byte	.LASF320
 3082 169a 01       		.byte	0x1
 3083 169b A0       		.byte	0xa0
 3084 169c 94000000 		.4byte	0x94
 3085 16a0 00000000 		.4byte	.LFB295
 3086 16a4 06000000 		.4byte	.LFE295-.LFB295
 3087 16a8 01       		.uleb128 0x1
 3088 16a9 9C       		.byte	0x9c
 3089 16aa D5160000 		.4byte	0x16d5
 3090 16ae 28       		.uleb128 0x28
 3091 16af 7200     		.ascii	"r\000"
 3092 16b1 01       		.byte	0x1
 3093 16b2 A0       		.byte	0xa0
 3094 16b3 F3050000 		.4byte	0x5f3
 3095 16b7 42000000 		.4byte	.LLST7
 3096 16bb 2C       		.uleb128 0x2c
 3097 16bc 0B050000 		.4byte	.LASF321
 3098 16c0 01       		.byte	0x1
 3099 16c1 A0       		.byte	0xa0
 3100 16c2 94000000 		.4byte	0x94
 3101 16c6 01       		.uleb128 0x1
 3102 16c7 51       		.byte	0x51
 3103 16c8 29       		.uleb128 0x29
 3104 16c9 737400   		.ascii	"st\000"
 3105 16cc 01       		.byte	0x1
 3106 16cd A0       		.byte	0xa0
 3107 16ce D5160000 		.4byte	0x16d5
 3108 16d2 01       		.uleb128 0x1
 3109 16d3 52       		.byte	0x52
 3110 16d4 00       		.byte	0
 3111 16d5 05       		.uleb128 0x5
 3112 16d6 04       		.byte	0x4
 3113 16d7 B90A0000 		.4byte	0xab9
 3114 16db 27       		.uleb128 0x27
 3115 16dc 01070000 		.4byte	.LASF322
 3116 16e0 01       		.byte	0x1
 3117 16e1 89       		.byte	0x89
 3118 16e2 2B020000 		.4byte	0x22b
 3119 16e6 00000000 		.4byte	.LFB294
 3120 16ea 18000000 		.4byte	.LFE294-.LFB294
 3121 16ee 01       		.uleb128 0x1
 3122 16ef 9C       		.byte	0x9c
 3123 16f0 60170000 		.4byte	0x1760
 3124 16f4 28       		.uleb128 0x28
 3125 16f5 7200     		.ascii	"r\000"
 3126 16f7 01       		.byte	0x1
 3127 16f8 89       		.byte	0x89
 3128 16f9 F3050000 		.4byte	0x5f3
 3129 16fd 63000000 		.4byte	.LLST3
 3130 1701 2E       		.uleb128 0x2e
 3131 1702 10080000 		.4byte	.LASF323
 3132 1706 01       		.byte	0x1
 3133 1707 89       		.byte	0x89
 3134 1708 94000000 		.4byte	0x94
 3135 170c 81000000 		.4byte	.LLST4
ARM GAS  /tmp/cc5kpRv7.s 			page 56


 3136 1710 2F       		.uleb128 0x2f
 3137 1711 7000     		.ascii	"p\000"
 3138 1713 01       		.byte	0x1
 3139 1714 8C       		.byte	0x8c
 3140 1715 BC010000 		.4byte	0x1bc
 3141 1719 30       		.uleb128 0x30
 3142 171a C2000000 		.4byte	.LASF332
 3143 171e 70170000 		.4byte	0x1770
 3144 1722 31       		.uleb128 0x31
 3145 1723 6C180000 		.4byte	0x186c
 3146 1727 02000000 		.4byte	.LBB4
 3147 172b 00000000 		.4byte	.Ldebug_ranges0+0
 3148 172f 01       		.byte	0x1
 3149 1730 8F       		.byte	0x8f
 3150 1731 32       		.uleb128 0x32
 3151 1732 7C180000 		.4byte	0x187c
 3152 1736 A2000000 		.4byte	.LLST5
 3153 173a 32       		.uleb128 0x32
 3154 173b 87180000 		.4byte	0x1887
 3155 173f B6000000 		.4byte	.LLST6
 3156 1743 33       		.uleb128 0x33
 3157 1744 0C000000 		.4byte	.LVL9
 3158 1748 C5180000 		.4byte	0x18c5
 3159 174c 34       		.uleb128 0x34
 3160 174d 01       		.uleb128 0x1
 3161 174e 50       		.byte	0x50
 3162 174f 01       		.uleb128 0x1
 3163 1750 30       		.byte	0x30
 3164 1751 34       		.uleb128 0x34
 3165 1752 01       		.uleb128 0x1
 3166 1753 51       		.byte	0x51
 3167 1754 03       		.uleb128 0x3
 3168 1755 F3       		.byte	0xf3
 3169 1756 01       		.uleb128 0x1
 3170 1757 51       		.byte	0x51
 3171 1758 34       		.uleb128 0x34
 3172 1759 01       		.uleb128 0x1
 3173 175a 52       		.byte	0x52
 3174 175b 01       		.uleb128 0x1
 3175 175c 38       		.byte	0x38
 3176 175d 00       		.byte	0
 3177 175e 00       		.byte	0
 3178 175f 00       		.byte	0
 3179 1760 0A       		.uleb128 0xa
 3180 1761 43020000 		.4byte	0x243
 3181 1765 70170000 		.4byte	0x1770
 3182 1769 0B       		.uleb128 0xb
 3183 176a 7E010000 		.4byte	0x17e
 3184 176e 05       		.byte	0x5
 3185 176f 00       		.byte	0
 3186 1770 0F       		.uleb128 0xf
 3187 1771 60170000 		.4byte	0x1760
 3188 1775 27       		.uleb128 0x27
 3189 1776 76030000 		.4byte	.LASF96
 3190 177a 01       		.byte	0x1
 3191 177b 7F       		.byte	0x7f
 3192 177c 94000000 		.4byte	0x94
ARM GAS  /tmp/cc5kpRv7.s 			page 57


 3193 1780 00000000 		.4byte	.LFB293
 3194 1784 04000000 		.4byte	.LFE293-.LFB293
 3195 1788 01       		.uleb128 0x1
 3196 1789 9C       		.byte	0x9c
 3197 178a A9170000 		.4byte	0x17a9
 3198 178e 28       		.uleb128 0x28
 3199 178f 7200     		.ascii	"r\000"
 3200 1791 01       		.byte	0x1
 3201 1792 7F       		.byte	0x7f
 3202 1793 F3050000 		.4byte	0x5f3
 3203 1797 D7000000 		.4byte	.LLST2
 3204 179b 2C       		.uleb128 0x2c
 3205 179c 0B050000 		.4byte	.LASF321
 3206 17a0 01       		.byte	0x1
 3207 17a1 7F       		.byte	0x7f
 3208 17a2 94000000 		.4byte	0x94
 3209 17a6 01       		.uleb128 0x1
 3210 17a7 51       		.byte	0x51
 3211 17a8 00       		.byte	0
 3212 17a9 35       		.uleb128 0x35
 3213 17aa 95000000 		.4byte	.LASF94
 3214 17ae 01       		.byte	0x1
 3215 17af 73       		.byte	0x73
 3216 17b0 94000000 		.4byte	0x94
 3217 17b4 01       		.byte	0x1
 3218 17b5 E4170000 		.4byte	0x17e4
 3219 17b9 36       		.uleb128 0x36
 3220 17ba 7200     		.ascii	"r\000"
 3221 17bc 01       		.byte	0x1
 3222 17bd 73       		.byte	0x73
 3223 17be F3050000 		.4byte	0x5f3
 3224 17c2 37       		.uleb128 0x37
 3225 17c3 0B050000 		.4byte	.LASF321
 3226 17c7 01       		.byte	0x1
 3227 17c8 73       		.byte	0x73
 3228 17c9 94000000 		.4byte	0x94
 3229 17cd 36       		.uleb128 0x36
 3230 17ce 70747200 		.ascii	"ptr\000"
 3231 17d2 01       		.byte	0x1
 3232 17d3 73       		.byte	0x73
 3233 17d4 36020000 		.4byte	0x236
 3234 17d8 36       		.uleb128 0x36
 3235 17d9 6C656E00 		.ascii	"len\000"
 3236 17dd 01       		.byte	0x1
 3237 17de 73       		.byte	0x73
 3238 17df 94000000 		.4byte	0x94
 3239 17e3 00       		.byte	0
 3240 17e4 27       		.uleb128 0x27
 3241 17e5 0B0D0000 		.4byte	.LASF324
 3242 17e9 01       		.byte	0x1
 3243 17ea 66       		.byte	0x66
 3244 17eb 94000000 		.4byte	0x94
 3245 17ef 00000000 		.4byte	.LFB291
 3246 17f3 04000000 		.4byte	.LFE291-.LFB291
 3247 17f7 01       		.uleb128 0x1
 3248 17f8 9C       		.byte	0x9c
 3249 17f9 32180000 		.4byte	0x1832
ARM GAS  /tmp/cc5kpRv7.s 			page 58


 3250 17fd 28       		.uleb128 0x28
 3251 17fe 7200     		.ascii	"r\000"
 3252 1800 01       		.byte	0x1
 3253 1801 66       		.byte	0x66
 3254 1802 F3050000 		.4byte	0x5f3
 3255 1806 F8000000 		.4byte	.LLST0
 3256 180a 2C       		.uleb128 0x2c
 3257 180b 0B050000 		.4byte	.LASF321
 3258 180f 01       		.byte	0x1
 3259 1810 66       		.byte	0x66
 3260 1811 94000000 		.4byte	0x94
 3261 1815 01       		.uleb128 0x1
 3262 1816 51       		.byte	0x51
 3263 1817 29       		.uleb128 0x29
 3264 1818 70747200 		.ascii	"ptr\000"
 3265 181c 01       		.byte	0x1
 3266 181d 66       		.byte	0x66
 3267 181e 94000000 		.4byte	0x94
 3268 1822 01       		.uleb128 0x1
 3269 1823 52       		.byte	0x52
 3270 1824 29       		.uleb128 0x29
 3271 1825 64697200 		.ascii	"dir\000"
 3272 1829 01       		.byte	0x1
 3273 182a 66       		.byte	0x66
 3274 182b 94000000 		.4byte	0x94
 3275 182f 01       		.uleb128 0x1
 3276 1830 53       		.byte	0x53
 3277 1831 00       		.byte	0
 3278 1832 38       		.uleb128 0x38
 3279 1833 61000000 		.4byte	.LASF93
 3280 1837 01       		.byte	0x1
 3281 1838 5A       		.byte	0x5a
 3282 1839 94000000 		.4byte	0x94
 3283 183d 6C180000 		.4byte	0x186c
 3284 1841 36       		.uleb128 0x36
 3285 1842 7200     		.ascii	"r\000"
 3286 1844 01       		.byte	0x1
 3287 1845 5A       		.byte	0x5a
 3288 1846 F3050000 		.4byte	0x5f3
 3289 184a 37       		.uleb128 0x37
 3290 184b 0B050000 		.4byte	.LASF321
 3291 184f 01       		.byte	0x1
 3292 1850 5A       		.byte	0x5a
 3293 1851 94000000 		.4byte	0x94
 3294 1855 36       		.uleb128 0x36
 3295 1856 70747200 		.ascii	"ptr\000"
 3296 185a 01       		.byte	0x1
 3297 185b 5A       		.byte	0x5a
 3298 185c 36020000 		.4byte	0x236
 3299 1860 36       		.uleb128 0x36
 3300 1861 6C656E00 		.ascii	"len\000"
 3301 1865 01       		.byte	0x1
 3302 1866 5A       		.byte	0x5a
 3303 1867 94000000 		.4byte	0x94
 3304 186b 00       		.byte	0
 3305 186c 39       		.uleb128 0x39
 3306 186d 2D050000 		.4byte	.LASF333
ARM GAS  /tmp/cc5kpRv7.s 			page 59


 3307 1871 02       		.byte	0x2
 3308 1872 9A       		.byte	0x9a
 3309 1873 BC010000 		.4byte	0x1bc
 3310 1877 03       		.byte	0x3
 3311 1878 93180000 		.4byte	0x1893
 3312 187c 37       		.uleb128 0x37
 3313 187d E40A0000 		.4byte	.LASF325
 3314 1881 02       		.byte	0x2
 3315 1882 9A       		.byte	0x9a
 3316 1883 6F140000 		.4byte	0x146f
 3317 1887 37       		.uleb128 0x37
 3318 1888 CF090000 		.4byte	.LASF262
 3319 188c 02       		.byte	0x2
 3320 188d 9A       		.byte	0x9a
 3321 188e A2000000 		.4byte	0xa2
 3322 1892 00       		.byte	0
 3323 1893 3A       		.uleb128 0x3a
 3324 1894 A9170000 		.4byte	0x17a9
 3325 1898 00000000 		.4byte	.LFB292
 3326 189c 06000000 		.4byte	.LFE292-.LFB292
 3327 18a0 01       		.uleb128 0x1
 3328 18a1 9C       		.byte	0x9c
 3329 18a2 C5180000 		.4byte	0x18c5
 3330 18a6 32       		.uleb128 0x32
 3331 18a7 B9170000 		.4byte	0x17b9
 3332 18ab 19010000 		.4byte	.LLST1
 3333 18af 3B       		.uleb128 0x3b
 3334 18b0 C2170000 		.4byte	0x17c2
 3335 18b4 01       		.uleb128 0x1
 3336 18b5 51       		.byte	0x51
 3337 18b6 3B       		.uleb128 0x3b
 3338 18b7 CD170000 		.4byte	0x17cd
 3339 18bb 01       		.uleb128 0x1
 3340 18bc 52       		.byte	0x52
 3341 18bd 3B       		.uleb128 0x3b
 3342 18be D8170000 		.4byte	0x17d8
 3343 18c2 01       		.uleb128 0x1
 3344 18c3 53       		.byte	0x53
 3345 18c4 00       		.byte	0
 3346 18c5 3C       		.uleb128 0x3c
 3347 18c6 590B0000 		.4byte	.LASF334
 3348 18ca 590B0000 		.4byte	.LASF334
 3349 18ce 02       		.byte	0x2
 3350 18cf 7F       		.byte	0x7f
 3351 18d0 00       		.byte	0
 3352              		.section	.debug_abbrev,"",%progbits
 3353              	.Ldebug_abbrev0:
 3354 0000 01       		.uleb128 0x1
 3355 0001 11       		.uleb128 0x11
 3356 0002 01       		.byte	0x1
 3357 0003 25       		.uleb128 0x25
 3358 0004 0E       		.uleb128 0xe
 3359 0005 13       		.uleb128 0x13
 3360 0006 0B       		.uleb128 0xb
 3361 0007 03       		.uleb128 0x3
 3362 0008 0E       		.uleb128 0xe
 3363 0009 1B       		.uleb128 0x1b
ARM GAS  /tmp/cc5kpRv7.s 			page 60


 3364 000a 0E       		.uleb128 0xe
 3365 000b 55       		.uleb128 0x55
 3366 000c 17       		.uleb128 0x17
 3367 000d 11       		.uleb128 0x11
 3368 000e 01       		.uleb128 0x1
 3369 000f 10       		.uleb128 0x10
 3370 0010 17       		.uleb128 0x17
 3371 0011 00       		.byte	0
 3372 0012 00       		.byte	0
 3373 0013 02       		.uleb128 0x2
 3374 0014 24       		.uleb128 0x24
 3375 0015 00       		.byte	0
 3376 0016 0B       		.uleb128 0xb
 3377 0017 0B       		.uleb128 0xb
 3378 0018 3E       		.uleb128 0x3e
 3379 0019 0B       		.uleb128 0xb
 3380 001a 03       		.uleb128 0x3
 3381 001b 0E       		.uleb128 0xe
 3382 001c 00       		.byte	0
 3383 001d 00       		.byte	0
 3384 001e 03       		.uleb128 0x3
 3385 001f 16       		.uleb128 0x16
 3386 0020 00       		.byte	0
 3387 0021 03       		.uleb128 0x3
 3388 0022 0E       		.uleb128 0xe
 3389 0023 3A       		.uleb128 0x3a
 3390 0024 0B       		.uleb128 0xb
 3391 0025 3B       		.uleb128 0x3b
 3392 0026 0B       		.uleb128 0xb
 3393 0027 49       		.uleb128 0x49
 3394 0028 13       		.uleb128 0x13
 3395 0029 00       		.byte	0
 3396 002a 00       		.byte	0
 3397 002b 04       		.uleb128 0x4
 3398 002c 24       		.uleb128 0x24
 3399 002d 00       		.byte	0
 3400 002e 0B       		.uleb128 0xb
 3401 002f 0B       		.uleb128 0xb
 3402 0030 3E       		.uleb128 0x3e
 3403 0031 0B       		.uleb128 0xb
 3404 0032 03       		.uleb128 0x3
 3405 0033 08       		.uleb128 0x8
 3406 0034 00       		.byte	0
 3407 0035 00       		.byte	0
 3408 0036 05       		.uleb128 0x5
 3409 0037 0F       		.uleb128 0xf
 3410 0038 00       		.byte	0
 3411 0039 0B       		.uleb128 0xb
 3412 003a 0B       		.uleb128 0xb
 3413 003b 49       		.uleb128 0x49
 3414 003c 13       		.uleb128 0x13
 3415 003d 00       		.byte	0
 3416 003e 00       		.byte	0
 3417 003f 06       		.uleb128 0x6
 3418 0040 13       		.uleb128 0x13
 3419 0041 00       		.byte	0
 3420 0042 03       		.uleb128 0x3
ARM GAS  /tmp/cc5kpRv7.s 			page 61


 3421 0043 0E       		.uleb128 0xe
 3422 0044 3C       		.uleb128 0x3c
 3423 0045 19       		.uleb128 0x19
 3424 0046 00       		.byte	0
 3425 0047 00       		.byte	0
 3426 0048 07       		.uleb128 0x7
 3427 0049 16       		.uleb128 0x16
 3428 004a 00       		.byte	0
 3429 004b 03       		.uleb128 0x3
 3430 004c 0E       		.uleb128 0xe
 3431 004d 3A       		.uleb128 0x3a
 3432 004e 0B       		.uleb128 0xb
 3433 004f 3B       		.uleb128 0x3b
 3434 0050 05       		.uleb128 0x5
 3435 0051 49       		.uleb128 0x49
 3436 0052 13       		.uleb128 0x13
 3437 0053 00       		.byte	0
 3438 0054 00       		.byte	0
 3439 0055 08       		.uleb128 0x8
 3440 0056 17       		.uleb128 0x17
 3441 0057 01       		.byte	0x1
 3442 0058 0B       		.uleb128 0xb
 3443 0059 0B       		.uleb128 0xb
 3444 005a 3A       		.uleb128 0x3a
 3445 005b 0B       		.uleb128 0xb
 3446 005c 3B       		.uleb128 0x3b
 3447 005d 0B       		.uleb128 0xb
 3448 005e 01       		.uleb128 0x1
 3449 005f 13       		.uleb128 0x13
 3450 0060 00       		.byte	0
 3451 0061 00       		.byte	0
 3452 0062 09       		.uleb128 0x9
 3453 0063 0D       		.uleb128 0xd
 3454 0064 00       		.byte	0
 3455 0065 03       		.uleb128 0x3
 3456 0066 0E       		.uleb128 0xe
 3457 0067 3A       		.uleb128 0x3a
 3458 0068 0B       		.uleb128 0xb
 3459 0069 3B       		.uleb128 0x3b
 3460 006a 0B       		.uleb128 0xb
 3461 006b 49       		.uleb128 0x49
 3462 006c 13       		.uleb128 0x13
 3463 006d 00       		.byte	0
 3464 006e 00       		.byte	0
 3465 006f 0A       		.uleb128 0xa
 3466 0070 01       		.uleb128 0x1
 3467 0071 01       		.byte	0x1
 3468 0072 49       		.uleb128 0x49
 3469 0073 13       		.uleb128 0x13
 3470 0074 01       		.uleb128 0x1
 3471 0075 13       		.uleb128 0x13
 3472 0076 00       		.byte	0
 3473 0077 00       		.byte	0
 3474 0078 0B       		.uleb128 0xb
 3475 0079 21       		.uleb128 0x21
 3476 007a 00       		.byte	0
 3477 007b 49       		.uleb128 0x49
ARM GAS  /tmp/cc5kpRv7.s 			page 62


 3478 007c 13       		.uleb128 0x13
 3479 007d 2F       		.uleb128 0x2f
 3480 007e 0B       		.uleb128 0xb
 3481 007f 00       		.byte	0
 3482 0080 00       		.byte	0
 3483 0081 0C       		.uleb128 0xc
 3484 0082 13       		.uleb128 0x13
 3485 0083 01       		.byte	0x1
 3486 0084 0B       		.uleb128 0xb
 3487 0085 0B       		.uleb128 0xb
 3488 0086 3A       		.uleb128 0x3a
 3489 0087 0B       		.uleb128 0xb
 3490 0088 3B       		.uleb128 0x3b
 3491 0089 0B       		.uleb128 0xb
 3492 008a 01       		.uleb128 0x1
 3493 008b 13       		.uleb128 0x13
 3494 008c 00       		.byte	0
 3495 008d 00       		.byte	0
 3496 008e 0D       		.uleb128 0xd
 3497 008f 0D       		.uleb128 0xd
 3498 0090 00       		.byte	0
 3499 0091 03       		.uleb128 0x3
 3500 0092 0E       		.uleb128 0xe
 3501 0093 3A       		.uleb128 0x3a
 3502 0094 0B       		.uleb128 0xb
 3503 0095 3B       		.uleb128 0x3b
 3504 0096 0B       		.uleb128 0xb
 3505 0097 49       		.uleb128 0x49
 3506 0098 13       		.uleb128 0x13
 3507 0099 38       		.uleb128 0x38
 3508 009a 0B       		.uleb128 0xb
 3509 009b 00       		.byte	0
 3510 009c 00       		.byte	0
 3511 009d 0E       		.uleb128 0xe
 3512 009e 0F       		.uleb128 0xf
 3513 009f 00       		.byte	0
 3514 00a0 0B       		.uleb128 0xb
 3515 00a1 0B       		.uleb128 0xb
 3516 00a2 00       		.byte	0
 3517 00a3 00       		.byte	0
 3518 00a4 0F       		.uleb128 0xf
 3519 00a5 26       		.uleb128 0x26
 3520 00a6 00       		.byte	0
 3521 00a7 49       		.uleb128 0x49
 3522 00a8 13       		.uleb128 0x13
 3523 00a9 00       		.byte	0
 3524 00aa 00       		.byte	0
 3525 00ab 10       		.uleb128 0x10
 3526 00ac 35       		.uleb128 0x35
 3527 00ad 00       		.byte	0
 3528 00ae 49       		.uleb128 0x49
 3529 00af 13       		.uleb128 0x13
 3530 00b0 00       		.byte	0
 3531 00b1 00       		.byte	0
 3532 00b2 11       		.uleb128 0x11
 3533 00b3 34       		.uleb128 0x34
 3534 00b4 00       		.byte	0
ARM GAS  /tmp/cc5kpRv7.s 			page 63


 3535 00b5 03       		.uleb128 0x3
 3536 00b6 0E       		.uleb128 0xe
 3537 00b7 3A       		.uleb128 0x3a
 3538 00b8 0B       		.uleb128 0xb
 3539 00b9 3B       		.uleb128 0x3b
 3540 00ba 0B       		.uleb128 0xb
 3541 00bb 49       		.uleb128 0x49
 3542 00bc 13       		.uleb128 0x13
 3543 00bd 3F       		.uleb128 0x3f
 3544 00be 19       		.uleb128 0x19
 3545 00bf 3C       		.uleb128 0x3c
 3546 00c0 19       		.uleb128 0x19
 3547 00c1 00       		.byte	0
 3548 00c2 00       		.byte	0
 3549 00c3 12       		.uleb128 0x12
 3550 00c4 13       		.uleb128 0x13
 3551 00c5 01       		.byte	0x1
 3552 00c6 03       		.uleb128 0x3
 3553 00c7 0E       		.uleb128 0xe
 3554 00c8 0B       		.uleb128 0xb
 3555 00c9 0B       		.uleb128 0xb
 3556 00ca 3A       		.uleb128 0x3a
 3557 00cb 0B       		.uleb128 0xb
 3558 00cc 3B       		.uleb128 0x3b
 3559 00cd 0B       		.uleb128 0xb
 3560 00ce 01       		.uleb128 0x1
 3561 00cf 13       		.uleb128 0x13
 3562 00d0 00       		.byte	0
 3563 00d1 00       		.byte	0
 3564 00d2 13       		.uleb128 0x13
 3565 00d3 0D       		.uleb128 0xd
 3566 00d4 00       		.byte	0
 3567 00d5 03       		.uleb128 0x3
 3568 00d6 08       		.uleb128 0x8
 3569 00d7 3A       		.uleb128 0x3a
 3570 00d8 0B       		.uleb128 0xb
 3571 00d9 3B       		.uleb128 0x3b
 3572 00da 0B       		.uleb128 0xb
 3573 00db 49       		.uleb128 0x49
 3574 00dc 13       		.uleb128 0x13
 3575 00dd 38       		.uleb128 0x38
 3576 00de 0B       		.uleb128 0xb
 3577 00df 00       		.byte	0
 3578 00e0 00       		.byte	0
 3579 00e1 14       		.uleb128 0x14
 3580 00e2 13       		.uleb128 0x13
 3581 00e3 01       		.byte	0x1
 3582 00e4 03       		.uleb128 0x3
 3583 00e5 0E       		.uleb128 0xe
 3584 00e6 0B       		.uleb128 0xb
 3585 00e7 05       		.uleb128 0x5
 3586 00e8 3A       		.uleb128 0x3a
 3587 00e9 0B       		.uleb128 0xb
 3588 00ea 3B       		.uleb128 0x3b
 3589 00eb 0B       		.uleb128 0xb
 3590 00ec 01       		.uleb128 0x1
 3591 00ed 13       		.uleb128 0x13
ARM GAS  /tmp/cc5kpRv7.s 			page 64


 3592 00ee 00       		.byte	0
 3593 00ef 00       		.byte	0
 3594 00f0 15       		.uleb128 0x15
 3595 00f1 0D       		.uleb128 0xd
 3596 00f2 00       		.byte	0
 3597 00f3 03       		.uleb128 0x3
 3598 00f4 0E       		.uleb128 0xe
 3599 00f5 3A       		.uleb128 0x3a
 3600 00f6 0B       		.uleb128 0xb
 3601 00f7 3B       		.uleb128 0x3b
 3602 00f8 0B       		.uleb128 0xb
 3603 00f9 49       		.uleb128 0x49
 3604 00fa 13       		.uleb128 0x13
 3605 00fb 38       		.uleb128 0x38
 3606 00fc 05       		.uleb128 0x5
 3607 00fd 00       		.byte	0
 3608 00fe 00       		.byte	0
 3609 00ff 16       		.uleb128 0x16
 3610 0100 15       		.uleb128 0x15
 3611 0101 00       		.byte	0
 3612 0102 27       		.uleb128 0x27
 3613 0103 19       		.uleb128 0x19
 3614 0104 00       		.byte	0
 3615 0105 00       		.byte	0
 3616 0106 17       		.uleb128 0x17
 3617 0107 15       		.uleb128 0x15
 3618 0108 01       		.byte	0x1
 3619 0109 27       		.uleb128 0x27
 3620 010a 19       		.uleb128 0x19
 3621 010b 49       		.uleb128 0x49
 3622 010c 13       		.uleb128 0x13
 3623 010d 01       		.uleb128 0x1
 3624 010e 13       		.uleb128 0x13
 3625 010f 00       		.byte	0
 3626 0110 00       		.byte	0
 3627 0111 18       		.uleb128 0x18
 3628 0112 05       		.uleb128 0x5
 3629 0113 00       		.byte	0
 3630 0114 49       		.uleb128 0x49
 3631 0115 13       		.uleb128 0x13
 3632 0116 00       		.byte	0
 3633 0117 00       		.byte	0
 3634 0118 19       		.uleb128 0x19
 3635 0119 13       		.uleb128 0x13
 3636 011a 01       		.byte	0x1
 3637 011b 03       		.uleb128 0x3
 3638 011c 0E       		.uleb128 0xe
 3639 011d 0B       		.uleb128 0xb
 3640 011e 05       		.uleb128 0x5
 3641 011f 3A       		.uleb128 0x3a
 3642 0120 0B       		.uleb128 0xb
 3643 0121 3B       		.uleb128 0x3b
 3644 0122 05       		.uleb128 0x5
 3645 0123 01       		.uleb128 0x1
 3646 0124 13       		.uleb128 0x13
 3647 0125 00       		.byte	0
 3648 0126 00       		.byte	0
ARM GAS  /tmp/cc5kpRv7.s 			page 65


 3649 0127 1A       		.uleb128 0x1a
 3650 0128 0D       		.uleb128 0xd
 3651 0129 00       		.byte	0
 3652 012a 03       		.uleb128 0x3
 3653 012b 0E       		.uleb128 0xe
 3654 012c 3A       		.uleb128 0x3a
 3655 012d 0B       		.uleb128 0xb
 3656 012e 3B       		.uleb128 0x3b
 3657 012f 05       		.uleb128 0x5
 3658 0130 49       		.uleb128 0x49
 3659 0131 13       		.uleb128 0x13
 3660 0132 38       		.uleb128 0x38
 3661 0133 0B       		.uleb128 0xb
 3662 0134 00       		.byte	0
 3663 0135 00       		.byte	0
 3664 0136 1B       		.uleb128 0x1b
 3665 0137 0D       		.uleb128 0xd
 3666 0138 00       		.byte	0
 3667 0139 03       		.uleb128 0x3
 3668 013a 0E       		.uleb128 0xe
 3669 013b 3A       		.uleb128 0x3a
 3670 013c 0B       		.uleb128 0xb
 3671 013d 3B       		.uleb128 0x3b
 3672 013e 05       		.uleb128 0x5
 3673 013f 49       		.uleb128 0x49
 3674 0140 13       		.uleb128 0x13
 3675 0141 38       		.uleb128 0x38
 3676 0142 05       		.uleb128 0x5
 3677 0143 00       		.byte	0
 3678 0144 00       		.byte	0
 3679 0145 1C       		.uleb128 0x1c
 3680 0146 13       		.uleb128 0x13
 3681 0147 01       		.byte	0x1
 3682 0148 03       		.uleb128 0x3
 3683 0149 0E       		.uleb128 0xe
 3684 014a 0B       		.uleb128 0xb
 3685 014b 0B       		.uleb128 0xb
 3686 014c 3A       		.uleb128 0x3a
 3687 014d 0B       		.uleb128 0xb
 3688 014e 3B       		.uleb128 0x3b
 3689 014f 05       		.uleb128 0x5
 3690 0150 01       		.uleb128 0x1
 3691 0151 13       		.uleb128 0x13
 3692 0152 00       		.byte	0
 3693 0153 00       		.byte	0
 3694 0154 1D       		.uleb128 0x1d
 3695 0155 13       		.uleb128 0x13
 3696 0156 01       		.byte	0x1
 3697 0157 0B       		.uleb128 0xb
 3698 0158 0B       		.uleb128 0xb
 3699 0159 3A       		.uleb128 0x3a
 3700 015a 0B       		.uleb128 0xb
 3701 015b 3B       		.uleb128 0x3b
 3702 015c 05       		.uleb128 0x5
 3703 015d 01       		.uleb128 0x1
 3704 015e 13       		.uleb128 0x13
 3705 015f 00       		.byte	0
ARM GAS  /tmp/cc5kpRv7.s 			page 66


 3706 0160 00       		.byte	0
 3707 0161 1E       		.uleb128 0x1e
 3708 0162 17       		.uleb128 0x17
 3709 0163 01       		.byte	0x1
 3710 0164 0B       		.uleb128 0xb
 3711 0165 0B       		.uleb128 0xb
 3712 0166 3A       		.uleb128 0x3a
 3713 0167 0B       		.uleb128 0xb
 3714 0168 3B       		.uleb128 0x3b
 3715 0169 05       		.uleb128 0x5
 3716 016a 01       		.uleb128 0x1
 3717 016b 13       		.uleb128 0x13
 3718 016c 00       		.byte	0
 3719 016d 00       		.byte	0
 3720 016e 1F       		.uleb128 0x1f
 3721 016f 0D       		.uleb128 0xd
 3722 0170 00       		.byte	0
 3723 0171 03       		.uleb128 0x3
 3724 0172 0E       		.uleb128 0xe
 3725 0173 3A       		.uleb128 0x3a
 3726 0174 0B       		.uleb128 0xb
 3727 0175 3B       		.uleb128 0x3b
 3728 0176 05       		.uleb128 0x5
 3729 0177 49       		.uleb128 0x49
 3730 0178 13       		.uleb128 0x13
 3731 0179 00       		.byte	0
 3732 017a 00       		.byte	0
 3733 017b 20       		.uleb128 0x20
 3734 017c 15       		.uleb128 0x15
 3735 017d 01       		.byte	0x1
 3736 017e 27       		.uleb128 0x27
 3737 017f 19       		.uleb128 0x19
 3738 0180 01       		.uleb128 0x1
 3739 0181 13       		.uleb128 0x13
 3740 0182 00       		.byte	0
 3741 0183 00       		.byte	0
 3742 0184 21       		.uleb128 0x21
 3743 0185 34       		.uleb128 0x34
 3744 0186 00       		.byte	0
 3745 0187 03       		.uleb128 0x3
 3746 0188 0E       		.uleb128 0xe
 3747 0189 3A       		.uleb128 0x3a
 3748 018a 0B       		.uleb128 0xb
 3749 018b 3B       		.uleb128 0x3b
 3750 018c 05       		.uleb128 0x5
 3751 018d 49       		.uleb128 0x49
 3752 018e 13       		.uleb128 0x13
 3753 018f 3F       		.uleb128 0x3f
 3754 0190 19       		.uleb128 0x19
 3755 0191 3C       		.uleb128 0x3c
 3756 0192 19       		.uleb128 0x19
 3757 0193 00       		.byte	0
 3758 0194 00       		.byte	0
 3759 0195 22       		.uleb128 0x22
 3760 0196 21       		.uleb128 0x21
 3761 0197 00       		.byte	0
 3762 0198 00       		.byte	0
ARM GAS  /tmp/cc5kpRv7.s 			page 67


 3763 0199 00       		.byte	0
 3764 019a 23       		.uleb128 0x23
 3765 019b 0D       		.uleb128 0xd
 3766 019c 00       		.byte	0
 3767 019d 03       		.uleb128 0x3
 3768 019e 08       		.uleb128 0x8
 3769 019f 3A       		.uleb128 0x3a
 3770 01a0 0B       		.uleb128 0xb
 3771 01a1 3B       		.uleb128 0x3b
 3772 01a2 05       		.uleb128 0x5
 3773 01a3 49       		.uleb128 0x49
 3774 01a4 13       		.uleb128 0x13
 3775 01a5 38       		.uleb128 0x38
 3776 01a6 0B       		.uleb128 0xb
 3777 01a7 00       		.byte	0
 3778 01a8 00       		.byte	0
 3779 01a9 24       		.uleb128 0x24
 3780 01aa 34       		.uleb128 0x34
 3781 01ab 00       		.byte	0
 3782 01ac 03       		.uleb128 0x3
 3783 01ad 08       		.uleb128 0x8
 3784 01ae 3A       		.uleb128 0x3a
 3785 01af 0B       		.uleb128 0xb
 3786 01b0 3B       		.uleb128 0x3b
 3787 01b1 05       		.uleb128 0x5
 3788 01b2 49       		.uleb128 0x49
 3789 01b3 13       		.uleb128 0x13
 3790 01b4 3F       		.uleb128 0x3f
 3791 01b5 19       		.uleb128 0x19
 3792 01b6 3C       		.uleb128 0x3c
 3793 01b7 19       		.uleb128 0x19
 3794 01b8 00       		.byte	0
 3795 01b9 00       		.byte	0
 3796 01ba 25       		.uleb128 0x25
 3797 01bb 17       		.uleb128 0x17
 3798 01bc 01       		.byte	0x1
 3799 01bd 03       		.uleb128 0x3
 3800 01be 0E       		.uleb128 0xe
 3801 01bf 0B       		.uleb128 0xb
 3802 01c0 0B       		.uleb128 0xb
 3803 01c1 3A       		.uleb128 0x3a
 3804 01c2 0B       		.uleb128 0xb
 3805 01c3 3B       		.uleb128 0x3b
 3806 01c4 0B       		.uleb128 0xb
 3807 01c5 01       		.uleb128 0x1
 3808 01c6 13       		.uleb128 0x13
 3809 01c7 00       		.byte	0
 3810 01c8 00       		.byte	0
 3811 01c9 26       		.uleb128 0x26
 3812 01ca 34       		.uleb128 0x34
 3813 01cb 00       		.byte	0
 3814 01cc 03       		.uleb128 0x3
 3815 01cd 0E       		.uleb128 0xe
 3816 01ce 3A       		.uleb128 0x3a
 3817 01cf 0B       		.uleb128 0xb
 3818 01d0 3B       		.uleb128 0x3b
 3819 01d1 0B       		.uleb128 0xb
ARM GAS  /tmp/cc5kpRv7.s 			page 68


 3820 01d2 49       		.uleb128 0x49
 3821 01d3 13       		.uleb128 0x13
 3822 01d4 3F       		.uleb128 0x3f
 3823 01d5 19       		.uleb128 0x19
 3824 01d6 02       		.uleb128 0x2
 3825 01d7 18       		.uleb128 0x18
 3826 01d8 00       		.byte	0
 3827 01d9 00       		.byte	0
 3828 01da 27       		.uleb128 0x27
 3829 01db 2E       		.uleb128 0x2e
 3830 01dc 01       		.byte	0x1
 3831 01dd 3F       		.uleb128 0x3f
 3832 01de 19       		.uleb128 0x19
 3833 01df 03       		.uleb128 0x3
 3834 01e0 0E       		.uleb128 0xe
 3835 01e1 3A       		.uleb128 0x3a
 3836 01e2 0B       		.uleb128 0xb
 3837 01e3 3B       		.uleb128 0x3b
 3838 01e4 0B       		.uleb128 0xb
 3839 01e5 27       		.uleb128 0x27
 3840 01e6 19       		.uleb128 0x19
 3841 01e7 49       		.uleb128 0x49
 3842 01e8 13       		.uleb128 0x13
 3843 01e9 11       		.uleb128 0x11
 3844 01ea 01       		.uleb128 0x1
 3845 01eb 12       		.uleb128 0x12
 3846 01ec 06       		.uleb128 0x6
 3847 01ed 40       		.uleb128 0x40
 3848 01ee 18       		.uleb128 0x18
 3849 01ef 9742     		.uleb128 0x2117
 3850 01f1 19       		.uleb128 0x19
 3851 01f2 01       		.uleb128 0x1
 3852 01f3 13       		.uleb128 0x13
 3853 01f4 00       		.byte	0
 3854 01f5 00       		.byte	0
 3855 01f6 28       		.uleb128 0x28
 3856 01f7 05       		.uleb128 0x5
 3857 01f8 00       		.byte	0
 3858 01f9 03       		.uleb128 0x3
 3859 01fa 08       		.uleb128 0x8
 3860 01fb 3A       		.uleb128 0x3a
 3861 01fc 0B       		.uleb128 0xb
 3862 01fd 3B       		.uleb128 0x3b
 3863 01fe 0B       		.uleb128 0xb
 3864 01ff 49       		.uleb128 0x49
 3865 0200 13       		.uleb128 0x13
 3866 0201 02       		.uleb128 0x2
 3867 0202 17       		.uleb128 0x17
 3868 0203 00       		.byte	0
 3869 0204 00       		.byte	0
 3870 0205 29       		.uleb128 0x29
 3871 0206 05       		.uleb128 0x5
 3872 0207 00       		.byte	0
 3873 0208 03       		.uleb128 0x3
 3874 0209 08       		.uleb128 0x8
 3875 020a 3A       		.uleb128 0x3a
 3876 020b 0B       		.uleb128 0xb
ARM GAS  /tmp/cc5kpRv7.s 			page 69


 3877 020c 3B       		.uleb128 0x3b
 3878 020d 0B       		.uleb128 0xb
 3879 020e 49       		.uleb128 0x49
 3880 020f 13       		.uleb128 0x13
 3881 0210 02       		.uleb128 0x2
 3882 0211 18       		.uleb128 0x18
 3883 0212 00       		.byte	0
 3884 0213 00       		.byte	0
 3885 0214 2A       		.uleb128 0x2a
 3886 0215 2E       		.uleb128 0x2e
 3887 0216 00       		.byte	0
 3888 0217 3F       		.uleb128 0x3f
 3889 0218 19       		.uleb128 0x19
 3890 0219 03       		.uleb128 0x3
 3891 021a 0E       		.uleb128 0xe
 3892 021b 3A       		.uleb128 0x3a
 3893 021c 0B       		.uleb128 0xb
 3894 021d 3B       		.uleb128 0x3b
 3895 021e 0B       		.uleb128 0xb
 3896 021f 27       		.uleb128 0x27
 3897 0220 19       		.uleb128 0x19
 3898 0221 11       		.uleb128 0x11
 3899 0222 01       		.uleb128 0x1
 3900 0223 12       		.uleb128 0x12
 3901 0224 06       		.uleb128 0x6
 3902 0225 40       		.uleb128 0x40
 3903 0226 18       		.uleb128 0x18
 3904 0227 9742     		.uleb128 0x2117
 3905 0229 19       		.uleb128 0x19
 3906 022a 00       		.byte	0
 3907 022b 00       		.byte	0
 3908 022c 2B       		.uleb128 0x2b
 3909 022d 2E       		.uleb128 0x2e
 3910 022e 01       		.byte	0x1
 3911 022f 3F       		.uleb128 0x3f
 3912 0230 19       		.uleb128 0x19
 3913 0231 03       		.uleb128 0x3
 3914 0232 0E       		.uleb128 0xe
 3915 0233 3A       		.uleb128 0x3a
 3916 0234 0B       		.uleb128 0xb
 3917 0235 3B       		.uleb128 0x3b
 3918 0236 0B       		.uleb128 0xb
 3919 0237 27       		.uleb128 0x27
 3920 0238 19       		.uleb128 0x19
 3921 0239 8701     		.uleb128 0x87
 3922 023b 19       		.uleb128 0x19
 3923 023c 11       		.uleb128 0x11
 3924 023d 01       		.uleb128 0x1
 3925 023e 12       		.uleb128 0x12
 3926 023f 06       		.uleb128 0x6
 3927 0240 40       		.uleb128 0x40
 3928 0241 18       		.uleb128 0x18
 3929 0242 9742     		.uleb128 0x2117
 3930 0244 19       		.uleb128 0x19
 3931 0245 01       		.uleb128 0x1
 3932 0246 13       		.uleb128 0x13
 3933 0247 00       		.byte	0
ARM GAS  /tmp/cc5kpRv7.s 			page 70


 3934 0248 00       		.byte	0
 3935 0249 2C       		.uleb128 0x2c
 3936 024a 05       		.uleb128 0x5
 3937 024b 00       		.byte	0
 3938 024c 03       		.uleb128 0x3
 3939 024d 0E       		.uleb128 0xe
 3940 024e 3A       		.uleb128 0x3a
 3941 024f 0B       		.uleb128 0xb
 3942 0250 3B       		.uleb128 0x3b
 3943 0251 0B       		.uleb128 0xb
 3944 0252 49       		.uleb128 0x49
 3945 0253 13       		.uleb128 0x13
 3946 0254 02       		.uleb128 0x2
 3947 0255 18       		.uleb128 0x18
 3948 0256 00       		.byte	0
 3949 0257 00       		.byte	0
 3950 0258 2D       		.uleb128 0x2d
 3951 0259 2E       		.uleb128 0x2e
 3952 025a 00       		.byte	0
 3953 025b 3F       		.uleb128 0x3f
 3954 025c 19       		.uleb128 0x19
 3955 025d 03       		.uleb128 0x3
 3956 025e 0E       		.uleb128 0xe
 3957 025f 3A       		.uleb128 0x3a
 3958 0260 0B       		.uleb128 0xb
 3959 0261 3B       		.uleb128 0x3b
 3960 0262 0B       		.uleb128 0xb
 3961 0263 27       		.uleb128 0x27
 3962 0264 19       		.uleb128 0x19
 3963 0265 49       		.uleb128 0x49
 3964 0266 13       		.uleb128 0x13
 3965 0267 11       		.uleb128 0x11
 3966 0268 01       		.uleb128 0x1
 3967 0269 12       		.uleb128 0x12
 3968 026a 06       		.uleb128 0x6
 3969 026b 40       		.uleb128 0x40
 3970 026c 18       		.uleb128 0x18
 3971 026d 9742     		.uleb128 0x2117
 3972 026f 19       		.uleb128 0x19
 3973 0270 00       		.byte	0
 3974 0271 00       		.byte	0
 3975 0272 2E       		.uleb128 0x2e
 3976 0273 05       		.uleb128 0x5
 3977 0274 00       		.byte	0
 3978 0275 03       		.uleb128 0x3
 3979 0276 0E       		.uleb128 0xe
 3980 0277 3A       		.uleb128 0x3a
 3981 0278 0B       		.uleb128 0xb
 3982 0279 3B       		.uleb128 0x3b
 3983 027a 0B       		.uleb128 0xb
 3984 027b 49       		.uleb128 0x49
 3985 027c 13       		.uleb128 0x13
 3986 027d 02       		.uleb128 0x2
 3987 027e 17       		.uleb128 0x17
 3988 027f 00       		.byte	0
 3989 0280 00       		.byte	0
 3990 0281 2F       		.uleb128 0x2f
ARM GAS  /tmp/cc5kpRv7.s 			page 71


 3991 0282 34       		.uleb128 0x34
 3992 0283 00       		.byte	0
 3993 0284 03       		.uleb128 0x3
 3994 0285 08       		.uleb128 0x8
 3995 0286 3A       		.uleb128 0x3a
 3996 0287 0B       		.uleb128 0xb
 3997 0288 3B       		.uleb128 0x3b
 3998 0289 0B       		.uleb128 0xb
 3999 028a 49       		.uleb128 0x49
 4000 028b 13       		.uleb128 0x13
 4001 028c 00       		.byte	0
 4002 028d 00       		.byte	0
 4003 028e 30       		.uleb128 0x30
 4004 028f 34       		.uleb128 0x34
 4005 0290 00       		.byte	0
 4006 0291 03       		.uleb128 0x3
 4007 0292 0E       		.uleb128 0xe
 4008 0293 49       		.uleb128 0x49
 4009 0294 13       		.uleb128 0x13
 4010 0295 34       		.uleb128 0x34
 4011 0296 19       		.uleb128 0x19
 4012 0297 00       		.byte	0
 4013 0298 00       		.byte	0
 4014 0299 31       		.uleb128 0x31
 4015 029a 1D       		.uleb128 0x1d
 4016 029b 01       		.byte	0x1
 4017 029c 31       		.uleb128 0x31
 4018 029d 13       		.uleb128 0x13
 4019 029e 52       		.uleb128 0x52
 4020 029f 01       		.uleb128 0x1
 4021 02a0 55       		.uleb128 0x55
 4022 02a1 17       		.uleb128 0x17
 4023 02a2 58       		.uleb128 0x58
 4024 02a3 0B       		.uleb128 0xb
 4025 02a4 59       		.uleb128 0x59
 4026 02a5 0B       		.uleb128 0xb
 4027 02a6 00       		.byte	0
 4028 02a7 00       		.byte	0
 4029 02a8 32       		.uleb128 0x32
 4030 02a9 05       		.uleb128 0x5
 4031 02aa 00       		.byte	0
 4032 02ab 31       		.uleb128 0x31
 4033 02ac 13       		.uleb128 0x13
 4034 02ad 02       		.uleb128 0x2
 4035 02ae 17       		.uleb128 0x17
 4036 02af 00       		.byte	0
 4037 02b0 00       		.byte	0
 4038 02b1 33       		.uleb128 0x33
 4039 02b2 898201   		.uleb128 0x4109
 4040 02b5 01       		.byte	0x1
 4041 02b6 11       		.uleb128 0x11
 4042 02b7 01       		.uleb128 0x1
 4043 02b8 31       		.uleb128 0x31
 4044 02b9 13       		.uleb128 0x13
 4045 02ba 00       		.byte	0
 4046 02bb 00       		.byte	0
 4047 02bc 34       		.uleb128 0x34
ARM GAS  /tmp/cc5kpRv7.s 			page 72


 4048 02bd 8A8201   		.uleb128 0x410a
 4049 02c0 00       		.byte	0
 4050 02c1 02       		.uleb128 0x2
 4051 02c2 18       		.uleb128 0x18
 4052 02c3 9142     		.uleb128 0x2111
 4053 02c5 18       		.uleb128 0x18
 4054 02c6 00       		.byte	0
 4055 02c7 00       		.byte	0
 4056 02c8 35       		.uleb128 0x35
 4057 02c9 2E       		.uleb128 0x2e
 4058 02ca 01       		.byte	0x1
 4059 02cb 3F       		.uleb128 0x3f
 4060 02cc 19       		.uleb128 0x19
 4061 02cd 03       		.uleb128 0x3
 4062 02ce 0E       		.uleb128 0xe
 4063 02cf 3A       		.uleb128 0x3a
 4064 02d0 0B       		.uleb128 0xb
 4065 02d1 3B       		.uleb128 0x3b
 4066 02d2 0B       		.uleb128 0xb
 4067 02d3 27       		.uleb128 0x27
 4068 02d4 19       		.uleb128 0x19
 4069 02d5 49       		.uleb128 0x49
 4070 02d6 13       		.uleb128 0x13
 4071 02d7 20       		.uleb128 0x20
 4072 02d8 0B       		.uleb128 0xb
 4073 02d9 01       		.uleb128 0x1
 4074 02da 13       		.uleb128 0x13
 4075 02db 00       		.byte	0
 4076 02dc 00       		.byte	0
 4077 02dd 36       		.uleb128 0x36
 4078 02de 05       		.uleb128 0x5
 4079 02df 00       		.byte	0
 4080 02e0 03       		.uleb128 0x3
 4081 02e1 08       		.uleb128 0x8
 4082 02e2 3A       		.uleb128 0x3a
 4083 02e3 0B       		.uleb128 0xb
 4084 02e4 3B       		.uleb128 0x3b
 4085 02e5 0B       		.uleb128 0xb
 4086 02e6 49       		.uleb128 0x49
 4087 02e7 13       		.uleb128 0x13
 4088 02e8 00       		.byte	0
 4089 02e9 00       		.byte	0
 4090 02ea 37       		.uleb128 0x37
 4091 02eb 05       		.uleb128 0x5
 4092 02ec 00       		.byte	0
 4093 02ed 03       		.uleb128 0x3
 4094 02ee 0E       		.uleb128 0xe
 4095 02ef 3A       		.uleb128 0x3a
 4096 02f0 0B       		.uleb128 0xb
 4097 02f1 3B       		.uleb128 0x3b
 4098 02f2 0B       		.uleb128 0xb
 4099 02f3 49       		.uleb128 0x49
 4100 02f4 13       		.uleb128 0x13
 4101 02f5 00       		.byte	0
 4102 02f6 00       		.byte	0
 4103 02f7 38       		.uleb128 0x38
 4104 02f8 2E       		.uleb128 0x2e
ARM GAS  /tmp/cc5kpRv7.s 			page 73


 4105 02f9 01       		.byte	0x1
 4106 02fa 3F       		.uleb128 0x3f
 4107 02fb 19       		.uleb128 0x19
 4108 02fc 03       		.uleb128 0x3
 4109 02fd 0E       		.uleb128 0xe
 4110 02fe 3A       		.uleb128 0x3a
 4111 02ff 0B       		.uleb128 0xb
 4112 0300 3B       		.uleb128 0x3b
 4113 0301 0B       		.uleb128 0xb
 4114 0302 27       		.uleb128 0x27
 4115 0303 19       		.uleb128 0x19
 4116 0304 49       		.uleb128 0x49
 4117 0305 13       		.uleb128 0x13
 4118 0306 01       		.uleb128 0x1
 4119 0307 13       		.uleb128 0x13
 4120 0308 00       		.byte	0
 4121 0309 00       		.byte	0
 4122 030a 39       		.uleb128 0x39
 4123 030b 2E       		.uleb128 0x2e
 4124 030c 01       		.byte	0x1
 4125 030d 03       		.uleb128 0x3
 4126 030e 0E       		.uleb128 0xe
 4127 030f 3A       		.uleb128 0x3a
 4128 0310 0B       		.uleb128 0xb
 4129 0311 3B       		.uleb128 0x3b
 4130 0312 0B       		.uleb128 0xb
 4131 0313 27       		.uleb128 0x27
 4132 0314 19       		.uleb128 0x19
 4133 0315 49       		.uleb128 0x49
 4134 0316 13       		.uleb128 0x13
 4135 0317 20       		.uleb128 0x20
 4136 0318 0B       		.uleb128 0xb
 4137 0319 01       		.uleb128 0x1
 4138 031a 13       		.uleb128 0x13
 4139 031b 00       		.byte	0
 4140 031c 00       		.byte	0
 4141 031d 3A       		.uleb128 0x3a
 4142 031e 2E       		.uleb128 0x2e
 4143 031f 01       		.byte	0x1
 4144 0320 31       		.uleb128 0x31
 4145 0321 13       		.uleb128 0x13
 4146 0322 11       		.uleb128 0x11
 4147 0323 01       		.uleb128 0x1
 4148 0324 12       		.uleb128 0x12
 4149 0325 06       		.uleb128 0x6
 4150 0326 40       		.uleb128 0x40
 4151 0327 18       		.uleb128 0x18
 4152 0328 9742     		.uleb128 0x2117
 4153 032a 19       		.uleb128 0x19
 4154 032b 01       		.uleb128 0x1
 4155 032c 13       		.uleb128 0x13
 4156 032d 00       		.byte	0
 4157 032e 00       		.byte	0
 4158 032f 3B       		.uleb128 0x3b
 4159 0330 05       		.uleb128 0x5
 4160 0331 00       		.byte	0
 4161 0332 31       		.uleb128 0x31
ARM GAS  /tmp/cc5kpRv7.s 			page 74


 4162 0333 13       		.uleb128 0x13
 4163 0334 02       		.uleb128 0x2
 4164 0335 18       		.uleb128 0x18
 4165 0336 00       		.byte	0
 4166 0337 00       		.byte	0
 4167 0338 3C       		.uleb128 0x3c
 4168 0339 2E       		.uleb128 0x2e
 4169 033a 00       		.byte	0
 4170 033b 3F       		.uleb128 0x3f
 4171 033c 19       		.uleb128 0x19
 4172 033d 3C       		.uleb128 0x3c
 4173 033e 19       		.uleb128 0x19
 4174 033f 6E       		.uleb128 0x6e
 4175 0340 0E       		.uleb128 0xe
 4176 0341 03       		.uleb128 0x3
 4177 0342 0E       		.uleb128 0xe
 4178 0343 3A       		.uleb128 0x3a
 4179 0344 0B       		.uleb128 0xb
 4180 0345 3B       		.uleb128 0x3b
 4181 0346 0B       		.uleb128 0xb
 4182 0347 00       		.byte	0
 4183 0348 00       		.byte	0
 4184 0349 00       		.byte	0
 4185              		.section	.debug_loc,"",%progbits
 4186              	.Ldebug_loc0:
 4187              	.LLST9:
 4188 0000 00000000 		.4byte	.LVL15
 4189 0004 04000000 		.4byte	.LVL16
 4190 0008 0100     		.2byte	0x1
 4191 000a 50       		.byte	0x50
 4192 000b 04000000 		.4byte	.LVL16
 4193 000f 06000000 		.4byte	.LFE300
 4194 0013 0400     		.2byte	0x4
 4195 0015 F3       		.byte	0xf3
 4196 0016 01       		.uleb128 0x1
 4197 0017 50       		.byte	0x50
 4198 0018 9F       		.byte	0x9f
 4199 0019 00000000 		.4byte	0
 4200 001d 00000000 		.4byte	0
 4201              	.LLST8:
 4202 0021 00000000 		.4byte	.LVL12
 4203 0025 02000000 		.4byte	.LVL13
 4204 0029 0100     		.2byte	0x1
 4205 002b 50       		.byte	0x50
 4206 002c 02000000 		.4byte	.LVL13
 4207 0030 04000000 		.4byte	.LFE296
 4208 0034 0400     		.2byte	0x4
 4209 0036 F3       		.byte	0xf3
 4210 0037 01       		.uleb128 0x1
 4211 0038 50       		.byte	0x50
 4212 0039 9F       		.byte	0x9f
 4213 003a 00000000 		.4byte	0
 4214 003e 00000000 		.4byte	0
 4215              	.LLST7:
 4216 0042 00000000 		.4byte	.LVL10
 4217 0046 04000000 		.4byte	.LVL11
 4218 004a 0100     		.2byte	0x1
ARM GAS  /tmp/cc5kpRv7.s 			page 75


 4219 004c 50       		.byte	0x50
 4220 004d 04000000 		.4byte	.LVL11
 4221 0051 06000000 		.4byte	.LFE295
 4222 0055 0400     		.2byte	0x4
 4223 0057 F3       		.byte	0xf3
 4224 0058 01       		.uleb128 0x1
 4225 0059 50       		.byte	0x50
 4226 005a 9F       		.byte	0x9f
 4227 005b 00000000 		.4byte	0
 4228 005f 00000000 		.4byte	0
 4229              	.LLST3:
 4230 0063 00000000 		.4byte	.LVL6
 4231 0067 08000000 		.4byte	.LVL8
 4232 006b 0100     		.2byte	0x1
 4233 006d 50       		.byte	0x50
 4234 006e 08000000 		.4byte	.LVL8
 4235 0072 18000000 		.4byte	.LFE294
 4236 0076 0100     		.2byte	0x1
 4237 0078 54       		.byte	0x54
 4238 0079 00000000 		.4byte	0
 4239 007d 00000000 		.4byte	0
 4240              	.LLST4:
 4241 0081 00000000 		.4byte	.LVL6
 4242 0085 0B000000 		.4byte	.LVL9-1
 4243 0089 0100     		.2byte	0x1
 4244 008b 51       		.byte	0x51
 4245 008c 0B000000 		.4byte	.LVL9-1
 4246 0090 18000000 		.4byte	.LFE294
 4247 0094 0400     		.2byte	0x4
 4248 0096 F3       		.byte	0xf3
 4249 0097 01       		.uleb128 0x1
 4250 0098 51       		.byte	0x51
 4251 0099 9F       		.byte	0x9f
 4252 009a 00000000 		.4byte	0
 4253 009e 00000000 		.4byte	0
 4254              	.LLST5:
 4255 00a2 06000000 		.4byte	.LVL7
 4256 00a6 0C000000 		.4byte	.LVL9
 4257 00aa 0200     		.2byte	0x2
 4258 00ac 30       		.byte	0x30
 4259 00ad 9F       		.byte	0x9f
 4260 00ae 00000000 		.4byte	0
 4261 00b2 00000000 		.4byte	0
 4262              	.LLST6:
 4263 00b6 06000000 		.4byte	.LVL7
 4264 00ba 0B000000 		.4byte	.LVL9-1
 4265 00be 0100     		.2byte	0x1
 4266 00c0 51       		.byte	0x51
 4267 00c1 0B000000 		.4byte	.LVL9-1
 4268 00c5 0C000000 		.4byte	.LVL9
 4269 00c9 0400     		.2byte	0x4
 4270 00cb F3       		.byte	0xf3
 4271 00cc 01       		.uleb128 0x1
 4272 00cd 51       		.byte	0x51
 4273 00ce 9F       		.byte	0x9f
 4274 00cf 00000000 		.4byte	0
 4275 00d3 00000000 		.4byte	0
ARM GAS  /tmp/cc5kpRv7.s 			page 76


 4276              	.LLST2:
 4277 00d7 00000000 		.4byte	.LVL4
 4278 00db 02000000 		.4byte	.LVL5
 4279 00df 0100     		.2byte	0x1
 4280 00e1 50       		.byte	0x50
 4281 00e2 02000000 		.4byte	.LVL5
 4282 00e6 04000000 		.4byte	.LFE293
 4283 00ea 0400     		.2byte	0x4
 4284 00ec F3       		.byte	0xf3
 4285 00ed 01       		.uleb128 0x1
 4286 00ee 50       		.byte	0x50
 4287 00ef 9F       		.byte	0x9f
 4288 00f0 00000000 		.4byte	0
 4289 00f4 00000000 		.4byte	0
 4290              	.LLST0:
 4291 00f8 00000000 		.4byte	.LVL0
 4292 00fc 02000000 		.4byte	.LVL1
 4293 0100 0100     		.2byte	0x1
 4294 0102 50       		.byte	0x50
 4295 0103 02000000 		.4byte	.LVL1
 4296 0107 04000000 		.4byte	.LFE291
 4297 010b 0400     		.2byte	0x4
 4298 010d F3       		.byte	0xf3
 4299 010e 01       		.uleb128 0x1
 4300 010f 50       		.byte	0x50
 4301 0110 9F       		.byte	0x9f
 4302 0111 00000000 		.4byte	0
 4303 0115 00000000 		.4byte	0
 4304              	.LLST1:
 4305 0119 00000000 		.4byte	.LVL2
 4306 011d 04000000 		.4byte	.LVL3
 4307 0121 0100     		.2byte	0x1
 4308 0123 50       		.byte	0x50
 4309 0124 04000000 		.4byte	.LVL3
 4310 0128 06000000 		.4byte	.LFE292
 4311 012c 0400     		.2byte	0x4
 4312 012e F3       		.byte	0xf3
 4313 012f 01       		.uleb128 0x1
 4314 0130 50       		.byte	0x50
 4315 0131 9F       		.byte	0x9f
 4316 0132 00000000 		.4byte	0
 4317 0136 00000000 		.4byte	0
 4318              		.section	.debug_aranges,"",%progbits
 4319 0000 64000000 		.4byte	0x64
 4320 0004 0200     		.2byte	0x2
 4321 0006 00000000 		.4byte	.Ldebug_info0
 4322 000a 04       		.byte	0x4
 4323 000b 00       		.byte	0
 4324 000c 0000     		.2byte	0
 4325 000e 0000     		.2byte	0
 4326 0010 00000000 		.4byte	.LFB291
 4327 0014 04000000 		.4byte	.LFE291-.LFB291
 4328 0018 00000000 		.4byte	.LFB292
 4329 001c 06000000 		.4byte	.LFE292-.LFB292
 4330 0020 00000000 		.4byte	.LFB293
 4331 0024 04000000 		.4byte	.LFE293-.LFB293
 4332 0028 00000000 		.4byte	.LFB294
ARM GAS  /tmp/cc5kpRv7.s 			page 77


 4333 002c 18000000 		.4byte	.LFE294-.LFB294
 4334 0030 00000000 		.4byte	.LFB295
 4335 0034 06000000 		.4byte	.LFE295-.LFB295
 4336 0038 00000000 		.4byte	.LFB296
 4337 003c 04000000 		.4byte	.LFE296-.LFB296
 4338 0040 00000000 		.4byte	.LFB297
 4339 0044 04000000 		.4byte	.LFE297-.LFB297
 4340 0048 00000000 		.4byte	.LFB298
 4341 004c 02000000 		.4byte	.LFE298-.LFB298
 4342 0050 00000000 		.4byte	.LFB299
 4343 0054 02000000 		.4byte	.LFE299-.LFB299
 4344 0058 00000000 		.4byte	.LFB300
 4345 005c 06000000 		.4byte	.LFE300-.LFB300
 4346 0060 00000000 		.4byte	0
 4347 0064 00000000 		.4byte	0
 4348              		.section	.debug_ranges,"",%progbits
 4349              	.Ldebug_ranges0:
 4350 0000 02000000 		.4byte	.LBB4
 4351 0004 04000000 		.4byte	.LBE4
 4352 0008 06000000 		.4byte	.LBB7
 4353 000c 0C000000 		.4byte	.LBE7
 4354 0010 00000000 		.4byte	0
 4355 0014 00000000 		.4byte	0
 4356 0018 00000000 		.4byte	.LFB291
 4357 001c 04000000 		.4byte	.LFE291
 4358 0020 00000000 		.4byte	.LFB292
 4359 0024 06000000 		.4byte	.LFE292
 4360 0028 00000000 		.4byte	.LFB293
 4361 002c 04000000 		.4byte	.LFE293
 4362 0030 00000000 		.4byte	.LFB294
 4363 0034 18000000 		.4byte	.LFE294
 4364 0038 00000000 		.4byte	.LFB295
 4365 003c 06000000 		.4byte	.LFE295
 4366 0040 00000000 		.4byte	.LFB296
 4367 0044 04000000 		.4byte	.LFE296
 4368 0048 00000000 		.4byte	.LFB297
 4369 004c 04000000 		.4byte	.LFE297
 4370 0050 00000000 		.4byte	.LFB298
 4371 0054 02000000 		.4byte	.LFE298
 4372 0058 00000000 		.4byte	.LFB299
 4373 005c 02000000 		.4byte	.LFE299
 4374 0060 00000000 		.4byte	.LFB300
 4375 0064 06000000 		.4byte	.LFE300
 4376 0068 00000000 		.4byte	0
 4377 006c 00000000 		.4byte	0
 4378              		.section	.debug_line,"",%progbits
 4379              	.Ldebug_line0:
 4380 0000 BF040000 		.section	.debug_str,"MS",%progbits,1
 4380      0200FB03 
 4380      00000201 
 4380      FB0E0D00 
 4380      01010101 
 4381              	.LASF268:
 4382 0000 6F66665F 		.ascii	"off_ctx\000"
 4382      63747800 
 4383              	.LASF289:
 4384 0008 6D656D6F 		.ascii	"memory_heap\000"
ARM GAS  /tmp/cc5kpRv7.s 			page 78


 4384      72795F68 
 4384      65617000 
 4385              	.LASF14:
 4386 0014 73697A65 		.ascii	"size_t\000"
 4386      5F7400
 4387              	.LASF267:
 4388 001b 6F66665F 		.ascii	"off_prio\000"
 4388      7072696F 
 4388      00
 4389              	.LASF31:
 4390 0024 73697A65 		.ascii	"sizetype\000"
 4390      74797065 
 4390      00
 4391              	.LASF158:
 4392 002d 5F5F6C6F 		.ascii	"__locale_t\000"
 4392      63616C65 
 4392      5F7400
 4393              	.LASF33:
 4394 0038 5F5F7661 		.ascii	"__value\000"
 4394      6C756500 
 4395              	.LASF236:
 4396 0040 73797374 		.ascii	"systime_t\000"
 4396      696D655F 
 4396      7400
 4397              	.LASF276:
 4398 004a 6F66665F 		.ascii	"off_preempt\000"
 4398      70726565 
 4398      6D707400 
 4399              	.LASF126:
 4400 0056 5F5F7366 		.ascii	"__sf\000"
 4400      00
 4401              	.LASF258:
 4402 005b 6F776E65 		.ascii	"owner\000"
 4402      7200
 4403              	.LASF93:
 4404 0061 5F726561 		.ascii	"_read\000"
 4404      6400
 4405              	.LASF188:
 4406 0067 74707269 		.ascii	"tprio_t\000"
 4406      6F5F7400 
 4407              	.LASF182:
 4408 006f 73745F62 		.ascii	"st_blocks\000"
 4408      6C6F636B 
 4408      7300
 4409              	.LASF279:
 4410 0079 63685F64 		.ascii	"ch_debug\000"
 4410      65627567 
 4410      00
 4411              	.LASF115:
 4412 0082 5F5F636C 		.ascii	"__cleanup\000"
 4412      65616E75 
 4412      7000
 4413              	.LASF290:
 4414 008c 70726F76 		.ascii	"provider\000"
 4414      69646572 
 4414      00
 4415              	.LASF94:
ARM GAS  /tmp/cc5kpRv7.s 			page 79


 4416 0095 5F777269 		.ascii	"_write\000"
 4416      746500
 4417              	.LASF39:
 4418 009c 696E7433 		.ascii	"int32_t\000"
 4418      325F7400 
 4419              	.LASF137:
 4420 00a4 5F617363 		.ascii	"_asctime_buf\000"
 4420      74696D65 
 4420      5F627566 
 4420      00
 4421              	.LASF120:
 4422 00b1 5F637674 		.ascii	"_cvtlen\000"
 4422      6C656E00 
 4423              	.LASF220:
 4424 00b9 76746675 		.ascii	"vtfunc_t\000"
 4424      6E635F74 
 4424      00
 4425              	.LASF332:
 4426 00c2 5F5F6675 		.ascii	"__func__\000"
 4426      6E635F5F 
 4426      00
 4427              	.LASF226:
 4428 00cb 63685F76 		.ascii	"ch_virtual_timers_list\000"
 4428      69727475 
 4428      616C5F74 
 4428      696D6572 
 4428      735F6C69 
 4429              	.LASF49:
 4430 00e2 6465765F 		.ascii	"dev_t\000"
 4430      7400
 4431              	.LASF54:
 4432 00e8 6E6C696E 		.ascii	"nlink_t\000"
 4432      6B5F7400 
 4433              	.LASF23:
 4434 00f0 5F5F6769 		.ascii	"__gid_t\000"
 4434      645F7400 
 4435              	.LASF156:
 4436 00f8 5F756E75 		.ascii	"_unused\000"
 4436      73656400 
 4437              	.LASF67:
 4438 0100 5F5F746D 		.ascii	"__tm\000"
 4438      00
 4439              	.LASF152:
 4440 0105 5F776373 		.ascii	"_wcsrtombs_state\000"
 4440      72746F6D 
 4440      62735F73 
 4440      74617465 
 4440      00
 4441              	.LASF98:
 4442 0116 5F6E6275 		.ascii	"_nbuf\000"
 4442      6600
 4443              	.LASF68:
 4444 011c 5F5F746D 		.ascii	"__tm_sec\000"
 4444      5F736563 
 4444      00
 4445              	.LASF145:
 4446 0125 5F6C3634 		.ascii	"_l64a_buf\000"
ARM GAS  /tmp/cc5kpRv7.s 			page 80


 4446      615F6275 
 4446      6600
 4447              	.LASF42:
 4448 012f 74696D65 		.ascii	"time_t\000"
 4448      5F7400
 4449              	.LASF301:
 4450 0136 63685F64 		.ascii	"ch_dyn_element\000"
 4450      796E5F65 
 4450      6C656D65 
 4450      6E7400
 4451              	.LASF201:
 4452 0145 73746174 		.ascii	"state\000"
 4452      6500
 4453              	.LASF102:
 4454 014b 5F6C6F63 		.ascii	"_lock\000"
 4454      6B00
 4455              	.LASF133:
 4456 0151 5F6D756C 		.ascii	"_mult\000"
 4456      7400
 4457              	.LASF306:
 4458 0157 6F626A5F 		.ascii	"obj_list\000"
 4458      6C697374 
 4458      00
 4459              	.LASF270:
 4460 0160 6F66665F 		.ascii	"off_older\000"
 4460      6F6C6465 
 4460      7200
 4461              	.LASF196:
 4462 016a 7072696F 		.ascii	"prio\000"
 4462      00
 4463              	.LASF29:
 4464 016f 5F5F7763 		.ascii	"__wch\000"
 4464      6800
 4465              	.LASF249:
 4466 0175 65786974 		.ascii	"exitcode\000"
 4466      636F6465 
 4466      00
 4467              	.LASF3:
 4468 017e 5F5F7569 		.ascii	"__uint8_t\000"
 4468      6E74385F 
 4468      7400
 4469              	.LASF21:
 4470 0188 5F5F6465 		.ascii	"__dev_t\000"
 4470      765F7400 
 4471              	.LASF50:
 4472 0190 7569645F 		.ascii	"uid_t\000"
 4472      7400
 4473              	.LASF90:
 4474 0196 5F66696C 		.ascii	"_file\000"
 4474      6500
 4475              	.LASF77:
 4476 019c 5F6F6E5F 		.ascii	"_on_exit_args\000"
 4476      65786974 
 4476      5F617267 
 4476      7300
 4477              	.LASF162:
 4478 01aa 5F737973 		.ascii	"_sys_nerr\000"
ARM GAS  /tmp/cc5kpRv7.s 			page 81


 4478      5F6E6572 
 4478      7200
 4479              	.LASF285:
 4480 01b4 656E646D 		.ascii	"endmem\000"
 4480      656D00
 4481              	.LASF148:
 4482 01bb 5F6D6272 		.ascii	"_mbrlen_state\000"
 4482      6C656E5F 
 4482      73746174 
 4482      6500
 4483              	.LASF7:
 4484 01c9 6C6F6E67 		.ascii	"long int\000"
 4484      20696E74 
 4484      00
 4485              	.LASF159:
 4486 01d2 5F696D70 		.ascii	"_impure_ptr\000"
 4486      7572655F 
 4486      70747200 
 4487              	.LASF288:
 4488 01de 6D656D6F 		.ascii	"memory_heap_t\000"
 4488      72795F68 
 4488      6561705F 
 4488      7400
 4489              	.LASF117:
 4490 01ec 5F726573 		.ascii	"_result_k\000"
 4490      756C745F 
 4490      6B00
 4491              	.LASF87:
 4492 01f6 5F73697A 		.ascii	"_size\000"
 4492      6500
 4493              	.LASF261:
 4494 01fc 7A65726F 		.ascii	"zero\000"
 4494      00
 4495              	.LASF138:
 4496 0201 5F6C6F63 		.ascii	"_localtime_buf\000"
 4496      616C7469 
 4496      6D655F62 
 4496      756600
 4497              	.LASF186:
 4498 0210 74737461 		.ascii	"tstate_t\000"
 4498      74655F74 
 4498      00
 4499              	.LASF206:
 4500 0219 6570656E 		.ascii	"epending\000"
 4500      64696E67 
 4500      00
 4501              	.LASF214:
 4502 0222 74687265 		.ascii	"threads_queue_t\000"
 4502      6164735F 
 4502      71756575 
 4502      655F7400 
 4503              	.LASF211:
 4504 0232 74687265 		.ascii	"threads_list_t\000"
 4504      6164735F 
 4504      6C697374 
 4504      5F7400
 4505              	.LASF242:
ARM GAS  /tmp/cc5kpRv7.s 			page 82


 4506 0241 72656761 		.ascii	"regarm_t\000"
 4506      726D5F74 
 4506      00
 4507              	.LASF72:
 4508 024a 5F5F746D 		.ascii	"__tm_mon\000"
 4508      5F6D6F6E 
 4508      00
 4509              	.LASF296:
 4510 0253 68656170 		.ascii	"heap\000"
 4510      00
 4511              	.LASF307:
 4512 0258 6F626A5F 		.ascii	"obj_pool\000"
 4512      706F6F6C 
 4512      00
 4513              	.LASF330:
 4514 0261 5F66696E 		.ascii	"_fini\000"
 4514      6900
 4515              	.LASF319:
 4516 0267 5F697361 		.ascii	"_isatty\000"
 4516      74747900 
 4517              	.LASF135:
 4518 026f 5F756E75 		.ascii	"_unused_rand\000"
 4518      7365645F 
 4518      72616E64 
 4518      00
 4519              	.LASF286:
 4520 027c 6D656D63 		.ascii	"memcore_t\000"
 4520      6F72655F 
 4520      7400
 4521              	.LASF0:
 4522 0286 7369676E 		.ascii	"signed char\000"
 4522      65642063 
 4522      68617200 
 4523              	.LASF255:
 4524 0292 65776D61 		.ascii	"ewmask\000"
 4524      736B00
 4525              	.LASF18:
 4526 0299 5F5F626C 		.ascii	"__blksize_t\000"
 4526      6B73697A 
 4526      655F7400 
 4527              	.LASF37:
 4528 02a5 75696E74 		.ascii	"uint8_t\000"
 4528      385F7400 
 4529              	.LASF176:
 4530 02ad 73745F73 		.ascii	"st_spare1\000"
 4530      70617265 
 4530      3100
 4531              	.LASF171:
 4532 02b7 73745F75 		.ascii	"st_uid\000"
 4532      696400
 4533              	.LASF180:
 4534 02be 73745F73 		.ascii	"st_spare3\000"
 4534      70617265 
 4534      3300
 4535              	.LASF183:
 4536 02c8 73745F73 		.ascii	"st_spare4\000"
 4536      70617265 
ARM GAS  /tmp/cc5kpRv7.s 			page 83


 4536      3400
 4537              	.LASF190:
 4538 02d2 6576656E 		.ascii	"eventmask_t\000"
 4538      746D6173 
 4538      6B5F7400 
 4539              	.LASF251:
 4540 02de 77747472 		.ascii	"wttrp\000"
 4540      7000
 4541              	.LASF55:
 4542 02e4 656E7669 		.ascii	"environ\000"
 4542      726F6E00 
 4543              	.LASF1:
 4544 02ec 756E7369 		.ascii	"unsigned char\000"
 4544      676E6564 
 4544      20636861 
 4544      7200
 4545              	.LASF227:
 4546 02fa 6C617374 		.ascii	"lasttime\000"
 4546      74696D65 
 4546      00
 4547              	.LASF173:
 4548 0303 73745F72 		.ascii	"st_rdev\000"
 4548      64657600 
 4549              	.LASF331:
 4550 030b 5F676574 		.ascii	"_getpid\000"
 4550      70696400 
 4551              	.LASF230:
 4552 0313 70616E69 		.ascii	"panic_msg\000"
 4552      635F6D73 
 4552      6700
 4553              	.LASF112:
 4554 031d 5F756E73 		.ascii	"_unspecified_locale_info\000"
 4554      70656369 
 4554      66696564 
 4554      5F6C6F63 
 4554      616C655F 
 4555              	.LASF105:
 4556 0336 5F726565 		.ascii	"_reent\000"
 4556      6E7400
 4557              	.LASF160:
 4558 033d 5F676C6F 		.ascii	"_global_impure_ptr\000"
 4558      62616C5F 
 4558      696D7075 
 4558      72655F70 
 4558      747200
 4559              	.LASF228:
 4560 0350 73797374 		.ascii	"system_debug_t\000"
 4560      656D5F64 
 4560      65627567 
 4560      5F7400
 4561              	.LASF291:
 4562 035f 68656164 		.ascii	"header\000"
 4562      657200
 4563              	.LASF281:
 4564 0366 5F426F6F 		.ascii	"_Bool\000"
 4564      6C00
 4565              	.LASF46:
ARM GAS  /tmp/cc5kpRv7.s 			page 84


 4566 036c 63686172 		.ascii	"char\000"
 4566      00
 4567              	.LASF84:
 4568 0371 5F666E73 		.ascii	"_fns\000"
 4568      00
 4569              	.LASF96:
 4570 0376 5F636C6F 		.ascii	"_close\000"
 4570      736500
 4571              	.LASF309:
 4572 037d 73656D5F 		.ascii	"sem_list\000"
 4572      6C697374 
 4572      00
 4573              	.LASF4:
 4574 0386 5F5F7569 		.ascii	"__uint16_t\000"
 4574      6E743136 
 4574      5F7400
 4575              	.LASF250:
 4576 0391 77746F62 		.ascii	"wtobjp\000"
 4576      6A7000
 4577              	.LASF107:
 4578 0398 5F737464 		.ascii	"_stdin\000"
 4578      696E00
 4579              	.LASF25:
 4580 039f 5F5F6D6F 		.ascii	"__mode_t\000"
 4580      64655F74 
 4580      00
 4581              	.LASF326:
 4582 03a8 474E5520 		.ascii	"GNU C11 6.3.1 20170620 (release) [ARM/embedded-6-br"
 4582      43313120 
 4582      362E332E 
 4582      31203230 
 4582      31373036 
 4583 03db 616E6368 		.ascii	"anch revision 249437] -mcpu=cortex-m4 -mfloat-abi=h"
 4583      20726576 
 4583      6973696F 
 4583      6E203234 
 4583      39343337 
 4584 040e 61726420 		.ascii	"ard -mfpu=fpv4-sp-d16 -mno-thumb-interwork -mthumb "
 4584      2D6D6670 
 4584      753D6670 
 4584      76342D73 
 4584      702D6431 
 4585 0441 2D67202D 		.ascii	"-g -Os -fomit-frame-pointer -falign-functions=16 -f"
 4585      4F73202D 
 4585      666F6D69 
 4585      742D6672 
 4585      616D652D 
 4586 0474 66756E63 		.ascii	"function-sections -fdata-sections -fno-common -fsin"
 4586      74696F6E 
 4586      2D736563 
 4586      74696F6E 
 4586      73202D66 
 4587 04a7 676C652D 		.ascii	"gle-precision-constant\000"
 4587      70726563 
 4587      6973696F 
 4587      6E2D636F 
 4587      6E737461 
ARM GAS  /tmp/cc5kpRv7.s 			page 85


 4588              	.LASF202:
 4589 04be 666C6167 		.ascii	"flags\000"
 4589      7300
 4590              	.LASF243:
 4591 04c4 73746B61 		.ascii	"stkalign_t\000"
 4591      6C69676E 
 4591      5F7400
 4592              	.LASF164:
 4593 04cf 5F646179 		.ascii	"_daylight\000"
 4593      6C696768 
 4593      7400
 4594              	.LASF163:
 4595 04d9 5F74696D 		.ascii	"_timezone\000"
 4595      657A6F6E 
 4595      6500
 4596              	.LASF60:
 4597 04e3 6F707472 		.ascii	"optreset\000"
 4597      65736574 
 4597      00
 4598              	.LASF209:
 4599 04ec 6D706F6F 		.ascii	"mpool\000"
 4599      6C00
 4600              	.LASF187:
 4601 04f2 74726566 		.ascii	"trefs_t\000"
 4601      735F7400 
 4602              	.LASF264:
 4603 04fa 70747273 		.ascii	"ptrsize\000"
 4603      697A6500 
 4604              	.LASF179:
 4605 0502 73745F63 		.ascii	"st_ctime\000"
 4605      74696D65 
 4605      00
 4606              	.LASF321:
 4607 050b 66696C65 		.ascii	"file\000"
 4607      00
 4608              	.LASF295:
 4609 0510 70616765 		.ascii	"pages\000"
 4609      7300
 4610              	.LASF277:
 4611 0516 6F66665F 		.ascii	"off_time\000"
 4611      74696D65 
 4611      00
 4612              	.LASF191:
 4613 051f 636E745F 		.ascii	"cnt_t\000"
 4613      7400
 4614              	.LASF165:
 4615 0525 5F747A6E 		.ascii	"_tzname\000"
 4615      616D6500 
 4616              	.LASF333:
 4617 052d 63684865 		.ascii	"chHeapAlloc\000"
 4617      6170416C 
 4617      6C6F6300 
 4618              	.LASF92:
 4619 0539 5F636F6F 		.ascii	"_cookie\000"
 4619      6B696500 
 4620              	.LASF254:
 4621 0541 77746D74 		.ascii	"wtmtxp\000"
ARM GAS  /tmp/cc5kpRv7.s 			page 86


 4621      787000
 4622              	.LASF65:
 4623 0548 5F776473 		.ascii	"_wds\000"
 4623      00
 4624              	.LASF218:
 4625 054d 63685F72 		.ascii	"ch_ready_list\000"
 4625      65616479 
 4625      5F6C6973 
 4625      7400
 4626              	.LASF157:
 4627 055b 5F5F6C6F 		.ascii	"__lock\000"
 4627      636B00
 4628              	.LASF124:
 4629 0562 5F736967 		.ascii	"_sig_func\000"
 4629      5F66756E 
 4629      6300
 4630              	.LASF310:
 4631 056c 73656D5F 		.ascii	"sem_pool\000"
 4631      706F6F6C 
 4631      00
 4632              	.LASF100:
 4633 0575 5F6F6666 		.ascii	"_offset\000"
 4633      73657400 
 4634              	.LASF121:
 4635 057d 5F637674 		.ascii	"_cvtbuf\000"
 4635      62756600 
 4636              	.LASF172:
 4637 0585 73745F67 		.ascii	"st_gid\000"
 4637      696400
 4638              	.LASF284:
 4639 058c 6E657874 		.ascii	"nextmem\000"
 4639      6D656D00 
 4640              	.LASF57:
 4641 0594 6F707469 		.ascii	"optind\000"
 4641      6E6400
 4642              	.LASF11:
 4643 059b 5F5F7569 		.ascii	"__uint64_t\000"
 4643      6E743634 
 4643      5F7400
 4644              	.LASF47:
 4645 05a6 696E6F5F 		.ascii	"ino_t\000"
 4645      7400
 4646              	.LASF273:
 4647 05ac 6F66665F 		.ascii	"off_state\000"
 4647      73746174 
 4647      6500
 4648              	.LASF118:
 4649 05b6 5F703573 		.ascii	"_p5s\000"
 4649      00
 4650              	.LASF9:
 4651 05bb 6C6F6E67 		.ascii	"long unsigned int\000"
 4651      20756E73 
 4651      69676E65 
 4651      6420696E 
 4651      7400
 4652              	.LASF266:
 4653 05cd 74687265 		.ascii	"threadsize\000"
ARM GAS  /tmp/cc5kpRv7.s 			page 87


 4653      61647369 
 4653      7A6500
 4654              	.LASF88:
 4655 05d8 5F5F7346 		.ascii	"__sFILE\000"
 4655      494C4500 
 4656              	.LASF114:
 4657 05e0 5F5F7364 		.ascii	"__sdidinit\000"
 4657      6964696E 
 4657      697400
 4658              	.LASF104:
 4659 05eb 5F666C61 		.ascii	"_flags2\000"
 4659      67733200 
 4660              	.LASF174:
 4661 05f3 73745F73 		.ascii	"st_size\000"
 4661      697A6500 
 4662              	.LASF239:
 4663 05fb 53797374 		.ascii	"SystemCoreClock\000"
 4663      656D436F 
 4663      7265436C 
 4663      6F636B00 
 4664              	.LASF256:
 4665 060b 63685F73 		.ascii	"ch_semaphore\000"
 4665      656D6170 
 4665      686F7265 
 4665      00
 4666              	.LASF194:
 4667 0618 63685F74 		.ascii	"ch_thread\000"
 4667      68726561 
 4667      6400
 4668              	.LASF225:
 4669 0622 76697274 		.ascii	"virtual_timers_list_t\000"
 4669      75616C5F 
 4669      74696D65 
 4669      72735F6C 
 4669      6973745F 
 4670              	.LASF259:
 4671 0638 63685F69 		.ascii	"ch_idle_thread_wa\000"
 4671      646C655F 
 4671      74687265 
 4671      61645F77 
 4671      6100
 4672              	.LASF106:
 4673 064a 5F657272 		.ascii	"_errno\000"
 4673      6E6F00
 4674              	.LASF312:
 4675 0651 6669666F 		.ascii	"fifo_list\000"
 4675      5F6C6973 
 4675      7400
 4676              	.LASF221:
 4677 065b 76697274 		.ascii	"virtual_timer_t\000"
 4677      75616C5F 
 4677      74696D65 
 4677      725F7400 
 4678              	.LASF217:
 4679 066b 72656164 		.ascii	"ready_list_t\000"
 4679      795F6C69 
 4679      73745F74 
ARM GAS  /tmp/cc5kpRv7.s 			page 88


 4679      00
 4680              	.LASF198:
 4681 0678 6F6C6465 		.ascii	"older\000"
 4681      7200
 4682              	.LASF178:
 4683 067e 73745F73 		.ascii	"st_spare2\000"
 4683      70617265 
 4683      3200
 4684              	.LASF146:
 4685 0688 5F736967 		.ascii	"_signal_buf\000"
 4685      6E616C5F 
 4685      62756600 
 4686              	.LASF208:
 4687 0694 7265616C 		.ascii	"realprio\000"
 4687      7072696F 
 4687      00
 4688              	.LASF192:
 4689 069d 75636E74 		.ascii	"ucnt_t\000"
 4689      5F7400
 4690              	.LASF272:
 4691 06a4 6F66665F 		.ascii	"off_stklimit\000"
 4691      73746B6C 
 4691      696D6974 
 4691      00
 4692              	.LASF297:
 4693 06b1 706F6F6C 		.ascii	"pool_header\000"
 4693      5F686561 
 4693      64657200 
 4694              	.LASF66:
 4695 06bd 5F426967 		.ascii	"_Bigint\000"
 4695      696E7400 
 4696              	.LASF212:
 4697 06c5 63685F74 		.ascii	"ch_threads_list\000"
 4697      68726561 
 4697      64735F6C 
 4697      69737400 
 4698              	.LASF63:
 4699 06d5 5F6D6178 		.ascii	"_maxwds\000"
 4699      77647300 
 4700              	.LASF17:
 4701 06dd 5F5F626C 		.ascii	"__blkcnt_t\000"
 4701      6B636E74 
 4701      5F7400
 4702              	.LASF123:
 4703 06e8 5F617465 		.ascii	"_atexit0\000"
 4703      78697430 
 4703      00
 4704              	.LASF166:
 4705 06f1 73746174 		.ascii	"stat\000"
 4705      00
 4706              	.LASF181:
 4707 06f6 73745F62 		.ascii	"st_blksize\000"
 4707      6C6B7369 
 4707      7A6500
 4708              	.LASF322:
 4709 0701 5F736272 		.ascii	"_sbrk\000"
 4709      6B00
ARM GAS  /tmp/cc5kpRv7.s 			page 89


 4710              	.LASF24:
 4711 0707 5F5F696E 		.ascii	"__ino_t\000"
 4711      6F5F7400 
 4712              	.LASF292:
 4713 070f 68656170 		.ascii	"heap_header_t\000"
 4713      5F686561 
 4713      6465725F 
 4713      7400
 4714              	.LASF8:
 4715 071d 5F5F7569 		.ascii	"__uint32_t\000"
 4715      6E743332 
 4715      5F7400
 4716              	.LASF111:
 4717 0728 5F656D65 		.ascii	"_emergency\000"
 4717      7267656E 
 4717      637900
 4718              	.LASF207:
 4719 0733 6D74786C 		.ascii	"mtxlist\000"
 4719      69737400 
 4720              	.LASF10:
 4721 073b 6C6F6E67 		.ascii	"long long int\000"
 4721      206C6F6E 
 4721      6720696E 
 4721      7400
 4722              	.LASF237:
 4723 0749 73797369 		.ascii	"sysinterval_t\000"
 4723      6E746572 
 4723      76616C5F 
 4723      7400
 4724              	.LASF129:
 4725 0757 5F6E696F 		.ascii	"_niobs\000"
 4725      627300
 4726              	.LASF305:
 4727 075e 63685F6F 		.ascii	"ch_objects_factory\000"
 4727      626A6563 
 4727      74735F66 
 4727      6163746F 
 4727      727900
 4728              	.LASF125:
 4729 0771 5F5F7367 		.ascii	"__sglue\000"
 4729      6C756500 
 4730              	.LASF155:
 4731 0779 5F6E6D61 		.ascii	"_nmalloc\000"
 4731      6C6C6F63 
 4731      00
 4732              	.LASF139:
 4733 0782 5F67616D 		.ascii	"_gamma_signgam\000"
 4733      6D615F73 
 4733      69676E67 
 4733      616D00
 4734              	.LASF119:
 4735 0791 5F667265 		.ascii	"_freelist\000"
 4735      656C6973 
 4735      7400
 4736              	.LASF130:
 4737 079b 5F696F62 		.ascii	"_iobs\000"
 4737      7300
ARM GAS  /tmp/cc5kpRv7.s 			page 90


 4738              	.LASF299:
 4739 07a1 616C6967 		.ascii	"align\000"
 4739      6E00
 4740              	.LASF128:
 4741 07a7 5F676C75 		.ascii	"_glue\000"
 4741      6500
 4742              	.LASF238:
 4743 07ad 49544D5F 		.ascii	"ITM_RxBuffer\000"
 4743      52784275 
 4743      66666572 
 4743      00
 4744              	.LASF64:
 4745 07ba 5F736967 		.ascii	"_sign\000"
 4745      6E00
 4746              	.LASF329:
 4747 07c0 68656170 		.ascii	"heap_header\000"
 4747      5F686561 
 4747      64657200 
 4748              	.LASF317:
 4749 07cc 5F657869 		.ascii	"_exit\000"
 4749      7400
 4750              	.LASF269:
 4751 07d2 6F66665F 		.ascii	"off_newer\000"
 4751      6E657765 
 4751      7200
 4752              	.LASF13:
 4753 07dc 756E7369 		.ascii	"unsigned int\000"
 4753      676E6564 
 4753      20696E74 
 4753      00
 4754              	.LASF43:
 4755 07e9 626C6B63 		.ascii	"blkcnt_t\000"
 4755      6E745F74 
 4755      00
 4756              	.LASF45:
 4757 07f2 63616464 		.ascii	"caddr_t\000"
 4757      725F7400 
 4758              	.LASF184:
 4759 07fa 7274636E 		.ascii	"rtcnt_t\000"
 4759      745F7400 
 4760              	.LASF203:
 4761 0802 72656673 		.ascii	"refs\000"
 4761      00
 4762              	.LASF153:
 4763 0807 5F685F65 		.ascii	"_h_errno\000"
 4763      72726E6F 
 4763      00
 4764              	.LASF323:
 4765 0810 696E6372 		.ascii	"incr\000"
 4765      00
 4766              	.LASF327:
 4767 0815 2E2E2F2E 		.ascii	"../../libraries/AP_HAL_ChibiOS/hwdef/common/stubs.c"
 4767      2E2F6C69 
 4767      62726172 
 4767      6965732F 
 4767      41505F48 
 4768 0848 00       		.ascii	"\000"
ARM GAS  /tmp/cc5kpRv7.s 			page 91


 4769              	.LASF52:
 4770 0849 7069645F 		.ascii	"pid_t\000"
 4770      7400
 4771              	.LASF71:
 4772 084f 5F5F746D 		.ascii	"__tm_mday\000"
 4772      5F6D6461 
 4772      7900
 4773              	.LASF122:
 4774 0859 5F6E6577 		.ascii	"_new\000"
 4774      00
 4775              	.LASF97:
 4776 085e 5F756275 		.ascii	"_ubuf\000"
 4776      6600
 4777              	.LASF109:
 4778 0864 5F737464 		.ascii	"_stderr\000"
 4778      65727200 
 4779              	.LASF144:
 4780 086c 5F776374 		.ascii	"_wctomb_state\000"
 4780      6F6D625F 
 4780      73746174 
 4780      6500
 4781              	.LASF103:
 4782 087a 5F6D6273 		.ascii	"_mbstate\000"
 4782      74617465 
 4782      00
 4783              	.LASF219:
 4784 0883 63757272 		.ascii	"current\000"
 4784      656E7400 
 4785              	.LASF140:
 4786 088b 5F72616E 		.ascii	"_rand_next\000"
 4786      645F6E65 
 4786      787400
 4787              	.LASF89:
 4788 0896 5F666C61 		.ascii	"_flags\000"
 4788      677300
 4789              	.LASF246:
 4790 089d 6F666673 		.ascii	"offset\000"
 4790      657400
 4791              	.LASF210:
 4792 08a4 74687265 		.ascii	"thread_reference_t\000"
 4792      61645F72 
 4792      65666572 
 4792      656E6365 
 4792      5F7400
 4793              	.LASF82:
 4794 08b7 5F617465 		.ascii	"_atexit\000"
 4794      78697400 
 4795              	.LASF32:
 4796 08bf 5F5F636F 		.ascii	"__count\000"
 4796      756E7400 
 4797              	.LASF170:
 4798 08c7 73745F6E 		.ascii	"st_nlink\000"
 4798      6C696E6B 
 4798      00
 4799              	.LASF48:
 4800 08d0 6F66665F 		.ascii	"off_t\000"
 4800      7400
ARM GAS  /tmp/cc5kpRv7.s 			page 92


 4801              	.LASF283:
 4802 08d6 6D656D67 		.ascii	"memgetfunc2_t\000"
 4802      65746675 
 4802      6E63325F 
 4802      7400
 4803              	.LASF53:
 4804 08e4 6D6F6465 		.ascii	"mode_t\000"
 4804      5F7400
 4805              	.LASF294:
 4806 08eb 75736564 		.ascii	"used\000"
 4806      00
 4807              	.LASF282:
 4808 08f0 6D656D67 		.ascii	"memgetfunc_t\000"
 4808      65746675 
 4808      6E635F74 
 4808      00
 4809              	.LASF315:
 4810 08fd 5F626566 		.ascii	"_before_main\000"
 4810      6F72655F 
 4810      6D61696E 
 4810      00
 4811              	.LASF74:
 4812 090a 5F5F746D 		.ascii	"__tm_wday\000"
 4812      5F776461 
 4812      7900
 4813              	.LASF193:
 4814 0914 74687265 		.ascii	"thread_t\000"
 4814      61645F74 
 4814      00
 4815              	.LASF175:
 4816 091d 73745F61 		.ascii	"st_atime\000"
 4816      74696D65 
 4816      00
 4817              	.LASF15:
 4818 0926 6C6F6E67 		.ascii	"long double\000"
 4818      20646F75 
 4818      626C6500 
 4819              	.LASF75:
 4820 0932 5F5F746D 		.ascii	"__tm_yday\000"
 4820      5F796461 
 4820      7900
 4821              	.LASF252:
 4822 093c 73656E74 		.ascii	"sentmsg\000"
 4822      6D736700 
 4823              	.LASF245:
 4824 0944 706F7274 		.ascii	"port_intctx\000"
 4824      5F696E74 
 4824      63747800 
 4825              	.LASF313:
 4826 0950 6F626A65 		.ascii	"objects_factory_t\000"
 4826      6374735F 
 4826      66616374 
 4826      6F72795F 
 4826      7400
 4827              	.LASF20:
 4828 0962 5F5F7069 		.ascii	"__pid_t\000"
 4828      645F7400 
ARM GAS  /tmp/cc5kpRv7.s 			page 93


 4829              	.LASF316:
 4830 096a 5F6B696C 		.ascii	"_kill\000"
 4830      6C00
 4831              	.LASF132:
 4832 0970 5F736565 		.ascii	"_seed\000"
 4832      6400
 4833              	.LASF308:
 4834 0976 6275665F 		.ascii	"buf_list\000"
 4834      6C697374 
 4834      00
 4835              	.LASF95:
 4836 097f 5F736565 		.ascii	"_seek\000"
 4836      6B00
 4837              	.LASF167:
 4838 0985 73745F64 		.ascii	"st_dev\000"
 4838      657600
 4839              	.LASF27:
 4840 098c 5F66706F 		.ascii	"_fpos_t\000"
 4840      735F7400 
 4841              	.LASF30:
 4842 0994 5F5F7763 		.ascii	"__wchb\000"
 4842      686200
 4843              	.LASF240:
 4844 099b 41484250 		.ascii	"AHBPrescTable\000"
 4844      72657363 
 4844      5461626C 
 4844      6500
 4845              	.LASF222:
 4846 09a9 63685F76 		.ascii	"ch_virtual_timer\000"
 4846      69727475 
 4846      616C5F74 
 4846      696D6572 
 4846      00
 4847              	.LASF143:
 4848 09ba 5F6D6274 		.ascii	"_mbtowc_state\000"
 4848      6F77635F 
 4848      73746174 
 4848      6500
 4849              	.LASF59:
 4850 09c8 6F70746F 		.ascii	"optopt\000"
 4850      707400
 4851              	.LASF262:
 4852 09cf 73697A65 		.ascii	"size\000"
 4852      00
 4853              	.LASF12:
 4854 09d4 6C6F6E67 		.ascii	"long long unsigned int\000"
 4854      206C6F6E 
 4854      6720756E 
 4854      7369676E 
 4854      65642069 
 4855              	.LASF328:
 4856 09eb 2F686F6D 		.ascii	"/home/alex/ArduPilot/ardupilot/build/Pix2.4\000"
 4856      652F616C 
 4856      65782F41 
 4856      72647550 
 4856      696C6F74 
 4857              	.LASF38:
ARM GAS  /tmp/cc5kpRv7.s 			page 94


 4858 0a17 75696E74 		.ascii	"uint16_t\000"
 4858      31365F74 
 4858      00
 4859              	.LASF26:
 4860 0a20 5F5F6F66 		.ascii	"__off_t\000"
 4860      665F7400 
 4861              	.LASF271:
 4862 0a28 6F66665F 		.ascii	"off_name\000"
 4862      6E616D65 
 4862      00
 4863              	.LASF79:
 4864 0a31 5F64736F 		.ascii	"_dso_handle\000"
 4864      5F68616E 
 4864      646C6500 
 4865              	.LASF189:
 4866 0a3d 6D73675F 		.ascii	"msg_t\000"
 4866      7400
 4867              	.LASF215:
 4868 0a43 63685F74 		.ascii	"ch_threads_queue\000"
 4868      68726561 
 4868      64735F71 
 4868      75657565 
 4868      00
 4869              	.LASF131:
 4870 0a54 5F72616E 		.ascii	"_rand48\000"
 4870      64343800 
 4871              	.LASF108:
 4872 0a5c 5F737464 		.ascii	"_stdout\000"
 4872      6F757400 
 4873              	.LASF223:
 4874 0a64 64656C74 		.ascii	"delta\000"
 4874      6100
 4875              	.LASF99:
 4876 0a6a 5F626C6B 		.ascii	"_blksize\000"
 4876      73697A65 
 4876      00
 4877              	.LASF86:
 4878 0a73 5F626173 		.ascii	"_base\000"
 4878      6500
 4879              	.LASF195:
 4880 0a79 71756575 		.ascii	"queue\000"
 4880      6500
 4881              	.LASF58:
 4882 0a7f 6F707465 		.ascii	"opterr\000"
 4882      727200
 4883              	.LASF136:
 4884 0a86 5F737472 		.ascii	"_strtok_last\000"
 4884      746F6B5F 
 4884      6C617374 
 4884      00
 4885              	.LASF314:
 4886 0a93 63685F66 		.ascii	"ch_factory\000"
 4886      6163746F 
 4886      727900
 4887              	.LASF149:
 4888 0a9e 5F6D6272 		.ascii	"_mbrtowc_state\000"
 4888      746F7763 
ARM GAS  /tmp/cc5kpRv7.s 			page 95


 4888      5F737461 
 4888      746500
 4889              	.LASF311:
 4890 0aad 6D62785F 		.ascii	"mbx_list\000"
 4890      6C697374 
 4890      00
 4891              	.LASF235:
 4892 0ab6 6D61696E 		.ascii	"mainthread\000"
 4892      74687265 
 4892      616400
 4893              	.LASF35:
 4894 0ac1 5F666C6F 		.ascii	"_flock_t\000"
 4894      636B5F74 
 4894      00
 4895              	.LASF263:
 4896 0aca 76657273 		.ascii	"version\000"
 4896      696F6E00 
 4897              	.LASF127:
 4898 0ad2 5F5F4649 		.ascii	"__FILE\000"
 4898      4C4500
 4899              	.LASF34:
 4900 0ad9 5F6D6273 		.ascii	"_mbstate_t\000"
 4900      74617465 
 4900      5F7400
 4901              	.LASF325:
 4902 0ae4 68656170 		.ascii	"heapp\000"
 4902      7000
 4903              	.LASF141:
 4904 0aea 5F723438 		.ascii	"_r48\000"
 4904      00
 4905              	.LASF200:
 4906 0aef 77616261 		.ascii	"wabase\000"
 4906      736500
 4907              	.LASF28:
 4908 0af6 77696E74 		.ascii	"wint_t\000"
 4908      5F7400
 4909              	.LASF300:
 4910 0afd 6D656D6F 		.ascii	"memory_pool_t\000"
 4910      72795F70 
 4910      6F6F6C5F 
 4910      7400
 4911              	.LASF62:
 4912 0b0b 5F6E6578 		.ascii	"_next\000"
 4912      7400
 4913              	.LASF101:
 4914 0b11 5F646174 		.ascii	"_data\000"
 4914      6100
 4915              	.LASF320:
 4916 0b17 5F667374 		.ascii	"_fstat\000"
 4916      617400
 4917              	.LASF233:
 4918 0b1e 726C6973 		.ascii	"rlist\000"
 4918      7400
 4919              	.LASF185:
 4920 0b24 746D6F64 		.ascii	"tmode_t\000"
 4920      655F7400 
 4921              	.LASF177:
ARM GAS  /tmp/cc5kpRv7.s 			page 96


 4922 0b2c 73745F6D 		.ascii	"st_mtime\000"
 4922      74696D65 
 4922      00
 4923              	.LASF247:
 4924 0b35 746D5F63 		.ascii	"tm_calibration_t\000"
 4924      616C6962 
 4924      72617469 
 4924      6F6E5F74 
 4924      00
 4925              	.LASF199:
 4926 0b46 6E616D65 		.ascii	"name\000"
 4926      00
 4927              	.LASF241:
 4928 0b4b 41504250 		.ascii	"APBPrescTable\000"
 4928      72657363 
 4928      5461626C 
 4928      6500
 4929              	.LASF334:
 4930 0b59 63684865 		.ascii	"chHeapAllocAligned\000"
 4930      6170416C 
 4930      6C6F6341 
 4930      6C69676E 
 4930      656400
 4931              	.LASF142:
 4932 0b6c 5F6D626C 		.ascii	"_mblen_state\000"
 4932      656E5F73 
 4932      74617465 
 4932      00
 4933              	.LASF2:
 4934 0b79 73686F72 		.ascii	"short int\000"
 4934      7420696E 
 4934      7400
 4935              	.LASF41:
 4936 0b83 75696E74 		.ascii	"uint64_t\000"
 4936      36345F74 
 4936      00
 4937              	.LASF224:
 4938 0b8c 66756E63 		.ascii	"func\000"
 4938      00
 4939              	.LASF257:
 4940 0b91 63685F6D 		.ascii	"ch_mutex\000"
 4940      75746578 
 4940      00
 4941              	.LASF205:
 4942 0b9a 6D736771 		.ascii	"msgqueue\000"
 4942      75657565 
 4942      00
 4943              	.LASF80:
 4944 0ba3 5F666E74 		.ascii	"_fntypes\000"
 4944      79706573 
 4944      00
 4945              	.LASF229:
 4946 0bac 63685F73 		.ascii	"ch_system_debug\000"
 4946      79737465 
 4946      6D5F6465 
 4946      62756700 
 4947              	.LASF161:
ARM GAS  /tmp/cc5kpRv7.s 			page 97


 4948 0bbc 5F737973 		.ascii	"_sys_errlist\000"
 4948      5F657272 
 4948      6C697374 
 4948      00
 4949              	.LASF304:
 4950 0bc9 64796E5F 		.ascii	"dyn_list_t\000"
 4950      6C697374 
 4950      5F7400
 4951              	.LASF73:
 4952 0bd4 5F5F746D 		.ascii	"__tm_year\000"
 4952      5F796561 
 4952      7200
 4953              	.LASF298:
 4954 0bde 6F626A65 		.ascii	"object_size\000"
 4954      63745F73 
 4954      697A6500 
 4955              	.LASF91:
 4956 0bea 5F6C6266 		.ascii	"_lbfsize\000"
 4956      73697A65 
 4956      00
 4957              	.LASF234:
 4958 0bf3 76746C69 		.ascii	"vtlist\000"
 4958      737400
 4959              	.LASF110:
 4960 0bfa 5F696E63 		.ascii	"_inc\000"
 4960      00
 4961              	.LASF83:
 4962 0bff 5F696E64 		.ascii	"_ind\000"
 4962      00
 4963              	.LASF204:
 4964 0c04 77616974 		.ascii	"waiting\000"
 4964      696E6700 
 4965              	.LASF85:
 4966 0c0c 5F5F7362 		.ascii	"__sbuf\000"
 4966      756600
 4967              	.LASF302:
 4968 0c13 64796E5F 		.ascii	"dyn_element_t\000"
 4968      656C656D 
 4968      656E745F 
 4968      7400
 4969              	.LASF81:
 4970 0c21 5F69735F 		.ascii	"_is_cxa\000"
 4970      63786100 
 4971              	.LASF16:
 4972 0c29 5F4C4F43 		.ascii	"_LOCK_T\000"
 4972      4B5F5400 
 4973              	.LASF280:
 4974 0c31 6D757465 		.ascii	"mutex_t\000"
 4974      785F7400 
 4975              	.LASF169:
 4976 0c39 73745F6D 		.ascii	"st_mode\000"
 4976      6F646500 
 4977              	.LASF22:
 4978 0c41 5F5F7569 		.ascii	"__uid_t\000"
 4978      645F7400 
 4979              	.LASF154:
 4980 0c49 5F6E6578 		.ascii	"_nextf\000"
ARM GAS  /tmp/cc5kpRv7.s 			page 98


 4980      746600
 4981              	.LASF244:
 4982 0c50 706F7274 		.ascii	"port_context\000"
 4982      5F636F6E 
 4982      74657874 
 4982      00
 4983              	.LASF44:
 4984 0c5d 626C6B73 		.ascii	"blksize_t\000"
 4984      697A655F 
 4984      7400
 4985              	.LASF318:
 4986 0c67 73746174 		.ascii	"status\000"
 4986      757300
 4987              	.LASF232:
 4988 0c6e 63685F73 		.ascii	"ch_system\000"
 4988      79737465 
 4988      6D00
 4989              	.LASF113:
 4990 0c78 5F6C6F63 		.ascii	"_locale\000"
 4990      616C6500 
 4991              	.LASF61:
 4992 0c80 5F5F554C 		.ascii	"__ULong\000"
 4992      6F6E6700 
 4993              	.LASF197:
 4994 0c88 6E657765 		.ascii	"newer\000"
 4994      7200
 4995              	.LASF40:
 4996 0c8e 75696E74 		.ascii	"uint32_t\000"
 4996      33325F74 
 4996      00
 4997              	.LASF116:
 4998 0c97 5F726573 		.ascii	"_result\000"
 4998      756C7400 
 4999              	.LASF56:
 5000 0c9f 6F707461 		.ascii	"optarg\000"
 5000      726700
 5001              	.LASF275:
 5002 0ca6 6F66665F 		.ascii	"off_refs\000"
 5002      72656673 
 5002      00
 5003              	.LASF19:
 5004 0caf 5F6F6666 		.ascii	"_off_t\000"
 5004      5F7400
 5005              	.LASF293:
 5006 0cb6 66726565 		.ascii	"free\000"
 5006      00
 5007              	.LASF248:
 5008 0cbb 7264796D 		.ascii	"rdymsg\000"
 5008      736700
 5009              	.LASF134:
 5010 0cc2 5F616464 		.ascii	"_add\000"
 5010      00
 5011              	.LASF5:
 5012 0cc7 73686F72 		.ascii	"short unsigned int\000"
 5012      7420756E 
 5012      7369676E 
 5012      65642069 
ARM GAS  /tmp/cc5kpRv7.s 			page 99


 5012      6E7400
 5013              	.LASF70:
 5014 0cda 5F5F746D 		.ascii	"__tm_hour\000"
 5014      5F686F75 
 5014      7200
 5015              	.LASF231:
 5016 0ce4 63685F73 		.ascii	"ch_system_t\000"
 5016      79737465 
 5016      6D5F7400 
 5017              	.LASF278:
 5018 0cf0 63686465 		.ascii	"chdebug_t\000"
 5018      6275675F 
 5018      7400
 5019              	.LASF150:
 5020 0cfa 5F6D6273 		.ascii	"_mbsrtowcs_state\000"
 5020      72746F77 
 5020      63735F73 
 5020      74617465 
 5020      00
 5021              	.LASF324:
 5022 0d0b 5F6C7365 		.ascii	"_lseek\000"
 5022      656B00
 5023              	.LASF216:
 5024 0d12 70726576 		.ascii	"prev\000"
 5024      00
 5025              	.LASF265:
 5026 0d17 74696D65 		.ascii	"timesize\000"
 5026      73697A65 
 5026      00
 5027              	.LASF6:
 5028 0d20 5F5F696E 		.ascii	"__int32_t\000"
 5028      7433325F 
 5028      7400
 5029              	.LASF168:
 5030 0d2a 73745F69 		.ascii	"st_ino\000"
 5030      6E6F00
 5031              	.LASF287:
 5032 0d31 63685F6D 		.ascii	"ch_memcore\000"
 5032      656D636F 
 5032      726500
 5033              	.LASF274:
 5034 0d3c 6F66665F 		.ascii	"off_flags\000"
 5034      666C6167 
 5034      7300
 5035              	.LASF36:
 5036 0d46 5F5F6E6C 		.ascii	"__nlink_t\000"
 5036      696E6B5F 
 5036      7400
 5037              	.LASF78:
 5038 0d50 5F666E61 		.ascii	"_fnargs\000"
 5038      72677300 
 5039              	.LASF151:
 5040 0d58 5F776372 		.ascii	"_wcrtomb_state\000"
 5040      746F6D62 
 5040      5F737461 
 5040      746500
 5041              	.LASF76:
ARM GAS  /tmp/cc5kpRv7.s 			page 100


 5042 0d67 5F5F746D 		.ascii	"__tm_isdst\000"
 5042      5F697364 
 5042      737400
 5043              	.LASF213:
 5044 0d72 6E657874 		.ascii	"next\000"
 5044      00
 5045              	.LASF51:
 5046 0d77 6769645F 		.ascii	"gid_t\000"
 5046      7400
 5047              	.LASF69:
 5048 0d7d 5F5F746D 		.ascii	"__tm_min\000"
 5048      5F6D696E 
 5048      00
 5049              	.LASF303:
 5050 0d86 63685F64 		.ascii	"ch_dyn_list\000"
 5050      796E5F6C 
 5050      69737400 
 5051              	.LASF260:
 5052 0d92 6964656E 		.ascii	"identifier\000"
 5052      74696669 
 5052      657200
 5053              	.LASF147:
 5054 0d9d 5F676574 		.ascii	"_getdate_err\000"
 5054      64617465 
 5054      5F657272 
 5054      00
 5055              	.LASF253:
 5056 0daa 77747365 		.ascii	"wtsemp\000"
 5056      6D7000
 5057              		.ident	"GCC: (GNU Tools for ARM Embedded Processors 6-2017-q2-update) 6.3.1 20170620 (release) [AR
ARM GAS  /tmp/cc5kpRv7.s 			page 101


DEFINED SYMBOLS
                            *ABS*:0000000000000000 stubs.c
     /tmp/cc5kpRv7.s:18     .text._read:0000000000000000 $t
     /tmp/cc5kpRv7.s:25     .text._read:0000000000000000 _read
     /tmp/cc5kpRv7.s:37     .text._lseek:0000000000000000 $t
     /tmp/cc5kpRv7.s:44     .text._lseek:0000000000000000 _lseek
     /tmp/cc5kpRv7.s:61     .text._write:0000000000000000 $t
     /tmp/cc5kpRv7.s:68     .text._write:0000000000000000 _write
     /tmp/cc5kpRv7.s:84     .text._close:0000000000000000 $t
     /tmp/cc5kpRv7.s:91     .text._close:0000000000000000 _close
     /tmp/cc5kpRv7.s:107    .text._sbrk:0000000000000000 $t
     /tmp/cc5kpRv7.s:114    .text._sbrk:0000000000000000 _sbrk
     /tmp/cc5kpRv7.s:158    .text._fstat:0000000000000000 $t
     /tmp/cc5kpRv7.s:165    .text._fstat:0000000000000000 _fstat
     /tmp/cc5kpRv7.s:181    .text._isatty:0000000000000000 $t
     /tmp/cc5kpRv7.s:188    .text._isatty:0000000000000000 _isatty
     /tmp/cc5kpRv7.s:204    .text._getpid:0000000000000000 $t
     /tmp/cc5kpRv7.s:211    .text._getpid:0000000000000000 _getpid
     /tmp/cc5kpRv7.s:225    .text._exit:0000000000000000 $t
     /tmp/cc5kpRv7.s:232    .text._exit:0000000000000000 _exit
     /tmp/cc5kpRv7.s:247    .text._fini:0000000000000000 $t
     /tmp/cc5kpRv7.s:254    .text._fini:0000000000000000 _fini
     /tmp/cc5kpRv7.s:266    .text._kill:0000000000000000 $t
     /tmp/cc5kpRv7.s:273    .text._kill:0000000000000000 _kill
     /tmp/cc5kpRv7.s:292    .data._before_main:0000000000000000 _before_main
                     .debug_frame:0000000000000010 $d

UNDEFINED SYMBOLS
chHeapAllocAligned
