ARM GAS  /tmp/ccRd8DKP.s 			page 1


   1              		.cpu cortex-m4
   2              		.eabi_attribute 27, 1
   3              		.eabi_attribute 28, 1
   4              		.eabi_attribute 20, 1
   5              		.eabi_attribute 21, 1
   6              		.eabi_attribute 23, 3
   7              		.eabi_attribute 24, 1
   8              		.eabi_attribute 25, 1
   9              		.eabi_attribute 26, 1
  10              		.eabi_attribute 30, 6
  11              		.eabi_attribute 34, 1
  12              		.eabi_attribute 18, 4
  13              		.file	"syscalls_cpp.cpp"
  14              		.text
  15              	.Ltext0:
  16              		.cfi_sections	.debug_frame
  17              		.section	.text._ZL11osalSysHaltPKc,"ax",%progbits
  18              		.align	1
  19              		.p2align 4,,15
  20              		.syntax unified
  21              		.thumb
  22              		.thumb_func
  23              		.fpu fpv4-sp-d16
  24              		.type	_ZL11osalSysHaltPKc, %function
  25              	_ZL11osalSysHaltPKc:
  26              		.fnstart
  27              	.LFB291:
  28              		.file 1 "../../modules/ChibiOS/os/hal/osal/rt/osal.h"
  29              		.loc 1 478 0
  30              		.cfi_startproc
  31              		@ args = 0, pretend = 0, frame = 8
  32              		@ frame_needed = 0, uses_anonymous_args = 0
  33 0000 00B5     		push	{lr}
  34              		.save {lr}
  35              		.cfi_def_cfa_offset 4
  36              		.cfi_offset 14, -4
  37              		.pad #12
  38 0002 83B0     		sub	sp, sp, #12
  39              		.cfi_def_cfa_offset 16
  40 0004 0190     		str	r0, [sp, #4]
  41              		.loc 1 480 0
  42 0006 0198     		ldr	r0, [sp, #4]
  43 0008 FFF7FEFF 		bl	chSysHalt
  44              		.loc 1 481 0
  45 000c 00BF     		nop
  46 000e 03B0     		add	sp, sp, #12
  47              		.cfi_def_cfa_offset 4
  48              		@ sp needed
  49 0010 5DF804FB 		ldr	pc, [sp], #4
  50              		.cfi_endproc
  51              	.LFE291:
  52              		.fnend
  53              		.size	_ZL11osalSysHaltPKc, .-_ZL11osalSysHaltPKc
  54              		.global	__dso_handle
  55              		.section	.bss.__dso_handle,"aw",%nobits
  56              		.align	2
  57              		.type	__dso_handle, %object
ARM GAS  /tmp/ccRd8DKP.s 			page 2


  58              		.size	__dso_handle, 4
  59              	__dso_handle:
  60 0000 00000000 		.space	4
  61              		.section	.rodata
  62              		.align	2
  63              	.LC0:
  64 0000 556E7265 		.ascii	"Unrealized\000"
  64      616C697A 
  64      656400
  65              		.section	.text._exit,"ax",%progbits
  66              		.align	1
  67              		.p2align 4,,15
  68              		.global	_exit
  69              		.syntax unified
  70              		.thumb
  71              		.thumb_func
  72              		.fpu fpv4-sp-d16
  73              		.type	_exit, %function
  74              	_exit:
  75              		.fnstart
  76              	.LFB323:
  77              		.file 2 "../../modules/ChibiOS/os/various/cpp_wrappers/syscalls_cpp.cpp"
  78              		.loc 2 12 0
  79              		.cfi_startproc
  80              		@ args = 0, pretend = 0, frame = 8
  81              		@ frame_needed = 0, uses_anonymous_args = 0
  82 0000 00B5     		push	{lr}
  83              		.save {lr}
  84              		.cfi_def_cfa_offset 4
  85              		.cfi_offset 14, -4
  86              		.pad #12
  87 0002 83B0     		sub	sp, sp, #12
  88              		.cfi_def_cfa_offset 16
  89 0004 0190     		str	r0, [sp, #4]
  90              		.loc 2 14 0
  91 0006 0248     		ldr	r0, .L4
  92 0008 FFF7FEFF 		bl	_ZL11osalSysHaltPKc
  93              	.L3:
  94              		.loc 2 15 0 discriminator 1
  95 000c FEE7     		b	.L3
  96              	.L5:
  97 000e 00BF     		.align	2
  98              	.L4:
  99 0010 00000000 		.word	.LC0
 100              		.cfi_endproc
 101              	.LFE323:
 102              		.fnend
 103              		.size	_exit, .-_exit
 104              		.section	.text._kill,"ax",%progbits
 105              		.align	1
 106              		.p2align 4,,15
 107              		.global	_kill
 108              		.syntax unified
 109              		.thumb
 110              		.thumb_func
 111              		.fpu fpv4-sp-d16
 112              		.type	_kill, %function
ARM GAS  /tmp/ccRd8DKP.s 			page 3


 113              	_kill:
 114              		.fnstart
 115              	.LFB324:
 116              		.loc 2 20 0
 117              		.cfi_startproc
 118              		@ args = 0, pretend = 0, frame = 8
 119              		@ frame_needed = 0, uses_anonymous_args = 0
 120              		@ link register save eliminated.
 121 0000 82B0     		sub	sp, sp, #8
 122              		.cfi_def_cfa_offset 8
 123 0002 0190     		str	r0, [sp, #4]
 124 0004 0091     		str	r1, [sp]
 125              		.loc 2 23 0
 126 0006 044B     		ldr	r3, .L8
 127 0008 1622     		movs	r2, #22
 128 000a 1A60     		str	r2, [r3]
 129              		.loc 2 24 0
 130 000c 4FF0FF33 		mov	r3, #-1
 131              		.loc 2 25 0
 132 0010 1846     		mov	r0, r3
 133 0012 02B0     		add	sp, sp, #8
 134              		.cfi_def_cfa_offset 0
 135              		@ sp needed
 136 0014 7047     		bx	lr
 137              	.L9:
 138 0016 00BF     		.align	2
 139              	.L8:
 140 0018 00000000 		.word	errno
 141              		.cfi_endproc
 142              	.LFE324:
 143              		.cantunwind
 144              		.fnend
 145              		.size	_kill, .-_kill
 146              		.section	.text._open_r,"ax",%progbits
 147              		.align	1
 148              		.p2align 4,,15
 149              		.global	_open_r
 150              		.syntax unified
 151              		.thumb
 152              		.thumb_func
 153              		.fpu fpv4-sp-d16
 154              		.type	_open_r, %function
 155              	_open_r:
 156              		.fnstart
 157              	.LFB325:
 158              		.loc 2 27 0
 159              		.cfi_startproc
 160              		@ args = 0, pretend = 0, frame = 0
 161              		@ frame_needed = 0, uses_anonymous_args = 0
 162              		@ link register save eliminated.
 163              		.loc 2 28 0
 164 0000 00BF     		nop
 165              		.loc 2 29 0
 166 0002 7047     		bx	lr
 167              		.cfi_endproc
 168              	.LFE325:
 169              		.cantunwind
ARM GAS  /tmp/ccRd8DKP.s 			page 4


 170              		.fnend
 171              		.size	_open_r, .-_open_r
 172              		.section	.rodata
 173 000b 00       		.align	2
 174              	.LC1:
 175 000c 50757265 		.ascii	"Pure virtual function call.\000"
 175      20766972 
 175      7475616C 
 175      2066756E 
 175      6374696F 
 176              		.section	.text.__cxa_pure_virtual,"ax",%progbits
 177              		.align	1
 178              		.p2align 4,,15
 179              		.global	__cxa_pure_virtual
 180              		.syntax unified
 181              		.thumb
 182              		.thumb_func
 183              		.fpu fpv4-sp-d16
 184              		.type	__cxa_pure_virtual, %function
 185              	__cxa_pure_virtual:
 186              		.fnstart
 187              	.LFB326:
 188              		.loc 2 31 0
 189              		.cfi_startproc
 190              		@ args = 0, pretend = 0, frame = 0
 191              		@ frame_needed = 0, uses_anonymous_args = 0
 192 0000 08B5     		push	{r3, lr}
 193              		.save {r3, lr}
 194              		.cfi_def_cfa_offset 8
 195              		.cfi_offset 3, -8
 196              		.cfi_offset 14, -4
 197              		.loc 2 32 0
 198 0002 0248     		ldr	r0, .L13
 199 0004 FFF7FEFF 		bl	_ZL11osalSysHaltPKc
 200              		.loc 2 33 0
 201 0008 00BF     		nop
 202 000a 08BD     		pop	{r3, pc}
 203              	.L14:
 204              		.align	2
 205              	.L13:
 206 000c 0C000000 		.word	.LC1
 207              		.cfi_endproc
 208              	.LFE326:
 209              		.fnend
 210              		.size	__cxa_pure_virtual, .-__cxa_pure_virtual
 211              		.text
 212              	.Letext0:
 213              		.file 3 "/opt/gcc-arm-none-eabi-6-2017-q2-update/lib/gcc/arm-none-eabi/6.3.1/include/stdarg.h"
 214              		.file 4 "/opt/gcc-arm-none-eabi-6-2017-q2-update/arm-none-eabi/include/machine/_default_types.h"
 215              		.file 5 "/opt/gcc-arm-none-eabi-6-2017-q2-update/arm-none-eabi/include/sys/_stdint.h"
 216              		.file 6 "/opt/gcc-arm-none-eabi-6-2017-q2-update/lib/gcc/arm-none-eabi/6.3.1/include/stddef.h"
 217              		.file 7 "/opt/gcc-arm-none-eabi-6-2017-q2-update/arm-none-eabi/include/sys/lock.h"
 218              		.file 8 "/opt/gcc-arm-none-eabi-6-2017-q2-update/arm-none-eabi/include/sys/_types.h"
 219              		.file 9 "/opt/gcc-arm-none-eabi-6-2017-q2-update/arm-none-eabi/include/sys/reent.h"
 220              		.file 10 "<built-in>"
 221              		.file 11 "../../libraries/AP_HAL_ChibiOS/hwdef/common/stdio.h"
 222              		.file 12 "/opt/gcc-arm-none-eabi-6-2017-q2-update/arm-none-eabi/include/sys/errno.h"
ARM GAS  /tmp/ccRd8DKP.s 			page 5


 223              		.file 13 "../../modules/ChibiOS/os/common/ports/ARMCMx/compilers/GCC/chtypes.h"
 224              		.file 14 "../../modules/ChibiOS/os/rt/include/chsystypes.h"
 225              		.file 15 "../../modules/ChibiOS/os/rt/include/chschd.h"
 226              		.file 16 "../../modules/ChibiOS/os/rt/include/chtime.h"
 227              		.file 17 "../../modules/ChibiOS/os/common/ext/ARM/CMSIS/Core/Include/core_cm4.h"
 228              		.file 18 "../../modules/ChibiOS/os/common/ext/ST/STM32F4xx/system_stm32f4xx.h"
 229              		.file 19 "../../modules/ChibiOS/os/common/ext/ST/STM32F4xx/stm32f4xx.h"
 230              		.file 20 "../../modules/ChibiOS/os/common/ports/ARMCMx/chcore.h"
 231              		.file 21 "../../modules/ChibiOS/os/common/ports/ARMCMx/chcore_v7m.h"
 232              		.file 22 "../../modules/ChibiOS/os/rt/include/chtm.h"
 233              		.file 23 "../../modules/ChibiOS/os/rt/include/chsem.h"
 234              		.file 24 "../../modules/ChibiOS/os/rt/include/chmtx.h"
 235              		.file 25 "../../modules/ChibiOS/os/rt/include/chsys.h"
 236              		.file 26 "../../modules/ChibiOS/os/rt/include/chregistry.h"
 237              		.file 27 "../../modules/ChibiOS/os/oslib/include/chmemcore.h"
 238              		.file 28 "../../modules/ChibiOS/os/oslib/include/chmempools.h"
 239              		.file 29 "../../modules/ChibiOS/os/oslib/include/chfactory.h"
 240              		.file 30 "../../modules/ChibiOS/os/various/cpp_wrappers/syscalls_cpp.hpp"