ARM GAS  /tmp/ccRd8DKP.s 			page 1


   1              		.cpu cortex-m4
   2              		.eabi_attribute 27, 1
   3              		.eabi_attribute 28, 1
   4              		.eabi_attribute 20, 1
   5              		.eabi_attribute 21, 1
   6              		.eabi_attribute 23, 3
   7              		.eabi_attribute 24, 1
   8              		.eabi_attribute 25, 1
   9              		.eabi_attribute 26, 1
  10              		.eabi_attribute 30, 6
  11              		.eabi_attribute 34, 1
  12              		.eabi_attribute 18, 4
  13              		.file	"syscalls_cpp.cpp"
  14              		.text
  15              	.Ltext0:
  16              		.cfi_sections	.debug_frame
  17              		.section	.text._ZL11osalSysHaltPKc,"ax",%progbits
  18              		.align	1
  19              		.p2align 4,,15
  20              		.syntax unified
  21              		.thumb
  22              		.thumb_func
  23              		.fpu fpv4-sp-d16
  24              		.type	_ZL11osalSysHaltPKc, %function
  25              	_ZL11osalSysHaltPKc:
  26              		.fnstart
  27              	.LFB291:
  28              		.file 1 "../../modules/ChibiOS/os/hal/osal/rt/osal.h"
  29              		.loc 1 478 0
  30              		.cfi_startproc
  31              		@ args = 0, pretend = 0, frame = 8
  32              		@ frame_needed = 0, uses_anonymous_args = 0
  33 0000 00B5     		push	{lr}
  34              		.save {lr}
  35              		.cfi_def_cfa_offset 4
  36              		.cfi_offset 14, -4
  37              		.pad #12
  38 0002 83B0     		sub	sp, sp, #12
  39              		.cfi_def_cfa_offset 16
  40 0004 0190     		str	r0, [sp, #4]
  41              		.loc 1 480 0
  42 0006 0198     		ldr	r0, [sp, #4]
  43 0008 FFF7FEFF 		bl	chSysHalt
  44              		.loc 1 481 0
  45 000c 00BF     		nop
  46 000e 03B0     		add	sp, sp, #12
  47              		.cfi_def_cfa_offset 4
  48              		@ sp needed
  49 0010 5DF804FB 		ldr	pc, [sp], #4
  50              		.cfi_endproc
  51              	.LFE291:
  52              		.fnend
  53              		.size	_ZL11osalSysHaltPKc, .-_ZL11osalSysHaltPKc
  54              		.global	__dso_handle
  55              		.section	.bss.__dso_handle,"aw",%nobits
  56              		.align	2
  57              		.type	__dso_handle, %object
ARM GAS  /tmp/ccRd8DKP.s 			page 2


  58              		.size	__dso_handle, 4
  59              	__dso_handle:
  60 0000 00000000 		.space	4
  61              		.section	.rodata
  62              		.align	2
  63              	.LC0:
  64 0000 556E7265 		.ascii	"Unrealized\000"
  64      616C697A 
  64      656400
  65              		.section	.text._exit,"ax",%progbits
  66              		.align	1
  67              		.p2align 4,,15
  68              		.global	_exit
  69              		.syntax unified
  70              		.thumb
  71              		.thumb_func
  72              		.fpu fpv4-sp-d16
  73              		.type	_exit, %function
  74              	_exit:
  75              		.fnstart
  76              	.LFB323:
  77              		.file 2 "../../modules/ChibiOS/os/various/cpp_wrappers/syscalls_cpp.cpp"
  78              		.loc 2 12 0
  79              		.cfi_startproc
  80              		@ args = 0, pretend = 0, frame = 8
  81              		@ frame_needed = 0, uses_anonymous_args = 0
  82 0000 00B5     		push	{lr}
  83              		.save {lr}
  84              		.cfi_def_cfa_offset 4
  85              		.cfi_offset 14, -4
  86              		.pad #12
  87 0002 83B0     		sub	sp, sp, #12
  88              		.cfi_def_cfa_offset 16
  89 0004 0190     		str	r0, [sp, #4]
  90              		.loc 2 14 0
  91 0006 0248     		ldr	r0, .L4
  92 0008 FFF7FEFF 		bl	_ZL11osalSysHaltPKc
  93              	.L3:
  94              		.loc 2 15 0 discriminator 1
  95 000c FEE7     		b	.L3
  96              	.L5:
  97 000e 00BF     		.align	2
  98              	.L4:
  99 0010 00000000 		.word	.LC0
 100              		.cfi_endproc
 101              	.LFE323:
 102              		.fnend
 103              		.size	_exit, .-_exit
 104              		.section	.text._kill,"ax",%progbits
 105              		.align	1
 106              		.p2align 4,,15
 107              		.global	_kill
 108              		.syntax unified
 109              		.thumb
 110              		.thumb_func
 111              		.fpu fpv4-sp-d16
 112              		.type	_kill, %function
ARM GAS  /tmp/ccRd8DKP.s 			page 3


 113              	_kill:
 114              		.fnstart
 115              	.LFB324:
 116              		.loc 2 20 0
 117              		.cfi_startproc
 118              		@ args = 0, pretend = 0, frame = 8
 119              		@ frame_needed = 0, uses_anonymous_args = 0
 120              		@ link register save eliminated.
 121 0000 82B0     		sub	sp, sp, #8
 122              		.cfi_def_cfa_offset 8
 123 0002 0190     		str	r0, [sp, #4]
 124 0004 0091     		str	r1, [sp]
 125              		.loc 2 23 0
 126 0006 044B     		ldr	r3, .L8
 127 0008 1622     		movs	r2, #22
 128 000a 1A60     		str	r2, [r3]
 129              		.loc 2 24 0
 130 000c 4FF0FF33 		mov	r3, #-1
 131              		.loc 2 25 0
 132 0010 1846     		mov	r0, r3
 133 0012 02B0     		add	sp, sp, #8
 134              		.cfi_def_cfa_offset 0
 135              		@ sp needed
 136 0014 7047     		bx	lr
 137              	.L9:
 138 0016 00BF     		.align	2
 139              	.L8:
 140 0018 00000000 		.word	errno
 141              		.cfi_endproc
 142              	.LFE324:
 143              		.cantunwind
 144              		.fnend
 145              		.size	_kill, .-_kill
 146              		.section	.text._open_r,"ax",%progbits
 147              		.align	1
 148              		.p2align 4,,15
 149              		.global	_open_r
 150              		.syntax unified
 151              		.thumb
 152              		.thumb_func
 153              		.fpu fpv4-sp-d16
 154              		.type	_open_r, %function
 155              	_open_r:
 156              		.fnstart
 157              	.LFB325:
 158              		.loc 2 27 0
 159              		.cfi_startproc
 160              		@ args = 0, pretend = 0, frame = 0
 161              		@ frame_needed = 0, uses_anonymous_args = 0
 162              		@ link register save eliminated.
 163              		.loc 2 28 0
 164 0000 00BF     		nop
 165              		.loc 2 29 0
 166 0002 7047     		bx	lr
 167              		.cfi_endproc
 168              	.LFE325:
 169              		.cantunwind
ARM GAS  /tmp/ccRd8DKP.s 			page 4


 170              		.fnend
 171              		.size	_open_r, .-_open_r
 172              		.section	.rodata
 173 000b 00       		.align	2
 174              	.LC1:
 175 000c 50757265 		.ascii	"Pure virtual function call.\000"
 175      20766972 
 175      7475616C 
 175      2066756E 
 175      6374696F 
 176              		.section	.text.__cxa_pure_virtual,"ax",%progbits
 177              		.align	1
 178              		.p2align 4,,15
 179              		.global	__cxa_pure_virtual
 180              		.syntax unified
 181              		.thumb
 182              		.thumb_func
 183              		.fpu fpv4-sp-d16
 184              		.type	__cxa_pure_virtual, %function
 185              	__cxa_pure_virtual:
 186              		.fnstart
 187              	.LFB326:
 188              		.loc 2 31 0
 189              		.cfi_startproc
 190              		@ args = 0, pretend = 0, frame = 0
 191              		@ frame_needed = 0, uses_anonymous_args = 0
 192 0000 08B5     		push	{r3, lr}
 193              		.save {r3, lr}
 194              		.cfi_def_cfa_offset 8
 195              		.cfi_offset 3, -8
 196              		.cfi_offset 14, -4
 197              		.loc 2 32 0
 198 0002 0248     		ldr	r0, .L13
 199 0004 FFF7FEFF 		bl	_ZL11osalSysHaltPKc
 200              		.loc 2 33 0
 201 0008 00BF     		nop
 202 000a 08BD     		pop	{r3, pc}
 203              	.L14:
 204              		.align	2
 205              	.L13:
 206 000c 0C000000 		.word	.LC1
 207              		.cfi_endproc
 208              	.LFE326:
 209              		.fnend
 210              		.size	__cxa_pure_virtual, .-__cxa_pure_virtual
 211              		.text
 212              	.Letext0:
 213              		.file 3 "/opt/gcc-arm-none-eabi-6-2017-q2-update/lib/gcc/arm-none-eabi/6.3.1/include/stdarg.h"
 214              		.file 4 "/opt/gcc-arm-none-eabi-6-2017-q2-update/arm-none-eabi/include/machine/_default_types.h"
 215              		.file 5 "/opt/gcc-arm-none-eabi-6-2017-q2-update/arm-none-eabi/include/sys/_stdint.h"
 216              		.file 6 "/opt/gcc-arm-none-eabi-6-2017-q2-update/lib/gcc/arm-none-eabi/6.3.1/include/stddef.h"
 217              		.file 7 "/opt/gcc-arm-none-eabi-6-2017-q2-update/arm-none-eabi/include/sys/lock.h"
 218              		.file 8 "/opt/gcc-arm-none-eabi-6-2017-q2-update/arm-none-eabi/include/sys/_types.h"
 219              		.file 9 "/opt/gcc-arm-none-eabi-6-2017-q2-update/arm-none-eabi/include/sys/reent.h"
 220              		.file 10 "<built-in>"
 221              		.file 11 "../../libraries/AP_HAL_ChibiOS/hwdef/common/stdio.h"
 222              		.file 12 "/opt/gcc-arm-none-eabi-6-2017-q2-update/arm-none-eabi/include/sys/errno.h"
ARM GAS  /tmp/ccRd8DKP.s 			page 5


 223              		.file 13 "../../modules/ChibiOS/os/common/ports/ARMCMx/compilers/GCC/chtypes.h"
 224              		.file 14 "../../modules/ChibiOS/os/rt/include/chsystypes.h"
 225              		.file 15 "../../modules/ChibiOS/os/rt/include/chschd.h"
 226              		.file 16 "../../modules/ChibiOS/os/rt/include/chtime.h"
 227              		.file 17 "../../modules/ChibiOS/os/common/ext/ARM/CMSIS/Core/Include/core_cm4.h"
 228              		.file 18 "../../modules/ChibiOS/os/common/ext/ST/STM32F4xx/system_stm32f4xx.h"
 229              		.file 19 "../../modules/ChibiOS/os/common/ext/ST/STM32F4xx/stm32f4xx.h"
 230              		.file 20 "../../modules/ChibiOS/os/common/ports/ARMCMx/chcore.h"
 231              		.file 21 "../../modules/ChibiOS/os/common/ports/ARMCMx/chcore_v7m.h"
 232              		.file 22 "../../modules/ChibiOS/os/rt/include/chtm.h"
 233              		.file 23 "../../modules/ChibiOS/os/rt/include/chsem.h"
 234              		.file 24 "../../modules/ChibiOS/os/rt/include/chmtx.h"
 235              		.file 25 "../../modules/ChibiOS/os/rt/include/chsys.h"
 236              		.file 26 "../../modules/ChibiOS/os/rt/include/chregistry.h"
 237              		.file 27 "../../modules/ChibiOS/os/oslib/include/chmemcore.h"
 238              		.file 28 "../../modules/ChibiOS/os/oslib/include/chmempools.h"
 239              		.file 29 "../../modules/ChibiOS/os/oslib/include/chfactory.h"
 240              		.file 30 "../../modules/ChibiOS/os/various/cpp_wrappers/syscalls_cpp.hpp"
 241              		.section	.debug_info,"",%progbits
 242              	.Ldebug_info0:
 243 0000 31140000 		.4byte	0x1431
 244 0004 0400     		.2byte	0x4
 245 0006 00000000 		.4byte	.Ldebug_abbrev0
 246 000a 04       		.byte	0x4
 247 000b 01       		.uleb128 0x1
 248 000c 38010000 		.4byte	.LASF286
 249 0010 04       		.byte	0x4
 250 0011 F30B0000 		.4byte	.LASF287
 251 0015 EB080000 		.4byte	.LASF288
 252 0019 00000000 		.4byte	.Ldebug_ranges0+0
 253 001d 00000000 		.4byte	0
 254 0021 00000000 		.4byte	.Ldebug_line0
 255 0025 02       		.uleb128 0x2
 256 0026 05040000 		.4byte	.LASF0
 257 002a 03       		.byte	0x3
 258 002b 28       		.byte	0x28
 259 002c 30000000 		.4byte	0x30
 260 0030 03       		.uleb128 0x3
 261 0031 22050000 		.4byte	.LASF37
 262 0035 04       		.byte	0x4
 263 0036 0A       		.byte	0xa
 264 0037 00       		.byte	0
 265 0038 47000000 		.4byte	0x47
 266 003c 04       		.uleb128 0x4
 267 003d 6E050000 		.4byte	.LASF28
 268 0041 47000000 		.4byte	0x47
 269 0045 00       		.byte	0
 270 0046 00       		.byte	0
 271 0047 05       		.uleb128 0x5
 272 0048 04       		.byte	0x4
 273 0049 02       		.uleb128 0x2
 274 004a 88060000 		.4byte	.LASF1
 275 004e 03       		.byte	0x3
 276 004f 63       		.byte	0x63
 277 0050 25000000 		.4byte	0x25
 278 0054 06       		.uleb128 0x6
 279 0055 01       		.byte	0x1
ARM GAS  /tmp/ccRd8DKP.s 			page 6


 280 0056 06       		.byte	0x6
 281 0057 5E030000 		.4byte	.LASF3
 282 005b 02       		.uleb128 0x2
 283 005c 7A020000 		.4byte	.LASF2
 284 0060 04       		.byte	0x4
 285 0061 2B       		.byte	0x2b
 286 0062 66000000 		.4byte	0x66
 287 0066 06       		.uleb128 0x6
 288 0067 01       		.byte	0x1
 289 0068 08       		.byte	0x8
 290 0069 8B030000 		.4byte	.LASF4
 291 006d 06       		.uleb128 0x6
 292 006e 02       		.byte	0x2
 293 006f 05       		.byte	0x5
 294 0070 760A0000 		.4byte	.LASF5
 295 0074 02       		.uleb128 0x2
 296 0075 3E040000 		.4byte	.LASF6
 297 0079 04       		.byte	0x4
 298 007a 39       		.byte	0x39
 299 007b 7F000000 		.4byte	0x7f
 300 007f 06       		.uleb128 0x6
 301 0080 02       		.byte	0x2
 302 0081 07       		.byte	0x7
 303 0082 C00B0000 		.4byte	.LASF7
 304 0086 02       		.uleb128 0x2
 305 0087 510C0000 		.4byte	.LASF8
 306 008b 04       		.byte	0x4
 307 008c 4D       		.byte	0x4d
 308 008d 91000000 		.4byte	0x91
 309 0091 06       		.uleb128 0x6
 310 0092 04       		.byte	0x4
 311 0093 05       		.byte	0x5
 312 0094 BD020000 		.4byte	.LASF9
 313 0098 02       		.uleb128 0x2
 314 0099 5C060000 		.4byte	.LASF10
 315 009d 04       		.byte	0x4
 316 009e 4F       		.byte	0x4f
 317 009f A3000000 		.4byte	0xa3
 318 00a3 06       		.uleb128 0x6
 319 00a4 04       		.byte	0x4
 320 00a5 07       		.byte	0x7
 321 00a6 05050000 		.4byte	.LASF11
 322 00aa 06       		.uleb128 0x6
 323 00ab 08       		.byte	0x8
 324 00ac 05       		.byte	0x5
 325 00ad 7A060000 		.4byte	.LASF12
 326 00b1 02       		.uleb128 0x2
 327 00b2 EB040000 		.4byte	.LASF13
 328 00b6 04       		.byte	0x4
 329 00b7 69       		.byte	0x69
 330 00b8 BC000000 		.4byte	0xbc
 331 00bc 06       		.uleb128 0x6
 332 00bd 08       		.byte	0x8
 333 00be 07       		.byte	0x7
 334 00bf D4080000 		.4byte	.LASF14
 335 00c3 07       		.uleb128 0x7
 336 00c4 04       		.byte	0x4
ARM GAS  /tmp/ccRd8DKP.s 			page 7


 337 00c5 05       		.byte	0x5
 338 00c6 696E7400 		.ascii	"int\000"
 339 00ca 06       		.uleb128 0x6
 340 00cb 04       		.byte	0x4
 341 00cc 07       		.byte	0x7
 342 00cd 17070000 		.4byte	.LASF15
 343 00d1 02       		.uleb128 0x2
 344 00d2 71030000 		.4byte	.LASF16
 345 00d6 05       		.byte	0x5
 346 00d7 18       		.byte	0x18
 347 00d8 5B000000 		.4byte	0x5b
 348 00dc 08       		.uleb128 0x8
 349 00dd D1000000 		.4byte	0xd1
 350 00e1 02       		.uleb128 0x2
 351 00e2 17090000 		.4byte	.LASF17
 352 00e6 05       		.byte	0x5
 353 00e7 24       		.byte	0x24
 354 00e8 74000000 		.4byte	0x74
 355 00ec 02       		.uleb128 0x2
 356 00ed 8A000000 		.4byte	.LASF18
 357 00f1 05       		.byte	0x5
 358 00f2 2C       		.byte	0x2c
 359 00f3 86000000 		.4byte	0x86
 360 00f7 09       		.uleb128 0x9
 361 00f8 EC000000 		.4byte	0xec
 362 00fc 02       		.uleb128 0x2
 363 00fd 880B0000 		.4byte	.LASF19
 364 0101 05       		.byte	0x5
 365 0102 30       		.byte	0x30
 366 0103 98000000 		.4byte	0x98
 367 0107 02       		.uleb128 0x2
 368 0108 800A0000 		.4byte	.LASF20
 369 010c 05       		.byte	0x5
 370 010d 3C       		.byte	0x3c
 371 010e B1000000 		.4byte	0xb1
 372 0112 02       		.uleb128 0x2
 373 0113 08000000 		.4byte	.LASF21
 374 0117 06       		.byte	0x6
 375 0118 D8       		.byte	0xd8
 376 0119 CA000000 		.4byte	0xca
 377 011d 06       		.uleb128 0x6
 378 011e 08       		.byte	0x8
 379 011f 04       		.byte	0x4
 380 0120 FB070000 		.4byte	.LASF22
 381 0124 0A       		.uleb128 0xa
 382 0125 5D040000 		.4byte	.LASF289
 383 0129 0B       		.uleb128 0xb
 384 012a C3000000 		.4byte	0xc3
 385 012e 3D010000 		.4byte	0x13d
 386 0132 0C       		.uleb128 0xc
 387 0133 3D010000 		.4byte	0x13d
 388 0137 0C       		.uleb128 0xc
 389 0138 49000000 		.4byte	0x49
 390 013c 00       		.byte	0
 391 013d 0D       		.uleb128 0xd
 392 013e 04       		.byte	0x4
 393 013f 54010000 		.4byte	0x154
ARM GAS  /tmp/ccRd8DKP.s 			page 8


 394 0143 08       		.uleb128 0x8
 395 0144 3D010000 		.4byte	0x13d
 396 0148 09       		.uleb128 0x9
 397 0149 3D010000 		.4byte	0x13d
 398 014d 06       		.uleb128 0x6
 399 014e 01       		.byte	0x1
 400 014f 08       		.byte	0x8
 401 0150 24040000 		.4byte	.LASF23
 402 0154 08       		.uleb128 0x8
 403 0155 4D010000 		.4byte	0x14d
 404 0159 0E       		.uleb128 0xe
 405 015a 62090000 		.4byte	.LASF135
 406 015e 0B       		.byte	0xb
 407 015f 30       		.byte	0x30
 408 0160 64010000 		.4byte	0x164
 409 0164 0D       		.uleb128 0xd
 410 0165 04       		.byte	0x4
 411 0166 29010000 		.4byte	0x129
 412 016a 02       		.uleb128 0x2
 413 016b 260B0000 		.4byte	.LASF24
 414 016f 07       		.byte	0x7
 415 0170 22       		.byte	0x22
 416 0171 75010000 		.4byte	0x175
 417 0175 0D       		.uleb128 0xd
 418 0176 04       		.byte	0x4
 419 0177 7B010000 		.4byte	0x17b
 420 017b 0F       		.uleb128 0xf
 421 017c B9040000 		.4byte	.LASF133
 422 0180 02       		.uleb128 0x2
 423 0181 AD0B0000 		.4byte	.LASF25
 424 0185 08       		.byte	0x8
 425 0186 2C       		.byte	0x2c
 426 0187 91000000 		.4byte	0x91
 427 018b 02       		.uleb128 0x2
 428 018c 70080000 		.4byte	.LASF26
 429 0190 08       		.byte	0x8
 430 0191 72       		.byte	0x72
 431 0192 91000000 		.4byte	0x91
 432 0196 10       		.uleb128 0x10
 433 0197 0B0A0000 		.4byte	.LASF27
 434 019b 06       		.byte	0x6
 435 019c 6501     		.2byte	0x165
 436 019e CA000000 		.4byte	0xca
 437 01a2 11       		.uleb128 0x11
 438 01a3 08       		.byte	0x8
 439 01a4 08       		.byte	0x8
 440 01a5 A4       		.byte	0xa4
 441 01a6 DC020000 		.4byte	.LASF221
 442 01aa E6010000 		.4byte	0x1e6
 443 01ae 12       		.uleb128 0x12
 444 01af 04       		.byte	0x4
 445 01b0 08       		.byte	0x8
 446 01b1 A7       		.byte	0xa7
 447 01b2 CD010000 		.4byte	0x1cd
 448 01b6 13       		.uleb128 0x13
 449 01b7 63020000 		.4byte	.LASF29
 450 01bb 08       		.byte	0x8
ARM GAS  /tmp/ccRd8DKP.s 			page 9


 451 01bc A8       		.byte	0xa8
 452 01bd 96010000 		.4byte	0x196
 453 01c1 13       		.uleb128 0x13
 454 01c2 78080000 		.4byte	.LASF30
 455 01c6 08       		.byte	0x8
 456 01c7 A9       		.byte	0xa9
 457 01c8 E6010000 		.4byte	0x1e6
 458 01cc 00       		.byte	0
 459 01cd 14       		.uleb128 0x14
 460 01ce C6070000 		.4byte	.LASF31
 461 01d2 08       		.byte	0x8
 462 01d3 A5       		.byte	0xa5
 463 01d4 C3000000 		.4byte	0xc3
 464 01d8 00       		.byte	0
 465 01d9 14       		.uleb128 0x14
 466 01da 2C000000 		.4byte	.LASF32
 467 01de 08       		.byte	0x8
 468 01df AA       		.byte	0xaa
 469 01e0 AE010000 		.4byte	0x1ae
 470 01e4 04       		.byte	0x4
 471 01e5 00       		.byte	0
 472 01e6 15       		.uleb128 0x15
 473 01e7 66000000 		.4byte	0x66
 474 01eb F6010000 		.4byte	0x1f6
 475 01ef 16       		.uleb128 0x16
 476 01f0 F6010000 		.4byte	0x1f6
 477 01f4 03       		.byte	0x3
 478 01f5 00       		.byte	0
 479 01f6 06       		.uleb128 0x6
 480 01f7 04       		.byte	0x4
 481 01f8 07       		.byte	0x7
 482 01f9 18000000 		.4byte	.LASF33
 483 01fd 02       		.uleb128 0x2
 484 01fe F4090000 		.4byte	.LASF34
 485 0202 08       		.byte	0x8
 486 0203 AB       		.byte	0xab
 487 0204 A2010000 		.4byte	0x1a2
 488 0208 02       		.uleb128 0x2
 489 0209 D6090000 		.4byte	.LASF35
 490 020d 08       		.byte	0x8
 491 020e AF       		.byte	0xaf
 492 020f 6A010000 		.4byte	0x16a
 493 0213 0D       		.uleb128 0xd
 494 0214 04       		.byte	0x4
 495 0215 4D010000 		.4byte	0x14d
 496 0219 02       		.uleb128 0x2
 497 021a 7A0B0000 		.4byte	.LASF36
 498 021e 09       		.byte	0x9
 499 021f 16       		.byte	0x16
 500 0220 A3000000 		.4byte	0xa3
 501 0224 03       		.uleb128 0x3
 502 0225 0A060000 		.4byte	.LASF38
 503 0229 18       		.byte	0x18
 504 022a 09       		.byte	0x9
 505 022b 2F       		.byte	0x2f
 506 022c 77020000 		.4byte	0x277
 507 0230 14       		.uleb128 0x14
ARM GAS  /tmp/ccRd8DKP.s 			page 10


 508 0231 200A0000 		.4byte	.LASF39
 509 0235 09       		.byte	0x9
 510 0236 31       		.byte	0x31
 511 0237 77020000 		.4byte	0x277
 512 023b 00       		.byte	0
 513 023c 17       		.uleb128 0x17
 514 023d 5F6B00   		.ascii	"_k\000"
 515 0240 09       		.byte	0x9
 516 0241 32       		.byte	0x32
 517 0242 C3000000 		.4byte	0xc3
 518 0246 04       		.byte	0x4
 519 0247 14       		.uleb128 0x14
 520 0248 22060000 		.4byte	.LASF40
 521 024c 09       		.byte	0x9
 522 024d 32       		.byte	0x32
 523 024e C3000000 		.4byte	0xc3
 524 0252 08       		.byte	0x8
 525 0253 14       		.uleb128 0x14
 526 0254 01070000 		.4byte	.LASF41
 527 0258 09       		.byte	0x9
 528 0259 32       		.byte	0x32
 529 025a C3000000 		.4byte	0xc3
 530 025e 0C       		.byte	0xc
 531 025f 14       		.uleb128 0x14
 532 0260 A6040000 		.4byte	.LASF42
 533 0264 09       		.byte	0x9
 534 0265 32       		.byte	0x32
 535 0266 C3000000 		.4byte	0xc3
 536 026a 10       		.byte	0x10
 537 026b 17       		.uleb128 0x17
 538 026c 5F7800   		.ascii	"_x\000"
 539 026f 09       		.byte	0x9
 540 0270 33       		.byte	0x33
 541 0271 7D020000 		.4byte	0x27d
 542 0275 14       		.byte	0x14
 543 0276 00       		.byte	0
 544 0277 0D       		.uleb128 0xd
 545 0278 04       		.byte	0x4
 546 0279 24020000 		.4byte	0x224
 547 027d 15       		.uleb128 0x15
 548 027e 19020000 		.4byte	0x219
 549 0282 8D020000 		.4byte	0x28d
 550 0286 16       		.uleb128 0x16
 551 0287 F6010000 		.4byte	0x1f6
 552 028b 00       		.byte	0
 553 028c 00       		.byte	0
 554 028d 03       		.uleb128 0x3
 555 028e CF000000 		.4byte	.LASF43
 556 0292 24       		.byte	0x24
 557 0293 09       		.byte	0x9
 558 0294 37       		.byte	0x37
 559 0295 06030000 		.4byte	0x306
 560 0299 14       		.uleb128 0x14
 561 029a EB000000 		.4byte	.LASF44
 562 029e 09       		.byte	0x9
 563 029f 39       		.byte	0x39
 564 02a0 C3000000 		.4byte	0xc3
ARM GAS  /tmp/ccRd8DKP.s 			page 11


 565 02a4 00       		.byte	0
 566 02a5 14       		.uleb128 0x14
 567 02a6 880C0000 		.4byte	.LASF45
 568 02aa 09       		.byte	0x9
 569 02ab 3A       		.byte	0x3a
 570 02ac C3000000 		.4byte	0xc3
 571 02b0 04       		.byte	0x4
 572 02b1 14       		.uleb128 0x14
 573 02b2 D30B0000 		.4byte	.LASF46
 574 02b6 09       		.byte	0x9
 575 02b7 3B       		.byte	0x3b
 576 02b8 C3000000 		.4byte	0xc3
 577 02bc 08       		.byte	0x8
 578 02bd 14       		.uleb128 0x14
 579 02be 56070000 		.4byte	.LASF47
 580 02c2 09       		.byte	0x9
 581 02c3 3C       		.byte	0x3c
 582 02c4 C3000000 		.4byte	0xc3
 583 02c8 0C       		.byte	0xc
 584 02c9 14       		.uleb128 0x14
 585 02ca 35030000 		.4byte	.LASF48
 586 02ce 09       		.byte	0x9
 587 02cf 3D       		.byte	0x3d
 588 02d0 C3000000 		.4byte	0xc3
 589 02d4 10       		.byte	0x10
 590 02d5 14       		.uleb128 0x14
 591 02d6 D10A0000 		.4byte	.LASF49
 592 02da 09       		.byte	0x9
 593 02db 3E       		.byte	0x3e
 594 02dc C3000000 		.4byte	0xc3
 595 02e0 14       		.byte	0x14
 596 02e1 14       		.uleb128 0x14
 597 02e2 E0070000 		.4byte	.LASF50
 598 02e6 09       		.byte	0x9
 599 02e7 3F       		.byte	0x3f
 600 02e8 C3000000 		.4byte	0xc3
 601 02ec 18       		.byte	0x18
 602 02ed 14       		.uleb128 0x14
 603 02ee 07080000 		.4byte	.LASF51
 604 02f2 09       		.byte	0x9
 605 02f3 40       		.byte	0x40
 606 02f4 C3000000 		.4byte	0xc3
 607 02f8 1C       		.byte	0x1c
 608 02f9 14       		.uleb128 0x14
 609 02fa 780C0000 		.4byte	.LASF52
 610 02fe 09       		.byte	0x9
 611 02ff 41       		.byte	0x41
 612 0300 C3000000 		.4byte	0xc3
 613 0304 20       		.byte	0x20
 614 0305 00       		.byte	0
 615 0306 18       		.uleb128 0x18
 616 0307 8A020000 		.4byte	.LASF53
 617 030b 0801     		.2byte	0x108
 618 030d 09       		.byte	0x9
 619 030e 4A       		.byte	0x4a
 620 030f 46030000 		.4byte	0x346
 621 0313 14       		.uleb128 0x14
ARM GAS  /tmp/ccRd8DKP.s 			page 12


 622 0314 700C0000 		.4byte	.LASF54
 623 0318 09       		.byte	0x9
 624 0319 4B       		.byte	0x4b
 625 031a 46030000 		.4byte	0x346
 626 031e 00       		.byte	0
 627 031f 14       		.uleb128 0x14
 628 0320 29090000 		.4byte	.LASF55
 629 0324 09       		.byte	0x9
 630 0325 4C       		.byte	0x4c
 631 0326 46030000 		.4byte	0x346
 632 032a 80       		.byte	0x80
 633 032b 19       		.uleb128 0x19
 634 032c A00A0000 		.4byte	.LASF56
 635 0330 09       		.byte	0x9
 636 0331 4E       		.byte	0x4e
 637 0332 19020000 		.4byte	0x219
 638 0336 0001     		.2byte	0x100
 639 0338 19       		.uleb128 0x19
 640 0339 1E0B0000 		.4byte	.LASF57
 641 033d 09       		.byte	0x9
 642 033e 51       		.byte	0x51
 643 033f 19020000 		.4byte	0x219
 644 0343 0401     		.2byte	0x104
 645 0345 00       		.byte	0
 646 0346 15       		.uleb128 0x15
 647 0347 47000000 		.4byte	0x47
 648 034b 56030000 		.4byte	0x356
 649 034f 16       		.uleb128 0x16
 650 0350 F6010000 		.4byte	0x1f6
 651 0354 1F       		.byte	0x1f
 652 0355 00       		.byte	0
 653 0356 18       		.uleb128 0x18
 654 0357 BE070000 		.4byte	.LASF58
 655 035b 9001     		.2byte	0x190
 656 035d 09       		.byte	0x9
 657 035e 5D       		.byte	0x5d
 658 035f 94030000 		.4byte	0x394
 659 0363 14       		.uleb128 0x14
 660 0364 200A0000 		.4byte	.LASF39
 661 0368 09       		.byte	0x9
 662 0369 5E       		.byte	0x5e
 663 036a 94030000 		.4byte	0x394
 664 036e 00       		.byte	0
 665 036f 14       		.uleb128 0x14
 666 0370 FC0A0000 		.4byte	.LASF59
 667 0374 09       		.byte	0x9
 668 0375 5F       		.byte	0x5f
 669 0376 C3000000 		.4byte	0xc3
 670 037a 04       		.byte	0x4
 671 037b 14       		.uleb128 0x14
 672 037c 29040000 		.4byte	.LASF60
 673 0380 09       		.byte	0x9
 674 0381 61       		.byte	0x61
 675 0382 9A030000 		.4byte	0x39a
 676 0386 08       		.byte	0x8
 677 0387 14       		.uleb128 0x14
 678 0388 8A020000 		.4byte	.LASF53
ARM GAS  /tmp/ccRd8DKP.s 			page 13


 679 038c 09       		.byte	0x9
 680 038d 62       		.byte	0x62
 681 038e 06030000 		.4byte	0x306
 682 0392 88       		.byte	0x88
 683 0393 00       		.byte	0
 684 0394 0D       		.uleb128 0xd
 685 0395 04       		.byte	0x4
 686 0396 56030000 		.4byte	0x356
 687 039a 15       		.uleb128 0x15
 688 039b AA030000 		.4byte	0x3aa
 689 039f AA030000 		.4byte	0x3aa
 690 03a3 16       		.uleb128 0x16
 691 03a4 F6010000 		.4byte	0x1f6
 692 03a8 1F       		.byte	0x1f
 693 03a9 00       		.byte	0
 694 03aa 0D       		.uleb128 0xd
 695 03ab 04       		.byte	0x4
 696 03ac B0030000 		.4byte	0x3b0
 697 03b0 1A       		.uleb128 0x1a
 698 03b1 03       		.uleb128 0x3
 699 03b2 090B0000 		.4byte	.LASF61
 700 03b6 08       		.byte	0x8
 701 03b7 09       		.byte	0x9
 702 03b8 75       		.byte	0x75
 703 03b9 D6030000 		.4byte	0x3d6
 704 03bd 14       		.uleb128 0x14
 705 03be 80090000 		.4byte	.LASF62
 706 03c2 09       		.byte	0x9
 707 03c3 76       		.byte	0x76
 708 03c4 D6030000 		.4byte	0x3d6
 709 03c8 00       		.byte	0
 710 03c9 14       		.uleb128 0x14
 711 03ca 0D010000 		.4byte	.LASF63
 712 03ce 09       		.byte	0x9
 713 03cf 77       		.byte	0x77
 714 03d0 C3000000 		.4byte	0xc3
 715 03d4 04       		.byte	0x4
 716 03d5 00       		.byte	0
 717 03d6 0D       		.uleb128 0xd
 718 03d7 04       		.byte	0x4
 719 03d8 66000000 		.4byte	0x66
 720 03dc 03       		.uleb128 0x3
 721 03dd 2C050000 		.4byte	.LASF64
 722 03e1 68       		.byte	0x68
 723 03e2 09       		.byte	0x9
 724 03e3 B5       		.byte	0xb5
 725 03e4 06050000 		.4byte	0x506
 726 03e8 17       		.uleb128 0x17
 727 03e9 5F7000   		.ascii	"_p\000"
 728 03ec 09       		.byte	0x9
 729 03ed B6       		.byte	0xb6
 730 03ee D6030000 		.4byte	0x3d6
 731 03f2 00       		.byte	0
 732 03f3 17       		.uleb128 0x17
 733 03f4 5F7200   		.ascii	"_r\000"
 734 03f7 09       		.byte	0x9
 735 03f8 B7       		.byte	0xb7
ARM GAS  /tmp/ccRd8DKP.s 			page 14


 736 03f9 C3000000 		.4byte	0xc3
 737 03fd 04       		.byte	0x4
 738 03fe 17       		.uleb128 0x17
 739 03ff 5F7700   		.ascii	"_w\000"
 740 0402 09       		.byte	0x9
 741 0403 B8       		.byte	0xb8
 742 0404 C3000000 		.4byte	0xc3
 743 0408 08       		.byte	0x8
 744 0409 14       		.uleb128 0x14
 745 040a 9D070000 		.4byte	.LASF65
 746 040e 09       		.byte	0x9
 747 040f B9       		.byte	0xb9
 748 0410 6D000000 		.4byte	0x6d
 749 0414 0C       		.byte	0xc
 750 0415 14       		.uleb128 0x14
 751 0416 84020000 		.4byte	.LASF66
 752 041a 09       		.byte	0x9
 753 041b BA       		.byte	0xba
 754 041c 6D000000 		.4byte	0x6d
 755 0420 0E       		.byte	0xe
 756 0421 17       		.uleb128 0x17
 757 0422 5F626600 		.ascii	"_bf\000"
 758 0426 09       		.byte	0x9
 759 0427 BB       		.byte	0xbb
 760 0428 B1030000 		.4byte	0x3b1
 761 042c 10       		.byte	0x10
 762 042d 14       		.uleb128 0x14
 763 042e E70A0000 		.4byte	.LASF67
 764 0432 09       		.byte	0x9
 765 0433 BC       		.byte	0xbc
 766 0434 C3000000 		.4byte	0xc3
 767 0438 18       		.byte	0x18
 768 0439 14       		.uleb128 0x14
 769 043a 97040000 		.4byte	.LASF68
 770 043e 09       		.byte	0x9
 771 043f C3       		.byte	0xc3
 772 0440 47000000 		.4byte	0x47
 773 0444 1C       		.byte	0x1c
 774 0445 14       		.uleb128 0x14
 775 0446 55000000 		.4byte	.LASF69
 776 044a 09       		.byte	0x9
 777 044b C5       		.byte	0xc5
 778 044c A8070000 		.4byte	0x7a8
 779 0450 20       		.byte	0x20
 780 0451 14       		.uleb128 0x14
 781 0452 83000000 		.4byte	.LASF70
 782 0456 09       		.byte	0x9
 783 0457 C7       		.byte	0xc7
 784 0458 CC070000 		.4byte	0x7cc
 785 045c 24       		.byte	0x24
 786 045d 14       		.uleb128 0x14
 787 045e 5E080000 		.4byte	.LASF71
 788 0462 09       		.byte	0x9
 789 0463 CA       		.byte	0xca
 790 0464 F0070000 		.4byte	0x7f0
 791 0468 28       		.byte	0x28
 792 0469 14       		.uleb128 0x14
ARM GAS  /tmp/ccRd8DKP.s 			page 15


 793 046a 2E040000 		.4byte	.LASF72
 794 046e 09       		.byte	0x9
 795 046f CB       		.byte	0xcb
 796 0470 0A080000 		.4byte	0x80a
 797 0474 2C       		.byte	0x2c
 798 0475 17       		.uleb128 0x17
 799 0476 5F756200 		.ascii	"_ub\000"
 800 047a 09       		.byte	0x9
 801 047b CE       		.byte	0xce
 802 047c B1030000 		.4byte	0x3b1
 803 0480 30       		.byte	0x30
 804 0481 17       		.uleb128 0x17
 805 0482 5F757000 		.ascii	"_up\000"
 806 0486 09       		.byte	0x9
 807 0487 CF       		.byte	0xcf
 808 0488 D6030000 		.4byte	0x3d6
 809 048c 38       		.byte	0x38
 810 048d 17       		.uleb128 0x17
 811 048e 5F757200 		.ascii	"_ur\000"
 812 0492 09       		.byte	0x9
 813 0493 D0       		.byte	0xd0
 814 0494 C3000000 		.4byte	0xc3
 815 0498 3C       		.byte	0x3c
 816 0499 14       		.uleb128 0x14
 817 049a 65070000 		.4byte	.LASF73
 818 049e 09       		.byte	0x9
 819 049f D3       		.byte	0xd3
 820 04a0 10080000 		.4byte	0x810
 821 04a4 40       		.byte	0x40
 822 04a5 14       		.uleb128 0x14
 823 04a6 E5000000 		.4byte	.LASF74
 824 04aa 09       		.byte	0x9
 825 04ab D4       		.byte	0xd4
 826 04ac 20080000 		.4byte	0x820
 827 04b0 43       		.byte	0x43
 828 04b1 17       		.uleb128 0x17
 829 04b2 5F6C6200 		.ascii	"_lb\000"
 830 04b6 09       		.byte	0x9
 831 04b7 D7       		.byte	0xd7
 832 04b8 B1030000 		.4byte	0x3b1
 833 04bc 44       		.byte	0x44
 834 04bd 14       		.uleb128 0x14
 835 04be 77090000 		.4byte	.LASF75
 836 04c2 09       		.byte	0x9
 837 04c3 DA       		.byte	0xda
 838 04c4 C3000000 		.4byte	0xc3
 839 04c8 4C       		.byte	0x4c
 840 04c9 14       		.uleb128 0x14
 841 04ca D3040000 		.4byte	.LASF76
 842 04ce 09       		.byte	0x9
 843 04cf DB       		.byte	0xdb
 844 04d0 80010000 		.4byte	0x180
 845 04d4 50       		.byte	0x50
 846 04d5 14       		.uleb128 0x14
 847 04d6 260A0000 		.4byte	.LASF77
 848 04da 09       		.byte	0x9
 849 04db DE       		.byte	0xde
ARM GAS  /tmp/ccRd8DKP.s 			page 16


 850 04dc 24050000 		.4byte	0x524
 851 04e0 54       		.byte	0x54
 852 04e1 14       		.uleb128 0x14
 853 04e2 19010000 		.4byte	.LASF78
 854 04e6 09       		.byte	0x9
 855 04e7 E2       		.byte	0xe2
 856 04e8 08020000 		.4byte	0x208
 857 04ec 58       		.byte	0x58
 858 04ed 14       		.uleb128 0x14
 859 04ee 81070000 		.4byte	.LASF79
 860 04f2 09       		.byte	0x9
 861 04f3 E4       		.byte	0xe4
 862 04f4 FD010000 		.4byte	0x1fd
 863 04f8 5C       		.byte	0x5c
 864 04f9 14       		.uleb128 0x14
 865 04fa 3F050000 		.4byte	.LASF80
 866 04fe 09       		.byte	0x9
 867 04ff E5       		.byte	0xe5
 868 0500 C3000000 		.4byte	0xc3
 869 0504 64       		.byte	0x64
 870 0505 00       		.byte	0
 871 0506 0B       		.uleb128 0xb
 872 0507 C3000000 		.4byte	0xc3
 873 050b 24050000 		.4byte	0x524
 874 050f 0C       		.uleb128 0xc
 875 0510 24050000 		.4byte	0x524
 876 0514 0C       		.uleb128 0xc
 877 0515 47000000 		.4byte	0x47
 878 0519 0C       		.uleb128 0xc
 879 051a 13020000 		.4byte	0x213
 880 051e 0C       		.uleb128 0xc
 881 051f C3000000 		.4byte	0xc3
 882 0523 00       		.byte	0
 883 0524 0D       		.uleb128 0xd
 884 0525 04       		.byte	0x4
 885 0526 2F050000 		.4byte	0x52f
 886 052a 08       		.uleb128 0x8
 887 052b 24050000 		.4byte	0x524
 888 052f 1B       		.uleb128 0x1b
 889 0530 CA030000 		.4byte	.LASF81
 890 0534 2804     		.2byte	0x428
 891 0536 09       		.byte	0x9
 892 0537 3902     		.2byte	0x239
 893 0539 A8070000 		.4byte	0x7a8
 894 053d 1C       		.uleb128 0x1c
 895 053e F0       		.byte	0xf0
 896 053f 09       		.byte	0x9
 897 0540 5802     		.2byte	0x258
 898 0542 84060000 		.4byte	0x684
 899 0546 1D       		.uleb128 0x1d
 900 0547 D0       		.byte	0xd0
 901 0548 09       		.byte	0x9
 902 0549 5A02     		.2byte	0x25a
 903 054b 47060000 		.4byte	0x647
 904 054f 1E       		.uleb128 0x1e
 905 0550 47030000 		.4byte	.LASF82
 906 0554 09       		.byte	0x9
ARM GAS  /tmp/ccRd8DKP.s 			page 17


 907 0555 5B02     		.2byte	0x25b
 908 0557 CA000000 		.4byte	0xca
 909 055b 00       		.byte	0
 910 055c 1E       		.uleb128 0x1e
 911 055d 9B090000 		.4byte	.LASF83
 912 0561 09       		.byte	0x9
 913 0562 5C02     		.2byte	0x25c
 914 0564 13020000 		.4byte	0x213
 915 0568 04       		.byte	0x4
 916 0569 1E       		.uleb128 0x1e
 917 056a 92000000 		.4byte	.LASF84
 918 056e 09       		.byte	0x9
 919 056f 5D02     		.2byte	0x25d
 920 0571 C2080000 		.4byte	0x8c2
 921 0575 08       		.byte	0x8
 922 0576 1E       		.uleb128 0x1e
 923 0577 EE020000 		.4byte	.LASF85
 924 057b 09       		.byte	0x9
 925 057c 5E02     		.2byte	0x25e
 926 057e 8D020000 		.4byte	0x28d
 927 0582 24       		.byte	0x24
 928 0583 1E       		.uleb128 0x1e
 929 0584 C9060000 		.4byte	.LASF86
 930 0588 09       		.byte	0x9
 931 0589 5F02     		.2byte	0x25f
 932 058b C3000000 		.4byte	0xc3
 933 058f 48       		.byte	0x48
 934 0590 1E       		.uleb128 0x1e
 935 0591 92070000 		.4byte	.LASF87
 936 0595 09       		.byte	0x9
 937 0596 6002     		.2byte	0x260
 938 0598 BC000000 		.4byte	0xbc
 939 059c 50       		.byte	0x50
 940 059d 1E       		.uleb128 0x1e
 941 059e FF090000 		.4byte	.LASF88
 942 05a2 09       		.byte	0x9
 943 05a3 6102     		.2byte	0x261
 944 05a5 7D080000 		.4byte	0x87d
 945 05a9 58       		.byte	0x58
 946 05aa 1E       		.uleb128 0x1e
 947 05ab 690A0000 		.4byte	.LASF89
 948 05af 09       		.byte	0x9
 949 05b0 6202     		.2byte	0x262
 950 05b2 FD010000 		.4byte	0x1fd
 951 05b6 68       		.byte	0x68
 952 05b7 1E       		.uleb128 0x1e
 953 05b8 B1080000 		.4byte	.LASF90
 954 05bc 09       		.byte	0x9
 955 05bd 6302     		.2byte	0x263
 956 05bf FD010000 		.4byte	0x1fd
 957 05c3 70       		.byte	0x70
 958 05c4 1E       		.uleb128 0x1e
 959 05c5 73070000 		.4byte	.LASF91
 960 05c9 09       		.byte	0x9
 961 05ca 6402     		.2byte	0x264
 962 05cc FD010000 		.4byte	0x1fd
 963 05d0 78       		.byte	0x78
ARM GAS  /tmp/ccRd8DKP.s 			page 18


 964 05d1 1E       		.uleb128 0x1e
 965 05d2 F4000000 		.4byte	.LASF92
 966 05d6 09       		.byte	0x9
 967 05d7 6502     		.2byte	0x265
 968 05d9 D2080000 		.4byte	0x8d2
 969 05dd 80       		.byte	0x80
 970 05de 1E       		.uleb128 0x1e
 971 05df CF050000 		.4byte	.LASF93
 972 05e3 09       		.byte	0x9
 973 05e4 6602     		.2byte	0x266
 974 05e6 E2080000 		.4byte	0x8e2
 975 05ea 88       		.byte	0x88
 976 05eb 1E       		.uleb128 0x1e
 977 05ec A80C0000 		.4byte	.LASF94
 978 05f0 09       		.byte	0x9
 979 05f1 6702     		.2byte	0x267
 980 05f3 C3000000 		.4byte	0xc3
 981 05f7 A0       		.byte	0xa0
 982 05f8 1E       		.uleb128 0x1e
 983 05f9 AF020000 		.4byte	.LASF95
 984 05fd 09       		.byte	0x9
 985 05fe 6802     		.2byte	0x268
 986 0600 FD010000 		.4byte	0x1fd
 987 0604 A4       		.byte	0xa4
 988 0605 1E       		.uleb128 0x1e
 989 0606 B3090000 		.4byte	.LASF96
 990 060a 09       		.byte	0x9
 991 060b 6902     		.2byte	0x269
 992 060d FD010000 		.4byte	0x1fd
 993 0611 AC       		.byte	0xac
 994 0612 1E       		.uleb128 0x1e
 995 0613 320C0000 		.4byte	.LASF97
 996 0617 09       		.byte	0x9
 997 0618 6A02     		.2byte	0x26a
 998 061a FD010000 		.4byte	0x1fd
 999 061e B4       		.byte	0xb4
 1000 061f 1E       		.uleb128 0x1e
 1001 0620 47070000 		.4byte	.LASF98
 1002 0624 09       		.byte	0x9
 1003 0625 6B02     		.2byte	0x26b
 1004 0627 FD010000 		.4byte	0x1fd
 1005 062b BC       		.byte	0xbc
 1006 062c 1E       		.uleb128 0x1e
 1007 062d D4000000 		.4byte	.LASF99
 1008 0631 09       		.byte	0x9
 1009 0632 6C02     		.2byte	0x26c
 1010 0634 FD010000 		.4byte	0x1fd
 1011 0638 C4       		.byte	0xc4
 1012 0639 1E       		.uleb128 0x1e
 1013 063a 31070000 		.4byte	.LASF100
 1014 063e 09       		.byte	0x9
 1015 063f 6D02     		.2byte	0x26d
 1016 0641 C3000000 		.4byte	0xc3
 1017 0645 CC       		.byte	0xcc
 1018 0646 00       		.byte	0
 1019 0647 1D       		.uleb128 0x1d
 1020 0648 F0       		.byte	0xf0
ARM GAS  /tmp/ccRd8DKP.s 			page 19


 1021 0649 09       		.byte	0x9
 1022 064a 7302     		.2byte	0x273
 1023 064c 6B060000 		.4byte	0x66b
 1024 0650 1E       		.uleb128 0x1e
 1025 0651 3E0B0000 		.4byte	.LASF101
 1026 0655 09       		.byte	0x9
 1027 0656 7502     		.2byte	0x275
 1028 0658 F2080000 		.4byte	0x8f2
 1029 065c 00       		.byte	0
 1030 065d 1E       		.uleb128 0x1e
 1031 065e C0060000 		.4byte	.LASF102
 1032 0662 09       		.byte	0x9
 1033 0663 7602     		.2byte	0x276
 1034 0665 02090000 		.4byte	0x902
 1035 0669 78       		.byte	0x78
 1036 066a 00       		.byte	0
 1037 066b 1F       		.uleb128 0x1f
 1038 066c CA030000 		.4byte	.LASF81
 1039 0670 09       		.byte	0x9
 1040 0671 6E02     		.2byte	0x26e
 1041 0673 46050000 		.4byte	0x546
 1042 0677 1F       		.uleb128 0x1f
 1043 0678 C7000000 		.4byte	.LASF103
 1044 067c 09       		.byte	0x9
 1045 067d 7702     		.2byte	0x277
 1046 067f 47060000 		.4byte	0x647
 1047 0683 00       		.byte	0
 1048 0684 1E       		.uleb128 0x1e
 1049 0685 9B050000 		.4byte	.LASF104
 1050 0689 09       		.byte	0x9
 1051 068a 3B02     		.2byte	0x23b
 1052 068c C3000000 		.4byte	0xc3
 1053 0690 00       		.byte	0
 1054 0691 1E       		.uleb128 0x1e
 1055 0692 50040000 		.4byte	.LASF105
 1056 0696 09       		.byte	0x9
 1057 0697 4002     		.2byte	0x240
 1058 0699 77080000 		.4byte	0x877
 1059 069d 04       		.byte	0x4
 1060 069e 1E       		.uleb128 0x1e
 1061 069f 54090000 		.4byte	.LASF106
 1062 06a3 09       		.byte	0x9
 1063 06a4 4002     		.2byte	0x240
 1064 06a6 77080000 		.4byte	0x877
 1065 06aa 08       		.byte	0x8
 1066 06ab 1E       		.uleb128 0x1e
 1067 06ac 6B070000 		.4byte	.LASF107
 1068 06b0 09       		.byte	0x9
 1069 06b1 4002     		.2byte	0x240
 1070 06b3 77080000 		.4byte	0x877
 1071 06b7 0C       		.byte	0xc
 1072 06b8 1E       		.uleb128 0x1e
 1073 06b9 F70A0000 		.4byte	.LASF108
 1074 06bd 09       		.byte	0x9
 1075 06be 4202     		.2byte	0x242
 1076 06c0 C3000000 		.4byte	0xc3
 1077 06c4 10       		.byte	0x10
ARM GAS  /tmp/ccRd8DKP.s 			page 20


 1078 06c5 1E       		.uleb128 0x1e
 1079 06c6 67060000 		.4byte	.LASF109
 1080 06ca 09       		.byte	0x9
 1081 06cb 4302     		.2byte	0x243
 1082 06cd 12090000 		.4byte	0x912
 1083 06d1 14       		.byte	0x14
 1084 06d2 1E       		.uleb128 0x1e
 1085 06d3 B1030000 		.4byte	.LASF110
 1086 06d7 09       		.byte	0x9
 1087 06d8 4602     		.2byte	0x246
 1088 06da C3000000 		.4byte	0xc3
 1089 06de 30       		.byte	0x30
 1090 06df 1E       		.uleb128 0x1e
 1091 06e0 720B0000 		.4byte	.LASF111
 1092 06e4 09       		.byte	0x9
 1093 06e5 4702     		.2byte	0x247
 1094 06e7 27090000 		.4byte	0x927
 1095 06eb 34       		.byte	0x34
 1096 06ec 1E       		.uleb128 0x1e
 1097 06ed 34050000 		.4byte	.LASF112
 1098 06f1 09       		.byte	0x9
 1099 06f2 4902     		.2byte	0x249
 1100 06f4 C3000000 		.4byte	0xc3
 1101 06f8 38       		.byte	0x38
 1102 06f9 1E       		.uleb128 0x1e
 1103 06fa 36060000 		.4byte	.LASF113
 1104 06fe 09       		.byte	0x9
 1105 06ff 4B02     		.2byte	0x24b
 1106 0701 38090000 		.4byte	0x938
 1107 0705 3C       		.byte	0x3c
 1108 0706 1E       		.uleb128 0x1e
 1109 0707 910B0000 		.4byte	.LASF114
 1110 070b 09       		.byte	0x9
 1111 070c 4E02     		.2byte	0x24e
 1112 070e 77020000 		.4byte	0x277
 1113 0712 40       		.byte	0x40
 1114 0713 1E       		.uleb128 0x1e
 1115 0714 D2020000 		.4byte	.LASF115
 1116 0718 09       		.byte	0x9
 1117 0719 4F02     		.2byte	0x24f
 1118 071b C3000000 		.4byte	0xc3
 1119 071f 44       		.byte	0x44
 1120 0720 1E       		.uleb128 0x1e
 1121 0721 00050000 		.4byte	.LASF116
 1122 0725 09       		.byte	0x9
 1123 0726 5002     		.2byte	0x250
 1124 0728 77020000 		.4byte	0x277
 1125 072c 48       		.byte	0x48
 1126 072d 1E       		.uleb128 0x1e
 1127 072e D8060000 		.4byte	.LASF117
 1128 0732 09       		.byte	0x9
 1129 0733 5102     		.2byte	0x251
 1130 0735 3E090000 		.4byte	0x93e
 1131 0739 4C       		.byte	0x4c
 1132 073a 1E       		.uleb128 0x1e
 1133 073b 9F000000 		.4byte	.LASF118
 1134 073f 09       		.byte	0x9
ARM GAS  /tmp/ccRd8DKP.s 			page 21


 1135 0740 5402     		.2byte	0x254
 1136 0742 C3000000 		.4byte	0xc3
 1137 0746 50       		.byte	0x50
 1138 0747 1E       		.uleb128 0x1e
 1139 0748 DB040000 		.4byte	.LASF119
 1140 074c 09       		.byte	0x9
 1141 074d 5502     		.2byte	0x255
 1142 074f 13020000 		.4byte	0x213
 1143 0753 54       		.byte	0x54
 1144 0754 1E       		.uleb128 0x1e
 1145 0755 60070000 		.4byte	.LASF120
 1146 0759 09       		.byte	0x9
 1147 075a 7802     		.2byte	0x278
 1148 075c 3D050000 		.4byte	0x53d
 1149 0760 58       		.byte	0x58
 1150 0761 20       		.uleb128 0x20
 1151 0762 BE070000 		.4byte	.LASF58
 1152 0766 09       		.byte	0x9
 1153 0767 7C02     		.2byte	0x27c
 1154 0769 94030000 		.4byte	0x394
 1155 076d 4801     		.2byte	0x148
 1156 076f 20       		.uleb128 0x20
 1157 0770 40060000 		.4byte	.LASF121
 1158 0774 09       		.byte	0x9
 1159 0775 7D02     		.2byte	0x27d
 1160 0777 56030000 		.4byte	0x356
 1161 077b 4C01     		.2byte	0x14c
 1162 077d 20       		.uleb128 0x20
 1163 077e C0040000 		.4byte	.LASF122
 1164 0782 09       		.byte	0x9
 1165 0783 8102     		.2byte	0x281
 1166 0785 4F090000 		.4byte	0x94f
 1167 0789 DC02     		.2byte	0x2dc
 1168 078b 20       		.uleb128 0x20
 1169 078c B8060000 		.4byte	.LASF123
 1170 0790 09       		.byte	0x9
 1171 0791 8602     		.2byte	0x286
 1172 0793 3C080000 		.4byte	0x83c
 1173 0797 E002     		.2byte	0x2e0
 1174 0799 20       		.uleb128 0x20
 1175 079a 4A000000 		.4byte	.LASF124
 1176 079e 09       		.byte	0x9
 1177 079f 8702     		.2byte	0x287
 1178 07a1 5B090000 		.4byte	0x95b
 1179 07a5 EC02     		.2byte	0x2ec
 1180 07a7 00       		.byte	0
 1181 07a8 0D       		.uleb128 0xd
 1182 07a9 04       		.byte	0x4
 1183 07aa 06050000 		.4byte	0x506
 1184 07ae 0B       		.uleb128 0xb
 1185 07af C3000000 		.4byte	0xc3
 1186 07b3 CC070000 		.4byte	0x7cc
 1187 07b7 0C       		.uleb128 0xc
 1188 07b8 24050000 		.4byte	0x524
 1189 07bc 0C       		.uleb128 0xc
 1190 07bd 47000000 		.4byte	0x47
 1191 07c1 0C       		.uleb128 0xc
ARM GAS  /tmp/ccRd8DKP.s 			page 22


 1192 07c2 3D010000 		.4byte	0x13d
 1193 07c6 0C       		.uleb128 0xc
 1194 07c7 C3000000 		.4byte	0xc3
 1195 07cb 00       		.byte	0
 1196 07cc 0D       		.uleb128 0xd
 1197 07cd 04       		.byte	0x4
 1198 07ce AE070000 		.4byte	0x7ae
 1199 07d2 0B       		.uleb128 0xb
 1200 07d3 8B010000 		.4byte	0x18b
 1201 07d7 F0070000 		.4byte	0x7f0
 1202 07db 0C       		.uleb128 0xc
 1203 07dc 24050000 		.4byte	0x524
 1204 07e0 0C       		.uleb128 0xc
 1205 07e1 47000000 		.4byte	0x47
 1206 07e5 0C       		.uleb128 0xc
 1207 07e6 8B010000 		.4byte	0x18b
 1208 07ea 0C       		.uleb128 0xc
 1209 07eb C3000000 		.4byte	0xc3
 1210 07ef 00       		.byte	0
 1211 07f0 0D       		.uleb128 0xd
 1212 07f1 04       		.byte	0x4
 1213 07f2 D2070000 		.4byte	0x7d2
 1214 07f6 0B       		.uleb128 0xb
 1215 07f7 C3000000 		.4byte	0xc3
 1216 07fb 0A080000 		.4byte	0x80a
 1217 07ff 0C       		.uleb128 0xc
 1218 0800 24050000 		.4byte	0x524
 1219 0804 0C       		.uleb128 0xc
 1220 0805 47000000 		.4byte	0x47
 1221 0809 00       		.byte	0
 1222 080a 0D       		.uleb128 0xd
 1223 080b 04       		.byte	0x4
 1224 080c F6070000 		.4byte	0x7f6
 1225 0810 15       		.uleb128 0x15
 1226 0811 66000000 		.4byte	0x66
 1227 0815 20080000 		.4byte	0x820
 1228 0819 16       		.uleb128 0x16
 1229 081a F6010000 		.4byte	0x1f6
 1230 081e 02       		.byte	0x2
 1231 081f 00       		.byte	0
 1232 0820 15       		.uleb128 0x15
 1233 0821 66000000 		.4byte	0x66
 1234 0825 30080000 		.4byte	0x830
 1235 0829 16       		.uleb128 0x16
 1236 082a F6010000 		.4byte	0x1f6
 1237 082e 00       		.byte	0
 1238 082f 00       		.byte	0
 1239 0830 10       		.uleb128 0x10
 1240 0831 E7090000 		.4byte	.LASF125
 1241 0835 09       		.byte	0x9
 1242 0836 1F01     		.2byte	0x11f
 1243 0838 DC030000 		.4byte	0x3dc
 1244 083c 21       		.uleb128 0x21
 1245 083d EE060000 		.4byte	.LASF126
 1246 0841 0C       		.byte	0xc
 1247 0842 09       		.byte	0x9
 1248 0843 2301     		.2byte	0x123
ARM GAS  /tmp/ccRd8DKP.s 			page 23


 1249 0845 71080000 		.4byte	0x871
 1250 0849 1E       		.uleb128 0x1e
 1251 084a 200A0000 		.4byte	.LASF39
 1252 084e 09       		.byte	0x9
 1253 084f 2501     		.2byte	0x125
 1254 0851 71080000 		.4byte	0x871
 1255 0855 00       		.byte	0
 1256 0856 1E       		.uleb128 0x1e
 1257 0857 9E060000 		.4byte	.LASF127
 1258 085b 09       		.byte	0x9
 1259 085c 2601     		.2byte	0x126
 1260 085e C3000000 		.4byte	0xc3
 1261 0862 04       		.byte	0x4
 1262 0863 1E       		.uleb128 0x1e
 1263 0864 E2060000 		.4byte	.LASF128
 1264 0868 09       		.byte	0x9
 1265 0869 2701     		.2byte	0x127
 1266 086b 77080000 		.4byte	0x877
 1267 086f 08       		.byte	0x8
 1268 0870 00       		.byte	0
 1269 0871 0D       		.uleb128 0xd
 1270 0872 04       		.byte	0x4
 1271 0873 3C080000 		.4byte	0x83c
 1272 0877 0D       		.uleb128 0xd
 1273 0878 04       		.byte	0x4
 1274 0879 30080000 		.4byte	0x830
 1275 087d 21       		.uleb128 0x21
 1276 087e 4C090000 		.4byte	.LASF129
 1277 0882 0E       		.byte	0xe
 1278 0883 09       		.byte	0x9
 1279 0884 3F01     		.2byte	0x13f
 1280 0886 B2080000 		.4byte	0x8b2
 1281 088a 1E       		.uleb128 0x1e
 1282 088b 48080000 		.4byte	.LASF130
 1283 088f 09       		.byte	0x9
 1284 0890 4001     		.2byte	0x140
 1285 0892 B2080000 		.4byte	0x8b2
 1286 0896 00       		.byte	0
 1287 0897 1E       		.uleb128 0x1e
 1288 0898 1F010000 		.4byte	.LASF131
 1289 089c 09       		.byte	0x9
 1290 089d 4101     		.2byte	0x141
 1291 089f B2080000 		.4byte	0x8b2
 1292 08a3 06       		.byte	0x6
 1293 08a4 1E       		.uleb128 0x1e
 1294 08a5 BB0B0000 		.4byte	.LASF132
 1295 08a9 09       		.byte	0x9
 1296 08aa 4201     		.2byte	0x142
 1297 08ac 7F000000 		.4byte	0x7f
 1298 08b0 0C       		.byte	0xc
 1299 08b1 00       		.byte	0
 1300 08b2 15       		.uleb128 0x15
 1301 08b3 7F000000 		.4byte	0x7f
 1302 08b7 C2080000 		.4byte	0x8c2
 1303 08bb 16       		.uleb128 0x16
 1304 08bc F6010000 		.4byte	0x1f6
 1305 08c0 02       		.byte	0x2
ARM GAS  /tmp/ccRd8DKP.s 			page 24


 1306 08c1 00       		.byte	0
 1307 08c2 15       		.uleb128 0x15
 1308 08c3 4D010000 		.4byte	0x14d
 1309 08c7 D2080000 		.4byte	0x8d2
 1310 08cb 16       		.uleb128 0x16
 1311 08cc F6010000 		.4byte	0x1f6
 1312 08d0 19       		.byte	0x19
 1313 08d1 00       		.byte	0
 1314 08d2 15       		.uleb128 0x15
 1315 08d3 4D010000 		.4byte	0x14d
 1316 08d7 E2080000 		.4byte	0x8e2
 1317 08db 16       		.uleb128 0x16
 1318 08dc F6010000 		.4byte	0x1f6
 1319 08e0 07       		.byte	0x7
 1320 08e1 00       		.byte	0
 1321 08e2 15       		.uleb128 0x15
 1322 08e3 4D010000 		.4byte	0x14d
 1323 08e7 F2080000 		.4byte	0x8f2
 1324 08eb 16       		.uleb128 0x16
 1325 08ec F6010000 		.4byte	0x1f6
 1326 08f0 17       		.byte	0x17
 1327 08f1 00       		.byte	0
 1328 08f2 15       		.uleb128 0x15
 1329 08f3 D6030000 		.4byte	0x3d6
 1330 08f7 02090000 		.4byte	0x902
 1331 08fb 16       		.uleb128 0x16
 1332 08fc F6010000 		.4byte	0x1f6
 1333 0900 1D       		.byte	0x1d
 1334 0901 00       		.byte	0
 1335 0902 15       		.uleb128 0x15
 1336 0903 CA000000 		.4byte	0xca
 1337 0907 12090000 		.4byte	0x912
 1338 090b 16       		.uleb128 0x16
 1339 090c F6010000 		.4byte	0x1f6
 1340 0910 1D       		.byte	0x1d
 1341 0911 00       		.byte	0
 1342 0912 15       		.uleb128 0x15
 1343 0913 4D010000 		.4byte	0x14d
 1344 0917 22090000 		.4byte	0x922
 1345 091b 16       		.uleb128 0x16
 1346 091c F6010000 		.4byte	0x1f6
 1347 0920 18       		.byte	0x18
 1348 0921 00       		.byte	0
 1349 0922 0F       		.uleb128 0xf
 1350 0923 21000000 		.4byte	.LASF134
 1351 0927 0D       		.uleb128 0xd
 1352 0928 04       		.byte	0x4
 1353 0929 22090000 		.4byte	0x922
 1354 092d 22       		.uleb128 0x22
 1355 092e 38090000 		.4byte	0x938
 1356 0932 0C       		.uleb128 0xc
 1357 0933 24050000 		.4byte	0x524
 1358 0937 00       		.byte	0
 1359 0938 0D       		.uleb128 0xd
 1360 0939 04       		.byte	0x4
 1361 093a 2D090000 		.4byte	0x92d
 1362 093e 0D       		.uleb128 0xd
ARM GAS  /tmp/ccRd8DKP.s 			page 25


 1363 093f 04       		.byte	0x4
 1364 0940 77020000 		.4byte	0x277
 1365 0944 22       		.uleb128 0x22
 1366 0945 4F090000 		.4byte	0x94f
 1367 0949 0C       		.uleb128 0xc
 1368 094a C3000000 		.4byte	0xc3
 1369 094e 00       		.byte	0
 1370 094f 0D       		.uleb128 0xd
 1371 0950 04       		.byte	0x4
 1372 0951 55090000 		.4byte	0x955
 1373 0955 0D       		.uleb128 0xd
 1374 0956 04       		.byte	0x4
 1375 0957 44090000 		.4byte	0x944
 1376 095b 15       		.uleb128 0x15
 1377 095c 30080000 		.4byte	0x830
 1378 0960 6B090000 		.4byte	0x96b
 1379 0964 16       		.uleb128 0x16
 1380 0965 F6010000 		.4byte	0x1f6
 1381 0969 02       		.byte	0x2
 1382 096a 00       		.byte	0
 1383 096b 23       		.uleb128 0x23
 1384 096c C6020000 		.4byte	.LASF136
 1385 0970 09       		.byte	0x9
 1386 0971 FE02     		.2byte	0x2fe
 1387 0973 24050000 		.4byte	0x524
 1388 0977 23       		.uleb128 0x23
 1389 0978 E3030000 		.4byte	.LASF137
 1390 097c 09       		.byte	0x9
 1391 097d FF02     		.2byte	0x2ff
 1392 097f 2A050000 		.4byte	0x52a
 1393 0983 15       		.uleb128 0x15
 1394 0984 43010000 		.4byte	0x143
 1395 0988 8E090000 		.4byte	0x98e
 1396 098c 24       		.uleb128 0x24
 1397 098d 00       		.byte	0
 1398 098e 0E       		.uleb128 0xe
 1399 098f B90A0000 		.4byte	.LASF138
 1400 0993 0C       		.byte	0xc
 1401 0994 14       		.byte	0x14
 1402 0995 83090000 		.4byte	0x983
 1403 0999 0E       		.uleb128 0xe
 1404 099a 98020000 		.4byte	.LASF139
 1405 099e 0C       		.byte	0xc
 1406 099f 15       		.byte	0x15
 1407 09a0 C3000000 		.4byte	0xc3
 1408 09a4 02       		.uleb128 0x2
 1409 09a5 24070000 		.4byte	.LASF140
 1410 09a9 0D       		.byte	0xd
 1411 09aa 27       		.byte	0x27
 1412 09ab FC000000 		.4byte	0xfc
 1413 09af 02       		.uleb128 0x2
 1414 09b0 3D0A0000 		.4byte	.LASF141
 1415 09b4 0D       		.byte	0xd
 1416 09b5 2A       		.byte	0x2a
 1417 09b6 D1000000 		.4byte	0xd1
 1418 09ba 02       		.uleb128 0x2
 1419 09bb FD020000 		.4byte	.LASF142
ARM GAS  /tmp/ccRd8DKP.s 			page 26


 1420 09bf 0D       		.byte	0xd
 1421 09c0 2B       		.byte	0x2b
 1422 09c1 D1000000 		.4byte	0xd1
 1423 09c5 02       		.uleb128 0x2
 1424 09c6 360B0000 		.4byte	.LASF143
 1425 09ca 0D       		.byte	0xd
 1426 09cb 2C       		.byte	0x2c
 1427 09cc D1000000 		.4byte	0xd1
 1428 09d0 02       		.uleb128 0x2
 1429 09d1 5B000000 		.4byte	.LASF144
 1430 09d5 0D       		.byte	0xd
 1431 09d6 2E       		.byte	0x2e
 1432 09d7 FC000000 		.4byte	0xfc
 1433 09db 02       		.uleb128 0x2
 1434 09dc 35090000 		.4byte	.LASF145
 1435 09e0 0D       		.byte	0xd
 1436 09e1 2F       		.byte	0x2f
 1437 09e2 EC000000 		.4byte	0xec
 1438 09e6 02       		.uleb128 0x2
 1439 09e7 79030000 		.4byte	.LASF146
 1440 09eb 0D       		.byte	0xd
 1441 09ec 31       		.byte	0x31
 1442 09ed FC000000 		.4byte	0xfc
 1443 09f1 02       		.uleb128 0x2
 1444 09f2 91040000 		.4byte	.LASF147
 1445 09f6 0D       		.byte	0xd
 1446 09f7 33       		.byte	0x33
 1447 09f8 EC000000 		.4byte	0xec
 1448 09fc 02       		.uleb128 0x2
 1449 09fd E4050000 		.4byte	.LASF148
 1450 0a01 0D       		.byte	0xd
 1451 0a02 34       		.byte	0x34
 1452 0a03 FC000000 		.4byte	0xfc
 1453 0a07 02       		.uleb128 0x2
 1454 0a08 F2070000 		.4byte	.LASF149
 1455 0a0c 0E       		.byte	0xe
 1456 0a0d 34       		.byte	0x34
 1457 0a0e 120A0000 		.4byte	0xa12
 1458 0a12 03       		.uleb128 0x3
 1459 0a13 64050000 		.4byte	.LASF150
 1460 0a17 44       		.byte	0x44
 1461 0a18 0F       		.byte	0xf
 1462 0a19 8E       		.byte	0x8e
 1463 0a1a 520B0000 		.4byte	0xb52
 1464 0a1e 12       		.uleb128 0x12
 1465 0a1f 04       		.byte	0x4
 1466 0a20 0F       		.byte	0xf
 1467 0a21 C6       		.byte	0xc6
 1468 0a22 800A0000 		.4byte	0xa80
 1469 0a26 13       		.uleb128 0x13
 1470 0a27 B40B0000 		.4byte	.LASF151
 1471 0a2b 0F       		.byte	0xf
 1472 0a2c CD       		.byte	0xcd
 1473 0a2d DB090000 		.4byte	0x9db
 1474 0a31 13       		.uleb128 0x13
 1475 0a32 69020000 		.4byte	.LASF152
 1476 0a36 0F       		.byte	0xf
ARM GAS  /tmp/ccRd8DKP.s 			page 27


 1477 0a37 D4       		.byte	0xd4
 1478 0a38 DB090000 		.4byte	0x9db
 1479 0a3c 13       		.uleb128 0x13
 1480 0a3d 49040000 		.4byte	.LASF153
 1481 0a41 0F       		.byte	0xf
 1482 0a42 DB       		.byte	0xdb
 1483 0a43 47000000 		.4byte	0x47
 1484 0a47 13       		.uleb128 0x13
 1485 0a48 85030000 		.4byte	.LASF154
 1486 0a4c 0F       		.byte	0xf
 1487 0a4d E2       		.byte	0xe2
 1488 0a4e E90F0000 		.4byte	0xfe9
 1489 0a52 13       		.uleb128 0x13
 1490 0a53 1C080000 		.4byte	.LASF155
 1491 0a57 0F       		.byte	0xf
 1492 0a58 E7       		.byte	0xe7
 1493 0a59 DB090000 		.4byte	0x9db
 1494 0a5d 13       		.uleb128 0x13
 1495 0a5e B50C0000 		.4byte	.LASF156
 1496 0a62 0F       		.byte	0xf
 1497 0a63 F0       		.byte	0xf0
 1498 0a64 14100000 		.4byte	0x1014
 1499 0a68 13       		.uleb128 0x13
 1500 0a69 9F040000 		.4byte	.LASF157
 1501 0a6d 0F       		.byte	0xf
 1502 0a6e F9       		.byte	0xf9
 1503 0a6f 57100000 		.4byte	0x1057
 1504 0a73 1F       		.uleb128 0x1f
 1505 0a74 6A030000 		.4byte	.LASF158
 1506 0a78 0F       		.byte	0xf
 1507 0a79 0101     		.2byte	0x101
 1508 0a7b E6090000 		.4byte	0x9e6
 1509 0a7f 00       		.byte	0
 1510 0a80 14       		.uleb128 0x14
 1511 0a81 8E090000 		.4byte	.LASF159
 1512 0a85 0F       		.byte	0xf
 1513 0a86 8F       		.byte	0x8f
 1514 0a87 870B0000 		.4byte	0xb87
 1515 0a8b 00       		.byte	0
 1516 0a8c 14       		.uleb128 0x14
 1517 0a8d 99030000 		.4byte	.LASF160
 1518 0a91 0F       		.byte	0xf
 1519 0a92 90       		.byte	0x90
 1520 0a93 D0090000 		.4byte	0x9d0
 1521 0a97 08       		.byte	0x8
 1522 0a98 17       		.uleb128 0x17
 1523 0a99 63747800 		.ascii	"ctx\000"
 1524 0a9d 0F       		.byte	0xf
 1525 0a9e 91       		.byte	0x91
 1526 0a9f 5B0E0000 		.4byte	0xe5b
 1527 0aa3 0C       		.byte	0xc
 1528 0aa4 14       		.uleb128 0x14
 1529 0aa5 820B0000 		.4byte	.LASF161
 1530 0aa9 0F       		.byte	0xf
 1531 0aaa 93       		.byte	0x93
 1532 0aab 5D0B0000 		.4byte	0xb5d
 1533 0aaf 10       		.byte	0x10
ARM GAS  /tmp/ccRd8DKP.s 			page 28


 1534 0ab0 14       		.uleb128 0x14
 1535 0ab1 C9050000 		.4byte	.LASF162
 1536 0ab5 0F       		.byte	0xf
 1537 0ab6 94       		.byte	0x94
 1538 0ab7 5D0B0000 		.4byte	0xb5d
 1539 0abb 14       		.byte	0x14
 1540 0abc 14       		.uleb128 0x14
 1541 0abd 560A0000 		.4byte	.LASF163
 1542 0ac1 0F       		.byte	0xf
 1543 0ac2 9B       		.byte	0x9b
 1544 0ac3 3D010000 		.4byte	0x13d
 1545 0ac7 18       		.byte	0x18
 1546 0ac8 14       		.uleb128 0x14
 1547 0ac9 040A0000 		.4byte	.LASF164
 1548 0acd 0F       		.byte	0xf
 1549 0ace A4       		.byte	0xa4
 1550 0acf 5D100000 		.4byte	0x105d
 1551 0ad3 1C       		.byte	0x1c
 1552 0ad4 14       		.uleb128 0x14
 1553 0ad5 13010000 		.4byte	.LASF165
 1554 0ad9 0F       		.byte	0xf
 1555 0ada A9       		.byte	0xa9
 1556 0adb BA090000 		.4byte	0x9ba
 1557 0adf 20       		.byte	0x20
 1558 0ae0 14       		.uleb128 0x14
 1559 0ae1 57040000 		.4byte	.LASF166
 1560 0ae5 0F       		.byte	0xf
 1561 0ae6 AD       		.byte	0xad
 1562 0ae7 AF090000 		.4byte	0x9af
 1563 0aeb 21       		.byte	0x21
 1564 0aec 14       		.uleb128 0x14
 1565 0aed 2C070000 		.4byte	.LASF167
 1566 0af1 0F       		.byte	0xf
 1567 0af2 B2       		.byte	0xb2
 1568 0af3 C5090000 		.4byte	0x9c5
 1569 0af7 22       		.byte	0x22
 1570 0af8 25       		.uleb128 0x25
 1571 0af9 7500     		.ascii	"u\000"
 1572 0afb 0F       		.byte	0xf
 1573 0afc 0301     		.2byte	0x103
 1574 0afe 1E0A0000 		.4byte	0xa1e
 1575 0b02 24       		.byte	0x24
 1576 0b03 1E       		.uleb128 0x1e
 1577 0b04 010B0000 		.4byte	.LASF168
 1578 0b08 0F       		.byte	0xf
 1579 0b09 0801     		.2byte	0x108
 1580 0b0b 630B0000 		.4byte	0xb63
 1581 0b0f 28       		.byte	0x28
 1582 0b10 1E       		.uleb128 0x1e
 1583 0b11 970A0000 		.4byte	.LASF169
 1584 0b15 0F       		.byte	0xf
 1585 0b16 0E01     		.2byte	0x10e
 1586 0b18 870B0000 		.4byte	0xb87
 1587 0b1c 2C       		.byte	0x2c
 1588 0b1d 1E       		.uleb128 0x1e
 1589 0b1e 06030000 		.4byte	.LASF170
 1590 0b22 0F       		.byte	0xf
ARM GAS  /tmp/ccRd8DKP.s 			page 29


 1591 0b23 1401     		.2byte	0x114
 1592 0b25 E6090000 		.4byte	0x9e6
 1593 0b29 34       		.byte	0x34
 1594 0b2a 1E       		.uleb128 0x1e
 1595 0b2b 72060000 		.4byte	.LASF171
 1596 0b2f 0F       		.byte	0xf
 1597 0b30 1B01     		.2byte	0x11b
 1598 0b32 57100000 		.4byte	0x1057
 1599 0b36 38       		.byte	0x38
 1600 0b37 1E       		.uleb128 0x1e
 1601 0b38 DB050000 		.4byte	.LASF172
 1602 0b3c 0F       		.byte	0xf
 1603 0b3d 1F01     		.2byte	0x11f
 1604 0b3f D0090000 		.4byte	0x9d0
 1605 0b43 3C       		.byte	0x3c
 1606 0b44 1E       		.uleb128 0x1e
 1607 0b45 7A040000 		.4byte	.LASF173
 1608 0b49 0F       		.byte	0xf
 1609 0b4a 2601     		.2byte	0x126
 1610 0b4c 47000000 		.4byte	0x47
 1611 0b50 40       		.byte	0x40
 1612 0b51 00       		.byte	0
 1613 0b52 02       		.uleb128 0x2
 1614 0b53 AB070000 		.4byte	.LASF174
 1615 0b57 0E       		.byte	0xe
 1616 0b58 39       		.byte	0x39
 1617 0b59 5D0B0000 		.4byte	0xb5d
 1618 0b5d 0D       		.uleb128 0xd
 1619 0b5e 04       		.byte	0x4
 1620 0b5f 070A0000 		.4byte	0xa07
 1621 0b63 02       		.uleb128 0x2
 1622 0b64 520B0000 		.4byte	.LASF175
 1623 0b68 0E       		.byte	0xe
 1624 0b69 3E       		.byte	0x3e
 1625 0b6a 6E0B0000 		.4byte	0xb6e
 1626 0b6e 03       		.uleb128 0x3
 1627 0b6f 12060000 		.4byte	.LASF176
 1628 0b73 04       		.byte	0x4
 1629 0b74 0F       		.byte	0xf
 1630 0b75 7C       		.byte	0x7c
 1631 0b76 870B0000 		.4byte	0xb87
 1632 0b7a 14       		.uleb128 0x14
 1633 0b7b 830C0000 		.4byte	.LASF177
 1634 0b7f 0F       		.byte	0xf
 1635 0b80 7D       		.byte	0x7d
 1636 0b81 5D0B0000 		.4byte	0xb5d
 1637 0b85 00       		.byte	0
 1638 0b86 00       		.byte	0
 1639 0b87 02       		.uleb128 0x2
 1640 0b88 0F030000 		.4byte	.LASF178
 1641 0b8c 0E       		.byte	0xe
 1642 0b8d 45       		.byte	0x45
 1643 0b8e 920B0000 		.4byte	0xb92
 1644 0b92 03       		.uleb128 0x3
 1645 0b93 3B090000 		.4byte	.LASF179
 1646 0b97 08       		.byte	0x8
 1647 0b98 0F       		.byte	0xf
ARM GAS  /tmp/ccRd8DKP.s 			page 30


 1648 0b99 83       		.byte	0x83
 1649 0b9a B70B0000 		.4byte	0xbb7
 1650 0b9e 14       		.uleb128 0x14
 1651 0b9f 830C0000 		.4byte	.LASF177
 1652 0ba3 0F       		.byte	0xf
 1653 0ba4 84       		.byte	0x84
 1654 0ba5 5D0B0000 		.4byte	0xb5d
 1655 0ba9 00       		.byte	0
 1656 0baa 14       		.uleb128 0x14
 1657 0bab 430C0000 		.4byte	.LASF180
 1658 0baf 0F       		.byte	0xf
 1659 0bb0 85       		.byte	0x85
 1660 0bb1 5D0B0000 		.4byte	0xb5d
 1661 0bb5 04       		.byte	0x4
 1662 0bb6 00       		.byte	0
 1663 0bb7 02       		.uleb128 0x2
 1664 0bb8 BC050000 		.4byte	.LASF181
 1665 0bbc 0E       		.byte	0xe
 1666 0bbd 4C       		.byte	0x4c
 1667 0bbe C20B0000 		.4byte	0xbc2
 1668 0bc2 21       		.uleb128 0x21
 1669 0bc3 AB040000 		.4byte	.LASF182
 1670 0bc7 1C       		.byte	0x1c
 1671 0bc8 0F       		.byte	0xf
 1672 0bc9 5E01     		.2byte	0x15e
 1673 0bcb 1E0C0000 		.4byte	0xc1e
 1674 0bcf 1E       		.uleb128 0x1e
 1675 0bd0 8E090000 		.4byte	.LASF159
 1676 0bd4 0F       		.byte	0xf
 1677 0bd5 5F01     		.2byte	0x15f
 1678 0bd7 870B0000 		.4byte	0xb87
 1679 0bdb 00       		.byte	0
 1680 0bdc 1E       		.uleb128 0x1e
 1681 0bdd 99030000 		.4byte	.LASF160
 1682 0be1 0F       		.byte	0xf
 1683 0be2 6001     		.2byte	0x160
 1684 0be4 D0090000 		.4byte	0x9d0
 1685 0be8 08       		.byte	0x8
 1686 0be9 25       		.uleb128 0x25
 1687 0bea 63747800 		.ascii	"ctx\000"
 1688 0bee 0F       		.byte	0xf
 1689 0bef 6201     		.2byte	0x162
 1690 0bf1 5B0E0000 		.4byte	0xe5b
 1691 0bf5 0C       		.byte	0xc
 1692 0bf6 1E       		.uleb128 0x1e
 1693 0bf7 820B0000 		.4byte	.LASF161
 1694 0bfb 0F       		.byte	0xf
 1695 0bfc 6501     		.2byte	0x165
 1696 0bfe 5D0B0000 		.4byte	0xb5d
 1697 0c02 10       		.byte	0x10
 1698 0c03 1E       		.uleb128 0x1e
 1699 0c04 C9050000 		.4byte	.LASF162
 1700 0c08 0F       		.byte	0xf
 1701 0c09 6601     		.2byte	0x166
 1702 0c0b 5D0B0000 		.4byte	0xb5d
 1703 0c0f 14       		.byte	0x14
 1704 0c10 1E       		.uleb128 0x1e
ARM GAS  /tmp/ccRd8DKP.s 			page 31


 1705 0c11 8A070000 		.4byte	.LASF183
 1706 0c15 0F       		.byte	0xf
 1707 0c16 6901     		.2byte	0x169
 1708 0c18 5D0B0000 		.4byte	0xb5d
 1709 0c1c 18       		.byte	0x18
 1710 0c1d 00       		.byte	0
 1711 0c1e 02       		.uleb128 0x2
 1712 0c1f A7000000 		.4byte	.LASF184
 1713 0c23 0E       		.byte	0xe
 1714 0c24 51       		.byte	0x51
 1715 0c25 290C0000 		.4byte	0xc29
 1716 0c29 0D       		.uleb128 0xd
 1717 0c2a 04       		.byte	0x4
 1718 0c2b 2F0C0000 		.4byte	0xc2f
 1719 0c2f 22       		.uleb128 0x22
 1720 0c30 3A0C0000 		.4byte	0xc3a
 1721 0c34 0C       		.uleb128 0xc
 1722 0c35 47000000 		.4byte	0x47
 1723 0c39 00       		.byte	0
 1724 0c3a 02       		.uleb128 0x2
 1725 0c3b AC050000 		.4byte	.LASF185
 1726 0c3f 0E       		.byte	0xe
 1727 0c40 56       		.byte	0x56
 1728 0c41 450C0000 		.4byte	0xc45
 1729 0c45 21       		.uleb128 0x21
 1730 0c46 8D080000 		.4byte	.LASF186
 1731 0c4a 14       		.byte	0x14
 1732 0c4b 0F       		.byte	0xf
 1733 0c4c 3901     		.2byte	0x139
 1734 0c4e 940C0000 		.4byte	0xc94
 1735 0c52 1E       		.uleb128 0x1e
 1736 0c53 830C0000 		.4byte	.LASF177
 1737 0c57 0F       		.byte	0xf
 1738 0c58 3A01     		.2byte	0x13a
 1739 0c5a 63100000 		.4byte	0x1063
 1740 0c5e 00       		.byte	0
 1741 0c5f 1E       		.uleb128 0x1e
 1742 0c60 430C0000 		.4byte	.LASF180
 1743 0c64 0F       		.byte	0xf
 1744 0c65 3B01     		.2byte	0x13b
 1745 0c67 63100000 		.4byte	0x1063
 1746 0c6b 04       		.byte	0x4
 1747 0c6c 1E       		.uleb128 0x1e
 1748 0c6d 5C090000 		.4byte	.LASF187
 1749 0c71 0F       		.byte	0xf
 1750 0c72 3C01     		.2byte	0x13c
 1751 0c74 6B0D0000 		.4byte	0xd6b
 1752 0c78 08       		.byte	0x8
 1753 0c79 1E       		.uleb128 0x1e
 1754 0c7a 890A0000 		.4byte	.LASF188
 1755 0c7e 0F       		.byte	0xf
 1756 0c7f 3D01     		.2byte	0x13d
 1757 0c81 1E0C0000 		.4byte	0xc1e
 1758 0c85 0C       		.byte	0xc
 1759 0c86 25       		.uleb128 0x25
 1760 0c87 70617200 		.ascii	"par\000"
 1761 0c8b 0F       		.byte	0xf
ARM GAS  /tmp/ccRd8DKP.s 			page 32


 1762 0c8c 3F01     		.2byte	0x13f
 1763 0c8e 47000000 		.4byte	0x47
 1764 0c92 10       		.byte	0x10
 1765 0c93 00       		.byte	0
 1766 0c94 02       		.uleb128 0x2
 1767 0c95 73050000 		.4byte	.LASF189
 1768 0c99 0E       		.byte	0xe
 1769 0c9a 5B       		.byte	0x5b
 1770 0c9b 9F0C0000 		.4byte	0xc9f
 1771 0c9f 21       		.uleb128 0x21
 1772 0ca0 B0000000 		.4byte	.LASF190
 1773 0ca4 10       		.byte	0x10
 1774 0ca5 0F       		.byte	0xf
 1775 0ca6 4901     		.2byte	0x149
 1776 0ca8 E10C0000 		.4byte	0xce1
 1777 0cac 1E       		.uleb128 0x1e
 1778 0cad 830C0000 		.4byte	.LASF177
 1779 0cb1 0F       		.byte	0xf
 1780 0cb2 4A01     		.2byte	0x14a
 1781 0cb4 63100000 		.4byte	0x1063
 1782 0cb8 00       		.byte	0
 1783 0cb9 1E       		.uleb128 0x1e
 1784 0cba 430C0000 		.4byte	.LASF180
 1785 0cbe 0F       		.byte	0xf
 1786 0cbf 4C01     		.2byte	0x14c
 1787 0cc1 63100000 		.4byte	0x1063
 1788 0cc5 04       		.byte	0x4
 1789 0cc6 1E       		.uleb128 0x1e
 1790 0cc7 5C090000 		.4byte	.LASF187
 1791 0ccb 0F       		.byte	0xf
 1792 0ccc 4E01     		.2byte	0x14e
 1793 0cce 6B0D0000 		.4byte	0xd6b
 1794 0cd2 08       		.byte	0x8
 1795 0cd3 1E       		.uleb128 0x1e
 1796 0cd4 9E030000 		.4byte	.LASF191
 1797 0cd8 0F       		.byte	0xf
 1798 0cd9 5601     		.2byte	0x156
 1799 0cdb 600D0000 		.4byte	0xd60
 1800 0cdf 0C       		.byte	0xc
 1801 0ce0 00       		.byte	0
 1802 0ce1 02       		.uleb128 0x2
 1803 0ce2 F6030000 		.4byte	.LASF192
 1804 0ce6 0E       		.byte	0xe
 1805 0ce7 60       		.byte	0x60
 1806 0ce8 EC0C0000 		.4byte	0xcec
 1807 0cec 21       		.uleb128 0x21
 1808 0ced A90A0000 		.4byte	.LASF193
 1809 0cf1 04       		.byte	0x4
 1810 0cf2 0F       		.byte	0xf
 1811 0cf3 7001     		.2byte	0x170
 1812 0cf5 070D0000 		.4byte	0xd07
 1813 0cf9 1E       		.uleb128 0x1e
 1814 0cfa A7030000 		.4byte	.LASF194
 1815 0cfe 0F       		.byte	0xf
 1816 0cff 7801     		.2byte	0x178
 1817 0d01 48010000 		.4byte	0x148
 1818 0d05 00       		.byte	0
ARM GAS  /tmp/ccRd8DKP.s 			page 33


 1819 0d06 00       		.byte	0
 1820 0d07 02       		.uleb128 0x2
 1821 0d08 DD0B0000 		.4byte	.LASF195
 1822 0d0c 0E       		.byte	0xe
 1823 0d0d 65       		.byte	0x65
 1824 0d0e 120D0000 		.4byte	0xd12
 1825 0d12 21       		.uleb128 0x21
 1826 0d13 680B0000 		.4byte	.LASF196
 1827 0d17 78       		.byte	0x78
 1828 0d18 0F       		.byte	0xf
 1829 0d19 9001     		.2byte	0x190
 1830 0d1b 600D0000 		.4byte	0xd60
 1831 0d1f 1E       		.uleb128 0x1e
 1832 0d20 370A0000 		.4byte	.LASF197
 1833 0d24 0F       		.byte	0xf
 1834 0d25 9401     		.2byte	0x194
 1835 0d27 B70B0000 		.4byte	0xbb7
 1836 0d2b 00       		.byte	0
 1837 0d2c 1E       		.uleb128 0x1e
 1838 0d2d F00A0000 		.4byte	.LASF198
 1839 0d31 0F       		.byte	0xf
 1840 0d32 9801     		.2byte	0x198
 1841 0d34 940C0000 		.4byte	0xc94
 1842 0d38 1C       		.byte	0x1c
 1843 0d39 25       		.uleb128 0x25
 1844 0d3a 64626700 		.ascii	"dbg\000"
 1845 0d3e 0F       		.byte	0xf
 1846 0d3f 9C01     		.2byte	0x19c
 1847 0d41 E10C0000 		.4byte	0xce1
 1848 0d45 2C       		.byte	0x2c
 1849 0d46 1E       		.uleb128 0x1e
 1850 0d47 CB090000 		.4byte	.LASF199
 1851 0d4b 0F       		.byte	0xf
 1852 0d4c A001     		.2byte	0x1a0
 1853 0d4e 070A0000 		.4byte	0xa07
 1854 0d52 30       		.byte	0x30
 1855 0d53 25       		.uleb128 0x25
 1856 0d54 746D00   		.ascii	"tm\000"
 1857 0d57 0F       		.byte	0xf
 1858 0d58 A501     		.2byte	0x1a5
 1859 0d5a DE0F0000 		.4byte	0xfde
 1860 0d5e 74       		.byte	0x74
 1861 0d5f 00       		.byte	0
 1862 0d60 02       		.uleb128 0x2
 1863 0d61 34000000 		.4byte	.LASF200
 1864 0d65 10       		.byte	0x10
 1865 0d66 6D       		.byte	0x6d
 1866 0d67 FC000000 		.4byte	0xfc
 1867 0d6b 02       		.uleb128 0x2
 1868 0d6c 90060000 		.4byte	.LASF201
 1869 0d70 10       		.byte	0x10
 1870 0d71 79       		.byte	0x79
 1871 0d72 FC000000 		.4byte	0xfc
 1872 0d76 23       		.uleb128 0x23
 1873 0d77 F4060000 		.4byte	.LASF202
 1874 0d7b 11       		.byte	0x11
 1875 0d7c 0408     		.2byte	0x804
ARM GAS  /tmp/ccRd8DKP.s 			page 34


 1876 0d7e F7000000 		.4byte	0xf7
 1877 0d82 0E       		.uleb128 0xe
 1878 0d83 47050000 		.4byte	.LASF203
 1879 0d87 12       		.byte	0x12
 1880 0d88 4C       		.byte	0x4c
 1881 0d89 FC000000 		.4byte	0xfc
 1882 0d8d 15       		.uleb128 0x15
 1883 0d8e DC000000 		.4byte	0xdc
 1884 0d92 9D0D0000 		.4byte	0xd9d
 1885 0d96 16       		.uleb128 0x16
 1886 0d97 F6010000 		.4byte	0x1f6
 1887 0d9b 0F       		.byte	0xf
 1888 0d9c 00       		.byte	0
 1889 0d9d 08       		.uleb128 0x8
 1890 0d9e 8D0D0000 		.4byte	0xd8d
 1891 0da2 0E       		.uleb128 0xe
 1892 0da3 7F080000 		.4byte	.LASF204
 1893 0da7 12       		.byte	0x12
 1894 0da8 4E       		.byte	0x4e
 1895 0da9 9D0D0000 		.4byte	0xd9d
 1896 0dad 15       		.uleb128 0x15
 1897 0dae DC000000 		.4byte	0xdc
 1898 0db2 BD0D0000 		.4byte	0xdbd
 1899 0db6 16       		.uleb128 0x16
 1900 0db7 F6010000 		.4byte	0x1f6
 1901 0dbb 07       		.byte	0x7
 1902 0dbc 00       		.byte	0
 1903 0dbd 08       		.uleb128 0x8
 1904 0dbe AD0D0000 		.4byte	0xdad
 1905 0dc2 0E       		.uleb128 0xe
 1906 0dc3 5B0A0000 		.4byte	.LASF205
 1907 0dc7 12       		.byte	0x12
 1908 0dc8 4F       		.byte	0x4f
 1909 0dc9 BD0D0000 		.4byte	0xdbd
 1910 0dcd 26       		.uleb128 0x26
 1911 0dce 01       		.byte	0x1
 1912 0dcf 66000000 		.4byte	0x66
 1913 0dd3 13       		.byte	0x13
 1914 0dd4 CC       		.byte	0xcc
 1915 0dd5 28030000 		.4byte	.LASF208
 1916 0dd9 EA0D0000 		.4byte	0xdea
 1917 0ddd 27       		.uleb128 0x27
 1918 0dde EE090000 		.4byte	.LASF206
 1919 0de2 00       		.byte	0
 1920 0de3 28       		.uleb128 0x28
 1921 0de4 53455400 		.ascii	"SET\000"
 1922 0de8 01       		.byte	0x1
 1923 0de9 00       		.byte	0
 1924 0dea 02       		.uleb128 0x2
 1925 0deb 2C0A0000 		.4byte	.LASF207
 1926 0def 13       		.byte	0x13
 1927 0df0 CF       		.byte	0xcf
 1928 0df1 CD0D0000 		.4byte	0xdcd
 1929 0df5 26       		.uleb128 0x26
 1930 0df6 01       		.byte	0x1
 1931 0df7 66000000 		.4byte	0x66
 1932 0dfb 13       		.byte	0x13
ARM GAS  /tmp/ccRd8DKP.s 			page 35


 1933 0dfc D2       		.byte	0xd2
 1934 0dfd D1030000 		.4byte	.LASF209
 1935 0e01 120E0000 		.4byte	0xe12
 1936 0e05 27       		.uleb128 0x27
 1937 0e06 EA070000 		.4byte	.LASF210
 1938 0e0a 00       		.byte	0
 1939 0e0b 27       		.uleb128 0x27
 1940 0e0c 4E080000 		.4byte	.LASF211
 1941 0e10 01       		.byte	0x1
 1942 0e11 00       		.byte	0
 1943 0e12 02       		.uleb128 0x2
 1944 0e13 BF080000 		.4byte	.LASF212
 1945 0e17 13       		.byte	0x13
 1946 0e18 D5       		.byte	0xd5
 1947 0e19 F50D0000 		.4byte	0xdf5
 1948 0e1d 26       		.uleb128 0x26
 1949 0e1e 01       		.byte	0x1
 1950 0e1f 66000000 		.4byte	0x66
 1951 0e23 13       		.byte	0x13
 1952 0e24 D9       		.byte	0xd9
 1953 0e25 6C000000 		.4byte	.LASF213
 1954 0e29 3A0E0000 		.4byte	0xe3a
 1955 0e2d 27       		.uleb128 0x27
 1956 0e2e EB050000 		.4byte	.LASF214
 1957 0e32 00       		.byte	0
 1958 0e33 27       		.uleb128 0x27
 1959 0e34 86090000 		.4byte	.LASF215
 1960 0e38 01       		.byte	0x1
 1961 0e39 00       		.byte	0
 1962 0e3a 02       		.uleb128 0x2
 1963 0e3b 64080000 		.4byte	.LASF216
 1964 0e3f 13       		.byte	0x13
 1965 0e40 DC       		.byte	0xdc
 1966 0e41 1D0E0000 		.4byte	0xe1d
 1967 0e45 02       		.uleb128 0x2
 1968 0e46 1F030000 		.4byte	.LASF217
 1969 0e4a 14       		.byte	0x14
 1970 0e4b 65       		.byte	0x65
 1971 0e4c 47000000 		.4byte	0x47
 1972 0e50 02       		.uleb128 0x2
 1973 0e51 6F040000 		.4byte	.LASF218
 1974 0e55 14       		.byte	0x14
 1975 0e56 6D       		.byte	0x6d
 1976 0e57 07010000 		.4byte	0x107
 1977 0e5b 03       		.uleb128 0x3
 1978 0e5c 450B0000 		.4byte	.LASF219
 1979 0e60 04       		.byte	0x4
 1980 0e61 14       		.byte	0x14
 1981 0e62 89       		.byte	0x89
 1982 0e63 730E0000 		.4byte	0xe73
 1983 0e67 17       		.uleb128 0x17
 1984 0e68 737000   		.ascii	"sp\000"
 1985 0e6b 14       		.byte	0x14
 1986 0e6c 8A       		.byte	0x8a
 1987 0e6d BF0F0000 		.4byte	0xfbf
 1988 0e71 00       		.byte	0
 1989 0e72 00       		.byte	0
ARM GAS  /tmp/ccRd8DKP.s 			page 36


 1990 0e73 21       		.uleb128 0x21
 1991 0e74 24080000 		.4byte	.LASF220
 1992 0e78 64       		.byte	0x64
 1993 0e79 15       		.byte	0x15
 1994 0e7a 5901     		.2byte	0x159
 1995 0e7c BF0F0000 		.4byte	0xfbf
 1996 0e80 25       		.uleb128 0x25
 1997 0e81 73313600 		.ascii	"s16\000"
 1998 0e85 15       		.byte	0x15
 1999 0e86 5B01     		.2byte	0x15b
 2000 0e88 450E0000 		.4byte	0xe45
 2001 0e8c 00       		.byte	0
 2002 0e8d 25       		.uleb128 0x25
 2003 0e8e 73313700 		.ascii	"s17\000"
 2004 0e92 15       		.byte	0x15
 2005 0e93 5C01     		.2byte	0x15c
 2006 0e95 450E0000 		.4byte	0xe45
 2007 0e99 04       		.byte	0x4
 2008 0e9a 25       		.uleb128 0x25
 2009 0e9b 73313800 		.ascii	"s18\000"
 2010 0e9f 15       		.byte	0x15
 2011 0ea0 5D01     		.2byte	0x15d
 2012 0ea2 450E0000 		.4byte	0xe45
 2013 0ea6 08       		.byte	0x8
 2014 0ea7 25       		.uleb128 0x25
 2015 0ea8 73313900 		.ascii	"s19\000"
 2016 0eac 15       		.byte	0x15
 2017 0ead 5E01     		.2byte	0x15e
 2018 0eaf 450E0000 		.4byte	0xe45
 2019 0eb3 0C       		.byte	0xc
 2020 0eb4 25       		.uleb128 0x25
 2021 0eb5 73323000 		.ascii	"s20\000"
 2022 0eb9 15       		.byte	0x15
 2023 0eba 5F01     		.2byte	0x15f
 2024 0ebc 450E0000 		.4byte	0xe45
 2025 0ec0 10       		.byte	0x10
 2026 0ec1 25       		.uleb128 0x25
 2027 0ec2 73323100 		.ascii	"s21\000"
 2028 0ec6 15       		.byte	0x15
 2029 0ec7 6001     		.2byte	0x160
 2030 0ec9 450E0000 		.4byte	0xe45
 2031 0ecd 14       		.byte	0x14
 2032 0ece 25       		.uleb128 0x25
 2033 0ecf 73323200 		.ascii	"s22\000"
 2034 0ed3 15       		.byte	0x15
 2035 0ed4 6101     		.2byte	0x161
 2036 0ed6 450E0000 		.4byte	0xe45
 2037 0eda 18       		.byte	0x18
 2038 0edb 25       		.uleb128 0x25
 2039 0edc 73323300 		.ascii	"s23\000"
 2040 0ee0 15       		.byte	0x15
 2041 0ee1 6201     		.2byte	0x162
 2042 0ee3 450E0000 		.4byte	0xe45
 2043 0ee7 1C       		.byte	0x1c
 2044 0ee8 25       		.uleb128 0x25
 2045 0ee9 73323400 		.ascii	"s24\000"
 2046 0eed 15       		.byte	0x15
ARM GAS  /tmp/ccRd8DKP.s 			page 37


 2047 0eee 6301     		.2byte	0x163
 2048 0ef0 450E0000 		.4byte	0xe45
 2049 0ef4 20       		.byte	0x20
 2050 0ef5 25       		.uleb128 0x25
 2051 0ef6 73323500 		.ascii	"s25\000"
 2052 0efa 15       		.byte	0x15
 2053 0efb 6401     		.2byte	0x164
 2054 0efd 450E0000 		.4byte	0xe45
 2055 0f01 24       		.byte	0x24
 2056 0f02 25       		.uleb128 0x25
 2057 0f03 73323600 		.ascii	"s26\000"
 2058 0f07 15       		.byte	0x15
 2059 0f08 6501     		.2byte	0x165
 2060 0f0a 450E0000 		.4byte	0xe45
 2061 0f0e 28       		.byte	0x28
 2062 0f0f 25       		.uleb128 0x25
 2063 0f10 73323700 		.ascii	"s27\000"
 2064 0f14 15       		.byte	0x15
 2065 0f15 6601     		.2byte	0x166
 2066 0f17 450E0000 		.4byte	0xe45
 2067 0f1b 2C       		.byte	0x2c
 2068 0f1c 25       		.uleb128 0x25
 2069 0f1d 73323800 		.ascii	"s28\000"
 2070 0f21 15       		.byte	0x15
 2071 0f22 6701     		.2byte	0x167
 2072 0f24 450E0000 		.4byte	0xe45
 2073 0f28 30       		.byte	0x30
 2074 0f29 25       		.uleb128 0x25
 2075 0f2a 73323900 		.ascii	"s29\000"
 2076 0f2e 15       		.byte	0x15
 2077 0f2f 6801     		.2byte	0x168
 2078 0f31 450E0000 		.4byte	0xe45
 2079 0f35 34       		.byte	0x34
 2080 0f36 25       		.uleb128 0x25
 2081 0f37 73333000 		.ascii	"s30\000"
 2082 0f3b 15       		.byte	0x15
 2083 0f3c 6901     		.2byte	0x169
 2084 0f3e 450E0000 		.4byte	0xe45
 2085 0f42 38       		.byte	0x38
 2086 0f43 25       		.uleb128 0x25
 2087 0f44 73333100 		.ascii	"s31\000"
 2088 0f48 15       		.byte	0x15
 2089 0f49 6A01     		.2byte	0x16a
 2090 0f4b 450E0000 		.4byte	0xe45
 2091 0f4f 3C       		.byte	0x3c
 2092 0f50 25       		.uleb128 0x25
 2093 0f51 723400   		.ascii	"r4\000"
 2094 0f54 15       		.byte	0x15
 2095 0f55 6C01     		.2byte	0x16c
 2096 0f57 450E0000 		.4byte	0xe45
 2097 0f5b 40       		.byte	0x40
 2098 0f5c 25       		.uleb128 0x25
 2099 0f5d 723500   		.ascii	"r5\000"
 2100 0f60 15       		.byte	0x15
 2101 0f61 6D01     		.2byte	0x16d
 2102 0f63 450E0000 		.4byte	0xe45
 2103 0f67 44       		.byte	0x44
ARM GAS  /tmp/ccRd8DKP.s 			page 38


 2104 0f68 25       		.uleb128 0x25
 2105 0f69 723600   		.ascii	"r6\000"
 2106 0f6c 15       		.byte	0x15
 2107 0f6d 6E01     		.2byte	0x16e
 2108 0f6f 450E0000 		.4byte	0xe45
 2109 0f73 48       		.byte	0x48
 2110 0f74 25       		.uleb128 0x25
 2111 0f75 723700   		.ascii	"r7\000"
 2112 0f78 15       		.byte	0x15
 2113 0f79 6F01     		.2byte	0x16f
 2114 0f7b 450E0000 		.4byte	0xe45
 2115 0f7f 4C       		.byte	0x4c
 2116 0f80 25       		.uleb128 0x25
 2117 0f81 723800   		.ascii	"r8\000"
 2118 0f84 15       		.byte	0x15
 2119 0f85 7001     		.2byte	0x170
 2120 0f87 450E0000 		.4byte	0xe45
 2121 0f8b 50       		.byte	0x50
 2122 0f8c 25       		.uleb128 0x25
 2123 0f8d 723900   		.ascii	"r9\000"
 2124 0f90 15       		.byte	0x15
 2125 0f91 7101     		.2byte	0x171
 2126 0f93 450E0000 		.4byte	0xe45
 2127 0f97 54       		.byte	0x54
 2128 0f98 25       		.uleb128 0x25
 2129 0f99 72313000 		.ascii	"r10\000"
 2130 0f9d 15       		.byte	0x15
 2131 0f9e 7201     		.2byte	0x172
 2132 0fa0 450E0000 		.4byte	0xe45
 2133 0fa4 58       		.byte	0x58
 2134 0fa5 25       		.uleb128 0x25
 2135 0fa6 72313100 		.ascii	"r11\000"
 2136 0faa 15       		.byte	0x15
 2137 0fab 7301     		.2byte	0x173
 2138 0fad 450E0000 		.4byte	0xe45
 2139 0fb1 5C       		.byte	0x5c
 2140 0fb2 25       		.uleb128 0x25
 2141 0fb3 6C7200   		.ascii	"lr\000"
 2142 0fb6 15       		.byte	0x15
 2143 0fb7 7401     		.2byte	0x174
 2144 0fb9 450E0000 		.4byte	0xe45
 2145 0fbd 60       		.byte	0x60
 2146 0fbe 00       		.byte	0
 2147 0fbf 0D       		.uleb128 0xd
 2148 0fc0 04       		.byte	0x4
 2149 0fc1 730E0000 		.4byte	0xe73
 2150 0fc5 11       		.uleb128 0x11
 2151 0fc6 04       		.byte	0x4
 2152 0fc7 16       		.byte	0x16
 2153 0fc8 38       		.byte	0x38
 2154 0fc9 9E080000 		.4byte	.LASF222
 2155 0fcd DE0F0000 		.4byte	0xfde
 2156 0fd1 14       		.uleb128 0x14
 2157 0fd2 A4070000 		.4byte	.LASF223
 2158 0fd6 16       		.byte	0x16
 2159 0fd7 3C       		.byte	0x3c
 2160 0fd8 A4090000 		.4byte	0x9a4
ARM GAS  /tmp/ccRd8DKP.s 			page 39


 2161 0fdc 00       		.byte	0
 2162 0fdd 00       		.byte	0
 2163 0fde 02       		.uleb128 0x2
 2164 0fdf 450A0000 		.4byte	.LASF224
 2165 0fe3 16       		.byte	0x16
 2166 0fe4 3D       		.byte	0x3d
 2167 0fe5 C50F0000 		.4byte	0xfc5
 2168 0fe9 0D       		.uleb128 0xd
 2169 0fea 04       		.byte	0x4
 2170 0feb 520B0000 		.4byte	0xb52
 2171 0fef 03       		.uleb128 0x3
 2172 0ff0 57050000 		.4byte	.LASF225
 2173 0ff4 0C       		.byte	0xc
 2174 0ff5 17       		.byte	0x17
 2175 0ff6 34       		.byte	0x34
 2176 0ff7 14100000 		.4byte	0x1014
 2177 0ffb 14       		.uleb128 0x14
 2178 0ffc 8E090000 		.4byte	.LASF159
 2179 1000 17       		.byte	0x17
 2180 1001 35       		.byte	0x35
 2181 1002 870B0000 		.4byte	0xb87
 2182 1006 00       		.byte	0
 2183 1007 17       		.uleb128 0x17
 2184 1008 636E7400 		.ascii	"cnt\000"
 2185 100c 17       		.byte	0x17
 2186 100d 37       		.byte	0x37
 2187 100e F1090000 		.4byte	0x9f1
 2188 1012 08       		.byte	0x8
 2189 1013 00       		.byte	0
 2190 1014 0D       		.uleb128 0xd
 2191 1015 04       		.byte	0x4
 2192 1016 EF0F0000 		.4byte	0xfef
 2193 101a 03       		.uleb128 0x3
 2194 101b 8E0A0000 		.4byte	.LASF226
 2195 101f 14       		.byte	0x14
 2196 1020 18       		.byte	0x18
 2197 1021 39       		.byte	0x39
 2198 1022 57100000 		.4byte	0x1057
 2199 1026 14       		.uleb128 0x14
 2200 1027 8E090000 		.4byte	.LASF159
 2201 102b 18       		.byte	0x18
 2202 102c 3A       		.byte	0x3a
 2203 102d 870B0000 		.4byte	0xb87
 2204 1031 00       		.byte	0
 2205 1032 14       		.uleb128 0x14
 2206 1033 4F000000 		.4byte	.LASF227
 2207 1037 18       		.byte	0x18
 2208 1038 3C       		.byte	0x3c
 2209 1039 5D0B0000 		.4byte	0xb5d
 2210 103d 08       		.byte	0x8
 2211 103e 14       		.uleb128 0x14
 2212 103f 830C0000 		.4byte	.LASF177
 2213 1043 18       		.byte	0x18
 2214 1044 3E       		.byte	0x3e
 2215 1045 A6110000 		.4byte	0x11a6
 2216 1049 0C       		.byte	0xc
 2217 104a 17       		.uleb128 0x17
ARM GAS  /tmp/ccRd8DKP.s 			page 40


 2218 104b 636E7400 		.ascii	"cnt\000"
 2219 104f 18       		.byte	0x18
 2220 1050 41       		.byte	0x41
 2221 1051 F1090000 		.4byte	0x9f1
 2222 1055 10       		.byte	0x10
 2223 1056 00       		.byte	0
 2224 1057 0D       		.uleb128 0xd
 2225 1058 04       		.byte	0x4
 2226 1059 1A100000 		.4byte	0x101a
 2227 105d 0D       		.uleb128 0xd
 2228 105e 04       		.byte	0x4
 2229 105f 500E0000 		.4byte	0xe50
 2230 1063 0D       		.uleb128 0xd
 2231 1064 04       		.byte	0x4
 2232 1065 3A0C0000 		.4byte	0xc3a
 2233 1069 29       		.uleb128 0x29
 2234 106a 636800   		.ascii	"ch\000"
 2235 106d 0F       		.byte	0xf
 2236 106e C701     		.2byte	0x1c7
 2237 1070 070D0000 		.4byte	0xd07
 2238 1074 15       		.uleb128 0x15
 2239 1075 500E0000 		.4byte	0xe50
 2240 1079 7F100000 		.4byte	0x107f
 2241 107d 24       		.uleb128 0x24
 2242 107e 00       		.byte	0
 2243 107f 23       		.uleb128 0x23
 2244 1080 89050000 		.4byte	.LASF228
 2245 1084 19       		.byte	0x19
 2246 1085 1701     		.2byte	0x117
 2247 1087 74100000 		.4byte	0x1074
 2248 108b 11       		.uleb128 0x11
 2249 108c 16       		.byte	0x16
 2250 108d 1A       		.byte	0x1a
 2251 108e 34       		.byte	0x34
 2252 108f 11080000 		.4byte	.LASF229
 2253 1093 70110000 		.4byte	0x1170
 2254 1097 14       		.uleb128 0x14
 2255 1098 9D0C0000 		.4byte	.LASF230
 2256 109c 1A       		.byte	0x1a
 2257 109d 35       		.byte	0x35
 2258 109e 70110000 		.4byte	0x1170
 2259 10a2 00       		.byte	0
 2260 10a3 14       		.uleb128 0x14
 2261 10a4 E9020000 		.4byte	.LASF231
 2262 10a8 1A       		.byte	0x1a
 2263 10a9 36       		.byte	0x36
 2264 10aa D1000000 		.4byte	0xd1
 2265 10ae 04       		.byte	0x4
 2266 10af 14       		.uleb128 0x14
 2267 10b0 CF080000 		.4byte	.LASF232
 2268 10b4 1A       		.byte	0x1a
 2269 10b5 37       		.byte	0x37
 2270 10b6 D1000000 		.4byte	0xd1
 2271 10ba 05       		.byte	0x5
 2272 10bb 14       		.uleb128 0x14
 2273 10bc DF090000 		.4byte	.LASF233
 2274 10c0 1A       		.byte	0x1a
ARM GAS  /tmp/ccRd8DKP.s 			page 41


 2275 10c1 38       		.byte	0x38
 2276 10c2 E1000000 		.4byte	0xe1
 2277 10c6 06       		.byte	0x6
 2278 10c7 14       		.uleb128 0x14
 2279 10c8 80040000 		.4byte	.LASF234
 2280 10cc 1A       		.byte	0x1a
 2281 10cd 39       		.byte	0x39
 2282 10ce D1000000 		.4byte	0xd1
 2283 10d2 08       		.byte	0x8
 2284 10d3 14       		.uleb128 0x14
 2285 10d4 480C0000 		.4byte	.LASF235
 2286 10d8 1A       		.byte	0x1a
 2287 10d9 3A       		.byte	0x3a
 2288 10da D1000000 		.4byte	0xd1
 2289 10de 09       		.byte	0x9
 2290 10df 14       		.uleb128 0x14
 2291 10e0 17050000 		.4byte	.LASF236
 2292 10e4 1A       		.byte	0x1a
 2293 10e5 3B       		.byte	0x3b
 2294 10e6 D1000000 		.4byte	0xd1
 2295 10ea 0A       		.byte	0xa
 2296 10eb 14       		.uleb128 0x14
 2297 10ec 0F000000 		.4byte	.LASF237
 2298 10f0 1A       		.byte	0x1a
 2299 10f1 3C       		.byte	0x3c
 2300 10f2 D1000000 		.4byte	0xd1
 2301 10f6 0B       		.byte	0xb
 2302 10f7 14       		.uleb128 0x14
 2303 10f8 00000000 		.4byte	.LASF238
 2304 10fc 1A       		.byte	0x1a
 2305 10fd 3D       		.byte	0x3d
 2306 10fe D1000000 		.4byte	0xd1
 2307 1102 0C       		.byte	0xc
 2308 1103 14       		.uleb128 0x14
 2309 1104 0D070000 		.4byte	.LASF239
 2310 1108 1A       		.byte	0x1a
 2311 1109 3E       		.byte	0x3e
 2312 110a D1000000 		.4byte	0xd1
 2313 110e 0D       		.byte	0xd
 2314 110f 14       		.uleb128 0x14
 2315 1110 2E010000 		.4byte	.LASF240
 2316 1114 1A       		.byte	0x1a
 2317 1115 3F       		.byte	0x3f
 2318 1116 D1000000 		.4byte	0xd1
 2319 111a 0E       		.byte	0xe
 2320 111b 14       		.uleb128 0x14
 2321 111c 20090000 		.4byte	.LASF241
 2322 1120 1A       		.byte	0x1a
 2323 1121 40       		.byte	0x40
 2324 1122 D1000000 		.4byte	0xd1
 2325 1126 0F       		.byte	0xf
 2326 1127 14       		.uleb128 0x14
 2327 1128 F1050000 		.4byte	.LASF242
 2328 112c 1A       		.byte	0x1a
 2329 112d 41       		.byte	0x41
 2330 112e D1000000 		.4byte	0xd1
 2331 1132 10       		.byte	0x10
ARM GAS  /tmp/ccRd8DKP.s 			page 42


 2332 1133 14       		.uleb128 0x14
 2333 1134 F6040000 		.4byte	.LASF243
 2334 1138 1A       		.byte	0x1a
 2335 1139 42       		.byte	0x42
 2336 113a D1000000 		.4byte	0xd1
 2337 113e 11       		.byte	0x11
 2338 113f 14       		.uleb128 0x14
 2339 1140 660C0000 		.4byte	.LASF244
 2340 1144 1A       		.byte	0x1a
 2341 1145 43       		.byte	0x43
 2342 1146 D1000000 		.4byte	0xd1
 2343 114a 12       		.byte	0x12
 2344 114b 14       		.uleb128 0x14
 2345 114c A40B0000 		.4byte	.LASF245
 2346 1150 1A       		.byte	0x1a
 2347 1151 44       		.byte	0x44
 2348 1152 D1000000 		.4byte	0xd1
 2349 1156 13       		.byte	0x13
 2350 1157 14       		.uleb128 0x14
 2351 1158 3E000000 		.4byte	.LASF246
 2352 115c 1A       		.byte	0x1a
 2353 115d 45       		.byte	0x45
 2354 115e D1000000 		.4byte	0xd1
 2355 1162 14       		.byte	0x14
 2356 1163 14       		.uleb128 0x14
 2357 1164 88040000 		.4byte	.LASF247
 2358 1168 1A       		.byte	0x1a
 2359 1169 46       		.byte	0x46
 2360 116a D1000000 		.4byte	0xd1
 2361 116e 15       		.byte	0x15
 2362 116f 00       		.byte	0
 2363 1170 15       		.uleb128 0x15
 2364 1171 4D010000 		.4byte	0x14d
 2365 1175 80110000 		.4byte	0x1180
 2366 1179 16       		.uleb128 0x16
 2367 117a F6010000 		.4byte	0x1f6
 2368 117e 03       		.byte	0x3
 2369 117f 00       		.byte	0
 2370 1180 02       		.uleb128 0x2
 2371 1181 E90B0000 		.4byte	.LASF248
 2372 1185 1A       		.byte	0x1a
 2373 1186 47       		.byte	0x47
 2374 1187 8B100000 		.4byte	0x108b
 2375 118b 08       		.uleb128 0x8
 2376 118c 80110000 		.4byte	0x1180
 2377 1190 0E       		.uleb128 0xe
 2378 1191 63000000 		.4byte	.LASF249
 2379 1195 1A       		.byte	0x1a
 2380 1196 6C       		.byte	0x6c
 2381 1197 8B110000 		.4byte	0x118b
 2382 119b 02       		.uleb128 0x2
 2383 119c 2E0B0000 		.4byte	.LASF250
 2384 11a0 18       		.byte	0x18
 2385 11a1 34       		.byte	0x34
 2386 11a2 1A100000 		.4byte	0x101a
 2387 11a6 0D       		.uleb128 0xd
 2388 11a7 04       		.byte	0x4
ARM GAS  /tmp/ccRd8DKP.s 			page 43


 2389 11a8 9B110000 		.4byte	0x119b
 2390 11ac 06       		.uleb128 0x6
 2391 11ad 01       		.byte	0x1
 2392 11ae 02       		.byte	0x2
 2393 11af CE070000 		.4byte	.LASF251
 2394 11b3 02       		.uleb128 0x2
 2395 11b4 D3070000 		.4byte	.LASF252
 2396 11b8 1B       		.byte	0x1b
 2397 11b9 47       		.byte	0x47
 2398 11ba BE110000 		.4byte	0x11be
 2399 11be 0D       		.uleb128 0xd
 2400 11bf 04       		.byte	0x4
 2401 11c0 C4110000 		.4byte	0x11c4
 2402 11c4 0B       		.uleb128 0xb
 2403 11c5 47000000 		.4byte	0x47
 2404 11c9 D8110000 		.4byte	0x11d8
 2405 11cd 0C       		.uleb128 0xc
 2406 11ce 12010000 		.4byte	0x112
 2407 11d2 0C       		.uleb128 0xc
 2408 11d3 CA000000 		.4byte	0xca
 2409 11d7 00       		.byte	0
 2410 11d8 11       		.uleb128 0x11
 2411 11d9 08       		.byte	0x8
 2412 11da 1B       		.byte	0x1b
 2413 11db 51       		.byte	0x51
 2414 11dc 990B0000 		.4byte	.LASF253
 2415 11e0 FD110000 		.4byte	0x11fd
 2416 11e4 14       		.uleb128 0x14
 2417 11e5 E3040000 		.4byte	.LASF254
 2418 11e9 1B       		.byte	0x1b
 2419 11ea 55       		.byte	0x55
 2420 11eb FD110000 		.4byte	0x11fd
 2421 11ef 00       		.byte	0
 2422 11f0 14       		.uleb128 0x14
 2423 11f1 A2020000 		.4byte	.LASF255
 2424 11f5 1B       		.byte	0x1b
 2425 11f6 59       		.byte	0x59
 2426 11f7 FD110000 		.4byte	0x11fd
 2427 11fb 04       		.byte	0x4
 2428 11fc 00       		.byte	0
 2429 11fd 0D       		.uleb128 0xd
 2430 11fe 04       		.byte	0x4
 2431 11ff D1000000 		.4byte	0xd1
 2432 1203 02       		.uleb128 0x2
 2433 1204 54030000 		.4byte	.LASF256
 2434 1208 1B       		.byte	0x1b
 2435 1209 5A       		.byte	0x5a
 2436 120a D8110000 		.4byte	0x11d8
 2437 120e 0E       		.uleb128 0xe
 2438 120f 5B0C0000 		.4byte	.LASF257
 2439 1213 1B       		.byte	0x1b
 2440 1214 65       		.byte	0x65
 2441 1215 03120000 		.4byte	0x1203
 2442 1219 03       		.uleb128 0x3
 2443 121a FE050000 		.4byte	.LASF258
 2444 121e 04       		.byte	0x4
 2445 121f 1C       		.byte	0x1c
ARM GAS  /tmp/ccRd8DKP.s 			page 44


 2446 1220 38       		.byte	0x38
 2447 1221 32120000 		.4byte	0x1232
 2448 1225 14       		.uleb128 0x14
 2449 1226 830C0000 		.4byte	.LASF177
 2450 122a 1C       		.byte	0x1c
 2451 122b 39       		.byte	0x39
 2452 122c 32120000 		.4byte	0x1232
 2453 1230 00       		.byte	0
 2454 1231 00       		.byte	0
 2455 1232 0D       		.uleb128 0xd
 2456 1233 04       		.byte	0x4
 2457 1234 19120000 		.4byte	0x1219
 2458 1238 11       		.uleb128 0x11
 2459 1239 10       		.byte	0x10
 2460 123a 1C       		.byte	0x1c
 2461 123b 40       		.byte	0x40
 2462 123c 14040000 		.4byte	.LASF259
 2463 1240 75120000 		.4byte	0x1275
 2464 1244 14       		.uleb128 0x14
 2465 1245 830C0000 		.4byte	.LASF177
 2466 1249 1C       		.byte	0x1c
 2467 124a 41       		.byte	0x41
 2468 124b 32120000 		.4byte	0x1232
 2469 124f 00       		.byte	0
 2470 1250 14       		.uleb128 0x14
 2471 1251 DB0A0000 		.4byte	.LASF260
 2472 1255 1C       		.byte	0x1c
 2473 1256 42       		.byte	0x42
 2474 1257 12010000 		.4byte	0x112
 2475 125b 04       		.byte	0x4
 2476 125c 14       		.uleb128 0x14
 2477 125d E8060000 		.4byte	.LASF261
 2478 1261 1C       		.byte	0x1c
 2479 1262 44       		.byte	0x44
 2480 1263 CA000000 		.4byte	0xca
 2481 1267 08       		.byte	0x8
 2482 1268 14       		.uleb128 0x14
 2483 1269 7A000000 		.4byte	.LASF262
 2484 126d 1C       		.byte	0x1c
 2485 126e 45       		.byte	0x45
 2486 126f B3110000 		.4byte	0x11b3
 2487 1273 0C       		.byte	0xc
 2488 1274 00       		.byte	0
 2489 1275 02       		.uleb128 0x2
 2490 1276 120A0000 		.4byte	.LASF263
 2491 127a 1C       		.byte	0x1c
 2492 127b 47       		.byte	0x47
 2493 127c 38120000 		.4byte	0x1238
 2494 1280 03       		.uleb128 0x3
 2495 1281 FE000000 		.4byte	.LASF264
 2496 1285 10       		.byte	0x10
 2497 1286 1D       		.byte	0x1d
 2498 1287 A9       		.byte	0xa9
 2499 1288 B1120000 		.4byte	0x12b1
 2500 128c 14       		.uleb128 0x14
 2501 128d 830C0000 		.4byte	.LASF177
 2502 1291 1D       		.byte	0x1d
ARM GAS  /tmp/ccRd8DKP.s 			page 45


 2503 1292 AD       		.byte	0xad
 2504 1293 B1120000 		.4byte	0x12b1
 2505 1297 00       		.byte	0
 2506 1298 14       		.uleb128 0x14
 2507 1299 2C070000 		.4byte	.LASF167
 2508 129d 1D       		.byte	0x1d
 2509 129e B1       		.byte	0xb1
 2510 129f FC090000 		.4byte	0x9fc
 2511 12a3 04       		.byte	0x4
 2512 12a4 14       		.uleb128 0x14
 2513 12a5 560A0000 		.4byte	.LASF163
 2514 12a9 1D       		.byte	0x1d
 2515 12aa B3       		.byte	0xb3
 2516 12ab D2080000 		.4byte	0x8d2
 2517 12af 08       		.byte	0x8
 2518 12b0 00       		.byte	0
 2519 12b1 0D       		.uleb128 0xd
 2520 12b2 04       		.byte	0x4
 2521 12b3 80120000 		.4byte	0x1280
 2522 12b7 02       		.uleb128 0x2
 2523 12b8 100B0000 		.4byte	.LASF265
 2524 12bc 1D       		.byte	0x1d
 2525 12bd B7       		.byte	0xb7
 2526 12be 80120000 		.4byte	0x1280
 2527 12c2 03       		.uleb128 0x3
 2528 12c3 910C0000 		.4byte	.LASF266
 2529 12c7 04       		.byte	0x4
 2530 12c8 1D       		.byte	0x1d
 2531 12c9 BC       		.byte	0xbc
 2532 12ca DB120000 		.4byte	0x12db
 2533 12ce 14       		.uleb128 0x14
 2534 12cf 830C0000 		.4byte	.LASF177
 2535 12d3 1D       		.byte	0x1d
 2536 12d4 BD       		.byte	0xbd
 2537 12d5 DB120000 		.4byte	0x12db
 2538 12d9 00       		.byte	0
 2539 12da 00       		.byte	0
 2540 12db 0D       		.uleb128 0xd
 2541 12dc 04       		.byte	0x4
 2542 12dd B7120000 		.4byte	0x12b7
 2543 12e1 02       		.uleb128 0x2
 2544 12e2 C60A0000 		.4byte	.LASF267
 2545 12e6 1D       		.byte	0x1d
 2546 12e7 BE       		.byte	0xbe
 2547 12e8 C2120000 		.4byte	0x12c2
 2548 12ec 21       		.uleb128 0x21
 2549 12ed A5060000 		.4byte	.LASF268
 2550 12f1 48       		.byte	0x48
 2551 12f2 1D       		.byte	0x1d
 2552 12f3 3E01     		.2byte	0x13e
 2553 12f5 62130000 		.4byte	0x1362
 2554 12f9 25       		.uleb128 0x25
 2555 12fa 6D747800 		.ascii	"mtx\000"
 2556 12fe 1D       		.byte	0x1d
 2557 12ff 4301     		.2byte	0x143
 2558 1301 9B110000 		.4byte	0x119b
 2559 1305 00       		.byte	0
ARM GAS  /tmp/ccRd8DKP.s 			page 46


 2560 1306 1E       		.uleb128 0x1e
 2561 1307 25010000 		.4byte	.LASF269
 2562 130b 1D       		.byte	0x1d
 2563 130c 4A01     		.2byte	0x14a
 2564 130e E1120000 		.4byte	0x12e1
 2565 1312 14       		.byte	0x14
 2566 1313 1E       		.uleb128 0x1e
 2567 1314 3E030000 		.4byte	.LASF270
 2568 1318 1D       		.byte	0x1d
 2569 1319 4E01     		.2byte	0x14e
 2570 131b 75120000 		.4byte	0x1275
 2571 131f 18       		.byte	0x18
 2572 1320 1E       		.uleb128 0x1e
 2573 1321 55080000 		.4byte	.LASF271
 2574 1325 1D       		.byte	0x1d
 2575 1326 5301     		.2byte	0x153
 2576 1328 E1120000 		.4byte	0x12e1
 2577 132c 28       		.byte	0x28
 2578 132d 1E       		.uleb128 0x1e
 2579 132e 35040000 		.4byte	.LASF272
 2580 1332 1D       		.byte	0x1d
 2581 1333 5901     		.2byte	0x159
 2582 1335 E1120000 		.4byte	0x12e1
 2583 1339 2C       		.byte	0x2c
 2584 133a 1E       		.uleb128 0x1e
 2585 133b CA040000 		.4byte	.LASF273
 2586 133f 1D       		.byte	0x1d
 2587 1340 5D01     		.2byte	0x15d
 2588 1342 75120000 		.4byte	0x1275
 2589 1346 30       		.byte	0x30
 2590 1347 1E       		.uleb128 0x1e
 2591 1348 C2090000 		.4byte	.LASF274
 2592 134c 1D       		.byte	0x1d
 2593 134d 6301     		.2byte	0x163
 2594 134f E1120000 		.4byte	0x12e1
 2595 1353 40       		.byte	0x40
 2596 1354 1E       		.uleb128 0x1e
 2597 1355 A2050000 		.4byte	.LASF275
 2598 1359 1D       		.byte	0x1d
 2599 135a 6901     		.2byte	0x169
 2600 135c E1120000 		.4byte	0x12e1
 2601 1360 44       		.byte	0x44
 2602 1361 00       		.byte	0
 2603 1362 10       		.uleb128 0x10
 2604 1363 30080000 		.4byte	.LASF276
 2605 1367 1D       		.byte	0x1d
 2606 1368 7101     		.2byte	0x171
 2607 136a EC120000 		.4byte	0x12ec
 2608 136e 23       		.uleb128 0x23
 2609 136f A8090000 		.4byte	.LASF277
 2610 1373 1D       		.byte	0x1d
 2611 1374 7C01     		.2byte	0x17c
 2612 1376 62130000 		.4byte	0x1362
 2613 137a 2A       		.uleb128 0x2a
 2614 137b 3A070000 		.4byte	.LASF278
 2615 137f 1E       		.byte	0x1e
 2616 1380 0B       		.byte	0xb
ARM GAS  /tmp/ccRd8DKP.s 			page 47


 2617 1381 47000000 		.4byte	0x47
 2618 1385 05       		.uleb128 0x5
 2619 1386 03       		.byte	0x3
 2620 1387 00000000 		.4byte	__dso_handle
 2621 138b 0E       		.uleb128 0xe
 2622 138c A9020000 		.4byte	.LASF279
 2623 1390 02       		.byte	0x2
 2624 1391 13       		.byte	0x13
 2625 1392 C3000000 		.4byte	0xc3
 2626 1396 2B       		.uleb128 0x2b
 2627 1397 49060000 		.4byte	.LASF280
 2628 139b 02       		.byte	0x2
 2629 139c 1F       		.byte	0x1f
 2630 139d 00000000 		.4byte	.LFB326
 2631 13a1 10000000 		.4byte	.LFE326-.LFB326
 2632 13a5 01       		.uleb128 0x1
 2633 13a6 9C       		.byte	0x9c
 2634 13a7 2C       		.uleb128 0x2c
 2635 13a8 72020000 		.4byte	.LASF281
 2636 13ac 02       		.byte	0x2
 2637 13ad 1B       		.byte	0x1b
 2638 13ae 00000000 		.4byte	.LFB325
 2639 13b2 04000000 		.4byte	.LFE325-.LFB325
 2640 13b6 01       		.uleb128 0x1
 2641 13b7 9C       		.byte	0x9c
 2642 13b8 2D       		.uleb128 0x2d
 2643 13b9 42080000 		.4byte	.LASF282
 2644 13bd 02       		.byte	0x2
 2645 13be 14       		.byte	0x14
 2646 13bf C3000000 		.4byte	0xc3
 2647 13c3 00000000 		.4byte	.LFB324
 2648 13c7 1C000000 		.4byte	.LFE324-.LFB324
 2649 13cb 01       		.uleb128 0x1
 2650 13cc 9C       		.byte	0x9c
 2651 13cd EE130000 		.4byte	0x13ee
 2652 13d1 2E       		.uleb128 0x2e
 2653 13d2 70696400 		.ascii	"pid\000"
 2654 13d6 02       		.byte	0x2
 2655 13d7 14       		.byte	0x14
 2656 13d8 C3000000 		.4byte	0xc3
 2657 13dc 02       		.uleb128 0x2
 2658 13dd 91       		.byte	0x91
 2659 13de 7C       		.sleb128 -4
 2660 13df 2E       		.uleb128 0x2e
 2661 13e0 73696700 		.ascii	"sig\000"
 2662 13e4 02       		.byte	0x2
 2663 13e5 14       		.byte	0x14
 2664 13e6 C3000000 		.4byte	0xc3
 2665 13ea 02       		.uleb128 0x2
 2666 13eb 91       		.byte	0x91
 2667 13ec 78       		.sleb128 -8
 2668 13ed 00       		.byte	0
 2669 13ee 2F       		.uleb128 0x2f
 2670 13ef 07070000 		.4byte	.LASF283
 2671 13f3 02       		.byte	0x2
 2672 13f4 0C       		.byte	0xc
 2673 13f5 00000000 		.4byte	.LFB323
ARM GAS  /tmp/ccRd8DKP.s 			page 48


 2674 13f9 14000000 		.4byte	.LFE323-.LFB323
 2675 13fd 01       		.uleb128 0x1
 2676 13fe 9C       		.byte	0x9c
 2677 13ff 12140000 		.4byte	0x1412
 2678 1403 30       		.uleb128 0x30
 2679 1404 610B0000 		.4byte	.LASF284
 2680 1408 02       		.byte	0x2
 2681 1409 0C       		.byte	0xc
 2682 140a C3000000 		.4byte	0xc3
 2683 140e 02       		.uleb128 0x2
 2684 140f 91       		.byte	0x91
 2685 1410 74       		.sleb128 -12
 2686 1411 00       		.byte	0
 2687 1412 31       		.uleb128 0x31
 2688 1413 2A060000 		.4byte	.LASF290
 2689 1417 01       		.byte	0x1
 2690 1418 DE01     		.2byte	0x1de
 2691 141a 00000000 		.4byte	.LFB291
 2692 141e 14000000 		.4byte	.LFE291-.LFB291
 2693 1422 01       		.uleb128 0x1
 2694 1423 9C       		.byte	0x9c
 2695 1424 32       		.uleb128 0x32
 2696 1425 94090000 		.4byte	.LASF285
 2697 1429 01       		.byte	0x1
 2698 142a DE01     		.2byte	0x1de
 2699 142c 3D010000 		.4byte	0x13d
 2700 1430 02       		.uleb128 0x2
 2701 1431 91       		.byte	0x91
 2702 1432 74       		.sleb128 -12
 2703 1433 00       		.byte	0
 2704 1434 00       		.byte	0
 2705              		.section	.debug_abbrev,"",%progbits
 2706              	.Ldebug_abbrev0:
 2707 0000 01       		.uleb128 0x1
 2708 0001 11       		.uleb128 0x11
 2709 0002 01       		.byte	0x1
 2710 0003 25       		.uleb128 0x25
 2711 0004 0E       		.uleb128 0xe
 2712 0005 13       		.uleb128 0x13
 2713 0006 0B       		.uleb128 0xb
 2714 0007 03       		.uleb128 0x3
 2715 0008 0E       		.uleb128 0xe
 2716 0009 1B       		.uleb128 0x1b
 2717 000a 0E       		.uleb128 0xe
 2718 000b 55       		.uleb128 0x55
 2719 000c 17       		.uleb128 0x17
 2720 000d 11       		.uleb128 0x11
 2721 000e 01       		.uleb128 0x1
 2722 000f 10       		.uleb128 0x10
 2723 0010 17       		.uleb128 0x17
 2724 0011 00       		.byte	0
 2725 0012 00       		.byte	0
 2726 0013 02       		.uleb128 0x2
 2727 0014 16       		.uleb128 0x16
 2728 0015 00       		.byte	0
 2729 0016 03       		.uleb128 0x3
 2730 0017 0E       		.uleb128 0xe
ARM GAS  /tmp/ccRd8DKP.s 			page 49


 2731 0018 3A       		.uleb128 0x3a
 2732 0019 0B       		.uleb128 0xb
 2733 001a 3B       		.uleb128 0x3b
 2734 001b 0B       		.uleb128 0xb
 2735 001c 49       		.uleb128 0x49
 2736 001d 13       		.uleb128 0x13
 2737 001e 00       		.byte	0
 2738 001f 00       		.byte	0
 2739 0020 03       		.uleb128 0x3
 2740 0021 13       		.uleb128 0x13
 2741 0022 01       		.byte	0x1
 2742 0023 03       		.uleb128 0x3
 2743 0024 0E       		.uleb128 0xe
 2744 0025 0B       		.uleb128 0xb
 2745 0026 0B       		.uleb128 0xb
 2746 0027 3A       		.uleb128 0x3a
 2747 0028 0B       		.uleb128 0xb
 2748 0029 3B       		.uleb128 0x3b
 2749 002a 0B       		.uleb128 0xb
 2750 002b 01       		.uleb128 0x1
 2751 002c 13       		.uleb128 0x13
 2752 002d 00       		.byte	0
 2753 002e 00       		.byte	0
 2754 002f 04       		.uleb128 0x4
 2755 0030 0D       		.uleb128 0xd
 2756 0031 00       		.byte	0
 2757 0032 03       		.uleb128 0x3
 2758 0033 0E       		.uleb128 0xe
 2759 0034 49       		.uleb128 0x49
 2760 0035 13       		.uleb128 0x13
 2761 0036 38       		.uleb128 0x38
 2762 0037 0B       		.uleb128 0xb
 2763 0038 34       		.uleb128 0x34
 2764 0039 19       		.uleb128 0x19
 2765 003a 00       		.byte	0
 2766 003b 00       		.byte	0
 2767 003c 05       		.uleb128 0x5
 2768 003d 0F       		.uleb128 0xf
 2769 003e 00       		.byte	0
 2770 003f 0B       		.uleb128 0xb
 2771 0040 0B       		.uleb128 0xb
 2772 0041 00       		.byte	0
 2773 0042 00       		.byte	0
 2774 0043 06       		.uleb128 0x6
 2775 0044 24       		.uleb128 0x24
 2776 0045 00       		.byte	0
 2777 0046 0B       		.uleb128 0xb
 2778 0047 0B       		.uleb128 0xb
 2779 0048 3E       		.uleb128 0x3e
 2780 0049 0B       		.uleb128 0xb
 2781 004a 03       		.uleb128 0x3
 2782 004b 0E       		.uleb128 0xe
 2783 004c 00       		.byte	0
 2784 004d 00       		.byte	0
 2785 004e 07       		.uleb128 0x7
 2786 004f 24       		.uleb128 0x24
 2787 0050 00       		.byte	0
ARM GAS  /tmp/ccRd8DKP.s 			page 50


 2788 0051 0B       		.uleb128 0xb
 2789 0052 0B       		.uleb128 0xb
 2790 0053 3E       		.uleb128 0x3e
 2791 0054 0B       		.uleb128 0xb
 2792 0055 03       		.uleb128 0x3
 2793 0056 08       		.uleb128 0x8
 2794 0057 00       		.byte	0
 2795 0058 00       		.byte	0
 2796 0059 08       		.uleb128 0x8
 2797 005a 26       		.uleb128 0x26
 2798 005b 00       		.byte	0
 2799 005c 49       		.uleb128 0x49
 2800 005d 13       		.uleb128 0x13
 2801 005e 00       		.byte	0
 2802 005f 00       		.byte	0
 2803 0060 09       		.uleb128 0x9
 2804 0061 35       		.uleb128 0x35
 2805 0062 00       		.byte	0
 2806 0063 49       		.uleb128 0x49
 2807 0064 13       		.uleb128 0x13
 2808 0065 00       		.byte	0
 2809 0066 00       		.byte	0
 2810 0067 0A       		.uleb128 0xa
 2811 0068 3B       		.uleb128 0x3b
 2812 0069 00       		.byte	0
 2813 006a 03       		.uleb128 0x3
 2814 006b 0E       		.uleb128 0xe
 2815 006c 00       		.byte	0
 2816 006d 00       		.byte	0
 2817 006e 0B       		.uleb128 0xb
 2818 006f 15       		.uleb128 0x15
 2819 0070 01       		.byte	0x1
 2820 0071 49       		.uleb128 0x49
 2821 0072 13       		.uleb128 0x13
 2822 0073 01       		.uleb128 0x1
 2823 0074 13       		.uleb128 0x13
 2824 0075 00       		.byte	0
 2825 0076 00       		.byte	0
 2826 0077 0C       		.uleb128 0xc
 2827 0078 05       		.uleb128 0x5
 2828 0079 00       		.byte	0
 2829 007a 49       		.uleb128 0x49
 2830 007b 13       		.uleb128 0x13
 2831 007c 00       		.byte	0
 2832 007d 00       		.byte	0
 2833 007e 0D       		.uleb128 0xd
 2834 007f 0F       		.uleb128 0xf
 2835 0080 00       		.byte	0
 2836 0081 0B       		.uleb128 0xb
 2837 0082 0B       		.uleb128 0xb
 2838 0083 49       		.uleb128 0x49
 2839 0084 13       		.uleb128 0x13
 2840 0085 00       		.byte	0
 2841 0086 00       		.byte	0
 2842 0087 0E       		.uleb128 0xe
 2843 0088 34       		.uleb128 0x34
 2844 0089 00       		.byte	0
ARM GAS  /tmp/ccRd8DKP.s 			page 51


 2845 008a 03       		.uleb128 0x3
 2846 008b 0E       		.uleb128 0xe
 2847 008c 3A       		.uleb128 0x3a
 2848 008d 0B       		.uleb128 0xb
 2849 008e 3B       		.uleb128 0x3b
 2850 008f 0B       		.uleb128 0xb
 2851 0090 49       		.uleb128 0x49
 2852 0091 13       		.uleb128 0x13
 2853 0092 3F       		.uleb128 0x3f
 2854 0093 19       		.uleb128 0x19
 2855 0094 3C       		.uleb128 0x3c
 2856 0095 19       		.uleb128 0x19
 2857 0096 00       		.byte	0
 2858 0097 00       		.byte	0
 2859 0098 0F       		.uleb128 0xf
 2860 0099 13       		.uleb128 0x13
 2861 009a 00       		.byte	0
 2862 009b 03       		.uleb128 0x3
 2863 009c 0E       		.uleb128 0xe
 2864 009d 3C       		.uleb128 0x3c
 2865 009e 19       		.uleb128 0x19
 2866 009f 00       		.byte	0
 2867 00a0 00       		.byte	0
 2868 00a1 10       		.uleb128 0x10
 2869 00a2 16       		.uleb128 0x16
 2870 00a3 00       		.byte	0
 2871 00a4 03       		.uleb128 0x3
 2872 00a5 0E       		.uleb128 0xe
 2873 00a6 3A       		.uleb128 0x3a
 2874 00a7 0B       		.uleb128 0xb
 2875 00a8 3B       		.uleb128 0x3b
 2876 00a9 05       		.uleb128 0x5
 2877 00aa 49       		.uleb128 0x49
 2878 00ab 13       		.uleb128 0x13
 2879 00ac 00       		.byte	0
 2880 00ad 00       		.byte	0
 2881 00ae 11       		.uleb128 0x11
 2882 00af 13       		.uleb128 0x13
 2883 00b0 01       		.byte	0x1
 2884 00b1 0B       		.uleb128 0xb
 2885 00b2 0B       		.uleb128 0xb
 2886 00b3 3A       		.uleb128 0x3a
 2887 00b4 0B       		.uleb128 0xb
 2888 00b5 3B       		.uleb128 0x3b
 2889 00b6 0B       		.uleb128 0xb
 2890 00b7 6E       		.uleb128 0x6e
 2891 00b8 0E       		.uleb128 0xe
 2892 00b9 01       		.uleb128 0x1
 2893 00ba 13       		.uleb128 0x13
 2894 00bb 00       		.byte	0
 2895 00bc 00       		.byte	0
 2896 00bd 12       		.uleb128 0x12
 2897 00be 17       		.uleb128 0x17
 2898 00bf 01       		.byte	0x1
 2899 00c0 0B       		.uleb128 0xb
 2900 00c1 0B       		.uleb128 0xb
 2901 00c2 3A       		.uleb128 0x3a
ARM GAS  /tmp/ccRd8DKP.s 			page 52


 2902 00c3 0B       		.uleb128 0xb
 2903 00c4 3B       		.uleb128 0x3b
 2904 00c5 0B       		.uleb128 0xb
 2905 00c6 01       		.uleb128 0x1
 2906 00c7 13       		.uleb128 0x13
 2907 00c8 00       		.byte	0
 2908 00c9 00       		.byte	0
 2909 00ca 13       		.uleb128 0x13
 2910 00cb 0D       		.uleb128 0xd
 2911 00cc 00       		.byte	0
 2912 00cd 03       		.uleb128 0x3
 2913 00ce 0E       		.uleb128 0xe
 2914 00cf 3A       		.uleb128 0x3a
 2915 00d0 0B       		.uleb128 0xb
 2916 00d1 3B       		.uleb128 0x3b
 2917 00d2 0B       		.uleb128 0xb
 2918 00d3 49       		.uleb128 0x49
 2919 00d4 13       		.uleb128 0x13
 2920 00d5 00       		.byte	0
 2921 00d6 00       		.byte	0
 2922 00d7 14       		.uleb128 0x14
 2923 00d8 0D       		.uleb128 0xd
 2924 00d9 00       		.byte	0
 2925 00da 03       		.uleb128 0x3
 2926 00db 0E       		.uleb128 0xe
 2927 00dc 3A       		.uleb128 0x3a
 2928 00dd 0B       		.uleb128 0xb
 2929 00de 3B       		.uleb128 0x3b
 2930 00df 0B       		.uleb128 0xb
 2931 00e0 49       		.uleb128 0x49
 2932 00e1 13       		.uleb128 0x13
 2933 00e2 38       		.uleb128 0x38
 2934 00e3 0B       		.uleb128 0xb
 2935 00e4 00       		.byte	0
 2936 00e5 00       		.byte	0
 2937 00e6 15       		.uleb128 0x15
 2938 00e7 01       		.uleb128 0x1
 2939 00e8 01       		.byte	0x1
 2940 00e9 49       		.uleb128 0x49
 2941 00ea 13       		.uleb128 0x13
 2942 00eb 01       		.uleb128 0x1
 2943 00ec 13       		.uleb128 0x13
 2944 00ed 00       		.byte	0
 2945 00ee 00       		.byte	0
 2946 00ef 16       		.uleb128 0x16
 2947 00f0 21       		.uleb128 0x21
 2948 00f1 00       		.byte	0
 2949 00f2 49       		.uleb128 0x49
 2950 00f3 13       		.uleb128 0x13
 2951 00f4 2F       		.uleb128 0x2f
 2952 00f5 0B       		.uleb128 0xb
 2953 00f6 00       		.byte	0
 2954 00f7 00       		.byte	0
 2955 00f8 17       		.uleb128 0x17
 2956 00f9 0D       		.uleb128 0xd
 2957 00fa 00       		.byte	0
 2958 00fb 03       		.uleb128 0x3
ARM GAS  /tmp/ccRd8DKP.s 			page 53


 2959 00fc 08       		.uleb128 0x8
 2960 00fd 3A       		.uleb128 0x3a
 2961 00fe 0B       		.uleb128 0xb
 2962 00ff 3B       		.uleb128 0x3b
 2963 0100 0B       		.uleb128 0xb
 2964 0101 49       		.uleb128 0x49
 2965 0102 13       		.uleb128 0x13
 2966 0103 38       		.uleb128 0x38
 2967 0104 0B       		.uleb128 0xb
 2968 0105 00       		.byte	0
 2969 0106 00       		.byte	0
 2970 0107 18       		.uleb128 0x18
 2971 0108 13       		.uleb128 0x13
 2972 0109 01       		.byte	0x1
 2973 010a 03       		.uleb128 0x3
 2974 010b 0E       		.uleb128 0xe
 2975 010c 0B       		.uleb128 0xb
 2976 010d 05       		.uleb128 0x5
 2977 010e 3A       		.uleb128 0x3a
 2978 010f 0B       		.uleb128 0xb
 2979 0110 3B       		.uleb128 0x3b
 2980 0111 0B       		.uleb128 0xb
 2981 0112 01       		.uleb128 0x1
 2982 0113 13       		.uleb128 0x13
 2983 0114 00       		.byte	0
 2984 0115 00       		.byte	0
 2985 0116 19       		.uleb128 0x19
 2986 0117 0D       		.uleb128 0xd
 2987 0118 00       		.byte	0
 2988 0119 03       		.uleb128 0x3
 2989 011a 0E       		.uleb128 0xe
 2990 011b 3A       		.uleb128 0x3a
 2991 011c 0B       		.uleb128 0xb
 2992 011d 3B       		.uleb128 0x3b
 2993 011e 0B       		.uleb128 0xb
 2994 011f 49       		.uleb128 0x49
 2995 0120 13       		.uleb128 0x13
 2996 0121 38       		.uleb128 0x38
 2997 0122 05       		.uleb128 0x5
 2998 0123 00       		.byte	0
 2999 0124 00       		.byte	0
 3000 0125 1A       		.uleb128 0x1a
 3001 0126 15       		.uleb128 0x15
 3002 0127 00       		.byte	0
 3003 0128 00       		.byte	0
 3004 0129 00       		.byte	0
 3005 012a 1B       		.uleb128 0x1b
 3006 012b 13       		.uleb128 0x13
 3007 012c 01       		.byte	0x1
 3008 012d 03       		.uleb128 0x3
 3009 012e 0E       		.uleb128 0xe
 3010 012f 0B       		.uleb128 0xb
 3011 0130 05       		.uleb128 0x5
 3012 0131 3A       		.uleb128 0x3a
 3013 0132 0B       		.uleb128 0xb
 3014 0133 3B       		.uleb128 0x3b
 3015 0134 05       		.uleb128 0x5
ARM GAS  /tmp/ccRd8DKP.s 			page 54


 3016 0135 01       		.uleb128 0x1
 3017 0136 13       		.uleb128 0x13
 3018 0137 00       		.byte	0
 3019 0138 00       		.byte	0
 3020 0139 1C       		.uleb128 0x1c
 3021 013a 17       		.uleb128 0x17
 3022 013b 01       		.byte	0x1
 3023 013c 0B       		.uleb128 0xb
 3024 013d 0B       		.uleb128 0xb
 3025 013e 3A       		.uleb128 0x3a
 3026 013f 0B       		.uleb128 0xb
 3027 0140 3B       		.uleb128 0x3b
 3028 0141 05       		.uleb128 0x5
 3029 0142 01       		.uleb128 0x1
 3030 0143 13       		.uleb128 0x13
 3031 0144 00       		.byte	0
 3032 0145 00       		.byte	0
 3033 0146 1D       		.uleb128 0x1d
 3034 0147 13       		.uleb128 0x13
 3035 0148 01       		.byte	0x1
 3036 0149 0B       		.uleb128 0xb
 3037 014a 0B       		.uleb128 0xb
 3038 014b 3A       		.uleb128 0x3a
 3039 014c 0B       		.uleb128 0xb
 3040 014d 3B       		.uleb128 0x3b
 3041 014e 05       		.uleb128 0x5
 3042 014f 01       		.uleb128 0x1
 3043 0150 13       		.uleb128 0x13
 3044 0151 00       		.byte	0
 3045 0152 00       		.byte	0
 3046 0153 1E       		.uleb128 0x1e
 3047 0154 0D       		.uleb128 0xd
 3048 0155 00       		.byte	0
 3049 0156 03       		.uleb128 0x3
 3050 0157 0E       		.uleb128 0xe
 3051 0158 3A       		.uleb128 0x3a
 3052 0159 0B       		.uleb128 0xb
 3053 015a 3B       		.uleb128 0x3b
 3054 015b 05       		.uleb128 0x5
 3055 015c 49       		.uleb128 0x49
 3056 015d 13       		.uleb128 0x13
 3057 015e 38       		.uleb128 0x38
 3058 015f 0B       		.uleb128 0xb
 3059 0160 00       		.byte	0
 3060 0161 00       		.byte	0
 3061 0162 1F       		.uleb128 0x1f
 3062 0163 0D       		.uleb128 0xd
 3063 0164 00       		.byte	0
 3064 0165 03       		.uleb128 0x3
 3065 0166 0E       		.uleb128 0xe
 3066 0167 3A       		.uleb128 0x3a
 3067 0168 0B       		.uleb128 0xb
 3068 0169 3B       		.uleb128 0x3b
 3069 016a 05       		.uleb128 0x5
 3070 016b 49       		.uleb128 0x49
 3071 016c 13       		.uleb128 0x13
 3072 016d 00       		.byte	0
ARM GAS  /tmp/ccRd8DKP.s 			page 55


 3073 016e 00       		.byte	0
 3074 016f 20       		.uleb128 0x20
 3075 0170 0D       		.uleb128 0xd
 3076 0171 00       		.byte	0
 3077 0172 03       		.uleb128 0x3
 3078 0173 0E       		.uleb128 0xe
 3079 0174 3A       		.uleb128 0x3a
 3080 0175 0B       		.uleb128 0xb
 3081 0176 3B       		.uleb128 0x3b
 3082 0177 05       		.uleb128 0x5
 3083 0178 49       		.uleb128 0x49
 3084 0179 13       		.uleb128 0x13
 3085 017a 38       		.uleb128 0x38
 3086 017b 05       		.uleb128 0x5
 3087 017c 00       		.byte	0
 3088 017d 00       		.byte	0
 3089 017e 21       		.uleb128 0x21
 3090 017f 13       		.uleb128 0x13
 3091 0180 01       		.byte	0x1
 3092 0181 03       		.uleb128 0x3
 3093 0182 0E       		.uleb128 0xe
 3094 0183 0B       		.uleb128 0xb
 3095 0184 0B       		.uleb128 0xb
 3096 0185 3A       		.uleb128 0x3a
 3097 0186 0B       		.uleb128 0xb
 3098 0187 3B       		.uleb128 0x3b
 3099 0188 05       		.uleb128 0x5
 3100 0189 01       		.uleb128 0x1
 3101 018a 13       		.uleb128 0x13
 3102 018b 00       		.byte	0
 3103 018c 00       		.byte	0
 3104 018d 22       		.uleb128 0x22
 3105 018e 15       		.uleb128 0x15
 3106 018f 01       		.byte	0x1
 3107 0190 01       		.uleb128 0x1
 3108 0191 13       		.uleb128 0x13
 3109 0192 00       		.byte	0
 3110 0193 00       		.byte	0
 3111 0194 23       		.uleb128 0x23
 3112 0195 34       		.uleb128 0x34
 3113 0196 00       		.byte	0
 3114 0197 03       		.uleb128 0x3
 3115 0198 0E       		.uleb128 0xe
 3116 0199 3A       		.uleb128 0x3a
 3117 019a 0B       		.uleb128 0xb
 3118 019b 3B       		.uleb128 0x3b
 3119 019c 05       		.uleb128 0x5
 3120 019d 49       		.uleb128 0x49
 3121 019e 13       		.uleb128 0x13
 3122 019f 3F       		.uleb128 0x3f
 3123 01a0 19       		.uleb128 0x19
 3124 01a1 3C       		.uleb128 0x3c
 3125 01a2 19       		.uleb128 0x19
 3126 01a3 00       		.byte	0
 3127 01a4 00       		.byte	0
 3128 01a5 24       		.uleb128 0x24
 3129 01a6 21       		.uleb128 0x21
ARM GAS  /tmp/ccRd8DKP.s 			page 56


 3130 01a7 00       		.byte	0
 3131 01a8 00       		.byte	0
 3132 01a9 00       		.byte	0
 3133 01aa 25       		.uleb128 0x25
 3134 01ab 0D       		.uleb128 0xd
 3135 01ac 00       		.byte	0
 3136 01ad 03       		.uleb128 0x3
 3137 01ae 08       		.uleb128 0x8
 3138 01af 3A       		.uleb128 0x3a
 3139 01b0 0B       		.uleb128 0xb
 3140 01b1 3B       		.uleb128 0x3b
 3141 01b2 05       		.uleb128 0x5
 3142 01b3 49       		.uleb128 0x49
 3143 01b4 13       		.uleb128 0x13
 3144 01b5 38       		.uleb128 0x38
 3145 01b6 0B       		.uleb128 0xb
 3146 01b7 00       		.byte	0
 3147 01b8 00       		.byte	0
 3148 01b9 26       		.uleb128 0x26
 3149 01ba 04       		.uleb128 0x4
 3150 01bb 01       		.byte	0x1
 3151 01bc 0B       		.uleb128 0xb
 3152 01bd 0B       		.uleb128 0xb
 3153 01be 49       		.uleb128 0x49
 3154 01bf 13       		.uleb128 0x13
 3155 01c0 3A       		.uleb128 0x3a
 3156 01c1 0B       		.uleb128 0xb
 3157 01c2 3B       		.uleb128 0x3b
 3158 01c3 0B       		.uleb128 0xb
 3159 01c4 6E       		.uleb128 0x6e
 3160 01c5 0E       		.uleb128 0xe
 3161 01c6 01       		.uleb128 0x1
 3162 01c7 13       		.uleb128 0x13
 3163 01c8 00       		.byte	0
 3164 01c9 00       		.byte	0
 3165 01ca 27       		.uleb128 0x27
 3166 01cb 28       		.uleb128 0x28
 3167 01cc 00       		.byte	0
 3168 01cd 03       		.uleb128 0x3
 3169 01ce 0E       		.uleb128 0xe
 3170 01cf 1C       		.uleb128 0x1c
 3171 01d0 0B       		.uleb128 0xb
 3172 01d1 00       		.byte	0
 3173 01d2 00       		.byte	0
 3174 01d3 28       		.uleb128 0x28
 3175 01d4 28       		.uleb128 0x28
 3176 01d5 00       		.byte	0
 3177 01d6 03       		.uleb128 0x3
 3178 01d7 08       		.uleb128 0x8
 3179 01d8 1C       		.uleb128 0x1c
 3180 01d9 0B       		.uleb128 0xb
 3181 01da 00       		.byte	0
 3182 01db 00       		.byte	0
 3183 01dc 29       		.uleb128 0x29
 3184 01dd 34       		.uleb128 0x34
 3185 01de 00       		.byte	0
 3186 01df 03       		.uleb128 0x3
ARM GAS  /tmp/ccRd8DKP.s 			page 57


 3187 01e0 08       		.uleb128 0x8
 3188 01e1 3A       		.uleb128 0x3a
 3189 01e2 0B       		.uleb128 0xb
 3190 01e3 3B       		.uleb128 0x3b
 3191 01e4 05       		.uleb128 0x5
 3192 01e5 49       		.uleb128 0x49
 3193 01e6 13       		.uleb128 0x13
 3194 01e7 3F       		.uleb128 0x3f
 3195 01e8 19       		.uleb128 0x19
 3196 01e9 3C       		.uleb128 0x3c
 3197 01ea 19       		.uleb128 0x19
 3198 01eb 00       		.byte	0
 3199 01ec 00       		.byte	0
 3200 01ed 2A       		.uleb128 0x2a
 3201 01ee 34       		.uleb128 0x34
 3202 01ef 00       		.byte	0
 3203 01f0 03       		.uleb128 0x3
 3204 01f1 0E       		.uleb128 0xe
 3205 01f2 3A       		.uleb128 0x3a
 3206 01f3 0B       		.uleb128 0xb
 3207 01f4 3B       		.uleb128 0x3b
 3208 01f5 0B       		.uleb128 0xb
 3209 01f6 49       		.uleb128 0x49
 3210 01f7 13       		.uleb128 0x13
 3211 01f8 3F       		.uleb128 0x3f
 3212 01f9 19       		.uleb128 0x19
 3213 01fa 02       		.uleb128 0x2
 3214 01fb 18       		.uleb128 0x18
 3215 01fc 00       		.byte	0
 3216 01fd 00       		.byte	0
 3217 01fe 2B       		.uleb128 0x2b
 3218 01ff 2E       		.uleb128 0x2e
 3219 0200 00       		.byte	0
 3220 0201 3F       		.uleb128 0x3f
 3221 0202 19       		.uleb128 0x19
 3222 0203 03       		.uleb128 0x3
 3223 0204 0E       		.uleb128 0xe
 3224 0205 3A       		.uleb128 0x3a
 3225 0206 0B       		.uleb128 0xb
 3226 0207 3B       		.uleb128 0x3b
 3227 0208 0B       		.uleb128 0xb
 3228 0209 11       		.uleb128 0x11
 3229 020a 01       		.uleb128 0x1
 3230 020b 12       		.uleb128 0x12
 3231 020c 06       		.uleb128 0x6
 3232 020d 40       		.uleb128 0x40
 3233 020e 18       		.uleb128 0x18
 3234 020f 9642     		.uleb128 0x2116
 3235 0211 19       		.uleb128 0x19
 3236 0212 00       		.byte	0
 3237 0213 00       		.byte	0
 3238 0214 2C       		.uleb128 0x2c
 3239 0215 2E       		.uleb128 0x2e
 3240 0216 00       		.byte	0
 3241 0217 3F       		.uleb128 0x3f
 3242 0218 19       		.uleb128 0x19
 3243 0219 03       		.uleb128 0x3
ARM GAS  /tmp/ccRd8DKP.s 			page 58


 3244 021a 0E       		.uleb128 0xe
 3245 021b 3A       		.uleb128 0x3a
 3246 021c 0B       		.uleb128 0xb
 3247 021d 3B       		.uleb128 0x3b
 3248 021e 0B       		.uleb128 0xb
 3249 021f 11       		.uleb128 0x11
 3250 0220 01       		.uleb128 0x1
 3251 0221 12       		.uleb128 0x12
 3252 0222 06       		.uleb128 0x6
 3253 0223 40       		.uleb128 0x40
 3254 0224 18       		.uleb128 0x18
 3255 0225 9742     		.uleb128 0x2117
 3256 0227 19       		.uleb128 0x19
 3257 0228 00       		.byte	0
 3258 0229 00       		.byte	0
 3259 022a 2D       		.uleb128 0x2d
 3260 022b 2E       		.uleb128 0x2e
 3261 022c 01       		.byte	0x1
 3262 022d 3F       		.uleb128 0x3f
 3263 022e 19       		.uleb128 0x19
 3264 022f 03       		.uleb128 0x3
 3265 0230 0E       		.uleb128 0xe
 3266 0231 3A       		.uleb128 0x3a
 3267 0232 0B       		.uleb128 0xb
 3268 0233 3B       		.uleb128 0x3b
 3269 0234 0B       		.uleb128 0xb
 3270 0235 49       		.uleb128 0x49
 3271 0236 13       		.uleb128 0x13
 3272 0237 11       		.uleb128 0x11
 3273 0238 01       		.uleb128 0x1
 3274 0239 12       		.uleb128 0x12
 3275 023a 06       		.uleb128 0x6
 3276 023b 40       		.uleb128 0x40
 3277 023c 18       		.uleb128 0x18
 3278 023d 9742     		.uleb128 0x2117
 3279 023f 19       		.uleb128 0x19
 3280 0240 01       		.uleb128 0x1
 3281 0241 13       		.uleb128 0x13
 3282 0242 00       		.byte	0
 3283 0243 00       		.byte	0
 3284 0244 2E       		.uleb128 0x2e
 3285 0245 05       		.uleb128 0x5
 3286 0246 00       		.byte	0
 3287 0247 03       		.uleb128 0x3
 3288 0248 08       		.uleb128 0x8
 3289 0249 3A       		.uleb128 0x3a
 3290 024a 0B       		.uleb128 0xb
 3291 024b 3B       		.uleb128 0x3b
 3292 024c 0B       		.uleb128 0xb
 3293 024d 49       		.uleb128 0x49
 3294 024e 13       		.uleb128 0x13
 3295 024f 02       		.uleb128 0x2
 3296 0250 18       		.uleb128 0x18
 3297 0251 00       		.byte	0
 3298 0252 00       		.byte	0
 3299 0253 2F       		.uleb128 0x2f
 3300 0254 2E       		.uleb128 0x2e
ARM GAS  /tmp/ccRd8DKP.s 			page 59


 3301 0255 01       		.byte	0x1
 3302 0256 3F       		.uleb128 0x3f
 3303 0257 19       		.uleb128 0x19
 3304 0258 03       		.uleb128 0x3
 3305 0259 0E       		.uleb128 0xe
 3306 025a 3A       		.uleb128 0x3a
 3307 025b 0B       		.uleb128 0xb
 3308 025c 3B       		.uleb128 0x3b
 3309 025d 0B       		.uleb128 0xb
 3310 025e 8701     		.uleb128 0x87
 3311 0260 19       		.uleb128 0x19
 3312 0261 11       		.uleb128 0x11
 3313 0262 01       		.uleb128 0x1
 3314 0263 12       		.uleb128 0x12
 3315 0264 06       		.uleb128 0x6
 3316 0265 40       		.uleb128 0x40
 3317 0266 18       		.uleb128 0x18
 3318 0267 9642     		.uleb128 0x2116
 3319 0269 19       		.uleb128 0x19
 3320 026a 01       		.uleb128 0x1
 3321 026b 13       		.uleb128 0x13
 3322 026c 00       		.byte	0
 3323 026d 00       		.byte	0
 3324 026e 30       		.uleb128 0x30
 3325 026f 05       		.uleb128 0x5
 3326 0270 00       		.byte	0
 3327 0271 03       		.uleb128 0x3
 3328 0272 0E       		.uleb128 0xe
 3329 0273 3A       		.uleb128 0x3a
 3330 0274 0B       		.uleb128 0xb
 3331 0275 3B       		.uleb128 0x3b
 3332 0276 0B       		.uleb128 0xb
 3333 0277 49       		.uleb128 0x49
 3334 0278 13       		.uleb128 0x13
 3335 0279 02       		.uleb128 0x2
 3336 027a 18       		.uleb128 0x18
 3337 027b 00       		.byte	0
 3338 027c 00       		.byte	0
 3339 027d 31       		.uleb128 0x31
 3340 027e 2E       		.uleb128 0x2e
 3341 027f 01       		.byte	0x1
 3342 0280 03       		.uleb128 0x3
 3343 0281 0E       		.uleb128 0xe
 3344 0282 3A       		.uleb128 0x3a
 3345 0283 0B       		.uleb128 0xb
 3346 0284 3B       		.uleb128 0x3b
 3347 0285 05       		.uleb128 0x5
 3348 0286 11       		.uleb128 0x11
 3349 0287 01       		.uleb128 0x1
 3350 0288 12       		.uleb128 0x12
 3351 0289 06       		.uleb128 0x6
 3352 028a 40       		.uleb128 0x40
 3353 028b 18       		.uleb128 0x18
 3354 028c 9642     		.uleb128 0x2116
 3355 028e 19       		.uleb128 0x19
 3356 028f 00       		.byte	0
 3357 0290 00       		.byte	0
ARM GAS  /tmp/ccRd8DKP.s 			page 60


 3358 0291 32       		.uleb128 0x32
 3359 0292 05       		.uleb128 0x5
 3360 0293 00       		.byte	0
 3361 0294 03       		.uleb128 0x3
 3362 0295 0E       		.uleb128 0xe
 3363 0296 3A       		.uleb128 0x3a
 3364 0297 0B       		.uleb128 0xb
 3365 0298 3B       		.uleb128 0x3b
 3366 0299 05       		.uleb128 0x5
 3367 029a 49       		.uleb128 0x49
 3368 029b 13       		.uleb128 0x13
 3369 029c 02       		.uleb128 0x2
 3370 029d 18       		.uleb128 0x18
 3371 029e 00       		.byte	0
 3372 029f 00       		.byte	0
 3373 02a0 00       		.byte	0
 3374              		.section	.debug_aranges,"",%progbits
 3375 0000 3C000000 		.4byte	0x3c
 3376 0004 0200     		.2byte	0x2
 3377 0006 00000000 		.4byte	.Ldebug_info0
 3378 000a 04       		.byte	0x4
 3379 000b 00       		.byte	0
 3380 000c 0000     		.2byte	0
 3381 000e 0000     		.2byte	0
 3382 0010 00000000 		.4byte	.LFB291
 3383 0014 14000000 		.4byte	.LFE291-.LFB291
 3384 0018 00000000 		.4byte	.LFB323
 3385 001c 14000000 		.4byte	.LFE323-.LFB323
 3386 0020 00000000 		.4byte	.LFB324
 3387 0024 1C000000 		.4byte	.LFE324-.LFB324
 3388 0028 00000000 		.4byte	.LFB325
 3389 002c 04000000 		.4byte	.LFE325-.LFB325
 3390 0030 00000000 		.4byte	.LFB326
 3391 0034 10000000 		.4byte	.LFE326-.LFB326
 3392 0038 00000000 		.4byte	0
 3393 003c 00000000 		.4byte	0
 3394              		.section	.debug_ranges,"",%progbits
 3395              	.Ldebug_ranges0:
 3396 0000 00000000 		.4byte	.LFB291
 3397 0004 14000000 		.4byte	.LFE291
 3398 0008 00000000 		.4byte	.LFB323
 3399 000c 14000000 		.4byte	.LFE323
 3400 0010 00000000 		.4byte	.LFB324
 3401 0014 1C000000 		.4byte	.LFE324
 3402 0018 00000000 		.4byte	.LFB325
 3403 001c 04000000 		.4byte	.LFE325
 3404 0020 00000000 		.4byte	.LFB326
 3405 0024 10000000 		.4byte	.LFE326
 3406 0028 00000000 		.4byte	0
 3407 002c 00000000 		.4byte	0
 3408              		.section	.debug_line,"",%progbits
 3409              	.Ldebug_line0:
 3410 0000 8B040000 		.section	.debug_str,"MS",%progbits,1
 3410      02002204 
 3410      00000201 
 3410      FB0E0D00 
 3410      01010101 
ARM GAS  /tmp/ccRd8DKP.s 			page 61


 3411              	.LASF238:
 3412 0000 6F66665F 		.ascii	"off_ctx\000"
 3412      63747800 
 3413              	.LASF21:
 3414 0008 73697A65 		.ascii	"size_t\000"
 3414      5F7400
 3415              	.LASF237:
 3416 000f 6F66665F 		.ascii	"off_prio\000"
 3416      7072696F 
 3416      00
 3417              	.LASF33:
 3418 0018 73697A65 		.ascii	"sizetype\000"
 3418      74797065 
 3418      00
 3419              	.LASF134:
 3420 0021 5F5F6C6F 		.ascii	"__locale_t\000"
 3420      63616C65 
 3420      5F7400
 3421              	.LASF32:
 3422 002c 5F5F7661 		.ascii	"__value\000"
 3422      6C756500 
 3423              	.LASF200:
 3424 0034 73797374 		.ascii	"systime_t\000"
 3424      696D655F 
 3424      7400
 3425              	.LASF246:
 3426 003e 6F66665F 		.ascii	"off_preempt\000"
 3426      70726565 
 3426      6D707400 
 3427              	.LASF124:
 3428 004a 5F5F7366 		.ascii	"__sf\000"
 3428      00
 3429              	.LASF227:
 3430 004f 6F776E65 		.ascii	"owner\000"
 3430      7200
 3431              	.LASF69:
 3432 0055 5F726561 		.ascii	"_read\000"
 3432      6400
 3433              	.LASF144:
 3434 005b 74707269 		.ascii	"tprio_t\000"
 3434      6F5F7400 
 3435              	.LASF249:
 3436 0063 63685F64 		.ascii	"ch_debug\000"
 3436      65627567 
 3436      00
 3437              	.LASF213:
 3438 006c 31314572 		.ascii	"11ErrorStatus\000"
 3438      726F7253 
 3438      74617475 
 3438      7300
 3439              	.LASF262:
 3440 007a 70726F76 		.ascii	"provider\000"
 3440      69646572 
 3440      00
 3441              	.LASF70:
 3442 0083 5F777269 		.ascii	"_write\000"
 3442      746500
ARM GAS  /tmp/ccRd8DKP.s 			page 62


 3443              	.LASF18:
 3444 008a 696E7433 		.ascii	"int32_t\000"
 3444      325F7400 
 3445              	.LASF84:
 3446 0092 5F617363 		.ascii	"_asctime_buf\000"
 3446      74696D65 
 3446      5F627566 
 3446      00
 3447              	.LASF118:
 3448 009f 5F637674 		.ascii	"_cvtlen\000"
 3448      6C656E00 
 3449              	.LASF184:
 3450 00a7 76746675 		.ascii	"vtfunc_t\000"
 3450      6E635F74 
 3450      00
 3451              	.LASF190:
 3452 00b0 63685F76 		.ascii	"ch_virtual_timers_list\000"
 3452      69727475 
 3452      616C5F74 
 3452      696D6572 
 3452      735F6C69 
 3453              	.LASF103:
 3454 00c7 5F756E75 		.ascii	"_unused\000"
 3454      73656400 
 3455              	.LASF43:
 3456 00cf 5F5F746D 		.ascii	"__tm\000"
 3456      00
 3457              	.LASF99:
 3458 00d4 5F776373 		.ascii	"_wcsrtombs_state\000"
 3458      72746F6D 
 3458      62735F73 
 3458      74617465 
 3458      00
 3459              	.LASF74:
 3460 00e5 5F6E6275 		.ascii	"_nbuf\000"
 3460      6600
 3461              	.LASF44:
 3462 00eb 5F5F746D 		.ascii	"__tm_sec\000"
 3462      5F736563 
 3462      00
 3463              	.LASF92:
 3464 00f4 5F6C3634 		.ascii	"_l64a_buf\000"
 3464      615F6275 
 3464      6600
 3465              	.LASF264:
 3466 00fe 63685F64 		.ascii	"ch_dyn_element\000"
 3466      796E5F65 
 3466      6C656D65 
 3466      6E7400
 3467              	.LASF63:
 3468 010d 5F73697A 		.ascii	"_size\000"
 3468      6500
 3469              	.LASF165:
 3470 0113 73746174 		.ascii	"state\000"
 3470      6500
 3471              	.LASF78:
 3472 0119 5F6C6F63 		.ascii	"_lock\000"
ARM GAS  /tmp/ccRd8DKP.s 			page 63


 3472      6B00
 3473              	.LASF131:
 3474 011f 5F6D756C 		.ascii	"_mult\000"
 3474      7400
 3475              	.LASF269:
 3476 0125 6F626A5F 		.ascii	"obj_list\000"
 3476      6C697374 
 3476      00
 3477              	.LASF240:
 3478 012e 6F66665F 		.ascii	"off_older\000"
 3478      6F6C6465 
 3478      7200
 3479              	.LASF286:
 3480 0138 474E5520 		.ascii	"GNU C++11 6.3.1 20170620 (release) [ARM/embedded-6-"
 3480      432B2B31 
 3480      3120362E 
 3480      332E3120 
 3480      32303137 
 3481 016b 6272616E 		.ascii	"branch revision 249437] -mcpu=cortex-m4 -mfloat-abi"
 3481      63682072 
 3481      65766973 
 3481      696F6E20 
 3481      32343934 
 3482 019e 3D686172 		.ascii	"=hard -mfpu=fpv4-sp-d16 -mno-thumb-interwork -mthum"
 3482      64202D6D 
 3482      6670753D 
 3482      66707634 
 3482      2D73702D 
 3483 01d1 62202D67 		.ascii	"b -g -std=gnu++11 -fomit-frame-pointer -falign-func"
 3483      202D7374 
 3483      643D676E 
 3483      752B2B31 
 3483      31202D66 
 3484 0204 74696F6E 		.ascii	"tions=16 -ffunction-sections -fdata-sections -fno-c"
 3484      733D3136 
 3484      202D6666 
 3484      756E6374 
 3484      696F6E2D 
 3485 0237 6F6D6D6F 		.ascii	"ommon -fsingle-precision-constant -fno-rtti\000"
 3485      6E202D66 
 3485      73696E67 
 3485      6C652D70 
 3485      72656369 
 3486              	.LASF29:
 3487 0263 5F5F7763 		.ascii	"__wch\000"
 3487      6800
 3488              	.LASF152:
 3489 0269 65786974 		.ascii	"exitcode\000"
 3489      636F6465 
 3489      00
 3490              	.LASF281:
 3491 0272 5F6F7065 		.ascii	"_open_r\000"
 3491      6E5F7200 
 3492              	.LASF2:
 3493 027a 5F5F7569 		.ascii	"__uint8_t\000"
 3493      6E74385F 
 3493      7400
ARM GAS  /tmp/ccRd8DKP.s 			page 64


 3494              	.LASF66:
 3495 0284 5F66696C 		.ascii	"_file\000"
 3495      6500
 3496              	.LASF53:
 3497 028a 5F6F6E5F 		.ascii	"_on_exit_args\000"
 3497      65786974 
 3497      5F617267 
 3497      7300
 3498              	.LASF139:
 3499 0298 5F737973 		.ascii	"_sys_nerr\000"
 3499      5F6E6572 
 3499      7200
 3500              	.LASF255:
 3501 02a2 656E646D 		.ascii	"endmem\000"
 3501      656D00
 3502              	.LASF279:
 3503 02a9 6572726E 		.ascii	"errno\000"
 3503      6F00
 3504              	.LASF95:
 3505 02af 5F6D6272 		.ascii	"_mbrlen_state\000"
 3505      6C656E5F 
 3505      73746174 
 3505      6500
 3506              	.LASF9:
 3507 02bd 6C6F6E67 		.ascii	"long int\000"
 3507      20696E74 
 3507      00
 3508              	.LASF136:
 3509 02c6 5F696D70 		.ascii	"_impure_ptr\000"
 3509      7572655F 
 3509      70747200 
 3510              	.LASF115:
 3511 02d2 5F726573 		.ascii	"_result_k\000"
 3511      756C745F 
 3511      6B00
 3512              	.LASF221:
 3513 02dc 31305F6D 		.ascii	"10_mbstate_t\000"
 3513      62737461 
 3513      74655F74 
 3513      00
 3514              	.LASF231:
 3515 02e9 7A65726F 		.ascii	"zero\000"
 3515      00
 3516              	.LASF85:
 3517 02ee 5F6C6F63 		.ascii	"_localtime_buf\000"
 3517      616C7469 
 3517      6D655F62 
 3517      756600
 3518              	.LASF142:
 3519 02fd 74737461 		.ascii	"tstate_t\000"
 3519      74655F74 
 3519      00
 3520              	.LASF170:
 3521 0306 6570656E 		.ascii	"epending\000"
 3521      64696E67 
 3521      00
 3522              	.LASF178:
ARM GAS  /tmp/ccRd8DKP.s 			page 65


 3523 030f 74687265 		.ascii	"threads_queue_t\000"
 3523      6164735F 
 3523      71756575 
 3523      655F7400 
 3524              	.LASF217:
 3525 031f 72656761 		.ascii	"regarm_t\000"
 3525      726D5F74 
 3525      00
 3526              	.LASF208:
 3527 0328 3130466C 		.ascii	"10FlagStatus\000"
 3527      61675374 
 3527      61747573 
 3527      00
 3528              	.LASF48:
 3529 0335 5F5F746D 		.ascii	"__tm_mon\000"
 3529      5F6D6F6E 
 3529      00
 3530              	.LASF270:
 3531 033e 6F626A5F 		.ascii	"obj_pool\000"
 3531      706F6F6C 
 3531      00
 3532              	.LASF82:
 3533 0347 5F756E75 		.ascii	"_unused_rand\000"
 3533      7365645F 
 3533      72616E64 
 3533      00
 3534              	.LASF256:
 3535 0354 6D656D63 		.ascii	"memcore_t\000"
 3535      6F72655F 
 3535      7400
 3536              	.LASF3:
 3537 035e 7369676E 		.ascii	"signed char\000"
 3537      65642063 
 3537      68617200 
 3538              	.LASF158:
 3539 036a 65776D61 		.ascii	"ewmask\000"
 3539      736B00
 3540              	.LASF16:
 3541 0371 75696E74 		.ascii	"uint8_t\000"
 3541      385F7400 
 3542              	.LASF146:
 3543 0379 6576656E 		.ascii	"eventmask_t\000"
 3543      746D6173 
 3543      6B5F7400 
 3544              	.LASF154:
 3545 0385 77747472 		.ascii	"wttrp\000"
 3545      7000
 3546              	.LASF4:
 3547 038b 756E7369 		.ascii	"unsigned char\000"
 3547      676E6564 
 3547      20636861 
 3547      7200
 3548              	.LASF160:
 3549 0399 7072696F 		.ascii	"prio\000"
 3549      00
 3550              	.LASF191:
 3551 039e 6C617374 		.ascii	"lasttime\000"
ARM GAS  /tmp/ccRd8DKP.s 			page 66


 3551      74696D65 
 3551      00
 3552              	.LASF194:
 3553 03a7 70616E69 		.ascii	"panic_msg\000"
 3553      635F6D73 
 3553      6700
 3554              	.LASF110:
 3555 03b1 5F756E73 		.ascii	"_unspecified_locale_info\000"
 3555      70656369 
 3555      66696564 
 3555      5F6C6F63 
 3555      616C655F 
 3556              	.LASF81:
 3557 03ca 5F726565 		.ascii	"_reent\000"
 3557      6E7400
 3558              	.LASF209:
 3559 03d1 31354675 		.ascii	"15FunctionalState\000"
 3559      6E637469 
 3559      6F6E616C 
 3559      53746174 
 3559      6500
 3560              	.LASF137:
 3561 03e3 5F676C6F 		.ascii	"_global_impure_ptr\000"
 3561      62616C5F 
 3561      696D7075 
 3561      72655F70 
 3561      747200
 3562              	.LASF192:
 3563 03f6 73797374 		.ascii	"system_debug_t\000"
 3563      656D5F64 
 3563      65627567 
 3563      5F7400
 3564              	.LASF0:
 3565 0405 5F5F676E 		.ascii	"__gnuc_va_list\000"
 3565      75635F76 
 3565      615F6C69 
 3565      737400
 3566              	.LASF259:
 3567 0414 31336D65 		.ascii	"13memory_pool_t\000"
 3567      6D6F7279 
 3567      5F706F6F 
 3567      6C5F7400 
 3568              	.LASF23:
 3569 0424 63686172 		.ascii	"char\000"
 3569      00
 3570              	.LASF60:
 3571 0429 5F666E73 		.ascii	"_fns\000"
 3571      00
 3572              	.LASF72:
 3573 042e 5F636C6F 		.ascii	"_close\000"
 3573      736500
 3574              	.LASF272:
 3575 0435 73656D5F 		.ascii	"sem_list\000"
 3575      6C697374 
 3575      00
 3576              	.LASF6:
 3577 043e 5F5F7569 		.ascii	"__uint16_t\000"
ARM GAS  /tmp/ccRd8DKP.s 			page 67


 3577      6E743136 
 3577      5F7400
 3578              	.LASF153:
 3579 0449 77746F62 		.ascii	"wtobjp\000"
 3579      6A7000
 3580              	.LASF105:
 3581 0450 5F737464 		.ascii	"_stdin\000"
 3581      696E00
 3582              	.LASF166:
 3583 0457 666C6167 		.ascii	"flags\000"
 3583      7300
 3584              	.LASF289:
 3585 045d 6465636C 		.ascii	"decltype(nullptr)\000"
 3585      74797065 
 3585      286E756C 
 3585      6C707472 
 3585      2900
 3586              	.LASF218:
 3587 046f 73746B61 		.ascii	"stkalign_t\000"
 3587      6C69676E 
 3587      5F7400
 3588              	.LASF173:
 3589 047a 6D706F6F 		.ascii	"mpool\000"
 3589      6C00
 3590              	.LASF234:
 3591 0480 70747273 		.ascii	"ptrsize\000"
 3591      697A6500 
 3592              	.LASF247:
 3593 0488 6F66665F 		.ascii	"off_time\000"
 3593      74696D65 
 3593      00
 3594              	.LASF147:
 3595 0491 636E745F 		.ascii	"cnt_t\000"
 3595      7400
 3596              	.LASF68:
 3597 0497 5F636F6F 		.ascii	"_cookie\000"
 3597      6B696500 
 3598              	.LASF157:
 3599 049f 77746D74 		.ascii	"wtmtxp\000"
 3599      787000
 3600              	.LASF42:
 3601 04a6 5F776473 		.ascii	"_wds\000"
 3601      00
 3602              	.LASF182:
 3603 04ab 63685F72 		.ascii	"ch_ready_list\000"
 3603      65616479 
 3603      5F6C6973 
 3603      7400
 3604              	.LASF133:
 3605 04b9 5F5F6C6F 		.ascii	"__lock\000"
 3605      636B00
 3606              	.LASF122:
 3607 04c0 5F736967 		.ascii	"_sig_func\000"
 3607      5F66756E 
 3607      6300
 3608              	.LASF273:
 3609 04ca 73656D5F 		.ascii	"sem_pool\000"
ARM GAS  /tmp/ccRd8DKP.s 			page 68


 3609      706F6F6C 
 3609      00
 3610              	.LASF76:
 3611 04d3 5F6F6666 		.ascii	"_offset\000"
 3611      73657400 
 3612              	.LASF119:
 3613 04db 5F637674 		.ascii	"_cvtbuf\000"
 3613      62756600 
 3614              	.LASF254:
 3615 04e3 6E657874 		.ascii	"nextmem\000"
 3615      6D656D00 
 3616              	.LASF13:
 3617 04eb 5F5F7569 		.ascii	"__uint64_t\000"
 3617      6E743634 
 3617      5F7400
 3618              	.LASF243:
 3619 04f6 6F66665F 		.ascii	"off_state\000"
 3619      73746174 
 3619      6500
 3620              	.LASF116:
 3621 0500 5F703573 		.ascii	"_p5s\000"
 3621      00
 3622              	.LASF11:
 3623 0505 6C6F6E67 		.ascii	"long unsigned int\000"
 3623      20756E73 
 3623      69676E65 
 3623      6420696E 
 3623      7400
 3624              	.LASF236:
 3625 0517 74687265 		.ascii	"threadsize\000"
 3625      61647369 
 3625      7A6500
 3626              	.LASF37:
 3627 0522 5F5F7661 		.ascii	"__va_list\000"
 3627      5F6C6973 
 3627      7400
 3628              	.LASF64:
 3629 052c 5F5F7346 		.ascii	"__sFILE\000"
 3629      494C4500 
 3630              	.LASF112:
 3631 0534 5F5F7364 		.ascii	"__sdidinit\000"
 3631      6964696E 
 3631      697400
 3632              	.LASF80:
 3633 053f 5F666C61 		.ascii	"_flags2\000"
 3633      67733200 
 3634              	.LASF203:
 3635 0547 53797374 		.ascii	"SystemCoreClock\000"
 3635      656D436F 
 3635      7265436C 
 3635      6F636B00 
 3636              	.LASF225:
 3637 0557 63685F73 		.ascii	"ch_semaphore\000"
 3637      656D6170 
 3637      686F7265 
 3637      00
 3638              	.LASF150:
ARM GAS  /tmp/ccRd8DKP.s 			page 69


 3639 0564 63685F74 		.ascii	"ch_thread\000"
 3639      68726561 
 3639      6400
 3640              	.LASF28:
 3641 056e 5F5F6170 		.ascii	"__ap\000"
 3641      00
 3642              	.LASF189:
 3643 0573 76697274 		.ascii	"virtual_timers_list_t\000"
 3643      75616C5F 
 3643      74696D65 
 3643      72735F6C 
 3643      6973745F 
 3644              	.LASF228:
 3645 0589 63685F69 		.ascii	"ch_idle_thread_wa\000"
 3645      646C655F 
 3645      74687265 
 3645      61645F77 
 3645      6100
 3646              	.LASF104:
 3647 059b 5F657272 		.ascii	"_errno\000"
 3647      6E6F00
 3648              	.LASF275:
 3649 05a2 6669666F 		.ascii	"fifo_list\000"
 3649      5F6C6973 
 3649      7400
 3650              	.LASF185:
 3651 05ac 76697274 		.ascii	"virtual_timer_t\000"
 3651      75616C5F 
 3651      74696D65 
 3651      725F7400 
 3652              	.LASF181:
 3653 05bc 72656164 		.ascii	"ready_list_t\000"
 3653      795F6C69 
 3653      73745F74 
 3653      00
 3654              	.LASF162:
 3655 05c9 6F6C6465 		.ascii	"older\000"
 3655      7200
 3656              	.LASF93:
 3657 05cf 5F736967 		.ascii	"_signal_buf\000"
 3657      6E616C5F 
 3657      62756600 
 3658              	.LASF172:
 3659 05db 7265616C 		.ascii	"realprio\000"
 3659      7072696F 
 3659      00
 3660              	.LASF148:
 3661 05e4 75636E74 		.ascii	"ucnt_t\000"
 3661      5F7400
 3662              	.LASF214:
 3663 05eb 4552524F 		.ascii	"ERROR\000"
 3663      5200
 3664              	.LASF242:
 3665 05f1 6F66665F 		.ascii	"off_stklimit\000"
 3665      73746B6C 
 3665      696D6974 
 3665      00
ARM GAS  /tmp/ccRd8DKP.s 			page 70


 3666              	.LASF258:
 3667 05fe 706F6F6C 		.ascii	"pool_header\000"
 3667      5F686561 
 3667      64657200 
 3668              	.LASF38:
 3669 060a 5F426967 		.ascii	"_Bigint\000"
 3669      696E7400 
 3670              	.LASF176:
 3671 0612 63685F74 		.ascii	"ch_threads_list\000"
 3671      68726561 
 3671      64735F6C 
 3671      69737400 
 3672              	.LASF40:
 3673 0622 5F6D6178 		.ascii	"_maxwds\000"
 3673      77647300 
 3674              	.LASF290:
 3675 062a 6F73616C 		.ascii	"osalSysHalt\000"
 3675      53797348 
 3675      616C7400 
 3676              	.LASF113:
 3677 0636 5F5F636C 		.ascii	"__cleanup\000"
 3677      65616E75 
 3677      7000
 3678              	.LASF121:
 3679 0640 5F617465 		.ascii	"_atexit0\000"
 3679      78697430 
 3679      00
 3680              	.LASF280:
 3681 0649 5F5F6378 		.ascii	"__cxa_pure_virtual\000"
 3681      615F7075 
 3681      72655F76 
 3681      69727475 
 3681      616C00
 3682              	.LASF10:
 3683 065c 5F5F7569 		.ascii	"__uint32_t\000"
 3683      6E743332 
 3683      5F7400
 3684              	.LASF109:
 3685 0667 5F656D65 		.ascii	"_emergency\000"
 3685      7267656E 
 3685      637900
 3686              	.LASF171:
 3687 0672 6D74786C 		.ascii	"mtxlist\000"
 3687      69737400 
 3688              	.LASF12:
 3689 067a 6C6F6E67 		.ascii	"long long int\000"
 3689      206C6F6E 
 3689      6720696E 
 3689      7400
 3690              	.LASF1:
 3691 0688 76615F6C 		.ascii	"va_list\000"
 3691      69737400 
 3692              	.LASF201:
 3693 0690 73797369 		.ascii	"sysinterval_t\000"
 3693      6E746572 
 3693      76616C5F 
 3693      7400
ARM GAS  /tmp/ccRd8DKP.s 			page 71


 3694              	.LASF127:
 3695 069e 5F6E696F 		.ascii	"_niobs\000"
 3695      627300
 3696              	.LASF268:
 3697 06a5 63685F6F 		.ascii	"ch_objects_factory\000"
 3697      626A6563 
 3697      74735F66 
 3697      6163746F 
 3697      727900
 3698              	.LASF123:
 3699 06b8 5F5F7367 		.ascii	"__sglue\000"
 3699      6C756500 
 3700              	.LASF102:
 3701 06c0 5F6E6D61 		.ascii	"_nmalloc\000"
 3701      6C6C6F63 
 3701      00
 3702              	.LASF86:
 3703 06c9 5F67616D 		.ascii	"_gamma_signgam\000"
 3703      6D615F73 
 3703      69676E67 
 3703      616D00
 3704              	.LASF117:
 3705 06d8 5F667265 		.ascii	"_freelist\000"
 3705      656C6973 
 3705      7400
 3706              	.LASF128:
 3707 06e2 5F696F62 		.ascii	"_iobs\000"
 3707      7300
 3708              	.LASF261:
 3709 06e8 616C6967 		.ascii	"align\000"
 3709      6E00
 3710              	.LASF126:
 3711 06ee 5F676C75 		.ascii	"_glue\000"
 3711      6500
 3712              	.LASF202:
 3713 06f4 49544D5F 		.ascii	"ITM_RxBuffer\000"
 3713      52784275 
 3713      66666572 
 3713      00
 3714              	.LASF41:
 3715 0701 5F736967 		.ascii	"_sign\000"
 3715      6E00
 3716              	.LASF283:
 3717 0707 5F657869 		.ascii	"_exit\000"
 3717      7400
 3718              	.LASF239:
 3719 070d 6F66665F 		.ascii	"off_newer\000"
 3719      6E657765 
 3719      7200
 3720              	.LASF15:
 3721 0717 756E7369 		.ascii	"unsigned int\000"
 3721      676E6564 
 3721      20696E74 
 3721      00
 3722              	.LASF140:
 3723 0724 7274636E 		.ascii	"rtcnt_t\000"
 3723      745F7400 
ARM GAS  /tmp/ccRd8DKP.s 			page 72


 3724              	.LASF167:
 3725 072c 72656673 		.ascii	"refs\000"
 3725      00
 3726              	.LASF100:
 3727 0731 5F685F65 		.ascii	"_h_errno\000"
 3727      72726E6F 
 3727      00
 3728              	.LASF278:
 3729 073a 5F5F6473 		.ascii	"__dso_handle\000"
 3729      6F5F6861 
 3729      6E646C65 
 3729      00
 3730              	.LASF98:
 3731 0747 5F776372 		.ascii	"_wcrtomb_state\000"
 3731      746F6D62 
 3731      5F737461 
 3731      746500
 3732              	.LASF47:
 3733 0756 5F5F746D 		.ascii	"__tm_mday\000"
 3733      5F6D6461 
 3733      7900
 3734              	.LASF120:
 3735 0760 5F6E6577 		.ascii	"_new\000"
 3735      00
 3736              	.LASF73:
 3737 0765 5F756275 		.ascii	"_ubuf\000"
 3737      6600
 3738              	.LASF107:
 3739 076b 5F737464 		.ascii	"_stderr\000"
 3739      65727200 
 3740              	.LASF91:
 3741 0773 5F776374 		.ascii	"_wctomb_state\000"
 3741      6F6D625F 
 3741      73746174 
 3741      6500
 3742              	.LASF79:
 3743 0781 5F6D6273 		.ascii	"_mbstate\000"
 3743      74617465 
 3743      00
 3744              	.LASF183:
 3745 078a 63757272 		.ascii	"current\000"
 3745      656E7400 
 3746              	.LASF87:
 3747 0792 5F72616E 		.ascii	"_rand_next\000"
 3747      645F6E65 
 3747      787400
 3748              	.LASF65:
 3749 079d 5F666C61 		.ascii	"_flags\000"
 3749      677300
 3750              	.LASF223:
 3751 07a4 6F666673 		.ascii	"offset\000"
 3751      657400
 3752              	.LASF174:
 3753 07ab 74687265 		.ascii	"thread_reference_t\000"
 3753      61645F72 
 3753      65666572 
 3753      656E6365 
ARM GAS  /tmp/ccRd8DKP.s 			page 73


 3753      5F7400
 3754              	.LASF58:
 3755 07be 5F617465 		.ascii	"_atexit\000"
 3755      78697400 
 3756              	.LASF31:
 3757 07c6 5F5F636F 		.ascii	"__count\000"
 3757      756E7400 
 3758              	.LASF251:
 3759 07ce 626F6F6C 		.ascii	"bool\000"
 3759      00
 3760              	.LASF252:
 3761 07d3 6D656D67 		.ascii	"memgetfunc_t\000"
 3761      65746675 
 3761      6E635F74 
 3761      00
 3762              	.LASF50:
 3763 07e0 5F5F746D 		.ascii	"__tm_wday\000"
 3763      5F776461 
 3763      7900
 3764              	.LASF210:
 3765 07ea 44495341 		.ascii	"DISABLE\000"
 3765      424C4500 
 3766              	.LASF149:
 3767 07f2 74687265 		.ascii	"thread_t\000"
 3767      61645F74 
 3767      00
 3768              	.LASF22:
 3769 07fb 6C6F6E67 		.ascii	"long double\000"
 3769      20646F75 
 3769      626C6500 
 3770              	.LASF51:
 3771 0807 5F5F746D 		.ascii	"__tm_yday\000"
 3771      5F796461 
 3771      7900
 3772              	.LASF229:
 3773 0811 39636864 		.ascii	"9chdebug_t\000"
 3773      65627567 
 3773      5F7400
 3774              	.LASF155:
 3775 081c 73656E74 		.ascii	"sentmsg\000"
 3775      6D736700 
 3776              	.LASF220:
 3777 0824 706F7274 		.ascii	"port_intctx\000"
 3777      5F696E74 
 3777      63747800 
 3778              	.LASF276:
 3779 0830 6F626A65 		.ascii	"objects_factory_t\000"
 3779      6374735F 
 3779      66616374 
 3779      6F72795F 
 3779      7400
 3780              	.LASF282:
 3781 0842 5F6B696C 		.ascii	"_kill\000"
 3781      6C00
 3782              	.LASF130:
 3783 0848 5F736565 		.ascii	"_seed\000"
 3783      6400
ARM GAS  /tmp/ccRd8DKP.s 			page 74


 3784              	.LASF211:
 3785 084e 454E4142 		.ascii	"ENABLE\000"
 3785      4C4500
 3786              	.LASF271:
 3787 0855 6275665F 		.ascii	"buf_list\000"
 3787      6C697374 
 3787      00
 3788              	.LASF71:
 3789 085e 5F736565 		.ascii	"_seek\000"
 3789      6B00
 3790              	.LASF216:
 3791 0864 4572726F 		.ascii	"ErrorStatus\000"
 3791      72537461 
 3791      74757300 
 3792              	.LASF26:
 3793 0870 5F66706F 		.ascii	"_fpos_t\000"
 3793      735F7400 
 3794              	.LASF30:
 3795 0878 5F5F7763 		.ascii	"__wchb\000"
 3795      686200
 3796              	.LASF204:
 3797 087f 41484250 		.ascii	"AHBPrescTable\000"
 3797      72657363 
 3797      5461626C 
 3797      6500
 3798              	.LASF186:
 3799 088d 63685F76 		.ascii	"ch_virtual_timer\000"
 3799      69727475 
 3799      616C5F74 
 3799      696D6572 
 3799      00
 3800              	.LASF222:
 3801 089e 3136746D 		.ascii	"16tm_calibration_t\000"
 3801      5F63616C 
 3801      69627261 
 3801      74696F6E 
 3801      5F7400
 3802              	.LASF90:
 3803 08b1 5F6D6274 		.ascii	"_mbtowc_state\000"
 3803      6F77635F 
 3803      73746174 
 3803      6500
 3804              	.LASF212:
 3805 08bf 46756E63 		.ascii	"FunctionalState\000"
 3805      74696F6E 
 3805      616C5374 
 3805      61746500 
 3806              	.LASF232:
 3807 08cf 73697A65 		.ascii	"size\000"
 3807      00
 3808              	.LASF14:
 3809 08d4 6C6F6E67 		.ascii	"long long unsigned int\000"
 3809      206C6F6E 
 3809      6720756E 
 3809      7369676E 
 3809      65642069 
 3810              	.LASF288:
ARM GAS  /tmp/ccRd8DKP.s 			page 75


 3811 08eb 2F686F6D 		.ascii	"/home/alex/ArduPilot/ardupilot/build/Pix2.4\000"
 3811      652F616C 
 3811      65782F41 
 3811      72647550 
 3811      696C6F74 
 3812              	.LASF17:
 3813 0917 75696E74 		.ascii	"uint16_t\000"
 3813      31365F74 
 3813      00
 3814              	.LASF241:
 3815 0920 6F66665F 		.ascii	"off_name\000"
 3815      6E616D65 
 3815      00
 3816              	.LASF55:
 3817 0929 5F64736F 		.ascii	"_dso_handle\000"
 3817      5F68616E 
 3817      646C6500 
 3818              	.LASF145:
 3819 0935 6D73675F 		.ascii	"msg_t\000"
 3819      7400
 3820              	.LASF179:
 3821 093b 63685F74 		.ascii	"ch_threads_queue\000"
 3821      68726561 
 3821      64735F71 
 3821      75657565 
 3821      00
 3822              	.LASF129:
 3823 094c 5F72616E 		.ascii	"_rand48\000"
 3823      64343800 
 3824              	.LASF106:
 3825 0954 5F737464 		.ascii	"_stdout\000"
 3825      6F757400 
 3826              	.LASF187:
 3827 095c 64656C74 		.ascii	"delta\000"
 3827      6100
 3828              	.LASF135:
 3829 0962 76707269 		.ascii	"vprintf_console_hook\000"
 3829      6E74665F 
 3829      636F6E73 
 3829      6F6C655F 
 3829      686F6F6B 
 3830              	.LASF75:
 3831 0977 5F626C6B 		.ascii	"_blksize\000"
 3831      73697A65 
 3831      00
 3832              	.LASF62:
 3833 0980 5F626173 		.ascii	"_base\000"
 3833      6500
 3834              	.LASF215:
 3835 0986 53554343 		.ascii	"SUCCESS\000"
 3835      45535300 
 3836              	.LASF159:
 3837 098e 71756575 		.ascii	"queue\000"
 3837      6500
 3838              	.LASF285:
 3839 0994 72656173 		.ascii	"reason\000"
 3839      6F6E00
ARM GAS  /tmp/ccRd8DKP.s 			page 76


 3840              	.LASF83:
 3841 099b 5F737472 		.ascii	"_strtok_last\000"
 3841      746F6B5F 
 3841      6C617374 
 3841      00
 3842              	.LASF277:
 3843 09a8 63685F66 		.ascii	"ch_factory\000"
 3843      6163746F 
 3843      727900
 3844              	.LASF96:
 3845 09b3 5F6D6272 		.ascii	"_mbrtowc_state\000"
 3845      746F7763 
 3845      5F737461 
 3845      746500
 3846              	.LASF274:
 3847 09c2 6D62785F 		.ascii	"mbx_list\000"
 3847      6C697374 
 3847      00
 3848              	.LASF199:
 3849 09cb 6D61696E 		.ascii	"mainthread\000"
 3849      74687265 
 3849      616400
 3850              	.LASF35:
 3851 09d6 5F666C6F 		.ascii	"_flock_t\000"
 3851      636B5F74 
 3851      00
 3852              	.LASF233:
 3853 09df 76657273 		.ascii	"version\000"
 3853      696F6E00 
 3854              	.LASF125:
 3855 09e7 5F5F4649 		.ascii	"__FILE\000"
 3855      4C4500
 3856              	.LASF206:
 3857 09ee 52455345 		.ascii	"RESET\000"
 3857      5400
 3858              	.LASF34:
 3859 09f4 5F6D6273 		.ascii	"_mbstate_t\000"
 3859      74617465 
 3859      5F7400
 3860              	.LASF88:
 3861 09ff 5F723438 		.ascii	"_r48\000"
 3861      00
 3862              	.LASF164:
 3863 0a04 77616261 		.ascii	"wabase\000"
 3863      736500
 3864              	.LASF27:
 3865 0a0b 77696E74 		.ascii	"wint_t\000"
 3865      5F7400
 3866              	.LASF263:
 3867 0a12 6D656D6F 		.ascii	"memory_pool_t\000"
 3867      72795F70 
 3867      6F6F6C5F 
 3867      7400
 3868              	.LASF39:
 3869 0a20 5F6E6578 		.ascii	"_next\000"
 3869      7400
 3870              	.LASF77:
ARM GAS  /tmp/ccRd8DKP.s 			page 77


 3871 0a26 5F646174 		.ascii	"_data\000"
 3871      6100
 3872              	.LASF207:
 3873 0a2c 466C6167 		.ascii	"FlagStatus\000"
 3873      53746174 
 3873      757300
 3874              	.LASF197:
 3875 0a37 726C6973 		.ascii	"rlist\000"
 3875      7400
 3876              	.LASF141:
 3877 0a3d 746D6F64 		.ascii	"tmode_t\000"
 3877      655F7400 
 3878              	.LASF224:
 3879 0a45 746D5F63 		.ascii	"tm_calibration_t\000"
 3879      616C6962 
 3879      72617469 
 3879      6F6E5F74 
 3879      00
 3880              	.LASF163:
 3881 0a56 6E616D65 		.ascii	"name\000"
 3881      00
 3882              	.LASF205:
 3883 0a5b 41504250 		.ascii	"APBPrescTable\000"
 3883      72657363 
 3883      5461626C 
 3883      6500
 3884              	.LASF89:
 3885 0a69 5F6D626C 		.ascii	"_mblen_state\000"
 3885      656E5F73 
 3885      74617465 
 3885      00
 3886              	.LASF5:
 3887 0a76 73686F72 		.ascii	"short int\000"
 3887      7420696E 
 3887      7400
 3888              	.LASF20:
 3889 0a80 75696E74 		.ascii	"uint64_t\000"
 3889      36345F74 
 3889      00
 3890              	.LASF188:
 3891 0a89 66756E63 		.ascii	"func\000"
 3891      00
 3892              	.LASF226:
 3893 0a8e 63685F6D 		.ascii	"ch_mutex\000"
 3893      75746578 
 3893      00
 3894              	.LASF169:
 3895 0a97 6D736771 		.ascii	"msgqueue\000"
 3895      75657565 
 3895      00
 3896              	.LASF56:
 3897 0aa0 5F666E74 		.ascii	"_fntypes\000"
 3897      79706573 
 3897      00
 3898              	.LASF193:
 3899 0aa9 63685F73 		.ascii	"ch_system_debug\000"
 3899      79737465 
ARM GAS  /tmp/ccRd8DKP.s 			page 78


 3899      6D5F6465 
 3899      62756700 
 3900              	.LASF138:
 3901 0ab9 5F737973 		.ascii	"_sys_errlist\000"
 3901      5F657272 
 3901      6C697374 
 3901      00
 3902              	.LASF267:
 3903 0ac6 64796E5F 		.ascii	"dyn_list_t\000"
 3903      6C697374 
 3903      5F7400
 3904              	.LASF49:
 3905 0ad1 5F5F746D 		.ascii	"__tm_year\000"
 3905      5F796561 
 3905      7200
 3906              	.LASF260:
 3907 0adb 6F626A65 		.ascii	"object_size\000"
 3907      63745F73 
 3907      697A6500 
 3908              	.LASF67:
 3909 0ae7 5F6C6266 		.ascii	"_lbfsize\000"
 3909      73697A65 
 3909      00
 3910              	.LASF198:
 3911 0af0 76746C69 		.ascii	"vtlist\000"
 3911      737400
 3912              	.LASF108:
 3913 0af7 5F696E63 		.ascii	"_inc\000"
 3913      00
 3914              	.LASF59:
 3915 0afc 5F696E64 		.ascii	"_ind\000"
 3915      00
 3916              	.LASF168:
 3917 0b01 77616974 		.ascii	"waiting\000"
 3917      696E6700 
 3918              	.LASF61:
 3919 0b09 5F5F7362 		.ascii	"__sbuf\000"
 3919      756600
 3920              	.LASF265:
 3921 0b10 64796E5F 		.ascii	"dyn_element_t\000"
 3921      656C656D 
 3921      656E745F 
 3921      7400
 3922              	.LASF57:
 3923 0b1e 5F69735F 		.ascii	"_is_cxa\000"
 3923      63786100 
 3924              	.LASF24:
 3925 0b26 5F4C4F43 		.ascii	"_LOCK_T\000"
 3925      4B5F5400 
 3926              	.LASF250:
 3927 0b2e 6D757465 		.ascii	"mutex_t\000"
 3927      785F7400 
 3928              	.LASF143:
 3929 0b36 74726566 		.ascii	"trefs_t\000"
 3929      735F7400 
 3930              	.LASF101:
 3931 0b3e 5F6E6578 		.ascii	"_nextf\000"
ARM GAS  /tmp/ccRd8DKP.s 			page 79


 3931      746600
 3932              	.LASF219:
 3933 0b45 706F7274 		.ascii	"port_context\000"
 3933      5F636F6E 
 3933      74657874 
 3933      00
 3934              	.LASF175:
 3935 0b52 74687265 		.ascii	"threads_list_t\000"
 3935      6164735F 
 3935      6C697374 
 3935      5F7400
 3936              	.LASF284:
 3937 0b61 73746174 		.ascii	"status\000"
 3937      757300
 3938              	.LASF196:
 3939 0b68 63685F73 		.ascii	"ch_system\000"
 3939      79737465 
 3939      6D00
 3940              	.LASF111:
 3941 0b72 5F6C6F63 		.ascii	"_locale\000"
 3941      616C6500 
 3942              	.LASF36:
 3943 0b7a 5F5F554C 		.ascii	"__ULong\000"
 3943      6F6E6700 
 3944              	.LASF161:
 3945 0b82 6E657765 		.ascii	"newer\000"
 3945      7200
 3946              	.LASF19:
 3947 0b88 75696E74 		.ascii	"uint32_t\000"
 3947      33325F74 
 3947      00
 3948              	.LASF114:
 3949 0b91 5F726573 		.ascii	"_result\000"
 3949      756C7400 
 3950              	.LASF253:
 3951 0b99 396D656D 		.ascii	"9memcore_t\000"
 3951      636F7265 
 3951      5F7400
 3952              	.LASF245:
 3953 0ba4 6F66665F 		.ascii	"off_refs\000"
 3953      72656673 
 3953      00
 3954              	.LASF25:
 3955 0bad 5F6F6666 		.ascii	"_off_t\000"
 3955      5F7400
 3956              	.LASF151:
 3957 0bb4 7264796D 		.ascii	"rdymsg\000"
 3957      736700
 3958              	.LASF132:
 3959 0bbb 5F616464 		.ascii	"_add\000"
 3959      00
 3960              	.LASF7:
 3961 0bc0 73686F72 		.ascii	"short unsigned int\000"
 3961      7420756E 
 3961      7369676E 
 3961      65642069 
 3961      6E7400
ARM GAS  /tmp/ccRd8DKP.s 			page 80


 3962              	.LASF46:
 3963 0bd3 5F5F746D 		.ascii	"__tm_hour\000"
 3963      5F686F75 
 3963      7200
 3964              	.LASF195:
 3965 0bdd 63685F73 		.ascii	"ch_system_t\000"
 3965      79737465 
 3965      6D5F7400 
 3966              	.LASF248:
 3967 0be9 63686465 		.ascii	"chdebug_t\000"
 3967      6275675F 
 3967      7400
 3968              	.LASF287:
 3969 0bf3 2E2E2F2E 		.ascii	"../../modules/ChibiOS/os/various/cpp_wrappers/sysca"
 3969      2E2F6D6F 
 3969      64756C65 
 3969      732F4368 
 3969      6962694F 
 3970 0c26 6C6C735F 		.ascii	"lls_cpp.cpp\000"
 3970      6370702E 
 3970      63707000 
 3971              	.LASF97:
 3972 0c32 5F6D6273 		.ascii	"_mbsrtowcs_state\000"
 3972      72746F77 
 3972      63735F73 
 3972      74617465 
 3972      00
 3973              	.LASF180:
 3974 0c43 70726576 		.ascii	"prev\000"
 3974      00
 3975              	.LASF235:
 3976 0c48 74696D65 		.ascii	"timesize\000"
 3976      73697A65 
 3976      00
 3977              	.LASF8:
 3978 0c51 5F5F696E 		.ascii	"__int32_t\000"
 3978      7433325F 
 3978      7400
 3979              	.LASF257:
 3980 0c5b 63685F6D 		.ascii	"ch_memcore\000"
 3980      656D636F 
 3980      726500
 3981              	.LASF244:
 3982 0c66 6F66665F 		.ascii	"off_flags\000"
 3982      666C6167 
 3982      7300
 3983              	.LASF54:
 3984 0c70 5F666E61 		.ascii	"_fnargs\000"
 3984      72677300 
 3985              	.LASF52:
 3986 0c78 5F5F746D 		.ascii	"__tm_isdst\000"
 3986      5F697364 
 3986      737400
 3987              	.LASF177:
 3988 0c83 6E657874 		.ascii	"next\000"
 3988      00
 3989              	.LASF45:
ARM GAS  /tmp/ccRd8DKP.s 			page 81


 3990 0c88 5F5F746D 		.ascii	"__tm_min\000"
 3990      5F6D696E 
 3990      00
 3991              	.LASF266:
 3992 0c91 63685F64 		.ascii	"ch_dyn_list\000"
 3992      796E5F6C 
 3992      69737400 
 3993              	.LASF230:
 3994 0c9d 6964656E 		.ascii	"identifier\000"
 3994      74696669 
 3994      657200
 3995              	.LASF94:
 3996 0ca8 5F676574 		.ascii	"_getdate_err\000"
 3996      64617465 
 3996      5F657272 
 3996      00
 3997              	.LASF156:
 3998 0cb5 77747365 		.ascii	"wtsemp\000"
 3998      6D7000
 3999              		.ident	"GCC: (GNU Tools for ARM Embedded Processors 6-2017-q2-update) 6.3.1 20170620 (release) [AR
ARM GAS  /tmp/ccRd8DKP.s 			page 82


DEFINED SYMBOLS
                            *ABS*:0000000000000000 syscalls_cpp.cpp
     /tmp/ccRd8DKP.s:18     .text._ZL11osalSysHaltPKc:0000000000000000 $t
     /tmp/ccRd8DKP.s:25     .text._ZL11osalSysHaltPKc:0000000000000000 _ZL11osalSysHaltPKc
.ARM.exidx.text._ZL11osalSysHaltPKc:0000000000000000 $d
     /tmp/ccRd8DKP.s:59     .bss.__dso_handle:0000000000000000 __dso_handle
     /tmp/ccRd8DKP.s:56     .bss.__dso_handle:0000000000000000 $d
     /tmp/ccRd8DKP.s:62     .rodata:0000000000000000 $d
     /tmp/ccRd8DKP.s:66     .text._exit:0000000000000000 $t
     /tmp/ccRd8DKP.s:74     .text._exit:0000000000000000 _exit
     /tmp/ccRd8DKP.s:99     .text._exit:0000000000000010 $d
            .ARM.exidx.text._exit:0000000000000000 $d
     /tmp/ccRd8DKP.s:105    .text._kill:0000000000000000 $t
     /tmp/ccRd8DKP.s:113    .text._kill:0000000000000000 _kill
     /tmp/ccRd8DKP.s:140    .text._kill:0000000000000018 $d
            .ARM.exidx.text._kill:0000000000000000 $d
     /tmp/ccRd8DKP.s:147    .text._open_r:0000000000000000 $t
     /tmp/ccRd8DKP.s:155    .text._open_r:0000000000000000 _open_r
          .ARM.exidx.text._open_r:0000000000000000 $d
     /tmp/ccRd8DKP.s:177    .text.__cxa_pure_virtual:0000000000000000 $t
     /tmp/ccRd8DKP.s:185    .text.__cxa_pure_virtual:0000000000000000 __cxa_pure_virtual
     /tmp/ccRd8DKP.s:206    .text.__cxa_pure_virtual:000000000000000c $d
.ARM.extab.text.__cxa_pure_virtual:0000000000000000 $d
.ARM.exidx.text.__cxa_pure_virtual:0000000000000000 $d
                     .debug_frame:0000000000000010 $d

UNDEFINED SYMBOLS
chSysHalt
__aeabi_unwind_cpp_pr0
errno
__aeabi_unwind_cpp_pr1
