ARM GAS  /tmp/ccvQ7gru.s 			page 1


   1              		.cpu cortex-m4
   2              		.eabi_attribute 27, 1
   3              		.eabi_attribute 28, 1
   4              		.eabi_attribute 20, 1
   5              		.eabi_attribute 21, 1
   6              		.eabi_attribute 23, 3
   7              		.eabi_attribute 24, 1
   8              		.eabi_attribute 25, 1
   9              		.eabi_attribute 26, 1
  10              		.eabi_attribute 30, 4
  11              		.eabi_attribute 34, 1
  12              		.eabi_attribute 18, 4
  13              		.file	"usbcfg.c"
  14              		.text
  15              	.Ltext0:
  16              		.cfi_sections	.debug_frame
  17              		.section	.text.get_descriptor,"ax",%progbits
  18              		.align	1
  19              		.syntax unified
  20              		.thumb
  21              		.thumb_func
  22              		.fpu fpv4-sp-d16
  23              		.type	get_descriptor, %function
  24              	get_descriptor:
  25              	.LFB325:
  26              		.file 1 "../../libraries/AP_HAL_ChibiOS/hwdef/common/usbcfg.c"
  27              		.loc 1 219 0
  28              		.cfi_startproc
  29              		@ args = 0, pretend = 0, frame = 0
  30              		@ frame_needed = 0, uses_anonymous_args = 0
  31              		@ link register save eliminated.
  32              	.LVL0:
  33              		.loc 1 223 0
  34 0000 0229     		cmp	r1, #2
  35 0002 06D0     		beq	.L3
  36 0004 0329     		cmp	r1, #3
  37 0006 06D0     		beq	.L4
  38 0008 0129     		cmp	r1, #1
  39              		.loc 1 233 0
  40 000a 0648     		ldr	r0, .L8
  41              	.LVL1:
  42 000c 18BF     		it	ne
  43 000e 0020     		movne	r0, #0
  44 0010 7047     		bx	lr
  45              	.LVL2:
  46              	.L3:
  47              		.loc 1 227 0
  48 0012 0548     		ldr	r0, .L8+4
  49              	.LVL3:
  50 0014 7047     		bx	lr
  51              	.LVL4:
  52              	.L4:
  53              		.loc 1 229 0
  54 0016 032A     		cmp	r2, #3
  55              		.loc 1 230 0
  56 0018 9ABF     		itte	ls
  57 001a 0448     		ldrls	r0, .L8+8
ARM GAS  /tmp/ccvQ7gru.s 			page 2


  58              	.LVL5:
  59 001c 00EBC200 		addls	r0, r0, r2, lsl #3
  60              		.loc 1 233 0
  61 0020 0020     		movhi	r0, #0
  62              		.loc 1 234 0
  63 0022 7047     		bx	lr
  64              	.L9:
  65              		.align	2
  66              	.L8:
  67 0024 00000000 		.word	.LANCHOR0
  68 0028 00000000 		.word	.LANCHOR1
  69 002c 00000000 		.word	.LANCHOR2
  70              		.cfi_endproc
  71              	.LFE325:
  72              		.size	get_descriptor, .-get_descriptor
  73              		.section	.text.setup_usb_string,"ax",%progbits
  74              		.align	1
  75              		.syntax unified
  76              		.thumb
  77              		.thumb_func
  78              		.fpu fpv4-sp-d16
  79              		.type	setup_usb_string, %function
  80              	setup_usb_string:
  81              	.LFB323:
  82              		.loc 1 187 0
  83              		.cfi_startproc
  84              		@ args = 0, pretend = 0, frame = 104
  85              		@ frame_needed = 0, uses_anonymous_args = 0
  86              	.LVL6:
  87 0000 70B5     		push	{r4, r5, r6, lr}
  88              		.cfi_def_cfa_offset 16
  89              		.cfi_offset 4, -16
  90              		.cfi_offset 5, -12
  91              		.cfi_offset 6, -8
  92              		.cfi_offset 14, -4
  93 0002 9AB0     		sub	sp, sp, #104
  94              		.cfi_def_cfa_offset 120
  95              		.loc 1 189 0
  96 0004 01AD     		add	r5, sp, #4
  97              		.loc 1 187 0
  98 0006 0646     		mov	r6, r0
  99 0008 0846     		mov	r0, r1
 100              	.LVL7:
 101              		.loc 1 189 0
 102 000a 2946     		mov	r1, r5
 103              	.LVL8:
 104              		.loc 1 187 0
 105 000c 1446     		mov	r4, r2
 106              		.loc 1 189 0
 107 000e FFF7FEFF 		bl	string_substitute
 108              	.LVL9:
 109              		.loc 1 190 0
 110 0012 2846     		mov	r0, r5
 111 0014 FFF7FEFF 		bl	strlen
 112              	.LVL10:
 113 0018 C0B2     		uxtb	r0, r0
 114              	.LVL11:
ARM GAS  /tmp/ccvQ7gru.s 			page 3


 115              		.loc 1 191 0
 116 001a 431C     		adds	r3, r0, #1
 117 001c 5B00     		lsls	r3, r3, #1
 118              		.loc 1 192 0
 119 001e 86E81800 		stm	r6, {r3, r4}
 120              		.loc 1 193 0
 121 0022 2370     		strb	r3, [r4]
 122              		.loc 1 194 0
 123 0024 0323     		movs	r3, #3
 124 0026 6370     		strb	r3, [r4, #1]
 125              	.LVL12:
 126              		.loc 1 196 0
 127 0028 0023     		movs	r3, #0
 128 002a 0234     		adds	r4, r4, #2
 129              	.LVL13:
 130              		.loc 1 198 0
 131 002c 1946     		mov	r1, r3
 132              	.LVL14:
 133              	.L11:
 134              		.loc 1 196 0 discriminator 1
 135 002e DAB2     		uxtb	r2, r3
 136 0030 9042     		cmp	r0, r2
 137 0032 04F10204 		add	r4, r4, #2
 138 0036 01D8     		bhi	.L12
 139              		.loc 1 200 0
 140 0038 1AB0     		add	sp, sp, #104
 141              		.cfi_remember_state
 142              		.cfi_def_cfa_offset 16
 143              		@ sp needed
 144 003a 70BD     		pop	{r4, r5, r6, pc}
 145              	.LVL15:
 146              	.L12:
 147              		.cfi_restore_state
 148              		.loc 1 197 0 discriminator 3
 149 003c EA5C     		ldrb	r2, [r5, r3]	@ zero_extendqisi2
 150 003e 04F8022C 		strb	r2, [r4, #-2]
 151              		.loc 1 198 0 discriminator 3
 152 0042 04F8011C 		strb	r1, [r4, #-1]
 153              	.LVL16:
 154 0046 0133     		adds	r3, r3, #1
 155              	.LVL17:
 156 0048 F1E7     		b	.L11
 157              		.cfi_endproc
 158              	.LFE323:
 159              		.size	setup_usb_string, .-setup_usb_string
 160              		.section	.text.sof_handler,"ax",%progbits
 161              		.align	1
 162              		.syntax unified
 163              		.thumb
 164              		.thumb_func
 165              		.fpu fpv4-sp-d16
 166              		.type	sof_handler, %function
 167              	sof_handler:
 168              	.LFB327:
 169              		.loc 1 335 0
 170              		.cfi_startproc
 171              		@ args = 0, pretend = 0, frame = 0
ARM GAS  /tmp/ccvQ7gru.s 			page 4


 172              		@ frame_needed = 0, uses_anonymous_args = 0
 173              	.LVL18:
 174 0000 08B5     		push	{r3, lr}
 175              		.cfi_def_cfa_offset 8
 176              		.cfi_offset 3, -8
 177              		.cfi_offset 14, -4
 178              	.LBB116:
 179              	.LBB117:
 180              	.LBB118:
 181              	.LBB119:
 182              	.LBB120:
 183              	.LBB121:
 184              		.file 2 "../../modules/ChibiOS/os/common/ext/ARM/CMSIS/Core/Include/cmsis_gcc.h"
 185              		.loc 2 493 0
 186 0002 2023     		movs	r3, #32
 187              		.syntax unified
 188              	@ 493 "../../modules/ChibiOS/os/common/ext/ARM/CMSIS/Core/Include/cmsis_gcc.h" 1
 189 0004 83F31188 		MSR basepri, r3
 190              	@ 0 "" 2
 191              	.LVL19:
 192              		.thumb
 193              		.syntax unified
 194              	.LBE121:
 195              	.LBE120:
 196              	.LBE119:
 197              	.LBE118:
 198              	.LBE117:
 199              	.LBE116:
 200              		.loc 1 340 0
 201 0008 0348     		ldr	r0, .L14
 202              	.LVL20:
 203 000a FFF7FEFF 		bl	sduSOFHookI
 204              	.LVL21:
 205              	.LBB122:
 206              	.LBB123:
 207              	.LBB124:
 208              	.LBB125:
 209              	.LBB126:
 210              	.LBB127:
 211              		.loc 2 493 0
 212 000e 0023     		movs	r3, #0
 213              		.syntax unified
 214              	@ 493 "../../modules/ChibiOS/os/common/ext/ARM/CMSIS/Core/Include/cmsis_gcc.h" 1
 215 0010 83F31188 		MSR basepri, r3
 216              	@ 0 "" 2
 217              	.LVL22:
 218              		.thumb
 219              		.syntax unified
 220 0014 08BD     		pop	{r3, pc}
 221              	.L15:
 222 0016 00BF     		.align	2
 223              	.L14:
 224 0018 00000000 		.word	.LANCHOR3
 225              	.LBE127:
 226              	.LBE126:
 227              	.LBE125:
 228              	.LBE124:
ARM GAS  /tmp/ccvQ7gru.s 			page 5


 229              	.LBE123:
 230              	.LBE122:
 231              		.cfi_endproc
 232              	.LFE327:
 233              		.size	sof_handler, .-sof_handler
 234              		.section	.text.usb_event,"ax",%progbits
 235              		.align	1
 236              		.syntax unified
 237              		.thumb
 238              		.thumb_func
 239              		.fpu fpv4-sp-d16
 240              		.type	usb_event, %function
 241              	usb_event:
 242              	.LFB326:
 243              		.loc 1 286 0
 244              		.cfi_startproc
 245              		@ args = 0, pretend = 0, frame = 0
 246              		@ frame_needed = 0, uses_anonymous_args = 0
 247              	.LVL23:
 248 0000 10B5     		push	{r4, lr}
 249              		.cfi_def_cfa_offset 8
 250              		.cfi_offset 4, -8
 251              		.cfi_offset 14, -4
 252              		.loc 1 286 0
 253 0002 0446     		mov	r4, r0
 254              		.loc 1 289 0
 255 0004 0529     		cmp	r1, #5
 256 0006 16D8     		bhi	.L16
 257 0008 DFE801F0 		tbb	[pc, r1]
 258              	.L19:
 259 000c 16       		.byte	(.L18-.L19)/2
 260 000d 15       		.byte	(.L16-.L19)/2
 261 000e 03       		.byte	(.L20-.L19)/2
 262 000f 16       		.byte	(.L18-.L19)/2
 263 0010 16       		.byte	(.L18-.L19)/2
 264 0011 1D       		.byte	(.L21-.L19)/2
 265              		.p2align 1
 266              	.L20:
 267              	.LVL24:
 268              	.LBB180:
 269              	.LBB181:
 270              	.LBB182:
 271              	.LBB183:
 272              	.LBB184:
 273              	.LBB185:
 274              	.LBB186:
 275              		.loc 2 493 0
 276 0012 2023     		movs	r3, #32
 277              		.syntax unified
 278              	@ 493 "../../modules/ChibiOS/os/common/ext/ARM/CMSIS/Core/Include/cmsis_gcc.h" 1
 279 0014 83F31188 		MSR basepri, r3
 280              	@ 0 "" 2
 281              	.LVL25:
 282              		.thumb
 283              		.syntax unified
 284              	.LBE186:
 285              	.LBE185:
ARM GAS  /tmp/ccvQ7gru.s 			page 6


 286              	.LBE184:
 287              	.LBE183:
 288              	.LBE182:
 289              		.loc 1 298 0
 290 0018 0E4A     		ldr	r2, .L23
 291 001a 0121     		movs	r1, #1
 292              	.LVL26:
 293 001c FFF7FEFF 		bl	usbInitEndpointI
 294              	.LVL27:
 295              		.loc 1 299 0
 296 0020 2046     		mov	r0, r4
 297 0022 0D4A     		ldr	r2, .L23+4
 298 0024 0221     		movs	r1, #2
 299 0026 FFF7FEFF 		bl	usbInitEndpointI
 300              	.LVL28:
 301              		.loc 1 302 0
 302 002a 0C48     		ldr	r0, .L23+8
 303 002c FFF7FEFF 		bl	sduConfigureHookI
 304              	.LVL29:
 305              	.L22:
 306              	.LBE181:
 307              	.LBE180:
 308              	.LBB187:
 309              	.LBB188:
 310              	.LBB189:
 311              	.LBB190:
 312              	.LBB191:
 313              		.loc 2 493 0
 314 0030 0023     		movs	r3, #0
 315              		.syntax unified
 316              	@ 493 "../../modules/ChibiOS/os/common/ext/ARM/CMSIS/Core/Include/cmsis_gcc.h" 1
 317 0032 83F31188 		MSR basepri, r3
 318              	@ 0 "" 2
 319              	.LVL30:
 320              		.thumb
 321              		.syntax unified
 322              	.L16:
 323 0036 10BD     		pop	{r4, pc}
 324              	.LVL31:
 325              	.L18:
 326              	.LBE191:
 327              	.LBE190:
 328              	.LBE189:
 329              	.LBE188:
 330              	.LBE187:
 331              	.LBB192:
 332              	.LBB193:
 333              	.LBB194:
 334              	.LBB195:
 335              	.LBB196:
 336 0038 2023     		movs	r3, #32
 337              		.syntax unified
 338              	@ 493 "../../modules/ChibiOS/os/common/ext/ARM/CMSIS/Core/Include/cmsis_gcc.h" 1
 339 003a 83F31188 		MSR basepri, r3
 340              	@ 0 "" 2
 341              	.LVL32:
 342              		.thumb
ARM GAS  /tmp/ccvQ7gru.s 			page 7


 343              		.syntax unified
 344              	.LBE196:
 345              	.LBE195:
 346              	.LBE194:
 347              	.LBE193:
 348              	.LBE192:
 349              		.loc 1 314 0
 350 003e 0748     		ldr	r0, .L23+8
 351              	.LVL33:
 352 0040 FFF7FEFF 		bl	sduSuspendHookI
 353              	.LVL34:
 354 0044 F4E7     		b	.L22
 355              	.LVL35:
 356              	.L21:
 357              	.LBB197:
 358              	.LBB198:
 359              	.LBB199:
 360              	.LBB200:
 361              	.LBB201:
 362              		.loc 2 493 0
 363 0046 2023     		movs	r3, #32
 364              		.syntax unified
 365              	@ 493 "../../modules/ChibiOS/os/common/ext/ARM/CMSIS/Core/Include/cmsis_gcc.h" 1
 366 0048 83F31188 		MSR basepri, r3
 367              	@ 0 "" 2
 368              	.LVL36:
 369              		.thumb
 370              		.syntax unified
 371              	.LBE201:
 372              	.LBE200:
 373              	.LBE199:
 374              	.LBE198:
 375              	.LBE197:
 376              		.loc 1 322 0
 377 004c 0348     		ldr	r0, .L23+8
 378              	.LVL37:
 379 004e FFF7FEFF 		bl	sduWakeupHookI
 380              	.LVL38:
 381 0052 EDE7     		b	.L22
 382              	.L24:
 383              		.align	2
 384              	.L23:
 385 0054 00000000 		.word	.LANCHOR4
 386 0058 00000000 		.word	.LANCHOR5
 387 005c 00000000 		.word	.LANCHOR3
 388              		.cfi_endproc
 389              	.LFE326:
 390              		.size	usb_event, .-usb_event
 391              		.section	.text.setup_usb_strings,"ax",%progbits
 392              		.align	1
 393              		.global	setup_usb_strings
 394              		.syntax unified
 395              		.thumb
 396              		.thumb_func
 397              		.fpu fpv4-sp-d16
 398              		.type	setup_usb_strings, %function
 399              	setup_usb_strings:
ARM GAS  /tmp/ccvQ7gru.s 			page 8


 400              	.LFB324:
 401              		.loc 1 206 0
 402              		.cfi_startproc
 403              		@ args = 0, pretend = 0, frame = 0
 404              		@ frame_needed = 0, uses_anonymous_args = 0
 405 0000 38B5     		push	{r3, r4, r5, lr}
 406              		.cfi_def_cfa_offset 16
 407              		.cfi_offset 3, -16
 408              		.cfi_offset 4, -12
 409              		.cfi_offset 5, -8
 410              		.cfi_offset 14, -4
 411              		.loc 1 207 0
 412 0002 0C4D     		ldr	r5, .L26
 413 0004 0C4C     		ldr	r4, .L26+4
 414 0006 0D49     		ldr	r1, .L26+8
 415 0008 2A46     		mov	r2, r5
 416 000a 04F10800 		add	r0, r4, #8
 417 000e FFF7FEFF 		bl	setup_usb_string
 418              	.LVL39:
 419              		.loc 1 208 0
 420 0012 05F1CA02 		add	r2, r5, #202
 421 0016 04F11000 		add	r0, r4, #16
 422 001a 0949     		ldr	r1, .L26+12
 423 001c FFF7FEFF 		bl	setup_usb_string
 424              	.LVL40:
 425              		.loc 1 209 0
 426 0020 05F5CA72 		add	r2, r5, #404
 427 0024 04F11800 		add	r0, r4, #24
 428 0028 0649     		ldr	r1, .L26+16
 429              		.loc 1 210 0
 430 002a BDE83840 		pop	{r3, r4, r5, lr}
 431              		.cfi_restore 14
 432              		.cfi_restore 5
 433              		.cfi_restore 4
 434              		.cfi_restore 3
 435              		.cfi_def_cfa_offset 0
 436              		.loc 1 209 0
 437 002e FFF7FEBF 		b	setup_usb_string
 438              	.LVL41:
 439              	.L27:
 440 0032 00BF     		.align	2
 441              	.L26:
 442 0034 00000000 		.word	.LANCHOR6
 443 0038 00000000 		.word	.LANCHOR2
 444 003c 00000000 		.word	.LC0
 445 0040 0A000000 		.word	.LC1
 446 0044 12000000 		.word	.LC2
 447              		.cfi_endproc
 448              	.LFE324:
 449              		.size	setup_usb_strings, .-setup_usb_strings
 450              		.global	serusbcfg1
 451              		.global	usbcfg
 452              		.global	SDU1
 453              		.section	.bss.SDU1,"aw",%nobits
 454              		.align	2
 455              		.set	.LANCHOR3,. + 0
 456              		.type	SDU1, %object
ARM GAS  /tmp/ccvQ7gru.s 			page 9


 457              		.size	SDU1, 1168
 458              	SDU1:
 459 0000 00000000 		.space	1168
 459      00000000 
 459      00000000 
 459      00000000 
 459      00000000 
 460              		.section	.bss.ep1instate,"aw",%nobits
 461              		.align	2
 462              		.type	ep1instate, %object
 463              		.size	ep1instate, 16
 464              	ep1instate:
 465 0000 00000000 		.space	16
 465      00000000 
 465      00000000 
 465      00000000 
 466              		.section	.bss.ep1outstate,"aw",%nobits
 467              		.align	2
 468              		.type	ep1outstate, %object
 469              		.size	ep1outstate, 16
 470              	ep1outstate:
 471 0000 00000000 		.space	16
 471      00000000 
 471      00000000 
 471      00000000 
 472              		.section	.bss.ep2instate,"aw",%nobits
 473              		.align	2
 474              		.type	ep2instate, %object
 475              		.size	ep2instate, 16
 476              	ep2instate:
 477 0000 00000000 		.space	16
 477      00000000 
 477      00000000 
 477      00000000 
 478              		.section	.bss.vcom_buffers,"aw",%nobits
 479              		.set	.LANCHOR6,. + 0
 480              		.type	vcom_buffers, %object
 481              		.size	vcom_buffers, 606
 482              	vcom_buffers:
 483 0000 00000000 		.space	606
 483      00000000 
 483      00000000 
 483      00000000 
 483      00000000 
 484              		.section	.data.vcom_strings,"aw",%progbits
 485              		.align	2
 486              		.set	.LANCHOR2,. + 0
 487              		.type	vcom_strings, %object
 488              		.size	vcom_strings, 32
 489              	vcom_strings:
 490 0000 04000000 		.word	4
 491 0004 00000000 		.word	vcom_string0
 492 0008 00000000 		.word	0
 493 000c 00000000 		.word	0
 494 0010 00000000 		.word	0
 495 0014 00000000 		.word	0
 496 0018 00000000 		.word	0
ARM GAS  /tmp/ccvQ7gru.s 			page 10


 497 001c 00000000 		.word	0
 498              		.section	.rodata.ep1config,"a",%progbits
 499              		.align	2
 500              		.set	.LANCHOR4,. + 0
 501              		.type	ep1config, %object
 502              		.size	ep1config, 36
 503              	ep1config:
 504 0000 02000000 		.word	2
 505 0004 00000000 		.word	0
 506 0008 00000000 		.word	sduDataTransmitted
 507 000c 00000000 		.word	sduDataReceived
 508 0010 4000     		.short	64
 509 0012 4000     		.short	64
 510 0014 00000000 		.word	ep1instate
 511 0018 00000000 		.word	ep1outstate
 512 001c 0200     		.short	2
 513 001e 0000     		.space	2
 514 0020 00000000 		.word	0
 515              		.section	.rodata.ep2config,"a",%progbits
 516              		.align	2
 517              		.set	.LANCHOR5,. + 0
 518              		.type	ep2config, %object
 519              		.size	ep2config, 36
 520              	ep2config:
 521 0000 03000000 		.word	3
 522 0004 00000000 		.word	0
 523 0008 00000000 		.word	sduInterruptTransmitted
 524 000c 00000000 		.word	0
 525 0010 1000     		.short	16
 526 0012 0000     		.short	0
 527 0014 00000000 		.word	ep2instate
 528 0018 00000000 		.word	0
 529 001c 0100     		.short	1
 530 001e 0000     		.space	2
 531 0020 00000000 		.word	0
 532              		.section	.rodata.serusbcfg1,"a",%progbits
 533              		.align	2
 534              		.type	serusbcfg1, %object
 535              		.size	serusbcfg1, 8
 536              	serusbcfg1:
 537 0000 00000000 		.word	USBD1
 538 0004 01       		.byte	1
 539 0005 01       		.byte	1
 540 0006 02       		.byte	2
 541 0007 00       		.space	1
 542              		.section	.rodata.setup_usb_strings.str1.1,"aMS",%progbits,1
 543              	.LC0:
 544 0000 41726475 		.ascii	"ArduPilot\000"
 544      50696C6F 
 544      7400
 545              	.LC1:
 546 000a 25424F41 		.ascii	"%BOARD%\000"
 546      52442500 
 547              	.LC2:
 548 0012 25534552 		.ascii	"%SERIAL%\000"
 548      49414C25 
 548      00
ARM GAS  /tmp/ccvQ7gru.s 			page 11


 549              		.section	.rodata.usbcfg,"a",%progbits
 550              		.align	2
 551              		.type	usbcfg, %object
 552              		.size	usbcfg, 16
 553              	usbcfg:
 554 0000 00000000 		.word	usb_event
 555 0004 00000000 		.word	get_descriptor
 556 0008 00000000 		.word	sduRequestsHook
 557 000c 00000000 		.word	sof_handler
 558              		.section	.rodata.vcom_configuration_descriptor,"a",%progbits
 559              		.align	2
 560              		.set	.LANCHOR1,. + 0
 561              		.type	vcom_configuration_descriptor, %object
 562              		.size	vcom_configuration_descriptor, 8
 563              	vcom_configuration_descriptor:
 564 0000 43000000 		.word	67
 565 0004 00000000 		.word	vcom_configuration_descriptor_data
 566              		.section	.rodata.vcom_configuration_descriptor_data,"a",%progbits
 567              		.type	vcom_configuration_descriptor_data, %object
 568              		.size	vcom_configuration_descriptor_data, 67
 569              	vcom_configuration_descriptor_data:
 570 0000 09       		.byte	9
 571 0001 02       		.byte	2
 572 0002 43       		.byte	67
 573 0003 00       		.byte	0
 574 0004 02       		.byte	2
 575 0005 01       		.byte	1
 576 0006 00       		.byte	0
 577 0007 C0       		.byte	-64
 578 0008 32       		.byte	50
 579 0009 09       		.byte	9
 580 000a 04       		.byte	4
 581 000b 00       		.byte	0
 582 000c 00       		.byte	0
 583 000d 01       		.byte	1
 584 000e 02       		.byte	2
 585 000f 02       		.byte	2
 586 0010 01       		.byte	1
 587 0011 00       		.byte	0
 588 0012 05       		.byte	5
 589 0013 24       		.byte	36
 590 0014 00       		.byte	0
 591 0015 10       		.byte	16
 592 0016 01       		.byte	1
 593 0017 05       		.byte	5
 594 0018 24       		.byte	36
 595 0019 01       		.byte	1
 596 001a 00       		.byte	0
 597 001b 01       		.byte	1
 598 001c 04       		.byte	4
 599 001d 24       		.byte	36
 600 001e 02       		.byte	2
 601 001f 02       		.byte	2
 602 0020 05       		.byte	5
 603 0021 24       		.byte	36
 604 0022 06       		.byte	6
 605 0023 00       		.byte	0
ARM GAS  /tmp/ccvQ7gru.s 			page 12


 606 0024 01       		.byte	1
 607 0025 07       		.byte	7
 608 0026 05       		.byte	5
 609 0027 82       		.byte	-126
 610 0028 03       		.byte	3
 611 0029 08       		.byte	8
 612 002a 00       		.byte	0
 613 002b FF       		.byte	-1
 614 002c 09       		.byte	9
 615 002d 04       		.byte	4
 616 002e 01       		.byte	1
 617 002f 00       		.byte	0
 618 0030 02       		.byte	2
 619 0031 0A       		.byte	10
 620 0032 00       		.byte	0
 621 0033 00       		.byte	0
 622 0034 00       		.byte	0
 623 0035 07       		.byte	7
 624 0036 05       		.byte	5
 625 0037 01       		.byte	1
 626 0038 02       		.byte	2
 627 0039 40       		.byte	64
 628 003a 00       		.byte	0
 629 003b 00       		.byte	0
 630 003c 07       		.byte	7
 631 003d 05       		.byte	5
 632 003e 81       		.byte	-127
 633 003f 02       		.byte	2
 634 0040 40       		.byte	64
 635 0041 00       		.byte	0
 636 0042 00       		.byte	0
 637              		.section	.rodata.vcom_device_descriptor,"a",%progbits
 638              		.align	2
 639              		.set	.LANCHOR0,. + 0
 640              		.type	vcom_device_descriptor, %object
 641              		.size	vcom_device_descriptor, 8
 642              	vcom_device_descriptor:
 643 0000 12000000 		.word	18
 644 0004 00000000 		.word	vcom_device_descriptor_data
 645              		.section	.rodata.vcom_device_descriptor_data,"a",%progbits
 646              		.type	vcom_device_descriptor_data, %object
 647              		.size	vcom_device_descriptor_data, 18
 648              	vcom_device_descriptor_data:
 649 0000 12       		.byte	18
 650 0001 01       		.byte	1
 651 0002 10       		.byte	16
 652 0003 01       		.byte	1
 653 0004 02       		.byte	2
 654 0005 00       		.byte	0
 655 0006 00       		.byte	0
 656 0007 40       		.byte	64
 657 0008 09       		.byte	9
 658 0009 12       		.byte	18
 659 000a 41       		.byte	65
 660 000b 57       		.byte	87
 661 000c 00       		.byte	0
 662 000d 02       		.byte	2
ARM GAS  /tmp/ccvQ7gru.s 			page 13


 663 000e 01       		.byte	1
 664 000f 02       		.byte	2
 665 0010 03       		.byte	3
 666 0011 01       		.byte	1
 667              		.section	.rodata.vcom_string0,"a",%progbits
 668              		.type	vcom_string0, %object
 669              		.size	vcom_string0, 4
 670              	vcom_string0:
 671 0000 04       		.byte	4
 672 0001 03       		.byte	3
 673 0002 09       		.byte	9
 674 0003 04       		.byte	4
 675              		.text
 676              	.Letext0:
 677              		.file 3 "/opt/gcc-arm-none-eabi-6-2017-q2-update/lib/gcc/arm-none-eabi/6.3.1/include/stddef.h"
 678              		.file 4 "/opt/gcc-arm-none-eabi-6-2017-q2-update/arm-none-eabi/include/machine/_default_types.h"
 679              		.file 5 "/opt/gcc-arm-none-eabi-6-2017-q2-update/arm-none-eabi/include/sys/_stdint.h"
 680              		.file 6 "../../modules/ChibiOS/os/common/ports/ARMCMx/compilers/GCC/chtypes.h"
 681              		.file 7 "../../modules/ChibiOS/os/rt/include/chsystypes.h"
 682              		.file 8 "../../modules/ChibiOS/os/rt/include/chschd.h"
 683              		.file 9 "../../modules/ChibiOS/os/rt/include/chtime.h"
 684              		.file 10 "../../modules/ChibiOS/os/common/ext/ARM/CMSIS/Core/Include/core_cm4.h"
 685              		.file 11 "../../modules/ChibiOS/os/common/ext/ST/STM32F4xx/system_stm32f4xx.h"
 686              		.file 12 "../../modules/ChibiOS/os/common/ext/ST/STM32F4xx/stm32f427xx.h"
 687              		.file 13 "../../modules/ChibiOS/os/common/ports/ARMCMx/chcore.h"
 688              		.file 14 "../../modules/ChibiOS/os/common/ports/ARMCMx/chcore_v7m.h"
 689              		.file 15 "../../modules/ChibiOS/os/rt/include/chtm.h"
 690              		.file 16 "../../modules/ChibiOS/os/rt/include/chsem.h"
 691              		.file 17 "../../modules/ChibiOS/os/rt/include/chmtx.h"
 692              		.file 18 "../../modules/ChibiOS/os/rt/include/chsys.h"
 693              		.file 19 "../../modules/ChibiOS/os/rt/include/chregistry.h"
 694              		.file 20 "../../modules/ChibiOS/os/rt/include/chevents.h"
 695              		.file 21 "../../modules/ChibiOS/os/oslib/include/chmemcore.h"
 696              		.file 22 "../../modules/ChibiOS/os/oslib/include/chmempools.h"
 697              		.file 23 "../../modules/ChibiOS/os/oslib/include/chfactory.h"
 698              		.file 24 "../../modules/ChibiOS/os/hal/ports/STM32/LLD/DMAv2/stm32_dma.h"
 699              		.file 25 "../../modules/ChibiOS/os/hal/include/hal_buffers.h"
 700              		.file 26 "../../modules/ChibiOS/os/hal/include/hal_queues.h"
 701              		.file 27 "../../modules/ChibiOS/os/hal/include/hal_pal.h"
 702              		.file 28 "../../modules/ChibiOS/os/hal/ports/STM32/LLD/GPIOv2/hal_pal_lld.h"
 703              		.file 29 "../../modules/ChibiOS/os/hal/include/hal_adc.h"
 704              		.file 30 "../../modules/ChibiOS/os/hal/ports/STM32/LLD/ADCv2/hal_adc_lld.h"
 705              		.file 31 "../../modules/ChibiOS/os/hal/include/hal_serial.h"
 706              		.file 32 "../../modules/ChibiOS/os/hal/ports/STM32/LLD/USARTv1/hal_serial_lld.h"
 707              		.file 33 "../../modules/ChibiOS/os/hal/include/hal_usb.h"
 708              		.file 34 "../../modules/ChibiOS/os/hal/ports/STM32/LLD/OTGv1/hal_usb_lld.h"
 709              		.file 35 "../../modules/ChibiOS/os/hal/ports/STM32/LLD/OTGv1/stm32_otg.h"
 710              		.file 36 "../../modules/ChibiOS/os/hal/include/hal_serial_usb.h"
 711              		.file 37 "/opt/gcc-arm-none-eabi-6-2017-q2-update/arm-none-eabi/include/sys/lock.h"
 712              		.file 38 "/opt/gcc-arm-none-eabi-6-2017-q2-update/arm-none-eabi/include/sys/_types.h"
 713              		.file 39 "/opt/gcc-arm-none-eabi-6-2017-q2-update/arm-none-eabi/include/sys/reent.h"
 714              		.file 40 "/opt/gcc-arm-none-eabi-6-2017-q2-update/arm-none-eabi/include/stdlib.h"
 715              		.file 41 "../../libraries/AP_HAL_ChibiOS/hwdef/common/usbcfg.h"
 716              		.file 42 "../../modules/ChibiOS/os/hal/osal/rt/osal.h"
 717              		.file 43 "/opt/gcc-arm-none-eabi-6-2017-q2-update/arm-none-eabi/include/string.h"